; ModuleID = 'build_script_build.b48e7894cda112aa-cgu.0'
source_filename = "build_script_build.b48e7894cda112aa-cgu.0"
target datalayout = "e-m:o-p270:32:32-p271:32:32-p272:64:64-i64:64-i128:128-n32:64-S128-Fn32"
target triple = "arm64-apple-macosx11.0.0"

@alloc_7fe94be2e120ffbd80c490b1b3c481ee = private unnamed_addr constant [120 x i8] c"/Users/hongyaotang/.rustup/toolchains/nightly-aarch64-apple-darwin/lib/rustlib/src/rust/library/core/src/str/pattern.rs\00", align 1
@alloc_3c3a438693b52af6c6b31c2cc77620da = private unnamed_addr constant <{ ptr, [16 x i8] }> <{ ptr @alloc_7fe94be2e120ffbd80c490b1b3c481ee, [16 x i8] c"w\00\00\00\00\00\00\00\E4\05\00\00\14\00\00\00" }>, align 8
@alloc_759b6db6182a2ae5f8169b55f322d553 = private unnamed_addr constant <{ ptr, [16 x i8] }> <{ ptr @alloc_7fe94be2e120ffbd80c490b1b3c481ee, [16 x i8] c"w\00\00\00\00\00\00\00\E4\05\00\00!\00\00\00" }>, align 8
@alloc_cfc145f12794171662ae0bd5e97799ce = private unnamed_addr constant <{ ptr, [16 x i8] }> <{ ptr @alloc_7fe94be2e120ffbd80c490b1b3c481ee, [16 x i8] c"w\00\00\00\00\00\00\00\D8\05\00\00!\00\00\00" }>, align 8
@vtable.0 = private unnamed_addr constant <{ [24 x i8], ptr, ptr, ptr }> <{ [24 x i8] c"\00\00\00\00\00\00\00\00\08\00\00\00\00\00\00\00\08\00\00\00\00\00\00\00", ptr @_RNSNvYNCINvNtCs5sEH5CPMdak_3std2rt10lang_startuE0INtNtNtCsjMrxcFdYDNN_4core3ops8function6FnOnceuE9call_once6vtableCsfv65jYcjU7K_18build_script_build, ptr @_RNCINvNtCs5sEH5CPMdak_3std2rt10lang_startuE0Csfv65jYcjU7K_18build_script_build, ptr @_RNCINvNtCs5sEH5CPMdak_3std2rt10lang_startuE0Csfv65jYcjU7K_18build_script_build }>, align 8
@alloc_c7175637917997c04b44e3b2099eecca = private unnamed_addr constant [113 x i8] c"/Users/hongyaotang/.rustup/toolchains/nightly-aarch64-apple-darwin/lib/rustlib/src/rust/library/alloc/src/str.rs\00", align 1
@alloc_3f2fbfdca196a5b824209b380ee7ae1b = private unnamed_addr constant <{ ptr, [16 x i8] }> <{ ptr @alloc_c7175637917997c04b44e3b2099eecca, [16 x i8] c"p\00\00\00\00\00\00\00\B1\00\00\00\16\00\00\00" }>, align 8
@alloc_ca673fb95acb8e58af271999e89294ae = private unnamed_addr constant [53 x i8] c"attempt to join into collection with len > usize::MAX", align 1
@alloc_60488e92c3d9250777708a132d567f7b = private unnamed_addr constant <{ ptr, [16 x i8] }> <{ ptr @alloc_c7175637917997c04b44e3b2099eecca, [16 x i8] c"p\00\00\00\00\00\00\00\9A\00\00\00\0A\00\00\00" }>, align 8
@alloc_70a1e7dc3879e83c39c209c1ae5f1722 = private unnamed_addr constant [5 x i8] c"linux", align 1
@alloc_14c43fe6be9850e9c6ac099b83b2e4e2 = private unnamed_addr constant [7 x i8] c"unknown", align 1
@alloc_8daff54758d29623ecd235730924ebd3 = private unnamed_addr constant [36 x i8] c"cargo:rerun-if-changed=no_atomic.rs\0A", align 1
@alloc_5d03d6024ab10d27589abfe3c21fa1fc = private unnamed_addr constant [73 x i8] c"cargo:rustc-check-cfg=cfg(crossbeam_no_atomic,crossbeam_sanitize_thread)\0A", align 1
@alloc_dcbc225a8ec7dbfaaef714ff8a7176fb = private unnamed_addr constant [6 x i8] c"TARGET", align 1
@alloc_aa31e40b84e5bd72eb2b84fd23b8ce8b = private unnamed_addr constant [18 x i8] c"bpfeb-unknown-none", align 1
@alloc_edb56cace5b9083f410aa7986257c472 = private unnamed_addr constant [18 x i8] c"bpfel-unknown-none", align 1
@alloc_63b8bcb9c0020832e6fa0013d77e86c3 = private unnamed_addr constant [15 x i8] c"mipsel-sony-psx", align 1
@alloc_9a3299e3caae06e665af83a2a067eb68 = private unnamed_addr constant [15 x i8] c"msp430-none-elf", align 1
@alloc_01582604e87246a80fd1827f897aaa0f = private unnamed_addr constant [36 x i8] c"cargo:rustc-cfg=crossbeam_no_atomic\0A", align 1
@alloc_1bde45392581cd9043bc066293d5f001 = private unnamed_addr constant [18 x i8] c"CARGO_CFG_SANITIZE", align 1
@alloc_0ccf5eeb19a73b85efabd846cfd6625c = private unnamed_addr constant [6 x i8] c"thread", align 1
@alloc_d0db898bdad5d945b0a59125e6e03f0f = private unnamed_addr constant [42 x i8] c"cargo:rustc-cfg=crossbeam_sanitize_thread\0A", align 1
@alloc_fcdd247f59f88d03496a2573d293df17 = private unnamed_addr constant [79 x i8] c"Jcargo:warning=crossbeam-utils: unable to get TARGET environment variable: \C0\01\0A\00", align 1
@alloc_d1084648e479974e70c9329824bf76f9 = private unnamed_addr constant [9 x i8] c"mid > len", align 1
@alloc_e52d3af24e8037dfb4f35693fba7d9f6 = private unnamed_addr constant <{ ptr, [16 x i8] }> <{ ptr @alloc_7fe94be2e120ffbd80c490b1b3c481ee, [16 x i8] c"w\00\00\00\00\00\00\00\CD\01\00\007\00\00\00" }>, align 8
@alloc_559c4f386b668c946885822cef1a587d = private unnamed_addr constant <{ ptr, [16 x i8] }> <{ ptr @alloc_7fe94be2e120ffbd80c490b1b3c481ee, [16 x i8] c"w\00\00\00\00\00\00\00h\04\00\00$\00\00\00" }>, align 8

; std::rt::lang_start::<()>
; Function Attrs: uwtable
define hidden noundef i64 @_RINvNtCs5sEH5CPMdak_3std2rt10lang_startuECsfv65jYcjU7K_18build_script_build(ptr noundef nonnull %main, i64 noundef %argc, ptr noundef %argv, i8 noundef %sigpipe) unnamed_addr #0 {
start:
  %_7 = alloca [8 x i8], align 8
  call void @llvm.lifetime.start.p0(i64 8, ptr nonnull %_7)
  store ptr %main, ptr %_7, align 8
; call std::rt::lang_start_internal
  %_0 = call noundef i64 @_RNvNtCs5sEH5CPMdak_3std2rt19lang_start_internal(ptr noundef nonnull align 1 %_7, ptr noalias noundef readonly align 8 captures(address, read_provenance) dereferenceable(48) @vtable.0, i64 noundef %argc, ptr noundef %argv, i8 noundef %sigpipe)
  call void @llvm.lifetime.end.p0(i64 8, ptr nonnull %_7)
  ret i64 %_0
}

; std::sys::backtrace::__rust_begin_short_backtrace::<fn(), ()>
; Function Attrs: noinline uwtable
define internal fastcc void @_RINvNtNtCs5sEH5CPMdak_3std3sys9backtrace28___rust_begin_short_backtraceFEuuECsfv65jYcjU7K_18build_script_build(ptr noundef nonnull readonly captures(none) %f) unnamed_addr #1 {
start:
  tail call void %f()
  tail call void asm sideeffect "", "~{memory}"() #20, !srcloc !3
  ret void
}

; <alloc::raw_vec::RawVecInner<_>>::reserve::do_reserve_and_handle::<alloc::alloc::Global>
; Function Attrs: cold uwtable
define internal fastcc void @_RINvNvMs2_NtCsdJPVW0sQgAG_5alloc7raw_vecINtB8_11RawVecInnerpE7reserve21do_reserve_and_handleNtNtBa_5alloc6GlobalECsfv65jYcjU7K_18build_script_build(ptr noalias noundef nonnull align 8 captures(none) dereferenceable(16) %slf, i64 noundef %len, i64 noundef %additional, i64 noundef range(i64 1, 9) %elem_layout.0, i64 noundef range(i64 1, 17) %elem_layout.1) unnamed_addr #2 personality ptr @rust_eh_personality {
start:
  %self3.i = alloca [24 x i8], align 8
  tail call void @llvm.experimental.noalias.scope.decl(metadata !4)
  %_25.0.i = add i64 %additional, %len
  %_25.1.i = icmp ult i64 %_25.0.i, %len
  br i1 %_25.1.i, label %bb2, label %bb9.i

bb9.i:                                            ; preds = %start
  %self5.i = load i64, ptr %slf, align 8, !range !7, !alias.scope !4, !noundef !8
  %v16.i = shl nuw i64 %self5.i, 1
  %_0.sroa.0.0.i.i = tail call noundef i64 @llvm.umax.i64(i64 %_25.0.i, i64 %v16.i)
  %0 = icmp eq i64 %elem_layout.1, 1
  %v1.sroa.0.0.i = select i1 %0, i64 8, i64 4
  %_0.sroa.0.0.i16.i = tail call noundef i64 @llvm.umax.i64(i64 %_0.sroa.0.0.i.i, i64 %v1.sroa.0.0.i)
  call void @llvm.lifetime.start.p0(i64 24, ptr nonnull %self3.i), !noalias !4
  %1 = getelementptr inbounds nuw i8, ptr %slf, i64 8
  %self.val15.i = load ptr, ptr %1, align 8, !alias.scope !4
; call <alloc::raw_vec::RawVecInner>::finish_grow
  call fastcc void @_RNvMs4_NtCsdJPVW0sQgAG_5alloc7raw_vecNtB5_11RawVecInner11finish_growCsfv65jYcjU7K_18build_script_build(ptr noalias noundef align 8 captures(none) dereferenceable(24) %self3.i, i64 %self5.i, ptr %self.val15.i, i64 noundef %_0.sroa.0.0.i16.i, i64 noundef range(i64 1, 9) %elem_layout.0, i64 noundef range(i64 1, 17) %elem_layout.1), !noalias !4
  %_35.i = load i64, ptr %self3.i, align 8, !range !9, !noalias !4, !noundef !8
  %2 = trunc nuw i64 %_35.i to i1
  %3 = getelementptr inbounds nuw i8, ptr %self3.i, i64 8
  br i1 %2, label %bb18.i, label %bb3

bb18.i:                                           ; preds = %bb9.i
  %e.0.i = load i64, ptr %3, align 8, !range !10, !noalias !4, !noundef !8
  %4 = getelementptr inbounds nuw i8, ptr %self3.i, i64 16
  %e.1.i = load i64, ptr %4, align 8, !noalias !4
  call void @llvm.lifetime.end.p0(i64 24, ptr nonnull %self3.i), !noalias !4
  br label %bb2

bb2:                                              ; preds = %bb18.i, %start
  %_0.sroa.5.0.i.ph = phi i64 [ undef, %start ], [ %e.1.i, %bb18.i ]
  %_0.sroa.0.0.i.ph = phi i64 [ 0, %start ], [ %e.0.i, %bb18.i ]
; call alloc::raw_vec::handle_error
  tail call void @_RNvNtCsdJPVW0sQgAG_5alloc7raw_vec12handle_error(i64 noundef %_0.sroa.0.0.i.ph, i64 %_0.sroa.5.0.i.ph) #21
  unreachable

bb3:                                              ; preds = %bb9.i
  %v.0.i = load ptr, ptr %3, align 8, !noalias !4, !nonnull !8, !noundef !8
  call void @llvm.lifetime.end.p0(i64 24, ptr nonnull %self3.i), !noalias !4
  store ptr %v.0.i, ptr %1, align 8, !alias.scope !4
  %5 = icmp sgt i64 %_0.sroa.0.0.i16.i, -1
  tail call void @llvm.assume(i1 %5)
  store i64 %_0.sroa.0.0.i16.i, ptr %slf, align 8, !alias.scope !4
  ret void
}

; std::rt::lang_start::<()>::{closure#0}
; Function Attrs: inlinehint uwtable
define internal noundef i32 @_RNCINvNtCs5sEH5CPMdak_3std2rt10lang_startuE0Csfv65jYcjU7K_18build_script_build(ptr noalias noundef readonly align 8 captures(none) dereferenceable(8) %_1) unnamed_addr #3 {
start:
  %_4 = load ptr, ptr %_1, align 8, !nonnull !8, !noundef !8
; call std::sys::backtrace::__rust_begin_short_backtrace::<fn(), ()>
  tail call fastcc void @_RINvNtNtCs5sEH5CPMdak_3std3sys9backtrace28___rust_begin_short_backtraceFEuuECsfv65jYcjU7K_18build_script_build(ptr noundef nonnull %_4) #22
  ret i32 0
}

; <std::rt::lang_start<()>::{closure#0} as core::ops::function::FnOnce<()>>::call_once::{shim:vtable#0}
; Function Attrs: inlinehint uwtable
define internal noundef i32 @_RNSNvYNCINvNtCs5sEH5CPMdak_3std2rt10lang_startuE0INtNtNtCsjMrxcFdYDNN_4core3ops8function6FnOnceuE9call_once6vtableCsfv65jYcjU7K_18build_script_build(ptr noundef readonly captures(none) %_1) unnamed_addr #3 personality ptr @rust_eh_personality {
start:
  %0 = load ptr, ptr %_1, align 8, !nonnull !8, !noundef !8
; call std::sys::backtrace::__rust_begin_short_backtrace::<fn(), ()>
  tail call fastcc void @_RINvNtNtCs5sEH5CPMdak_3std3sys9backtrace28___rust_begin_short_backtraceFEuuECsfv65jYcjU7K_18build_script_build(ptr noundef nonnull readonly %0) #22, !noalias !11
  ret i32 0
}

; build_script_build::main
; Function Attrs: uwtable
define hidden void @_RNvCsfv65jYcjU7K_18build_script_build4main() unnamed_addr #0 personality ptr @rust_eh_personality {
start:
  %_14.i19 = alloca [104 x i8], align 8
  %result.i.i = alloca [24 x i8], align 8
  %_19.i.i = alloca [72 x i8], align 8
  %vector.i.i = alloca [24 x i8], align 8
  %_3.i = alloca [72 x i8], align 8
  %_24 = alloca [32 x i8], align 8
  %args = alloca [16 x i8], align 8
  %e = alloca [24 x i8], align 8
  %_6 = alloca [32 x i8], align 8
; call std::io::stdio::_print
  tail call void @_RNvNtNtCs5sEH5CPMdak_3std2io5stdio6__print(ptr noundef nonnull @alloc_8daff54758d29623ecd235730924ebd3, ptr noundef nonnull inttoptr (i64 73 to ptr))
; call std::io::stdio::_print
  tail call void @_RNvNtNtCs5sEH5CPMdak_3std2io5stdio6__print(ptr noundef nonnull @alloc_5d03d6024ab10d27589abfe3c21fa1fc, ptr noundef nonnull inttoptr (i64 147 to ptr))
  call void @llvm.lifetime.start.p0(i64 32, ptr nonnull %_6)
; call std::env::_var
  call void @_RNvNtCs5sEH5CPMdak_3std3env4__var(ptr noalias noundef nonnull sret([32 x i8]) align 8 captures(none) dereferenceable(32) %_6, ptr noalias noundef nonnull readonly align 1 captures(address, read_provenance) @alloc_dcbc225a8ec7dbfaaef714ff8a7176fb, i64 noundef 6)
  %_7 = load i64, ptr %_6, align 8, !range !9, !noundef !8
  %0 = trunc nuw i64 %_7 to i1
  br i1 %0, label %bb5, label %bb6

bb5:                                              ; preds = %start
  call void @llvm.lifetime.start.p0(i64 24, ptr nonnull %e)
  %1 = getelementptr inbounds nuw i8, ptr %_6, i64 8
  call void @llvm.memcpy.p0.p0.i64(ptr noundef nonnull align 8 dereferenceable(24) %e, ptr noundef nonnull align 8 dereferenceable(24) %1, i64 24, i1 false)
  call void @llvm.lifetime.start.p0(i64 16, ptr nonnull %args)
  store ptr %e, ptr %args, align 8
  %_14.sroa.4.0..sroa_idx = getelementptr inbounds nuw i8, ptr %args, i64 8
  store ptr @_RNvXs2_NtCs5sEH5CPMdak_3std3envNtB5_8VarErrorNtNtCsjMrxcFdYDNN_4core3fmt7Display3fmt, ptr %_14.sroa.4.0..sroa_idx, align 8
; invoke std::io::stdio::_print
  invoke void @_RNvNtNtCs5sEH5CPMdak_3std2io5stdio6__print(ptr noundef nonnull @alloc_fcdd247f59f88d03496a2573d293df17, ptr noundef nonnull %args)
          to label %bb8 unwind label %cleanup3

bb6:                                              ; preds = %start
  %2 = getelementptr inbounds nuw i8, ptr %_6, i64 8
  %target1.sroa.0.0.copyload = load i64, ptr %2, align 8
  %target1.sroa.3.0..sroa_idx = getelementptr inbounds nuw i8, ptr %_6, i64 16
  %target1.sroa.3.0.copyload = load ptr, ptr %target1.sroa.3.0..sroa_idx, align 8, !nonnull !8, !noundef !8
  %target1.sroa.4.0..sroa_idx = getelementptr inbounds nuw i8, ptr %_6, i64 24
  %target1.sroa.4.0.copyload = load i64, ptr %target1.sroa.4.0..sroa_idx, align 8
  call void @llvm.lifetime.start.p0(i64 72, ptr nonnull %_3.i)
  store i64 0, ptr %_3.i, align 8, !noalias !14
  %_15.sroa.4.0._3.sroa_idx.i = getelementptr inbounds nuw i8, ptr %_3.i, i64 8
  store i64 %target1.sroa.4.0.copyload, ptr %_15.sroa.4.0._3.sroa_idx.i, align 8, !noalias !14
  %_15.sroa.5.0._3.sroa_idx.i = getelementptr inbounds nuw i8, ptr %_3.i, i64 16
  store ptr %target1.sroa.3.0.copyload, ptr %_15.sroa.5.0._3.sroa_idx.i, align 8, !noalias !14
  %_15.sroa.5.sroa.4.0._15.sroa.5.0._3.sroa_idx.sroa_idx.i = getelementptr inbounds nuw i8, ptr %_3.i, i64 24
  store i64 %target1.sroa.4.0.copyload, ptr %_15.sroa.5.sroa.4.0._15.sroa.5.0._3.sroa_idx.sroa_idx.i, align 8, !noalias !14
  %_15.sroa.5.sroa.5.0._15.sroa.5.0._3.sroa_idx.sroa_idx.i = getelementptr inbounds nuw i8, ptr %_3.i, i64 32
  store i64 0, ptr %_15.sroa.5.sroa.5.0._15.sroa.5.0._3.sroa_idx.sroa_idx.i, align 8, !noalias !14
  %_15.sroa.5.sroa.6.0._15.sroa.5.0._3.sroa_idx.sroa_idx.i = getelementptr inbounds nuw i8, ptr %_3.i, i64 40
  store i64 %target1.sroa.4.0.copyload, ptr %_15.sroa.5.sroa.6.0._15.sroa.5.0._3.sroa_idx.sroa_idx.i, align 8, !noalias !14
  %_15.sroa.5.sroa.7.0._15.sroa.5.0._3.sroa_idx.sroa_idx.i = getelementptr inbounds nuw i8, ptr %_3.i, i64 48
  store <2 x i32> splat (i32 45), ptr %_15.sroa.5.sroa.7.0._15.sroa.5.0._3.sroa_idx.sroa_idx.i, align 8, !noalias !14
  %_15.sroa.5.sroa.9.0._15.sroa.5.0._3.sroa_idx.sroa_idx.i = getelementptr inbounds nuw i8, ptr %_3.i, i64 56
  store i8 1, ptr %_15.sroa.5.sroa.9.0._15.sroa.5.0._3.sroa_idx.sroa_idx.i, align 8, !noalias !14
  %_15.sroa.6.0._3.sroa_idx.i = getelementptr inbounds nuw i8, ptr %_3.i, i64 64
  store i8 1, ptr %_15.sroa.6.0._3.sroa_idx.i, align 8, !noalias !14
  %_15.sroa.7.0._3.sroa_idx.i = getelementptr inbounds nuw i8, ptr %_3.i, i64 65
  store i8 0, ptr %_15.sroa.7.0._3.sroa_idx.i, align 1, !noalias !14
  call void @llvm.lifetime.start.p0(i64 24, ptr nonnull %vector.i.i), !noalias !18
; invoke <core::str::iter::Split<char> as core::iter::traits::iterator::Iterator>::next
  %3 = invoke fastcc { ptr, i64 } @_RNvXsX_NtNtCsjMrxcFdYDNN_4core3str4iterINtB5_5SplitcENtNtNtNtB9_4iter6traits8iterator8Iterator4nextCsfv65jYcjU7K_18build_script_build(ptr noalias noundef nonnull align 8 dereferenceable(72) %_3.i)
          to label %.noexc.i unwind label %cleanup.i, !noalias !14

bb6.i:                                            ; preds = %bb2.i.i.i4.i.i, %cleanup1.body.i, %bb2.i.i.i4.i.i11.i, %cleanup3.i.i, %cleanup.i
  %.pn.i = phi { ptr, i32 } [ %5, %cleanup.i ], [ %lpad.phi16.i.i, %bb2.i.i.i4.i.i11.i ], [ %lpad.loopexit.i.i, %cleanup3.i.i ], [ %eh.lpad-body21.i, %cleanup1.body.i ], [ %eh.lpad-body21.i, %bb2.i.i.i4.i.i ]
  %4 = icmp eq i64 %target1.sroa.0.0.copyload, 0
  br i1 %4, label %common.resume, label %bb2.i.i.i4.i.i.i

bb2.i.i.i4.i.i.i:                                 ; preds = %bb6.i
; call __rustc::__rust_dealloc
  tail call void @_RNvCsKhRCbHf33p_7___rustc14___rust_dealloc(ptr noundef nonnull %target1.sroa.3.0.copyload, i64 noundef %target1.sroa.0.0.copyload, i64 noundef range(i64 1, -9223372036854775807) 1) #20, !noalias !14
  br label %common.resume

cleanup.i:                                        ; preds = %bb3.i.i.i, %bb6
  %5 = landingpad { ptr, i32 }
          cleanup
  br label %bb6.i

.noexc.i:                                         ; preds = %bb6
  %6 = extractvalue { ptr, i64 } %3, 0
  %7 = extractvalue { ptr, i64 } %3, 1
  %.not.i.i = icmp eq ptr %6, null
  br i1 %.not.i.i, label %bb14.thread.i, label %_RNvXs_NtCsdJPVW0sQgAG_5alloc5allocNtB4_6GlobalNtNtCsjMrxcFdYDNN_4core5alloc9Allocator8allocate.exit.i.i.i.i

bb14.thread.i:                                    ; preds = %.noexc.i
  call void @llvm.lifetime.end.p0(i64 24, ptr nonnull %vector.i.i), !noalias !18
  br label %bb3.i

_RNvXs_NtCsdJPVW0sQgAG_5alloc5allocNtB4_6GlobalNtNtCsjMrxcFdYDNN_4core5alloc9Allocator8allocate.exit.i.i.i.i: ; preds = %.noexc.i
; call __rustc::__rust_no_alloc_shim_is_unstable_v2
  tail call void @_RNvCsKhRCbHf33p_7___rustc35___rust_no_alloc_shim_is_unstable_v2() #20, !noalias !22
; call __rustc::__rust_alloc
  %8 = tail call noundef align 8 dereferenceable_or_null(64) ptr @_RNvCsKhRCbHf33p_7___rustc12___rust_alloc(i64 noundef 64, i64 noundef range(i64 1, 9) 8) #20, !noalias !22
  %9 = icmp eq ptr %8, null
  br i1 %9, label %bb3.i.i.i, label %_RNvMs4_NtCsdJPVW0sQgAG_5alloc7raw_vecNtB5_11RawVecInner16with_capacity_inCsfv65jYcjU7K_18build_script_build.exit.i.i

bb3.i.i.i:                                        ; preds = %_RNvXs_NtCsdJPVW0sQgAG_5alloc5allocNtB4_6GlobalNtNtCsjMrxcFdYDNN_4core5alloc9Allocator8allocate.exit.i.i.i.i
; invoke alloc::raw_vec::handle_error
  invoke void @_RNvNtCsdJPVW0sQgAG_5alloc7raw_vec12handle_error(i64 noundef 8, i64 64) #21
          to label %.noexc12.i unwind label %cleanup.i, !noalias !14

.noexc12.i:                                       ; preds = %bb3.i.i.i
  unreachable

_RNvMs4_NtCsdJPVW0sQgAG_5alloc7raw_vecNtB5_11RawVecInner16with_capacity_inCsfv65jYcjU7K_18build_script_build.exit.i.i: ; preds = %_RNvXs_NtCsdJPVW0sQgAG_5alloc5allocNtB4_6GlobalNtNtCsjMrxcFdYDNN_4core5alloc9Allocator8allocate.exit.i.i.i.i
  store ptr %6, ptr %8, align 8, !noalias !18
  %10 = getelementptr inbounds nuw i8, ptr %8, i64 8
  store i64 %7, ptr %10, align 8, !noalias !18
  store i64 4, ptr %vector.i.i, align 8, !noalias !18
  %vector1.sroa.4.0.vector.sroa_idx.i.i = getelementptr inbounds nuw i8, ptr %vector.i.i, i64 8
  store ptr %8, ptr %vector1.sroa.4.0.vector.sroa_idx.i.i, align 8, !noalias !18
  %vector1.sroa.6.0.vector.sroa_idx.i.i = getelementptr inbounds nuw i8, ptr %vector.i.i, i64 16
  store i64 1, ptr %vector1.sroa.6.0.vector.sroa_idx.i.i, align 8, !noalias !18
  call void @llvm.lifetime.start.p0(i64 72, ptr nonnull %_19.i.i), !noalias !18
  call void @llvm.memcpy.p0.p0.i64(ptr noundef nonnull align 8 dereferenceable(72) %_19.i.i, ptr noundef nonnull align 8 dereferenceable(72) %_3.i, i64 72, i1 false), !noalias !25
  tail call void @llvm.experimental.noalias.scope.decl(metadata !26)
  tail call void @llvm.experimental.noalias.scope.decl(metadata !29)
; invoke <core::str::iter::Split<char> as core::iter::traits::iterator::Iterator>::next
  %11 = invoke fastcc { ptr, i64 } @_RNvXsX_NtNtCsjMrxcFdYDNN_4core3str4iterINtB5_5SplitcENtNtNtNtB9_4iter6traits8iterator8Iterator4nextCsfv65jYcjU7K_18build_script_build(ptr noalias noundef nonnull align 8 dereferenceable(72) %_19.i.i)
          to label %.noexc.i.i unwind label %cleanup3.thread.i.i, !noalias !18

.noexc.i.i:                                       ; preds = %_RNvMs4_NtCsdJPVW0sQgAG_5alloc7raw_vecNtB5_11RawVecInner16with_capacity_inCsfv65jYcjU7K_18build_script_build.exit.i.i
  %12 = extractvalue { ptr, i64 } %11, 0
  %.not6.i.i.i.i = icmp eq ptr %12, null
  br i1 %.not6.i.i.i.i, label %bb9.thread.i, label %bb3.i.i.i.i

bb9.thread.i:                                     ; preds = %.noexc.i.i
  call void @llvm.lifetime.end.p0(i64 72, ptr nonnull %_19.i.i), !noalias !18
  call void @llvm.lifetime.end.p0(i64 24, ptr nonnull %vector.i.i), !noalias !18
  br label %bb2.i

bb3.i.i.i.i:                                      ; preds = %.noexc.i.i, %.noexc9.i.i
  %_23.i.i10.i.i = phi ptr [ %_23.i.i.i.i, %.noexc9.i.i ], [ %8, %.noexc.i.i ]
  %len.i.i.i.i = phi i64 [ %new_len.i.i.i.i, %.noexc9.i.i ], [ 1, %.noexc.i.i ]
  %.pn.i.i.i.i = phi { ptr, i64 } [ %16, %.noexc9.i.i ], [ %11, %.noexc.i.i ]
  %13 = phi ptr [ %17, %.noexc9.i.i ], [ %12, %.noexc.i.i ]
  %14 = extractvalue { ptr, i64 } %.pn.i.i.i.i, 1
  %_19.i.i.i.i = icmp samesign ult i64 %len.i.i.i.i, 576460752303423488
  tail call void @llvm.assume(i1 %_19.i.i.i.i)
  %self1.i.i.i.i = load i64, ptr %vector.i.i, align 8, !range !7, !alias.scope !32, !noalias !33, !noundef !8
  %_8.i.i.i.i = icmp eq i64 %len.i.i.i.i, %self1.i.i.i.i
  br i1 %_8.i.i.i.i, label %_RNvMs_NtCsdJPVW0sQgAG_5alloc3vecINtB4_3VecReE7reserveCsfv65jYcjU7K_18build_script_build.exit.i.i.i.i, label %bb8.i.i.i.i

_RNvMs_NtCsdJPVW0sQgAG_5alloc3vecINtB4_3VecReE7reserveCsfv65jYcjU7K_18build_script_build.exit.i.i.i.i: ; preds = %bb3.i.i.i.i
; invoke <alloc::raw_vec::RawVecInner<_>>::reserve::do_reserve_and_handle::<alloc::alloc::Global>
  invoke fastcc void @_RINvNvMs2_NtCsdJPVW0sQgAG_5alloc7raw_vecINtB8_11RawVecInnerpE7reserve21do_reserve_and_handleNtNtBa_5alloc6GlobalECsfv65jYcjU7K_18build_script_build(ptr noalias noundef nonnull align 8 dereferenceable(24) %vector.i.i, i64 noundef %len.i.i.i.i, i64 noundef range(i64 1, 0) 1, i64 noundef 8, i64 noundef 16)
          to label %_RNvMs_NtCsdJPVW0sQgAG_5alloc3vecINtB4_3VecReE7reserveCsfv65jYcjU7K_18build_script_build.exit.i.i.bb8.i.i_crit_edge.i.i unwind label %cleanup3.i.i, !noalias !18

_RNvMs_NtCsdJPVW0sQgAG_5alloc3vecINtB4_3VecReE7reserveCsfv65jYcjU7K_18build_script_build.exit.i.i.bb8.i.i_crit_edge.i.i: ; preds = %_RNvMs_NtCsdJPVW0sQgAG_5alloc3vecINtB4_3VecReE7reserveCsfv65jYcjU7K_18build_script_build.exit.i.i.i.i
  %_23.i.i.pre.i.i = load ptr, ptr %vector1.sroa.4.0.vector.sroa_idx.i.i, align 8, !alias.scope !32, !noalias !33
  br label %bb8.i.i.i.i

bb8.i.i.i.i:                                      ; preds = %_RNvMs_NtCsdJPVW0sQgAG_5alloc3vecINtB4_3VecReE7reserveCsfv65jYcjU7K_18build_script_build.exit.i.i.bb8.i.i_crit_edge.i.i, %bb3.i.i.i.i
  %_23.i.i.i.i = phi ptr [ %_23.i.i.pre.i.i, %_RNvMs_NtCsdJPVW0sQgAG_5alloc3vecINtB4_3VecReE7reserveCsfv65jYcjU7K_18build_script_build.exit.i.i.bb8.i.i_crit_edge.i.i ], [ %_23.i.i10.i.i, %bb3.i.i.i.i ]
  %dst.i.i.i.i = getelementptr inbounds nuw { ptr, i64 }, ptr %_23.i.i.i.i, i64 %len.i.i.i.i
  store ptr %13, ptr %dst.i.i.i.i, align 8, !noalias !36
  %15 = getelementptr inbounds nuw i8, ptr %dst.i.i.i.i, i64 8
  store i64 %14, ptr %15, align 8, !noalias !36
  %new_len.i.i.i.i = add nuw nsw i64 %len.i.i.i.i, 1
  store i64 %new_len.i.i.i.i, ptr %vector1.sroa.6.0.vector.sroa_idx.i.i, align 8, !alias.scope !32, !noalias !33
; invoke <core::str::iter::Split<char> as core::iter::traits::iterator::Iterator>::next
  %16 = invoke fastcc { ptr, i64 } @_RNvXsX_NtNtCsjMrxcFdYDNN_4core3str4iterINtB5_5SplitcENtNtNtNtB9_4iter6traits8iterator8Iterator4nextCsfv65jYcjU7K_18build_script_build(ptr noalias noundef nonnull align 8 dereferenceable(72) %_19.i.i)
          to label %.noexc9.i.i unwind label %cleanup3.i.i, !noalias !18

.noexc9.i.i:                                      ; preds = %bb8.i.i.i.i
  %17 = extractvalue { ptr, i64 } %16, 0
  %.not.i.i.i.i = icmp eq ptr %17, null
  br i1 %.not.i.i.i.i, label %bb9.i, label %bb3.i.i.i.i

cleanup3.thread.i.i:                              ; preds = %_RNvMs4_NtCsdJPVW0sQgAG_5alloc7raw_vecNtB5_11RawVecInner16with_capacity_inCsfv65jYcjU7K_18build_script_build.exit.i.i
  %lpad.loopexit.split-lp.i.i = landingpad { ptr, i32 }
          cleanup
  br label %bb2.i.i.i4.i.i11.i

cleanup3.i.i:                                     ; preds = %bb8.i.i.i.i, %_RNvMs_NtCsdJPVW0sQgAG_5alloc3vecINtB4_3VecReE7reserveCsfv65jYcjU7K_18build_script_build.exit.i.i.i.i
  %lpad.loopexit.i.i = landingpad { ptr, i32 }
          cleanup
  %vector.val.pre.i.i = load i64, ptr %vector.i.i, align 8, !noalias !18
  %18 = icmp eq i64 %vector.val.pre.i.i, 0
  br i1 %18, label %bb6.i, label %cleanup3.i.bb2.i.i.i4.i.i11_crit_edge.i

cleanup3.i.bb2.i.i.i4.i.i11_crit_edge.i:          ; preds = %cleanup3.i.i
  %vector.val7.i.pre.i = load ptr, ptr %vector1.sroa.4.0.vector.sroa_idx.i.i, align 8, !noalias !18
  %19 = shl nuw i64 %vector.val.pre.i.i, 4
  br label %bb2.i.i.i4.i.i11.i

bb2.i.i.i4.i.i11.i:                               ; preds = %cleanup3.i.bb2.i.i.i4.i.i11_crit_edge.i, %cleanup3.thread.i.i
  %vector.val7.i.i = phi ptr [ %8, %cleanup3.thread.i.i ], [ %vector.val7.i.pre.i, %cleanup3.i.bb2.i.i.i4.i.i11_crit_edge.i ]
  %lpad.phi16.i.i = phi { ptr, i32 } [ %lpad.loopexit.split-lp.i.i, %cleanup3.thread.i.i ], [ %lpad.loopexit.i.i, %cleanup3.i.bb2.i.i.i4.i.i11_crit_edge.i ]
  %vector.val15.i.i = phi i64 [ 64, %cleanup3.thread.i.i ], [ %19, %cleanup3.i.bb2.i.i.i4.i.i11_crit_edge.i ]
; call __rustc::__rust_dealloc
  tail call void @_RNvCsKhRCbHf33p_7___rustc14___rust_dealloc(ptr noundef nonnull %vector.val7.i.i, i64 noundef %vector.val15.i.i, i64 noundef range(i64 1, -9223372036854775807) 8) #20, !noalias !18
  br label %bb6.i

bb9.i:                                            ; preds = %.noexc9.i.i
  %parts.sroa.0.0.copyload.pre.i = load i64, ptr %vector.i.i, align 8, !noalias !37
  %parts.sroa.6.0.copyload.pre.i = load ptr, ptr %vector1.sroa.4.0.vector.sroa_idx.i.i, align 8, !noalias !37
  call void @llvm.lifetime.end.p0(i64 72, ptr nonnull %_19.i.i), !noalias !18
  call void @llvm.lifetime.end.p0(i64 24, ptr nonnull %vector.i.i), !noalias !18
  %_23.i = icmp samesign ugt i64 %len.i.i.i.i, 1
  br i1 %_23.i, label %bb10.i, label %bb2.i

bb10.i:                                           ; preds = %bb9.i
  %20 = getelementptr i8, ptr %parts.sroa.6.0.copyload.pre.i, i64 40
  %_24.val9.i = load i64, ptr %20, align 8, !noalias !14, !noundef !8
  %_3.not.i.i.i.i = icmp eq i64 %_24.val9.i, 5
  br i1 %_3.not.i.i.i.i, label %bb12.i, label %bb41.i.i

bb2.i:                                            ; preds = %bb9.i, %bb9.thread.i
  %parts.sroa.12.0.copyload98.i = phi i64 [ 1, %bb9.thread.i ], [ %new_len.i.i.i.i, %bb9.i ]
  %parts.sroa.0.0.copyload93.i = phi i64 [ 4, %bb9.thread.i ], [ %parts.sroa.0.0.copyload.pre.i, %bb9.i ]
  %parts.sroa.6.0.copyload88.i = phi ptr [ %8, %bb9.thread.i ], [ %parts.sroa.6.0.copyload.pre.i, %bb9.i ]
  tail call void @llvm.experimental.noalias.scope.decl(metadata !38)
  br label %bb41.i.i

bb41.i.i:                                         ; preds = %bb13.i, %bb12.i, %bb2.i, %bb10.i
  %parts.sroa.12.0.copyload97.i = phi i64 [ %parts.sroa.12.0.copyload98.i, %bb2.i ], [ %new_len.i.i.i.i, %bb10.i ], [ %new_len.i.i.i.i, %bb12.i ], [ %new_len.i.i.i.i, %bb13.i ]
  %parts.sroa.0.0.copyload92.i = phi i64 [ %parts.sroa.0.0.copyload93.i, %bb2.i ], [ %parts.sroa.0.0.copyload.pre.i, %bb10.i ], [ %parts.sroa.0.0.copyload.pre.i, %bb12.i ], [ %parts.sroa.0.0.copyload.pre.i, %bb13.i ]
  %parts.sroa.6.0.copyload87.i = phi ptr [ %parts.sroa.6.0.copyload88.i, %bb2.i ], [ %parts.sroa.6.0.copyload.pre.i, %bb10.i ], [ %parts.sroa.6.0.copyload.pre.i, %bb12.i ], [ %parts.sroa.6.0.copyload.pre.i, %bb13.i ]
  %_95.idx.i58.i = shl nuw nsw i64 %parts.sroa.12.0.copyload97.i, 4
  %_95.i59.i = getelementptr inbounds nuw i8, ptr %parts.sroa.6.0.copyload87.i, i64 %_95.idx.i58.i
  %gepdiff.i.i = add nsw i64 %_95.idx.i58.i, -16
  %21 = lshr exact i64 %gepdiff.i.i, 4
  br label %bb1.i.i.i

bb1.i.i.i:                                        ; preds = %bb3.i.i13.i, %bb41.i.i
  %_16.i6.i.i.i = phi ptr [ %parts.sroa.6.0.copyload87.i, %bb41.i.i ], [ %_16.i.i.i.i, %bb3.i.i13.i ]
  %accum.sroa.0.0.i.i.i = phi i64 [ %21, %bb41.i.i ], [ %_4.0.i.i.i.i.i.i, %bb3.i.i13.i ]
  %_6.i.i.i.i = icmp eq ptr %_16.i6.i.i.i, %_95.i59.i
  br i1 %_6.i.i.i.i, label %bb53.i.i, label %bb3.i.i13.i

bb3.i.i13.i:                                      ; preds = %bb1.i.i.i
  %_16.i.i.i.i = getelementptr inbounds nuw i8, ptr %_16.i6.i.i.i, i64 16
  %22 = getelementptr i8, ptr %_16.i6.i.i.i, i64 8
  %.val3.i.i.i = load i64, ptr %22, align 8, !alias.scope !38, !noalias !41, !noundef !8
  %_4.0.i.i.i.i.i.i = add i64 %.val3.i.i.i, %accum.sroa.0.0.i.i.i
  %_4.1.i.i.i.i.i.i = icmp ult i64 %_4.0.i.i.i.i.i.i, %accum.sroa.0.0.i.i.i
  br i1 %_4.1.i.i.i.i.i.i, label %bb52.i.i, label %bb1.i.i.i

bb53.i.i:                                         ; preds = %bb1.i.i.i
  call void @llvm.lifetime.start.p0(i64 24, ptr nonnull %result.i.i), !noalias !45
  %_23.i.i.i.i.i = icmp eq i64 %accum.sroa.0.0.i.i.i, 0
  br i1 %_23.i.i.i.i.i, label %bb4.i.i, label %bb6.i.i.i.i.i

bb6.i.i.i.i.i:                                    ; preds = %bb53.i.i
  %or.cond.not.i.i = icmp sgt i64 %accum.sroa.0.0.i.i.i, 0
  br i1 %or.cond.not.i.i, label %_RNvXs_NtCsdJPVW0sQgAG_5alloc5allocNtB4_6GlobalNtNtCsjMrxcFdYDNN_4core5alloc9Allocator8allocate.exit.i.i.i14.i, label %bb3.i102.i.i, !prof !46

_RNvXs_NtCsdJPVW0sQgAG_5alloc5allocNtB4_6GlobalNtNtCsjMrxcFdYDNN_4core5alloc9Allocator8allocate.exit.i.i.i14.i: ; preds = %bb6.i.i.i.i.i
; call __rustc::__rust_no_alloc_shim_is_unstable_v2
  tail call void @_RNvCsKhRCbHf33p_7___rustc35___rust_no_alloc_shim_is_unstable_v2() #20, !noalias !47
; call __rustc::__rust_alloc
  %23 = tail call noundef ptr @_RNvCsKhRCbHf33p_7___rustc12___rust_alloc(i64 noundef %accum.sroa.0.0.i.i.i, i64 noundef range(i64 1, 9) 1) #20, !noalias !47
  %24 = icmp eq ptr %23, null
  br i1 %24, label %bb3.i102.i.i, label %bb4.i.i

bb3.i102.i.i:                                     ; preds = %_RNvXs_NtCsdJPVW0sQgAG_5alloc5allocNtB4_6GlobalNtNtCsjMrxcFdYDNN_4core5alloc9Allocator8allocate.exit.i.i.i14.i, %bb6.i.i.i.i.i
  %_4.sroa.4.0.ph.i.i.i = phi i64 [ 1, %_RNvXs_NtCsdJPVW0sQgAG_5alloc5allocNtB4_6GlobalNtNtCsjMrxcFdYDNN_4core5alloc9Allocator8allocate.exit.i.i.i14.i ], [ 0, %bb6.i.i.i.i.i ]
; invoke alloc::raw_vec::handle_error
  invoke void @_RNvNtCsdJPVW0sQgAG_5alloc7raw_vec12handle_error(i64 noundef %_4.sroa.4.0.ph.i.i.i, i64 %accum.sroa.0.0.i.i.i) #21
          to label %.noexc19.i unwind label %cleanup1.i, !noalias !14

.noexc19.i:                                       ; preds = %bb3.i102.i.i
  unreachable

bb52.i.i:                                         ; preds = %bb3.i.i13.i
; invoke core::option::expect_failed
  invoke void @_RNvNtCsjMrxcFdYDNN_4core6option13expect_failed(ptr noalias noundef nonnull readonly align 1 captures(address, read_provenance) @alloc_ca673fb95acb8e58af271999e89294ae, i64 noundef 53, ptr noalias noundef readonly align 8 captures(address, read_provenance) dereferenceable(24) @alloc_60488e92c3d9250777708a132d567f7b) #23
          to label %.noexc20.i unwind label %cleanup1.i, !noalias !14

.noexc20.i:                                       ; preds = %bb52.i.i
  unreachable

cleanup.i.i:                                      ; preds = %bb3.i116.invoke.i.i, %bb1.i.i.i.i.i
  %25 = landingpad { ptr, i32 }
          cleanup
  %result.val.i.i = load i64, ptr %result.i.i, align 8, !noalias !45
  %26 = icmp eq i64 %result.val.i.i, 0
  br i1 %26, label %cleanup1.body.i, label %bb2.i.i.i4.i.i17.i

bb2.i.i.i4.i.i17.i:                               ; preds = %cleanup.i.i
  %result.val99.i.i = load ptr, ptr %27, align 8, !noalias !45, !nonnull !8, !noundef !8
; call __rustc::__rust_dealloc
  tail call void @_RNvCsKhRCbHf33p_7___rustc14___rust_dealloc(ptr noundef nonnull %result.val99.i.i, i64 noundef %result.val.i.i, i64 noundef range(i64 1, -9223372036854775807) 1) #20, !noalias !45
  br label %cleanup1.body.i

bb4.i.i:                                          ; preds = %_RNvXs_NtCsdJPVW0sQgAG_5alloc5allocNtB4_6GlobalNtNtCsjMrxcFdYDNN_4core5alloc9Allocator8allocate.exit.i.i.i14.i, %bb53.i.i
  %_4.sroa.10.0.i.i.i = phi ptr [ inttoptr (i64 1 to ptr), %bb53.i.i ], [ %23, %_RNvXs_NtCsdJPVW0sQgAG_5alloc5allocNtB4_6GlobalNtNtCsjMrxcFdYDNN_4core5alloc9Allocator8allocate.exit.i.i.i14.i ]
  store i64 %accum.sroa.0.0.i.i.i, ptr %result.i.i, align 8, !noalias !45
  %27 = getelementptr inbounds nuw i8, ptr %result.i.i, i64 8
  store ptr %_4.sroa.10.0.i.i.i, ptr %27, align 8, !noalias !45
  %28 = getelementptr inbounds nuw i8, ptr %result.i.i, i64 16
  store i64 0, ptr %28, align 8, !noalias !45
  %slice.0.val.i.i = load ptr, ptr %parts.sroa.6.0.copyload87.i, align 8, !alias.scope !38, !noalias !50, !nonnull !8, !align !51, !noundef !8
  %29 = getelementptr i8, ptr %parts.sroa.6.0.copyload87.i, i64 8
  %slice.0.val101.i.i = load i64, ptr %29, align 8, !alias.scope !38, !noalias !50, !noundef !8
  tail call void @llvm.experimental.noalias.scope.decl(metadata !52)
  tail call void @llvm.experimental.noalias.scope.decl(metadata !55)
  %_7.i.i.i.i.i = icmp ugt i64 %slice.0.val101.i.i, %accum.sroa.0.0.i.i.i
  br i1 %_7.i.i.i.i.i, label %bb1.i.i.i.i.i, label %bb55.i.i, !prof !58

bb1.i.i.i.i.i:                                    ; preds = %bb4.i.i
; invoke <alloc::raw_vec::RawVecInner<_>>::reserve::do_reserve_and_handle::<alloc::alloc::Global>
  invoke fastcc void @_RINvNvMs2_NtCsdJPVW0sQgAG_5alloc7raw_vecINtB8_11RawVecInnerpE7reserve21do_reserve_and_handleNtNtBa_5alloc6GlobalECsfv65jYcjU7K_18build_script_build(ptr noalias noundef nonnull align 8 dereferenceable(24) %result.i.i, i64 noundef 0, i64 noundef %slice.0.val101.i.i, i64 noundef 1, i64 noundef 1)
          to label %.noexc.i18.i unwind label %cleanup.i.i, !noalias !45

.noexc.i18.i:                                     ; preds = %bb1.i.i.i.i.i
  %len.pre.i.i.i.i = load i64, ptr %28, align 8, !alias.scope !59, !noalias !45
  %_10.i.i.pre.i.i = load ptr, ptr %27, align 8, !alias.scope !59, !noalias !45
  br label %bb55.i.i

bb55.i.i:                                         ; preds = %.noexc.i18.i, %bb4.i.i
  %_10.i.i.i.i = phi ptr [ %_4.sroa.10.0.i.i.i, %bb4.i.i ], [ %_10.i.i.pre.i.i, %.noexc.i18.i ]
  %len.i.i.i15.i = phi i64 [ 0, %bb4.i.i ], [ %len.pre.i.i.i.i, %.noexc.i18.i ]
  %_9.i.i.i.i = icmp sgt i64 %len.i.i.i15.i, -1
  tail call void @llvm.assume(i1 %_9.i.i.i.i)
  %dst.i.i.i16.i = getelementptr inbounds nuw i8, ptr %_10.i.i.i.i, i64 %len.i.i.i15.i
  tail call void @llvm.memcpy.p0.p0.i64(ptr nonnull align 1 %dst.i.i.i16.i, ptr nonnull readonly align 1 %slice.0.val.i.i, i64 %slice.0.val101.i.i, i1 false), !noalias !60
  %30 = add i64 %len.i.i.i15.i, %slice.0.val101.i.i
  %_157.i.i = icmp sgt i64 %30, -1
  tail call void @llvm.assume(i1 %_157.i.i)
  %index.i.i = sub nsw i64 %accum.sroa.0.0.i.i.i, %30
  %_2206.i.i = icmp eq i64 %parts.sroa.12.0.copyload97.i, 1
  br i1 %_2206.i.i, label %bb14.i, label %bb96.preheader.i.i

bb96.preheader.i.i:                               ; preds = %bb55.i.i
  %iter_uninit.sroa.0.15.i.i = getelementptr inbounds nuw i8, ptr %parts.sroa.6.0.copyload87.i, i64 16
  %_159.i.i = getelementptr inbounds nuw i8, ptr %_10.i.i.i.i, i64 %30
  br label %bb96.i.i

bb90.i.loopexit.i:                                ; preds = %_RINvNtCsjMrxcFdYDNN_4core5slice20copy_from_slice_implINtNtNtB4_3mem12maybe_uninit11MaybeUninithEECsfv65jYcjU7K_18build_script_build.exit122.i.i
  %_37.sroa.5.0.copyload32.pre.i = load ptr, ptr %27, align 8, !noalias !61
  br label %bb14.i

bb96.i.i:                                         ; preds = %_RINvNtCsjMrxcFdYDNN_4core5slice20copy_from_slice_implINtNtNtB4_3mem12maybe_uninit11MaybeUninithEECsfv65jYcjU7K_18build_script_build.exit122.i.i, %bb96.preheader.i.i
  %iter_uninit.sroa.0.110.i.i = phi ptr [ %iter_uninit.sroa.0.1.i.i, %_RINvNtCsjMrxcFdYDNN_4core5slice20copy_from_slice_implINtNtNtB4_3mem12maybe_uninit11MaybeUninithEECsfv65jYcjU7K_18build_script_build.exit122.i.i ], [ %iter_uninit.sroa.0.15.i.i, %bb96.preheader.i.i ]
  %slice.0.pn9.i.i = phi ptr [ %iter_uninit.sroa.0.110.i.i, %_RINvNtCsjMrxcFdYDNN_4core5slice20copy_from_slice_implINtNtNtB4_3mem12maybe_uninit11MaybeUninithEECsfv65jYcjU7K_18build_script_build.exit122.i.i ], [ %parts.sroa.6.0.copyload87.i, %bb96.preheader.i.i ]
  %target.sroa.26.28.i.i = phi i64 [ %len.i.i112.i.i, %_RINvNtCsjMrxcFdYDNN_4core5slice20copy_from_slice_implINtNtNtB4_3mem12maybe_uninit11MaybeUninithEECsfv65jYcjU7K_18build_script_build.exit122.i.i ], [ %index.i.i, %bb96.preheader.i.i ]
  %target.sroa.0.27.i.i = phi ptr [ %data.i.i111.i.i, %_RINvNtCsjMrxcFdYDNN_4core5slice20copy_from_slice_implINtNtNtB4_3mem12maybe_uninit11MaybeUninithEECsfv65jYcjU7K_18build_script_build.exit122.i.i ], [ %_159.i.i, %bb96.preheader.i.i ]
  %iter_uninit.sroa.0.1.val.i.i = load ptr, ptr %iter_uninit.sroa.0.110.i.i, align 8, !alias.scope !38, !noalias !50, !nonnull !8, !align !51, !noundef !8
  %31 = getelementptr i8, ptr %slice.0.pn9.i.i, i64 24
  %iter_uninit.sroa.0.1.val100.i.i = load i64, ptr %31, align 8, !alias.scope !38, !noalias !50, !noundef !8
  %_6.not.i.i.i = icmp eq i64 %target.sroa.26.28.i.i, 0
  br i1 %_6.not.i.i.i, label %bb3.i116.invoke.i.i, label %bb100.i.i, !prof !58

bb100.i.i:                                        ; preds = %bb96.i.i
  %len.i.i104.i.i = add nsw i64 %target.sroa.26.28.i.i, -1
  store i8 45, ptr %target.sroa.0.27.i.i, align 1, !alias.scope !62, !noalias !45
  %_6.not.i109.i.i = icmp ugt i64 %iter_uninit.sroa.0.1.val100.i.i, %len.i.i104.i.i
  br i1 %_6.not.i109.i.i, label %bb3.i116.invoke.i.i, label %_RINvNtCsjMrxcFdYDNN_4core5slice20copy_from_slice_implINtNtNtB4_3mem12maybe_uninit11MaybeUninithEECsfv65jYcjU7K_18build_script_build.exit122.i.i, !prof !58

bb3.i116.invoke.i.i:                              ; preds = %bb100.i.i, %bb96.i.i
; invoke core::panicking::panic_fmt
  invoke void @_RNvNtCsjMrxcFdYDNN_4core9panicking9panic_fmt(ptr noundef nonnull @alloc_d1084648e479974e70c9329824bf76f9, ptr noundef nonnull inttoptr (i64 19 to ptr), ptr noalias noundef readonly align 8 captures(address, read_provenance) dereferenceable(24) @alloc_3f2fbfdca196a5b824209b380ee7ae1b) #23
          to label %bb3.i116.cont.i.i unwind label %cleanup.i.i, !noalias !45

bb3.i116.cont.i.i:                                ; preds = %bb3.i116.invoke.i.i
  unreachable

_RINvNtCsjMrxcFdYDNN_4core5slice20copy_from_slice_implINtNtNtB4_3mem12maybe_uninit11MaybeUninithEECsfv65jYcjU7K_18build_script_build.exit122.i.i: ; preds = %bb100.i.i
  %data.i.i.i.i = getelementptr inbounds nuw i8, ptr %target.sroa.0.27.i.i, i64 1
  %data.i.i111.i.i = getelementptr inbounds nuw i8, ptr %data.i.i.i.i, i64 %iter_uninit.sroa.0.1.val100.i.i
  %len.i.i112.i.i = sub nuw nsw i64 %len.i.i104.i.i, %iter_uninit.sroa.0.1.val100.i.i
  tail call void @llvm.memcpy.p0.p0.i64(ptr nonnull align 1 %data.i.i.i.i, ptr nonnull readonly align 1 %iter_uninit.sroa.0.1.val.i.i, i64 range(i64 0, -9223372036854775808) %iter_uninit.sroa.0.1.val100.i.i, i1 false), !alias.scope !66, !noalias !45
  %iter_uninit.sroa.0.1.i.i = getelementptr inbounds nuw i8, ptr %iter_uninit.sroa.0.110.i.i, i64 16
  %_220.i.i = icmp eq ptr %iter_uninit.sroa.0.1.i.i, %_95.i59.i
  br i1 %_220.i.i, label %bb90.i.loopexit.i, label %bb96.i.i

cleanup1.i:                                       ; preds = %bb52.i.i, %bb3.i102.i.i
  %32 = landingpad { ptr, i32 }
          cleanup
  br label %cleanup1.body.i

cleanup1.body.i:                                  ; preds = %cleanup1.i, %bb2.i.i.i4.i.i17.i, %cleanup.i.i
  %eh.lpad-body21.i = phi { ptr, i32 } [ %32, %cleanup1.i ], [ %25, %bb2.i.i.i4.i.i17.i ], [ %25, %cleanup.i.i ]
  %33 = icmp eq i64 %parts.sroa.0.0.copyload92.i, 0
  br i1 %33, label %bb6.i, label %bb2.i.i.i4.i.i

bb2.i.i.i4.i.i:                                   ; preds = %cleanup1.body.i
  %alloc_size.i.i.i.i5.i.i = shl nuw i64 %parts.sroa.0.0.copyload92.i, 4
  %34 = icmp ne ptr %parts.sroa.6.0.copyload87.i, null
  tail call void @llvm.assume(i1 %34)
; call __rustc::__rust_dealloc
  tail call void @_RNvCsKhRCbHf33p_7___rustc14___rust_dealloc(ptr noundef nonnull %parts.sroa.6.0.copyload87.i, i64 noundef %alloc_size.i.i.i.i5.i.i, i64 noundef range(i64 1, -9223372036854775807) 8) #20, !noalias !14
  br label %bb6.i

bb12.i:                                           ; preds = %bb10.i
  %_24.i = getelementptr inbounds nuw i8, ptr %parts.sroa.6.0.copyload.pre.i, i64 32
  %_24.val.i = load ptr, ptr %_24.i, align 8, !noalias !14, !nonnull !8, !align !51, !noundef !8
  %35 = tail call i32 @memcmp(ptr noundef nonnull readonly align 1 dereferenceable(5) %_24.val.i, ptr noundef nonnull readonly align 1 dereferenceable(5) @alloc_70a1e7dc3879e83c39c209c1ae5f1722, i64 range(i64 0, -9223372036854775808) 5), !alias.scope !70, !noalias !14
  %36 = icmp eq i32 %35, 0
  br i1 %36, label %bb13.i, label %bb41.i.i

bb13.i:                                           ; preds = %bb12.i
  %_7.i = getelementptr inbounds nuw i8, ptr %parts.sroa.6.0.copyload.pre.i, i64 16
  store ptr @alloc_14c43fe6be9850e9c6ac099b83b2e4e2, ptr %_7.i, align 8, !noalias !14
  %37 = getelementptr inbounds nuw i8, ptr %parts.sroa.6.0.copyload.pre.i, i64 24
  store i64 7, ptr %37, align 8, !noalias !14
  br label %bb41.i.i

bb14.i:                                           ; preds = %bb90.i.loopexit.i, %bb55.i.i
  %_37.sroa.5.0.copyload32.i = phi ptr [ %_10.i.i.i.i, %bb55.i.i ], [ %_37.sroa.5.0.copyload32.pre.i, %bb90.i.loopexit.i ]
  %target.sroa.26.2.lcssa.i.i = phi i64 [ %index.i.i, %bb55.i.i ], [ %len.i.i112.i.i, %bb90.i.loopexit.i ]
  %result_len.i.i = sub i64 %accum.sroa.0.0.i.i.i, %target.sroa.26.2.lcssa.i.i
  %_37.sroa.0.0.copyload31.i = load i64, ptr %result.i.i, align 8, !noalias !61
  call void @llvm.lifetime.end.p0(i64 24, ptr nonnull %result.i.i), !noalias !45
  %38 = icmp eq i64 %parts.sroa.0.0.copyload92.i, 0
  br i1 %38, label %bb3.i, label %bb2.i.i.i4.i24.i

bb2.i.i.i4.i24.i:                                 ; preds = %bb14.i
  %alloc_size.i.i.i.i5.i25.i = shl nuw i64 %parts.sroa.0.0.copyload92.i, 4
; call __rustc::__rust_dealloc
  tail call void @_RNvCsKhRCbHf33p_7___rustc14___rust_dealloc(ptr noundef nonnull %parts.sroa.6.0.copyload87.i, i64 noundef %alloc_size.i.i.i.i5.i25.i, i64 noundef range(i64 1, -9223372036854775807) 8) #20, !noalias !14
  br label %bb3.i

bb3.i:                                            ; preds = %bb2.i.i.i4.i24.i, %bb14.i, %bb14.thread.i
  %target.sroa.12.0 = phi i64 [ 0, %bb14.thread.i ], [ %result_len.i.i, %bb14.i ], [ %result_len.i.i, %bb2.i.i.i4.i24.i ]
  %target.sroa.7.0 = phi ptr [ inttoptr (i64 1 to ptr), %bb14.thread.i ], [ %_37.sroa.5.0.copyload32.i, %bb14.i ], [ %_37.sroa.5.0.copyload32.i, %bb2.i.i.i4.i24.i ]
  %target.sroa.0.0 = phi i64 [ 0, %bb14.thread.i ], [ %_37.sroa.0.0.copyload31.i, %bb14.i ], [ %_37.sroa.0.0.copyload31.i, %bb2.i.i.i4.i24.i ]
  %39 = icmp eq i64 %target1.sroa.0.0.copyload, 0
  br i1 %39, label %bb13.lr.ph.i, label %bb2.i.i.i4.i.i27.i

bb2.i.i.i4.i.i27.i:                               ; preds = %bb3.i
; call __rustc::__rust_dealloc
  tail call void @_RNvCsKhRCbHf33p_7___rustc14___rust_dealloc(ptr noundef nonnull %target1.sroa.3.0.copyload, i64 noundef %target1.sroa.0.0.copyload, i64 noundef range(i64 1, -9223372036854775807) 1) #20, !noalias !14
  br label %bb13.lr.ph.i

common.resume:                                    ; preds = %bb23, %bb2.i.i.i4.i.i17, %cleanup3, %cleanup3, %bb2.i.i.i4.i.i.i.i, %bb6.i, %bb2.i.i.i4.i.i.i
  %common.resume.op = phi { ptr, i32 } [ %.pn.i, %bb2.i.i.i4.i.i.i ], [ %.pn.i, %bb6.i ], [ %.pn, %bb23 ], [ %.pn, %bb2.i.i.i4.i.i17 ], [ %129, %cleanup3 ], [ %129, %cleanup3 ], [ %129, %bb2.i.i.i4.i.i.i.i ]
  resume { ptr, i32 } %common.resume.op

bb13.lr.ph.i:                                     ; preds = %bb2.i.i.i4.i.i27.i, %bb3.i
  call void @llvm.lifetime.end.p0(i64 72, ptr nonnull %_3.i)
  call void @llvm.lifetime.end.p0(i64 32, ptr nonnull %_6)
  switch i64 %target.sroa.12.0, label %bb12 [
    i64 18, label %bb2.i.i.i.i.i
    i64 15, label %bb2.i.i.i.i.i.2
  ]

bb2.i.i.i.i.i:                                    ; preds = %bb13.lr.ph.i
  %40 = tail call i32 @memcmp(ptr noundef nonnull readonly align 1 dereferenceable(18) @alloc_aa31e40b84e5bd72eb2b84fd23b8ce8b, ptr noundef nonnull readonly align 1 dereferenceable(18) %target.sroa.7.0, i64 range(i64 0, -9223372036854775808) 18), !alias.scope !77, !noalias !84
  %41 = icmp eq i32 %40, 0
  br i1 %41, label %bb9, label %bb2.i.i.i.i.i.1

bb2.i.i.i.i.i.1:                                  ; preds = %bb2.i.i.i.i.i
  %42 = tail call i32 @memcmp(ptr noundef nonnull readonly align 1 dereferenceable(18) @alloc_edb56cace5b9083f410aa7986257c472, ptr noundef nonnull readonly align 1 dereferenceable(18) %target.sroa.7.0, i64 range(i64 0, -9223372036854775808) 18), !alias.scope !77, !noalias !84
  %43 = icmp eq i32 %42, 0
  br i1 %43, label %bb9, label %bb12

bb2.i.i.i.i.i.2:                                  ; preds = %bb13.lr.ph.i
  %44 = tail call i32 @memcmp(ptr noundef nonnull readonly align 1 dereferenceable(15) @alloc_63b8bcb9c0020832e6fa0013d77e86c3, ptr noundef nonnull readonly align 1 dereferenceable(15) %target.sroa.7.0, i64 range(i64 0, -9223372036854775808) 15), !alias.scope !77, !noalias !84
  %45 = icmp eq i32 %44, 0
  br i1 %45, label %bb9, label %bb2.i.i.i.i.i.3

bb2.i.i.i.i.i.3:                                  ; preds = %bb2.i.i.i.i.i.2
  %46 = tail call i32 @memcmp(ptr noundef nonnull readonly align 1 dereferenceable(15) @alloc_9a3299e3caae06e665af83a2a067eb68, ptr noundef nonnull readonly align 1 dereferenceable(15) %target.sroa.7.0, i64 range(i64 0, -9223372036854775808) 15), !alias.scope !77, !noalias !84
  %47 = icmp eq i32 %46, 0
  br i1 %47, label %bb9, label %bb12

bb23:                                             ; preds = %bb2.i.i.i4.i.i36, %cleanup2, %cleanup
  %.pn = phi { ptr, i32 } [ %50, %cleanup ], [ %120, %cleanup2 ], [ %120, %bb2.i.i.i4.i.i36 ]
  %48 = icmp eq i64 %target.sroa.0.0, 0
  br i1 %48, label %common.resume, label %bb2.i.i.i4.i.i17

bb2.i.i.i4.i.i17:                                 ; preds = %bb23
  %49 = icmp ne ptr %target.sroa.7.0, null
  tail call void @llvm.assume(i1 %49)
; call __rustc::__rust_dealloc
  tail call void @_RNvCsKhRCbHf33p_7___rustc14___rust_dealloc(ptr noundef nonnull %target.sroa.7.0, i64 noundef %target.sroa.0.0, i64 noundef range(i64 1, -9223372036854775807) 1) #20
  br label %common.resume

cleanup:                                          ; preds = %bb12, %bb9
  %50 = landingpad { ptr, i32 }
          cleanup
  br label %bb23

bb9:                                              ; preds = %bb2.i.i.i.i.i.3, %bb2.i.i.i.i.i.2, %bb2.i.i.i.i.i.1, %bb2.i.i.i.i.i
; invoke std::io::stdio::_print
  invoke void @_RNvNtNtCs5sEH5CPMdak_3std2io5stdio6__print(ptr noundef nonnull @alloc_01582604e87246a80fd1827f897aaa0f, ptr noundef nonnull inttoptr (i64 73 to ptr))
          to label %bb12 unwind label %cleanup

bb12:                                             ; preds = %bb13.lr.ph.i, %bb2.i.i.i.i.i.3, %bb2.i.i.i.i.i.1, %bb9
  call void @llvm.lifetime.start.p0(i64 32, ptr nonnull %_24)
; invoke std::env::_var
  invoke void @_RNvNtCs5sEH5CPMdak_3std3env4__var(ptr noalias noundef nonnull sret([32 x i8]) align 8 captures(none) dereferenceable(32) %_24, ptr noalias noundef nonnull readonly align 1 captures(address, read_provenance) @alloc_1bde45392581cd9043bc066293d5f001, i64 noundef 18)
          to label %bb13 unwind label %cleanup

bb13:                                             ; preds = %bb12
  tail call void @llvm.experimental.noalias.scope.decl(metadata !88)
  tail call void @llvm.experimental.noalias.scope.decl(metadata !91)
  %_2.i = load i64, ptr %_24, align 8, !range !9, !alias.scope !91, !noalias !88, !noundef !8
  %51 = trunc nuw i64 %_2.i to i1
  br i1 %51, label %bb3.i.i, label %bb14

bb3.i.i:                                          ; preds = %bb13
  tail call void @llvm.experimental.noalias.scope.decl(metadata !93)
  %52 = getelementptr inbounds nuw i8, ptr %_24, i64 8
  %.val.i.i = load i64, ptr %52, align 8, !alias.scope !96, !noalias !88
  switch i64 %.val.i.i, label %bb1.sink.split.i.i [
    i64 -9223372036854775808, label %bb17.thread
    i64 0, label %bb17.thread
  ]

bb1.sink.split.i.i:                               ; preds = %bb3.i.i
  %53 = getelementptr inbounds nuw i8, ptr %_24, i64 16
  %.val3.i.i = load ptr, ptr %53, align 8, !alias.scope !96, !noalias !88, !nonnull !8, !noundef !8
; call __rustc::__rust_dealloc
  tail call void @_RNvCsKhRCbHf33p_7___rustc14___rust_dealloc(ptr noundef nonnull %.val3.i.i, i64 noundef %.val.i.i, i64 noundef range(i64 1, -9223372036854775807) 1) #20, !noalias !97
  br label %bb17.thread

bb17.thread:                                      ; preds = %bb1.sink.split.i.i, %bb3.i.i, %bb3.i.i
  call void @llvm.lifetime.end.p0(i64 32, ptr nonnull %_24)
  br label %bb18

bb14:                                             ; preds = %bb13
  %54 = getelementptr inbounds nuw i8, ptr %_24, i64 8
  %sanitize.sroa.0.0.copyload = load i64, ptr %54, align 8, !alias.scope !98
  %sanitize.sroa.6.0..sroa_idx = getelementptr inbounds nuw i8, ptr %_24, i64 16
  %sanitize.sroa.6.0.copyload = load ptr, ptr %sanitize.sroa.6.0..sroa_idx, align 8, !alias.scope !98
  %sanitize.sroa.10.0..sroa_idx = getelementptr inbounds nuw i8, ptr %_24, i64 24
  %sanitize.sroa.10.0.copyload = load i64, ptr %sanitize.sroa.10.0..sroa_idx, align 8, !alias.scope !98
  call void @llvm.lifetime.end.p0(i64 32, ptr nonnull %_24)
  %55 = icmp ugt i64 %sanitize.sroa.10.0.copyload, 6
  br i1 %55, label %bb7.i22, label %bb3.i20

bb3.i20:                                          ; preds = %bb14
  %_3.not.i.i = icmp eq i64 %sanitize.sroa.10.0.copyload, 6
  br i1 %_3.not.i.i, label %bb27, label %bb17

bb7.i22:                                          ; preds = %bb14
  call void @llvm.lifetime.start.p0(i64 104, ptr nonnull %_14.i19), !noalias !99
; invoke <core::str::pattern::StrSearcher>::new
  invoke void @_RNvMsu_NtNtCsjMrxcFdYDNN_4core3str7patternNtB5_11StrSearcher3new(ptr noalias noundef nonnull sret([104 x i8]) align 8 captures(none) dereferenceable(104) %_14.i19, ptr noalias noundef nonnull readonly align 1 captures(address, read_provenance) %sanitize.sroa.6.0.copyload, i64 noundef %sanitize.sroa.10.0.copyload, ptr noalias noundef nonnull readonly align 1 captures(address, read_provenance) @alloc_0ccf5eeb19a73b85efabd846cfd6625c, i64 noundef 6)
          to label %.noexc unwind label %cleanup2

.noexc:                                           ; preds = %bb7.i22
  tail call void @llvm.experimental.noalias.scope.decl(metadata !102)
  %_2.i.i = load i64, ptr %_14.i19, align 8, !range !9, !alias.scope !102, !noalias !105, !noundef !8
  %56 = trunc nuw i64 %_2.i.i to i1
  br i1 %56, label %bb2.i2.i, label %bb3.i.critedge.i.i

bb2.i2.i:                                         ; preds = %.noexc
  %searcher.i.i = getelementptr inbounds nuw i8, ptr %_14.i19, i64 8
  %57 = getelementptr inbounds nuw i8, ptr %_14.i19, i64 56
  %_10.i.i = load i64, ptr %57, align 8, !alias.scope !102, !noalias !105, !noundef !8
  %is_long.i.i = icmp eq i64 %_10.i.i, -1
  %58 = getelementptr inbounds nuw i8, ptr %_14.i19, i64 72
  %self.03.i.i = load ptr, ptr %58, align 8, !alias.scope !102, !noalias !105, !nonnull !8, !align !51, !noundef !8
  %59 = getelementptr inbounds nuw i8, ptr %_14.i19, i64 80
  %self.14.i.i = load i64, ptr %59, align 8, !alias.scope !102, !noalias !105, !noundef !8
  %60 = getelementptr inbounds nuw i8, ptr %_14.i19, i64 88
  %self.05.i.i = load ptr, ptr %60, align 8, !alias.scope !102, !noalias !105, !nonnull !8, !align !51, !noundef !8
  %61 = getelementptr inbounds nuw i8, ptr %_14.i19, i64 96
  %self.16.i.i = load i64, ptr %61, align 8, !alias.scope !102, !noalias !105, !noundef !8
  %62 = getelementptr inbounds nuw i8, ptr %_14.i19, i64 40
  %needle_last.i.i = add nsw i64 %self.16.i.i, -1
  br i1 %is_long.i.i, label %bb8.i.i, label %bb9.i.i

bb3.i.critedge.i.i:                               ; preds = %.noexc
  tail call void @llvm.experimental.noalias.scope.decl(metadata !107)
  %63 = getelementptr inbounds nuw i8, ptr %_14.i19, i64 26
  %64 = load i8, ptr %63, align 2, !range !110, !alias.scope !111, !noalias !112, !noundef !8
  %_4.i.i.i = trunc nuw i8 %64 to i1
  br i1 %_4.i.i.i, label %_RNvXsv_NtNtCsjMrxcFdYDNN_4core3str7patternNtB5_11StrSearcherNtB5_8Searcher10next_match.exit.i.thread69, label %bb5.i.lr.ph.i.i

bb5.i.lr.ph.i.i:                                  ; preds = %bb3.i.critedge.i.i
  %65 = getelementptr inbounds nuw i8, ptr %_14.i19, i64 8
  %.promoted.i.i = load i64, ptr %65, align 8, !alias.scope !102, !noalias !105
  %66 = getelementptr inbounds nuw i8, ptr %_14.i19, i64 24
  %67 = getelementptr inbounds nuw i8, ptr %_14.i19, i64 72
  %self.0.i.i.i = load ptr, ptr %67, align 8, !alias.scope !111, !noalias !112, !nonnull !8, !align !51, !noundef !8
  %68 = getelementptr inbounds nuw i8, ptr %_14.i19, i64 80
  %self.1.i.i.i = load i64, ptr %68, align 8, !alias.scope !111, !noalias !112, !noundef !8
  %_48.i.i.i = getelementptr inbounds nuw i8, ptr %self.0.i.i.i, i64 %self.1.i.i.i
  %.promoted29.i.i = load i8, ptr %66, align 8, !alias.scope !111, !noalias !112
  %extract.t.i.i = trunc i8 %.promoted29.i.i to i1
  %69 = icmp eq i64 %.promoted.i.i, 0
  br i1 %69, label %bb19.i.i.peel.i, label %bb5.i.i.i.peel.i

bb5.i.i.i.peel.i:                                 ; preds = %bb5.i.lr.ph.i.i
  %_8.not.i.i.i.peel.i = icmp ult i64 %.promoted.i.i, %self.1.i.i.i
  br i1 %_8.not.i.i.i.peel.i, label %bb9.i.i.i.peel.i, label %bb6.i.i.i.peel.i

bb6.i.i.i.peel.i:                                 ; preds = %bb5.i.i.i.peel.i
  %70 = icmp eq i64 %.promoted.i.i, %self.1.i.i.i
  br i1 %70, label %bb19.i.i.peel.i, label %bb18.i.i.i

bb9.i.i.i.peel.i:                                 ; preds = %bb5.i.i.i.peel.i
  %71 = getelementptr inbounds nuw i8, ptr %self.0.i.i.i, i64 %.promoted.i.i
  %self1.i.i.i.peel.i = load i8, ptr %71, align 1, !alias.scope !114, !noalias !117, !noundef !8
  %72 = icmp sgt i8 %self1.i.i.i.peel.i, -65
  br i1 %72, label %bb19.i.i.peel.i, label %bb18.i.i.i

bb19.i.i.peel.i:                                  ; preds = %bb9.i.i.i.peel.i, %bb6.i.i.i.peel.i, %bb5.i.lr.ph.i.i
  %data.i.i.i.peel.i = getelementptr inbounds nuw i8, ptr %self.0.i.i.i, i64 %.promoted.i.i
  %_6.i.i.i.i.peel.i = icmp samesign eq i64 %.promoted.i.i, %self.1.i.i.i
  br i1 %_6.i.i.i.i.peel.i, label %_RNvXsv_NtNtCsjMrxcFdYDNN_4core3str7patternNtB5_11StrSearcherNtB5_8Searcher10next_match.exit.i, label %bb14.i.i.i.peel.i

bb14.i.i.i.peel.i:                                ; preds = %bb19.i.i.peel.i
  %x.i.i.i.peel.i = load i8, ptr %data.i.i.i.peel.i, align 1, !noalias !119, !noundef !8
  %_6.i.i.i.peel.i = icmp sgt i8 %x.i.i.i.peel.i, -1
  br i1 %_6.i.i.i.peel.i, label %bb3.i.i.i.peel.i, label %bb4.i.i.i.peel.i

bb4.i.i.i.peel.i:                                 ; preds = %bb14.i.i.i.peel.i
  %_16.i.i.i.i.peel.i = getelementptr inbounds nuw i8, ptr %data.i.i.i.peel.i, i64 1
  %_30.i.i.i.peel.i = and i8 %x.i.i.i.peel.i, 31
  %init.i.i.i.peel.i = zext nneg i8 %_30.i.i.i.peel.i to i32
  %_6.i10.i.i.i.peel.i = icmp ne ptr %_16.i.i.i.i.peel.i, %_48.i.i.i
  tail call void @llvm.assume(i1 %_6.i10.i.i.i.peel.i)
  %y.i.i.i.peel.i = load i8, ptr %_16.i.i.i.i.peel.i, align 1, !noalias !119, !noundef !8
  %_33.i.i.i.peel.i = shl nuw nsw i32 %init.i.i.i.peel.i, 6
  %_35.i.i.i.peel.i = and i8 %y.i.i.i.peel.i, 63
  %_34.i.i.i.peel.i = zext nneg i8 %_35.i.i.i.peel.i to i32
  %73 = or disjoint i32 %_33.i.i.i.peel.i, %_34.i.i.i.peel.i
  %_13.i.i.i.peel.i = icmp samesign ugt i8 %x.i.i.i.peel.i, -33
  br i1 %_13.i.i.i.peel.i, label %bb6.i21.i.i.peel.i, label %bb22.i.i.peel.i

bb6.i21.i.i.peel.i:                               ; preds = %bb4.i.i.i.peel.i
  %_16.i12.i.i.i.peel.i = getelementptr inbounds nuw i8, ptr %data.i.i.i.peel.i, i64 2
  %_6.i17.i.i.i.peel.i = icmp ne ptr %_16.i12.i.i.i.peel.i, %_48.i.i.i
  tail call void @llvm.assume(i1 %_6.i17.i.i.i.peel.i)
  %z.i.i.i.peel.i = load i8, ptr %_16.i12.i.i.i.peel.i, align 1, !noalias !119, !noundef !8
  %_38.i.i.i.peel.i = shl nuw nsw i32 %_34.i.i.i.peel.i, 6
  %_40.i.i.i.peel.i = and i8 %z.i.i.i.peel.i, 63
  %_39.i.i.i.peel.i = zext nneg i8 %_40.i.i.i.peel.i to i32
  %y_z.i.i.i.peel.i = or disjoint i32 %_38.i.i.i.peel.i, %_39.i.i.i.peel.i
  %_20.i.i.i.peel.i = shl nuw nsw i32 %init.i.i.i.peel.i, 12
  %74 = or disjoint i32 %y_z.i.i.i.peel.i, %_20.i.i.i.peel.i
  %_21.i.i.i.peel.i = icmp samesign ugt i8 %x.i.i.i.peel.i, -17
  br i1 %_21.i.i.i.peel.i, label %bb8.i.i.i.peel.i, label %bb22.i.i.peel.i

bb8.i.i.i.peel.i:                                 ; preds = %bb6.i21.i.i.peel.i
  %_16.i19.i.i.i.peel.i = getelementptr inbounds nuw i8, ptr %data.i.i.i.peel.i, i64 3
  %_6.i24.i.i.i.peel.i = icmp ne ptr %_16.i19.i.i.i.peel.i, %_48.i.i.i
  tail call void @llvm.assume(i1 %_6.i24.i.i.i.peel.i)
  %w.i.i.i.peel.i = load i8, ptr %_16.i19.i.i.i.peel.i, align 1, !noalias !119, !noundef !8
  %_26.i.i.i.peel.i = shl nuw nsw i32 %init.i.i.i.peel.i, 18
  %_25.i.i.i.peel.i = and i32 %_26.i.i.i.peel.i, 1835008
  %_43.i.i.i.peel.i = shl nuw nsw i32 %y_z.i.i.i.peel.i, 6
  %_45.i.i.i.peel.i = and i8 %w.i.i.i.peel.i, 63
  %_44.i.i.i.peel.i = zext nneg i8 %_45.i.i.i.peel.i to i32
  %_27.i.i.i.peel.i = or disjoint i32 %_43.i.i.i.peel.i, %_44.i.i.i.peel.i
  %75 = or disjoint i32 %_27.i.i.i.peel.i, %_25.i.i.i.peel.i
  br label %bb22.i.i.peel.i

bb3.i.i.i.peel.i:                                 ; preds = %bb14.i.i.i.peel.i
  %_7.i.i.i.peel.i = zext nneg i8 %x.i.i.i.peel.i to i32
  br label %bb22.i.i.peel.i

bb22.i.i.peel.i:                                  ; preds = %bb3.i.i.i.peel.i, %bb8.i.i.i.peel.i, %bb6.i21.i.i.peel.i, %bb4.i.i.i.peel.i
  %_0.sroa.4.0.i.ph.i.i.peel.i = phi i32 [ %73, %bb4.i.i.i.peel.i ], [ %74, %bb6.i21.i.i.peel.i ], [ %75, %bb8.i.i.i.peel.i ], [ %_7.i.i.i.peel.i, %bb3.i.i.i.peel.i ]
  %76 = icmp samesign ult i32 %_0.sroa.4.0.i.ph.i.i.peel.i, 1114112
  tail call void @llvm.assume(i1 %76)
  br i1 %extract.t.i.i, label %_RNvXsv_NtNtCsjMrxcFdYDNN_4core3str7patternNtB5_11StrSearcherNtB5_8Searcher10next_match.exit.i.thread, label %bb39.i.i.peel.i

bb39.i.i.peel.i:                                  ; preds = %bb22.i.i.peel.i
  %_59.i.i.peel.i = icmp samesign ult i32 %_0.sroa.4.0.i.ph.i.i.peel.i, 128
  br i1 %_59.i.i.peel.i, label %bb5.i.i.i, label %bb26.i.i.peel.i

bb26.i.i.peel.i:                                  ; preds = %bb39.i.i.peel.i
  %_60.i.i.peel.i = icmp samesign ult i32 %_0.sroa.4.0.i.ph.i.i.peel.i, 2048
  br i1 %_60.i.i.peel.i, label %bb5.i.i.i, label %bb27.i.i.peel.i

bb27.i.i.peel.i:                                  ; preds = %bb26.i.i.peel.i
  %_61.i.i.peel.i = icmp samesign ult i32 %_0.sroa.4.0.i.ph.i.i.peel.i, 65536
  %..i.i.peel.i = select i1 %_61.i.i.peel.i, i64 3, i64 4
  br label %bb5.i.i.i

bb5.i.i.i:                                        ; preds = %bb27.i.i.peel.i, %bb26.i.i.peel.i, %bb39.i.i.peel.i
  %_14.sroa.0.0.i.i.peel.i = phi i64 [ 1, %bb39.i.i.peel.i ], [ %..i.i.peel.i, %bb27.i.i.peel.i ], [ 2, %bb26.i.i.peel.i ]
  %77 = add i64 %_14.sroa.0.0.i.i.peel.i, %.promoted.i.i
  %78 = icmp eq i64 %77, 0
  br i1 %78, label %bb19.i.i.i, label %bb5.i.i.i.i

bb5.i.i.i.i:                                      ; preds = %bb5.i.i.i
  %_8.not.i.i.i.i = icmp ult i64 %77, %self.1.i.i.i
  br i1 %_8.not.i.i.i.i, label %bb9.i.i.i.i, label %bb6.i.i.i.i

bb6.i.i.i.i:                                      ; preds = %bb5.i.i.i.i
  %79 = icmp eq i64 %77, %self.1.i.i.i
  br i1 %79, label %bb19.i.i.i, label %bb18.i.i.i

bb9.i.i.i.i:                                      ; preds = %bb5.i.i.i.i
  %80 = getelementptr inbounds nuw i8, ptr %self.0.i.i.i, i64 %77
  %self1.i.i.i.i27 = load i8, ptr %80, align 1, !alias.scope !114, !noalias !122, !noundef !8
  %81 = icmp sgt i8 %self1.i.i.i.i27, -65
  br i1 %81, label %bb19.i.i.i, label %bb18.i.i.i

bb19.i.i.i:                                       ; preds = %bb9.i.i.i.i, %bb6.i.i.i.i, %bb5.i.i.i
  %data.i.i.i.i23 = getelementptr inbounds nuw i8, ptr %self.0.i.i.i, i64 %77
  %_6.i.i.i.i.i = icmp samesign eq i64 %77, %self.1.i.i.i
  br i1 %_6.i.i.i.i.i, label %_RNvXsv_NtNtCsjMrxcFdYDNN_4core3str7patternNtB5_11StrSearcherNtB5_8Searcher10next_match.exit.i.thread, label %bb14.i.i.i.i

bb14.i.i.i.i:                                     ; preds = %bb19.i.i.i
  %x.i.i.i.i = load i8, ptr %data.i.i.i.i23, align 1, !noalias !123, !noundef !8
  %_6.i.i.i.i24 = icmp sgt i8 %x.i.i.i.i, -1
  br i1 %_6.i.i.i.i24, label %bb3.i.i.i.i26, label %bb4.i.i.i.i

bb4.i.i.i.i:                                      ; preds = %bb14.i.i.i.i
  %_16.i.i.i.i.i = getelementptr inbounds nuw i8, ptr %data.i.i.i.i23, i64 1
  %_30.i.i.i.i = and i8 %x.i.i.i.i, 31
  %init.i.i.i.i = zext nneg i8 %_30.i.i.i.i to i32
  %_6.i10.i.i.i.i = icmp ne ptr %_16.i.i.i.i.i, %_48.i.i.i
  tail call void @llvm.assume(i1 %_6.i10.i.i.i.i)
  %y.i.i.i.i = load i8, ptr %_16.i.i.i.i.i, align 1, !noalias !123, !noundef !8
  %_33.i.i.i.i = shl nuw nsw i32 %init.i.i.i.i, 6
  %_35.i.i.i.i = and i8 %y.i.i.i.i, 63
  %_34.i.i.i.i = zext nneg i8 %_35.i.i.i.i to i32
  %82 = or disjoint i32 %_33.i.i.i.i, %_34.i.i.i.i
  %_13.i.i.i.i = icmp samesign ugt i8 %x.i.i.i.i, -33
  br i1 %_13.i.i.i.i, label %bb6.i21.i.i.i, label %bb7.loopexit.i.loopexit.i

bb3.i.i.i.i26:                                    ; preds = %bb14.i.i.i.i
  %_7.i.i.i.i = zext nneg i8 %x.i.i.i.i to i32
  br label %bb7.loopexit.i.loopexit.i

bb6.i21.i.i.i:                                    ; preds = %bb4.i.i.i.i
  %_16.i12.i.i.i.i = getelementptr inbounds nuw i8, ptr %data.i.i.i.i23, i64 2
  %_6.i17.i.i.i.i = icmp ne ptr %_16.i12.i.i.i.i, %_48.i.i.i
  tail call void @llvm.assume(i1 %_6.i17.i.i.i.i)
  %z.i.i.i.i = load i8, ptr %_16.i12.i.i.i.i, align 1, !noalias !123, !noundef !8
  %_38.i.i.i.i = shl nuw nsw i32 %_34.i.i.i.i, 6
  %_40.i.i.i.i = and i8 %z.i.i.i.i, 63
  %_39.i.i.i.i = zext nneg i8 %_40.i.i.i.i to i32
  %y_z.i.i.i.i = or disjoint i32 %_38.i.i.i.i, %_39.i.i.i.i
  %_20.i.i.i.i = shl nuw nsw i32 %init.i.i.i.i, 12
  %83 = or disjoint i32 %y_z.i.i.i.i, %_20.i.i.i.i
  %_21.i.i.i.i = icmp samesign ugt i8 %x.i.i.i.i, -17
  br i1 %_21.i.i.i.i, label %bb8.i.i.i.i25, label %bb7.loopexit.i.loopexit.i

bb8.i.i.i.i25:                                    ; preds = %bb6.i21.i.i.i
  %_16.i19.i.i.i.i = getelementptr inbounds nuw i8, ptr %data.i.i.i.i23, i64 3
  %_6.i24.i.i.i.i = icmp ne ptr %_16.i19.i.i.i.i, %_48.i.i.i
  tail call void @llvm.assume(i1 %_6.i24.i.i.i.i)
  %w.i.i.i.i = load i8, ptr %_16.i19.i.i.i.i, align 1, !noalias !123, !noundef !8
  %_26.i.i.i.i = shl nuw nsw i32 %init.i.i.i.i, 18
  %_25.i.i.i.i = and i32 %_26.i.i.i.i, 1835008
  %_43.i.i.i.i = shl nuw nsw i32 %y_z.i.i.i.i, 6
  %_45.i.i.i.i = and i8 %w.i.i.i.i, 63
  %_44.i.i.i.i = zext nneg i8 %_45.i.i.i.i to i32
  %_27.i.i.i.i = or disjoint i32 %_43.i.i.i.i, %_44.i.i.i.i
  %84 = or disjoint i32 %_27.i.i.i.i, %_25.i.i.i.i
  br label %bb7.loopexit.i.loopexit.i

bb18.i.i.i:                                       ; preds = %bb9.i.i.i.i, %bb6.i.i.i.i, %bb9.i.i.i.peel.i, %bb6.i.i.i.peel.i
  %.lcssa90.i = phi i64 [ %.promoted.i.i, %bb6.i.i.i.peel.i ], [ %.promoted.i.i, %bb9.i.i.i.peel.i ], [ %77, %bb6.i.i.i.i ], [ %77, %bb9.i.i.i.i ]
; invoke core::str::slice_error_fail
  invoke void @_RNvNtCsjMrxcFdYDNN_4core3str16slice_error_fail(ptr noalias noundef nonnull readonly align 1 captures(address, read_provenance) %self.0.i.i.i, i64 noundef %self.1.i.i.i, i64 noundef %.lcssa90.i, i64 noundef %self.1.i.i.i, ptr noalias noundef readonly align 8 captures(address, read_provenance) dereferenceable(24) @alloc_559c4f386b668c946885822cef1a587d) #23
          to label %.noexc29 unwind label %cleanup2

.noexc29:                                         ; preds = %bb18.i.i.i
  unreachable

bb7.loopexit.i.loopexit.i:                        ; preds = %bb8.i.i.i.i25, %bb6.i21.i.i.i, %bb3.i.i.i.i26, %bb4.i.i.i.i
  %_0.sroa.4.0.i.ph.i.i.i = phi i32 [ %82, %bb4.i.i.i.i ], [ %83, %bb6.i21.i.i.i ], [ %84, %bb8.i.i.i.i25 ], [ %_7.i.i.i.i, %bb3.i.i.i.i26 ]
  %85 = icmp samesign ult i32 %_0.sroa.4.0.i.ph.i.i.i, 1114112
  tail call void @llvm.assume(i1 %85)
  br label %_RNvXsv_NtNtCsjMrxcFdYDNN_4core3str7patternNtB5_11StrSearcherNtB5_8Searcher10next_match.exit.i.thread

bb9.i.i:                                          ; preds = %bb2.i2.i
  tail call void @llvm.experimental.noalias.scope.decl(metadata !124)
  tail call void @llvm.experimental.noalias.scope.decl(metadata !127)
  tail call void @llvm.experimental.noalias.scope.decl(metadata !129)
  %.promoted.i8.i = load i64, ptr %62, align 8, !alias.scope !124, !noalias !131
  %index24.i9.i = add i64 %.promoted.i8.i, %needle_last.i.i
  %_5325.i10.i = icmp ult i64 %index24.i9.i, %self.14.i.i
  br i1 %_5325.i10.i, label %bb39.lr.ph.i13.i, label %_RNvXsv_NtNtCsjMrxcFdYDNN_4core3str7patternNtB5_11StrSearcherNtB5_8Searcher10next_match.exit.i.thread69

bb39.lr.ph.i13.i:                                 ; preds = %bb9.i.i
  %86 = getelementptr inbounds nuw i8, ptr %_14.i19, i64 32
  %_58.i14.i = load i64, ptr %86, align 8, !alias.scope !124, !noalias !131, !noundef !8
  %v1.i15.i = load i64, ptr %searcher.i.i, align 8, !alias.scope !124, !noalias !131
  %87 = getelementptr inbounds nuw i8, ptr %_14.i19, i64 24
  %_48.i16.i = load i64, ptr %87, align 8, !alias.scope !124, !noalias !131
  %88 = sub i64 %self.16.i.i, %_48.i16.i
  br label %bb39.i18.i

bb39.i18.i:                                       ; preds = %bb37.sink.split.i.i, %bb39.lr.ph.i13.i
  %89 = phi i64 [ %.promoted.i8.i, %bb39.lr.ph.i13.i ], [ %.ph.i.i, %bb37.sink.split.i.i ]
  %v229.i19.i = phi i64 [ %_10.i.i, %bb39.lr.ph.i13.i ], [ %.sink.i.i, %bb37.sink.split.i.i ]
  %index26.i20.i = phi i64 [ %index24.i9.i, %bb39.lr.ph.i13.i ], [ %index.i45.i, %bb37.sink.split.i.i ]
  %_55.i21.i = getelementptr inbounds nuw i8, ptr %self.03.i.i, i64 %index26.i20.i
  %tail_byte.i22.i = load i8, ptr %_55.i21.i, align 1, !alias.scope !127, !noalias !133, !noundef !8
  %_60.i23.i = and i8 %tail_byte.i22.i, 63
  %_59.i24.i = zext nneg i8 %_60.i23.i to i64
  %90 = shl nuw i64 1, %_59.i24.i
  %91 = and i64 %90, %_58.i14.i
  %92 = icmp eq i64 %91, 0
  br i1 %92, label %bb10.i65.i, label %bb9.i25.i

bb10.i65.i:                                       ; preds = %bb39.i18.i
  %93 = add i64 %89, %self.16.i.i
  br label %bb37.sink.split.i.i

bb9.i25.i:                                        ; preds = %bb39.i18.i
  %_0.sroa.0.0.i.i26.i = tail call i64 @llvm.umax.i64(i64 %v229.i19.i, i64 %v1.i15.i)
  %umax40.i27.i = tail call i64 @llvm.umax.i64(i64 %_0.sroa.0.0.i.i26.i, i64 range(i64 0, -9223372036854775808) %self.16.i.i)
  br label %bb16.i28.i

bb37.sink.split.i.i:                              ; preds = %bb19.i41.i, %bb29.i64.i, %bb10.i65.i
  %.sink.i.i = phi i64 [ %88, %bb29.i64.i ], [ 0, %bb19.i41.i ], [ 0, %bb10.i65.i ]
  %.ph.i.i = phi i64 [ %96, %bb29.i64.i ], [ %100, %bb19.i41.i ], [ %93, %bb10.i65.i ]
  %index.i45.i = add i64 %.ph.i.i, %needle_last.i.i
  %_53.i46.i = icmp ult i64 %index.i45.i, %self.14.i.i
  br i1 %_53.i46.i, label %bb39.i18.i, label %_RNvXsv_NtNtCsjMrxcFdYDNN_4core3str7patternNtB5_11StrSearcherNtB5_8Searcher10next_match.exit.i.thread69

bb16.i28.i:                                       ; preds = %bb18.i36.i, %bb9.i25.i
  %iter.sroa.0.0.i29.i = phi i64 [ %_0.sroa.0.0.i.i26.i, %bb9.i25.i ], [ %_65.i37.i, %bb18.i36.i ]
  %exitcond.not.i30.i = icmp eq i64 %iter.sroa.0.0.i29.i, %umax40.i27.i
  br i1 %exitcond.not.i30.i, label %bb26.i48.i, label %bb42.i31.i

bb42.i31.i:                                       ; preds = %bb16.i28.i
  %_28.i32.i = add i64 %iter.sroa.0.0.i29.i, %89
  %_30.i33.i = icmp ult i64 %_28.i32.i, %self.14.i.i
  br i1 %_30.i33.i, label %bb18.i36.i, label %panic8.i34.i

bb26.i48.i:                                       ; preds = %bb16.i28.i, %bb28.i60.i
  %iter3.sroa.2.0.i49.i = phi i64 [ %_73.i53.i, %bb28.i60.i ], [ %v1.i15.i, %bb16.i28.i ]
  %_70.i50.i = icmp ult i64 %v229.i19.i, %iter3.sroa.2.0.i49.i
  br i1 %_70.i50.i, label %bb46.i52.i, label %_RNvXsv_NtNtCsjMrxcFdYDNN_4core3str7patternNtB5_11StrSearcherNtB5_8Searcher10next_match.exit.i.thread

bb46.i52.i:                                       ; preds = %bb26.i48.i
  %_73.i53.i = add i64 %iter3.sroa.2.0.i49.i, -1
  %_43.i54.i = icmp ult i64 %_73.i53.i, %self.16.i.i
  br i1 %_43.i54.i, label %bb27.i56.i, label %panic8.i.i.invoke

bb27.i56.i:                                       ; preds = %bb46.i52.i
  %_45.i57.i = add i64 %_73.i53.i, %89
  %_47.i58.i = icmp ult i64 %_45.i57.i, %self.14.i.i
  br i1 %_47.i58.i, label %bb28.i60.i, label %panic8.i.i.invoke

bb28.i60.i:                                       ; preds = %bb27.i56.i
  %94 = getelementptr inbounds nuw i8, ptr %self.05.i.i, i64 %_73.i53.i
  %_42.i61.i = load i8, ptr %94, align 1, !alias.scope !129, !noalias !134, !noundef !8
  %95 = getelementptr inbounds nuw i8, ptr %self.03.i.i, i64 %_45.i57.i
  %_44.i62.i = load i8, ptr %95, align 1, !alias.scope !127, !noalias !133, !noundef !8
  %_41.not.i63.i = icmp eq i8 %_42.i61.i, %_44.i62.i
  br i1 %_41.not.i63.i, label %bb26.i48.i, label %bb29.i64.i

bb29.i64.i:                                       ; preds = %bb28.i60.i
  %96 = add i64 %89, %_48.i16.i
  br label %bb37.sink.split.i.i

bb18.i36.i:                                       ; preds = %bb42.i31.i
  %_65.i37.i = add i64 %iter.sroa.0.0.i29.i, 1
  %97 = getelementptr inbounds nuw i8, ptr %self.05.i.i, i64 %iter.sroa.0.0.i29.i
  %_25.i38.i = load i8, ptr %97, align 1, !alias.scope !129, !noalias !134, !noundef !8
  %98 = getelementptr inbounds nuw i8, ptr %self.03.i.i, i64 %_28.i32.i
  %_27.i39.i = load i8, ptr %98, align 1, !alias.scope !127, !noalias !133, !noundef !8
  %_24.not.i40.i = icmp eq i8 %_25.i38.i, %_27.i39.i
  br i1 %_24.not.i40.i, label %bb16.i28.i, label %bb19.i41.i

panic8.i34.i:                                     ; preds = %bb42.i31.i
  %99 = add i64 %_0.sroa.0.0.i.i26.i, %89
  %umax.i35.i = tail call i64 @llvm.umax.i64(i64 range(i64 0, -9223372036854775808) %self.14.i.i, i64 %99)
  br label %panic8.i.i.invoke

bb19.i41.i:                                       ; preds = %bb18.i36.i
  %reass.sub = sub i64 %89, %v1.i15.i
  %_31.i43.i = add i64 %reass.sub, 1
  %100 = add i64 %_31.i43.i, %iter.sroa.0.0.i29.i
  br label %bb37.sink.split.i.i

bb8.i.i:                                          ; preds = %bb2.i2.i
  tail call void @llvm.experimental.noalias.scope.decl(metadata !135)
  tail call void @llvm.experimental.noalias.scope.decl(metadata !138)
  tail call void @llvm.experimental.noalias.scope.decl(metadata !140)
  %.promoted.i3.i = load i64, ptr %62, align 8, !alias.scope !135, !noalias !142
  %index24.i.i = add i64 %.promoted.i3.i, %needle_last.i.i
  %_5325.i.i = icmp ult i64 %index24.i.i, %self.14.i.i
  br i1 %_5325.i.i, label %bb39.lr.ph.i.i, label %_RNvXsv_NtNtCsjMrxcFdYDNN_4core3str7patternNtB5_11StrSearcherNtB5_8Searcher10next_match.exit.i.thread69

bb39.lr.ph.i.i:                                   ; preds = %bb8.i.i
  %101 = getelementptr inbounds nuw i8, ptr %_14.i19, i64 32
  %_58.i.i = load i64, ptr %101, align 8, !alias.scope !135, !noalias !142, !noundef !8
  %v1.i.i = load i64, ptr %searcher.i.i, align 8, !alias.scope !135, !noalias !142
  %v1.i.i.fr = freeze i64 %v1.i.i
  %102 = getelementptr inbounds nuw i8, ptr %_14.i19, i64 24
  %_48.i.i = load i64, ptr %102, align 8, !alias.scope !135, !noalias !142
  %umax40.i.i = tail call i64 @llvm.umax.i64(i64 %v1.i.i.fr, i64 range(i64 0, -9223372036854775808) %self.16.i.i)
  %103 = add i64 %v1.i.i.fr, -1
  %_43.i.first_iter.i = icmp ult i64 %103, %self.16.i.i
  br label %bb39.i.i

bb39.i.i:                                         ; preds = %bb37.i.i, %bb39.lr.ph.i.i
  %104 = phi i64 [ %.promoted.i3.i, %bb39.lr.ph.i.i ], [ %109, %bb37.i.i ]
  %index26.i.i = phi i64 [ %index24.i.i, %bb39.lr.ph.i.i ], [ %index.i.i28, %bb37.i.i ]
  %_55.i.i = getelementptr inbounds nuw i8, ptr %self.03.i.i, i64 %index26.i.i
  %tail_byte.i.i = load i8, ptr %_55.i.i, align 1, !alias.scope !138, !noalias !144, !noundef !8
  %_60.i.i = and i8 %tail_byte.i.i, 63
  %_59.i.i = zext nneg i8 %_60.i.i to i64
  %105 = shl nuw i64 1, %_59.i.i
  %106 = and i64 %105, %_58.i.i
  %107 = icmp eq i64 %106, 0
  br i1 %107, label %bb10.i6.i, label %bb16.i.i

bb10.i6.i:                                        ; preds = %bb39.i.i
  %108 = add i64 %104, %self.16.i.i
  br label %bb37.i.i

bb37.i.i:                                         ; preds = %bb19.i.i, %bb29.i.i.split.us, %bb10.i6.i
  %109 = phi i64 [ %119, %bb19.i.i ], [ %112, %bb29.i.i.split.us ], [ %108, %bb10.i6.i ]
  %index.i.i28 = add i64 %109, %needle_last.i.i
  %_53.i.i = icmp ult i64 %index.i.i28, %self.14.i.i
  br i1 %_53.i.i, label %bb39.i.i, label %_RNvXsv_NtNtCsjMrxcFdYDNN_4core3str7patternNtB5_11StrSearcherNtB5_8Searcher10next_match.exit.i.thread69

bb16.i.i:                                         ; preds = %bb39.i.i, %bb18.i.i
  %iter.sroa.0.0.i.i = phi i64 [ %_65.i.i, %bb18.i.i ], [ %v1.i.i.fr, %bb39.i.i ]
  %exitcond.not.i.i = icmp eq i64 %iter.sroa.0.0.i.i, %umax40.i.i
  br i1 %exitcond.not.i.i, label %bb26.i.i.preheader, label %bb42.i.i

bb26.i.i.preheader:                               ; preds = %bb16.i.i
  br i1 %_43.i.first_iter.i, label %bb26.i.i.us, label %bb26.i.i

bb26.i.i.us:                                      ; preds = %bb26.i.i.preheader, %bb28.i.i.us
  %iter3.sroa.2.0.i.i.us = phi i64 [ %_73.i.i.us, %bb28.i.i.us ], [ %v1.i.i.fr, %bb26.i.i.preheader ]
  %_70.i.not.i.us = icmp eq i64 %iter3.sroa.2.0.i.i.us, 0
  br i1 %_70.i.not.i.us, label %_RNvXsv_NtNtCsjMrxcFdYDNN_4core3str7patternNtB5_11StrSearcherNtB5_8Searcher10next_match.exit.i.thread, label %bb46.i.i.us

bb46.i.i.us:                                      ; preds = %bb26.i.i.us
  %_73.i.i.us = add i64 %iter3.sroa.2.0.i.i.us, -1
  %_45.i.i.us = add i64 %_73.i.i.us, %104
  %_47.i.i.us = icmp ult i64 %_45.i.i.us, %self.14.i.i
  br i1 %_47.i.i.us, label %bb28.i.i.us, label %panic8.i.i.invoke

bb28.i.i.us:                                      ; preds = %bb46.i.i.us
  %110 = getelementptr inbounds nuw i8, ptr %self.05.i.i, i64 %_73.i.i.us
  %_42.i.i.us = load i8, ptr %110, align 1, !alias.scope !140, !noalias !145, !noundef !8
  %111 = getelementptr inbounds nuw i8, ptr %self.03.i.i, i64 %_45.i.i.us
  %_44.i.i.us = load i8, ptr %111, align 1, !alias.scope !138, !noalias !144, !noundef !8
  %_41.not.i.i.us = icmp eq i8 %_42.i.i.us, %_44.i.i.us
  br i1 %_41.not.i.i.us, label %bb26.i.i.us, label %bb29.i.i.split.us

bb29.i.i.split.us:                                ; preds = %bb28.i.i.us
  %112 = add i64 %104, %_48.i.i
  br label %bb37.i.i

bb42.i.i:                                         ; preds = %bb16.i.i
  %_28.i.i = add i64 %iter.sroa.0.0.i.i, %104
  %_30.i.i = icmp ult i64 %_28.i.i, %self.14.i.i
  br i1 %_30.i.i, label %bb18.i.i, label %panic8.i.i

bb26.i.i:                                         ; preds = %bb26.i.i.preheader
  %_70.i.not.i = icmp eq i64 %v1.i.i.fr, 0
  br i1 %_70.i.not.i, label %_RNvXsv_NtNtCsjMrxcFdYDNN_4core3str7patternNtB5_11StrSearcherNtB5_8Searcher10next_match.exit.i.thread, label %panic8.i.i.invoke

bb18.i.i:                                         ; preds = %bb42.i.i
  %_65.i.i = add i64 %iter.sroa.0.0.i.i, 1
  %113 = getelementptr inbounds nuw i8, ptr %self.05.i.i, i64 %iter.sroa.0.0.i.i
  %_25.i.i = load i8, ptr %113, align 1, !alias.scope !140, !noalias !145, !noundef !8
  %114 = getelementptr inbounds nuw i8, ptr %self.03.i.i, i64 %_28.i.i
  %_27.i.i = load i8, ptr %114, align 1, !alias.scope !138, !noalias !144, !noundef !8
  %_24.not.i.i = icmp eq i8 %_25.i.i, %_27.i.i
  br i1 %_24.not.i.i, label %bb16.i.i, label %bb19.i.i

panic8.i.i:                                       ; preds = %bb42.i.i
  %115 = add i64 %104, %v1.i.i.fr
  %umax.i.i = tail call i64 @llvm.umax.i64(i64 range(i64 0, -9223372036854775808) %self.14.i.i, i64 %115)
  br label %panic8.i.i.invoke

panic8.i.i.invoke:                                ; preds = %bb27.i56.i, %bb46.i52.i, %bb46.i.i.us, %bb26.i.i, %panic8.i34.i, %panic8.i.i
  %116 = phi i64 [ %umax.i.i, %panic8.i.i ], [ %umax.i35.i, %panic8.i34.i ], [ %103, %bb26.i.i ], [ %_45.i.i.us, %bb46.i.i.us ], [ %_73.i53.i, %bb46.i52.i ], [ %_45.i57.i, %bb27.i56.i ]
  %117 = phi i64 [ %self.14.i.i, %panic8.i.i ], [ %self.14.i.i, %panic8.i34.i ], [ %self.16.i.i, %bb26.i.i ], [ %self.14.i.i, %bb46.i.i.us ], [ %self.16.i.i, %bb46.i52.i ], [ %self.14.i.i, %bb27.i56.i ]
  %118 = phi ptr [ @alloc_cfc145f12794171662ae0bd5e97799ce, %panic8.i.i ], [ @alloc_cfc145f12794171662ae0bd5e97799ce, %panic8.i34.i ], [ @alloc_3c3a438693b52af6c6b31c2cc77620da, %bb26.i.i ], [ @alloc_759b6db6182a2ae5f8169b55f322d553, %bb46.i.i.us ], [ @alloc_3c3a438693b52af6c6b31c2cc77620da, %bb46.i52.i ], [ @alloc_759b6db6182a2ae5f8169b55f322d553, %bb27.i56.i ]
; invoke core::panicking::panic_bounds_check
  invoke void @_RNvNtCsjMrxcFdYDNN_4core9panicking18panic_bounds_check(i64 noundef %116, i64 noundef range(i64 0, -9223372036854775808) %117, ptr noalias noundef readonly align 8 captures(address, read_provenance) dereferenceable(24) %118) #23
          to label %panic8.i.i.cont unwind label %cleanup2

panic8.i.i.cont:                                  ; preds = %panic8.i.i.invoke
  unreachable

bb19.i.i:                                         ; preds = %bb18.i.i
  %reass.sub99 = sub i64 %104, %v1.i.i.fr
  %_31.i.i = add i64 %reass.sub99, 1
  %119 = add i64 %_31.i.i, %iter.sroa.0.0.i.i
  br label %bb37.i.i

_RNvXsv_NtNtCsjMrxcFdYDNN_4core3str7patternNtB5_11StrSearcherNtB5_8Searcher10next_match.exit.i.thread: ; preds = %bb26.i48.i, %bb26.i.i.us, %bb26.i.i, %bb19.i.i.i, %bb7.loopexit.i.loopexit.i, %bb22.i.i.peel.i
  call void @llvm.lifetime.end.p0(i64 104, ptr nonnull %_14.i19), !noalias !99
  br label %bb15

_RNvXsv_NtNtCsjMrxcFdYDNN_4core3str7patternNtB5_11StrSearcherNtB5_8Searcher10next_match.exit.i.thread69: ; preds = %bb37.sink.split.i.i, %bb37.i.i, %bb3.i.critedge.i.i, %bb9.i.i, %bb8.i.i
  call void @llvm.lifetime.end.p0(i64 104, ptr nonnull %_14.i19), !noalias !99
  br label %bb17

_RNvXsv_NtNtCsjMrxcFdYDNN_4core3str7patternNtB5_11StrSearcherNtB5_8Searcher10next_match.exit.i: ; preds = %bb19.i.i.peel.i
  call void @llvm.lifetime.end.p0(i64 104, ptr nonnull %_14.i19), !noalias !99
  br i1 %extract.t.i.i, label %bb15, label %bb17

cleanup2:                                         ; preds = %panic8.i.i.invoke, %bb18.i.i.i, %bb7.i22, %bb15
  %120 = landingpad { ptr, i32 }
          cleanup
  %121 = icmp eq i64 %sanitize.sroa.0.0.copyload, 0
  br i1 %121, label %bb23, label %bb2.i.i.i4.i.i36

bb2.i.i.i4.i.i36:                                 ; preds = %cleanup2
  %122 = icmp ne ptr %sanitize.sroa.6.0.copyload, null
  tail call void @llvm.assume(i1 %122)
; call __rustc::__rust_dealloc
  tail call void @_RNvCsKhRCbHf33p_7___rustc14___rust_dealloc(ptr noundef nonnull %sanitize.sroa.6.0.copyload, i64 noundef %sanitize.sroa.0.0.copyload, i64 noundef range(i64 1, -9223372036854775807) 1) #20
  br label %bb23

bb27:                                             ; preds = %bb3.i20
  %123 = tail call i32 @memcmp(ptr noundef nonnull dereferenceable(6) @alloc_0ccf5eeb19a73b85efabd846cfd6625c, ptr noundef nonnull readonly align 1 dereferenceable(6) %sanitize.sroa.6.0.copyload, i64 6), !alias.scope !146
  %124 = icmp eq i32 %123, 0
  br i1 %124, label %bb15, label %bb17

bb17:                                             ; preds = %bb3.i20, %_RNvXsv_NtNtCsjMrxcFdYDNN_4core3str7patternNtB5_11StrSearcherNtB5_8Searcher10next_match.exit.i.thread69, %_RNvXsv_NtNtCsjMrxcFdYDNN_4core3str7patternNtB5_11StrSearcherNtB5_8Searcher10next_match.exit.i, %bb15, %bb27
  %125 = icmp eq i64 %sanitize.sroa.0.0.copyload, 0
  br i1 %125, label %bb18, label %bb2.i.i.i4.i.i38

bb2.i.i.i4.i.i38:                                 ; preds = %bb17
  %126 = icmp ne ptr %sanitize.sroa.6.0.copyload, null
  tail call void @llvm.assume(i1 %126)
; call __rustc::__rust_dealloc
  tail call void @_RNvCsKhRCbHf33p_7___rustc14___rust_dealloc(ptr noundef nonnull %sanitize.sroa.6.0.copyload, i64 noundef %sanitize.sroa.0.0.copyload, i64 noundef range(i64 1, -9223372036854775807) 1) #20
  br label %bb18

bb15:                                             ; preds = %_RNvXsv_NtNtCsjMrxcFdYDNN_4core3str7patternNtB5_11StrSearcherNtB5_8Searcher10next_match.exit.i.thread, %_RNvXsv_NtNtCsjMrxcFdYDNN_4core3str7patternNtB5_11StrSearcherNtB5_8Searcher10next_match.exit.i, %bb27
; invoke std::io::stdio::_print
  invoke void @_RNvNtNtCs5sEH5CPMdak_3std2io5stdio6__print(ptr noundef nonnull @alloc_d0db898bdad5d945b0a59125e6e03f0f, ptr noundef nonnull inttoptr (i64 85 to ptr))
          to label %bb17 unwind label %cleanup2

bb18:                                             ; preds = %bb17.thread, %bb2.i.i.i4.i.i38, %bb17
  %127 = icmp eq i64 %target.sroa.0.0, 0
  br i1 %127, label %bb21, label %bb2.i.i.i4.i.i40

bb2.i.i.i4.i.i40:                                 ; preds = %bb18
  %128 = icmp ne ptr %target.sroa.7.0, null
  tail call void @llvm.assume(i1 %128)
; call __rustc::__rust_dealloc
  tail call void @_RNvCsKhRCbHf33p_7___rustc14___rust_dealloc(ptr noundef nonnull %target.sroa.7.0, i64 noundef %target.sroa.0.0, i64 noundef range(i64 1, -9223372036854775807) 1) #20
  br label %bb21

bb21:                                             ; preds = %bb2.i.i.i4.i.i40, %bb18, %_RINvNtCsjMrxcFdYDNN_4core3ptr13drop_in_placeNtNtCs5sEH5CPMdak_3std3env8VarErrorECsfv65jYcjU7K_18build_script_build.exit43
  ret void

cleanup3:                                         ; preds = %bb5
  %129 = landingpad { ptr, i32 }
          cleanup
  %e.val = load i64, ptr %e, align 8, !range !10, !noundef !8
  switch i64 %e.val, label %bb2.i.i.i4.i.i.i.i [
    i64 -9223372036854775808, label %common.resume
    i64 0, label %common.resume
  ]

bb2.i.i.i4.i.i.i.i:                               ; preds = %cleanup3
  %130 = getelementptr inbounds nuw i8, ptr %e, i64 8
  %e.val13 = load ptr, ptr %130, align 8, !nonnull !8, !noundef !8
; call __rustc::__rust_dealloc
  call void @_RNvCsKhRCbHf33p_7___rustc14___rust_dealloc(ptr noundef nonnull %e.val13, i64 noundef %e.val, i64 noundef range(i64 1, -9223372036854775807) 1) #20
  br label %common.resume

bb8:                                              ; preds = %bb5
  call void @llvm.lifetime.end.p0(i64 16, ptr nonnull %args)
  %e.val14 = load i64, ptr %e, align 8, !range !10, !noundef !8
  switch i64 %e.val14, label %bb2.i.i.i4.i.i.i.i42 [
    i64 -9223372036854775808, label %_RINvNtCsjMrxcFdYDNN_4core3ptr13drop_in_placeNtNtCs5sEH5CPMdak_3std3env8VarErrorECsfv65jYcjU7K_18build_script_build.exit43
    i64 0, label %_RINvNtCsjMrxcFdYDNN_4core3ptr13drop_in_placeNtNtCs5sEH5CPMdak_3std3env8VarErrorECsfv65jYcjU7K_18build_script_build.exit43
  ]

bb2.i.i.i4.i.i.i.i42:                             ; preds = %bb8
  %131 = getelementptr inbounds nuw i8, ptr %e, i64 8
  %e.val15 = load ptr, ptr %131, align 8, !nonnull !8, !noundef !8
; call __rustc::__rust_dealloc
  call void @_RNvCsKhRCbHf33p_7___rustc14___rust_dealloc(ptr noundef nonnull %e.val15, i64 noundef %e.val14, i64 noundef range(i64 1, -9223372036854775807) 1) #20
  br label %_RINvNtCsjMrxcFdYDNN_4core3ptr13drop_in_placeNtNtCs5sEH5CPMdak_3std3env8VarErrorECsfv65jYcjU7K_18build_script_build.exit43

_RINvNtCsjMrxcFdYDNN_4core3ptr13drop_in_placeNtNtCs5sEH5CPMdak_3std3env8VarErrorECsfv65jYcjU7K_18build_script_build.exit43: ; preds = %bb8, %bb8, %bb2.i.i.i4.i.i.i.i42
  call void @llvm.lifetime.end.p0(i64 24, ptr nonnull %e)
  call void @llvm.lifetime.end.p0(i64 32, ptr nonnull %_6)
  br label %bb21
}

; <alloc::raw_vec::RawVecInner>::finish_grow
; Function Attrs: cold nounwind uwtable
define internal fastcc void @_RNvMs4_NtCsdJPVW0sQgAG_5alloc7raw_vecNtB5_11RawVecInner11finish_growCsfv65jYcjU7K_18build_script_build(ptr dead_on_unwind noalias noundef nonnull writable writeonly align 8 captures(none) dereferenceable(24) initializes((0, 8)) %_0, i64 %self.0.val, ptr %self.8.val, i64 noundef %cap, i64 noundef range(i64 1, 9) %elem_layout.0, i64 noundef range(i64 1, 17) %elem_layout.1) unnamed_addr #4 {
start:
  %_23.i = icmp eq i64 %cap, 0
  br i1 %_23.i, label %bb14.thread, label %bb6.i

bb6.i:                                            ; preds = %start
  %_15.i = add nsw i64 %elem_layout.0, -1
  %_17.i = add nuw nsw i64 %_15.i, %elem_layout.1
  %_19.i = sub nsw i64 0, %elem_layout.0
  %new_size.i = and i64 %_17.i, %_19.i
  %_24.i = add i64 %cap, -1
  %0 = tail call { i64, i1 } @llvm.umul.with.overflow.i64(i64 %new_size.i, i64 %_24.i)
  %_27.0.i = extractvalue { i64, i1 } %0, 0
  %_27.1.i = extractvalue { i64, i1 } %0, 1
  %_33.i = sub nuw i64 -9223372036854775808, %elem_layout.0
  %_32.i = icmp ugt i64 %_27.0.i, %_33.i
  %or.cond.i = select i1 %_27.1.i, i1 true, i1 %_32.i
  br i1 %or.cond.i, label %bb11, label %bb11.i, !prof !150

bb11.i:                                           ; preds = %bb6.i
  %new_size2.i = add nuw i64 %_27.0.i, %elem_layout.1
  %_40.i = icmp ugt i64 %new_size2.i, %_33.i
  br i1 %_40.i, label %bb11, label %bb14

bb14:                                             ; preds = %bb11.i
  %1 = icmp eq i64 %self.0.val, 0
  br i1 %1, label %bb4.i.i11, label %bb3.i.i

bb14.thread:                                      ; preds = %start
  %2 = icmp eq i64 %self.0.val, 0
  br i1 %2, label %bb7.thread, label %bb3.i.i

bb3.i.i:                                          ; preds = %bb14.thread, %bb14
  %_27.sroa.7.01321 = phi i64 [ %new_size2.i, %bb14 ], [ 0, %bb14.thread ]
  %3 = icmp ne ptr %self.8.val, null
  tail call void @llvm.assume(i1 %3)
  %alloc_size.i23 = mul nuw i64 %elem_layout.1, %self.0.val
  %cond.i.i = icmp uge i64 %_27.sroa.7.01321, %alloc_size.i23
  tail call void @llvm.assume(i1 %cond.i.i)
; call __rustc::__rust_realloc
  %raw_ptr.i.i = tail call noundef ptr @_RNvCsKhRCbHf33p_7___rustc14___rust_realloc(ptr noundef nonnull %self.8.val, i64 noundef %alloc_size.i23, i64 noundef range(i64 1, -9223372036854775807) %elem_layout.0, i64 noundef %_27.sroa.7.01321) #20
  br label %bb7

bb7.thread:                                       ; preds = %bb14.thread
  %_16.i.i = inttoptr i64 %elem_layout.0 to ptr
  br label %bb9

bb4.i.i11:                                        ; preds = %bb14
; call __rustc::__rust_no_alloc_shim_is_unstable_v2
  tail call void @_RNvCsKhRCbHf33p_7___rustc35___rust_no_alloc_shim_is_unstable_v2() #20
; call __rustc::__rust_alloc
  %4 = tail call noundef ptr @_RNvCsKhRCbHf33p_7___rustc12___rust_alloc(i64 noundef %new_size2.i, i64 noundef range(i64 1, -9223372036854775807) %elem_layout.0) #20
  br label %bb7

bb7:                                              ; preds = %bb4.i.i11, %bb3.i.i
  %_27.sroa.7.012 = phi i64 [ %_27.sroa.7.01321, %bb3.i.i ], [ %new_size2.i, %bb4.i.i11 ]
  %raw_ptr.i.i.pn = phi ptr [ %raw_ptr.i.i, %bb3.i.i ], [ %4, %bb4.i.i11 ]
  %5 = icmp eq ptr %raw_ptr.i.i.pn, null
  br i1 %5, label %bb8, label %bb9

bb8:                                              ; preds = %bb7
  %6 = getelementptr inbounds nuw i8, ptr %_0, i64 8
  store i64 %elem_layout.0, ptr %6, align 8
  br label %bb11

bb9:                                              ; preds = %bb7.thread, %bb7
  %raw_ptr.i.i.pn31 = phi ptr [ %_16.i.i, %bb7.thread ], [ %raw_ptr.i.i.pn, %bb7 ]
  %_27.sroa.7.01230 = phi i64 [ 0, %bb7.thread ], [ %_27.sroa.7.012, %bb7 ]
  %7 = getelementptr inbounds nuw i8, ptr %_0, i64 8
  store ptr %raw_ptr.i.i.pn31, ptr %7, align 8
  br label %bb11

bb11:                                             ; preds = %bb6.i, %bb11.i, %bb9, %bb8
  %.sink32 = phi i64 [ 16, %bb9 ], [ 16, %bb8 ], [ 8, %bb11.i ], [ 8, %bb6.i ]
  %_27.sroa.7.01230.sink = phi i64 [ %_27.sroa.7.01230, %bb9 ], [ %_27.sroa.7.012, %bb8 ], [ 0, %bb11.i ], [ 0, %bb6.i ]
  %storemerge8 = phi i64 [ 0, %bb9 ], [ 1, %bb8 ], [ 1, %bb11.i ], [ 1, %bb6.i ]
  %8 = getelementptr inbounds nuw i8, ptr %_0, i64 %.sink32
  store i64 %_27.sroa.7.01230.sink, ptr %8, align 8
  store i64 %storemerge8, ptr %_0, align 8
  ret void
}

; <core::str::iter::Split<char> as core::iter::traits::iterator::Iterator>::next
; Function Attrs: inlinehint uwtable
define internal fastcc { ptr, i64 } @_RNvXsX_NtNtCsjMrxcFdYDNN_4core3str4iterINtB5_5SplitcENtNtNtNtB9_4iter6traits8iterator8Iterator4nextCsfv65jYcjU7K_18build_script_build(ptr noalias noundef nonnull align 8 captures(none) dereferenceable(72) %self) unnamed_addr #3 {
start:
  tail call void @llvm.experimental.noalias.scope.decl(metadata !151)
  %0 = getelementptr inbounds nuw i8, ptr %self, i64 65
  %1 = load i8, ptr %0, align 1, !range !110, !alias.scope !151, !noundef !8
  %_2.i = trunc nuw i8 %1 to i1
  br i1 %_2.i, label %_RNvMsf_NtNtCsjMrxcFdYDNN_4core3str4iterINtB5_13SplitInternalcE4nextCsfv65jYcjU7K_18build_script_build.exit, label %bb2.i

bb2.i:                                            ; preds = %start
  %_4.i = getelementptr inbounds nuw i8, ptr %self, i64 16
  %_4.val.i = load ptr, ptr %_4.i, align 8, !alias.scope !151, !nonnull !8, !align !51, !noundef !8
  %2 = getelementptr inbounds nuw i8, ptr %self, i64 24
  %_4.val1.i = load i64, ptr %2, align 8, !alias.scope !151, !noundef !8
  tail call void @llvm.experimental.noalias.scope.decl(metadata !154)
  %3 = getelementptr inbounds nuw i8, ptr %self, i64 32
  %4 = getelementptr inbounds nuw i8, ptr %self, i64 40
  %index2.i.i = load i64, ptr %4, align 8, !alias.scope !157, !noalias !158, !noundef !8
  %_38.not.i.i = icmp ugt i64 %index2.i.i, %_4.val1.i
  %.promoted.i.i = load i64, ptr %3, align 8, !alias.scope !157, !noalias !158
  %_4325.i.i = icmp ult i64 %index2.i.i, %.promoted.i.i
  %or.cond26.i.i = or i1 %_38.not.i.i, %_4325.i.i
  br i1 %or.cond26.i.i, label %bb1.i.i, label %bb12.lr.ph.i.i

bb12.lr.ph.i.i:                                   ; preds = %bb2.i
  %_10.i.i = getelementptr inbounds nuw i8, ptr %self, i64 48
  %5 = getelementptr inbounds nuw i8, ptr %self, i64 56
  %_48.i.i = load i8, ptr %5, align 8, !alias.scope !157, !noalias !158, !noundef !8
  %_12.i.i = zext i8 %_48.i.i to i64
  %6 = getelementptr i8, ptr %_10.i.i, i64 %_12.i.i
  %_49.i.i = getelementptr i8, ptr %6, i64 -1
  %_65.i.i = icmp ult i8 %_48.i.i, 5
  %last_byte.us.pre.i.i = load i8, ptr %_49.i.i, align 1, !alias.scope !157, !noalias !158
  br i1 %_65.i.i, label %bb12.us.i.i, label %bb12.i.i, !prof !160

bb12.us.i.i:                                      ; preds = %bb12.lr.ph.i.i, %bb9.us.i.i
  %7 = phi i64 [ %16, %bb9.us.i.i ], [ %.promoted.i.i, %bb12.lr.ph.i.i ]
  %new_len.us.i.i = sub nuw i64 %index2.i.i, %7
  %_46.us.i.i = getelementptr inbounds nuw i8, ptr %_4.val.i, i64 %7
  %_3.i.us.i.i = icmp samesign ult i64 %new_len.us.i.i, 16
  br i1 %_3.i.us.i.i, label %bb5.preheader.i.us.i.i, label %bb2.i.us.i.i

bb2.i.us.i.i:                                     ; preds = %bb12.us.i.i
; call core::slice::memchr::memchr_aligned
  %8 = tail call { i64, i64 } @_RNvNtNtCsjMrxcFdYDNN_4core5slice6memchr14memchr_aligned(i8 noundef %last_byte.us.pre.i.i, ptr noalias noundef nonnull readonly align 1 captures(address, read_provenance) %_46.us.i.i, i64 noundef range(i64 0, -9223372036854775808) %new_len.us.i.i), !noalias !161
  br label %_RNvNtNtCsjMrxcFdYDNN_4core5slice6memchr6memchr.exit.us.i.i

bb5.preheader.i.us.i.i:                           ; preds = %bb12.us.i.i
  %_64.not.i.us.i.i = icmp eq i64 %new_len.us.i.i, 0
  br i1 %_64.not.i.us.i.i, label %bb4.i.us.i.i, label %bb7.i.us.i.i

bb7.i.us.i.i:                                     ; preds = %bb5.preheader.i.us.i.i, %bb9.i.us.i.i
  %i.sroa.0.05.i.us.i.i = phi i64 [ %10, %bb9.i.us.i.i ], [ 0, %bb5.preheader.i.us.i.i ]
  %9 = getelementptr inbounds nuw i8, ptr %_46.us.i.i, i64 %i.sroa.0.05.i.us.i.i
  %_9.i.us.i.i = load i8, ptr %9, align 1, !alias.scope !162, !noalias !161, !noundef !8
  %_8.i.us.i.i = icmp eq i8 %_9.i.us.i.i, %last_byte.us.pre.i.i
  br i1 %_8.i.us.i.i, label %bb4.i.us.i.i, label %bb9.i.us.i.i

bb9.i.us.i.i:                                     ; preds = %bb7.i.us.i.i
  %10 = add nuw nsw i64 %i.sroa.0.05.i.us.i.i, 1
  %exitcond.not.i.us.i.i = icmp eq i64 %10, %new_len.us.i.i
  br i1 %exitcond.not.i.us.i.i, label %bb4.i.us.i.i, label %bb7.i.us.i.i

bb4.i.us.i.i:                                     ; preds = %bb9.i.us.i.i, %bb7.i.us.i.i, %bb5.preheader.i.us.i.i
  %i.sroa.0.0.lcssa.i.us.i.i = phi i64 [ 0, %bb5.preheader.i.us.i.i ], [ %new_len.us.i.i, %bb9.i.us.i.i ], [ %i.sroa.0.05.i.us.i.i, %bb7.i.us.i.i ]
  %_0.sroa.0.1.i.us.i.i = phi i64 [ 0, %bb5.preheader.i.us.i.i ], [ 0, %bb9.i.us.i.i ], [ 1, %bb7.i.us.i.i ]
  %11 = insertvalue { i64, i64 } poison, i64 %_0.sroa.0.1.i.us.i.i, 0
  %12 = insertvalue { i64, i64 } %11, i64 %i.sroa.0.0.lcssa.i.us.i.i, 1
  br label %_RNvNtNtCsjMrxcFdYDNN_4core5slice6memchr6memchr.exit.us.i.i

_RNvNtNtCsjMrxcFdYDNN_4core5slice6memchr6memchr.exit.us.i.i: ; preds = %bb4.i.us.i.i, %bb2.i.us.i.i
  %.merged.i.us.i.i = phi { i64, i64 } [ %12, %bb4.i.us.i.i ], [ %8, %bb2.i.us.i.i ]
  %13 = extractvalue { i64, i64 } %.merged.i.us.i.i, 0
  %14 = trunc nuw i64 %13 to i1
  br i1 %14, label %bb4.us.i.i, label %bb10.i.i

bb4.us.i.i:                                       ; preds = %_RNvNtNtCsjMrxcFdYDNN_4core5slice6memchr6memchr.exit.us.i.i
  %15 = extractvalue { i64, i64 } %.merged.i.us.i.i, 1
  %_16.us.i.i = add i64 %7, 1
  %16 = add i64 %_16.us.i.i, %15
  store i64 %16, ptr %3, align 8, !alias.scope !157, !noalias !158
  %_17.not.us.i.i = icmp ult i64 %16, %_12.i.i
  %_54.not.us.i.i = icmp ugt i64 %16, %_4.val1.i
  %or.cond.i.i = or i1 %_17.not.us.i.i, %_54.not.us.i.i
  br i1 %or.cond.i.i, label %bb9.us.i.i, label %bb19.us.i.i

bb19.us.i.i:                                      ; preds = %bb4.us.i.i
  %found_char.us.i.i = sub nuw i64 %16, %_12.i.i
  %_62.us.i.i = getelementptr inbounds nuw i8, ptr %_4.val.i, i64 %found_char.us.i.i
  %17 = tail call i32 @memcmp(ptr nonnull readonly align 1 %_62.us.i.i, ptr nonnull readonly align 1 %_10.i.i, i64 range(i64 0, -9223372036854775808) %_12.i.i), !alias.scope !165, !noalias !158
  %18 = icmp eq i32 %17, 0
  br i1 %18, label %bb7.i, label %bb9.us.i.i

bb9.us.i.i:                                       ; preds = %bb19.us.i.i, %bb4.us.i.i
  %_43.us.i.i = icmp ult i64 %index2.i.i, %16
  br i1 %_43.us.i.i, label %bb1.i.i, label %bb12.us.i.i

bb12.i.i:                                         ; preds = %bb12.lr.ph.i.i, %bb9.i.i
  %19 = phi i64 [ %28, %bb9.i.i ], [ %.promoted.i.i, %bb12.lr.ph.i.i ]
  %new_len.i.i = sub nuw i64 %index2.i.i, %19
  %_46.i.i = getelementptr inbounds nuw i8, ptr %_4.val.i, i64 %19
  %_3.i.i.i = icmp samesign ult i64 %new_len.i.i, 16
  br i1 %_3.i.i.i, label %bb5.preheader.i.i.i, label %bb2.i.i.i

bb5.preheader.i.i.i:                              ; preds = %bb12.i.i
  %_64.not.i.i.i = icmp eq i64 %new_len.i.i, 0
  br i1 %_64.not.i.i.i, label %bb4.i.i.i, label %bb7.i.i.i

bb2.i.i.i:                                        ; preds = %bb12.i.i
; call core::slice::memchr::memchr_aligned
  %20 = tail call { i64, i64 } @_RNvNtNtCsjMrxcFdYDNN_4core5slice6memchr14memchr_aligned(i8 noundef %last_byte.us.pre.i.i, ptr noalias noundef nonnull readonly align 1 captures(address, read_provenance) %_46.i.i, i64 noundef range(i64 0, -9223372036854775808) %new_len.i.i), !noalias !161
  br label %_RNvNtNtCsjMrxcFdYDNN_4core5slice6memchr6memchr.exit.i.i

bb4.i.i.i:                                        ; preds = %bb9.i.i.i, %bb7.i.i.i, %bb5.preheader.i.i.i
  %i.sroa.0.0.lcssa.i.i.i = phi i64 [ 0, %bb5.preheader.i.i.i ], [ %new_len.i.i, %bb9.i.i.i ], [ %i.sroa.0.05.i.i.i, %bb7.i.i.i ]
  %_0.sroa.0.1.i.i.i = phi i64 [ 0, %bb5.preheader.i.i.i ], [ 0, %bb9.i.i.i ], [ 1, %bb7.i.i.i ]
  %21 = insertvalue { i64, i64 } poison, i64 %_0.sroa.0.1.i.i.i, 0
  %22 = insertvalue { i64, i64 } %21, i64 %i.sroa.0.0.lcssa.i.i.i, 1
  br label %_RNvNtNtCsjMrxcFdYDNN_4core5slice6memchr6memchr.exit.i.i

bb7.i.i.i:                                        ; preds = %bb5.preheader.i.i.i, %bb9.i.i.i
  %i.sroa.0.05.i.i.i = phi i64 [ %24, %bb9.i.i.i ], [ 0, %bb5.preheader.i.i.i ]
  %23 = getelementptr inbounds nuw i8, ptr %_46.i.i, i64 %i.sroa.0.05.i.i.i
  %_9.i.i.i = load i8, ptr %23, align 1, !alias.scope !162, !noalias !161, !noundef !8
  %_8.i.i.i = icmp eq i8 %_9.i.i.i, %last_byte.us.pre.i.i
  br i1 %_8.i.i.i, label %bb4.i.i.i, label %bb9.i.i.i

bb9.i.i.i:                                        ; preds = %bb7.i.i.i
  %24 = add nuw nsw i64 %i.sroa.0.05.i.i.i, 1
  %exitcond.not.i.i.i = icmp eq i64 %24, %new_len.i.i
  br i1 %exitcond.not.i.i.i, label %bb4.i.i.i, label %bb7.i.i.i

_RNvNtNtCsjMrxcFdYDNN_4core5slice6memchr6memchr.exit.i.i: ; preds = %bb4.i.i.i, %bb2.i.i.i
  %.merged.i.i.i = phi { i64, i64 } [ %22, %bb4.i.i.i ], [ %20, %bb2.i.i.i ]
  %25 = extractvalue { i64, i64 } %.merged.i.i.i, 0
  %26 = trunc nuw i64 %25 to i1
  br i1 %26, label %bb4.i.i, label %bb10.i.i

bb4.i.i:                                          ; preds = %_RNvNtNtCsjMrxcFdYDNN_4core5slice6memchr6memchr.exit.i.i
  %27 = extractvalue { i64, i64 } %.merged.i.i.i, 1
  %_16.i.i = add i64 %19, 1
  %28 = add i64 %_16.i.i, %27
  store i64 %28, ptr %3, align 8, !alias.scope !157, !noalias !158
  %_17.not.i.i = icmp ult i64 %28, %_12.i.i
  %_54.not.i.i = icmp ugt i64 %28, %_4.val1.i
  %or.cond70.i.i = or i1 %_17.not.i.i, %_54.not.i.i
  br i1 %or.cond70.i.i, label %bb9.i.i, label %bb25.i.i

bb10.i.i:                                         ; preds = %_RNvNtNtCsjMrxcFdYDNN_4core5slice6memchr6memchr.exit.i.i, %_RNvNtNtCsjMrxcFdYDNN_4core5slice6memchr6memchr.exit.us.i.i
  store i64 %index2.i.i, ptr %3, align 8, !alias.scope !157, !noalias !158
  br label %bb1.i.i

bb9.i.i:                                          ; preds = %bb4.i.i
  %_43.i.i = icmp ult i64 %index2.i.i, %28
  br i1 %_43.i.i, label %bb1.i.i, label %bb12.i.i

bb25.i.i:                                         ; preds = %bb4.i.i
; call core::slice::index::slice_index_fail
  tail call void @_RNvNtNtCsjMrxcFdYDNN_4core5slice5index16slice_index_fail(i64 noundef 0, i64 noundef %_12.i.i, i64 noundef 4, ptr noalias noundef readonly align 8 captures(address, read_provenance) dereferenceable(24) @alloc_e52d3af24e8037dfb4f35693fba7d9f6) #23, !noalias !161
  unreachable

bb7.i:                                            ; preds = %bb19.us.i.i
  %i.i = load i64, ptr %self, align 8, !alias.scope !151, !noundef !8
  %new_len.i = sub nuw i64 %found_char.us.i.i, %i.i
  %data.i = getelementptr inbounds nuw i8, ptr %_4.val.i, i64 %i.i
  store i64 %16, ptr %self, align 8, !alias.scope !151
  br label %_RNvMsf_NtNtCsjMrxcFdYDNN_4core3str4iterINtB5_13SplitInternalcE4nextCsfv65jYcjU7K_18build_script_build.exit

bb1.i.i:                                          ; preds = %bb9.i.i, %bb9.us.i.i, %bb10.i.i, %bb2.i
  store i8 1, ptr %0, align 1, !alias.scope !169
  %29 = getelementptr inbounds nuw i8, ptr %self, i64 64
  %30 = load i8, ptr %29, align 8, !range !110, !alias.scope !169, !noundef !8
  %_3.i.i = trunc nuw i8 %30 to i1
  %i.pre.i.i = load i64, ptr %self, align 8, !alias.scope !169
  %.phi.trans.insert.i.i = getelementptr inbounds nuw i8, ptr %self, i64 8
  %i1.pre.i.i = load i64, ptr %.phi.trans.insert.i.i, align 8, !alias.scope !169
  %_4.not.i.i = icmp ne i64 %i1.pre.i.i, %i.pre.i.i
  %or.cond.not.i.i = select i1 %_3.i.i, i1 true, i1 %_4.not.i.i
  %new_len.i4.i = sub nuw i64 %i1.pre.i.i, %i.pre.i.i
  %data.i.i = getelementptr inbounds nuw i8, ptr %_4.val.i, i64 %i.pre.i.i
  %_0.sroa.3.0.i.i = select i1 %or.cond.not.i.i, i64 %new_len.i4.i, i64 undef
  %_0.sroa.0.0.i.i = select i1 %or.cond.not.i.i, ptr %data.i.i, ptr null
  br label %_RNvMsf_NtNtCsjMrxcFdYDNN_4core3str4iterINtB5_13SplitInternalcE4nextCsfv65jYcjU7K_18build_script_build.exit

_RNvMsf_NtNtCsjMrxcFdYDNN_4core3str4iterINtB5_13SplitInternalcE4nextCsfv65jYcjU7K_18build_script_build.exit: ; preds = %start, %bb7.i, %bb1.i.i
  %_0.sroa.4.1.i = phi i64 [ undef, %start ], [ %new_len.i, %bb7.i ], [ %_0.sroa.3.0.i.i, %bb1.i.i ]
  %_0.sroa.0.1.i = phi ptr [ null, %start ], [ %data.i, %bb7.i ], [ %_0.sroa.0.0.i.i, %bb1.i.i ]
  %31 = insertvalue { ptr, i64 } poison, ptr %_0.sroa.0.1.i, 0
  %32 = insertvalue { ptr, i64 } %31, i64 %_0.sroa.4.1.i, 1
  ret { ptr, i64 } %32
}

; Function Attrs: nounwind uwtable
declare noundef range(i32 0, 10) i32 @rust_eh_personality(i32 noundef, i32 noundef, i64 noundef, ptr noundef, ptr noundef) unnamed_addr #5

; Function Attrs: mustprogress nocallback nofree nosync nounwind willreturn memory(argmem: readwrite)
declare void @llvm.lifetime.start.p0(i64 immarg, ptr captures(none)) #6

; Function Attrs: mustprogress nocallback nofree nosync nounwind willreturn memory(inaccessiblemem: write)
declare void @llvm.assume(i1 noundef) #7

; Function Attrs: mustprogress nocallback nofree nosync nounwind willreturn memory(argmem: readwrite)
declare void @llvm.lifetime.end.p0(i64 immarg, ptr captures(none)) #6

; core::panicking::panic_bounds_check
; Function Attrs: cold minsize noinline noreturn optsize uwtable
declare void @_RNvNtCsjMrxcFdYDNN_4core9panicking18panic_bounds_check(i64 noundef, i64 noundef, ptr noalias noundef readonly align 8 captures(address, read_provenance) dereferenceable(24)) unnamed_addr #8

; std::rt::lang_start_internal
; Function Attrs: uwtable
declare noundef i64 @_RNvNtCs5sEH5CPMdak_3std2rt19lang_start_internal(ptr noundef nonnull align 1, ptr noalias noundef readonly align 8 captures(address, read_provenance) dereferenceable(48), i64 noundef, ptr noundef, i8 noundef) unnamed_addr #0

; std::env::_var
; Function Attrs: uwtable
declare void @_RNvNtCs5sEH5CPMdak_3std3env4__var(ptr dead_on_unwind noalias noundef writable sret([32 x i8]) align 8 captures(none) dereferenceable(32), ptr noalias noundef nonnull readonly align 1 captures(address, read_provenance), i64 noundef) unnamed_addr #0

; Function Attrs: mustprogress nocallback nofree nosync nounwind speculatable willreturn memory(none)
declare { i64, i1 } @llvm.umul.with.overflow.i64(i64, i64) #9

; Function Attrs: mustprogress nocallback nofree nounwind willreturn memory(argmem: readwrite)
declare void @llvm.memcpy.p0.p0.i64(ptr noalias writeonly captures(none), ptr noalias readonly captures(none), i64, i1 immarg) #10

; core::option::expect_failed
; Function Attrs: cold noinline noreturn uwtable
declare void @_RNvNtCsjMrxcFdYDNN_4core6option13expect_failed(ptr noalias noundef nonnull readonly align 1 captures(address, read_provenance), i64 noundef, ptr noalias noundef readonly align 8 captures(address, read_provenance) dereferenceable(24)) unnamed_addr #11

; alloc::raw_vec::handle_error
; Function Attrs: cold minsize noreturn optsize uwtable
declare void @_RNvNtCsdJPVW0sQgAG_5alloc7raw_vec12handle_error(i64 noundef range(i64 0, -9223372036854775807), i64) unnamed_addr #12

; std::io::stdio::_print
; Function Attrs: uwtable
declare void @_RNvNtNtCs5sEH5CPMdak_3std2io5stdio6__print(ptr noundef nonnull, ptr noundef nonnull) unnamed_addr #0

; <std::env::VarError as core::fmt::Display>::fmt
; Function Attrs: uwtable
declare noundef zeroext i1 @_RNvXs2_NtCs5sEH5CPMdak_3std3envNtB5_8VarErrorNtNtCsjMrxcFdYDNN_4core3fmt7Display3fmt(ptr noalias noundef readonly align 8 captures(address, read_provenance) dereferenceable(24), ptr noalias noundef align 8 dereferenceable(24)) unnamed_addr #0

; __rustc::__rust_dealloc
; Function Attrs: nounwind allockind("free") uwtable
declare void @_RNvCsKhRCbHf33p_7___rustc14___rust_dealloc(ptr allocptr noundef, i64 noundef, i64 noundef) unnamed_addr #13

; __rustc::__rust_realloc
; Function Attrs: nounwind allockind("realloc,aligned") allocsize(3) uwtable
declare noalias noundef ptr @_RNvCsKhRCbHf33p_7___rustc14___rust_realloc(ptr allocptr noundef, i64 noundef, i64 allocalign noundef, i64 noundef) unnamed_addr #14

; __rustc::__rust_no_alloc_shim_is_unstable_v2
; Function Attrs: nounwind uwtable
declare void @_RNvCsKhRCbHf33p_7___rustc35___rust_no_alloc_shim_is_unstable_v2() unnamed_addr #5

; __rustc::__rust_alloc
; Function Attrs: nounwind allockind("alloc,uninitialized,aligned") allocsize(0) uwtable
declare noalias noundef ptr @_RNvCsKhRCbHf33p_7___rustc12___rust_alloc(i64 noundef, i64 allocalign noundef) unnamed_addr #15

; core::panicking::panic_fmt
; Function Attrs: cold noinline noreturn uwtable
declare void @_RNvNtCsjMrxcFdYDNN_4core9panicking9panic_fmt(ptr noundef nonnull, ptr noundef nonnull, ptr noalias noundef readonly align 8 captures(address, read_provenance) dereferenceable(24)) unnamed_addr #11

; core::slice::memchr::memchr_aligned
; Function Attrs: uwtable
declare { i64, i64 } @_RNvNtNtCsjMrxcFdYDNN_4core5slice6memchr14memchr_aligned(i8 noundef, ptr noalias noundef nonnull readonly align 1 captures(address, read_provenance), i64 noundef range(i64 0, -9223372036854775808)) unnamed_addr #0

; Function Attrs: mustprogress nocallback nofree nounwind willreturn memory(argmem: read)
declare i32 @memcmp(ptr captures(none), ptr captures(none), i64) local_unnamed_addr #16

; core::slice::index::slice_index_fail
; Function Attrs: cold noinline noreturn uwtable
declare void @_RNvNtNtCsjMrxcFdYDNN_4core5slice5index16slice_index_fail(i64 noundef, i64 noundef, i64 noundef, ptr noalias noundef readonly align 8 captures(address, read_provenance) dereferenceable(24)) unnamed_addr #11

; <core::str::pattern::StrSearcher>::new
; Function Attrs: uwtable
declare void @_RNvMsu_NtNtCsjMrxcFdYDNN_4core3str7patternNtB5_11StrSearcher3new(ptr dead_on_unwind noalias noundef writable sret([104 x i8]) align 8 captures(none) dereferenceable(104), ptr noalias noundef nonnull readonly align 1 captures(address, read_provenance), i64 noundef, ptr noalias noundef nonnull readonly align 1 captures(address, read_provenance), i64 noundef) unnamed_addr #0

; core::str::slice_error_fail
; Function Attrs: cold noinline noreturn uwtable
declare void @_RNvNtCsjMrxcFdYDNN_4core3str16slice_error_fail(ptr noalias noundef nonnull readonly align 1 captures(address, read_provenance), i64 noundef, i64 noundef, i64 noundef, ptr noalias noundef readonly align 8 captures(address, read_provenance) dereferenceable(24)) unnamed_addr #11

define noundef i32 @main(i32 %0, ptr %1) unnamed_addr #17 {
top:
  %_7.i = alloca [8 x i8], align 8
  %2 = sext i32 %0 to i64
  call void @llvm.lifetime.start.p0(i64 8, ptr nonnull %_7.i)
  store ptr @_RNvCsfv65jYcjU7K_18build_script_build4main, ptr %_7.i, align 8
; call std::rt::lang_start_internal
  %_0.i = call noundef i64 @_RNvNtCs5sEH5CPMdak_3std2rt19lang_start_internal(ptr noundef nonnull align 1 %_7.i, ptr noalias noundef readonly align 8 captures(address, read_provenance) dereferenceable(48) @vtable.0, i64 noundef %2, ptr noundef %1, i8 noundef 0)
  call void @llvm.lifetime.end.p0(i64 8, ptr nonnull %_7.i)
  %3 = trunc i64 %_0.i to i32
  ret i32 %3
}

; Function Attrs: nocallback nofree nosync nounwind willreturn memory(inaccessiblemem: readwrite)
declare void @llvm.experimental.noalias.scope.decl(metadata) #18

; Function Attrs: nocallback nofree nosync nounwind speculatable willreturn memory(none)
declare i64 @llvm.umax.i64(i64, i64) #19

attributes #0 = { uwtable "frame-pointer"="non-leaf" "probe-stack"="inline-asm" "target-cpu"="apple-m1" }
attributes #1 = { noinline uwtable "frame-pointer"="non-leaf" "probe-stack"="inline-asm" "target-cpu"="apple-m1" }
attributes #2 = { cold uwtable "frame-pointer"="non-leaf" "probe-stack"="inline-asm" "target-cpu"="apple-m1" }
attributes #3 = { inlinehint uwtable "frame-pointer"="non-leaf" "probe-stack"="inline-asm" "target-cpu"="apple-m1" }
attributes #4 = { cold nounwind uwtable "frame-pointer"="non-leaf" "probe-stack"="inline-asm" "target-cpu"="apple-m1" }
attributes #5 = { nounwind uwtable "frame-pointer"="non-leaf" "probe-stack"="inline-asm" "target-cpu"="apple-m1" }
attributes #6 = { mustprogress nocallback nofree nosync nounwind willreturn memory(argmem: readwrite) }
attributes #7 = { mustprogress nocallback nofree nosync nounwind willreturn memory(inaccessiblemem: write) }
attributes #8 = { cold minsize noinline noreturn optsize uwtable "frame-pointer"="non-leaf" "probe-stack"="inline-asm" "target-cpu"="apple-m1" }
attributes #9 = { mustprogress nocallback nofree nosync nounwind speculatable willreturn memory(none) }
attributes #10 = { mustprogress nocallback nofree nounwind willreturn memory(argmem: readwrite) }
attributes #11 = { cold noinline noreturn uwtable "frame-pointer"="non-leaf" "probe-stack"="inline-asm" "target-cpu"="apple-m1" }
attributes #12 = { cold minsize noreturn optsize uwtable "frame-pointer"="non-leaf" "probe-stack"="inline-asm" "target-cpu"="apple-m1" }
attributes #13 = { nounwind allockind("free") uwtable "alloc-family"="__rust_alloc" "frame-pointer"="non-leaf" "probe-stack"="inline-asm" "target-cpu"="apple-m1" }
attributes #14 = { nounwind allockind("realloc,aligned") allocsize(3) uwtable "alloc-family"="__rust_alloc" "frame-pointer"="non-leaf" "probe-stack"="inline-asm" "target-cpu"="apple-m1" }
attributes #15 = { nounwind allockind("alloc,uninitialized,aligned") allocsize(0) uwtable "alloc-family"="__rust_alloc" "alloc-variant-zeroed"="_RNvCsKhRCbHf33p_7___rustc19___rust_alloc_zeroed" "frame-pointer"="non-leaf" "probe-stack"="inline-asm" "target-cpu"="apple-m1" }
attributes #16 = { mustprogress nocallback nofree nounwind willreturn memory(argmem: read) }
attributes #17 = { "frame-pointer"="non-leaf" "probe-stack"="inline-asm" "target-cpu"="apple-m1" }
attributes #18 = { nocallback nofree nosync nounwind willreturn memory(inaccessiblemem: readwrite) }
attributes #19 = { nocallback nofree nosync nounwind speculatable willreturn memory(none) }
attributes #20 = { nounwind }
attributes #21 = { noreturn }
attributes #22 = { noinline }
attributes #23 = { noinline noreturn }

!llvm.module.flags = !{!0, !1}
!llvm.ident = !{!2}

!0 = !{i32 8, !"PIC Level", i32 2}
!1 = !{i32 7, !"PIE Level", i32 2}
!2 = !{!"rustc version 1.95.0-nightly (39052daf9 2026-01-22)"}
!3 = !{i64 16321352469969932}
!4 = !{!5}
!5 = distinct !{!5, !6, !"_RNvMs4_NtCsdJPVW0sQgAG_5alloc7raw_vecNtB5_11RawVecInner14grow_amortizedCsfv65jYcjU7K_18build_script_build: %self"}
!6 = distinct !{!6, !"_RNvMs4_NtCsdJPVW0sQgAG_5alloc7raw_vecNtB5_11RawVecInner14grow_amortizedCsfv65jYcjU7K_18build_script_build"}
!7 = !{i64 0, i64 -9223372036854775808}
!8 = !{}
!9 = !{i64 0, i64 2}
!10 = !{i64 0, i64 -9223372036854775807}
!11 = !{!12}
!12 = distinct !{!12, !13, !"_RNCINvNtCs5sEH5CPMdak_3std2rt10lang_startuE0Csfv65jYcjU7K_18build_script_build: %_1"}
!13 = distinct !{!13, !"_RNCINvNtCs5sEH5CPMdak_3std2rt10lang_startuE0Csfv65jYcjU7K_18build_script_build"}
!14 = !{!15, !17}
!15 = distinct !{!15, !16, !"_RNvCsfv65jYcjU7K_18build_script_build27convert_custom_linux_target: %_0"}
!16 = distinct !{!16, !"_RNvCsfv65jYcjU7K_18build_script_build27convert_custom_linux_target"}
!17 = distinct !{!17, !16, !"_RNvCsfv65jYcjU7K_18build_script_build27convert_custom_linux_target: %target"}
!18 = !{!19, !21, !15, !17}
!19 = distinct !{!19, !20, !"_RNvXNtNtCsdJPVW0sQgAG_5alloc3vec21spec_from_iter_nestedINtB4_3VecReEINtB2_18SpecFromIterNestedB11_INtNtNtCsjMrxcFdYDNN_4core3str4iter5SplitcEE9from_iterCsfv65jYcjU7K_18build_script_build: %_0"}
!20 = distinct !{!20, !"_RNvXNtNtCsdJPVW0sQgAG_5alloc3vec21spec_from_iter_nestedINtB4_3VecReEINtB2_18SpecFromIterNestedB11_INtNtNtCsjMrxcFdYDNN_4core3str4iter5SplitcEE9from_iterCsfv65jYcjU7K_18build_script_build"}
!21 = distinct !{!21, !20, !"_RNvXNtNtCsdJPVW0sQgAG_5alloc3vec21spec_from_iter_nestedINtB4_3VecReEINtB2_18SpecFromIterNestedB11_INtNtNtCsjMrxcFdYDNN_4core3str4iter5SplitcEE9from_iterCsfv65jYcjU7K_18build_script_build: %iterator"}
!22 = !{!23, !19, !21, !15, !17}
!23 = distinct !{!23, !24, !"_RNvMs4_NtCsdJPVW0sQgAG_5alloc7raw_vecNtB5_11RawVecInner15try_allocate_inCsfv65jYcjU7K_18build_script_build: %_0"}
!24 = distinct !{!24, !"_RNvMs4_NtCsdJPVW0sQgAG_5alloc7raw_vecNtB5_11RawVecInner15try_allocate_inCsfv65jYcjU7K_18build_script_build"}
!25 = !{!19, !15, !17}
!26 = !{!27}
!27 = distinct !{!27, !28, !"_RNvXNtNtCsdJPVW0sQgAG_5alloc3vec11spec_extendINtB4_3VecReEINtB2_10SpecExtendBR_INtNtNtCsjMrxcFdYDNN_4core3str4iter5SplitcEE11spec_extendCsfv65jYcjU7K_18build_script_build: %self"}
!28 = distinct !{!28, !"_RNvXNtNtCsdJPVW0sQgAG_5alloc3vec11spec_extendINtB4_3VecReEINtB2_10SpecExtendBR_INtNtNtCsjMrxcFdYDNN_4core3str4iter5SplitcEE11spec_extendCsfv65jYcjU7K_18build_script_build"}
!29 = !{!30}
!30 = distinct !{!30, !31, !"_RINvMsj_NtCsdJPVW0sQgAG_5alloc3vecINtB6_3VecReE16extend_desugaredINtNtNtCsjMrxcFdYDNN_4core3str4iter5SplitcEECsfv65jYcjU7K_18build_script_build: %self"}
!31 = distinct !{!31, !"_RINvMsj_NtCsdJPVW0sQgAG_5alloc3vecINtB6_3VecReE16extend_desugaredINtNtNtCsjMrxcFdYDNN_4core3str4iter5SplitcEECsfv65jYcjU7K_18build_script_build"}
!32 = !{!30, !27}
!33 = !{!34, !35, !19, !21, !15, !17}
!34 = distinct !{!34, !31, !"_RINvMsj_NtCsdJPVW0sQgAG_5alloc3vecINtB6_3VecReE16extend_desugaredINtNtNtCsjMrxcFdYDNN_4core3str4iter5SplitcEECsfv65jYcjU7K_18build_script_build: %iterator"}
!35 = distinct !{!35, !28, !"_RNvXNtNtCsdJPVW0sQgAG_5alloc3vec11spec_extendINtB4_3VecReEINtB2_10SpecExtendBR_INtNtNtCsjMrxcFdYDNN_4core3str4iter5SplitcEE11spec_extendCsfv65jYcjU7K_18build_script_build: %iter"}
!36 = !{!30, !34, !27, !35, !19, !21, !15, !17}
!37 = !{!21, !15, !17}
!38 = !{!39}
!39 = distinct !{!39, !40, !"_RINvNtCsdJPVW0sQgAG_5alloc3str17join_generic_copyehReECsfv65jYcjU7K_18build_script_build: %slice.0"}
!40 = distinct !{!40, !"_RINvNtCsdJPVW0sQgAG_5alloc3str17join_generic_copyehReECsfv65jYcjU7K_18build_script_build"}
!41 = !{!42, !44, !15, !17}
!42 = distinct !{!42, !43, !"_RINvYINtNtNtCsjMrxcFdYDNN_4core5slice4iter4IterReENtNtNtNtBa_4iter6traits8iterator8Iterator8try_foldjNCINvNtNtBS_8adapters3map12map_try_foldRBJ_jjINtNtBa_6option6OptionjENCNCINvNtCsdJPVW0sQgAG_5alloc3str17join_generic_copyehBJ_E00NvMs9_NtBa_3numj11checked_addE0B2k_ECsfv65jYcjU7K_18build_script_build: %self"}
!43 = distinct !{!43, !"_RINvYINtNtNtCsjMrxcFdYDNN_4core5slice4iter4IterReENtNtNtNtBa_4iter6traits8iterator8Iterator8try_foldjNCINvNtNtBS_8adapters3map12map_try_foldRBJ_jjINtNtBa_6option6OptionjENCNCINvNtCsdJPVW0sQgAG_5alloc3str17join_generic_copyehBJ_E00NvMs9_NtBa_3numj11checked_addE0B2k_ECsfv65jYcjU7K_18build_script_build"}
!44 = distinct !{!44, !40, !"_RINvNtCsdJPVW0sQgAG_5alloc3str17join_generic_copyehReECsfv65jYcjU7K_18build_script_build: %_0"}
!45 = !{!44, !39, !15, !17}
!46 = !{!"branch_weights", i32 2000, i32 6004}
!47 = !{!48, !44, !39, !15, !17}
!48 = distinct !{!48, !49, !"_RNvMs4_NtCsdJPVW0sQgAG_5alloc7raw_vecNtB5_11RawVecInner15try_allocate_inCsfv65jYcjU7K_18build_script_build: %_0"}
!49 = distinct !{!49, !"_RNvMs4_NtCsdJPVW0sQgAG_5alloc7raw_vecNtB5_11RawVecInner15try_allocate_inCsfv65jYcjU7K_18build_script_build"}
!50 = !{!44, !15, !17}
!51 = !{i64 1}
!52 = !{!53}
!53 = distinct !{!53, !54, !"_RNvXs2_NtNtCsdJPVW0sQgAG_5alloc3vec11spec_extendINtB7_3VechEINtB5_10SpecExtendRhINtNtNtCsjMrxcFdYDNN_4core5slice4iter4IterhEE11spec_extendCsfv65jYcjU7K_18build_script_build: %self"}
!54 = distinct !{!54, !"_RNvXs2_NtNtCsdJPVW0sQgAG_5alloc3vec11spec_extendINtB7_3VechEINtB5_10SpecExtendRhINtNtNtCsjMrxcFdYDNN_4core5slice4iter4IterhEE11spec_extendCsfv65jYcjU7K_18build_script_build"}
!55 = !{!56}
!56 = distinct !{!56, !57, !"_RNvMs_NtCsdJPVW0sQgAG_5alloc3vecINtB4_3VechE15append_elementsCsfv65jYcjU7K_18build_script_build: %self"}
!57 = distinct !{!57, !"_RNvMs_NtCsdJPVW0sQgAG_5alloc3vecINtB4_3VechE15append_elementsCsfv65jYcjU7K_18build_script_build"}
!58 = !{!"branch_weights", !"expected", i32 1, i32 2000}
!59 = !{!56, !53}
!60 = !{!56, !53, !44, !39, !15, !17}
!61 = !{!39, !15, !17}
!62 = !{!63, !65}
!63 = distinct !{!63, !64, !"_RINvNtCsjMrxcFdYDNN_4core5slice20copy_from_slice_implINtNtNtB4_3mem12maybe_uninit11MaybeUninithEECsfv65jYcjU7K_18build_script_build: %dest.0"}
!64 = distinct !{!64, !"_RINvNtCsjMrxcFdYDNN_4core5slice20copy_from_slice_implINtNtNtB4_3mem12maybe_uninit11MaybeUninithEECsfv65jYcjU7K_18build_script_build"}
!65 = distinct !{!65, !64, !"_RINvNtCsjMrxcFdYDNN_4core5slice20copy_from_slice_implINtNtNtB4_3mem12maybe_uninit11MaybeUninithEECsfv65jYcjU7K_18build_script_build: %src.0"}
!66 = !{!67, !69}
!67 = distinct !{!67, !68, !"_RINvNtCsjMrxcFdYDNN_4core5slice20copy_from_slice_implINtNtNtB4_3mem12maybe_uninit11MaybeUninithEECsfv65jYcjU7K_18build_script_build: %dest.0"}
!68 = distinct !{!68, !"_RINvNtCsjMrxcFdYDNN_4core5slice20copy_from_slice_implINtNtNtB4_3mem12maybe_uninit11MaybeUninithEECsfv65jYcjU7K_18build_script_build"}
!69 = distinct !{!69, !68, !"_RINvNtCsjMrxcFdYDNN_4core5slice20copy_from_slice_implINtNtNtB4_3mem12maybe_uninit11MaybeUninithEECsfv65jYcjU7K_18build_script_build: %src.0"}
!70 = !{!71, !73, !74, !76}
!71 = distinct !{!71, !72, !"_RNvXs3_NtNtCsjMrxcFdYDNN_4core5slice3cmpShINtB5_14SlicePartialEqhE5equalCsfv65jYcjU7K_18build_script_build: %self.0"}
!72 = distinct !{!72, !"_RNvXs3_NtNtCsjMrxcFdYDNN_4core5slice3cmpShINtB5_14SlicePartialEqhE5equalCsfv65jYcjU7K_18build_script_build"}
!73 = distinct !{!73, !72, !"_RNvXs3_NtNtCsjMrxcFdYDNN_4core5slice3cmpShINtB5_14SlicePartialEqhE5equalCsfv65jYcjU7K_18build_script_build: %other.0"}
!74 = distinct !{!74, !75, !"_RNvXs_NtNtCsjMrxcFdYDNN_4core3str6traitseNtNtB8_3cmp9PartialEq2eq: %self.0"}
!75 = distinct !{!75, !"_RNvXs_NtNtCsjMrxcFdYDNN_4core3str6traitseNtNtB8_3cmp9PartialEq2eq"}
!76 = distinct !{!76, !75, !"_RNvXs_NtNtCsjMrxcFdYDNN_4core3str6traitseNtNtB8_3cmp9PartialEq2eq: %other.0"}
!77 = !{!78, !80, !81, !83}
!78 = distinct !{!78, !79, !"_RNvXs3_NtNtCsjMrxcFdYDNN_4core5slice3cmpShINtB5_14SlicePartialEqhE5equalCsfv65jYcjU7K_18build_script_build: %self.0"}
!79 = distinct !{!79, !"_RNvXs3_NtNtCsjMrxcFdYDNN_4core5slice3cmpShINtB5_14SlicePartialEqhE5equalCsfv65jYcjU7K_18build_script_build"}
!80 = distinct !{!80, !79, !"_RNvXs3_NtNtCsjMrxcFdYDNN_4core5slice3cmpShINtB5_14SlicePartialEqhE5equalCsfv65jYcjU7K_18build_script_build: %other.0"}
!81 = distinct !{!81, !82, !"_RNvXs_NtNtCsjMrxcFdYDNN_4core3str6traitseNtNtB8_3cmp9PartialEq2eq: %self.0"}
!82 = distinct !{!82, !"_RNvXs_NtNtCsjMrxcFdYDNN_4core3str6traitseNtNtB8_3cmp9PartialEq2eq"}
!83 = distinct !{!83, !82, !"_RNvXs_NtNtCsjMrxcFdYDNN_4core3str6traitseNtNtB8_3cmp9PartialEq2eq: %other.0"}
!84 = !{!85, !87}
!85 = distinct !{!85, !86, !"_RINvXs2E_NtNtCsjMrxcFdYDNN_4core5slice4iterINtB7_4IterReENtNtNtNtBb_4iter6traits8iterator8Iterator3anyNCNvXsf_NtB9_3cmpBQ_NtB1K_13SliceContains14slice_contains0ECsfv65jYcjU7K_18build_script_build: %self"}
!86 = distinct !{!86, !"_RINvXs2E_NtNtCsjMrxcFdYDNN_4core5slice4iterINtB7_4IterReENtNtNtNtBb_4iter6traits8iterator8Iterator3anyNCNvXsf_NtB9_3cmpBQ_NtB1K_13SliceContains14slice_contains0ECsfv65jYcjU7K_18build_script_build"}
!87 = distinct !{!87, !86, !"_RINvXs2E_NtNtCsjMrxcFdYDNN_4core5slice4iterINtB7_4IterReENtNtNtNtBb_4iter6traits8iterator8Iterator3anyNCNvXsf_NtB9_3cmpBQ_NtB1K_13SliceContains14slice_contains0ECsfv65jYcjU7K_18build_script_build: argument 1"}
!88 = !{!89}
!89 = distinct !{!89, !90, !"_RNvMNtCsjMrxcFdYDNN_4core6resultINtB2_6ResultNtNtCsdJPVW0sQgAG_5alloc6string6StringNtNtCs5sEH5CPMdak_3std3env8VarErrorE17unwrap_or_defaultCsfv65jYcjU7K_18build_script_build: %x"}
!90 = distinct !{!90, !"_RNvMNtCsjMrxcFdYDNN_4core6resultINtB2_6ResultNtNtCsdJPVW0sQgAG_5alloc6string6StringNtNtCs5sEH5CPMdak_3std3env8VarErrorE17unwrap_or_defaultCsfv65jYcjU7K_18build_script_build"}
!91 = !{!92}
!92 = distinct !{!92, !90, !"_RNvMNtCsjMrxcFdYDNN_4core6resultINtB2_6ResultNtNtCsdJPVW0sQgAG_5alloc6string6StringNtNtCs5sEH5CPMdak_3std3env8VarErrorE17unwrap_or_defaultCsfv65jYcjU7K_18build_script_build: %self"}
!93 = !{!94}
!94 = distinct !{!94, !95, !"_RINvNtCsjMrxcFdYDNN_4core3ptr13drop_in_placeINtNtB4_6result6ResultNtNtCsdJPVW0sQgAG_5alloc6string6StringNtNtCs5sEH5CPMdak_3std3env8VarErrorEECsfv65jYcjU7K_18build_script_build: %_1"}
!95 = distinct !{!95, !"_RINvNtCsjMrxcFdYDNN_4core3ptr13drop_in_placeINtNtB4_6result6ResultNtNtCsdJPVW0sQgAG_5alloc6string6StringNtNtCs5sEH5CPMdak_3std3env8VarErrorEECsfv65jYcjU7K_18build_script_build"}
!96 = !{!94, !92}
!97 = !{!94, !89, !92}
!98 = !{!89, !92}
!99 = !{!100}
!100 = distinct !{!100, !101, !"_RNvXst_NtNtCsjMrxcFdYDNN_4core3str7patternReNtB5_7Pattern15is_contained_in: %haystack.0"}
!101 = distinct !{!101, !"_RNvXst_NtNtCsjMrxcFdYDNN_4core3str7patternReNtB5_7Pattern15is_contained_in"}
!102 = !{!103}
!103 = distinct !{!103, !104, !"_RNvXsv_NtNtCsjMrxcFdYDNN_4core3str7patternNtB5_11StrSearcherNtB5_8Searcher10next_match: %self"}
!104 = distinct !{!104, !"_RNvXsv_NtNtCsjMrxcFdYDNN_4core3str7patternNtB5_11StrSearcherNtB5_8Searcher10next_match"}
!105 = !{!106, !100}
!106 = distinct !{!106, !104, !"_RNvXsv_NtNtCsjMrxcFdYDNN_4core3str7patternNtB5_11StrSearcherNtB5_8Searcher10next_match: %_0"}
!107 = !{!108}
!108 = distinct !{!108, !109, !"_RNvXsv_NtNtCsjMrxcFdYDNN_4core3str7patternNtB5_11StrSearcherNtB5_8Searcher4next: %self"}
!109 = distinct !{!109, !"_RNvXsv_NtNtCsjMrxcFdYDNN_4core3str7patternNtB5_11StrSearcherNtB5_8Searcher4next"}
!110 = !{i8 0, i8 2}
!111 = !{!108, !103}
!112 = !{!113, !106, !100}
!113 = distinct !{!113, !109, !"_RNvXsv_NtNtCsjMrxcFdYDNN_4core3str7patternNtB5_11StrSearcherNtB5_8Searcher4next: %otherwise"}
!114 = !{!115}
!115 = distinct !{!115, !116, !"_RNvXs9_NtNtCsjMrxcFdYDNN_4core3str6traitsINtNtNtB9_3ops5range9RangeFromjEINtNtNtB9_5slice5index10SliceIndexeE3get: %slice.0"}
!116 = distinct !{!116, !"_RNvXs9_NtNtCsjMrxcFdYDNN_4core3str6traitsINtNtNtB9_3ops5range9RangeFromjEINtNtNtB9_5slice5index10SliceIndexeE3get"}
!117 = !{!113, !118, !106, !103}
!118 = distinct !{!118, !109, !"_RNvXsv_NtNtCsjMrxcFdYDNN_4core3str7patternNtB5_11StrSearcherNtB5_8Searcher4next: %self:Peel0"}
!119 = !{!120, !113, !118, !106, !103}
!120 = distinct !{!120, !121, !"_RINvNtNtCsjMrxcFdYDNN_4core3str11validations15next_code_pointINtNtNtB6_5slice4iter4IterhEECsfv65jYcjU7K_18build_script_build: %bytes"}
!121 = distinct !{!121, !"_RINvNtNtCsjMrxcFdYDNN_4core3str11validations15next_code_pointINtNtNtB6_5slice4iter4IterhEECsfv65jYcjU7K_18build_script_build"}
!122 = !{!113, !108, !106, !103}
!123 = !{!120, !113, !108, !106, !103}
!124 = !{!125}
!125 = distinct !{!125, !126, !"_RINvMsx_NtNtCsjMrxcFdYDNN_4core3str7patternNtB6_14TwoWaySearcher4nextNtB6_9MatchOnlyECsfv65jYcjU7K_18build_script_build: %self"}
!126 = distinct !{!126, !"_RINvMsx_NtNtCsjMrxcFdYDNN_4core3str7patternNtB6_14TwoWaySearcher4nextNtB6_9MatchOnlyECsfv65jYcjU7K_18build_script_build"}
!127 = !{!128}
!128 = distinct !{!128, !126, !"_RINvMsx_NtNtCsjMrxcFdYDNN_4core3str7patternNtB6_14TwoWaySearcher4nextNtB6_9MatchOnlyECsfv65jYcjU7K_18build_script_build: %haystack.0"}
!129 = !{!130}
!130 = distinct !{!130, !126, !"_RINvMsx_NtNtCsjMrxcFdYDNN_4core3str7patternNtB6_14TwoWaySearcher4nextNtB6_9MatchOnlyECsfv65jYcjU7K_18build_script_build: %needle.0"}
!131 = !{!132, !128, !130, !100}
!132 = distinct !{!132, !126, !"_RINvMsx_NtNtCsjMrxcFdYDNN_4core3str7patternNtB6_14TwoWaySearcher4nextNtB6_9MatchOnlyECsfv65jYcjU7K_18build_script_build: %_0"}
!133 = !{!132, !125, !130}
!134 = !{!132, !125, !128}
!135 = !{!136}
!136 = distinct !{!136, !137, !"_RINvMsx_NtNtCsjMrxcFdYDNN_4core3str7patternNtB6_14TwoWaySearcher4nextNtB6_9MatchOnlyECsfv65jYcjU7K_18build_script_build: %self"}
!137 = distinct !{!137, !"_RINvMsx_NtNtCsjMrxcFdYDNN_4core3str7patternNtB6_14TwoWaySearcher4nextNtB6_9MatchOnlyECsfv65jYcjU7K_18build_script_build"}
!138 = !{!139}
!139 = distinct !{!139, !137, !"_RINvMsx_NtNtCsjMrxcFdYDNN_4core3str7patternNtB6_14TwoWaySearcher4nextNtB6_9MatchOnlyECsfv65jYcjU7K_18build_script_build: %haystack.0"}
!140 = !{!141}
!141 = distinct !{!141, !137, !"_RINvMsx_NtNtCsjMrxcFdYDNN_4core3str7patternNtB6_14TwoWaySearcher4nextNtB6_9MatchOnlyECsfv65jYcjU7K_18build_script_build: %needle.0"}
!142 = !{!143, !139, !141, !100}
!143 = distinct !{!143, !137, !"_RINvMsx_NtNtCsjMrxcFdYDNN_4core3str7patternNtB6_14TwoWaySearcher4nextNtB6_9MatchOnlyECsfv65jYcjU7K_18build_script_build: %_0"}
!144 = !{!143, !136, !141}
!145 = !{!143, !136, !139}
!146 = !{!147, !149}
!147 = distinct !{!147, !148, !"_RNvXs3_NtNtCsjMrxcFdYDNN_4core5slice3cmpShINtB5_14SlicePartialEqhE5equalCsfv65jYcjU7K_18build_script_build: %self.0"}
!148 = distinct !{!148, !"_RNvXs3_NtNtCsjMrxcFdYDNN_4core5slice3cmpShINtB5_14SlicePartialEqhE5equalCsfv65jYcjU7K_18build_script_build"}
!149 = distinct !{!149, !148, !"_RNvXs3_NtNtCsjMrxcFdYDNN_4core5slice3cmpShINtB5_14SlicePartialEqhE5equalCsfv65jYcjU7K_18build_script_build: %other.0"}
!150 = !{!"branch_weights", i32 2002, i32 2000}
!151 = !{!152}
!152 = distinct !{!152, !153, !"_RNvMsf_NtNtCsjMrxcFdYDNN_4core3str4iterINtB5_13SplitInternalcE4nextCsfv65jYcjU7K_18build_script_build: %self"}
!153 = distinct !{!153, !"_RNvMsf_NtNtCsjMrxcFdYDNN_4core3str4iterINtB5_13SplitInternalcE4nextCsfv65jYcjU7K_18build_script_build"}
!154 = !{!155}
!155 = distinct !{!155, !156, !"_RNvXs_NtNtCsjMrxcFdYDNN_4core3str7patternNtB4_12CharSearcherNtB4_8Searcher10next_match: %self"}
!156 = distinct !{!156, !"_RNvXs_NtNtCsjMrxcFdYDNN_4core3str7patternNtB4_12CharSearcherNtB4_8Searcher10next_match"}
!157 = !{!155, !152}
!158 = !{!159}
!159 = distinct !{!159, !156, !"_RNvXs_NtNtCsjMrxcFdYDNN_4core3str7patternNtB4_12CharSearcherNtB4_8Searcher10next_match: %_0"}
!160 = !{!"branch_weights", i32 4000000, i32 4001}
!161 = !{!159, !155, !152}
!162 = !{!163}
!163 = distinct !{!163, !164, !"_RNvNtNtCsjMrxcFdYDNN_4core5slice6memchr6memchr: %text.0"}
!164 = distinct !{!164, !"_RNvNtNtCsjMrxcFdYDNN_4core5slice6memchr6memchr"}
!165 = !{!166, !168}
!166 = distinct !{!166, !167, !"_RNvXs3_NtNtCsjMrxcFdYDNN_4core5slice3cmpShINtB5_14SlicePartialEqhE5equalCsfv65jYcjU7K_18build_script_build: %self.0"}
!167 = distinct !{!167, !"_RNvXs3_NtNtCsjMrxcFdYDNN_4core5slice3cmpShINtB5_14SlicePartialEqhE5equalCsfv65jYcjU7K_18build_script_build"}
!168 = distinct !{!168, !167, !"_RNvXs3_NtNtCsjMrxcFdYDNN_4core5slice3cmpShINtB5_14SlicePartialEqhE5equalCsfv65jYcjU7K_18build_script_build: %other.0"}
!169 = !{!170, !152}
!170 = distinct !{!170, !171, !"_RNvMsf_NtNtCsjMrxcFdYDNN_4core3str4iterINtB5_13SplitInternalcE7get_endCsfv65jYcjU7K_18build_script_build: %self"}
!171 = distinct !{!171, !"_RNvMsf_NtNtCsjMrxcFdYDNN_4core3str4iterINtB5_13SplitInternalcE7get_endCsfv65jYcjU7K_18build_script_build"}
