; ModuleID = 'build_script_build.fac099121c4e46b2-cgu.0'
source_filename = "build_script_build.fac099121c4e46b2-cgu.0"
target datalayout = "e-m:o-p270:32:32-p271:32:32-p272:64:64-i64:64-i128:128-n32:64-S128-Fn32"
target triple = "arm64-apple-macosx11.0.0"

%"alloc::boxed::Box<dyn core::ops::function::FnMut() -> core::result::Result<(), std::io::error::Error> + core::marker::Send + core::marker::Sync>" = type { %"core::ptr::unique::Unique<dyn core::ops::function::FnMut() -> core::result::Result<(), std::io::error::Error> + core::marker::Send + core::marker::Sync>", %"alloc::alloc::Global" }
%"core::ptr::unique::Unique<dyn core::ops::function::FnMut() -> core::result::Result<(), std::io::error::Error> + core::marker::Send + core::marker::Sync>" = type { %"core::ptr::non_null::NonNull<dyn core::ops::function::FnMut() -> core::result::Result<(), std::io::error::Error> + core::marker::Send + core::marker::Sync>", %"core::marker::PhantomData<dyn core::ops::function::FnMut() -> core::result::Result<(), std::io::error::Error> + core::marker::Send + core::marker::Sync>" }
%"core::ptr::non_null::NonNull<dyn core::ops::function::FnMut() -> core::result::Result<(), std::io::error::Error> + core::marker::Send + core::marker::Sync>" = type { { ptr, ptr } }
%"core::marker::PhantomData<dyn core::ops::function::FnMut() -> core::result::Result<(), std::io::error::Error> + core::marker::Send + core::marker::Sync>" = type {}
%"alloc::alloc::Global" = type {}
%"core::mem::maybe_uninit::MaybeUninit<std::ffi::os_str::OsString>" = type { [3 x i64] }
%"core::mem::maybe_uninit::MaybeUninit<core::option::Option<std::ffi::os_str::OsString>>" = type { [3 x i64] }

@alloc_69009fdc319497586282719e739ab5f8 = private unnamed_addr constant [136 x i8] c"/Users/hongyaotang/.rustup/toolchains/nightly-aarch64-apple-darwin/lib/rustlib/src/rust/library/alloc/src/collections/btree/navigate.rs\00", align 1
@alloc_1df1e5171bffdf21494df69d159bd444 = private unnamed_addr constant <{ ptr, [16 x i8] }> <{ ptr @alloc_69009fdc319497586282719e739ab5f8, [16 x i8] c"\87\00\00\00\00\00\00\00\C6\00\00\00'\00\00\00" }>, align 8
@alloc_7fe94be2e120ffbd80c490b1b3c481ee = private unnamed_addr constant [120 x i8] c"/Users/hongyaotang/.rustup/toolchains/nightly-aarch64-apple-darwin/lib/rustlib/src/rust/library/core/src/str/pattern.rs\00", align 1
@alloc_3c3a438693b52af6c6b31c2cc77620da = private unnamed_addr constant <{ ptr, [16 x i8] }> <{ ptr @alloc_7fe94be2e120ffbd80c490b1b3c481ee, [16 x i8] c"w\00\00\00\00\00\00\00\E4\05\00\00\14\00\00\00" }>, align 8
@alloc_759b6db6182a2ae5f8169b55f322d553 = private unnamed_addr constant <{ ptr, [16 x i8] }> <{ ptr @alloc_7fe94be2e120ffbd80c490b1b3c481ee, [16 x i8] c"w\00\00\00\00\00\00\00\E4\05\00\00!\00\00\00" }>, align 8
@alloc_cfc145f12794171662ae0bd5e97799ce = private unnamed_addr constant <{ ptr, [16 x i8] }> <{ ptr @alloc_7fe94be2e120ffbd80c490b1b3c481ee, [16 x i8] c"w\00\00\00\00\00\00\00\D8\05\00\00!\00\00\00" }>, align 8
@vtable.0 = private unnamed_addr constant <{ [24 x i8], ptr, ptr, ptr }> <{ [24 x i8] c"\00\00\00\00\00\00\00\00\08\00\00\00\00\00\00\00\08\00\00\00\00\00\00\00", ptr @_RNSNvYNCINvNtCs5sEH5CPMdak_3std2rt10lang_startuE0INtNtNtCsjMrxcFdYDNN_4core3ops8function6FnOnceuE9call_once6vtableCslwKqnJYeWCA_18build_script_build, ptr @_RNCINvNtCs5sEH5CPMdak_3std2rt10lang_startuE0CslwKqnJYeWCA_18build_script_build, ptr @_RNCINvNtCs5sEH5CPMdak_3std2rt10lang_startuE0CslwKqnJYeWCA_18build_script_build }>, align 8
@alloc_c7175637917997c04b44e3b2099eecca = private unnamed_addr constant [113 x i8] c"/Users/hongyaotang/.rustup/toolchains/nightly-aarch64-apple-darwin/lib/rustlib/src/rust/library/alloc/src/str.rs\00", align 1
@alloc_3f2fbfdca196a5b824209b380ee7ae1b = private unnamed_addr constant <{ ptr, [16 x i8] }> <{ ptr @alloc_c7175637917997c04b44e3b2099eecca, [16 x i8] c"p\00\00\00\00\00\00\00\B1\00\00\00\16\00\00\00" }>, align 8
@alloc_ca673fb95acb8e58af271999e89294ae = private unnamed_addr constant [53 x i8] c"attempt to join into collection with len > usize::MAX", align 1
@alloc_60488e92c3d9250777708a132d567f7b = private unnamed_addr constant <{ ptr, [16 x i8] }> <{ ptr @alloc_c7175637917997c04b44e3b2099eecca, [16 x i8] c"p\00\00\00\00\00\00\00\9A\00\00\00\0A\00\00\00" }>, align 8
@alloc_93816f04728d387347072ad30618ff9c = private unnamed_addr constant <{ ptr, [16 x i8] }> <{ ptr @alloc_69009fdc319497586282719e739ab5f8, [16 x i8] c"\87\00\00\00\00\00\00\00X\02\00\000\00\00\00" }>, align 8
@alloc_1d8e296db13ccc3871d7443d7beb0b2f = private unnamed_addr constant [14 x i8] c"LLVM version: ", align 1
@alloc_ed740c9299d7724b54ca9f50b8396b41 = private unnamed_addr constant [13 x i8] c"commit-date: ", align 1
@alloc_0c3cbb61e273e9decf597461734e2fad = private unnamed_addr constant [5 x i8] c"thumb", align 1
@alloc_3e61858716336dfbf74d71ab75462972 = private unnamed_addr constant [6 x i8] c"apple-", align 1
@alloc_b7185c5006b7edc9741130ed35f40cf6 = private unnamed_addr constant [9 x i8] c"release: ", align 1
@alloc_c522aef10584118522ad11d67bba8829 = private unnamed_addr constant [106 x i8] c"/Users/hongyaotang/.cargo/registry/src/index.crates.io-1949cf8c6b5b557f/portable-atomic-1.11.1/version.rs\00", align 1
@alloc_954cd85162064372f588eb6b0cd0c8e9 = private unnamed_addr constant <{ ptr, [16 x i8] }> <{ ptr @alloc_c522aef10584118522ad11d67bba8829, [16 x i8] c"i\00\00\00\00\00\00\00U\00\00\00\22\00\00\00" }>, align 8
@alloc_dda1ee2b88b89b9cdac753eef7988035 = private unnamed_addr constant [1 x i8] c"0", align 1
@alloc_5a70f0d82a4daf23c5a2b55427a97995 = private unnamed_addr constant <{ ptr, [16 x i8] }> <{ ptr @alloc_c522aef10584118522ad11d67bba8829, [16 x i8] c"i\00\00\00\00\00\00\00d\00\00\00&\00\00\00" }>, align 8
@alloc_07f3eec4949a8d39db630a4a477c65b3 = private unnamed_addr constant [23 x i8] c"CARGO_ENCODED_RUSTFLAGS", align 1
@alloc_13ae1be13e6486d5c310a371cde21787 = private unnamed_addr constant [2 x i8] c"-C", align 1
@alloc_28b6e12cbb2608b0ebceb37ca6d5945a = private unnamed_addr constant [11 x i8] c"target-cpu=", align 1
@alloc_987495d299690d318d890dac34727c75 = private unnamed_addr constant [104 x i8] c"/Users/hongyaotang/.cargo/registry/src/index.crates.io-1949cf8c6b5b557f/portable-atomic-1.11.1/build.rs\00", align 1
@alloc_b9a6efcfeb17b646c43fe2783a9632a7 = private unnamed_addr constant <{ ptr, [16 x i8] }> <{ ptr @alloc_987495d299690d318d890dac34727c75, [16 x i8] c"g\00\00\00\00\00\00\00%\02\00\00$\00\00\00" }>, align 8
@alloc_dd8815cdae13b8c8aeb9b9be3f3d7a26 = private unnamed_addr constant [11 x i8] c"RUSTC_STAGE", align 1
@alloc_9bc7f23b9f8ca5426d0539d95c9ebfc5 = private unnamed_addr constant [2 x i8] c"-Z", align 1
@alloc_3f5a3f432cc037101cfa0283db269c57 = private unnamed_addr constant [15 x i8] c"allow-features=", align 1
@alloc_b6e2898a10ad3df62e798ba959034459 = private unnamed_addr constant [15 x i8] c"target-feature=", align 1
@alloc_1545dd372b2bbe07420f0d25b9c1ecbe = private unnamed_addr constant [54 x i8] c"0cargo:rustc-cfg=portable_atomic_target_feature=\22\C0\02\22\0A\00", align 1
@alloc_70a1e7dc3879e83c39c209c1ae5f1722 = private unnamed_addr constant [5 x i8] c"linux", align 1
@alloc_14c43fe6be9850e9c6ac099b83b2e4e2 = private unnamed_addr constant [7 x i8] c"unknown", align 1
@alloc_742f06589122110502429e832b81e8bd = private unnamed_addr constant [32 x i8] c"cargo:rerun-if-changed=build.rs\0A", align 1
@alloc_8724dc04cf16cdfa205f2534ce59cc5f = private unnamed_addr constant [40 x i8] c"cargo:rerun-if-changed=src/gen/build.rs\0A", align 1
@alloc_9529fcb5bab6980e7c00a1d3aa85ad20 = private unnamed_addr constant [34 x i8] c"cargo:rerun-if-changed=version.rs\0A", align 1
@alloc_dcbc225a8ec7dbfaaef714ff8a7176fb = private unnamed_addr constant [6 x i8] c"TARGET", align 1
@alloc_1f011f14125487663894f05c404929a9 = private unnamed_addr constant [14 x i8] c"TARGET not set", align 1
@alloc_84ab129184af97b3019d993fd0b7c805 = private unnamed_addr constant <{ ptr, [16 x i8] }> <{ ptr @alloc_987495d299690d318d890dac34727c75, [16 x i8] c"g\00\00\00\00\00\00\00\1E\00\00\00'\00\00\00" }>, align 8
@alloc_0d3bcf6fb685f000bc18304ea76cbac4 = private unnamed_addr constant [21 x i8] c"CARGO_CFG_TARGET_ARCH", align 1
@alloc_86b01a9b169de421b373ac989e740d38 = private unnamed_addr constant [29 x i8] c"CARGO_CFG_TARGET_ARCH not set", align 1
@alloc_453d9fa5d8e2ccad25a908c230c60eb0 = private unnamed_addr constant <{ ptr, [16 x i8] }> <{ ptr @alloc_987495d299690d318d890dac34727c75, [16 x i8] c"g\00\00\00\00\00\00\00\1F\00\00\00;\00\00\00" }>, align 8
@alloc_aa4687de82972c6f88dd4ebd068e3b63 = private unnamed_addr constant [19 x i8] c"CARGO_CFG_TARGET_OS", align 1
@alloc_b7c7e69e15013ee480a39c67f380d6cc = private unnamed_addr constant [27 x i8] c"CARGO_CFG_TARGET_OS not set", align 1
@alloc_57f734e358c6dd0a67f2db5255d1a5b4 = private unnamed_addr constant <{ ptr, [16 x i8] }> <{ ptr @alloc_987495d299690d318d890dac34727c75, [16 x i8] c"g\00\00\00\00\00\00\00 \00\00\007\00\00\00" }>, align 8
@alloc_0afe6f0504dd6bb7e0912d0ebba4969c = private unnamed_addr constant [29 x i8] c"PORTABLE_ATOMIC_DENY_WARNINGS", align 1
@alloc_c6d8f7bad6fe84b0a1fb1ad39cccc87c = private unnamed_addr constant [33 x i8] c"unable to determine rustc version", align 1
@alloc_f56fcc3b591a05dcb59c62f94980d9e5 = private unnamed_addr constant <{ ptr, [16 x i8] }> <{ ptr @alloc_987495d299690d318d890dac34727c75, [16 x i8] c"g\00\00\00\00\00\00\00&\00\00\00\11\00\00\00" }>, align 8
@alloc_2f2a7b3b6dd8e6a4ec2f251266b0daff = private unnamed_addr constant <{ [13 x i8], [3 x i8] }> <{ [13 x i8] c"W\00\00\00\00\00\00\00\12\00\00\00\00", [3 x i8] undef }>, align 4
@alloc_9b5fa806b1b67f7699cdf95aedfa7081 = private unnamed_addr constant [104 x i8] c"bcargo:warning=portable-atomic: unable to determine rustc version; assuming latest stable rustc (1.\C0\02)\0A\00", align 1
@alloc_092aad2bc9b61c4864788da0a3d09052 = private unnamed_addr constant [143 x i8] c"cargo:rustc-check-cfg=cfg(target_feature,values(\22lsfe\22,\22fast-serialization\22,\22load-store-on-cond\22,\22distinct-ops\22,\22miscellaneous-extensions-3\22))\0A", align 1
@alloc_3c9e784e7e4614c4b58cf1fcdd1319d2 = private unnamed_addr constant [1227 x i8] c"cargo:rustc-check-cfg=cfg(portable_atomic_disable_fiq,portable_atomic_force_amo,portable_atomic_ll_sc_rmw,portable_atomic_atomic_intrinsics,portable_atomic_no_asm,portable_atomic_no_asm_maybe_uninit,portable_atomic_no_atomic_64,portable_atomic_no_atomic_cas,portable_atomic_no_atomic_load_store,portable_atomic_no_atomic_min_max,portable_atomic_no_cfg_target_has_atomic,portable_atomic_no_cmpxchg16b_intrinsic,portable_atomic_no_cmpxchg16b_target_feature,portable_atomic_no_const_mut_refs,portable_atomic_no_const_raw_ptr_deref,portable_atomic_no_const_transmute,portable_atomic_no_core_unwind_safe,portable_atomic_no_diagnostic_namespace,portable_atomic_no_offset_of,portable_atomic_no_strict_provenance,portable_atomic_no_stronger_failure_ordering,portable_atomic_no_track_caller,portable_atomic_no_unsafe_op_in_unsafe_fn,portable_atomic_pre_llvm_15,portable_atomic_pre_llvm_16,portable_atomic_pre_llvm_18,portable_atomic_pre_llvm_20,portable_atomic_s_mode,portable_atomic_sanitize_thread,portable_atomic_target_feature,portable_atomic_unsafe_assume_single_core,portable_atomic_unstable_asm,portable_atomic_unstable_asm_experimental_arch,portable_atomic_unstable_cfg_target_has_atomic,portable_atomic_unstable_isa_attribute)\0A", align 1
@alloc_9870bcf023b2efb7b8b18a97902cd1ef = private unnamed_addr constant [259 x i8] c"cargo:rustc-check-cfg=cfg(portable_atomic_target_feature,values(\22cmpxchg16b\22,\22distinct-ops\22,\22fast-serialization\22,\22load-store-on-cond\22,\22lse\22,\22lse128\22,\22lse2\22,\22lsfe\22,\22mclass\22,\22miscellaneous-extensions-3\22,\22quadword-atomics\22,\22rcpc3\22,\22v6\22,\22zaamo\22,\22zabha\22,\22zacas\22))\0A", align 1
@alloc_d47a354a607bf77ebae5daba39357d52 = private unnamed_addr constant [51 x i8] c"cargo:rerun-if-env-changed=CARGO_ENCODED_RUSTFLAGS\0A", align 1
@alloc_26aa35ac1fd69f511512a9380c2223a9 = private unnamed_addr constant [37 x i8] c"cargo:rerun-if-env-changed=RUSTFLAGS\0A", align 1
@alloc_5cdf6a79c62811efa8c483f97a5cc917 = private unnamed_addr constant [49 x i8] c"cargo:rerun-if-env-changed=CARGO_BUILD_RUSTFLAGS\0A", align 1
@alloc_c22f04a0140b0ae1314c125358058abd = private unnamed_addr constant [55 x i8] c"(cargo:rerun-if-env-changed=CARGO_TARGET_\C0\0B_RUSTFLAGS\0A\00", align 1
@alloc_1fed9b908bc75f0483fa23e0a5540e7b = private unnamed_addr constant [50 x i8] c"cargo:rustc-cfg=portable_atomic_no_atomic_min_max\0A", align 1
@alloc_ad12ff8fc6e049ff439008f27922a354 = private unnamed_addr constant [48 x i8] c"cargo:rustc-cfg=portable_atomic_no_track_caller\0A", align 1
@alloc_c1341c958305d557d0587cd9fe34f2c5 = private unnamed_addr constant [58 x i8] c"cargo:rustc-cfg=portable_atomic_no_unsafe_op_in_unsafe_fn\0A", align 1
@alloc_6833eaf1a79a5bbdf426dcbf1dc565a9 = private unnamed_addr constant [51 x i8] c"cargo:rustc-cfg=portable_atomic_no_const_transmute\0A", align 1
@alloc_4eea02266a7f159030b82ab70c4915d3 = private unnamed_addr constant [52 x i8] c"cargo:rustc-cfg=portable_atomic_no_core_unwind_safe\0A", align 1
@alloc_36b7da1b4ea2bacdb83a39b716c9e7e2 = private unnamed_addr constant [55 x i8] c"cargo:rustc-cfg=portable_atomic_no_const_raw_ptr_deref\0A", align 1
@alloc_11a9245b51bd70ca041d4c95e4e22ec5 = private unnamed_addr constant [61 x i8] c"cargo:rustc-cfg=portable_atomic_no_stronger_failure_ordering\0A", align 1
@alloc_42144296fbd1e57a517c011ba5e34db7 = private unnamed_addr constant [52 x i8] c"cargo:rustc-cfg=portable_atomic_no_asm_maybe_uninit\0A", align 1
@alloc_5d94a3a01eeede3af4fbbee4226859e6 = private unnamed_addr constant [45 x i8] c"cargo:rustc-cfg=portable_atomic_no_offset_of\0A", align 1
@alloc_5831c002d8b741107bcdaec0fae41316 = private unnamed_addr constant [56 x i8] c"cargo:rustc-cfg=portable_atomic_no_diagnostic_namespace\0A", align 1
@alloc_2e9b5516734e64b9676c629692898b2f = private unnamed_addr constant [50 x i8] c"cargo:rustc-cfg=portable_atomic_no_const_mut_refs\0A", align 1
@alloc_638a7631d4f759bf1aef9d06869234dd = private unnamed_addr constant [53 x i8] c"cargo:rustc-cfg=portable_atomic_no_strict_provenance\0A", align 1
@alloc_fa1130f2f45123ef906740f12b430906 = private unnamed_addr constant [9 x i8] c"powerpc64", align 1
@alloc_2c4353bbb852c5a5c07b390c882774d5 = private unnamed_addr constant [50 x i8] c"cargo:rustc-cfg=portable_atomic_atomic_intrinsics\0A", align 1
@alloc_77091ef4013986fd40216f126dabc12f = private unnamed_addr constant [7 x i8] c"arm64ec", align 1
@alloc_5a449a0bdb20d0cd84a204297ad784b7 = private unnamed_addr constant [5 x i8] c"s390x", align 1
@alloc_d56840a3539592a0b21e632750debc01 = private unnamed_addr constant [21 x i8] c"asm_experimental_arch", align 1
@alloc_a416d606bb0533c9dea6d062122086f5 = private unnamed_addr constant [63 x i8] c"cargo:rustc-cfg=portable_atomic_unstable_asm_experimental_arch\0A", align 1
@alloc_4a7c5e08e7b916cb34cb4d73d8036fc8 = private unnamed_addr constant [39 x i8] c"cargo:rustc-cfg=portable_atomic_no_asm\0A", align 1
@alloc_fba164e1a5f38e2d8018bcf65720d955 = private unnamed_addr constant [3 x i8] c"x86", align 1
@alloc_4a29a4faa0904cd7ff982831f2813e90 = private unnamed_addr constant [6 x i8] c"x86_64", align 1
@alloc_fb30e4df55a4a7c53eb78eab864290eb = private unnamed_addr constant [3 x i8] c"asm", align 1
@alloc_1406cfd7adf5bf37af423094d906069c = private unnamed_addr constant [45 x i8] c"cargo:rustc-cfg=portable_atomic_unstable_asm\0A", align 1
@alloc_50c6ea2673204147b4c7c6266b4cb1e4 = private unnamed_addr constant [21 x i8] c"cfg_target_has_atomic", align 1
@alloc_2c12234dbe8e690864c2c0a679e3cd05 = private unnamed_addr constant [57 x i8] c"cargo:rustc-cfg=portable_atomic_no_cfg_target_has_atomic\0A", align 1
@alloc_0a8846dfe80e6e9ba5109a5921697c29 = private unnamed_addr constant [46 x i8] c"cargo:rustc-cfg=portable_atomic_no_atomic_cas\0A", align 1
@alloc_8e16d26229e79ba7f22bd47d524058bd = private unnamed_addr constant [45 x i8] c"cargo:rustc-cfg=portable_atomic_no_atomic_64\0A", align 1
@alloc_9e6ac5f3f7d9693fbc40f6727b337014 = private unnamed_addr constant [63 x i8] c"cargo:rustc-cfg=portable_atomic_unstable_cfg_target_has_atomic\0A", align 1
@alloc_f0dd653f0ec1ecef8fb1fc4d13d313c0 = private unnamed_addr constant [53 x i8] c"cargo:rustc-cfg=portable_atomic_no_atomic_load_store\0A", align 1
@alloc_94cefc1b63dffcfbd691138662a4abf1 = private unnamed_addr constant [44 x i8] c"cargo:rustc-cfg=portable_atomic_pre_llvm_20\0A", align 1
@alloc_d611028f9649b3783e472c0e81960e47 = private unnamed_addr constant [44 x i8] c"cargo:rustc-cfg=portable_atomic_pre_llvm_18\0A", align 1
@alloc_9050225349f21addcf6eebdb0ba383e4 = private unnamed_addr constant [44 x i8] c"cargo:rustc-cfg=portable_atomic_pre_llvm_16\0A", align 1
@alloc_8d616064d0ee2b338ed7caf95f46cce6 = private unnamed_addr constant [44 x i8] c"cargo:rustc-cfg=portable_atomic_pre_llvm_15\0A", align 1
@alloc_1bde45392581cd9043bc066293d5f001 = private unnamed_addr constant [18 x i8] c"CARGO_CFG_SANITIZE", align 1
@alloc_0ccf5eeb19a73b85efabd846cfd6625c = private unnamed_addr constant [6 x i8] c"thread", align 1
@alloc_d1324d222df80959476a7b359dea6188 = private unnamed_addr constant [48 x i8] c"cargo:rustc-cfg=portable_atomic_sanitize_thread\0A", align 1
@alloc_708437d7a9a3b1bed2b2fbb27ca99947 = private unnamed_addr constant [7 x i8] c"aarch64", align 1
@alloc_d9036dbef1cc78d0c3562113c2babf56 = private unnamed_addr constant [3 x i8] c"arm", align 1
@alloc_82a51f3810ec0ab0cde96eb28e0a8f16 = private unnamed_addr constant [7 x i8] c"riscv32", align 1
@alloc_f566f2e0543c30db53174190aea17def = private unnamed_addr constant [7 x i8] c"riscv64", align 1
@alloc_fcc17c744c1d97967e2fd259ede87770 = private unnamed_addr constant [4 x i8] c"arch", align 1
@alloc_6381f5c37a2a38a20bd4bf05e9496d96 = private unnamed_addr constant [4 x i8] c"z196", align 1
@alloc_2a818f10c905893af1e371c88f7d0169 = private unnamed_addr constant [5 x i8] c"zEC12", align 1
@alloc_fb3f24020003f3819dcc1e59fb1e917c = private unnamed_addr constant [3 x i8] c"z13", align 1
@alloc_3cb0e3a0d99149dd91748ce9aa02491e = private unnamed_addr constant [3 x i8] c"z14", align 1
@alloc_b287530f63e31393d0bcb611dd2ef350 = private unnamed_addr constant [3 x i8] c"z15", align 1
@alloc_6d1d74389733cf20cb433539a0c6ad2d = private unnamed_addr constant [3 x i8] c"z16", align 1
@alloc_1b0f75a7cb5e484bd78be04806919b14 = private unnamed_addr constant [18 x i8] c"fast-serialization", align 1
@alloc_b685305cf7511b16b4281b53804013c9 = private unnamed_addr constant [18 x i8] c"load-store-on-cond", align 1
@alloc_fb9a0f244e913c69309d6ba532bf7b0c = private unnamed_addr constant [12 x i8] c"distinct-ops", align 1
@alloc_d66b25e4b56c5d1a43b7571f92983e4a = private unnamed_addr constant [26 x i8] c"miscellaneous-extensions-3", align 1
@alloc_ac7dbe20bf8ff4864d2af9d0f6d43781 = private unnamed_addr constant [3 x i8] c"pwr", align 1
@alloc_599e99bb598e572a5316e19a07ba6538 = private unnamed_addr constant [6 x i8] c"future", align 1
@alloc_34414b8d2a3366cb3bf8126f7ed8d762 = private unnamed_addr constant [7 x i8] c"ppc64le", align 1
@alloc_0fa298ef16b44f409ee8019af1deb36d = private unnamed_addr constant [23 x i8] c"CARGO_CFG_TARGET_ENDIAN", align 1
@alloc_48b8864556065fe7b21fa91d6bd43bb1 = private unnamed_addr constant [31 x i8] c"CARGO_CFG_TARGET_ENDIAN not set", align 1
@alloc_766b25183a26c8232979e8e97ad1aa67 = private unnamed_addr constant <{ ptr, [16 x i8] }> <{ ptr @alloc_987495d299690d318d890dac34727c75, [16 x i8] c"g\00\00\00\00\00\00\00\98\01\00\00\1A\00\00\00" }>, align 8
@alloc_4ab12fe6a700d822e8674db3fe2ff0c9 = private unnamed_addr constant [6 x i8] c"little", align 1
@alloc_42a2d297b45bdf881e84f224970518a9 = private unnamed_addr constant [16 x i8] c"quadword-atomics", align 1
@alloc_5a97a820ee50c370898f0445e27bf764 = private unnamed_addr constant [5 x i8] c"zacas", align 1
@alloc_1f93ada5207dde6875e7ab77a5bb8dbe = private unnamed_addr constant [5 x i8] c"zabha", align 1
@alloc_9e015abacf20cb399b4f0a804bc0e15e = private unnamed_addr constant [5 x i8] c"zaamo", align 1
@alloc_983b9f659255e384bca2078a0c05baf3 = private unnamed_addr constant [55 x i8] c"cargo:rustc-cfg=portable_atomic_unstable_isa_attribute\0A", align 1
@alloc_9808848e4b0f0dfce430f2ce907c2ec4 = private unnamed_addr constant <{ ptr, [16 x i8] }> <{ ptr @alloc_987495d299690d318d890dac34727c75, [16 x i8] c"g\00\00\00\00\00\00\00>\01\00\00[\00\00\00" }>, align 8
@alloc_5d5c3f5b03c6d3586ba34aa6bd6df864 = private unnamed_addr constant [2 x i8] c"eb", align 1
@alloc_ee08f4448ec37f2c785795512d1d6371 = private unnamed_addr constant <{ ptr, [16 x i8] }> <{ ptr @alloc_987495d299690d318d890dac34727c75, [16 x i8] c"g\00\00\00\00\00\00\00@\01\00\005\00\00\00" }>, align 8
@alloc_b0cad33fb230cb36b707608c08d32517 = private unnamed_addr constant <{ ptr, [16 x i8] }> <{ ptr @alloc_987495d299690d318d890dac34727c75, [16 x i8] c"g\00\00\00\00\00\00\00A\01\00\005\00\00\00" }>, align 8
@alloc_b655ffc265eabd5b7c4618f72368ce58 = private unnamed_addr constant [2 x i8] c"v7", align 1
@alloc_876e28ca4ef18e92a168b8b6c0258020 = private unnamed_addr constant [3 x i8] c"v7a", align 1
@alloc_3871c7a1d848c9c811d08e9ba480e39d = private unnamed_addr constant [6 x i8] c"v7neon", align 1
@alloc_8a148dfbf624d86ad479275878ea55de = private unnamed_addr constant [3 x i8] c"v7s", align 1
@alloc_620d80f9f3d64bd5a4c2be88c9b298d5 = private unnamed_addr constant [3 x i8] c"v7k", align 1
@alloc_98dd345a480634a67ab490269b3092e8 = private unnamed_addr constant [2 x i8] c"v8", align 1
@alloc_8bc0c6258d5b796bc8931ca41d054010 = private unnamed_addr constant [3 x i8] c"v8a", align 1
@alloc_766309e861a41c77d8e1ec8d2bf7d3d1 = private unnamed_addr constant [2 x i8] c"v9", align 1
@alloc_731bb66c58a2091aa6837f3ec33ccbd0 = private unnamed_addr constant [3 x i8] c"v9a", align 1
@alloc_46d8ec96465309b380b25451978e5b89 = private unnamed_addr constant [3 x i8] c"v7r", align 1
@alloc_8e5d4739a815f492da01ca41d793f679 = private unnamed_addr constant [3 x i8] c"v8r", align 1
@alloc_896376205399067eda0bb4872a2b2e1a = private unnamed_addr constant [3 x i8] c"v9r", align 1
@alloc_39d6b4d2e142be3718c9abbba15e676b = private unnamed_addr constant [3 x i8] c"v6m", align 1
@alloc_6f0318d77bf4620e64f2b718a0fed714 = private unnamed_addr constant [4 x i8] c"v7em", align 1
@alloc_6fe9401313774126d244c9df8f281e77 = private unnamed_addr constant [3 x i8] c"v7m", align 1
@alloc_094ba35790031d8096d74b82ea129258 = private unnamed_addr constant [3 x i8] c"v8m", align 1
@alloc_7ef794223a3c79a90832fd404d7462c3 = private unnamed_addr constant [21 x i8] c"arm-linux-androideabi", align 1
@alloc_efe094782a10f2611a22702571dbac01 = private unnamed_addr constant [27 x i8] c"armeb-unknown-linux-gnueabi", align 1
@alloc_e01da671082aa58f6e6c733a052567ea = private unnamed_addr constant [3 x i8] c"v4t", align 1
@alloc_cc3bb8f2b93f3b6ad6e65fe09616c7dd = private unnamed_addr constant [4 x i8] c"v5te", align 1
@alloc_6785c718eb5d42ff6741fe7de88e57ea = private unnamed_addr constant [2 x i8] c"v6", align 1
@alloc_c8a1a35b0978064484413724586714e9 = private unnamed_addr constant [3 x i8] c"v6k", align 1
@alloc_fbcccdd8daac3e36c025f53437f4178b = private unnamed_addr constant [29 x i8] c"\1Aunrecognized Arm subarch: \C0\00", align 1
@alloc_83de034d7ccdc84ce78692abaea10898 = private unnamed_addr constant <{ ptr, [16 x i8] }> <{ ptr @alloc_987495d299690d318d890dac34727c75, [16 x i8] c"g\00\00\00\00\00\00\00U\01\00\00\1D\00\00\00" }>, align 8
@alloc_cf6e7c65e8353dc4e21daa402c81c63c = private unnamed_addr constant [62 x i8] c"9cargo:warning=portable-atomic: unrecognized Arm subarch: \C0\01\0A\00", align 1
@alloc_da78d7c202eb238c4cdf0045a21de1ef = private unnamed_addr constant [6 x i8] c"mclass", align 1
@alloc_8a32b15b0e78e52f3e29895e5f677744 = private unnamed_addr constant [5 x i8] c"macos", align 1
@alloc_ff4976f557f9331cf80413f038ea83af = private unnamed_addr constant [4 x i8] c"lse2", align 1
@alloc_96fd63ed221128cfefca2794b4bdbd59 = private unnamed_addr constant [6 x i8] c"lse128", align 1
@alloc_d21745838991a4cb2caa18b5ddb8dc43 = private unnamed_addr constant [5 x i8] c"rcpc3", align 1
@alloc_e3abda62d4f863fc9e691690c373f274 = private unnamed_addr constant [3 x i8] c"lse", align 1
@alloc_d1ae99d9a9853d638c28f3dedea5a4ac = private unnamed_addr constant [4 x i8] c"lsfe", align 1
@alloc_43a58bdcc2572eb4426ba7ac54f3fdc3 = private unnamed_addr constant [23 x i8] c"CARGO_CFG_TARGET_VENDOR", align 1
@alloc_f5fa10d2bd50b965d2515db045847aab = private unnamed_addr constant [5 x i8] c"apple", align 1
@alloc_236339e905ce8c9e5823d1ccff1bb370 = private unnamed_addr constant [42 x i8] c"cargo:rustc-cfg=portable_atomic_ll_sc_rmw\0A", align 1
@alloc_ee297b014715a704a78587d10e2d5209 = private unnamed_addr constant [61 x i8] c"cargo:rustc-cfg=portable_atomic_no_cmpxchg16b_target_feature\0A", align 1
@alloc_e1f6422a9d16410b776670e5fce196a5 = private unnamed_addr constant [56 x i8] c"cargo:rustc-cfg=portable_atomic_no_cmpxchg16b_intrinsic\0A", align 1
@alloc_79633b065602e14b572fa6ec5d7a5307 = private unnamed_addr constant [10 x i8] c"cmpxchg16b", align 1
@alloc_d1084648e479974e70c9329824bf76f9 = private unnamed_addr constant [9 x i8] c"mid > len", align 1
@vtable.1 = private unnamed_addr constant <{ ptr, [16 x i8], ptr }> <{ ptr @_RINvNtCsjMrxcFdYDNN_4core3ptr13drop_in_placeNtNtCs5sEH5CPMdak_3std3env8VarErrorECslwKqnJYeWCA_18build_script_build, [16 x i8] c"\18\00\00\00\00\00\00\00\08\00\00\00\00\00\00\00", ptr @_RNvXsk_NtCs5sEH5CPMdak_3std3envNtB5_8VarErrorNtNtCsjMrxcFdYDNN_4core3fmt5Debug3fmt }>, align 8
@alloc_1a49731e8f6ceed5b16a30308d388517 = private unnamed_addr constant <{ ptr, [16 x i8] }> <{ ptr @alloc_c522aef10584118522ad11d67bba8829, [16 x i8] c"i\00\00\00\00\00\00\00?\00\00\00\1E\00\00\00" }>, align 8
@alloc_c6e9e0ae8c6937b3491e661c604ec907 = private unnamed_addr constant <{ ptr, [16 x i8] }> <{ ptr @alloc_c522aef10584118522ad11d67bba8829, [16 x i8] c"i\00\00\00\00\00\00\00A\00\00\00&\00\00\00" }>, align 8
@alloc_d563101362ed4a06747b9210d55c4c5b = private unnamed_addr constant [15 x i8] c"RUSTC_BOOTSTRAP", align 1
@alloc_24b05860d599286ecb26af7d40c66ae9 = private unnamed_addr constant [2 x i8] c"-1", align 1
@alloc_22ec252afd5f5781ca8ee9b115d4a0d6 = private unnamed_addr constant [7 x i8] c"nightly", align 1
@alloc_12dcbe319bdb437b2d068742d0ee3321 = private unnamed_addr constant [3 x i8] c"dev", align 1
@alloc_806c1ac911172019779ceab530bc1f0e = private unnamed_addr constant [5 x i8] c"RUSTC", align 1
@alloc_f36ce88bd5d4a921175f5521f484b675 = private unnamed_addr constant [13 x i8] c"RUSTC_WRAPPER", align 1
@alloc_9994c89853702f537928cd873913af0d = private unnamed_addr constant [3 x i8] c"-vV", align 1
@alloc_60041a2996b9889a1b040c54c616ffa4 = private unnamed_addr constant [18 x i8] c"armebv7r-none-eabi", align 1
@alloc_fc4b0cb0b48da575f740f3b061247e0f = private unnamed_addr constant [20 x i8] c"armebv7r-none-eabihf", align 1
@alloc_3e1a5023273d14d3525522c2099080bd = private unnamed_addr constant [28 x i8] c"armv4t-unknown-linux-gnueabi", align 1
@alloc_d854eb1f96568158508a1fe06acc479b = private unnamed_addr constant [29 x i8] c"armv5te-unknown-linux-gnueabi", align 1
@alloc_ab31f0ee4c349cacd5df9f59f007a5ed = private unnamed_addr constant [30 x i8] c"armv5te-unknown-linux-musleabi", align 1
@alloc_82d439c4b4b9541b054ad05c5b792d5a = private unnamed_addr constant [32 x i8] c"armv5te-unknown-linux-uclibceabi", align 1
@alloc_c1e04960e461045b24da3143b9bbe57e = private unnamed_addr constant [19 x i8] c"armv6k-nintendo-3ds", align 1
@alloc_828ae20c2ae220c38b3245d3e4d32e82 = private unnamed_addr constant [16 x i8] c"armv7r-none-eabi", align 1
@alloc_7b4c0892dcb20ad38838433c6bd13c7a = private unnamed_addr constant [18 x i8] c"armv7r-none-eabihf", align 1
@alloc_073a41cfae022637d06fd85a5e605fab = private unnamed_addr constant [25 x i8] c"avr-unknown-gnu-atmega328", align 1
@alloc_077b257855cc8302e2e37029c956e3c3 = private unnamed_addr constant [26 x i8] c"hexagon-unknown-linux-musl", align 1
@alloc_9bc964707defe2160c729e1bb0b7c1e9 = private unnamed_addr constant [22 x i8] c"m68k-unknown-linux-gnu", align 1
@alloc_22b33466e0dd64c3b2e2ee15ff8d195c = private unnamed_addr constant [22 x i8] c"mips-unknown-linux-gnu", align 1
@alloc_3f54fddd3386141ea42568fa33ba0fc0 = private unnamed_addr constant [23 x i8] c"mips-unknown-linux-musl", align 1
@alloc_53bb287215d6b7ca5d0e83638974f2dc = private unnamed_addr constant [25 x i8] c"mips-unknown-linux-uclibc", align 1
@alloc_670ec80a76e3dda8c0e4bb964f752aae = private unnamed_addr constant [15 x i8] c"mipsel-sony-psp", align 1
@alloc_4275caebb106965f8ef5bb2811245ced = private unnamed_addr constant [24 x i8] c"mipsel-unknown-linux-gnu", align 1
@alloc_a306aa267a229f9192f581f5c4b3f8a5 = private unnamed_addr constant [25 x i8] c"mipsel-unknown-linux-musl", align 1
@alloc_5b2e73936d9ed25120ae3cd1b1d86750 = private unnamed_addr constant [27 x i8] c"mipsel-unknown-linux-uclibc", align 1
@alloc_addf2b8c5bb0c785f64e828bb16710c9 = private unnamed_addr constant [19 x i8] c"mipsel-unknown-none", align 1
@alloc_f92ab8510275e5e42dd14554da4d5f0d = private unnamed_addr constant [29 x i8] c"mipsisa32r6-unknown-linux-gnu", align 1
@alloc_0c0bdd2040e1d3b535a15670bed8e2ee = private unnamed_addr constant [31 x i8] c"mipsisa32r6el-unknown-linux-gnu", align 1
@alloc_9a3299e3caae06e665af83a2a067eb68 = private unnamed_addr constant [15 x i8] c"msp430-none-elf", align 1
@alloc_5e3a4f7a117d2e7bbe7456c524bb0006 = private unnamed_addr constant [23 x i8] c"powerpc-unknown-freebsd", align 1
@alloc_edfd6be1acee3e3854f172faab285c38 = private unnamed_addr constant [25 x i8] c"powerpc-unknown-linux-gnu", align 1
@alloc_1f2300ead6011ba2b5b331f2b76eb516 = private unnamed_addr constant [28 x i8] c"powerpc-unknown-linux-gnuspe", align 1
@alloc_baac72b63c55b5842a31e2c00a7d0883 = private unnamed_addr constant [26 x i8] c"powerpc-unknown-linux-musl", align 1
@alloc_0d8d35c4ec871ff7e6c083e1cc59762d = private unnamed_addr constant [22 x i8] c"powerpc-unknown-netbsd", align 1
@alloc_ad7f1342255ebef4377308b28b295ab3 = private unnamed_addr constant [23 x i8] c"powerpc-unknown-openbsd", align 1
@alloc_4c78f2281b95c444848389f653bfe1aa = private unnamed_addr constant [19 x i8] c"powerpc-wrs-vxworks", align 1
@alloc_2e417c01fc50dde593c75f17df443aac = private unnamed_addr constant [23 x i8] c"powerpc-wrs-vxworks-spe", align 1
@alloc_ba03a0b15f58439199c9c1fb605fb91b = private unnamed_addr constant [27 x i8] c"riscv32gc-unknown-linux-gnu", align 1
@alloc_1689bd3b01b5acc98a70228e04d83498 = private unnamed_addr constant [28 x i8] c"riscv32gc-unknown-linux-musl", align 1
@alloc_ecbfecbf042f5d02ed1d945b2da736d2 = private unnamed_addr constant [25 x i8] c"riscv32i-unknown-none-elf", align 1
@alloc_b7513f3459de499a3785fd3ab62ad6ab = private unnamed_addr constant [28 x i8] c"riscv32imac-unknown-none-elf", align 1
@alloc_4aac2c751578ff8b2a7da0743e6f1498 = private unnamed_addr constant [21 x i8] c"riscv32imc-esp-espidf", align 1
@alloc_fd1b38744aa12ca58723e85c5996f9f0 = private unnamed_addr constant [27 x i8] c"riscv32imc-unknown-none-elf", align 1
@alloc_603fc8e29c06fe139773a6b784e3cc49 = private unnamed_addr constant [18 x i8] c"thumbv4t-none-eabi", align 1
@alloc_0f444773a3c04e447512a602928cccf9 = private unnamed_addr constant [18 x i8] c"thumbv6m-none-eabi", align 1
@alloc_3619ae5c84ee9a44040d6ebb9b6b060d = private unnamed_addr constant [19 x i8] c"thumbv7em-none-eabi", align 1
@alloc_d90900e16a07082031ab037fc65b138f = private unnamed_addr constant [21 x i8] c"thumbv7em-none-eabihf", align 1
@alloc_a6ec35165b5132684f6e014918578670 = private unnamed_addr constant [18 x i8] c"thumbv7m-none-eabi", align 1
@alloc_26b0241c8fc21259fc82bc5f08a04026 = private unnamed_addr constant [23 x i8] c"thumbv8m.base-none-eabi", align 1
@alloc_eb24842ce519f5e77fce191c09f10d66 = private unnamed_addr constant [23 x i8] c"thumbv8m.main-none-eabi", align 1
@alloc_571391e7b49d723924917da68f3d8a4d = private unnamed_addr constant [25 x i8] c"thumbv8m.main-none-eabihf", align 1
@alloc_6929424002fbe1deb331ef746021f140 = private unnamed_addr constant <{ ptr, [8 x i8], ptr, [8 x i8], ptr, [8 x i8], ptr, [8 x i8], ptr, [8 x i8], ptr, [8 x i8], ptr, [8 x i8], ptr, [8 x i8], ptr, [8 x i8], ptr, [8 x i8], ptr, [8 x i8], ptr, [8 x i8], ptr, [8 x i8], ptr, [8 x i8], ptr, [8 x i8], ptr, [8 x i8], ptr, [8 x i8], ptr, [8 x i8], ptr, [8 x i8], ptr, [8 x i8], ptr, [8 x i8], ptr, [8 x i8], ptr, [8 x i8], ptr, [8 x i8], ptr, [8 x i8], ptr, [8 x i8], ptr, [8 x i8], ptr, [8 x i8], ptr, [8 x i8], ptr, [8 x i8], ptr, [8 x i8], ptr, [8 x i8], ptr, [8 x i8], ptr, [8 x i8], ptr, [8 x i8], ptr, [8 x i8], ptr, [8 x i8], ptr, [8 x i8], ptr, [8 x i8], ptr, [8 x i8], ptr, [8 x i8], ptr, [8 x i8], ptr, [8 x i8], ptr, [8 x i8], ptr, [8 x i8], ptr, [8 x i8] }> <{ ptr @alloc_7ef794223a3c79a90832fd404d7462c3, [8 x i8] c"\15\00\00\00\00\00\00\00", ptr @alloc_60041a2996b9889a1b040c54c616ffa4, [8 x i8] c"\12\00\00\00\00\00\00\00", ptr @alloc_fc4b0cb0b48da575f740f3b061247e0f, [8 x i8] c"\14\00\00\00\00\00\00\00", ptr @alloc_3e1a5023273d14d3525522c2099080bd, [8 x i8] c"\1C\00\00\00\00\00\00\00", ptr @alloc_d854eb1f96568158508a1fe06acc479b, [8 x i8] c"\1D\00\00\00\00\00\00\00", ptr @alloc_ab31f0ee4c349cacd5df9f59f007a5ed, [8 x i8] c"\1E\00\00\00\00\00\00\00", ptr @alloc_82d439c4b4b9541b054ad05c5b792d5a, [8 x i8] c" \00\00\00\00\00\00\00", ptr @alloc_c1e04960e461045b24da3143b9bbe57e, [8 x i8] c"\13\00\00\00\00\00\00\00", ptr @alloc_828ae20c2ae220c38b3245d3e4d32e82, [8 x i8] c"\10\00\00\00\00\00\00\00", ptr @alloc_7b4c0892dcb20ad38838433c6bd13c7a, [8 x i8] c"\12\00\00\00\00\00\00\00", ptr @alloc_073a41cfae022637d06fd85a5e605fab, [8 x i8] c"\19\00\00\00\00\00\00\00", ptr @alloc_077b257855cc8302e2e37029c956e3c3, [8 x i8] c"\1A\00\00\00\00\00\00\00", ptr @alloc_9bc964707defe2160c729e1bb0b7c1e9, [8 x i8] c"\16\00\00\00\00\00\00\00", ptr @alloc_22b33466e0dd64c3b2e2ee15ff8d195c, [8 x i8] c"\16\00\00\00\00\00\00\00", ptr @alloc_3f54fddd3386141ea42568fa33ba0fc0, [8 x i8] c"\17\00\00\00\00\00\00\00", ptr @alloc_53bb287215d6b7ca5d0e83638974f2dc, [8 x i8] c"\19\00\00\00\00\00\00\00", ptr @alloc_670ec80a76e3dda8c0e4bb964f752aae, [8 x i8] c"\0F\00\00\00\00\00\00\00", ptr @alloc_4275caebb106965f8ef5bb2811245ced, [8 x i8] c"\18\00\00\00\00\00\00\00", ptr @alloc_a306aa267a229f9192f581f5c4b3f8a5, [8 x i8] c"\19\00\00\00\00\00\00\00", ptr @alloc_5b2e73936d9ed25120ae3cd1b1d86750, [8 x i8] c"\1B\00\00\00\00\00\00\00", ptr @alloc_addf2b8c5bb0c785f64e828bb16710c9, [8 x i8] c"\13\00\00\00\00\00\00\00", ptr @alloc_f92ab8510275e5e42dd14554da4d5f0d, [8 x i8] c"\1D\00\00\00\00\00\00\00", ptr @alloc_0c0bdd2040e1d3b535a15670bed8e2ee, [8 x i8] c"\1F\00\00\00\00\00\00\00", ptr @alloc_9a3299e3caae06e665af83a2a067eb68, [8 x i8] c"\0F\00\00\00\00\00\00\00", ptr @alloc_5e3a4f7a117d2e7bbe7456c524bb0006, [8 x i8] c"\17\00\00\00\00\00\00\00", ptr @alloc_edfd6be1acee3e3854f172faab285c38, [8 x i8] c"\19\00\00\00\00\00\00\00", ptr @alloc_1f2300ead6011ba2b5b331f2b76eb516, [8 x i8] c"\1C\00\00\00\00\00\00\00", ptr @alloc_baac72b63c55b5842a31e2c00a7d0883, [8 x i8] c"\1A\00\00\00\00\00\00\00", ptr @alloc_0d8d35c4ec871ff7e6c083e1cc59762d, [8 x i8] c"\16\00\00\00\00\00\00\00", ptr @alloc_ad7f1342255ebef4377308b28b295ab3, [8 x i8] c"\17\00\00\00\00\00\00\00", ptr @alloc_4c78f2281b95c444848389f653bfe1aa, [8 x i8] c"\13\00\00\00\00\00\00\00", ptr @alloc_2e417c01fc50dde593c75f17df443aac, [8 x i8] c"\17\00\00\00\00\00\00\00", ptr @alloc_ba03a0b15f58439199c9c1fb605fb91b, [8 x i8] c"\1B\00\00\00\00\00\00\00", ptr @alloc_1689bd3b01b5acc98a70228e04d83498, [8 x i8] c"\1C\00\00\00\00\00\00\00", ptr @alloc_ecbfecbf042f5d02ed1d945b2da736d2, [8 x i8] c"\19\00\00\00\00\00\00\00", ptr @alloc_b7513f3459de499a3785fd3ab62ad6ab, [8 x i8] c"\1C\00\00\00\00\00\00\00", ptr @alloc_4aac2c751578ff8b2a7da0743e6f1498, [8 x i8] c"\15\00\00\00\00\00\00\00", ptr @alloc_fd1b38744aa12ca58723e85c5996f9f0, [8 x i8] c"\1B\00\00\00\00\00\00\00", ptr @alloc_603fc8e29c06fe139773a6b784e3cc49, [8 x i8] c"\12\00\00\00\00\00\00\00", ptr @alloc_0f444773a3c04e447512a602928cccf9, [8 x i8] c"\12\00\00\00\00\00\00\00", ptr @alloc_3619ae5c84ee9a44040d6ebb9b6b060d, [8 x i8] c"\13\00\00\00\00\00\00\00", ptr @alloc_d90900e16a07082031ab037fc65b138f, [8 x i8] c"\15\00\00\00\00\00\00\00", ptr @alloc_a6ec35165b5132684f6e014918578670, [8 x i8] c"\12\00\00\00\00\00\00\00", ptr @alloc_26b0241c8fc21259fc82bc5f08a04026, [8 x i8] c"\17\00\00\00\00\00\00\00", ptr @alloc_eb24842ce519f5e77fce191c09f10d66, [8 x i8] c"\17\00\00\00\00\00\00\00", ptr @alloc_571391e7b49d723924917da68f3d8a4d, [8 x i8] c"\19\00\00\00\00\00\00\00" }>, align 8
@alloc_aa31e40b84e5bd72eb2b84fd23b8ce8b = private unnamed_addr constant [18 x i8] c"bpfeb-unknown-none", align 1
@alloc_edb56cace5b9083f410aa7986257c472 = private unnamed_addr constant [18 x i8] c"bpfel-unknown-none", align 1
@alloc_63b8bcb9c0020832e6fa0013d77e86c3 = private unnamed_addr constant [15 x i8] c"mipsel-sony-psx", align 1
@alloc_e52d3af24e8037dfb4f35693fba7d9f6 = private unnamed_addr constant <{ ptr, [16 x i8] }> <{ ptr @alloc_7fe94be2e120ffbd80c490b1b3c481ee, [16 x i8] c"w\00\00\00\00\00\00\00\CD\01\00\007\00\00\00" }>, align 8
@alloc_1c5ece773fe9d8a26ac674de79674b77 = private unnamed_addr constant [10 x i8] c"NotPresent", align 1
@vtable.4 = private unnamed_addr constant <{ [24 x i8], ptr }> <{ [24 x i8] c"\00\00\00\00\00\00\00\00\08\00\00\00\00\00\00\00\08\00\00\00\00\00\00\00", ptr @_RNvXs1g_NtCsjMrxcFdYDNN_4core3fmtRNtNtNtCs5sEH5CPMdak_3std3ffi6os_str8OsStringNtB6_5Debug3fmtCslwKqnJYeWCA_18build_script_build }>, align 8
@alloc_19adf04fb909e90136daf37b5ff22508 = private unnamed_addr constant [10 x i8] c"NotUnicode", align 1
@alloc_559c4f386b668c946885822cef1a587d = private unnamed_addr constant <{ ptr, [16 x i8] }> <{ ptr @alloc_7fe94be2e120ffbd80c490b1b3c481ee, [16 x i8] c"w\00\00\00\00\00\00\00h\04\00\00$\00\00\00" }>, align 8

; std::rt::lang_start::<()>
; Function Attrs: uwtable
define hidden noundef i64 @_RINvNtCs5sEH5CPMdak_3std2rt10lang_startuECslwKqnJYeWCA_18build_script_build(ptr noundef nonnull %main, i64 noundef %argc, ptr noundef %argv, i8 noundef %sigpipe) unnamed_addr #0 {
start:
  %_7 = alloca [8 x i8], align 8
  call void @llvm.lifetime.start.p0(i64 8, ptr nonnull %_7)
  store ptr %main, ptr %_7, align 8
; call std::rt::lang_start_internal
  %_0 = call noundef i64 @_RNvNtCs5sEH5CPMdak_3std2rt19lang_start_internal(ptr noundef nonnull align 1 %_7, ptr noalias noundef readonly align 8 captures(address, read_provenance) dereferenceable(48) @vtable.0, i64 noundef %argc, ptr noundef %argv, i8 noundef %sigpipe)
  call void @llvm.lifetime.end.p0(i64 8, ptr nonnull %_7)
  ret i64 %_0
}

; core::ptr::drop_in_place::<alloc::vec::Vec<alloc::boxed::Box<dyn core::ops::function::FnMut<(), Output = core::result::Result<(), std::io::error::Error>> + core::marker::Send + core::marker::Sync>>>
; Function Attrs: uwtable
define internal fastcc void @_RINvNtCsjMrxcFdYDNN_4core3ptr13drop_in_placeINtNtCsdJPVW0sQgAG_5alloc3vec3VecINtNtBL_5boxed3BoxDINtNtNtB4_3ops8function5FnMutuEp6OutputINtNtB4_6result6ResultuNtNtNtCs5sEH5CPMdak_3std2io5error5ErrorENtNtB4_6marker4SendNtB3c_4SyncEL_EEECslwKqnJYeWCA_18build_script_build(ptr noalias noundef nonnull readonly align 8 captures(none) dereferenceable(24) %_1) unnamed_addr #0 personality ptr @rust_eh_personality {
start:
  %0 = getelementptr inbounds nuw i8, ptr %_1, i64 8
  %_1.val = load ptr, ptr %0, align 8, !nonnull !3, !noundef !3
  %1 = getelementptr inbounds nuw i8, ptr %_1, i64 16
  %_1.val1 = load i64, ptr %1, align 8, !noundef !3
  tail call void @llvm.experimental.noalias.scope.decl(metadata !4)
  %_78.i.i = icmp eq i64 %_1.val1, 0
  br i1 %_78.i.i, label %bb4, label %bb5.i.i

bb5.i.i:                                          ; preds = %start, %_RINvNtCsjMrxcFdYDNN_4core3ptr13drop_in_placeINtNtCsdJPVW0sQgAG_5alloc5boxed3BoxDINtNtNtB4_3ops8function5FnMutuEp6OutputINtNtB4_6result6ResultuNtNtNtCs5sEH5CPMdak_3std2io5error5ErrorENtNtB4_6marker4SendNtB2W_4SyncEL_EECslwKqnJYeWCA_18build_script_build.exit.i.i
  %_3.sroa.0.09.i.i = phi i64 [ %2, %_RINvNtCsjMrxcFdYDNN_4core3ptr13drop_in_placeINtNtCsdJPVW0sQgAG_5alloc5boxed3BoxDINtNtNtB4_3ops8function5FnMutuEp6OutputINtNtB4_6result6ResultuNtNtNtCs5sEH5CPMdak_3std2io5error5ErrorENtNtB4_6marker4SendNtB2W_4SyncEL_EECslwKqnJYeWCA_18build_script_build.exit.i.i ], [ 0, %start ]
  %_6.i.i = getelementptr inbounds nuw %"alloc::boxed::Box<dyn core::ops::function::FnMut() -> core::result::Result<(), std::io::error::Error> + core::marker::Send + core::marker::Sync>", ptr %_1.val, i64 %_3.sroa.0.09.i.i
  %2 = add nuw i64 %_3.sroa.0.09.i.i, 1
  %_6.val.i.i = load ptr, ptr %_6.i.i, align 8, !alias.scope !4
  %3 = getelementptr i8, ptr %_6.i.i, i64 8
  %_6.val7.i.i = load ptr, ptr %3, align 8, !alias.scope !4, !nonnull !3, !align !7, !noundef !3
  %4 = load ptr, ptr %_6.val7.i.i, align 8, !invariant.load !3, !noalias !4
  %.not.i.i.i = icmp eq ptr %4, null
  br i1 %.not.i.i.i, label %bb3.i.i.i, label %is_not_null.i.i.i

is_not_null.i.i.i:                                ; preds = %bb5.i.i
  %5 = icmp ne ptr %_6.val.i.i, null
  tail call void @llvm.assume(i1 %5)
  invoke void %4(ptr noundef nonnull %_6.val.i.i)
          to label %bb3.i.i.i unwind label %cleanup.i.i.i, !noalias !4

bb3.i.i.i:                                        ; preds = %is_not_null.i.i.i, %bb5.i.i
  %6 = icmp ne ptr %_6.val.i.i, null
  tail call void @llvm.assume(i1 %6)
  %7 = getelementptr inbounds nuw i8, ptr %_6.val7.i.i, i64 8
  %8 = load i64, ptr %7, align 8, !range !8, !invariant.load !3, !noalias !4
  %9 = getelementptr inbounds nuw i8, ptr %_6.val7.i.i, i64 16
  %10 = load i64, ptr %9, align 8, !range !9, !invariant.load !3, !noalias !4
  %11 = add i64 %10, -1
  %12 = icmp sgt i64 %11, -1
  tail call void @llvm.assume(i1 %12)
  %13 = icmp eq i64 %8, 0
  br i1 %13, label %_RINvNtCsjMrxcFdYDNN_4core3ptr13drop_in_placeINtNtCsdJPVW0sQgAG_5alloc5boxed3BoxDINtNtNtB4_3ops8function5FnMutuEp6OutputINtNtB4_6result6ResultuNtNtNtCs5sEH5CPMdak_3std2io5error5ErrorENtNtB4_6marker4SendNtB2W_4SyncEL_EECslwKqnJYeWCA_18build_script_build.exit.i.i, label %_RNvXs_NtCsdJPVW0sQgAG_5alloc5allocNtB4_6GlobalNtNtCsjMrxcFdYDNN_4core5alloc9Allocator10deallocate.exit.i.i.i.i

_RNvXs_NtCsdJPVW0sQgAG_5alloc5allocNtB4_6GlobalNtNtCsjMrxcFdYDNN_4core5alloc9Allocator10deallocate.exit.i.i.i.i: ; preds = %bb3.i.i.i
; call __rustc::__rust_dealloc
  tail call void @_RNvCsKhRCbHf33p_7___rustc14___rust_dealloc(ptr noundef nonnull %_6.val.i.i, i64 noundef %8, i64 noundef range(i64 1, -9223372036854775807) %10) #23, !noalias !4
  br label %_RINvNtCsjMrxcFdYDNN_4core3ptr13drop_in_placeINtNtCsdJPVW0sQgAG_5alloc5boxed3BoxDINtNtNtB4_3ops8function5FnMutuEp6OutputINtNtB4_6result6ResultuNtNtNtCs5sEH5CPMdak_3std2io5error5ErrorENtNtB4_6marker4SendNtB2W_4SyncEL_EECslwKqnJYeWCA_18build_script_build.exit.i.i

cleanup.i.i.i:                                    ; preds = %is_not_null.i.i.i
  %14 = landingpad { ptr, i32 }
          cleanup
  %15 = getelementptr inbounds nuw i8, ptr %_6.val7.i.i, i64 8
  %16 = load i64, ptr %15, align 8, !range !8, !invariant.load !3, !noalias !4
  %17 = getelementptr inbounds nuw i8, ptr %_6.val7.i.i, i64 16
  %18 = load i64, ptr %17, align 8, !range !9, !invariant.load !3, !noalias !4
  %19 = add i64 %18, -1
  %20 = icmp sgt i64 %19, -1
  tail call void @llvm.assume(i1 %20)
  %21 = icmp eq i64 %16, 0
  br i1 %21, label %bb4.i.i.preheader, label %_RNvXs_NtCsdJPVW0sQgAG_5alloc5allocNtB4_6GlobalNtNtCsjMrxcFdYDNN_4core5alloc9Allocator10deallocate.exit.i4.i.i.i

bb4.i.i.preheader:                                ; preds = %_RNvXs_NtCsdJPVW0sQgAG_5alloc5allocNtB4_6GlobalNtNtCsjMrxcFdYDNN_4core5alloc9Allocator10deallocate.exit.i4.i.i.i, %cleanup.i.i.i
  br label %bb4.i.i

_RNvXs_NtCsdJPVW0sQgAG_5alloc5allocNtB4_6GlobalNtNtCsjMrxcFdYDNN_4core5alloc9Allocator10deallocate.exit.i4.i.i.i: ; preds = %cleanup.i.i.i
; call __rustc::__rust_dealloc
  tail call void @_RNvCsKhRCbHf33p_7___rustc14___rust_dealloc(ptr noundef nonnull %_6.val.i.i, i64 noundef %16, i64 noundef range(i64 1, -9223372036854775807) %18) #23, !noalias !4
  br label %bb4.i.i.preheader

_RINvNtCsjMrxcFdYDNN_4core3ptr13drop_in_placeINtNtCsdJPVW0sQgAG_5alloc5boxed3BoxDINtNtNtB4_3ops8function5FnMutuEp6OutputINtNtB4_6result6ResultuNtNtNtCs5sEH5CPMdak_3std2io5error5ErrorENtNtB4_6marker4SendNtB2W_4SyncEL_EECslwKqnJYeWCA_18build_script_build.exit.i.i: ; preds = %_RNvXs_NtCsdJPVW0sQgAG_5alloc5allocNtB4_6GlobalNtNtCsjMrxcFdYDNN_4core5alloc9Allocator10deallocate.exit.i.i.i.i, %bb3.i.i.i
  %_7.i.i = icmp eq i64 %2, %_1.val1
  br i1 %_7.i.i, label %bb4, label %bb5.i.i

bb4.i.i:                                          ; preds = %bb4.i.i.preheader, %bb3.i.i
  %_3.sroa.0.1.i.i = phi i64 [ %22, %bb3.i.i ], [ %2, %bb4.i.i.preheader ]
  %_5.i.i = icmp eq i64 %_3.sroa.0.1.i.i, %_1.val1
  br i1 %_5.i.i, label %cleanup.body, label %bb3.i.i

bb3.i.i:                                          ; preds = %bb4.i.i
  %_4.i.i = getelementptr inbounds nuw %"alloc::boxed::Box<dyn core::ops::function::FnMut() -> core::result::Result<(), std::io::error::Error> + core::marker::Send + core::marker::Sync>", ptr %_1.val, i64 %_3.sroa.0.1.i.i
  %22 = add i64 %_3.sroa.0.1.i.i, 1
  %_4.val.i.i = load ptr, ptr %_4.i.i, align 8, !alias.scope !4
  %23 = getelementptr i8, ptr %_4.i.i, i64 8
  %_4.val6.i.i = load ptr, ptr %23, align 8, !alias.scope !4, !nonnull !3, !align !7, !noundef !3
; invoke core::ptr::drop_in_place::<alloc::boxed::Box<dyn core::ops::function::FnMut<(), Output = core::result::Result<(), std::io::error::Error>> + core::marker::Send + core::marker::Sync>>
  invoke fastcc void @_RINvNtCsjMrxcFdYDNN_4core3ptr13drop_in_placeINtNtCsdJPVW0sQgAG_5alloc5boxed3BoxDINtNtNtB4_3ops8function5FnMutuEp6OutputINtNtB4_6result6ResultuNtNtNtCs5sEH5CPMdak_3std2io5error5ErrorENtNtB4_6marker4SendNtB2W_4SyncEL_EECslwKqnJYeWCA_18build_script_build(ptr %_4.val.i.i, ptr nonnull %_4.val6.i.i) #24
          to label %bb4.i.i unwind label %terminate.i.i, !noalias !4

terminate.i.i:                                    ; preds = %bb3.i.i
  %24 = landingpad { ptr, i32 }
          filter [0 x ptr] zeroinitializer
; call core::panicking::panic_in_cleanup
  tail call void @_RNvNtCsjMrxcFdYDNN_4core9panicking16panic_in_cleanup() #25, !noalias !4
  unreachable

cleanup.body:                                     ; preds = %bb4.i.i
  %_1.val2 = load i64, ptr %_1, align 8, !range !8, !noundef !3
  %25 = icmp eq i64 %_1.val2, 0
  br i1 %25, label %bb1, label %bb2.i.i.i

bb2.i.i.i:                                        ; preds = %cleanup.body
  %alloc_size.i.i.i.i = shl nuw i64 %_1.val2, 4
; call __rustc::__rust_dealloc
  tail call void @_RNvCsKhRCbHf33p_7___rustc14___rust_dealloc(ptr noundef nonnull %_1.val, i64 noundef %alloc_size.i.i.i.i, i64 noundef range(i64 1, -9223372036854775807) 8) #23
  br label %bb1

bb4:                                              ; preds = %_RINvNtCsjMrxcFdYDNN_4core3ptr13drop_in_placeINtNtCsdJPVW0sQgAG_5alloc5boxed3BoxDINtNtNtB4_3ops8function5FnMutuEp6OutputINtNtB4_6result6ResultuNtNtNtCs5sEH5CPMdak_3std2io5error5ErrorENtNtB4_6marker4SendNtB2W_4SyncEL_EECslwKqnJYeWCA_18build_script_build.exit.i.i, %start
  %_1.val4 = load i64, ptr %_1, align 8, !range !8, !noundef !3
  %26 = icmp eq i64 %_1.val4, 0
  br i1 %26, label %_RINvNtCsjMrxcFdYDNN_4core3ptr13drop_in_placeINtNtCsdJPVW0sQgAG_5alloc7raw_vec6RawVecINtNtBL_5boxed3BoxDINtNtNtB4_3ops8function5FnMutuEp6OutputINtNtB4_6result6ResultuNtNtNtCs5sEH5CPMdak_3std2io5error5ErrorENtNtB4_6marker4SendNtB3j_4SyncEL_EEECslwKqnJYeWCA_18build_script_build.exit8, label %bb2.i.i.i6

bb2.i.i.i6:                                       ; preds = %bb4
  %alloc_size.i.i.i.i7 = shl nuw i64 %_1.val4, 4
; call __rustc::__rust_dealloc
  tail call void @_RNvCsKhRCbHf33p_7___rustc14___rust_dealloc(ptr noundef nonnull %_1.val, i64 noundef %alloc_size.i.i.i.i7, i64 noundef range(i64 1, -9223372036854775807) 8) #23
  br label %_RINvNtCsjMrxcFdYDNN_4core3ptr13drop_in_placeINtNtCsdJPVW0sQgAG_5alloc7raw_vec6RawVecINtNtBL_5boxed3BoxDINtNtNtB4_3ops8function5FnMutuEp6OutputINtNtB4_6result6ResultuNtNtNtCs5sEH5CPMdak_3std2io5error5ErrorENtNtB4_6marker4SendNtB3j_4SyncEL_EEECslwKqnJYeWCA_18build_script_build.exit8

_RINvNtCsjMrxcFdYDNN_4core3ptr13drop_in_placeINtNtCsdJPVW0sQgAG_5alloc7raw_vec6RawVecINtNtBL_5boxed3BoxDINtNtNtB4_3ops8function5FnMutuEp6OutputINtNtB4_6result6ResultuNtNtNtCs5sEH5CPMdak_3std2io5error5ErrorENtNtB4_6marker4SendNtB3j_4SyncEL_EEECslwKqnJYeWCA_18build_script_build.exit8: ; preds = %bb4, %bb2.i.i.i6
  ret void

bb1:                                              ; preds = %bb2.i.i.i, %cleanup.body
  resume { ptr, i32 } %14
}

; core::ptr::drop_in_place::<alloc::boxed::Box<dyn core::ops::function::FnMut<(), Output = core::result::Result<(), std::io::error::Error>> + core::marker::Send + core::marker::Sync>>
; Function Attrs: uwtable
define internal fastcc void @_RINvNtCsjMrxcFdYDNN_4core3ptr13drop_in_placeINtNtCsdJPVW0sQgAG_5alloc5boxed3BoxDINtNtNtB4_3ops8function5FnMutuEp6OutputINtNtB4_6result6ResultuNtNtNtCs5sEH5CPMdak_3std2io5error5ErrorENtNtB4_6marker4SendNtB2W_4SyncEL_EECslwKqnJYeWCA_18build_script_build(ptr %_1.0.val, ptr readonly captures(address_is_null) %_1.8.val) unnamed_addr #0 personality ptr @rust_eh_personality {
start:
  %0 = icmp ne ptr %_1.8.val, null
  tail call void @llvm.assume(i1 %0)
  %1 = load ptr, ptr %_1.8.val, align 8, !invariant.load !3
  %.not = icmp eq ptr %1, null
  br i1 %.not, label %bb3, label %is_not_null

is_not_null:                                      ; preds = %start
  %2 = icmp ne ptr %_1.0.val, null
  tail call void @llvm.assume(i1 %2)
  invoke void %1(ptr noundef nonnull %_1.0.val)
          to label %bb3 unwind label %cleanup

bb3:                                              ; preds = %is_not_null, %start
  %3 = icmp ne ptr %_1.0.val, null
  tail call void @llvm.assume(i1 %3)
  %4 = getelementptr inbounds nuw i8, ptr %_1.8.val, i64 8
  %5 = load i64, ptr %4, align 8, !range !8, !invariant.load !3
  %6 = getelementptr inbounds nuw i8, ptr %_1.8.val, i64 16
  %7 = load i64, ptr %6, align 8, !range !9, !invariant.load !3
  %8 = add i64 %7, -1
  %9 = icmp sgt i64 %8, -1
  tail call void @llvm.assume(i1 %9)
  %10 = icmp eq i64 %5, 0
  br i1 %10, label %_RNvXs8_NtCsdJPVW0sQgAG_5alloc5boxedINtB5_3BoxDINtNtNtCsjMrxcFdYDNN_4core3ops8function5FnMutuEp6OutputINtNtBP_6result6ResultuNtNtNtCs5sEH5CPMdak_3std2io5error5ErrorENtNtBP_6marker4SendNtB2E_4SyncEL_ENtNtBN_4drop4Drop4dropCslwKqnJYeWCA_18build_script_build.exit, label %_RNvXs_NtCsdJPVW0sQgAG_5alloc5allocNtB4_6GlobalNtNtCsjMrxcFdYDNN_4core5alloc9Allocator10deallocate.exit.i

_RNvXs_NtCsdJPVW0sQgAG_5alloc5allocNtB4_6GlobalNtNtCsjMrxcFdYDNN_4core5alloc9Allocator10deallocate.exit.i: ; preds = %bb3
; call __rustc::__rust_dealloc
  tail call void @_RNvCsKhRCbHf33p_7___rustc14___rust_dealloc(ptr noundef nonnull %_1.0.val, i64 noundef %5, i64 noundef range(i64 1, -9223372036854775807) %7) #23
  br label %_RNvXs8_NtCsdJPVW0sQgAG_5alloc5boxedINtB5_3BoxDINtNtNtCsjMrxcFdYDNN_4core3ops8function5FnMutuEp6OutputINtNtBP_6result6ResultuNtNtNtCs5sEH5CPMdak_3std2io5error5ErrorENtNtBP_6marker4SendNtB2E_4SyncEL_ENtNtBN_4drop4Drop4dropCslwKqnJYeWCA_18build_script_build.exit

_RNvXs8_NtCsdJPVW0sQgAG_5alloc5boxedINtB5_3BoxDINtNtNtCsjMrxcFdYDNN_4core3ops8function5FnMutuEp6OutputINtNtBP_6result6ResultuNtNtNtCs5sEH5CPMdak_3std2io5error5ErrorENtNtBP_6marker4SendNtB2E_4SyncEL_ENtNtBN_4drop4Drop4dropCslwKqnJYeWCA_18build_script_build.exit: ; preds = %bb3, %_RNvXs_NtCsdJPVW0sQgAG_5alloc5allocNtB4_6GlobalNtNtCsjMrxcFdYDNN_4core5alloc9Allocator10deallocate.exit.i
  ret void

cleanup:                                          ; preds = %is_not_null
  %11 = landingpad { ptr, i32 }
          cleanup
  %12 = getelementptr inbounds nuw i8, ptr %_1.8.val, i64 8
  %13 = load i64, ptr %12, align 8, !range !8, !invariant.load !3
  %14 = getelementptr inbounds nuw i8, ptr %_1.8.val, i64 16
  %15 = load i64, ptr %14, align 8, !range !9, !invariant.load !3
  %16 = add i64 %15, -1
  %17 = icmp sgt i64 %16, -1
  tail call void @llvm.assume(i1 %17)
  %18 = icmp eq i64 %13, 0
  br i1 %18, label %bb1, label %_RNvXs_NtCsdJPVW0sQgAG_5alloc5allocNtB4_6GlobalNtNtCsjMrxcFdYDNN_4core5alloc9Allocator10deallocate.exit.i4

_RNvXs_NtCsdJPVW0sQgAG_5alloc5allocNtB4_6GlobalNtNtCsjMrxcFdYDNN_4core5alloc9Allocator10deallocate.exit.i4: ; preds = %cleanup
; call __rustc::__rust_dealloc
  tail call void @_RNvCsKhRCbHf33p_7___rustc14___rust_dealloc(ptr noundef nonnull %_1.0.val, i64 noundef %13, i64 noundef range(i64 1, -9223372036854775807) %15) #23
  br label %bb1

bb1:                                              ; preds = %_RNvXs_NtCsdJPVW0sQgAG_5alloc5allocNtB4_6GlobalNtNtCsjMrxcFdYDNN_4core5alloc9Allocator10deallocate.exit.i4, %cleanup
  resume { ptr, i32 } %11
}

; core::ptr::drop_in_place::<core::iter::adapters::chain::Chain<core::option::IntoIter<std::ffi::os_str::OsString>, core::iter::sources::once::Once<std::ffi::os_str::OsString>>>
; Function Attrs: nounwind uwtable
define internal fastcc void @_RINvNtCsjMrxcFdYDNN_4core3ptr13drop_in_placeINtNtNtNtB4_4iter8adapters5chain5ChainINtNtB4_6option8IntoIterNtNtNtCs5sEH5CPMdak_3std3ffi6os_str8OsStringEINtNtNtBN_7sources4once4OnceB1G_EEECslwKqnJYeWCA_18build_script_build(ptr noalias noundef nonnull readonly align 8 captures(none) dereferenceable(48) %_1) unnamed_addr #1 personality ptr @rust_eh_personality {
start:
  %_1.val = load i64, ptr %_1, align 8, !range !10, !noundef !3
  switch i64 %_1.val, label %bb2.i.i.i4.i.i.i.i.i.i.i [
    i64 -9223372036854775807, label %bb4
    i64 -9223372036854775808, label %bb4
    i64 0, label %bb4
  ]

bb2.i.i.i4.i.i.i.i.i.i.i:                         ; preds = %start
  %0 = getelementptr inbounds nuw i8, ptr %_1, i64 8
  %_1.val1 = load ptr, ptr %0, align 8, !nonnull !3, !noundef !3
; call __rustc::__rust_dealloc
  tail call void @_RNvCsKhRCbHf33p_7___rustc14___rust_dealloc(ptr noundef nonnull %_1.val1, i64 noundef %_1.val, i64 noundef range(i64 1, -9223372036854775807) 1) #23
  br label %bb4

bb4:                                              ; preds = %bb2.i.i.i4.i.i.i.i.i.i.i, %start, %start, %start
  %1 = getelementptr inbounds nuw i8, ptr %_1, i64 24
  %.val3 = load i64, ptr %1, align 8, !range !10, !noundef !3
  switch i64 %.val3, label %bb2.i.i.i4.i.i.i.i.i.i.i.i5 [
    i64 -9223372036854775807, label %_RINvNtCsjMrxcFdYDNN_4core3ptr13drop_in_placeINtNtB4_6option6OptionINtNtNtNtB4_4iter7sources4once4OnceNtNtNtCs5sEH5CPMdak_3std3ffi6os_str8OsStringEEECslwKqnJYeWCA_18build_script_build.exit6
    i64 -9223372036854775808, label %_RINvNtCsjMrxcFdYDNN_4core3ptr13drop_in_placeINtNtB4_6option6OptionINtNtNtNtB4_4iter7sources4once4OnceNtNtNtCs5sEH5CPMdak_3std3ffi6os_str8OsStringEEECslwKqnJYeWCA_18build_script_build.exit6
    i64 0, label %_RINvNtCsjMrxcFdYDNN_4core3ptr13drop_in_placeINtNtB4_6option6OptionINtNtNtNtB4_4iter7sources4once4OnceNtNtNtCs5sEH5CPMdak_3std3ffi6os_str8OsStringEEECslwKqnJYeWCA_18build_script_build.exit6
  ]

bb2.i.i.i4.i.i.i.i.i.i.i.i5:                      ; preds = %bb4
  %2 = getelementptr inbounds nuw i8, ptr %_1, i64 32
  %.val4 = load ptr, ptr %2, align 8, !nonnull !3, !noundef !3
; call __rustc::__rust_dealloc
  tail call void @_RNvCsKhRCbHf33p_7___rustc14___rust_dealloc(ptr noundef nonnull %.val4, i64 noundef %.val3, i64 noundef range(i64 1, -9223372036854775807) 1) #23
  br label %_RINvNtCsjMrxcFdYDNN_4core3ptr13drop_in_placeINtNtB4_6option6OptionINtNtNtNtB4_4iter7sources4once4OnceNtNtNtCs5sEH5CPMdak_3std3ffi6os_str8OsStringEEECslwKqnJYeWCA_18build_script_build.exit6

_RINvNtCsjMrxcFdYDNN_4core3ptr13drop_in_placeINtNtB4_6option6OptionINtNtNtNtB4_4iter7sources4once4OnceNtNtNtCs5sEH5CPMdak_3std3ffi6os_str8OsStringEEECslwKqnJYeWCA_18build_script_build.exit6: ; preds = %bb4, %bb4, %bb4, %bb2.i.i.i4.i.i.i.i.i.i.i.i5
  ret void
}

; core::ptr::drop_in_place::<std::env::VarError>
; Function Attrs: nounwind uwtable
define internal void @_RINvNtCsjMrxcFdYDNN_4core3ptr13drop_in_placeNtNtCs5sEH5CPMdak_3std3env8VarErrorECslwKqnJYeWCA_18build_script_build(ptr noalias noundef readonly align 8 captures(none) dereferenceable(24) %_1) unnamed_addr #1 personality ptr @rust_eh_personality {
start:
  %0 = load i64, ptr %_1, align 8, !range !11, !noundef !3
  switch i64 %0, label %bb2.i.i.i4.i.i.i [
    i64 -9223372036854775808, label %bb1
    i64 0, label %bb1
  ]

bb1:                                              ; preds = %start, %start, %bb2.i.i.i4.i.i.i
  ret void

bb2.i.i.i4.i.i.i:                                 ; preds = %start
  %1 = getelementptr inbounds nuw i8, ptr %_1, i64 8
  %_1.val1 = load ptr, ptr %1, align 8, !nonnull !3, !noundef !3
; call __rustc::__rust_dealloc
  tail call void @_RNvCsKhRCbHf33p_7___rustc14___rust_dealloc(ptr noundef nonnull %_1.val1, i64 noundef %0, i64 noundef range(i64 1, -9223372036854775807) 1) #23
  br label %bb1
}

; core::ptr::drop_in_place::<std::process::Output>
; Function Attrs: nounwind uwtable
define internal fastcc void @_RINvNtCsjMrxcFdYDNN_4core3ptr13drop_in_placeNtNtCs5sEH5CPMdak_3std7process6OutputECslwKqnJYeWCA_18build_script_build(ptr noalias noundef nonnull readonly align 8 captures(none) dereferenceable(56) %_1) unnamed_addr #1 personality ptr @rust_eh_personality {
start:
  %_1.val = load i64, ptr %_1, align 8
  %0 = icmp eq i64 %_1.val, 0
  br i1 %0, label %bb4, label %bb2.i.i.i4.i

bb2.i.i.i4.i:                                     ; preds = %start
  %1 = getelementptr inbounds nuw i8, ptr %_1, i64 8
  %_1.val4 = load ptr, ptr %1, align 8, !nonnull !3, !noundef !3
; call __rustc::__rust_dealloc
  tail call void @_RNvCsKhRCbHf33p_7___rustc14___rust_dealloc(ptr noundef nonnull %_1.val4, i64 noundef %_1.val, i64 noundef range(i64 1, -9223372036854775807) 1) #23
  br label %bb4

bb4:                                              ; preds = %bb2.i.i.i4.i, %start
  %2 = getelementptr inbounds nuw i8, ptr %_1, i64 24
  %.val2 = load i64, ptr %2, align 8
  %3 = icmp eq i64 %.val2, 0
  br i1 %3, label %_RINvNtCsjMrxcFdYDNN_4core3ptr13drop_in_placeINtNtCsdJPVW0sQgAG_5alloc3vec3VechEECslwKqnJYeWCA_18build_script_build.exit8, label %bb2.i.i.i4.i7

bb2.i.i.i4.i7:                                    ; preds = %bb4
  %4 = getelementptr inbounds nuw i8, ptr %_1, i64 32
  %.val3 = load ptr, ptr %4, align 8, !nonnull !3, !noundef !3
; call __rustc::__rust_dealloc
  tail call void @_RNvCsKhRCbHf33p_7___rustc14___rust_dealloc(ptr noundef nonnull %.val3, i64 noundef %.val2, i64 noundef range(i64 1, -9223372036854775807) 1) #23
  br label %_RINvNtCsjMrxcFdYDNN_4core3ptr13drop_in_placeINtNtCsdJPVW0sQgAG_5alloc3vec3VechEECslwKqnJYeWCA_18build_script_build.exit8

_RINvNtCsjMrxcFdYDNN_4core3ptr13drop_in_placeINtNtCsdJPVW0sQgAG_5alloc3vec3VechEECslwKqnJYeWCA_18build_script_build.exit8: ; preds = %bb4, %bb2.i.i.i4.i7
  ret void
}

; core::ptr::drop_in_place::<std::process::Command>
; Function Attrs: uwtable
define internal fastcc void @_RINvNtCsjMrxcFdYDNN_4core3ptr13drop_in_placeNtNtCs5sEH5CPMdak_3std7process7CommandECslwKqnJYeWCA_18build_script_build(ptr noalias noundef nonnull align 8 dereferenceable(200) %_1) unnamed_addr #0 personality ptr @rust_eh_personality {
start:
  tail call void @llvm.experimental.noalias.scope.decl(metadata !12)
  %0 = getelementptr inbounds nuw i8, ptr %_1, i64 128
  %.val.i = load ptr, ptr %0, align 8, !alias.scope !12, !nonnull !3, !noundef !3
  %1 = getelementptr inbounds nuw i8, ptr %_1, i64 136
  %.val24.i = load i64, ptr %1, align 8, !alias.scope !12
  store i8 0, ptr %.val.i, align 1, !noalias !12
  %2 = icmp eq i64 %.val24.i, 0
  br i1 %2, label %bb20.i, label %_RNvXs_NtCsdJPVW0sQgAG_5alloc5allocNtB4_6GlobalNtNtCsjMrxcFdYDNN_4core5alloc9Allocator10deallocate.exit.i.i5.i.i

_RNvXs_NtCsdJPVW0sQgAG_5alloc5allocNtB4_6GlobalNtNtCsjMrxcFdYDNN_4core5alloc9Allocator10deallocate.exit.i.i5.i.i: ; preds = %start
; call __rustc::__rust_dealloc
  tail call void @_RNvCsKhRCbHf33p_7___rustc14___rust_dealloc(ptr noundef nonnull %.val.i, i64 noundef %.val24.i, i64 noundef 1) #23
  br label %bb20.i

bb20.i:                                           ; preds = %_RNvXs_NtCsdJPVW0sQgAG_5alloc5allocNtB4_6GlobalNtNtCsjMrxcFdYDNN_4core5alloc9Allocator10deallocate.exit.i.i5.i.i, %start
; invoke <std::sys::process::unix::common::cstring_array::CStringArray as core::ops::drop::Drop>::drop
  invoke void @_RNvXs3_NtNtNtNtNtCs5sEH5CPMdak_3std3sys7process4unix6common13cstring_arrayNtB5_12CStringArrayNtNtNtCsjMrxcFdYDNN_4core3ops4drop4Drop4drop(ptr noalias noundef nonnull align 8 dereferenceable(200) %_1)
          to label %bb4.i.i unwind label %cleanup.i.i

cleanup.i.i:                                      ; preds = %bb20.i
  %3 = landingpad { ptr, i32 }
          cleanup
  %_1.val.i.i = load i64, ptr %_1, align 8, !alias.scope !15
  %4 = icmp eq i64 %_1.val.i.i, 0
  br i1 %4, label %bb10.i, label %bb2.i.i.i4.i.i.i

bb2.i.i.i4.i.i.i:                                 ; preds = %cleanup.i.i
  %5 = getelementptr inbounds nuw i8, ptr %_1, i64 8
  %_1.val1.i.i = load ptr, ptr %5, align 8, !alias.scope !15, !nonnull !3, !noundef !3
  %alloc_size.i.i.i.i5.i.i.i = shl nuw i64 %_1.val.i.i, 3
; call __rustc::__rust_dealloc
  tail call void @_RNvCsKhRCbHf33p_7___rustc14___rust_dealloc(ptr noundef nonnull %_1.val1.i.i, i64 noundef %alloc_size.i.i.i.i5.i.i.i, i64 noundef range(i64 1, -9223372036854775807) 8) #23
  br label %bb10.i

bb4.i.i:                                          ; preds = %bb20.i
  %_1.val2.i.i = load i64, ptr %_1, align 8, !alias.scope !15
  %6 = icmp eq i64 %_1.val2.i.i, 0
  br i1 %6, label %bb19.i, label %bb2.i.i.i4.i4.i.i

bb2.i.i.i4.i4.i.i:                                ; preds = %bb4.i.i
  %7 = getelementptr inbounds nuw i8, ptr %_1, i64 8
  %_1.val3.i.i = load ptr, ptr %7, align 8, !alias.scope !15, !nonnull !3, !noundef !3
  %alloc_size.i.i.i.i5.i5.i.i = shl nuw i64 %_1.val2.i.i, 3
; call __rustc::__rust_dealloc
  tail call void @_RNvCsKhRCbHf33p_7___rustc14___rust_dealloc(ptr noundef nonnull %_1.val3.i.i, i64 noundef %alloc_size.i.i.i.i5.i5.i.i, i64 noundef range(i64 1, -9223372036854775807) 8) #23
  br label %bb19.i

bb10.i:                                           ; preds = %bb2.i.i.i4.i.i.i, %cleanup.i.i
  %8 = getelementptr inbounds nuw i8, ptr %_1, i64 96
; invoke core::ptr::drop_in_place::<std::sys::process::env::CommandEnv>
  invoke fastcc void @_RINvNtCsjMrxcFdYDNN_4core3ptr13drop_in_placeNtNtNtNtCs5sEH5CPMdak_3std3sys7process3env10CommandEnvECslwKqnJYeWCA_18build_script_build(ptr noalias noundef align 8 dereferenceable(32) %8) #24
          to label %bb9.i unwind label %terminate.i

bb19.i:                                           ; preds = %bb2.i.i.i4.i4.i.i, %bb4.i.i
  %9 = getelementptr inbounds nuw i8, ptr %_1, i64 96
; invoke core::ptr::drop_in_place::<std::sys::process::env::CommandEnv>
  invoke fastcc void @_RINvNtCsjMrxcFdYDNN_4core3ptr13drop_in_placeNtNtNtNtCs5sEH5CPMdak_3std3sys7process3env10CommandEnvECslwKqnJYeWCA_18build_script_build(ptr noalias noundef align 8 dereferenceable(32) %9)
          to label %bb18.i unwind label %cleanup2.i

bb9.i:                                            ; preds = %cleanup2.i, %bb10.i
  %.pn10.i = phi { ptr, i32 } [ %14, %cleanup2.i ], [ %3, %bb10.i ]
  %10 = getelementptr inbounds nuw i8, ptr %_1, i64 144
  %.val27.i = load ptr, ptr %10, align 8, !alias.scope !12, !align !18, !noundef !3
  %11 = getelementptr inbounds nuw i8, ptr %_1, i64 152
  %.val28.i = load i64, ptr %11, align 8, !alias.scope !12
  %12 = icmp eq ptr %.val27.i, null
  br i1 %12, label %bb8.i, label %bb2.i.i

bb2.i.i:                                          ; preds = %bb9.i
  store i8 0, ptr %.val27.i, align 1
  %13 = icmp eq i64 %.val28.i, 0
  br i1 %13, label %bb8.i, label %_RNvXs_NtCsdJPVW0sQgAG_5alloc5allocNtB4_6GlobalNtNtCsjMrxcFdYDNN_4core5alloc9Allocator10deallocate.exit.i.i5.i.i.i

_RNvXs_NtCsdJPVW0sQgAG_5alloc5allocNtB4_6GlobalNtNtCsjMrxcFdYDNN_4core5alloc9Allocator10deallocate.exit.i.i5.i.i.i: ; preds = %bb2.i.i
; call __rustc::__rust_dealloc
  tail call void @_RNvCsKhRCbHf33p_7___rustc14___rust_dealloc(ptr noundef nonnull %.val27.i, i64 noundef %.val28.i, i64 noundef 1) #23
  br label %bb8.i

cleanup2.i:                                       ; preds = %bb19.i
  %14 = landingpad { ptr, i32 }
          cleanup
  br label %bb9.i

bb18.i:                                           ; preds = %bb19.i
  %15 = getelementptr inbounds nuw i8, ptr %_1, i64 144
  %.val31.i = load ptr, ptr %15, align 8, !alias.scope !12, !align !18, !noundef !3
  %16 = getelementptr inbounds nuw i8, ptr %_1, i64 152
  %.val32.i = load i64, ptr %16, align 8, !alias.scope !12
  %17 = icmp eq ptr %.val31.i, null
  br i1 %17, label %bb17.i, label %bb2.i50.i

bb2.i50.i:                                        ; preds = %bb18.i
  store i8 0, ptr %.val31.i, align 1
  %18 = icmp eq i64 %.val32.i, 0
  br i1 %18, label %bb17.i, label %_RNvXs_NtCsdJPVW0sQgAG_5alloc5allocNtB4_6GlobalNtNtCsjMrxcFdYDNN_4core5alloc9Allocator10deallocate.exit.i.i5.i.i51.i

_RNvXs_NtCsdJPVW0sQgAG_5alloc5allocNtB4_6GlobalNtNtCsjMrxcFdYDNN_4core5alloc9Allocator10deallocate.exit.i.i5.i.i51.i: ; preds = %bb2.i50.i
; call __rustc::__rust_dealloc
  tail call void @_RNvCsKhRCbHf33p_7___rustc14___rust_dealloc(ptr noundef nonnull %.val31.i, i64 noundef %.val32.i, i64 noundef 1) #23
  br label %bb17.i

bb8.i:                                            ; preds = %_RNvXs_NtCsdJPVW0sQgAG_5alloc5allocNtB4_6GlobalNtNtCsjMrxcFdYDNN_4core5alloc9Allocator10deallocate.exit.i.i5.i.i.i, %bb2.i.i, %bb9.i
  %19 = getelementptr inbounds nuw i8, ptr %_1, i64 160
  %.val25.i = load ptr, ptr %19, align 8, !alias.scope !12, !align !18, !noundef !3
  %20 = getelementptr inbounds nuw i8, ptr %_1, i64 168
  %.val26.i = load i64, ptr %20, align 8, !alias.scope !12
  %21 = icmp eq ptr %.val25.i, null
  br i1 %21, label %bb7.i, label %bb2.i54.i

bb2.i54.i:                                        ; preds = %bb8.i
  store i8 0, ptr %.val25.i, align 1
  %22 = icmp eq i64 %.val26.i, 0
  br i1 %22, label %bb7.i, label %_RNvXs_NtCsdJPVW0sQgAG_5alloc5allocNtB4_6GlobalNtNtCsjMrxcFdYDNN_4core5alloc9Allocator10deallocate.exit.i.i5.i.i55.i

_RNvXs_NtCsdJPVW0sQgAG_5alloc5allocNtB4_6GlobalNtNtCsjMrxcFdYDNN_4core5alloc9Allocator10deallocate.exit.i.i5.i.i55.i: ; preds = %bb2.i54.i
; call __rustc::__rust_dealloc
  tail call void @_RNvCsKhRCbHf33p_7___rustc14___rust_dealloc(ptr noundef nonnull %.val25.i, i64 noundef %.val26.i, i64 noundef 1) #23
  br label %bb7.i

bb17.i:                                           ; preds = %_RNvXs_NtCsdJPVW0sQgAG_5alloc5allocNtB4_6GlobalNtNtCsjMrxcFdYDNN_4core5alloc9Allocator10deallocate.exit.i.i5.i.i51.i, %bb2.i50.i, %bb18.i
  %23 = getelementptr inbounds nuw i8, ptr %_1, i64 160
  %.val29.i = load ptr, ptr %23, align 8, !alias.scope !12, !align !18, !noundef !3
  %24 = getelementptr inbounds nuw i8, ptr %_1, i64 168
  %.val30.i = load i64, ptr %24, align 8, !alias.scope !12
  %25 = icmp eq ptr %.val29.i, null
  br i1 %25, label %bb16.i, label %bb2.i58.i

bb2.i58.i:                                        ; preds = %bb17.i
  store i8 0, ptr %.val29.i, align 1
  %26 = icmp eq i64 %.val30.i, 0
  br i1 %26, label %bb16.i, label %_RNvXs_NtCsdJPVW0sQgAG_5alloc5allocNtB4_6GlobalNtNtCsjMrxcFdYDNN_4core5alloc9Allocator10deallocate.exit.i.i5.i.i59.i

_RNvXs_NtCsdJPVW0sQgAG_5alloc5allocNtB4_6GlobalNtNtCsjMrxcFdYDNN_4core5alloc9Allocator10deallocate.exit.i.i5.i.i59.i: ; preds = %bb2.i58.i
; call __rustc::__rust_dealloc
  tail call void @_RNvCsKhRCbHf33p_7___rustc14___rust_dealloc(ptr noundef nonnull %.val29.i, i64 noundef %.val30.i, i64 noundef 1) #23
  br label %bb16.i

bb7.i:                                            ; preds = %_RNvXs_NtCsdJPVW0sQgAG_5alloc5allocNtB4_6GlobalNtNtCsjMrxcFdYDNN_4core5alloc9Allocator10deallocate.exit.i.i5.i.i55.i, %bb2.i54.i, %bb8.i
  %27 = getelementptr inbounds nuw i8, ptr %_1, i64 24
; invoke core::ptr::drop_in_place::<alloc::vec::Vec<alloc::boxed::Box<dyn core::ops::function::FnMut<(), Output = core::result::Result<(), std::io::error::Error>> + core::marker::Send + core::marker::Sync>>>
  invoke fastcc void @_RINvNtCsjMrxcFdYDNN_4core3ptr13drop_in_placeINtNtCsdJPVW0sQgAG_5alloc3vec3VecINtNtBL_5boxed3BoxDINtNtNtB4_3ops8function5FnMutuEp6OutputINtNtB4_6result6ResultuNtNtNtCs5sEH5CPMdak_3std2io5error5ErrorENtNtB4_6marker4SendNtB3c_4SyncEL_EEECslwKqnJYeWCA_18build_script_build(ptr noalias noundef align 8 dereferenceable(24) %27) #24
          to label %bb6.i unwind label %terminate.i

bb16.i:                                           ; preds = %_RNvXs_NtCsdJPVW0sQgAG_5alloc5allocNtB4_6GlobalNtNtCsjMrxcFdYDNN_4core5alloc9Allocator10deallocate.exit.i.i5.i.i59.i, %bb2.i58.i, %bb17.i
  %28 = getelementptr inbounds nuw i8, ptr %_1, i64 24
; invoke core::ptr::drop_in_place::<alloc::vec::Vec<alloc::boxed::Box<dyn core::ops::function::FnMut<(), Output = core::result::Result<(), std::io::error::Error>> + core::marker::Send + core::marker::Sync>>>
  invoke fastcc void @_RINvNtCsjMrxcFdYDNN_4core3ptr13drop_in_placeINtNtCsdJPVW0sQgAG_5alloc3vec3VecINtNtBL_5boxed3BoxDINtNtNtB4_3ops8function5FnMutuEp6OutputINtNtB4_6result6ResultuNtNtNtCs5sEH5CPMdak_3std2io5error5ErrorENtNtB4_6marker4SendNtB3c_4SyncEL_EEECslwKqnJYeWCA_18build_script_build(ptr noalias noundef align 8 dereferenceable(24) %28)
          to label %bb15.i unwind label %cleanup5.i

bb6.i:                                            ; preds = %cleanup5.i, %bb7.i
  %.pn16.i = phi { ptr, i32 } [ %34, %cleanup5.i ], [ %.pn10.i, %bb7.i ]
  %29 = getelementptr inbounds nuw i8, ptr %_1, i64 176
  %.val33.i = load ptr, ptr %29, align 8, !alias.scope !12, !align !19, !noundef !3
  %30 = getelementptr inbounds nuw i8, ptr %_1, i64 184
  %.val34.i = load i64, ptr %30, align 8, !alias.scope !12
  %31 = icmp eq ptr %.val33.i, null
  %32 = icmp eq i64 %.val34.i, 0
  %or.cond.i.i = select i1 %31, i1 true, i1 %32
  br i1 %or.cond.i.i, label %bb5.i, label %_RNvXs_NtCsdJPVW0sQgAG_5alloc5allocNtB4_6GlobalNtNtCsjMrxcFdYDNN_4core5alloc9Allocator10deallocate.exit.i.i.i.i

_RNvXs_NtCsdJPVW0sQgAG_5alloc5allocNtB4_6GlobalNtNtCsjMrxcFdYDNN_4core5alloc9Allocator10deallocate.exit.i.i.i.i: ; preds = %bb6.i
  %33 = shl nuw nsw i64 %.val34.i, 2
; call __rustc::__rust_dealloc
  tail call void @_RNvCsKhRCbHf33p_7___rustc14___rust_dealloc(ptr noundef nonnull %.val33.i, i64 noundef %33, i64 noundef 4) #23
  br label %bb5.i

cleanup5.i:                                       ; preds = %bb16.i
  %34 = landingpad { ptr, i32 }
          cleanup
  br label %bb6.i

bb15.i:                                           ; preds = %bb16.i
  %35 = getelementptr inbounds nuw i8, ptr %_1, i64 176
  %.val35.i = load ptr, ptr %35, align 8, !alias.scope !12, !align !19, !noundef !3
  %36 = getelementptr inbounds nuw i8, ptr %_1, i64 184
  %.val36.i = load i64, ptr %36, align 8, !alias.scope !12
  %37 = icmp eq ptr %.val35.i, null
  %38 = icmp eq i64 %.val36.i, 0
  %or.cond.i63.i = select i1 %37, i1 true, i1 %38
  br i1 %or.cond.i63.i, label %bb14.i, label %_RNvXs_NtCsdJPVW0sQgAG_5alloc5allocNtB4_6GlobalNtNtCsjMrxcFdYDNN_4core5alloc9Allocator10deallocate.exit.i.i.i64.i

_RNvXs_NtCsdJPVW0sQgAG_5alloc5allocNtB4_6GlobalNtNtCsjMrxcFdYDNN_4core5alloc9Allocator10deallocate.exit.i.i.i64.i: ; preds = %bb15.i
  %39 = shl nuw nsw i64 %.val36.i, 2
; call __rustc::__rust_dealloc
  tail call void @_RNvCsKhRCbHf33p_7___rustc14___rust_dealloc(ptr noundef nonnull %.val35.i, i64 noundef %39, i64 noundef 4) #23
  br label %bb14.i

bb5.i:                                            ; preds = %_RNvXs_NtCsdJPVW0sQgAG_5alloc5allocNtB4_6GlobalNtNtCsjMrxcFdYDNN_4core5alloc9Allocator10deallocate.exit.i.i.i.i, %bb6.i
  %40 = getelementptr inbounds nuw i8, ptr %_1, i64 72
  %.val41.i = load i32, ptr %40, align 8, !range !20, !alias.scope !12, !noundef !3
  %cond.i.i = icmp eq i32 %.val41.i, 3
  br i1 %cond.i.i, label %bb2.i.i.i, label %bb4.i

bb2.i.i.i:                                        ; preds = %bb5.i
  %41 = getelementptr inbounds nuw i8, ptr %_1, i64 76
  %.val42.i = load i32, ptr %41, align 4, !alias.scope !12
  %_5.i.i.i.i.i.i = tail call noundef i32 @close(i32 noundef %.val42.i) #23
  br label %bb4.i

bb14.i:                                           ; preds = %_RNvXs_NtCsdJPVW0sQgAG_5alloc5allocNtB4_6GlobalNtNtCsjMrxcFdYDNN_4core5alloc9Allocator10deallocate.exit.i.i.i64.i, %bb15.i
  %42 = getelementptr inbounds nuw i8, ptr %_1, i64 72
  %.val47.i = load i32, ptr %42, align 8, !range !20, !alias.scope !12, !noundef !3
  %cond.i68.i = icmp eq i32 %.val47.i, 3
  br i1 %cond.i68.i, label %bb2.i.i70.i, label %bb13.i

bb2.i.i70.i:                                      ; preds = %bb14.i
  %43 = getelementptr inbounds nuw i8, ptr %_1, i64 76
  %.val48.i = load i32, ptr %43, align 4, !alias.scope !12
  %_5.i.i.i.i.i71.i = tail call noundef i32 @close(i32 noundef %.val48.i) #23
  br label %bb13.i

bb4.i:                                            ; preds = %bb2.i.i.i, %bb5.i
  %44 = getelementptr inbounds nuw i8, ptr %_1, i64 80
  %.val39.i = load i32, ptr %44, align 8, !range !20, !alias.scope !12, !noundef !3
  %cond.i73.i = icmp eq i32 %.val39.i, 3
  br i1 %cond.i73.i, label %bb2.i.i75.i, label %bb3.i

bb2.i.i75.i:                                      ; preds = %bb4.i
  %45 = getelementptr inbounds nuw i8, ptr %_1, i64 84
  %.val40.i = load i32, ptr %45, align 4, !alias.scope !12
  %_5.i.i.i.i.i76.i = tail call noundef i32 @close(i32 noundef %.val40.i) #23
  br label %bb3.i

bb13.i:                                           ; preds = %bb2.i.i70.i, %bb14.i
  %46 = getelementptr inbounds nuw i8, ptr %_1, i64 80
  %.val45.i = load i32, ptr %46, align 8, !range !20, !alias.scope !12, !noundef !3
  %cond.i78.i = icmp eq i32 %.val45.i, 3
  br i1 %cond.i78.i, label %bb2.i.i80.i, label %bb12.i

bb2.i.i80.i:                                      ; preds = %bb13.i
  %47 = getelementptr inbounds nuw i8, ptr %_1, i64 84
  %.val46.i = load i32, ptr %47, align 4, !alias.scope !12
  %_5.i.i.i.i.i81.i = tail call noundef i32 @close(i32 noundef %.val46.i) #23
  br label %bb12.i

bb3.i:                                            ; preds = %bb2.i.i75.i, %bb4.i
  %48 = getelementptr inbounds nuw i8, ptr %_1, i64 88
  %.val37.i = load i32, ptr %48, align 8, !range !20, !alias.scope !12, !noundef !3
  %cond.i83.i = icmp eq i32 %.val37.i, 3
  br i1 %cond.i83.i, label %bb2.i.i85.i, label %bb1.i

bb2.i.i85.i:                                      ; preds = %bb3.i
  %49 = getelementptr inbounds nuw i8, ptr %_1, i64 92
  %.val38.i = load i32, ptr %49, align 4, !alias.scope !12
  %_5.i.i.i.i.i86.i = tail call noundef i32 @close(i32 noundef %.val38.i) #23
  br label %bb1.i

bb12.i:                                           ; preds = %bb2.i.i80.i, %bb13.i
  %50 = getelementptr inbounds nuw i8, ptr %_1, i64 88
  %.val43.i = load i32, ptr %50, align 8, !range !20, !alias.scope !12, !noundef !3
  %cond.i88.i = icmp eq i32 %.val43.i, 3
  br i1 %cond.i88.i, label %bb2.i.i90.i, label %_RINvNtCsjMrxcFdYDNN_4core3ptr13drop_in_placeNtNtNtNtNtCs5sEH5CPMdak_3std3sys7process4unix6common7CommandECslwKqnJYeWCA_18build_script_build.exit

bb2.i.i90.i:                                      ; preds = %bb12.i
  %51 = getelementptr inbounds nuw i8, ptr %_1, i64 92
  %.val44.i = load i32, ptr %51, align 4, !alias.scope !12
  %_5.i.i.i.i.i91.i = tail call noundef i32 @close(i32 noundef %.val44.i) #23
  br label %_RINvNtCsjMrxcFdYDNN_4core3ptr13drop_in_placeNtNtNtNtNtCs5sEH5CPMdak_3std3sys7process4unix6common7CommandECslwKqnJYeWCA_18build_script_build.exit

terminate.i:                                      ; preds = %bb7.i, %bb10.i
  %52 = landingpad { ptr, i32 }
          filter [0 x ptr] zeroinitializer
; call core::panicking::panic_in_cleanup
  tail call void @_RNvNtCsjMrxcFdYDNN_4core9panicking16panic_in_cleanup() #25
  unreachable

bb1.i:                                            ; preds = %bb2.i.i85.i, %bb3.i
  resume { ptr, i32 } %.pn16.i

_RINvNtCsjMrxcFdYDNN_4core3ptr13drop_in_placeNtNtNtNtNtCs5sEH5CPMdak_3std3sys7process4unix6common7CommandECslwKqnJYeWCA_18build_script_build.exit: ; preds = %bb12.i, %bb2.i.i90.i
  ret void
}

; core::ptr::drop_in_place::<std::sys::process::env::CommandEnv>
; Function Attrs: uwtable
define internal fastcc void @_RINvNtCsjMrxcFdYDNN_4core3ptr13drop_in_placeNtNtNtNtCs5sEH5CPMdak_3std3sys7process3env10CommandEnvECslwKqnJYeWCA_18build_script_build(ptr noalias noundef nonnull readonly align 8 captures(none) dereferenceable(32) %_1) unnamed_addr #0 personality ptr @rust_eh_personality {
start:
  %_2.i.i.i.i = alloca [24 x i8], align 8
  %_x.i.i = alloca [72 x i8], align 8
  tail call void @llvm.experimental.noalias.scope.decl(metadata !21)
  tail call void @llvm.experimental.noalias.scope.decl(metadata !24)
  call void @llvm.lifetime.start.p0(i64 72, ptr nonnull %_x.i.i), !noalias !27
  %self1.sroa.0.0.copyload.i.i = load ptr, ptr %_1, align 8, !alias.scope !27
  %.not.i.i = icmp eq ptr %self1.sroa.0.0.copyload.i.i, null
  br i1 %.not.i.i, label %bb3.i.i, label %bb1.i.i

bb1.i.i:                                          ; preds = %start
  %self1.sroa.5.0.self.sroa_idx.i.i = getelementptr inbounds nuw i8, ptr %_1, i64 16
  %self1.sroa.5.0.copyload.i.i = load i64, ptr %self1.sroa.5.0.self.sroa_idx.i.i, align 8, !alias.scope !27
  %self1.sroa.4.0.self.sroa_idx.i.i = getelementptr inbounds nuw i8, ptr %_1, i64 8
  %self1.sroa.4.0.copyload.i.i = load i64, ptr %self1.sroa.4.0.self.sroa_idx.i.i, align 8, !alias.scope !27
  %full_range.sroa.4.0._x.sroa_idx.i.i = getelementptr inbounds nuw i8, ptr %_x.i.i, i64 8
  store ptr null, ptr %full_range.sroa.4.0._x.sroa_idx.i.i, align 8, !noalias !27
  %full_range.sroa.4.sroa.4.0.full_range.sroa.4.0._x.sroa_idx.sroa_idx.i.i = getelementptr inbounds nuw i8, ptr %_x.i.i, i64 16
  store ptr %self1.sroa.0.0.copyload.i.i, ptr %full_range.sroa.4.sroa.4.0.full_range.sroa.4.0._x.sroa_idx.sroa_idx.i.i, align 8, !noalias !27
  %full_range.sroa.4.sroa.5.0.full_range.sroa.4.0._x.sroa_idx.sroa_idx.i.i = getelementptr inbounds nuw i8, ptr %_x.i.i, i64 24
  store i64 %self1.sroa.4.0.copyload.i.i, ptr %full_range.sroa.4.sroa.5.0.full_range.sroa.4.0._x.sroa_idx.sroa_idx.i.i, align 8, !noalias !27
  %full_range.sroa.6.0._x.sroa_idx.i.i = getelementptr inbounds nuw i8, ptr %_x.i.i, i64 40
  store ptr null, ptr %full_range.sroa.6.0._x.sroa_idx.i.i, align 8, !noalias !27
  %full_range.sroa.6.sroa.4.0.full_range.sroa.6.0._x.sroa_idx.sroa_idx.i.i = getelementptr inbounds nuw i8, ptr %_x.i.i, i64 48
  store ptr %self1.sroa.0.0.copyload.i.i, ptr %full_range.sroa.6.sroa.4.0.full_range.sroa.6.0._x.sroa_idx.sroa_idx.i.i, align 8, !noalias !27
  %full_range.sroa.6.sroa.5.0.full_range.sroa.6.0._x.sroa_idx.sroa_idx.i.i = getelementptr inbounds nuw i8, ptr %_x.i.i, i64 56
  store i64 %self1.sroa.4.0.copyload.i.i, ptr %full_range.sroa.6.sroa.5.0.full_range.sroa.6.0._x.sroa_idx.sroa_idx.i.i, align 8, !noalias !27
  br label %bb3.i.i

bb3.i.i:                                          ; preds = %bb1.i.i, %start
  %.sink9.i.i = phi i64 [ 1, %bb1.i.i ], [ 0, %start ]
  %self1.sroa.5.0.copyload.sink.i.i = phi i64 [ %self1.sroa.5.0.copyload.i.i, %bb1.i.i ], [ 0, %start ]
  store i64 %.sink9.i.i, ptr %_x.i.i, align 8, !noalias !27
  %0 = getelementptr inbounds nuw i8, ptr %_x.i.i, i64 32
  store i64 %.sink9.i.i, ptr %0, align 8, !noalias !27
  %1 = getelementptr inbounds nuw i8, ptr %_x.i.i, i64 64
  store i64 %self1.sroa.5.0.copyload.sink.i.i, ptr %1, align 8, !noalias !27
  call void @llvm.lifetime.start.p0(i64 24, ptr nonnull %_2.i.i.i.i), !noalias !28
; call <alloc::collections::btree::map::IntoIter<std::ffi::os_str::OsString, core::option::Option<std::ffi::os_str::OsString>>>::dying_next
  call fastcc void @_RNvMsz_NtNtNtCsdJPVW0sQgAG_5alloc11collections5btree3mapINtB5_8IntoIterNtNtNtCs5sEH5CPMdak_3std3ffi6os_str8OsStringINtNtCsjMrxcFdYDNN_4core6option6OptionB17_EE10dying_nextCslwKqnJYeWCA_18build_script_build(ptr noalias noundef align 8 captures(none) dereferenceable(24) %_2.i.i.i.i, ptr noalias noundef nonnull align 8 dereferenceable(72) %_x.i.i), !noalias !27
  %2 = load ptr, ptr %_2.i.i.i.i, align 8, !noalias !28, !noundef !3
  %.not3.i.i.i.i = icmp eq ptr %2, null
  br i1 %.not3.i.i.i.i, label %_RINvNtCsjMrxcFdYDNN_4core3ptr13drop_in_placeINtNtNtNtCsdJPVW0sQgAG_5alloc11collections5btree3map8BTreeMapNtNtNtCs5sEH5CPMdak_3std3ffi6os_str8OsStringINtNtB4_6option6OptionB1F_EEECslwKqnJYeWCA_18build_script_build.exit, label %bb3.lr.ph.i.i.i.i

bb3.lr.ph.i.i.i.i:                                ; preds = %bb3.i.i
  %kv.sroa.22.0._2.sroa_idx.i.i.i.i = getelementptr inbounds nuw i8, ptr %_2.i.i.i.i, i64 16
  br label %bb3.i.i.i.i

bb3.i.i.i.i:                                      ; preds = %bb4.i.i.i.i, %bb3.lr.ph.i.i.i.i
  %3 = phi ptr [ %2, %bb3.lr.ph.i.i.i.i ], [ %7, %bb4.i.i.i.i ]
  %kv.sroa.22.0.copyload.i.i.i.i = load i64, ptr %kv.sroa.22.0._2.sroa_idx.i.i.i.i, align 8, !noalias !28
  %_5.i.i.i.i.i = getelementptr inbounds nuw i8, ptr %3, i64 8
  %key.i.i.i.i.i = getelementptr inbounds nuw %"core::mem::maybe_uninit::MaybeUninit<std::ffi::os_str::OsString>", ptr %_5.i.i.i.i.i, i64 %kv.sroa.22.0.copyload.i.i.i.i
  %_9.i.i.i.i.i = getelementptr inbounds nuw i8, ptr %3, i64 272
  %_17.i.i.i.i.i = getelementptr inbounds nuw %"core::mem::maybe_uninit::MaybeUninit<core::option::Option<std::ffi::os_str::OsString>>", ptr %_9.i.i.i.i.i, i64 %kv.sroa.22.0.copyload.i.i.i.i
  %key.val.i.i.i.i.i = load i64, ptr %key.i.i.i.i.i, align 8, !noalias !28
  %4 = icmp eq i64 %key.val.i.i.i.i.i, 0
  br i1 %4, label %bb8.i.i.i.i.i, label %bb2.i.i.i4.i.i.i.i.i.i.i.i

bb2.i.i.i4.i.i.i.i.i.i.i.i:                       ; preds = %bb3.i.i.i.i
  %5 = getelementptr i8, ptr %key.i.i.i.i.i, i64 8
  %key.val1.i.i.i.i.i = load ptr, ptr %5, align 8, !noalias !28, !nonnull !3, !noundef !3
; call __rustc::__rust_dealloc
  tail call void @_RNvCsKhRCbHf33p_7___rustc14___rust_dealloc(ptr noundef nonnull %key.val1.i.i.i.i.i, i64 noundef %key.val.i.i.i.i.i, i64 noundef range(i64 1, -9223372036854775807) 1) #23, !noalias !28
  br label %bb8.i.i.i.i.i

bb8.i.i.i.i.i:                                    ; preds = %bb2.i.i.i4.i.i.i.i.i.i.i.i, %bb3.i.i.i.i
  %self1.val.i.i.i.i.i.i.i = load i64, ptr %_17.i.i.i.i.i, align 8, !range !11, !noalias !28, !noundef !3
  switch i64 %self1.val.i.i.i.i.i.i.i, label %bb2.i.i.i4.i.i.i.i.i.i.i.i.i.i.i [
    i64 -9223372036854775808, label %bb4.i.i.i.i
    i64 0, label %bb4.i.i.i.i
  ]

bb2.i.i.i4.i.i.i.i.i.i.i.i.i.i.i:                 ; preds = %bb8.i.i.i.i.i
  %6 = getelementptr i8, ptr %_17.i.i.i.i.i, i64 8
  %self1.val2.i.i.i.i.i.i.i = load ptr, ptr %6, align 8, !noalias !28, !nonnull !3, !noundef !3
; call __rustc::__rust_dealloc
  tail call void @_RNvCsKhRCbHf33p_7___rustc14___rust_dealloc(ptr noundef nonnull %self1.val2.i.i.i.i.i.i.i, i64 noundef %self1.val.i.i.i.i.i.i.i, i64 noundef range(i64 1, -9223372036854775807) 1) #23, !noalias !28
  br label %bb4.i.i.i.i

bb4.i.i.i.i:                                      ; preds = %bb2.i.i.i4.i.i.i.i.i.i.i.i.i.i.i, %bb8.i.i.i.i.i, %bb8.i.i.i.i.i
  call void @llvm.lifetime.end.p0(i64 24, ptr nonnull %_2.i.i.i.i), !noalias !28
  call void @llvm.lifetime.start.p0(i64 24, ptr nonnull %_2.i.i.i.i), !noalias !28
; call <alloc::collections::btree::map::IntoIter<std::ffi::os_str::OsString, core::option::Option<std::ffi::os_str::OsString>>>::dying_next
  call fastcc void @_RNvMsz_NtNtNtCsdJPVW0sQgAG_5alloc11collections5btree3mapINtB5_8IntoIterNtNtNtCs5sEH5CPMdak_3std3ffi6os_str8OsStringINtNtCsjMrxcFdYDNN_4core6option6OptionB17_EE10dying_nextCslwKqnJYeWCA_18build_script_build(ptr noalias noundef align 8 captures(none) dereferenceable(24) %_2.i.i.i.i, ptr noalias noundef nonnull align 8 dereferenceable(72) %_x.i.i), !noalias !27
  %7 = load ptr, ptr %_2.i.i.i.i, align 8, !noalias !28, !noundef !3
  %.not.i.i.i.i = icmp eq ptr %7, null
  br i1 %.not.i.i.i.i, label %_RINvNtCsjMrxcFdYDNN_4core3ptr13drop_in_placeINtNtNtNtCsdJPVW0sQgAG_5alloc11collections5btree3map8BTreeMapNtNtNtCs5sEH5CPMdak_3std3ffi6os_str8OsStringINtNtB4_6option6OptionB1F_EEECslwKqnJYeWCA_18build_script_build.exit, label %bb3.i.i.i.i

_RINvNtCsjMrxcFdYDNN_4core3ptr13drop_in_placeINtNtNtNtCsdJPVW0sQgAG_5alloc11collections5btree3map8BTreeMapNtNtNtCs5sEH5CPMdak_3std3ffi6os_str8OsStringINtNtB4_6option6OptionB1F_EEECslwKqnJYeWCA_18build_script_build.exit: ; preds = %bb4.i.i.i.i, %bb3.i.i
  call void @llvm.lifetime.end.p0(i64 24, ptr nonnull %_2.i.i.i.i), !noalias !28
  call void @llvm.lifetime.end.p0(i64 72, ptr nonnull %_x.i.i), !noalias !27
  ret void
}

; std::sys::backtrace::__rust_begin_short_backtrace::<fn(), ()>
; Function Attrs: noinline uwtable
define internal fastcc void @_RINvNtNtCs5sEH5CPMdak_3std3sys9backtrace28___rust_begin_short_backtraceFEuuECslwKqnJYeWCA_18build_script_build(ptr noundef nonnull readonly captures(none) %f) unnamed_addr #2 {
start:
  tail call void %f()
  tail call void asm sideeffect "", "~{memory}"() #23, !srcloc !33
  ret void
}

; <alloc::raw_vec::RawVecInner<_>>::reserve::do_reserve_and_handle::<alloc::alloc::Global>
; Function Attrs: cold uwtable
define internal fastcc void @_RINvNvMs2_NtCsdJPVW0sQgAG_5alloc7raw_vecINtB8_11RawVecInnerpE7reserve21do_reserve_and_handleNtNtBa_5alloc6GlobalECslwKqnJYeWCA_18build_script_build(ptr noalias noundef nonnull align 8 captures(none) dereferenceable(16) %slf, i64 noundef %len, i64 noundef %additional, i64 noundef range(i64 1, 9) %elem_layout.0, i64 noundef range(i64 1, 17) %elem_layout.1) unnamed_addr #3 personality ptr @rust_eh_personality {
start:
  %self3.i = alloca [24 x i8], align 8
  tail call void @llvm.experimental.noalias.scope.decl(metadata !34)
  %_25.0.i = add i64 %additional, %len
  %_25.1.i = icmp ult i64 %_25.0.i, %len
  br i1 %_25.1.i, label %bb2, label %bb9.i

bb9.i:                                            ; preds = %start
  %self5.i = load i64, ptr %slf, align 8, !range !8, !alias.scope !34, !noundef !3
  %v16.i = shl nuw i64 %self5.i, 1
  %_0.sroa.0.0.i.i = tail call noundef i64 @llvm.umax.i64(i64 %_25.0.i, i64 %v16.i)
  %0 = icmp eq i64 %elem_layout.1, 1
  %v1.sroa.0.0.i = select i1 %0, i64 8, i64 4
  %_0.sroa.0.0.i16.i = tail call noundef i64 @llvm.umax.i64(i64 %_0.sroa.0.0.i.i, i64 %v1.sroa.0.0.i)
  call void @llvm.lifetime.start.p0(i64 24, ptr nonnull %self3.i), !noalias !34
  %1 = getelementptr inbounds nuw i8, ptr %slf, i64 8
  %self.val15.i = load ptr, ptr %1, align 8, !alias.scope !34
; call <alloc::raw_vec::RawVecInner>::finish_grow
  call fastcc void @_RNvMs4_NtCsdJPVW0sQgAG_5alloc7raw_vecNtB5_11RawVecInner11finish_growCslwKqnJYeWCA_18build_script_build(ptr noalias noundef align 8 captures(none) dereferenceable(24) %self3.i, i64 %self5.i, ptr %self.val15.i, i64 noundef %_0.sroa.0.0.i16.i, i64 noundef range(i64 1, 9) %elem_layout.0, i64 noundef range(i64 1, 17) %elem_layout.1), !noalias !34
  %_35.i = load i64, ptr %self3.i, align 8, !range !37, !noalias !34, !noundef !3
  %2 = trunc nuw i64 %_35.i to i1
  %3 = getelementptr inbounds nuw i8, ptr %self3.i, i64 8
  br i1 %2, label %bb18.i, label %bb3

bb18.i:                                           ; preds = %bb9.i
  %e.0.i = load i64, ptr %3, align 8, !range !11, !noalias !34, !noundef !3
  %4 = getelementptr inbounds nuw i8, ptr %self3.i, i64 16
  %e.1.i = load i64, ptr %4, align 8, !noalias !34
  call void @llvm.lifetime.end.p0(i64 24, ptr nonnull %self3.i), !noalias !34
  br label %bb2

bb2:                                              ; preds = %bb18.i, %start
  %_0.sroa.5.0.i.ph = phi i64 [ undef, %start ], [ %e.1.i, %bb18.i ]
  %_0.sroa.0.0.i.ph = phi i64 [ 0, %start ], [ %e.0.i, %bb18.i ]
; call alloc::raw_vec::handle_error
  tail call void @_RNvNtCsdJPVW0sQgAG_5alloc7raw_vec12handle_error(i64 noundef %_0.sroa.0.0.i.ph, i64 %_0.sroa.5.0.i.ph) #26
  unreachable

bb3:                                              ; preds = %bb9.i
  %v.0.i = load ptr, ptr %3, align 8, !noalias !34, !nonnull !3, !noundef !3
  call void @llvm.lifetime.end.p0(i64 24, ptr nonnull %self3.i), !noalias !34
  store ptr %v.0.i, ptr %1, align 8, !alias.scope !34
  %5 = icmp sgt i64 %_0.sroa.0.0.i16.i, -1
  tail call void @llvm.assume(i1 %5)
  store i64 %_0.sroa.0.0.i16.i, ptr %slf, align 8, !alias.scope !34
  ret void
}

; std::rt::lang_start::<()>::{closure#0}
; Function Attrs: inlinehint uwtable
define internal noundef i32 @_RNCINvNtCs5sEH5CPMdak_3std2rt10lang_startuE0CslwKqnJYeWCA_18build_script_build(ptr noalias noundef readonly align 8 captures(none) dereferenceable(8) %_1) unnamed_addr #4 {
start:
  %_4 = load ptr, ptr %_1, align 8, !nonnull !3, !noundef !3
; call std::sys::backtrace::__rust_begin_short_backtrace::<fn(), ()>
  tail call fastcc void @_RINvNtNtCs5sEH5CPMdak_3std3sys9backtrace28___rust_begin_short_backtraceFEuuECslwKqnJYeWCA_18build_script_build(ptr noundef nonnull %_4) #27
  ret i32 0
}

; <build_script_build::version::Version>::parse::{closure#2}
; Function Attrs: inlinehint uwtable
define internal fastcc { i32, i32 } @_RNCNvMNtCslwKqnJYeWCA_18build_script_build7versionNtB4_7Version5parses0_0B6_(ptr readonly captures(address_is_null) %_1.0.val) unnamed_addr #4 personality ptr @rust_eh_personality {
bb2.i.i.i.i.lr.ph.i:
  %_5.i52 = alloca [24 x i8], align 8
  %_5.i = alloca [24 x i8], align 8
  %_5.i.i.i.i.i = alloca [24 x i8], align 8
  %digits = alloca [80 x i8], align 16
  %_5 = alloca [72 x i8], align 8
  call void @llvm.lifetime.start.p0(i64 72, ptr nonnull %_5)
  %0 = icmp ne ptr %_1.0.val, null
  tail call void @llvm.assume(i1 %0)
  %_29.0 = load ptr, ptr %_1.0.val, align 8, !nonnull !3, !align !18, !noundef !3
  %1 = getelementptr inbounds nuw i8, ptr %_1.0.val, i64 8
  %_29.1 = load i64, ptr %1, align 8, !noundef !3
  store i64 0, ptr %_5, align 8
  %_30.sroa.4.0._5.sroa_idx = getelementptr inbounds nuw i8, ptr %_5, i64 8
  store i64 %_29.1, ptr %_30.sroa.4.0._5.sroa_idx, align 8
  %_30.sroa.5.0._5.sroa_idx = getelementptr inbounds nuw i8, ptr %_5, i64 16
  store ptr %_29.0, ptr %_30.sroa.5.0._5.sroa_idx, align 8
  %_30.sroa.5.sroa.4.0._30.sroa.5.0._5.sroa_idx.sroa_idx = getelementptr inbounds nuw i8, ptr %_5, i64 24
  store i64 %_29.1, ptr %_30.sroa.5.sroa.4.0._30.sroa.5.0._5.sroa_idx.sroa_idx, align 8
  %_30.sroa.5.sroa.5.0._30.sroa.5.0._5.sroa_idx.sroa_idx = getelementptr inbounds nuw i8, ptr %_5, i64 32
  store i64 0, ptr %_30.sroa.5.sroa.5.0._30.sroa.5.0._5.sroa_idx.sroa_idx, align 8
  %_30.sroa.5.sroa.6.0._30.sroa.5.0._5.sroa_idx.sroa_idx = getelementptr inbounds nuw i8, ptr %_5, i64 40
  store i64 %_29.1, ptr %_30.sroa.5.sroa.6.0._30.sroa.5.0._5.sroa_idx.sroa_idx, align 8
  %_30.sroa.5.sroa.7.0._30.sroa.5.0._5.sroa_idx.sroa_idx = getelementptr inbounds nuw i8, ptr %_5, i64 48
  store <2 x i32> splat (i32 10), ptr %_30.sroa.5.sroa.7.0._30.sroa.5.0._5.sroa_idx.sroa_idx, align 8
  %_30.sroa.5.sroa.9.0._30.sroa.5.0._5.sroa_idx.sroa_idx = getelementptr inbounds nuw i8, ptr %_5, i64 56
  store i8 1, ptr %_30.sroa.5.sroa.9.0._30.sroa.5.0._5.sroa_idx.sroa_idx, align 8
  %_30.sroa.6.0._5.sroa_idx = getelementptr inbounds nuw i8, ptr %_5, i64 64
  store i8 0, ptr %_30.sroa.6.0._5.sroa_idx, align 8
  %_30.sroa.7.0._5.sroa_idx = getelementptr inbounds nuw i8, ptr %_5, i64 65
  store i8 0, ptr %_30.sroa.7.0._5.sroa_idx, align 1
  tail call void @llvm.experimental.noalias.scope.decl(metadata !38)
  %2 = getelementptr inbounds nuw i8, ptr %_5.i.i.i.i.i, i64 16
  br label %bb2.i.i.i.i.i

bb2.i.i.i.i.i:                                    ; preds = %_RNCINvNvNtNtNtNtCsjMrxcFdYDNN_4core4iter6traits8iterator8Iterator4find5checkReNCNCNvMNtCslwKqnJYeWCA_18build_script_build7versionNtB1l_7Version5parses0_00E0B1n_.exit.i, %bb2.i.i.i.i.lr.ph.i
  tail call void @llvm.experimental.noalias.scope.decl(metadata !41)
  tail call void @llvm.experimental.noalias.scope.decl(metadata !44)
  tail call void @llvm.experimental.noalias.scope.decl(metadata !47)
  tail call void @llvm.experimental.noalias.scope.decl(metadata !50)
  %_4.val.i.i.i.i.i = load ptr, ptr %_30.sroa.5.0._5.sroa_idx, align 8, !alias.scope !53, !nonnull !3, !align !18, !noundef !3
  call void @llvm.lifetime.start.p0(i64 24, ptr nonnull %_5.i.i.i.i.i), !noalias !53
; call <core::str::pattern::CharSearcher as core::str::pattern::Searcher>::next_match
  call fastcc void @_RNvXs_NtNtCsjMrxcFdYDNN_4core3str7patternNtB4_12CharSearcherNtB4_8Searcher10next_match(ptr noalias noundef align 8 captures(none) dereferenceable(24) %_5.i.i.i.i.i, ptr noalias noundef align 8 dereferenceable(48) %_30.sroa.5.0._5.sroa_idx) #28
  %_7.i.i.i.i.i = load i64, ptr %_5.i.i.i.i.i, align 8, !range !37, !noalias !53, !noundef !3
  %3 = trunc nuw i64 %_7.i.i.i.i.i to i1
  br i1 %3, label %bb7.i.i.i.i.i, label %bb6.i.i.i.i.i

bb7.i.i.i.i.i:                                    ; preds = %bb2.i.i.i.i.i
  %b.i.i.i.i.i = load i64, ptr %2, align 8, !noalias !53, !noundef !3
  %i.i.i.i.i.i = load i64, ptr %_5, align 8, !alias.scope !53, !noundef !3
  %new_len.i.i.i.i.i = sub nuw i64 %b.i.i.i.i.i, %i.i.i.i.i.i
  %data.i.i.i.i.i = getelementptr inbounds nuw i8, ptr %_4.val.i.i.i.i.i, i64 %i.i.i.i.i.i
  store i64 %b.i.i.i.i.i, ptr %_5, align 8, !alias.scope !53
  br label %bb5.i.i.i

bb6.i.i.i.i.i:                                    ; preds = %bb2.i.i.i.i.i
  %4 = load i8, ptr %_30.sroa.7.0._5.sroa_idx, align 1, !range !54, !alias.scope !55, !noundef !3
  %_2.i.i.i.i.i.i = trunc nuw i8 %4 to i1
  br i1 %_2.i.i.i.i.i.i, label %_RNvXsH_NtNtCsjMrxcFdYDNN_4core3str4iterINtB5_14SplitInclusivecENtNtNtNtB9_4iter6traits8iterator8Iterator4nextCslwKqnJYeWCA_18build_script_build.exit.thread7.i.i.i, label %bb1.i.i.i.i.i.i

bb1.i.i.i.i.i.i:                                  ; preds = %bb6.i.i.i.i.i
  store i8 1, ptr %_30.sroa.7.0._5.sroa_idx, align 1, !alias.scope !55
  %5 = load i8, ptr %_30.sroa.6.0._5.sroa_idx, align 8, !range !54, !alias.scope !55, !noundef !3
  %_3.i.i.i.i.i.i = trunc nuw i8 %5 to i1
  %i.pre.i.i.i.i.i.i = load i64, ptr %_5, align 8, !alias.scope !55
  %i1.pre.i.i.i.i.i.i = load i64, ptr %_30.sroa.4.0._5.sroa_idx, align 8, !alias.scope !55
  %_4.not.i.i.i.i.i.i = icmp ne i64 %i1.pre.i.i.i.i.i.i, %i.pre.i.i.i.i.i.i
  %or.cond.not.i.i.i.i.i.i = select i1 %_3.i.i.i.i.i.i, i1 true, i1 %_4.not.i.i.i.i.i.i
  br i1 %or.cond.not.i.i.i.i.i.i, label %bb4.i.i.i.i.i.i, label %_RNvXsH_NtNtCsjMrxcFdYDNN_4core3str4iterINtB5_14SplitInclusivecENtNtNtNtB9_4iter6traits8iterator8Iterator4nextCslwKqnJYeWCA_18build_script_build.exit.thread7.i.i.i

bb4.i.i.i.i.i.i:                                  ; preds = %bb1.i.i.i.i.i.i
  %_10.val.i.i.i.i.i.i = load ptr, ptr %_30.sroa.5.0._5.sroa_idx, align 8, !alias.scope !55, !nonnull !3, !align !18, !noundef !3
  %new_len.i.i.i.i.i.i = sub nuw i64 %i1.pre.i.i.i.i.i.i, %i.pre.i.i.i.i.i.i
  %data.i.i.i.i.i.i = getelementptr inbounds nuw i8, ptr %_10.val.i.i.i.i.i.i, i64 %i.pre.i.i.i.i.i.i
  br label %bb5.i.i.i

_RNvXsH_NtNtCsjMrxcFdYDNN_4core3str4iterINtB5_14SplitInclusivecENtNtNtNtB9_4iter6traits8iterator8Iterator4nextCslwKqnJYeWCA_18build_script_build.exit.thread7.i.i.i: ; preds = %bb1.i.i.i.i.i.i, %bb6.i.i.i.i.i
  call void @llvm.lifetime.end.p0(i64 24, ptr nonnull %_5.i.i.i.i.i), !noalias !53
  br label %bb14

bb5.i.i.i:                                        ; preds = %bb4.i.i.i.i.i.i, %bb7.i.i.i.i.i
  %_0.sroa.4.0.i.i.i.i.i = phi i64 [ %new_len.i.i.i.i.i, %bb7.i.i.i.i.i ], [ %new_len.i.i.i.i.i.i, %bb4.i.i.i.i.i.i ]
  %_0.sroa.0.0.i.i.i.i.i = phi ptr [ %data.i.i.i.i.i, %bb7.i.i.i.i.i ], [ %data.i.i.i.i.i.i, %bb4.i.i.i.i.i.i ]
  call void @llvm.lifetime.end.p0(i64 24, ptr nonnull %_5.i.i.i.i.i), !noalias !53
  %6 = insertvalue { ptr, i64 } poison, ptr %_0.sroa.0.0.i.i.i.i.i, 0
  %7 = insertvalue { ptr, i64 } %6, i64 %_0.sroa.4.0.i.i.i.i.i, 1
  %_5.not.i.i.i.i.i.i.i = icmp eq i64 %_0.sroa.4.0.i.i.i.i.i, 0
  br i1 %_5.not.i.i.i.i.i.i.i, label %_RNvXss_NtNtCsjMrxcFdYDNN_4core3str4iterNtB5_5LinesNtNtNtNtB9_4iter6traits8iterator8Iterator4next.exit.i, label %_RNvMNtCsjMrxcFdYDNN_4core5sliceSh9ends_withCslwKqnJYeWCA_18build_script_build.exit.i.i.i.i.i.i

_RNvMNtCsjMrxcFdYDNN_4core5sliceSh9ends_withCslwKqnJYeWCA_18build_script_build.exit.i.i.i.i.i.i: ; preds = %bb5.i.i.i
  %8 = getelementptr i8, ptr %_0.sroa.0.0.i.i.i.i.i, i64 %_0.sroa.4.0.i.i.i.i.i
  %_16.i.i.i.i.i.i.i = getelementptr i8, ptr %8, i64 -1
  %rhsc.i.i.i.i.i.i.i = load i8, ptr %_16.i.i.i.i.i.i.i, align 1, !alias.scope !58, !noalias !67
  %rhsc.i.i.fr.i.i.i.i.i = freeze i8 %rhsc.i.i.i.i.i.i.i
  %9 = icmp eq i8 %rhsc.i.i.fr.i.i.i.i.i, 10
  %i.i.i.i.i.i.i = add i64 %_0.sroa.4.0.i.i.i.i.i, -1
  br i1 %9, label %bb1.i.i.i.i.i, label %_RNvXss_NtNtCsjMrxcFdYDNN_4core3str4iterNtB5_5LinesNtNtNtNtB9_4iter6traits8iterator8Iterator4next.exit.i

bb1.i.i.i.i.i:                                    ; preds = %_RNvMNtCsjMrxcFdYDNN_4core5sliceSh9ends_withCslwKqnJYeWCA_18build_script_build.exit.i.i.i.i.i.i
  %10 = insertvalue { ptr, i64 } %7, i64 %i.i.i.i.i.i.i, 1
  %_5.not.i.i12.i.i.i.i.i = icmp eq i64 %i.i.i.i.i.i.i, 0
  br i1 %_5.not.i.i12.i.i.i.i.i, label %_RNvXst_NtNtCsjMrxcFdYDNN_4core3str7patternReNtB5_7Pattern15strip_suffix_of.exit21.i.i.i.i.i, label %_RNvMNtCsjMrxcFdYDNN_4core5sliceSh9ends_withCslwKqnJYeWCA_18build_script_build.exit.i13.i.i.i.i.i

_RNvMNtCsjMrxcFdYDNN_4core5sliceSh9ends_withCslwKqnJYeWCA_18build_script_build.exit.i13.i.i.i.i.i: ; preds = %bb1.i.i.i.i.i
  %11 = getelementptr i8, ptr %_0.sroa.0.0.i.i.i.i.i, i64 %i.i.i.i.i.i.i
  %_16.i.i14.i.i.i.i.i = getelementptr i8, ptr %11, i64 -1
  %rhsc.i.i16.i.i.i.i.i = load i8, ptr %_16.i.i14.i.i.i.i.i, align 1, !alias.scope !70, !noalias !75
  %rhsc.i.i16.fr.i.i.i.i.i = freeze i8 %rhsc.i.i16.i.i.i.i.i
  %12 = icmp eq i8 %rhsc.i.i16.fr.i.i.i.i.i, 13
  %i.i17.i.i.i.i.i = add i64 %_0.sroa.4.0.i.i.i.i.i, -2
  %spec.select.i19.i.i.i.i.i = select i1 %12, ptr %_0.sroa.0.0.i.i.i.i.i, ptr null
  br label %_RNvXst_NtNtCsjMrxcFdYDNN_4core3str7patternReNtB5_7Pattern15strip_suffix_of.exit21.i.i.i.i.i

_RNvXst_NtNtCsjMrxcFdYDNN_4core3str7patternReNtB5_7Pattern15strip_suffix_of.exit21.i.i.i.i.i: ; preds = %_RNvMNtCsjMrxcFdYDNN_4core5sliceSh9ends_withCslwKqnJYeWCA_18build_script_build.exit.i13.i.i.i.i.i, %bb1.i.i.i.i.i
  %i4.i20.i.i.i.i.i = phi i64 [ %i.i17.i.i.i.i.i, %_RNvMNtCsjMrxcFdYDNN_4core5sliceSh9ends_withCslwKqnJYeWCA_18build_script_build.exit.i13.i.i.i.i.i ], [ -1, %bb1.i.i.i.i.i ]
  %13 = phi ptr [ %spec.select.i19.i.i.i.i.i, %_RNvMNtCsjMrxcFdYDNN_4core5sliceSh9ends_withCslwKqnJYeWCA_18build_script_build.exit.i13.i.i.i.i.i ], [ null, %bb1.i.i.i.i.i ]
  %14 = insertvalue { ptr, i64 } poison, ptr %13, 0
  %15 = insertvalue { ptr, i64 } %14, i64 %i4.i20.i.i.i.i.i, 1
  %.not11.i.i.i.i.i = icmp eq ptr %13, null
  %..i.i.i.i.i = select i1 %.not11.i.i.i.i.i, { ptr, i64 } %10, { ptr, i64 } %15
  br label %_RNvXss_NtNtCsjMrxcFdYDNN_4core3str4iterNtB5_5LinesNtNtNtNtB9_4iter6traits8iterator8Iterator4next.exit.i

_RNvXss_NtNtCsjMrxcFdYDNN_4core3str4iterNtB5_5LinesNtNtNtNtB9_4iter6traits8iterator8Iterator4next.exit.i: ; preds = %_RNvXst_NtNtCsjMrxcFdYDNN_4core3str7patternReNtB5_7Pattern15strip_suffix_of.exit21.i.i.i.i.i, %_RNvMNtCsjMrxcFdYDNN_4core5sliceSh9ends_withCslwKqnJYeWCA_18build_script_build.exit.i.i.i.i.i.i, %bb5.i.i.i
  %.merged.i.i.i.i.i = phi { ptr, i64 } [ %..i.i.i.i.i, %_RNvXst_NtNtCsjMrxcFdYDNN_4core3str7patternReNtB5_7Pattern15strip_suffix_of.exit21.i.i.i.i.i ], [ %7, %_RNvMNtCsjMrxcFdYDNN_4core5sliceSh9ends_withCslwKqnJYeWCA_18build_script_build.exit.i.i.i.i.i.i ], [ %7, %bb5.i.i.i ]
  %_7.0.i.i.i = extractvalue { ptr, i64 } %.merged.i.i.i.i.i, 0
  %_7.1.i.i.i = extractvalue { ptr, i64 } %.merged.i.i.i.i.i, 1
  %.not.i = icmp eq ptr %_7.0.i.i.i, null
  br i1 %.not.i, label %bb14, label %bb3.i

bb3.i:                                            ; preds = %_RNvXss_NtNtCsjMrxcFdYDNN_4core3str4iterNtB5_5LinesNtNtNtNtB9_4iter6traits8iterator8Iterator4next.exit.i
  %_4.not.i.i.i.i = icmp samesign ult i64 %_7.1.i.i.i, 14
  br i1 %_4.not.i.i.i.i, label %_RNCINvNvNtNtNtNtCsjMrxcFdYDNN_4core4iter6traits8iterator8Iterator4find5checkReNCNCNvMNtCslwKqnJYeWCA_18build_script_build7versionNtB1l_7Version5parses0_00E0B1n_.exit.i, label %_RNCNCNvMNtCslwKqnJYeWCA_18build_script_build7versionNtB6_7Version5parses0_00B8_.exit.i.i

_RNCNCNvMNtCslwKqnJYeWCA_18build_script_build7versionNtB6_7Version5parses0_00B8_.exit.i.i: ; preds = %bb3.i
  %16 = tail call i32 @memcmp(ptr noundef nonnull readonly align 1 dereferenceable(14) @alloc_1d8e296db13ccc3871d7443d7beb0b2f, ptr noundef nonnull readonly align 1 dereferenceable(14) %_7.0.i.i.i, i64 range(i64 0, -9223372036854775808) 14), !alias.scope !78, !noalias !38
  %.fr.i.i = freeze i32 %16
  %17 = icmp eq i32 %.fr.i.i, 0
  br i1 %17, label %bb9, label %_RNCINvNvNtNtNtNtCsjMrxcFdYDNN_4core4iter6traits8iterator8Iterator4find5checkReNCNCNvMNtCslwKqnJYeWCA_18build_script_build7versionNtB1l_7Version5parses0_00E0B1n_.exit.i

_RNCINvNvNtNtNtNtCsjMrxcFdYDNN_4core4iter6traits8iterator8Iterator4find5checkReNCNCNvMNtCslwKqnJYeWCA_18build_script_build7versionNtB1l_7Version5parses0_00E0B1n_.exit.i: ; preds = %_RNCNCNvMNtCslwKqnJYeWCA_18build_script_build7versionNtB6_7Version5parses0_00B8_.exit.i.i, %bb3.i
  %18 = load i8, ptr %_30.sroa.7.0._5.sroa_idx, align 1, !range !54, !alias.scope !85, !noundef !3
  %_2.i.i.i.i.i = trunc nuw i8 %18 to i1
  br i1 %_2.i.i.i.i.i, label %bb14, label %bb2.i.i.i.i.i

bb9:                                              ; preds = %_RNCNCNvMNtCslwKqnJYeWCA_18build_script_build7versionNtB6_7Version5parses0_00B8_.exit.i.i
  %_8.not.i.not = icmp eq i64 %_7.1.i.i.i, 14
  br i1 %_8.not.i.not, label %bb18, label %bb9.i

bb9.i:                                            ; preds = %bb9
  %19 = getelementptr inbounds nuw i8, ptr %_7.0.i.i.i, i64 14
  %self1.i = load i8, ptr %19, align 1, !alias.scope !90, !noundef !3
  %20 = icmp sgt i8 %self1.i, -65
  br i1 %20, label %bb18, label %bb12

bb14:                                             ; preds = %_RNvXss_NtNtCsjMrxcFdYDNN_4core3str4iterNtB5_5LinesNtNtNtNtB9_4iter6traits8iterator8Iterator4next.exit.i, %_RNCINvNvNtNtNtNtCsjMrxcFdYDNN_4core4iter6traits8iterator8Iterator4find5checkReNCNCNvMNtCslwKqnJYeWCA_18build_script_build7versionNtB1l_7Version5parses0_00E0B1n_.exit.i, %_RNvXsH_NtNtCsjMrxcFdYDNN_4core3str4iterINtB5_14SplitInclusivecENtNtNtNtB9_4iter6traits8iterator8Iterator4nextCslwKqnJYeWCA_18build_script_build.exit.thread7.i.i.i
  call void @llvm.lifetime.end.p0(i64 72, ptr nonnull %_5)
  br label %bb6

bb12:                                             ; preds = %bb9.i
; call core::str::slice_error_fail
  tail call void @_RNvNtCsjMrxcFdYDNN_4core3str16slice_error_fail(ptr noalias noundef nonnull readonly align 1 captures(address, read_provenance) %_7.0.i.i.i, i64 noundef %_7.1.i.i.i, i64 noundef 14, i64 noundef %_7.1.i.i.i, ptr noalias noundef readonly align 8 captures(address, read_provenance) dereferenceable(24) @alloc_954cd85162064372f588eb6b0cd0c8e9) #29
  unreachable

bb6:                                              ; preds = %bb5, %bb50, %bb14
  %_0.sroa.8.0 = phi i32 [ undef, %bb5 ], [ %_0.sroa.8.0.insert.insert.i, %bb50 ], [ undef, %bb14 ]
  %_0.sroa.0.0 = phi i32 [ 0, %bb5 ], [ 1, %bb50 ], [ 0, %bb14 ]
  %21 = insertvalue { i32, i32 } poison, i32 %_0.sroa.0.0, 0
  %22 = insertvalue { i32, i32 } %21, i32 %_0.sroa.8.0, 1
  ret { i32, i32 } %22

bb18:                                             ; preds = %bb9, %bb9.i
  %new_len.i = add i64 %_7.1.i.i.i, -14
  %data.i = getelementptr inbounds nuw i8, ptr %_7.0.i.i.i, i64 14
  call void @llvm.lifetime.end.p0(i64 72, ptr nonnull %_5)
  call void @llvm.lifetime.start.p0(i64 80, ptr nonnull %digits)
  %_50.sroa.4.0.digits.sroa_idx = getelementptr inbounds nuw i8, ptr %digits, i64 8
  %_50.sroa.4.sroa.4.0._50.sroa.4.0.digits.sroa_idx.sroa_idx = getelementptr inbounds nuw i8, ptr %digits, i64 16
  store i64 %new_len.i, ptr %_50.sroa.4.sroa.4.0._50.sroa.4.0.digits.sroa_idx.sroa_idx, align 16
  %_50.sroa.4.sroa.5.0._50.sroa.4.0.digits.sroa_idx.sroa_idx = getelementptr inbounds nuw i8, ptr %digits, i64 24
  store ptr %data.i, ptr %_50.sroa.4.sroa.5.0._50.sroa.4.0.digits.sroa_idx.sroa_idx, align 8
  %_50.sroa.4.sroa.5.sroa.4.0._50.sroa.4.sroa.5.0._50.sroa.4.0.digits.sroa_idx.sroa_idx.sroa_idx = getelementptr inbounds nuw i8, ptr %digits, i64 32
  store i64 %new_len.i, ptr %_50.sroa.4.sroa.5.sroa.4.0._50.sroa.4.sroa.5.0._50.sroa.4.0.digits.sroa_idx.sroa_idx.sroa_idx, align 16
  %_50.sroa.4.sroa.5.sroa.5.0._50.sroa.4.sroa.5.0._50.sroa.4.0.digits.sroa_idx.sroa_idx.sroa_idx = getelementptr inbounds nuw i8, ptr %digits, i64 40
  store i64 0, ptr %_50.sroa.4.sroa.5.sroa.5.0._50.sroa.4.sroa.5.0._50.sroa.4.0.digits.sroa_idx.sroa_idx.sroa_idx, align 8
  %_50.sroa.4.sroa.5.sroa.6.0._50.sroa.4.sroa.5.0._50.sroa.4.0.digits.sroa_idx.sroa_idx.sroa_idx = getelementptr inbounds nuw i8, ptr %digits, i64 48
  store i64 %new_len.i, ptr %_50.sroa.4.sroa.5.sroa.6.0._50.sroa.4.sroa.5.0._50.sroa.4.0.digits.sroa_idx.sroa_idx.sroa_idx, align 16
  %_50.sroa.4.sroa.5.sroa.7.0._50.sroa.4.sroa.5.0._50.sroa.4.0.digits.sroa_idx.sroa_idx.sroa_idx = getelementptr inbounds nuw i8, ptr %digits, i64 56
  store <2 x i32> splat (i32 46), ptr %_50.sroa.4.sroa.5.sroa.7.0._50.sroa.4.sroa.5.0._50.sroa.4.0.digits.sroa_idx.sroa_idx.sroa_idx, align 8
  %_50.sroa.4.sroa.5.sroa.9.0._50.sroa.4.sroa.5.0._50.sroa.4.0.digits.sroa_idx.sroa_idx.sroa_idx = getelementptr inbounds nuw i8, ptr %digits, i64 64
  store i8 1, ptr %_50.sroa.4.sroa.5.sroa.9.0._50.sroa.4.sroa.5.0._50.sroa.4.0.digits.sroa_idx.sroa_idx.sroa_idx, align 16
  %_50.sroa.4.sroa.6.0._50.sroa.4.0.digits.sroa_idx.sroa_idx = getelementptr inbounds nuw i8, ptr %digits, i64 72
  store i8 1, ptr %_50.sroa.4.sroa.6.0._50.sroa.4.0.digits.sroa_idx.sroa_idx, align 8
  %_50.sroa.4.sroa.7.0._50.sroa.4.0.digits.sroa_idx.sroa_idx = getelementptr inbounds nuw i8, ptr %digits, i64 73
  store i8 0, ptr %_50.sroa.4.sroa.7.0._50.sroa.4.0.digits.sroa_idx.sroa_idx, align 1
  store <2 x i64> <i64 2, i64 0>, ptr %digits, align 16
  tail call void @llvm.experimental.noalias.scope.decl(metadata !93)
  call void @llvm.lifetime.start.p0(i64 24, ptr nonnull %_5.i), !noalias !93
; call <core::str::pattern::CharSearcher as core::str::pattern::Searcher>::next_match
  call fastcc void @_RNvXs_NtNtCsjMrxcFdYDNN_4core3str7patternNtB4_12CharSearcherNtB4_8Searcher10next_match(ptr noalias noundef align 8 captures(none) dereferenceable(24) %_5.i, ptr noalias noundef align 8 dereferenceable(48) %_50.sroa.4.sroa.5.0._50.sroa.4.0.digits.sroa_idx.sroa_idx) #28
  %_7.i = load i64, ptr %_5.i, align 8, !range !37, !noalias !93, !noundef !3
  %23 = trunc nuw i64 %_7.i to i1
  br i1 %23, label %bb7.i, label %bb6.i37

bb7.i:                                            ; preds = %bb18
  %24 = getelementptr inbounds nuw i8, ptr %_5.i, i64 8
  %a.i = load i64, ptr %24, align 8, !noalias !93, !noundef !3
  %25 = getelementptr inbounds nuw i8, ptr %_5.i, i64 16
  %b.i = load i64, ptr %25, align 8, !noalias !93, !noundef !3
  %i.i = load i64, ptr %_50.sroa.4.0.digits.sroa_idx, align 8, !alias.scope !93, !noundef !3
  %new_len.i40 = sub nuw i64 %a.i, %i.i
  %data.i41 = getelementptr inbounds nuw i8, ptr %data.i, i64 %i.i
  store i64 %b.i, ptr %_50.sroa.4.0.digits.sroa_idx, align 8, !alias.scope !93
  br label %bb24

bb6.i37:                                          ; preds = %bb18
  %26 = load i8, ptr %_50.sroa.4.sroa.7.0._50.sroa.4.0.digits.sroa_idx.sroa_idx, align 1, !range !54, !alias.scope !96, !noundef !3
  %_2.i.i = trunc nuw i8 %26 to i1
  br i1 %_2.i.i, label %bb8.i.thread, label %bb1.i.i

bb1.i.i:                                          ; preds = %bb6.i37
  store i8 1, ptr %_50.sroa.4.sroa.7.0._50.sroa.4.0.digits.sroa_idx.sroa_idx, align 1, !alias.scope !96
  %27 = load i8, ptr %_50.sroa.4.sroa.6.0._50.sroa.4.0.digits.sroa_idx.sroa_idx, align 8, !range !54, !alias.scope !96, !noundef !3
  %_3.i.i = trunc nuw i8 %27 to i1
  %i.pre.i.i = load i64, ptr %_50.sroa.4.0.digits.sroa_idx, align 8, !alias.scope !96
  %i1.pre.i.i = load i64, ptr %_50.sroa.4.sroa.4.0._50.sroa.4.0.digits.sroa_idx.sroa_idx, align 16, !alias.scope !96
  %_4.not.i.i = icmp ne i64 %i1.pre.i.i, %i.pre.i.i
  %or.cond.not.i.i = select i1 %_3.i.i, i1 true, i1 %_4.not.i.i
  br i1 %or.cond.not.i.i, label %bb4.i.i, label %bb8.i.thread

bb4.i.i:                                          ; preds = %bb1.i.i
  %_10.val.i.i = load ptr, ptr %_50.sroa.4.sroa.5.0._50.sroa.4.0.digits.sroa_idx.sroa_idx, align 8, !alias.scope !96, !nonnull !3, !align !18, !noundef !3
  %new_len.i.i = sub nuw i64 %i1.pre.i.i, %i.pre.i.i
  %data.i.i = getelementptr inbounds nuw i8, ptr %_10.val.i.i, i64 %i.pre.i.i
  br label %bb24

bb8.i.thread:                                     ; preds = %bb6.i37, %bb1.i.i
  call void @llvm.lifetime.end.p0(i64 24, ptr nonnull %_5.i), !noalias !93
  br label %bb5

bb24:                                             ; preds = %bb7.i, %bb4.i.i
  %_0.sroa.4.0.i = phi i64 [ %new_len.i40, %bb7.i ], [ %new_len.i.i, %bb4.i.i ]
  %_0.sroa.0.0.i38 = phi ptr [ %data.i41, %bb7.i ], [ %data.i.i, %bb4.i.i ]
  call void @llvm.lifetime.end.p0(i64 24, ptr nonnull %_5.i), !noalias !93
  switch i64 %_0.sroa.4.0.i, label %bb9thread-pre-split.i [
    i64 0, label %bb5
    i64 1, label %bb7.i48
  ]

bb7.i48:                                          ; preds = %bb24
  %28 = load i8, ptr %_0.sroa.0.0.i38, align 1, !alias.scope !99, !noundef !3
  switch i8 %28, label %bb9.i50 [
    i8 43, label %bb5
    i8 45, label %bb5
  ]

bb9thread-pre-split.i:                            ; preds = %bb24
  %.pr.i = load i8, ptr %_0.sroa.0.0.i38, align 1, !alias.scope !99
  br label %bb9.i50

bb9.i50:                                          ; preds = %bb9thread-pre-split.i, %bb7.i48
  %29 = phi i8 [ %.pr.i, %bb9thread-pre-split.i ], [ %28, %bb7.i48 ]
  %cond.i = icmp eq i8 %29, 43
  %rest.1.i = sext i1 %cond.i to i64
  %src.sroa.15.0.i = add nsw i64 %_0.sroa.4.0.i, %rest.1.i
  %src.sroa.0.0.idx.i = zext i1 %cond.i to i64
  %src.sroa.0.0.i = getelementptr inbounds nuw i8, ptr %_0.sroa.0.0.i38, i64 %src.sroa.0.0.idx.i
  %_10.i51 = icmp samesign ult i64 %src.sroa.15.0.i, 9
  br i1 %_10.i51, label %bb15.preheader.i, label %bb22.i

bb15.preheader.i:                                 ; preds = %bb9.i50
  %_13.not56.i = icmp eq i64 %src.sroa.15.0.i, 0
  br i1 %_13.not56.i, label %bb27, label %bb16.i

bb22.i:                                           ; preds = %bb9.i50, %bb33.i
  %result.sroa.0.0.i = phi i32 [ %_60.0.i, %bb33.i ], [ 0, %bb9.i50 ]
  %src.sroa.15.1.i = phi i64 [ %rest.12.i, %bb33.i ], [ %src.sroa.15.0.i, %bb9.i50 ]
  %src.sroa.0.1.i = phi ptr [ %rest.01.i, %bb33.i ], [ %src.sroa.0.0.i, %bb9.i50 ]
  %_28.not.i.not = icmp eq i64 %src.sroa.15.1.i, 0
  br i1 %_28.not.i.not, label %bb27, label %bb23.i

bb23.i:                                           ; preds = %bb22.i
  %30 = tail call { i32, i1 } @llvm.umul.with.overflow.i32(i32 %result.sroa.0.0.i, i32 10)
  %_57.1.i = extractvalue { i32, i1 } %30, 1
  br i1 %_57.1.i, label %bb5, label %bb33.i, !prof !102

bb33.i:                                           ; preds = %bb23.i
  %_57.0.i = extractvalue { i32, i1 } %30, 0
  %rest.12.i = add nsw i64 %src.sroa.15.1.i, -1
  %rest.01.i = getelementptr inbounds nuw i8, ptr %src.sroa.0.1.i, i64 1
  %31 = load i8, ptr %src.sroa.0.1.i, align 1, !alias.scope !99, !noundef !3
  %32 = zext i8 %31 to i32
  %33 = add nsw i32 %32, -48
  %_14.i.i = icmp ugt i32 %33, 9
  %_60.0.i = add i32 %33, %_57.0.i
  %_60.1.i = icmp ult i32 %_60.0.i, %_57.0.i
  %or.cond = select i1 %_14.i.i, i1 true, i1 %_60.1.i
  br i1 %or.cond, label %bb5, label %bb22.i, !prof !103

bb16.i:                                           ; preds = %bb15.preheader.i, %bb20.i
  %src.sroa.0.259.i = phi ptr [ %rest.04.i, %bb20.i ], [ %src.sroa.0.0.i, %bb15.preheader.i ]
  %src.sroa.15.258.i = phi i64 [ %rest.15.i, %bb20.i ], [ %src.sroa.15.0.i, %bb15.preheader.i ]
  %result.sroa.0.257.i = phi i32 [ %36, %bb20.i ], [ 0, %bb15.preheader.i ]
  %_19.i = load i8, ptr %src.sroa.0.259.i, align 1, !alias.scope !99, !noundef !3
  %_18.i = zext i8 %_19.i to i32
  %34 = add nsw i32 %_18.i, -48
  %_14.i47.i = icmp ugt i32 %34, 9
  br i1 %_14.i47.i, label %bb5, label %bb20.i

bb20.i:                                           ; preds = %bb16.i
  %35 = mul i32 %result.sroa.0.257.i, 10
  %rest.15.i = add nsw i64 %src.sroa.15.258.i, -1
  %rest.04.i = getelementptr inbounds nuw i8, ptr %src.sroa.0.259.i, i64 1
  %36 = add i32 %34, %35
  %_13.not.i = icmp eq i64 %rest.15.i, 0
  br i1 %_13.not.i, label %bb27, label %bb16.i

bb27:                                             ; preds = %bb22.i, %bb20.i, %bb15.preheader.i
  %_0.sroa.8.0.insert.insert.i = phi i32 [ 0, %bb15.preheader.i ], [ %36, %bb20.i ], [ %result.sroa.0.0.i, %bb22.i ]
  %37 = load i64, ptr %digits, align 16, !noundef !3
  switch i64 %37, label %bb29 [
    i64 0, label %bb5
    i64 1, label %bb30
  ]

bb29:                                             ; preds = %bb27
  %38 = add i64 %37, -1
  store i64 %38, ptr %digits, align 16
  tail call void @llvm.experimental.noalias.scope.decl(metadata !104)
  %39 = load i8, ptr %_50.sroa.4.sroa.7.0._50.sroa.4.0.digits.sroa_idx.sroa_idx, align 1, !range !54, !alias.scope !104, !noundef !3
  %_2.i53 = trunc nuw i8 %39 to i1
  br i1 %_2.i53, label %bb5, label %bb2.i54

bb2.i54:                                          ; preds = %bb29
  %_4.val.i56 = load ptr, ptr %_50.sroa.4.sroa.5.0._50.sroa.4.0.digits.sroa_idx.sroa_idx, align 8, !alias.scope !104, !nonnull !3, !align !18, !noundef !3
  call void @llvm.lifetime.start.p0(i64 24, ptr nonnull %_5.i52), !noalias !104
; call <core::str::pattern::CharSearcher as core::str::pattern::Searcher>::next_match
  call fastcc void @_RNvXs_NtNtCsjMrxcFdYDNN_4core3str7patternNtB4_12CharSearcherNtB4_8Searcher10next_match(ptr noalias noundef align 8 captures(none) dereferenceable(24) %_5.i52, ptr noalias noundef align 8 dereferenceable(48) %_50.sroa.4.sroa.5.0._50.sroa.4.0.digits.sroa_idx.sroa_idx) #28
  %_7.i57 = load i64, ptr %_5.i52, align 8, !range !37, !noalias !104, !noundef !3
  %40 = trunc nuw i64 %_7.i57 to i1
  br i1 %40, label %bb7.i77, label %bb6.i58

bb7.i77:                                          ; preds = %bb2.i54
  %41 = getelementptr inbounds nuw i8, ptr %_5.i52, i64 8
  %a.i78 = load i64, ptr %41, align 8, !noalias !104, !noundef !3
  %42 = getelementptr inbounds nuw i8, ptr %_5.i52, i64 16
  %b.i79 = load i64, ptr %42, align 8, !noalias !104, !noundef !3
  %i.i80 = load i64, ptr %_50.sroa.4.0.digits.sroa_idx, align 8, !alias.scope !104, !noundef !3
  %new_len.i81 = sub nuw i64 %a.i78, %i.i80
  %data.i82 = getelementptr inbounds nuw i8, ptr %_4.val.i56, i64 %i.i80
  store i64 %b.i79, ptr %_50.sroa.4.0.digits.sroa_idx, align 8, !alias.scope !104
  br label %bb28

bb6.i58:                                          ; preds = %bb2.i54
  %43 = load i8, ptr %_50.sroa.4.sroa.7.0._50.sroa.4.0.digits.sroa_idx.sroa_idx, align 1, !range !54, !alias.scope !107, !noundef !3
  %_2.i.i59 = trunc nuw i8 %43 to i1
  br i1 %_2.i.i59, label %bb28.thread52, label %bb1.i.i60

bb1.i.i60:                                        ; preds = %bb6.i58
  store i8 1, ptr %_50.sroa.4.sroa.7.0._50.sroa.4.0.digits.sroa_idx.sroa_idx, align 1, !alias.scope !107
  %44 = load i8, ptr %_50.sroa.4.sroa.6.0._50.sroa.4.0.digits.sroa_idx.sroa_idx, align 8, !range !54, !alias.scope !107, !noundef !3
  %_3.i.i61 = trunc nuw i8 %44 to i1
  %i.pre.i.i62 = load i64, ptr %_50.sroa.4.0.digits.sroa_idx, align 8, !alias.scope !107
  %i1.pre.i.i64 = load i64, ptr %_50.sroa.4.sroa.4.0._50.sroa.4.0.digits.sroa_idx.sroa_idx, align 16, !alias.scope !107
  %_4.not.i.i65 = icmp ne i64 %i1.pre.i.i64, %i.pre.i.i62
  %or.cond.not.i.i66 = select i1 %_3.i.i61, i1 true, i1 %_4.not.i.i65
  br i1 %or.cond.not.i.i66, label %bb4.i.i73, label %bb28.thread52

bb4.i.i73:                                        ; preds = %bb1.i.i60
  %_10.val.i.i74 = load ptr, ptr %_50.sroa.4.sroa.5.0._50.sroa.4.0.digits.sroa_idx.sroa_idx, align 8, !alias.scope !107, !nonnull !3, !align !18, !noundef !3
  %new_len.i.i75 = sub nuw i64 %i1.pre.i.i64, %i.pre.i.i62
  %data.i.i76 = getelementptr inbounds nuw i8, ptr %_10.val.i.i74, i64 %i.pre.i.i62
  br label %bb28

bb30:                                             ; preds = %bb27
  store i64 0, ptr %digits, align 16
  %45 = load i8, ptr %_50.sroa.4.sroa.7.0._50.sroa.4.0.digits.sroa_idx.sroa_idx, align 1, !range !54, !alias.scope !110, !noundef !3
  %_2.i84 = trunc nuw i8 %45 to i1
  br i1 %_2.i84, label %bb5, label %bb1.i85

bb1.i85:                                          ; preds = %bb30
  store i8 1, ptr %_50.sroa.4.sroa.7.0._50.sroa.4.0.digits.sroa_idx.sroa_idx, align 1, !alias.scope !110
  %46 = load i8, ptr %_50.sroa.4.sroa.6.0._50.sroa.4.0.digits.sroa_idx.sroa_idx, align 8, !range !54, !alias.scope !110, !noundef !3
  %_3.i86 = trunc nuw i8 %46 to i1
  %i.pre.i87 = load i64, ptr %_50.sroa.4.0.digits.sroa_idx, align 8, !alias.scope !110
  %i1.pre.i89 = load i64, ptr %_50.sroa.4.sroa.4.0._50.sroa.4.0.digits.sroa_idx.sroa_idx, align 16, !alias.scope !110
  %_4.not.i90 = icmp ne i64 %i1.pre.i89, %i.pre.i87
  %or.cond.not.i91 = select i1 %_3.i86, i1 true, i1 %_4.not.i90
  br i1 %or.cond.not.i91, label %bb28.thread45, label %bb5

bb28.thread45:                                    ; preds = %bb1.i85
  %_10.val.i97 = load ptr, ptr %_50.sroa.4.sroa.5.0._50.sroa.4.0.digits.sroa_idx.sroa_idx, align 8, !alias.scope !110, !nonnull !3, !align !18, !noundef !3
  %new_len.i98 = sub nuw i64 %i1.pre.i89, %i.pre.i87
  %data.i99 = getelementptr inbounds nuw i8, ptr %_10.val.i97, i64 %i.pre.i87
  br label %bb35

bb28.thread52:                                    ; preds = %bb6.i58, %bb1.i.i60
  call void @llvm.lifetime.end.p0(i64 24, ptr nonnull %_5.i52), !noalias !104
  br label %bb5

bb28:                                             ; preds = %bb7.i77, %bb4.i.i73
  %_0.sroa.4.0.i68 = phi i64 [ %new_len.i81, %bb7.i77 ], [ %new_len.i.i75, %bb4.i.i73 ]
  %_0.sroa.0.0.i69 = phi ptr [ %data.i82, %bb7.i77 ], [ %data.i.i76, %bb4.i.i73 ]
  call void @llvm.lifetime.end.p0(i64 24, ptr nonnull %_5.i52), !noalias !104
  br label %bb35

bb35:                                             ; preds = %bb28, %bb28.thread45
  %_0.sroa.4.1.i71.pn50 = phi i64 [ %new_len.i98, %bb28.thread45 ], [ %_0.sroa.4.0.i68, %bb28 ]
  %_0.sroa.0.1.i72.pn49 = phi ptr [ %data.i99, %bb28.thread45 ], [ %_0.sroa.0.0.i69, %bb28 ]
  switch i64 %_0.sroa.4.1.i71.pn50, label %bb9thread-pre-split.i145 [
    i64 0, label %bb5
    i64 1, label %bb7.i101
  ]

bb7.i101:                                         ; preds = %bb35
  %47 = load i8, ptr %_0.sroa.0.1.i72.pn49, align 1, !alias.scope !113, !noundef !3
  switch i8 %47, label %bb9.i105 [
    i8 43, label %bb5
    i8 45, label %bb5
  ]

bb9thread-pre-split.i145:                         ; preds = %bb35
  %.pr.i146 = load i8, ptr %_0.sroa.0.1.i72.pn49, align 1, !alias.scope !113
  br label %bb9.i105

bb9.i105:                                         ; preds = %bb9thread-pre-split.i145, %bb7.i101
  %48 = phi i8 [ %.pr.i146, %bb9thread-pre-split.i145 ], [ %47, %bb7.i101 ]
  %cond.i106 = icmp eq i8 %48, 43
  %rest.1.i107 = sext i1 %cond.i106 to i64
  %src.sroa.15.0.i108 = add nsw i64 %_0.sroa.4.1.i71.pn50, %rest.1.i107
  %src.sroa.0.0.idx.i109 = zext i1 %cond.i106 to i64
  %src.sroa.0.0.i110 = getelementptr inbounds nuw i8, ptr %_0.sroa.0.1.i72.pn49, i64 %src.sroa.0.0.idx.i109
  %_10.i111 = icmp samesign ult i64 %src.sroa.15.0.i108, 9
  br i1 %_10.i111, label %bb15.preheader.i132, label %bb22.i112

bb15.preheader.i132:                              ; preds = %bb9.i105
  %_13.not56.i133 = icmp eq i64 %src.sroa.15.0.i108, 0
  br i1 %_13.not56.i133, label %bb38, label %bb16.i134

bb22.i112:                                        ; preds = %bb9.i105, %bb33.i122
  %result.sroa.0.0.i113 = phi i32 [ %_60.0.i125, %bb33.i122 ], [ 0, %bb9.i105 ]
  %src.sroa.15.1.i114 = phi i64 [ %rest.12.i119, %bb33.i122 ], [ %src.sroa.15.0.i108, %bb9.i105 ]
  %src.sroa.0.1.i115 = phi ptr [ %rest.01.i118, %bb33.i122 ], [ %src.sroa.0.0.i110, %bb9.i105 ]
  %_28.not.i116 = icmp eq i64 %src.sroa.15.1.i114, 0
  br i1 %_28.not.i116, label %bb38, label %bb23.i117

bb23.i117:                                        ; preds = %bb22.i112
  %49 = tail call { i32, i1 } @llvm.umul.with.overflow.i32(i32 %result.sroa.0.0.i113, i32 10)
  %_57.1.i121 = extractvalue { i32, i1 } %49, 1
  br i1 %_57.1.i121, label %bb5, label %bb33.i122, !prof !102

bb33.i122:                                        ; preds = %bb23.i117
  %_57.0.i120 = extractvalue { i32, i1 } %49, 0
  %rest.12.i119 = add nsw i64 %src.sroa.15.1.i114, -1
  %rest.01.i118 = getelementptr inbounds nuw i8, ptr %src.sroa.0.1.i115, i64 1
  %50 = load i8, ptr %src.sroa.0.1.i115, align 1, !alias.scope !113, !noundef !3
  %51 = zext i8 %50 to i32
  %52 = add nsw i32 %51, -48
  %_14.i.i123 = icmp ugt i32 %52, 9
  %_60.0.i125 = add i32 %52, %_57.0.i120
  %_60.1.i126 = icmp ult i32 %_60.0.i125, %_57.0.i120
  %or.cond14 = select i1 %_14.i.i123, i1 true, i1 %_60.1.i126
  br i1 %or.cond14, label %bb5, label %bb22.i112, !prof !103

bb16.i134:                                        ; preds = %bb15.preheader.i132, %bb20.i141
  %src.sroa.0.259.i135 = phi ptr [ %rest.04.i143, %bb20.i141 ], [ %src.sroa.0.0.i110, %bb15.preheader.i132 ]
  %src.sroa.15.258.i136 = phi i64 [ %rest.15.i142, %bb20.i141 ], [ %src.sroa.15.0.i108, %bb15.preheader.i132 ]
  %_19.i138 = load i8, ptr %src.sroa.0.259.i135, align 1, !alias.scope !113, !noundef !3
  %53 = add i8 %_19.i138, -48
  %_14.i47.i140 = icmp ult i8 %53, 10
  br i1 %_14.i47.i140, label %bb20.i141, label %bb5

bb20.i141:                                        ; preds = %bb16.i134
  %rest.15.i142 = add nsw i64 %src.sroa.15.258.i136, -1
  %rest.04.i143 = getelementptr inbounds nuw i8, ptr %src.sroa.0.259.i135, i64 1
  %_13.not.i144 = icmp eq i64 %rest.15.i142, 0
  br i1 %_13.not.i144, label %bb38, label %bb16.i134

bb38:                                             ; preds = %bb22.i112, %bb20.i141, %bb15.preheader.i132
  %54 = load i64, ptr %digits, align 16, !noundef !3
  switch i64 %54, label %bb40 [
    i64 0, label %bb7.i165
    i64 1, label %bb41
  ]

bb40:                                             ; preds = %bb38
  %55 = add i64 %54, -1
  store i64 %55, ptr %digits, align 16
; call <core::str::iter::SplitInternal<char>>::next
  %56 = call fastcc { ptr, i64 } @_RNvMsf_NtNtCsjMrxcFdYDNN_4core3str4iterINtB5_13SplitInternalcE4nextCslwKqnJYeWCA_18build_script_build(ptr noalias noundef align 8 dereferenceable(72) %_50.sroa.4.0.digits.sroa_idx) #28
  br label %bb39

bb41:                                             ; preds = %bb38
  store i64 0, ptr %digits, align 16
  %57 = load i8, ptr %_50.sroa.4.sroa.7.0._50.sroa.4.0.digits.sroa_idx.sroa_idx, align 1, !range !54, !alias.scope !116, !noundef !3
  %_2.i148 = trunc nuw i8 %57 to i1
  br i1 %_2.i148, label %_RNvMsf_NtNtCsjMrxcFdYDNN_4core3str4iterINtB5_13SplitInternalcE7get_endCslwKqnJYeWCA_18build_script_build.exit164, label %bb1.i149

bb1.i149:                                         ; preds = %bb41
  store i8 1, ptr %_50.sroa.4.sroa.7.0._50.sroa.4.0.digits.sroa_idx.sroa_idx, align 1, !alias.scope !116
  %58 = load i8, ptr %_50.sroa.4.sroa.6.0._50.sroa.4.0.digits.sroa_idx.sroa_idx, align 8, !range !54, !alias.scope !116, !noundef !3
  %_3.i150 = trunc nuw i8 %58 to i1
  %i.pre.i151 = load i64, ptr %_50.sroa.4.0.digits.sroa_idx, align 8, !alias.scope !116
  %i1.pre.i153 = load i64, ptr %_50.sroa.4.sroa.4.0._50.sroa.4.0.digits.sroa_idx.sroa_idx, align 16, !alias.scope !116
  %_4.not.i154 = icmp ne i64 %i1.pre.i153, %i.pre.i151
  %or.cond.not.i155 = select i1 %_3.i150, i1 true, i1 %_4.not.i154
  br i1 %or.cond.not.i155, label %bb4.i159, label %_RNvMsf_NtNtCsjMrxcFdYDNN_4core3str4iterINtB5_13SplitInternalcE7get_endCslwKqnJYeWCA_18build_script_build.exit164

bb4.i159:                                         ; preds = %bb1.i149
  %_10.val.i161 = load ptr, ptr %_50.sroa.4.sroa.5.0._50.sroa.4.0.digits.sroa_idx.sroa_idx, align 8, !alias.scope !116, !nonnull !3, !align !18, !noundef !3
  %new_len.i162 = sub nuw i64 %i1.pre.i153, %i.pre.i151
  %data.i163 = getelementptr inbounds nuw i8, ptr %_10.val.i161, i64 %i.pre.i151
  br label %_RNvMsf_NtNtCsjMrxcFdYDNN_4core3str4iterINtB5_13SplitInternalcE7get_endCslwKqnJYeWCA_18build_script_build.exit164

_RNvMsf_NtNtCsjMrxcFdYDNN_4core3str4iterINtB5_13SplitInternalcE7get_endCslwKqnJYeWCA_18build_script_build.exit164: ; preds = %bb41, %bb1.i149, %bb4.i159
  %_0.sroa.3.0.i157 = phi i64 [ %new_len.i162, %bb4.i159 ], [ undef, %bb41 ], [ undef, %bb1.i149 ]
  %_0.sroa.0.0.i158 = phi ptr [ %data.i163, %bb4.i159 ], [ null, %bb41 ], [ null, %bb1.i149 ]
  %59 = insertvalue { ptr, i64 } poison, ptr %_0.sroa.0.0.i158, 0
  %60 = insertvalue { ptr, i64 } %59, i64 %_0.sroa.3.0.i157, 1
  br label %bb39

bb39:                                             ; preds = %bb40, %_RNvMsf_NtNtCsjMrxcFdYDNN_4core3str4iterINtB5_13SplitInternalcE7get_endCslwKqnJYeWCA_18build_script_build.exit164
  %.pn30 = phi { ptr, i64 } [ %56, %bb40 ], [ %60, %_RNvMsf_NtNtCsjMrxcFdYDNN_4core3str4iterINtB5_13SplitInternalcE7get_endCslwKqnJYeWCA_18build_script_build.exit164 ]
  %_26.sroa.0.0 = extractvalue { ptr, i64 } %.pn30, 0
  %.not32 = icmp eq ptr %_26.sroa.0.0, null
  %_26.sroa.6.0 = extractvalue { ptr, i64 } %.pn30, 1
  br i1 %.not32, label %bb7.i165, label %bb45

bb45:                                             ; preds = %bb39
  switch i64 %_26.sroa.6.0, label %bb9thread-pre-split.i209 [
    i64 0, label %bb5
    i64 1, label %bb7.i165
  ]

bb7.i165:                                         ; preds = %bb39, %bb38, %bb45
  %_25.sroa.0.09 = phi ptr [ %_26.sroa.0.0, %bb45 ], [ @alloc_dda1ee2b88b89b9cdac753eef7988035, %bb38 ], [ @alloc_dda1ee2b88b89b9cdac753eef7988035, %bb39 ]
  %61 = load i8, ptr %_25.sroa.0.09, align 1, !alias.scope !119, !noundef !3
  switch i8 %61, label %bb9.i169 [
    i8 43, label %bb5
    i8 45, label %bb5
  ]

bb9thread-pre-split.i209:                         ; preds = %bb45
  %.pr.i210 = load i8, ptr %_26.sroa.0.0, align 1, !alias.scope !119
  br label %bb9.i169

bb9.i169:                                         ; preds = %bb9thread-pre-split.i209, %bb7.i165
  %_25.sroa.3.011 = phi i64 [ %_26.sroa.6.0, %bb9thread-pre-split.i209 ], [ 1, %bb7.i165 ]
  %_25.sroa.0.010 = phi ptr [ %_26.sroa.0.0, %bb9thread-pre-split.i209 ], [ %_25.sroa.0.09, %bb7.i165 ]
  %62 = phi i8 [ %.pr.i210, %bb9thread-pre-split.i209 ], [ %61, %bb7.i165 ]
  %cond.i170 = icmp eq i8 %62, 43
  %rest.1.i171 = sext i1 %cond.i170 to i64
  %src.sroa.15.0.i172 = add nsw i64 %_25.sroa.3.011, %rest.1.i171
  %src.sroa.0.0.idx.i173 = zext i1 %cond.i170 to i64
  %src.sroa.0.0.i174 = getelementptr inbounds nuw i8, ptr %_25.sroa.0.010, i64 %src.sroa.0.0.idx.i173
  %_10.i175 = icmp samesign ult i64 %src.sroa.15.0.i172, 9
  br i1 %_10.i175, label %bb15.preheader.i196, label %bb22.i176

bb15.preheader.i196:                              ; preds = %bb9.i169
  %_13.not56.i197 = icmp eq i64 %src.sroa.15.0.i172, 0
  br i1 %_13.not56.i197, label %bb50, label %bb16.i198

bb22.i176:                                        ; preds = %bb9.i169, %bb33.i186
  %result.sroa.0.0.i177 = phi i32 [ %_60.0.i189, %bb33.i186 ], [ 0, %bb9.i169 ]
  %src.sroa.15.1.i178 = phi i64 [ %rest.12.i183, %bb33.i186 ], [ %src.sroa.15.0.i172, %bb9.i169 ]
  %src.sroa.0.1.i179 = phi ptr [ %rest.01.i182, %bb33.i186 ], [ %src.sroa.0.0.i174, %bb9.i169 ]
  %_28.not.i180 = icmp eq i64 %src.sroa.15.1.i178, 0
  br i1 %_28.not.i180, label %bb50, label %bb23.i181

bb23.i181:                                        ; preds = %bb22.i176
  %63 = tail call { i32, i1 } @llvm.umul.with.overflow.i32(i32 %result.sroa.0.0.i177, i32 10)
  %_57.1.i185 = extractvalue { i32, i1 } %63, 1
  br i1 %_57.1.i185, label %bb5, label %bb33.i186, !prof !102

bb33.i186:                                        ; preds = %bb23.i181
  %_57.0.i184 = extractvalue { i32, i1 } %63, 0
  %rest.12.i183 = add nsw i64 %src.sroa.15.1.i178, -1
  %rest.01.i182 = getelementptr inbounds nuw i8, ptr %src.sroa.0.1.i179, i64 1
  %64 = load i8, ptr %src.sroa.0.1.i179, align 1, !alias.scope !119, !noundef !3
  %65 = zext i8 %64 to i32
  %66 = add nsw i32 %65, -48
  %_14.i.i187 = icmp ugt i32 %66, 9
  %_60.0.i189 = add i32 %66, %_57.0.i184
  %_60.1.i190 = icmp ult i32 %_60.0.i189, %_57.0.i184
  %or.cond15 = select i1 %_14.i.i187, i1 true, i1 %_60.1.i190
  br i1 %or.cond15, label %bb5, label %bb22.i176, !prof !103

bb16.i198:                                        ; preds = %bb15.preheader.i196, %bb20.i205
  %src.sroa.0.259.i199 = phi ptr [ %rest.04.i207, %bb20.i205 ], [ %src.sroa.0.0.i174, %bb15.preheader.i196 ]
  %src.sroa.15.258.i200 = phi i64 [ %rest.15.i206, %bb20.i205 ], [ %src.sroa.15.0.i172, %bb15.preheader.i196 ]
  %_19.i202 = load i8, ptr %src.sroa.0.259.i199, align 1, !alias.scope !119, !noundef !3
  %67 = add i8 %_19.i202, -48
  %_14.i47.i204 = icmp ult i8 %67, 10
  br i1 %_14.i47.i204, label %bb20.i205, label %bb5

bb20.i205:                                        ; preds = %bb16.i198
  %rest.15.i206 = add nsw i64 %src.sroa.15.258.i200, -1
  %rest.04.i207 = getelementptr inbounds nuw i8, ptr %src.sroa.0.259.i199, i64 1
  %_13.not.i208 = icmp eq i64 %rest.15.i206, 0
  br i1 %_13.not.i208, label %bb50, label %bb16.i198

bb50:                                             ; preds = %bb22.i176, %bb20.i205, %bb15.preheader.i196
  call void @llvm.lifetime.end.p0(i64 80, ptr nonnull %digits)
  br label %bb6

bb5:                                              ; preds = %bb23.i, %bb33.i, %bb16.i, %bb33.i122, %bb23.i117, %bb16.i134, %bb33.i186, %bb23.i181, %bb16.i198, %bb1.i85, %bb30, %bb29, %bb7.i48, %bb7.i48, %bb24, %bb28.thread52, %bb8.i.thread, %bb45, %bb7.i165, %bb7.i165, %bb35, %bb7.i101, %bb7.i101, %bb27
  call void @llvm.lifetime.end.p0(i64 80, ptr nonnull %digits)
  br label %bb6
}

; <build_script_build::version::Version>::parse::{closure#3}
; Function Attrs: inlinehint uwtable
define internal fastcc range(i48 0, -65534) i48 @_RNCNvMNtCslwKqnJYeWCA_18build_script_build7versionNtB4_7Version5parses1_0B6_(ptr readonly captures(address_is_null) %_1.0.val) unnamed_addr #4 personality ptr @rust_eh_personality {
bb2.i.i.i.i.lr.ph.i:
  %_5.i45 = alloca [24 x i8], align 8
  %_5.i = alloca [24 x i8], align 8
  %_5.i.i.i.i.i = alloca [24 x i8], align 8
  %_6 = alloca [72 x i8], align 8
  %commit_date = alloca [80 x i8], align 16
  call void @llvm.lifetime.start.p0(i64 80, ptr nonnull %commit_date)
  call void @llvm.lifetime.start.p0(i64 72, ptr nonnull %_6)
  %0 = icmp ne ptr %_1.0.val, null
  tail call void @llvm.assume(i1 %0)
  %_33.0 = load ptr, ptr %_1.0.val, align 8, !nonnull !3, !align !18, !noundef !3
  %1 = getelementptr inbounds nuw i8, ptr %_1.0.val, i64 8
  %_33.1 = load i64, ptr %1, align 8, !noundef !3
  store i64 0, ptr %_6, align 8
  %_34.sroa.4.0._6.sroa_idx = getelementptr inbounds nuw i8, ptr %_6, i64 8
  store i64 %_33.1, ptr %_34.sroa.4.0._6.sroa_idx, align 8
  %_34.sroa.5.0._6.sroa_idx = getelementptr inbounds nuw i8, ptr %_6, i64 16
  store ptr %_33.0, ptr %_34.sroa.5.0._6.sroa_idx, align 8
  %_34.sroa.5.sroa.4.0._34.sroa.5.0._6.sroa_idx.sroa_idx = getelementptr inbounds nuw i8, ptr %_6, i64 24
  store i64 %_33.1, ptr %_34.sroa.5.sroa.4.0._34.sroa.5.0._6.sroa_idx.sroa_idx, align 8
  %_34.sroa.5.sroa.5.0._34.sroa.5.0._6.sroa_idx.sroa_idx = getelementptr inbounds nuw i8, ptr %_6, i64 32
  store i64 0, ptr %_34.sroa.5.sroa.5.0._34.sroa.5.0._6.sroa_idx.sroa_idx, align 8
  %_34.sroa.5.sroa.6.0._34.sroa.5.0._6.sroa_idx.sroa_idx = getelementptr inbounds nuw i8, ptr %_6, i64 40
  store i64 %_33.1, ptr %_34.sroa.5.sroa.6.0._34.sroa.5.0._6.sroa_idx.sroa_idx, align 8
  %_34.sroa.5.sroa.7.0._34.sroa.5.0._6.sroa_idx.sroa_idx = getelementptr inbounds nuw i8, ptr %_6, i64 48
  store <2 x i32> splat (i32 10), ptr %_34.sroa.5.sroa.7.0._34.sroa.5.0._6.sroa_idx.sroa_idx, align 8
  %_34.sroa.5.sroa.9.0._34.sroa.5.0._6.sroa_idx.sroa_idx = getelementptr inbounds nuw i8, ptr %_6, i64 56
  store i8 1, ptr %_34.sroa.5.sroa.9.0._34.sroa.5.0._6.sroa_idx.sroa_idx, align 8
  %_34.sroa.6.0._6.sroa_idx = getelementptr inbounds nuw i8, ptr %_6, i64 64
  store i8 0, ptr %_34.sroa.6.0._6.sroa_idx, align 8
  %_34.sroa.7.0._6.sroa_idx = getelementptr inbounds nuw i8, ptr %_6, i64 65
  store i8 0, ptr %_34.sroa.7.0._6.sroa_idx, align 1
  tail call void @llvm.experimental.noalias.scope.decl(metadata !122)
  %2 = getelementptr inbounds nuw i8, ptr %_5.i.i.i.i.i, i64 16
  br label %bb2.i.i.i.i.i

bb2.i.i.i.i.i:                                    ; preds = %_RNCINvNvNtNtNtNtCsjMrxcFdYDNN_4core4iter6traits8iterator8Iterator4find5checkReNCNCNvMNtCslwKqnJYeWCA_18build_script_build7versionNtB1l_7Version5parses1_00E0B1n_.exit.i, %bb2.i.i.i.i.lr.ph.i
  tail call void @llvm.experimental.noalias.scope.decl(metadata !125)
  tail call void @llvm.experimental.noalias.scope.decl(metadata !128)
  tail call void @llvm.experimental.noalias.scope.decl(metadata !131)
  tail call void @llvm.experimental.noalias.scope.decl(metadata !134)
  %_4.val.i.i.i.i.i = load ptr, ptr %_34.sroa.5.0._6.sroa_idx, align 8, !alias.scope !137, !nonnull !3, !align !18, !noundef !3
  call void @llvm.lifetime.start.p0(i64 24, ptr nonnull %_5.i.i.i.i.i), !noalias !137
; call <core::str::pattern::CharSearcher as core::str::pattern::Searcher>::next_match
  call fastcc void @_RNvXs_NtNtCsjMrxcFdYDNN_4core3str7patternNtB4_12CharSearcherNtB4_8Searcher10next_match(ptr noalias noundef align 8 captures(none) dereferenceable(24) %_5.i.i.i.i.i, ptr noalias noundef align 8 dereferenceable(48) %_34.sroa.5.0._6.sroa_idx) #28
  %_7.i.i.i.i.i = load i64, ptr %_5.i.i.i.i.i, align 8, !range !37, !noalias !137, !noundef !3
  %3 = trunc nuw i64 %_7.i.i.i.i.i to i1
  br i1 %3, label %bb7.i.i.i.i.i, label %bb6.i.i.i.i.i

bb7.i.i.i.i.i:                                    ; preds = %bb2.i.i.i.i.i
  %b.i.i.i.i.i = load i64, ptr %2, align 8, !noalias !137, !noundef !3
  %i.i.i.i.i.i = load i64, ptr %_6, align 8, !alias.scope !137, !noundef !3
  %new_len.i.i.i.i.i = sub nuw i64 %b.i.i.i.i.i, %i.i.i.i.i.i
  %data.i.i.i.i.i = getelementptr inbounds nuw i8, ptr %_4.val.i.i.i.i.i, i64 %i.i.i.i.i.i
  store i64 %b.i.i.i.i.i, ptr %_6, align 8, !alias.scope !137
  br label %bb5.i.i.i

bb6.i.i.i.i.i:                                    ; preds = %bb2.i.i.i.i.i
  %4 = load i8, ptr %_34.sroa.7.0._6.sroa_idx, align 1, !range !54, !alias.scope !138, !noundef !3
  %_2.i.i.i.i.i.i = trunc nuw i8 %4 to i1
  br i1 %_2.i.i.i.i.i.i, label %_RNvXsH_NtNtCsjMrxcFdYDNN_4core3str4iterINtB5_14SplitInclusivecENtNtNtNtB9_4iter6traits8iterator8Iterator4nextCslwKqnJYeWCA_18build_script_build.exit.thread7.i.i.i, label %bb1.i.i.i.i.i.i

bb1.i.i.i.i.i.i:                                  ; preds = %bb6.i.i.i.i.i
  store i8 1, ptr %_34.sroa.7.0._6.sroa_idx, align 1, !alias.scope !138
  %5 = load i8, ptr %_34.sroa.6.0._6.sroa_idx, align 8, !range !54, !alias.scope !138, !noundef !3
  %_3.i.i.i.i.i.i = trunc nuw i8 %5 to i1
  %i.pre.i.i.i.i.i.i = load i64, ptr %_6, align 8, !alias.scope !138
  %i1.pre.i.i.i.i.i.i = load i64, ptr %_34.sroa.4.0._6.sroa_idx, align 8, !alias.scope !138
  %_4.not.i.i.i.i.i.i = icmp ne i64 %i1.pre.i.i.i.i.i.i, %i.pre.i.i.i.i.i.i
  %or.cond.not.i.i.i.i.i.i = select i1 %_3.i.i.i.i.i.i, i1 true, i1 %_4.not.i.i.i.i.i.i
  br i1 %or.cond.not.i.i.i.i.i.i, label %bb4.i.i.i.i.i.i, label %_RNvXsH_NtNtCsjMrxcFdYDNN_4core3str4iterINtB5_14SplitInclusivecENtNtNtNtB9_4iter6traits8iterator8Iterator4nextCslwKqnJYeWCA_18build_script_build.exit.thread7.i.i.i

bb4.i.i.i.i.i.i:                                  ; preds = %bb1.i.i.i.i.i.i
  %_10.val.i.i.i.i.i.i = load ptr, ptr %_34.sroa.5.0._6.sroa_idx, align 8, !alias.scope !138, !nonnull !3, !align !18, !noundef !3
  %new_len.i.i.i.i.i.i = sub nuw i64 %i1.pre.i.i.i.i.i.i, %i.pre.i.i.i.i.i.i
  %data.i.i.i.i.i.i = getelementptr inbounds nuw i8, ptr %_10.val.i.i.i.i.i.i, i64 %i.pre.i.i.i.i.i.i
  br label %bb5.i.i.i

_RNvXsH_NtNtCsjMrxcFdYDNN_4core3str4iterINtB5_14SplitInclusivecENtNtNtNtB9_4iter6traits8iterator8Iterator4nextCslwKqnJYeWCA_18build_script_build.exit.thread7.i.i.i: ; preds = %bb1.i.i.i.i.i.i, %bb6.i.i.i.i.i
  call void @llvm.lifetime.end.p0(i64 24, ptr nonnull %_5.i.i.i.i.i), !noalias !137
  br label %bb20

bb5.i.i.i:                                        ; preds = %bb4.i.i.i.i.i.i, %bb7.i.i.i.i.i
  %_0.sroa.4.0.i.i.i.i.i = phi i64 [ %new_len.i.i.i.i.i, %bb7.i.i.i.i.i ], [ %new_len.i.i.i.i.i.i, %bb4.i.i.i.i.i.i ]
  %_0.sroa.0.0.i.i.i.i.i = phi ptr [ %data.i.i.i.i.i, %bb7.i.i.i.i.i ], [ %data.i.i.i.i.i.i, %bb4.i.i.i.i.i.i ]
  call void @llvm.lifetime.end.p0(i64 24, ptr nonnull %_5.i.i.i.i.i), !noalias !137
  %6 = insertvalue { ptr, i64 } poison, ptr %_0.sroa.0.0.i.i.i.i.i, 0
  %7 = insertvalue { ptr, i64 } %6, i64 %_0.sroa.4.0.i.i.i.i.i, 1
  %_5.not.i.i.i.i.i.i.i = icmp eq i64 %_0.sroa.4.0.i.i.i.i.i, 0
  br i1 %_5.not.i.i.i.i.i.i.i, label %_RNvXss_NtNtCsjMrxcFdYDNN_4core3str4iterNtB5_5LinesNtNtNtNtB9_4iter6traits8iterator8Iterator4next.exit.i, label %_RNvMNtCsjMrxcFdYDNN_4core5sliceSh9ends_withCslwKqnJYeWCA_18build_script_build.exit.i.i.i.i.i.i

_RNvMNtCsjMrxcFdYDNN_4core5sliceSh9ends_withCslwKqnJYeWCA_18build_script_build.exit.i.i.i.i.i.i: ; preds = %bb5.i.i.i
  %8 = getelementptr i8, ptr %_0.sroa.0.0.i.i.i.i.i, i64 %_0.sroa.4.0.i.i.i.i.i
  %_16.i.i.i.i.i.i.i = getelementptr i8, ptr %8, i64 -1
  %rhsc.i.i.i.i.i.i.i = load i8, ptr %_16.i.i.i.i.i.i.i, align 1, !alias.scope !141, !noalias !150
  %rhsc.i.i.fr.i.i.i.i.i = freeze i8 %rhsc.i.i.i.i.i.i.i
  %9 = icmp eq i8 %rhsc.i.i.fr.i.i.i.i.i, 10
  %i.i.i.i.i.i.i = add i64 %_0.sroa.4.0.i.i.i.i.i, -1
  br i1 %9, label %bb1.i.i.i.i.i, label %_RNvXss_NtNtCsjMrxcFdYDNN_4core3str4iterNtB5_5LinesNtNtNtNtB9_4iter6traits8iterator8Iterator4next.exit.i

bb1.i.i.i.i.i:                                    ; preds = %_RNvMNtCsjMrxcFdYDNN_4core5sliceSh9ends_withCslwKqnJYeWCA_18build_script_build.exit.i.i.i.i.i.i
  %10 = insertvalue { ptr, i64 } %7, i64 %i.i.i.i.i.i.i, 1
  %_5.not.i.i12.i.i.i.i.i = icmp eq i64 %i.i.i.i.i.i.i, 0
  br i1 %_5.not.i.i12.i.i.i.i.i, label %_RNvXst_NtNtCsjMrxcFdYDNN_4core3str7patternReNtB5_7Pattern15strip_suffix_of.exit21.i.i.i.i.i, label %_RNvMNtCsjMrxcFdYDNN_4core5sliceSh9ends_withCslwKqnJYeWCA_18build_script_build.exit.i13.i.i.i.i.i

_RNvMNtCsjMrxcFdYDNN_4core5sliceSh9ends_withCslwKqnJYeWCA_18build_script_build.exit.i13.i.i.i.i.i: ; preds = %bb1.i.i.i.i.i
  %11 = getelementptr i8, ptr %_0.sroa.0.0.i.i.i.i.i, i64 %i.i.i.i.i.i.i
  %_16.i.i14.i.i.i.i.i = getelementptr i8, ptr %11, i64 -1
  %rhsc.i.i16.i.i.i.i.i = load i8, ptr %_16.i.i14.i.i.i.i.i, align 1, !alias.scope !153, !noalias !158
  %rhsc.i.i16.fr.i.i.i.i.i = freeze i8 %rhsc.i.i16.i.i.i.i.i
  %12 = icmp eq i8 %rhsc.i.i16.fr.i.i.i.i.i, 13
  %i.i17.i.i.i.i.i = add i64 %_0.sroa.4.0.i.i.i.i.i, -2
  %spec.select.i19.i.i.i.i.i = select i1 %12, ptr %_0.sroa.0.0.i.i.i.i.i, ptr null
  br label %_RNvXst_NtNtCsjMrxcFdYDNN_4core3str7patternReNtB5_7Pattern15strip_suffix_of.exit21.i.i.i.i.i

_RNvXst_NtNtCsjMrxcFdYDNN_4core3str7patternReNtB5_7Pattern15strip_suffix_of.exit21.i.i.i.i.i: ; preds = %_RNvMNtCsjMrxcFdYDNN_4core5sliceSh9ends_withCslwKqnJYeWCA_18build_script_build.exit.i13.i.i.i.i.i, %bb1.i.i.i.i.i
  %i4.i20.i.i.i.i.i = phi i64 [ %i.i17.i.i.i.i.i, %_RNvMNtCsjMrxcFdYDNN_4core5sliceSh9ends_withCslwKqnJYeWCA_18build_script_build.exit.i13.i.i.i.i.i ], [ -1, %bb1.i.i.i.i.i ]
  %13 = phi ptr [ %spec.select.i19.i.i.i.i.i, %_RNvMNtCsjMrxcFdYDNN_4core5sliceSh9ends_withCslwKqnJYeWCA_18build_script_build.exit.i13.i.i.i.i.i ], [ null, %bb1.i.i.i.i.i ]
  %14 = insertvalue { ptr, i64 } poison, ptr %13, 0
  %15 = insertvalue { ptr, i64 } %14, i64 %i4.i20.i.i.i.i.i, 1
  %.not11.i.i.i.i.i = icmp eq ptr %13, null
  %..i.i.i.i.i = select i1 %.not11.i.i.i.i.i, { ptr, i64 } %10, { ptr, i64 } %15
  br label %_RNvXss_NtNtCsjMrxcFdYDNN_4core3str4iterNtB5_5LinesNtNtNtNtB9_4iter6traits8iterator8Iterator4next.exit.i

_RNvXss_NtNtCsjMrxcFdYDNN_4core3str4iterNtB5_5LinesNtNtNtNtB9_4iter6traits8iterator8Iterator4next.exit.i: ; preds = %_RNvXst_NtNtCsjMrxcFdYDNN_4core3str7patternReNtB5_7Pattern15strip_suffix_of.exit21.i.i.i.i.i, %_RNvMNtCsjMrxcFdYDNN_4core5sliceSh9ends_withCslwKqnJYeWCA_18build_script_build.exit.i.i.i.i.i.i, %bb5.i.i.i
  %.merged.i.i.i.i.i = phi { ptr, i64 } [ %..i.i.i.i.i, %_RNvXst_NtNtCsjMrxcFdYDNN_4core3str7patternReNtB5_7Pattern15strip_suffix_of.exit21.i.i.i.i.i ], [ %7, %_RNvMNtCsjMrxcFdYDNN_4core5sliceSh9ends_withCslwKqnJYeWCA_18build_script_build.exit.i.i.i.i.i.i ], [ %7, %bb5.i.i.i ]
  %_7.0.i.i.i = extractvalue { ptr, i64 } %.merged.i.i.i.i.i, 0
  %_7.1.i.i.i = extractvalue { ptr, i64 } %.merged.i.i.i.i.i, 1
  %.not.i = icmp eq ptr %_7.0.i.i.i, null
  br i1 %.not.i, label %bb20, label %bb3.i

bb3.i:                                            ; preds = %_RNvXss_NtNtCsjMrxcFdYDNN_4core3str4iterNtB5_5LinesNtNtNtNtB9_4iter6traits8iterator8Iterator4next.exit.i
  %_4.not.i.i.i.i = icmp samesign ult i64 %_7.1.i.i.i, 13
  br i1 %_4.not.i.i.i.i, label %_RNCINvNvNtNtNtNtCsjMrxcFdYDNN_4core4iter6traits8iterator8Iterator4find5checkReNCNCNvMNtCslwKqnJYeWCA_18build_script_build7versionNtB1l_7Version5parses1_00E0B1n_.exit.i, label %_RNCNCNvMNtCslwKqnJYeWCA_18build_script_build7versionNtB6_7Version5parses1_00B8_.exit.i.i

_RNCNCNvMNtCslwKqnJYeWCA_18build_script_build7versionNtB6_7Version5parses1_00B8_.exit.i.i: ; preds = %bb3.i
  %16 = tail call i32 @memcmp(ptr noundef nonnull readonly align 1 dereferenceable(13) @alloc_ed740c9299d7724b54ca9f50b8396b41, ptr noundef nonnull readonly align 1 dereferenceable(13) %_7.0.i.i.i, i64 range(i64 0, -9223372036854775808) 13), !alias.scope !161, !noalias !122
  %.fr.i.i = freeze i32 %16
  %17 = icmp eq i32 %.fr.i.i, 0
  br i1 %17, label %bb15, label %_RNCINvNvNtNtNtNtCsjMrxcFdYDNN_4core4iter6traits8iterator8Iterator4find5checkReNCNCNvMNtCslwKqnJYeWCA_18build_script_build7versionNtB1l_7Version5parses1_00E0B1n_.exit.i

_RNCINvNvNtNtNtNtCsjMrxcFdYDNN_4core4iter6traits8iterator8Iterator4find5checkReNCNCNvMNtCslwKqnJYeWCA_18build_script_build7versionNtB1l_7Version5parses1_00E0B1n_.exit.i: ; preds = %_RNCNCNvMNtCslwKqnJYeWCA_18build_script_build7versionNtB6_7Version5parses1_00B8_.exit.i.i, %bb3.i
  %18 = load i8, ptr %_34.sroa.7.0._6.sroa_idx, align 1, !range !54, !alias.scope !168, !noundef !3
  %_2.i.i.i.i.i = trunc nuw i8 %18 to i1
  br i1 %_2.i.i.i.i.i, label %bb20, label %bb2.i.i.i.i.i

bb15:                                             ; preds = %_RNCNCNvMNtCslwKqnJYeWCA_18build_script_build7versionNtB6_7Version5parses1_00B8_.exit.i.i
  %_8.not.i.not = icmp eq i64 %_7.1.i.i.i, 13
  br i1 %_8.not.i.not, label %bb24, label %bb9.i

bb9.i:                                            ; preds = %bb15
  %19 = getelementptr inbounds nuw i8, ptr %_7.0.i.i.i, i64 13
  %self1.i = load i8, ptr %19, align 1, !alias.scope !173, !noundef !3
  %20 = icmp sgt i8 %self1.i, -65
  br i1 %20, label %bb24, label %bb18

bb20:                                             ; preds = %_RNvXss_NtNtCsjMrxcFdYDNN_4core3str4iterNtB5_5LinesNtNtNtNtB9_4iter6traits8iterator8Iterator4next.exit.i, %_RNCINvNvNtNtNtNtCsjMrxcFdYDNN_4core4iter6traits8iterator8Iterator4find5checkReNCNCNvMNtCslwKqnJYeWCA_18build_script_build7versionNtB1l_7Version5parses1_00E0B1n_.exit.i, %_RNvXsH_NtNtCsjMrxcFdYDNN_4core3str4iterINtB5_14SplitInclusivecENtNtNtNtB9_4iter6traits8iterator8Iterator4nextCslwKqnJYeWCA_18build_script_build.exit.thread7.i.i.i
  call void @llvm.lifetime.end.p0(i64 72, ptr nonnull %_6)
  br label %bb12

bb18:                                             ; preds = %bb9.i
; call core::str::slice_error_fail
  tail call void @_RNvNtCsjMrxcFdYDNN_4core3str16slice_error_fail(ptr noalias noundef nonnull readonly align 1 captures(address, read_provenance) %_7.0.i.i.i, i64 noundef %_7.1.i.i.i, i64 noundef 13, i64 noundef %_7.1.i.i.i, ptr noalias noundef readonly align 8 captures(address, read_provenance) dereferenceable(24) @alloc_5a70f0d82a4daf23c5a2b55427a97995) #29
  unreachable

bb24:                                             ; preds = %bb15, %bb9.i
  %new_len.i = add i64 %_7.1.i.i.i, -13
  %data.i = getelementptr inbounds nuw i8, ptr %_7.0.i.i.i, i64 13
  %_54.sroa.4.0.commit_date.sroa_idx = getelementptr inbounds nuw i8, ptr %commit_date, i64 8
  %_54.sroa.4.sroa.4.0._54.sroa.4.0.commit_date.sroa_idx.sroa_idx = getelementptr inbounds nuw i8, ptr %commit_date, i64 16
  store i64 %new_len.i, ptr %_54.sroa.4.sroa.4.0._54.sroa.4.0.commit_date.sroa_idx.sroa_idx, align 16
  %_54.sroa.4.sroa.5.0._54.sroa.4.0.commit_date.sroa_idx.sroa_idx = getelementptr inbounds nuw i8, ptr %commit_date, i64 24
  store ptr %data.i, ptr %_54.sroa.4.sroa.5.0._54.sroa.4.0.commit_date.sroa_idx.sroa_idx, align 8
  %_54.sroa.4.sroa.5.sroa.4.0._54.sroa.4.sroa.5.0._54.sroa.4.0.commit_date.sroa_idx.sroa_idx.sroa_idx = getelementptr inbounds nuw i8, ptr %commit_date, i64 32
  store i64 %new_len.i, ptr %_54.sroa.4.sroa.5.sroa.4.0._54.sroa.4.sroa.5.0._54.sroa.4.0.commit_date.sroa_idx.sroa_idx.sroa_idx, align 16
  %_54.sroa.4.sroa.5.sroa.5.0._54.sroa.4.sroa.5.0._54.sroa.4.0.commit_date.sroa_idx.sroa_idx.sroa_idx = getelementptr inbounds nuw i8, ptr %commit_date, i64 40
  store i64 0, ptr %_54.sroa.4.sroa.5.sroa.5.0._54.sroa.4.sroa.5.0._54.sroa.4.0.commit_date.sroa_idx.sroa_idx.sroa_idx, align 8
  %_54.sroa.4.sroa.5.sroa.6.0._54.sroa.4.sroa.5.0._54.sroa.4.0.commit_date.sroa_idx.sroa_idx.sroa_idx = getelementptr inbounds nuw i8, ptr %commit_date, i64 48
  store i64 %new_len.i, ptr %_54.sroa.4.sroa.5.sroa.6.0._54.sroa.4.sroa.5.0._54.sroa.4.0.commit_date.sroa_idx.sroa_idx.sroa_idx, align 16
  %_54.sroa.4.sroa.5.sroa.7.0._54.sroa.4.sroa.5.0._54.sroa.4.0.commit_date.sroa_idx.sroa_idx.sroa_idx = getelementptr inbounds nuw i8, ptr %commit_date, i64 56
  store <2 x i32> splat (i32 45), ptr %_54.sroa.4.sroa.5.sroa.7.0._54.sroa.4.sroa.5.0._54.sroa.4.0.commit_date.sroa_idx.sroa_idx.sroa_idx, align 8
  %_54.sroa.4.sroa.5.sroa.9.0._54.sroa.4.sroa.5.0._54.sroa.4.0.commit_date.sroa_idx.sroa_idx.sroa_idx = getelementptr inbounds nuw i8, ptr %commit_date, i64 64
  store i8 1, ptr %_54.sroa.4.sroa.5.sroa.9.0._54.sroa.4.sroa.5.0._54.sroa.4.0.commit_date.sroa_idx.sroa_idx.sroa_idx, align 16
  %_54.sroa.4.sroa.6.0._54.sroa.4.0.commit_date.sroa_idx.sroa_idx = getelementptr inbounds nuw i8, ptr %commit_date, i64 72
  store i8 1, ptr %_54.sroa.4.sroa.6.0._54.sroa.4.0.commit_date.sroa_idx.sroa_idx, align 8
  %_54.sroa.4.sroa.7.0._54.sroa.4.0.commit_date.sroa_idx.sroa_idx = getelementptr inbounds nuw i8, ptr %commit_date, i64 73
  store i8 0, ptr %_54.sroa.4.sroa.7.0._54.sroa.4.0.commit_date.sroa_idx.sroa_idx, align 1
  call void @llvm.lifetime.end.p0(i64 72, ptr nonnull %_6)
  store <2 x i64> <i64 2, i64 0>, ptr %commit_date, align 16
  tail call void @llvm.experimental.noalias.scope.decl(metadata !176)
  call void @llvm.lifetime.start.p0(i64 24, ptr nonnull %_5.i), !noalias !176
; call <core::str::pattern::CharSearcher as core::str::pattern::Searcher>::next_match
  call fastcc void @_RNvXs_NtNtCsjMrxcFdYDNN_4core3str7patternNtB4_12CharSearcherNtB4_8Searcher10next_match(ptr noalias noundef align 8 captures(none) dereferenceable(24) %_5.i, ptr noalias noundef align 8 dereferenceable(48) %_54.sroa.4.sroa.5.0._54.sroa.4.0.commit_date.sroa_idx.sroa_idx) #28
  %_7.i = load i64, ptr %_5.i, align 8, !range !37, !noalias !176, !noundef !3
  %21 = trunc nuw i64 %_7.i to i1
  br i1 %21, label %bb7.i, label %bb6.i30

bb7.i:                                            ; preds = %bb24
  %22 = getelementptr inbounds nuw i8, ptr %_5.i, i64 8
  %a.i = load i64, ptr %22, align 8, !noalias !176, !noundef !3
  %23 = getelementptr inbounds nuw i8, ptr %_5.i, i64 16
  %b.i = load i64, ptr %23, align 8, !noalias !176, !noundef !3
  %i.i = load i64, ptr %_54.sroa.4.0.commit_date.sroa_idx, align 8, !alias.scope !176, !noundef !3
  %new_len.i33 = sub nuw i64 %a.i, %i.i
  %data.i34 = getelementptr inbounds nuw i8, ptr %data.i, i64 %i.i
  store i64 %b.i, ptr %_54.sroa.4.0.commit_date.sroa_idx, align 8, !alias.scope !176
  br label %bb30

bb6.i30:                                          ; preds = %bb24
  %24 = load i8, ptr %_54.sroa.4.sroa.7.0._54.sroa.4.0.commit_date.sroa_idx.sroa_idx, align 1, !range !54, !alias.scope !179, !noundef !3
  %_2.i.i = trunc nuw i8 %24 to i1
  br i1 %_2.i.i, label %bb8.i.thread, label %bb1.i.i

bb1.i.i:                                          ; preds = %bb6.i30
  store i8 1, ptr %_54.sroa.4.sroa.7.0._54.sroa.4.0.commit_date.sroa_idx.sroa_idx, align 1, !alias.scope !179
  %25 = load i8, ptr %_54.sroa.4.sroa.6.0._54.sroa.4.0.commit_date.sroa_idx.sroa_idx, align 8, !range !54, !alias.scope !179, !noundef !3
  %_3.i.i = trunc nuw i8 %25 to i1
  %i.pre.i.i = load i64, ptr %_54.sroa.4.0.commit_date.sroa_idx, align 8, !alias.scope !179
  %i1.pre.i.i = load i64, ptr %_54.sroa.4.sroa.4.0._54.sroa.4.0.commit_date.sroa_idx.sroa_idx, align 16, !alias.scope !179
  %_4.not.i.i = icmp ne i64 %i1.pre.i.i, %i.pre.i.i
  %or.cond.not.i.i = select i1 %_3.i.i, i1 true, i1 %_4.not.i.i
  br i1 %or.cond.not.i.i, label %bb4.i.i, label %bb8.i.thread

bb4.i.i:                                          ; preds = %bb1.i.i
  %_10.val.i.i = load ptr, ptr %_54.sroa.4.sroa.5.0._54.sroa.4.0.commit_date.sroa_idx.sroa_idx, align 8, !alias.scope !179, !nonnull !3, !align !18, !noundef !3
  %new_len.i.i = sub nuw i64 %i1.pre.i.i, %i.pre.i.i
  %data.i.i = getelementptr inbounds nuw i8, ptr %_10.val.i.i, i64 %i.pre.i.i
  br label %bb30

bb8.i.thread:                                     ; preds = %bb6.i30, %bb1.i.i
  call void @llvm.lifetime.end.p0(i64 24, ptr nonnull %_5.i), !noalias !176
  br label %bb12

bb30:                                             ; preds = %bb7.i, %bb4.i.i
  %_0.sroa.4.0.i = phi i64 [ %new_len.i33, %bb7.i ], [ %new_len.i.i, %bb4.i.i ]
  %_0.sroa.0.0.i31 = phi ptr [ %data.i34, %bb7.i ], [ %data.i.i, %bb4.i.i ]
  call void @llvm.lifetime.end.p0(i64 24, ptr nonnull %_5.i), !noalias !176
  switch i64 %_0.sroa.4.0.i, label %bb9thread-pre-split.i [
    i64 0, label %bb12
    i64 1, label %bb7.i41
  ]

bb7.i41:                                          ; preds = %bb30
  %26 = load i8, ptr %_0.sroa.0.0.i31, align 1, !alias.scope !182, !noundef !3
  switch i8 %26, label %bb9.i43 [
    i8 43, label %bb12
    i8 45, label %bb12
  ]

bb9thread-pre-split.i:                            ; preds = %bb30
  %.pr.i = load i8, ptr %_0.sroa.0.0.i31, align 1, !alias.scope !182
  br label %bb9.i43

bb9.i43:                                          ; preds = %bb9thread-pre-split.i, %bb7.i41
  %27 = phi i8 [ %.pr.i, %bb9thread-pre-split.i ], [ %26, %bb7.i41 ]
  %cond.i = icmp eq i8 %27, 43
  %rest.1.i = sext i1 %cond.i to i64
  %src.sroa.15.0.i = add nsw i64 %_0.sroa.4.0.i, %rest.1.i
  %src.sroa.0.0.idx.i = zext i1 %cond.i to i64
  %src.sroa.0.0.i = getelementptr inbounds nuw i8, ptr %_0.sroa.0.0.i31, i64 %src.sroa.0.0.idx.i
  %_10.i44 = icmp samesign ult i64 %src.sroa.15.0.i, 5
  br i1 %_10.i44, label %bb15.preheader.i, label %bb22.i

bb15.preheader.i:                                 ; preds = %bb9.i43
  %_13.not55.i = icmp eq i64 %src.sroa.15.0.i, 0
  br i1 %_13.not55.i, label %bb33, label %bb16.i

bb22.i:                                           ; preds = %bb9.i43, %bb33.i
  %result.sroa.0.0.i = phi i16 [ %_63.0.i, %bb33.i ], [ 0, %bb9.i43 ]
  %src.sroa.15.1.i = phi i64 [ %rest.12.i, %bb33.i ], [ %src.sroa.15.0.i, %bb9.i43 ]
  %src.sroa.0.1.i = phi ptr [ %rest.01.i, %bb33.i ], [ %src.sroa.0.0.i, %bb9.i43 ]
  %_30.not.i = icmp eq i64 %src.sroa.15.1.i, 0
  br i1 %_30.not.i, label %bb33, label %bb23.i

bb23.i:                                           ; preds = %bb22.i
  %28 = tail call { i16, i1 } @llvm.umul.with.overflow.i16(i16 %result.sroa.0.0.i, i16 10)
  %_60.1.i = extractvalue { i16, i1 } %28, 1
  br i1 %_60.1.i, label %bb12, label %bb33.i, !prof !102

bb33.i:                                           ; preds = %bb23.i
  %_60.0.i = extractvalue { i16, i1 } %28, 0
  %rest.12.i = add nsw i64 %src.sroa.15.1.i, -1
  %rest.01.i = getelementptr inbounds nuw i8, ptr %src.sroa.0.1.i, i64 1
  %29 = load i8, ptr %src.sroa.0.1.i, align 1, !alias.scope !182, !noundef !3
  %30 = zext i8 %29 to i32
  %31 = add nsw i32 %30, -48
  %_14.i.i = icmp ugt i32 %31, 9
  %32 = trunc nuw nsw i32 %31 to i16
  %_63.0.i = add i16 %_60.0.i, %32
  %_63.1.i = icmp ult i16 %_63.0.i, %_60.0.i
  %or.cond11 = select i1 %_14.i.i, i1 true, i1 %_63.1.i
  br i1 %or.cond11, label %bb12, label %bb22.i, !prof !103

bb16.i:                                           ; preds = %bb15.preheader.i, %bb20.i
  %src.sroa.0.258.i = phi ptr [ %rest.05.i, %bb20.i ], [ %src.sroa.0.0.i, %bb15.preheader.i ]
  %src.sroa.15.257.i = phi i64 [ %rest.16.i, %bb20.i ], [ %src.sroa.15.0.i, %bb15.preheader.i ]
  %result.sroa.0.256.i = phi i16 [ %35, %bb20.i ], [ 0, %bb15.preheader.i ]
  %_20.i = load i8, ptr %src.sroa.0.258.i, align 1, !alias.scope !182, !noundef !3
  %_19.i = zext i8 %_20.i to i32
  %33 = add nsw i32 %_19.i, -48
  %_14.i46.i = icmp ult i32 %33, 10
  br i1 %_14.i46.i, label %bb20.i, label %bb12

bb20.i:                                           ; preds = %bb16.i
  %34 = mul i16 %result.sroa.0.256.i, 10
  %rest.16.i = add nsw i64 %src.sroa.15.257.i, -1
  %rest.05.i = getelementptr inbounds nuw i8, ptr %src.sroa.0.258.i, i64 1
  %_24.i = trunc nuw nsw i32 %33 to i16
  %35 = add i16 %34, %_24.i
  %_13.not.i = icmp eq i64 %rest.16.i, 0
  br i1 %_13.not.i, label %bb33, label %bb16.i

bb33:                                             ; preds = %bb22.i, %bb20.i, %bb15.preheader.i
  %result.sroa.0.1.i = phi i16 [ 0, %bb15.preheader.i ], [ %35, %bb20.i ], [ %result.sroa.0.0.i, %bb22.i ]
  %36 = zext i16 %result.sroa.0.1.i to i32
  %37 = load i64, ptr %commit_date, align 16, !noundef !3
  switch i64 %37, label %bb35 [
    i64 0, label %bb12
    i64 1, label %bb36
  ]

bb35:                                             ; preds = %bb33
  %38 = add i64 %37, -1
  store i64 %38, ptr %commit_date, align 16
  tail call void @llvm.experimental.noalias.scope.decl(metadata !185)
  %39 = load i8, ptr %_54.sroa.4.sroa.7.0._54.sroa.4.0.commit_date.sroa_idx.sroa_idx, align 1, !range !54, !alias.scope !185, !noundef !3
  %_2.i46 = trunc nuw i8 %39 to i1
  br i1 %_2.i46, label %bb12, label %bb2.i47

bb2.i47:                                          ; preds = %bb35
  %_4.val.i49 = load ptr, ptr %_54.sroa.4.sroa.5.0._54.sroa.4.0.commit_date.sroa_idx.sroa_idx, align 8, !alias.scope !185, !nonnull !3, !align !18, !noundef !3
  call void @llvm.lifetime.start.p0(i64 24, ptr nonnull %_5.i45), !noalias !185
; call <core::str::pattern::CharSearcher as core::str::pattern::Searcher>::next_match
  call fastcc void @_RNvXs_NtNtCsjMrxcFdYDNN_4core3str7patternNtB4_12CharSearcherNtB4_8Searcher10next_match(ptr noalias noundef align 8 captures(none) dereferenceable(24) %_5.i45, ptr noalias noundef align 8 dereferenceable(48) %_54.sroa.4.sroa.5.0._54.sroa.4.0.commit_date.sroa_idx.sroa_idx) #28
  %_7.i50 = load i64, ptr %_5.i45, align 8, !range !37, !noalias !185, !noundef !3
  %40 = trunc nuw i64 %_7.i50 to i1
  br i1 %40, label %bb7.i70, label %bb6.i51

bb7.i70:                                          ; preds = %bb2.i47
  %41 = getelementptr inbounds nuw i8, ptr %_5.i45, i64 8
  %a.i71 = load i64, ptr %41, align 8, !noalias !185, !noundef !3
  %42 = getelementptr inbounds nuw i8, ptr %_5.i45, i64 16
  %b.i72 = load i64, ptr %42, align 8, !noalias !185, !noundef !3
  %i.i73 = load i64, ptr %_54.sroa.4.0.commit_date.sroa_idx, align 8, !alias.scope !185, !noundef !3
  %new_len.i74 = sub nuw i64 %a.i71, %i.i73
  %data.i75 = getelementptr inbounds nuw i8, ptr %_4.val.i49, i64 %i.i73
  store i64 %b.i72, ptr %_54.sroa.4.0.commit_date.sroa_idx, align 8, !alias.scope !185
  br label %bb34

bb6.i51:                                          ; preds = %bb2.i47
  %43 = load i8, ptr %_54.sroa.4.sroa.7.0._54.sroa.4.0.commit_date.sroa_idx.sroa_idx, align 1, !range !54, !alias.scope !188, !noundef !3
  %_2.i.i52 = trunc nuw i8 %43 to i1
  br i1 %_2.i.i52, label %bb34.thread45, label %bb1.i.i53

bb1.i.i53:                                        ; preds = %bb6.i51
  store i8 1, ptr %_54.sroa.4.sroa.7.0._54.sroa.4.0.commit_date.sroa_idx.sroa_idx, align 1, !alias.scope !188
  %44 = load i8, ptr %_54.sroa.4.sroa.6.0._54.sroa.4.0.commit_date.sroa_idx.sroa_idx, align 8, !range !54, !alias.scope !188, !noundef !3
  %_3.i.i54 = trunc nuw i8 %44 to i1
  %i.pre.i.i55 = load i64, ptr %_54.sroa.4.0.commit_date.sroa_idx, align 8, !alias.scope !188
  %i1.pre.i.i57 = load i64, ptr %_54.sroa.4.sroa.4.0._54.sroa.4.0.commit_date.sroa_idx.sroa_idx, align 16, !alias.scope !188
  %_4.not.i.i58 = icmp ne i64 %i1.pre.i.i57, %i.pre.i.i55
  %or.cond.not.i.i59 = select i1 %_3.i.i54, i1 true, i1 %_4.not.i.i58
  br i1 %or.cond.not.i.i59, label %bb4.i.i66, label %bb34.thread45

bb4.i.i66:                                        ; preds = %bb1.i.i53
  %_10.val.i.i67 = load ptr, ptr %_54.sroa.4.sroa.5.0._54.sroa.4.0.commit_date.sroa_idx.sroa_idx, align 8, !alias.scope !188, !nonnull !3, !align !18, !noundef !3
  %new_len.i.i68 = sub nuw i64 %i1.pre.i.i57, %i.pre.i.i55
  %data.i.i69 = getelementptr inbounds nuw i8, ptr %_10.val.i.i67, i64 %i.pre.i.i55
  br label %bb34

bb36:                                             ; preds = %bb33
  store i64 0, ptr %commit_date, align 16
  %45 = load i8, ptr %_54.sroa.4.sroa.7.0._54.sroa.4.0.commit_date.sroa_idx.sroa_idx, align 1, !range !54, !alias.scope !191, !noundef !3
  %_2.i77 = trunc nuw i8 %45 to i1
  br i1 %_2.i77, label %bb12, label %bb1.i78

bb1.i78:                                          ; preds = %bb36
  store i8 1, ptr %_54.sroa.4.sroa.7.0._54.sroa.4.0.commit_date.sroa_idx.sroa_idx, align 1, !alias.scope !191
  %46 = load i8, ptr %_54.sroa.4.sroa.6.0._54.sroa.4.0.commit_date.sroa_idx.sroa_idx, align 8, !range !54, !alias.scope !191, !noundef !3
  %_3.i79 = trunc nuw i8 %46 to i1
  %i.pre.i80 = load i64, ptr %_54.sroa.4.0.commit_date.sroa_idx, align 8, !alias.scope !191
  %i1.pre.i82 = load i64, ptr %_54.sroa.4.sroa.4.0._54.sroa.4.0.commit_date.sroa_idx.sroa_idx, align 16, !alias.scope !191
  %_4.not.i83 = icmp ne i64 %i1.pre.i82, %i.pre.i80
  %or.cond.not.i84 = select i1 %_3.i79, i1 true, i1 %_4.not.i83
  br i1 %or.cond.not.i84, label %bb34.thread38, label %bb12

bb34.thread38:                                    ; preds = %bb1.i78
  %_10.val.i90 = load ptr, ptr %_54.sroa.4.sroa.5.0._54.sroa.4.0.commit_date.sroa_idx.sroa_idx, align 8, !alias.scope !191, !nonnull !3, !align !18, !noundef !3
  %new_len.i91 = sub nuw i64 %i1.pre.i82, %i.pre.i80
  %data.i92 = getelementptr inbounds nuw i8, ptr %_10.val.i90, i64 %i.pre.i80
  br label %bb41

bb34.thread45:                                    ; preds = %bb6.i51, %bb1.i.i53
  call void @llvm.lifetime.end.p0(i64 24, ptr nonnull %_5.i45), !noalias !185
  br label %bb12

bb34:                                             ; preds = %bb7.i70, %bb4.i.i66
  %_0.sroa.4.0.i61 = phi i64 [ %new_len.i74, %bb7.i70 ], [ %new_len.i.i68, %bb4.i.i66 ]
  %_0.sroa.0.0.i62 = phi ptr [ %data.i75, %bb7.i70 ], [ %data.i.i69, %bb4.i.i66 ]
  call void @llvm.lifetime.end.p0(i64 24, ptr nonnull %_5.i45), !noalias !185
  br label %bb41

bb41:                                             ; preds = %bb34, %bb34.thread38
  %_0.sroa.4.1.i64.pn43 = phi i64 [ %new_len.i91, %bb34.thread38 ], [ %_0.sroa.4.0.i61, %bb34 ]
  %_0.sroa.0.1.i65.pn42 = phi ptr [ %data.i92, %bb34.thread38 ], [ %_0.sroa.0.0.i62, %bb34 ]
  switch i64 %_0.sroa.4.1.i64.pn43, label %bb9thread-pre-split.i129 [
    i64 0, label %bb12
    i64 1, label %bb7.i94
  ]

bb7.i94:                                          ; preds = %bb41
  %47 = load i8, ptr %_0.sroa.0.1.i65.pn42, align 1, !alias.scope !194, !noundef !3
  switch i8 %47, label %bb9.i95 [
    i8 43, label %bb12
    i8 45, label %bb12
  ]

bb9thread-pre-split.i129:                         ; preds = %bb41
  %.pr.i130 = load i8, ptr %_0.sroa.0.1.i65.pn42, align 1, !alias.scope !194
  br label %bb9.i95

bb9.i95:                                          ; preds = %bb9thread-pre-split.i129, %bb7.i94
  %48 = phi i8 [ %.pr.i130, %bb9thread-pre-split.i129 ], [ %47, %bb7.i94 ]
  %cond.i96 = icmp eq i8 %48, 43
  %rest.1.i97 = sext i1 %cond.i96 to i64
  %src.sroa.15.0.i98 = add nsw i64 %_0.sroa.4.1.i64.pn43, %rest.1.i97
  %src.sroa.0.0.idx.i99 = zext i1 %cond.i96 to i64
  %src.sroa.0.0.i100 = getelementptr inbounds nuw i8, ptr %_0.sroa.0.1.i65.pn42, i64 %src.sroa.0.0.idx.i99
  %_10.i101 = icmp samesign ult i64 %src.sroa.15.0.i98, 3
  br i1 %_10.i101, label %bb15.preheader.i119, label %bb22.i102

bb15.preheader.i119:                              ; preds = %bb9.i95
  %_13.not52.i = icmp eq i64 %src.sroa.15.0.i98, 0
  br i1 %_13.not52.i, label %bb44, label %bb16.i120

bb22.i102:                                        ; preds = %bb9.i95, %bb33.i111
  %result.sroa.0.0.i103 = phi i8 [ %_63.0.i114, %bb33.i111 ], [ 0, %bb9.i95 ]
  %src.sroa.15.1.i104 = phi i64 [ %rest.12.i108, %bb33.i111 ], [ %src.sroa.15.0.i98, %bb9.i95 ]
  %src.sroa.0.1.i105 = phi ptr [ %rest.01.i107, %bb33.i111 ], [ %src.sroa.0.0.i100, %bb9.i95 ]
  %_30.not.not.i = icmp eq i64 %src.sroa.15.1.i104, 0
  br i1 %_30.not.not.i, label %bb44, label %bb23.i106

bb23.i106:                                        ; preds = %bb22.i102
  %49 = tail call { i8, i1 } @llvm.umul.with.overflow.i8(i8 %result.sroa.0.0.i103, i8 10)
  %_60.1.i110 = extractvalue { i8, i1 } %49, 1
  br i1 %_60.1.i110, label %bb12, label %bb33.i111, !prof !102

bb33.i111:                                        ; preds = %bb23.i106
  %_60.0.i109 = extractvalue { i8, i1 } %49, 0
  %rest.12.i108 = add nsw i64 %src.sroa.15.1.i104, -1
  %rest.01.i107 = getelementptr inbounds nuw i8, ptr %src.sroa.0.1.i105, i64 1
  %50 = load i8, ptr %src.sroa.0.1.i105, align 1, !alias.scope !194, !noundef !3
  %51 = zext i8 %50 to i32
  %52 = add nsw i32 %51, -48
  %_14.i.i112 = icmp ugt i32 %52, 9
  %53 = trunc nuw nsw i32 %52 to i8
  %_63.0.i114 = add i8 %_60.0.i109, %53
  %_63.1.i115 = icmp ult i8 %_63.0.i114, %_60.0.i109
  %or.cond9 = select i1 %_14.i.i112, i1 true, i1 %_63.1.i115
  br i1 %or.cond9, label %bb12, label %bb22.i102, !prof !103

bb16.i120:                                        ; preds = %bb15.preheader.i119, %bb20.i124
  %src.sroa.0.255.i = phi ptr [ %rest.05.i126, %bb20.i124 ], [ %src.sroa.0.0.i100, %bb15.preheader.i119 ]
  %src.sroa.15.254.i = phi i64 [ %rest.16.i125, %bb20.i124 ], [ %src.sroa.15.0.i98, %bb15.preheader.i119 ]
  %result.sroa.0.253.i = phi i8 [ %56, %bb20.i124 ], [ 0, %bb15.preheader.i119 ]
  %_20.i121 = load i8, ptr %src.sroa.0.255.i, align 1, !alias.scope !194, !noundef !3
  %_19.i122 = zext i8 %_20.i121 to i32
  %54 = add nsw i32 %_19.i122, -48
  %_14.i46.i123 = icmp ugt i32 %54, 9
  br i1 %_14.i46.i123, label %bb12, label %bb20.i124

bb20.i124:                                        ; preds = %bb16.i120
  %55 = mul i8 %result.sroa.0.253.i, 10
  %rest.16.i125 = add nsw i64 %src.sroa.15.254.i, -1
  %rest.05.i126 = getelementptr inbounds nuw i8, ptr %src.sroa.0.255.i, i64 1
  %_24.i127 = trunc nuw nsw i32 %54 to i8
  %56 = add i8 %55, %_24.i127
  %_13.not.i128 = icmp eq i64 %rest.16.i125, 0
  br i1 %_13.not.i128, label %bb44, label %bb16.i120

bb44:                                             ; preds = %bb22.i102, %bb20.i124, %bb15.preheader.i119
  %_0.sroa.8.0.i = phi i8 [ 0, %bb15.preheader.i119 ], [ %56, %bb20.i124 ], [ %result.sroa.0.0.i103, %bb22.i102 ]
  %57 = load i64, ptr %commit_date, align 16, !noundef !3
  switch i64 %57, label %bb46 [
    i64 0, label %bb12
    i64 1, label %bb47
  ]

bb46:                                             ; preds = %bb44
  %58 = add i64 %57, -1
  store i64 %58, ptr %commit_date, align 16
; call <core::str::iter::SplitInternal<char>>::next
  %59 = call fastcc { ptr, i64 } @_RNvMsf_NtNtCsjMrxcFdYDNN_4core3str4iterINtB5_13SplitInternalcE4nextCslwKqnJYeWCA_18build_script_build(ptr noalias noundef align 8 dereferenceable(72) %_54.sroa.4.0.commit_date.sroa_idx) #28
  br label %bb45

bb47:                                             ; preds = %bb44
  %60 = load i8, ptr %_54.sroa.4.sroa.7.0._54.sroa.4.0.commit_date.sroa_idx.sroa_idx, align 1, !range !54, !alias.scope !197, !noundef !3
  %_2.i131 = trunc nuw i8 %60 to i1
  br i1 %_2.i131, label %_RNvMsf_NtNtCsjMrxcFdYDNN_4core3str4iterINtB5_13SplitInternalcE7get_endCslwKqnJYeWCA_18build_script_build.exit147, label %bb1.i132

bb1.i132:                                         ; preds = %bb47
  %61 = load i8, ptr %_54.sroa.4.sroa.6.0._54.sroa.4.0.commit_date.sroa_idx.sroa_idx, align 8, !range !54, !alias.scope !197, !noundef !3
  %_3.i133 = trunc nuw i8 %61 to i1
  %i.pre.i134 = load i64, ptr %_54.sroa.4.0.commit_date.sroa_idx, align 8, !alias.scope !197
  %i1.pre.i136 = load i64, ptr %_54.sroa.4.sroa.4.0._54.sroa.4.0.commit_date.sroa_idx.sroa_idx, align 16, !alias.scope !197
  %_4.not.i137 = icmp ne i64 %i1.pre.i136, %i.pre.i134
  %or.cond.not.i138 = select i1 %_3.i133, i1 true, i1 %_4.not.i137
  br i1 %or.cond.not.i138, label %bb4.i142, label %_RNvMsf_NtNtCsjMrxcFdYDNN_4core3str4iterINtB5_13SplitInternalcE7get_endCslwKqnJYeWCA_18build_script_build.exit147

bb4.i142:                                         ; preds = %bb1.i132
  %_10.val.i144 = load ptr, ptr %_54.sroa.4.sroa.5.0._54.sroa.4.0.commit_date.sroa_idx.sroa_idx, align 8, !alias.scope !197, !nonnull !3, !align !18, !noundef !3
  %new_len.i145 = sub nuw i64 %i1.pre.i136, %i.pre.i134
  %data.i146 = getelementptr inbounds nuw i8, ptr %_10.val.i144, i64 %i.pre.i134
  br label %_RNvMsf_NtNtCsjMrxcFdYDNN_4core3str4iterINtB5_13SplitInternalcE7get_endCslwKqnJYeWCA_18build_script_build.exit147

_RNvMsf_NtNtCsjMrxcFdYDNN_4core3str4iterINtB5_13SplitInternalcE7get_endCslwKqnJYeWCA_18build_script_build.exit147: ; preds = %bb47, %bb1.i132, %bb4.i142
  %_0.sroa.3.0.i140 = phi i64 [ %new_len.i145, %bb4.i142 ], [ undef, %bb47 ], [ undef, %bb1.i132 ]
  %_0.sroa.0.0.i141 = phi ptr [ %data.i146, %bb4.i142 ], [ null, %bb47 ], [ null, %bb1.i132 ]
  %62 = insertvalue { ptr, i64 } poison, ptr %_0.sroa.0.0.i141, 0
  %63 = insertvalue { ptr, i64 } %62, i64 %_0.sroa.3.0.i140, 1
  br label %bb45

bb45:                                             ; preds = %bb46, %_RNvMsf_NtNtCsjMrxcFdYDNN_4core3str4iterINtB5_13SplitInternalcE7get_endCslwKqnJYeWCA_18build_script_build.exit147
  %.pn24 = phi { ptr, i64 } [ %59, %bb46 ], [ %63, %_RNvMsf_NtNtCsjMrxcFdYDNN_4core3str4iterINtB5_13SplitInternalcE7get_endCslwKqnJYeWCA_18build_script_build.exit147 ]
  %_26.sroa.0.0 = extractvalue { ptr, i64 } %.pn24, 0
  %.not26 = icmp eq ptr %_26.sroa.0.0, null
  br i1 %.not26, label %bb12, label %bb52

bb52:                                             ; preds = %bb45
  %_26.sroa.7.0 = extractvalue { ptr, i64 } %.pn24, 1
; call <u8>::from_ascii_radix
  %64 = tail call fastcc { i1, i8 } @_RNvMsx_NtCsjMrxcFdYDNN_4core3numh16from_ascii_radix(ptr noalias noundef nonnull readonly align 1 captures(address, read_provenance) %_26.sroa.0.0, i64 noundef %_26.sroa.7.0) #28
  %65 = extractvalue { i1, i8 } %64, 0
  %66 = extractvalue { i1, i8 } %64, 1
  br i1 %65, label %bb12, label %bb55

bb55:                                             ; preds = %bb52
  %_29 = icmp ugt i8 %_0.sroa.8.0.i, 12
  %_30 = icmp ugt i8 %66, 31
  %or.cond = or i1 %_29, %_30
  br i1 %or.cond, label %bb12, label %bb3

bb3:                                              ; preds = %bb55
  %_31.sroa.5.0.insert.ext = zext nneg i8 %66 to i32
  %_31.sroa.5.0.insert.shift = shl nuw nsw i32 %_31.sroa.5.0.insert.ext, 24
  %_31.sroa.4.0.insert.ext = zext nneg i8 %_0.sroa.8.0.i to i32
  %_31.sroa.4.0.insert.shift = shl nuw nsw i32 %_31.sroa.4.0.insert.ext, 16
  %_31.sroa.4.0.insert.insert = or disjoint i32 %_31.sroa.5.0.insert.shift, %_31.sroa.4.0.insert.shift
  %_31.sroa.0.0.insert.insert = or disjoint i32 %_31.sroa.4.0.insert.insert, %36
  br label %bb12

bb12:                                             ; preds = %bb33.i, %bb23.i, %bb16.i, %bb33.i111, %bb23.i106, %bb16.i120, %bb20, %bb33, %bb45, %bb44, %bb52, %bb55, %bb41, %bb7.i94, %bb7.i94, %bb8.i.thread, %bb34.thread45, %bb30, %bb7.i41, %bb7.i41, %bb35, %bb36, %bb1.i78, %bb3
  %_0.sroa.10.0 = phi i32 [ %_31.sroa.0.0.insert.insert, %bb3 ], [ undef, %bb1.i78 ], [ undef, %bb36 ], [ undef, %bb35 ], [ undef, %bb7.i41 ], [ undef, %bb7.i41 ], [ undef, %bb30 ], [ undef, %bb34.thread45 ], [ undef, %bb8.i.thread ], [ undef, %bb7.i94 ], [ undef, %bb7.i94 ], [ undef, %bb41 ], [ undef, %bb55 ], [ undef, %bb52 ], [ undef, %bb44 ], [ undef, %bb45 ], [ undef, %bb33 ], [ undef, %bb20 ], [ undef, %bb16.i120 ], [ undef, %bb23.i106 ], [ undef, %bb33.i111 ], [ undef, %bb16.i ], [ undef, %bb23.i ], [ undef, %bb33.i ]
  %_0.sroa.0.4 = phi i16 [ 1, %bb3 ], [ 0, %bb1.i78 ], [ 0, %bb36 ], [ 0, %bb35 ], [ 0, %bb7.i41 ], [ 0, %bb7.i41 ], [ 0, %bb30 ], [ 0, %bb34.thread45 ], [ 0, %bb8.i.thread ], [ 0, %bb7.i94 ], [ 0, %bb7.i94 ], [ 0, %bb41 ], [ 0, %bb55 ], [ 0, %bb52 ], [ 0, %bb44 ], [ 0, %bb45 ], [ 0, %bb33 ], [ 0, %bb20 ], [ 0, %bb16.i120 ], [ 0, %bb23.i106 ], [ 0, %bb33.i111 ], [ 0, %bb16.i ], [ 0, %bb23.i ], [ 0, %bb33.i ]
  call void @llvm.lifetime.end.p0(i64 80, ptr nonnull %commit_date)
  %_0.sroa.10.0.insert.ext = zext i32 %_0.sroa.10.0 to i48
  %_0.sroa.10.0.insert.shift = shl nuw i48 %_0.sroa.10.0.insert.ext, 16
  %_0.sroa.0.0.insert.ext = zext nneg i16 %_0.sroa.0.4 to i48
  %_0.sroa.0.0.insert.insert = or disjoint i48 %_0.sroa.10.0.insert.shift, %_0.sroa.0.0.insert.ext
  ret i48 %_0.sroa.0.0.insert.insert
}

; <std::rt::lang_start<()>::{closure#0} as core::ops::function::FnOnce<()>>::call_once::{shim:vtable#0}
; Function Attrs: inlinehint uwtable
define internal noundef i32 @_RNSNvYNCINvNtCs5sEH5CPMdak_3std2rt10lang_startuE0INtNtNtCsjMrxcFdYDNN_4core3ops8function6FnOnceuE9call_once6vtableCslwKqnJYeWCA_18build_script_build(ptr noundef readonly captures(none) %_1) unnamed_addr #4 personality ptr @rust_eh_personality {
start:
  %0 = load ptr, ptr %_1, align 8, !nonnull !3, !noundef !3
; call std::sys::backtrace::__rust_begin_short_backtrace::<fn(), ()>
  tail call fastcc void @_RINvNtNtCs5sEH5CPMdak_3std3sys9backtrace28___rust_begin_short_backtraceFEuuECslwKqnJYeWCA_18build_script_build(ptr noundef nonnull readonly %0) #27, !noalias !200
  ret i32 0
}

; build_script_build::target_cpu
; Function Attrs: uwtable
define internal fastcc void @_RNvCslwKqnJYeWCA_18build_script_build10target_cpu(ptr dead_on_unwind noalias noundef nonnull writable writeonly align 8 captures(none) dereferenceable(24) %_0) unnamed_addr #0 personality ptr @rust_eh_personality {
start:
  %_5.i = alloca [24 x i8], align 8
  %iter = alloca [72 x i8], align 8
  %rustflags1 = alloca [24 x i8], align 8
  %_3 = alloca [24 x i8], align 8
  call void @llvm.lifetime.start.p0(i64 24, ptr nonnull %_3)
; call std::env::_var_os
  call void @_RNvNtCs5sEH5CPMdak_3std3env7__var_os(ptr noalias noundef nonnull sret([24 x i8]) align 8 captures(address) dereferenceable(24) %_3, ptr noalias noundef nonnull readonly align 1 captures(address, read_provenance) @alloc_07f3eec4949a8d39db630a4a477c65b3, i64 noundef 23)
  %0 = load i64, ptr %_3, align 8, !range !11, !noundef !3
  %.not = icmp eq i64 %0, -9223372036854775808
  br i1 %.not, label %bb16, label %bb17

bb17:                                             ; preds = %start
  %_19.sroa.5.0._3.sroa_idx = getelementptr inbounds nuw i8, ptr %_3, i64 8
  %_19.sroa.5.0.copyload = load ptr, ptr %_19.sroa.5.0._3.sroa_idx, align 8, !nonnull !3, !noundef !3
  %_19.sroa.6.0._3.sroa_idx = getelementptr inbounds nuw i8, ptr %_3, i64 16
  %_19.sroa.6.0.copyload = load i64, ptr %_19.sroa.6.0._3.sroa_idx, align 8
  call void @llvm.lifetime.end.p0(i64 24, ptr nonnull %_3)
  call void @llvm.lifetime.start.p0(i64 24, ptr nonnull %rustflags1)
; invoke <alloc::string::String>::from_utf8_lossy
  invoke void @_RNvMNtCsdJPVW0sQgAG_5alloc6stringNtB2_6String15from_utf8_lossy(ptr noalias noundef nonnull sret([24 x i8]) align 8 captures(none) dereferenceable(24) %rustflags1, ptr noalias noundef nonnull readonly align 1 captures(address, read_provenance) %_19.sroa.5.0.copyload, i64 noundef %_19.sroa.6.0.copyload)
          to label %bb2.i.lr.ph unwind label %cleanup

bb16:                                             ; preds = %start
  call void @llvm.lifetime.end.p0(i64 24, ptr nonnull %_3)
  store i64 -9223372036854775808, ptr %_0, align 8
  br label %bb12

bb12:                                             ; preds = %bb2.i.i.i4.i.i.i40, %bb10, %bb16
  ret void

bb14:                                             ; preds = %bb2.i.i.i4.i.i.i28, %cleanup2, %cleanup2, %cleanup
  %.pn = phi { ptr, i32 } [ %2, %cleanup ], [ %lpad.phi, %cleanup2 ], [ %lpad.phi, %cleanup2 ], [ %lpad.phi, %bb2.i.i.i4.i.i.i28 ]
  %1 = icmp eq i64 %0, 0
  br i1 %1, label %bb15, label %bb2.i.i.i4.i.i.i

bb2.i.i.i4.i.i.i:                                 ; preds = %bb14
; call __rustc::__rust_dealloc
  call void @_RNvCsKhRCbHf33p_7___rustc14___rust_dealloc(ptr noundef nonnull %_19.sroa.5.0.copyload, i64 noundef %0, i64 noundef range(i64 1, -9223372036854775807) 1) #23
  br label %bb15

cleanup:                                          ; preds = %bb17
  %2 = landingpad { ptr, i32 }
          cleanup
  br label %bb14

cleanup2.loopexit:                                ; preds = %bb2.i
  %lpad.loopexit = landingpad { ptr, i32 }
          cleanup
  br label %cleanup2

cleanup2.loopexit.split-lp:                       ; preds = %bb7.i34.invoke, %bb28
  %lpad.loopexit.split-lp = landingpad { ptr, i32 }
          cleanup
  br label %cleanup2

cleanup2:                                         ; preds = %cleanup2.loopexit.split-lp, %cleanup2.loopexit
  %lpad.phi = phi { ptr, i32 } [ %lpad.loopexit, %cleanup2.loopexit ], [ %lpad.loopexit.split-lp, %cleanup2.loopexit.split-lp ]
  switch i64 %4, label %bb2.i.i.i4.i.i.i28 [
    i64 -9223372036854775808, label %bb14
    i64 0, label %bb14
  ]

bb2.i.i.i4.i.i.i28:                               ; preds = %cleanup2
  %3 = icmp ne ptr %_34, null
  call void @llvm.assume(i1 %3)
; call __rustc::__rust_dealloc
  call void @_RNvCsKhRCbHf33p_7___rustc14___rust_dealloc(ptr noundef nonnull %_34, i64 noundef %4, i64 noundef range(i64 1, -9223372036854775807) 1) #23
  br label %bb14

bb2.i.lr.ph:                                      ; preds = %bb17
  %4 = load i64, ptr %rustflags1, align 8, !range !11, !noundef !3
  %5 = getelementptr inbounds nuw i8, ptr %rustflags1, i64 8
  %_34 = load ptr, ptr %5, align 8
  %6 = getelementptr inbounds nuw i8, ptr %rustflags1, i64 16
  %_33 = load i64, ptr %6, align 8
  call void @llvm.lifetime.start.p0(i64 72, ptr nonnull %iter)
  store i64 0, ptr %iter, align 8
  %_7.sroa.2.0.iter.sroa_idx = getelementptr inbounds nuw i8, ptr %iter, i64 8
  store i64 %_33, ptr %_7.sroa.2.0.iter.sroa_idx, align 8
  %_7.sroa.3.0.iter.sroa_idx = getelementptr inbounds nuw i8, ptr %iter, i64 16
  store ptr %_34, ptr %_7.sroa.3.0.iter.sroa_idx, align 8
  %_7.sroa.3.sroa.2.0._7.sroa.3.0.iter.sroa_idx.sroa_idx = getelementptr inbounds nuw i8, ptr %iter, i64 24
  store i64 %_33, ptr %_7.sroa.3.sroa.2.0._7.sroa.3.0.iter.sroa_idx.sroa_idx, align 8
  %_7.sroa.3.sroa.3.0._7.sroa.3.0.iter.sroa_idx.sroa_idx = getelementptr inbounds nuw i8, ptr %iter, i64 32
  store i64 0, ptr %_7.sroa.3.sroa.3.0._7.sroa.3.0.iter.sroa_idx.sroa_idx, align 8
  %_7.sroa.3.sroa.4.0._7.sroa.3.0.iter.sroa_idx.sroa_idx = getelementptr inbounds nuw i8, ptr %iter, i64 40
  store i64 %_33, ptr %_7.sroa.3.sroa.4.0._7.sroa.3.0.iter.sroa_idx.sroa_idx, align 8
  %_7.sroa.3.sroa.5.0._7.sroa.3.0.iter.sroa_idx.sroa_idx = getelementptr inbounds nuw i8, ptr %iter, i64 48
  store <2 x i32> splat (i32 31), ptr %_7.sroa.3.sroa.5.0._7.sroa.3.0.iter.sroa_idx.sroa_idx, align 8
  %_7.sroa.3.sroa.7.0._7.sroa.3.0.iter.sroa_idx.sroa_idx = getelementptr inbounds nuw i8, ptr %iter, i64 56
  store i8 1, ptr %_7.sroa.3.sroa.7.0._7.sroa.3.0.iter.sroa_idx.sroa_idx, align 8
  %_7.sroa.4.0.iter.sroa_idx = getelementptr inbounds nuw i8, ptr %iter, i64 64
  store i8 1, ptr %_7.sroa.4.0.iter.sroa_idx, align 8
  %_7.sroa.5.0.iter.sroa_idx = getelementptr inbounds nuw i8, ptr %iter, i64 65
  store i8 0, ptr %_7.sroa.5.0.iter.sroa_idx, align 1
  %7 = getelementptr inbounds nuw i8, ptr %_5.i, i64 8
  %8 = getelementptr inbounds nuw i8, ptr %_5.i, i64 16
  br label %bb2.i

bb2.i:                                            ; preds = %bb2.i.lr.ph, %bb7
  %cpu.sroa.0.083 = phi ptr [ null, %bb2.i.lr.ph ], [ %spec.select21, %bb7 ]
  %cpu.sroa.4.082 = phi i64 [ undef, %bb2.i.lr.ph ], [ %spec.select20, %bb7 ]
  call void @llvm.experimental.noalias.scope.decl(metadata !203)
  %_4.val.i = load ptr, ptr %_7.sroa.3.0.iter.sroa_idx, align 8, !alias.scope !203, !nonnull !3, !align !18, !noundef !3
  call void @llvm.lifetime.start.p0(i64 24, ptr nonnull %_5.i), !noalias !203
; invoke <core::str::pattern::CharSearcher as core::str::pattern::Searcher>::next_match
  invoke fastcc void @_RNvXs_NtNtCsjMrxcFdYDNN_4core3str7patternNtB4_12CharSearcherNtB4_8Searcher10next_match(ptr noalias noundef align 8 captures(none) dereferenceable(24) %_5.i, ptr noalias noundef align 8 dereferenceable(48) %_7.sroa.3.0.iter.sroa_idx) #28
          to label %.noexc unwind label %cleanup2.loopexit

.noexc:                                           ; preds = %bb2.i
  %_7.i = load i64, ptr %_5.i, align 8, !range !37, !noalias !203, !noundef !3
  %9 = trunc nuw i64 %_7.i to i1
  br i1 %9, label %bb7.i, label %bb6.i

bb7.i:                                            ; preds = %.noexc
  %a.i = load i64, ptr %7, align 8, !noalias !203, !noundef !3
  %b.i = load i64, ptr %8, align 8, !noalias !203, !noundef !3
  %i.i = load i64, ptr %iter, align 8, !alias.scope !203, !noundef !3
  %new_len.i = sub nuw i64 %a.i, %i.i
  %data.i = getelementptr inbounds nuw i8, ptr %_4.val.i, i64 %i.i
  store i64 %b.i, ptr %iter, align 8, !alias.scope !203
  br label %bb4

bb6.i:                                            ; preds = %.noexc
  %10 = load i8, ptr %_7.sroa.5.0.iter.sroa_idx, align 1, !range !54, !alias.scope !206, !noundef !3
  %_2.i.i = trunc nuw i8 %10 to i1
  br i1 %_2.i.i, label %bb23.thread60, label %bb1.i.i

bb1.i.i:                                          ; preds = %bb6.i
  store i8 1, ptr %_7.sroa.5.0.iter.sroa_idx, align 1, !alias.scope !206
  %11 = load i8, ptr %_7.sroa.4.0.iter.sroa_idx, align 8, !range !54, !alias.scope !206, !noundef !3
  %_3.i.i = trunc nuw i8 %11 to i1
  %i.pre.i.i = load i64, ptr %iter, align 8, !alias.scope !206
  %i1.pre.i.i = load i64, ptr %_7.sroa.2.0.iter.sroa_idx, align 8, !alias.scope !206
  %_4.not.i.i = icmp ne i64 %i1.pre.i.i, %i.pre.i.i
  %or.cond.not.i.i = select i1 %_3.i.i, i1 true, i1 %_4.not.i.i
  br i1 %or.cond.not.i.i, label %bb4.i.i, label %bb23.thread60

bb4.i.i:                                          ; preds = %bb1.i.i
  %_10.val.i.i = load ptr, ptr %_7.sroa.3.0.iter.sroa_idx, align 8, !alias.scope !206, !nonnull !3, !align !18, !noundef !3
  %new_len.i.i = sub nuw i64 %i1.pre.i.i, %i.pre.i.i
  %data.i.i = getelementptr inbounds nuw i8, ptr %_10.val.i.i, i64 %i.pre.i.i
  br label %bb4

bb23.thread60:                                    ; preds = %bb6.i, %bb1.i.i
  call void @llvm.lifetime.end.p0(i64 24, ptr nonnull %_5.i), !noalias !203
  br label %bb5

bb4:                                              ; preds = %bb4.i.i, %bb7.i
  %_0.sroa.4.0.i = phi i64 [ %new_len.i, %bb7.i ], [ %new_len.i.i, %bb4.i.i ]
  %_0.sroa.0.0.i = phi ptr [ %data.i, %bb7.i ], [ %data.i.i, %bb4.i.i ]
  call void @llvm.lifetime.end.p0(i64 24, ptr nonnull %_5.i), !noalias !203
  call void @llvm.experimental.noalias.scope.decl(metadata !209)
  %_4.not.i.i29 = icmp samesign ult i64 %_0.sroa.4.0.i, 2
  br i1 %_4.not.i.i29, label %bb6, label %_RNvMNtCsjMrxcFdYDNN_4core5sliceSh11starts_withCslwKqnJYeWCA_18build_script_build.exit.i

_RNvMNtCsjMrxcFdYDNN_4core5sliceSh11starts_withCslwKqnJYeWCA_18build_script_build.exit.i: ; preds = %bb4
  %12 = call i32 @memcmp(ptr noundef nonnull readonly align 1 dereferenceable(2) @alloc_13ae1be13e6486d5c310a371cde21787, ptr noundef nonnull readonly align 1 dereferenceable(2) %_0.sroa.0.0.i, i64 range(i64 2, 16) 2), !alias.scope !212
  %13 = icmp eq i32 %12, 0
  br i1 %13, label %bb1.i, label %bb6

bb1.i:                                            ; preds = %_RNvMNtCsjMrxcFdYDNN_4core5sliceSh11starts_withCslwKqnJYeWCA_18build_script_build.exit.i
  %_8.not.i.i.not = icmp eq i64 %_0.sroa.4.0.i, 2
  br i1 %_8.not.i.i.not, label %_RNvXs9_NtNtCsjMrxcFdYDNN_4core3str6traitsINtNtNtB9_3ops5range9RangeFromjEINtNtNtB9_5slice5index10SliceIndexeE3get.exit.i, label %bb9.i.i

bb9.i.i:                                          ; preds = %bb1.i
  %14 = getelementptr inbounds nuw i8, ptr %_0.sroa.0.0.i, i64 2
  %self1.i.i = load i8, ptr %14, align 1, !alias.scope !220, !noalias !209, !noundef !3
  %15 = icmp sgt i8 %self1.i.i, -65
  br i1 %15, label %_RNvXs9_NtNtCsjMrxcFdYDNN_4core3str6traitsINtNtNtB9_3ops5range9RangeFromjEINtNtNtB9_5slice5index10SliceIndexeE3get.exit.i, label %bb7.i34.invoke

_RNvXs9_NtNtCsjMrxcFdYDNN_4core3str6traitsINtNtNtB9_3ops5range9RangeFromjEINtNtNtB9_5slice5index10SliceIndexeE3get.exit.i: ; preds = %bb9.i.i, %bb1.i
  %new_len.i.i32 = add i64 %_0.sroa.4.0.i, -2
  %data.i.i33 = getelementptr inbounds nuw i8, ptr %_0.sroa.0.0.i, i64 2
  br label %bb6

bb7.i34.invoke:                                   ; preds = %bb9.i.i51, %bb9.i.i
  %16 = phi ptr [ %_0.sroa.0.0.i, %bb9.i.i ], [ %spec.select19, %bb9.i.i51 ]
  %17 = phi i64 [ %_0.sroa.4.0.i, %bb9.i.i ], [ %spec.select, %bb9.i.i51 ]
  %18 = phi i64 [ 2, %bb9.i.i ], [ 11, %bb9.i.i51 ]
; invoke core::str::slice_error_fail
  invoke void @_RNvNtCsjMrxcFdYDNN_4core3str16slice_error_fail(ptr noalias noundef nonnull readonly align 1 captures(address, read_provenance) %16, i64 noundef %17, i64 noundef %18, i64 noundef %17, ptr noalias noundef readonly align 8 captures(address, read_provenance) dereferenceable(24) @alloc_b9a6efcfeb17b646c43fe2783a9632a7) #29
          to label %bb7.i34.cont unwind label %cleanup2.loopexit.split-lp

bb7.i34.cont:                                     ; preds = %bb7.i34.invoke
  unreachable

bb5:                                              ; preds = %bb7, %bb23.thread60
  %cpu.sroa.4.078 = phi i64 [ %cpu.sroa.4.082, %bb23.thread60 ], [ %spec.select20, %bb7 ]
  %cpu.sroa.0.073 = phi ptr [ %cpu.sroa.0.083, %bb23.thread60 ], [ %spec.select21, %bb7 ]
  call void @llvm.lifetime.end.p0(i64 72, ptr nonnull %iter)
  %.not15 = icmp eq ptr %cpu.sroa.0.073, null
  br i1 %.not15, label %bb25, label %bb26

bb26:                                             ; preds = %bb5
  %_23.i.i = icmp eq i64 %cpu.sroa.4.078, 0
  br i1 %_23.i.i, label %bb29, label %bb6.i.i

bb6.i.i:                                          ; preds = %bb26
  %or.cond.not = icmp sgt i64 %cpu.sroa.4.078, 0
  br i1 %or.cond.not, label %_RNvXs_NtCsdJPVW0sQgAG_5alloc5allocNtB4_6GlobalNtNtCsjMrxcFdYDNN_4core5alloc9Allocator8allocate.exit.i, label %bb28, !prof !223

_RNvXs_NtCsdJPVW0sQgAG_5alloc5allocNtB4_6GlobalNtNtCsjMrxcFdYDNN_4core5alloc9Allocator8allocate.exit.i: ; preds = %bb6.i.i
; call __rustc::__rust_no_alloc_shim_is_unstable_v2
  call void @_RNvCsKhRCbHf33p_7___rustc35___rust_no_alloc_shim_is_unstable_v2() #23, !noalias !224
; call __rustc::__rust_alloc
  %19 = call noundef ptr @_RNvCsKhRCbHf33p_7___rustc12___rust_alloc(i64 noundef %cpu.sroa.4.078, i64 noundef range(i64 1, -9223372036854775807) 1) #23, !noalias !224
  %20 = icmp eq ptr %19, null
  br i1 %20, label %bb28, label %bb10.i

bb10.i:                                           ; preds = %_RNvXs_NtCsdJPVW0sQgAG_5alloc5allocNtB4_6GlobalNtNtCsjMrxcFdYDNN_4core5alloc9Allocator8allocate.exit.i
  %21 = ptrtoint ptr %19 to i64
  br label %bb29

bb25:                                             ; preds = %bb5
  store i64 -9223372036854775808, ptr %_0, align 8
  br label %bb24

bb24:                                             ; preds = %bb29, %bb25
  switch i64 %4, label %bb2.i.i.i4.i.i.i38 [
    i64 -9223372036854775808, label %bb10
    i64 0, label %bb10
  ]

bb2.i.i.i4.i.i.i38:                               ; preds = %bb24
  %22 = icmp ne ptr %_34, null
  call void @llvm.assume(i1 %22)
; call __rustc::__rust_dealloc
  call void @_RNvCsKhRCbHf33p_7___rustc14___rust_dealloc(ptr noundef nonnull %_34, i64 noundef %4, i64 noundef range(i64 1, -9223372036854775807) 1) #23
  br label %bb10

bb28:                                             ; preds = %bb6.i.i, %_RNvXs_NtCsdJPVW0sQgAG_5alloc5allocNtB4_6GlobalNtNtCsjMrxcFdYDNN_4core5alloc9Allocator8allocate.exit.i
  %_52.sroa.4.0.ph = phi i64 [ 1, %_RNvXs_NtCsdJPVW0sQgAG_5alloc5allocNtB4_6GlobalNtNtCsjMrxcFdYDNN_4core5alloc9Allocator8allocate.exit.i ], [ 0, %bb6.i.i ]
; invoke alloc::raw_vec::handle_error
  invoke void @_RNvNtCsdJPVW0sQgAG_5alloc7raw_vec12handle_error(i64 noundef %_52.sroa.4.0.ph, i64 %cpu.sroa.4.078) #26
          to label %unreachable unwind label %cleanup2.loopexit.split-lp

bb29:                                             ; preds = %bb26, %bb10.i
  %_52.sroa.10.0 = phi i64 [ %21, %bb10.i ], [ 1, %bb26 ]
  %23 = inttoptr i64 %_52.sroa.10.0 to ptr
  call void @llvm.memcpy.p0.p0.i64(ptr nonnull align 1 %23, ptr nonnull align 1 %cpu.sroa.0.073, i64 %cpu.sroa.4.078, i1 false)
  store i64 %cpu.sroa.4.078, ptr %_0, align 8
  %_42.sroa.4.0._0.sroa_idx = getelementptr inbounds nuw i8, ptr %_0, i64 8
  store ptr %23, ptr %_42.sroa.4.0._0.sroa_idx, align 8
  %_42.sroa.5.0._0.sroa_idx = getelementptr inbounds nuw i8, ptr %_0, i64 16
  store i64 %cpu.sroa.4.078, ptr %_42.sroa.5.0._0.sroa_idx, align 8
  br label %bb24

bb10:                                             ; preds = %bb2.i.i.i4.i.i.i38, %bb24, %bb24
  call void @llvm.lifetime.end.p0(i64 24, ptr nonnull %rustflags1)
  %24 = icmp eq i64 %0, 0
  br i1 %24, label %bb12, label %bb2.i.i.i4.i.i.i40

bb2.i.i.i4.i.i.i40:                               ; preds = %bb10
; call __rustc::__rust_dealloc
  call void @_RNvCsKhRCbHf33p_7___rustc14___rust_dealloc(ptr noundef nonnull %_19.sroa.5.0.copyload, i64 noundef %0, i64 noundef range(i64 1, -9223372036854775807) 1) #23
  br label %bb12

unreachable:                                      ; preds = %bb28
  unreachable

bb6:                                              ; preds = %_RNvXs9_NtNtCsjMrxcFdYDNN_4core3str6traitsINtNtNtB9_3ops5range9RangeFromjEINtNtNtB9_5slice5index10SliceIndexeE3get.exit.i, %_RNvMNtCsjMrxcFdYDNN_4core5sliceSh11starts_withCslwKqnJYeWCA_18build_script_build.exit.i, %bb4
  %_0.sroa.4.0.i30 = phi i64 [ %new_len.i.i32, %_RNvXs9_NtNtCsjMrxcFdYDNN_4core3str6traitsINtNtNtB9_3ops5range9RangeFromjEINtNtNtB9_5slice5index10SliceIndexeE3get.exit.i ], [ undef, %_RNvMNtCsjMrxcFdYDNN_4core5sliceSh11starts_withCslwKqnJYeWCA_18build_script_build.exit.i ], [ undef, %bb4 ]
  %_0.sroa.0.0.i31 = phi ptr [ %data.i.i33, %_RNvXs9_NtNtCsjMrxcFdYDNN_4core3str6traitsINtNtNtB9_3ops5range9RangeFromjEINtNtNtB9_5slice5index10SliceIndexeE3get.exit.i ], [ null, %_RNvMNtCsjMrxcFdYDNN_4core5sliceSh11starts_withCslwKqnJYeWCA_18build_script_build.exit.i ], [ null, %bb4 ]
  %.not16 = icmp eq ptr %_0.sroa.0.0.i31, null
  %spec.select = select i1 %.not16, i64 %_0.sroa.4.0.i, i64 %_0.sroa.4.0.i30
  %spec.select19 = select i1 %.not16, ptr %_0.sroa.0.0.i, ptr %_0.sroa.0.0.i31
  call void @llvm.experimental.noalias.scope.decl(metadata !227)
  %_4.not.i.i42 = icmp samesign ult i64 %spec.select, 11
  br i1 %_4.not.i.i42, label %bb7, label %_RNvMNtCsjMrxcFdYDNN_4core5sliceSh11starts_withCslwKqnJYeWCA_18build_script_build.exit.i43

_RNvMNtCsjMrxcFdYDNN_4core5sliceSh11starts_withCslwKqnJYeWCA_18build_script_build.exit.i43: ; preds = %bb6
  %25 = call i32 @memcmp(ptr noundef nonnull readonly align 1 dereferenceable(11) @alloc_28b6e12cbb2608b0ebceb37ca6d5945a, ptr noundef nonnull readonly align 1 dereferenceable(11) %spec.select19, i64 range(i64 2, 16) 11), !alias.scope !230
  %26 = icmp eq i32 %25, 0
  br i1 %26, label %bb1.i46, label %bb7

bb1.i46:                                          ; preds = %_RNvMNtCsjMrxcFdYDNN_4core5sliceSh11starts_withCslwKqnJYeWCA_18build_script_build.exit.i43
  %_8.not.i.i47.not = icmp eq i64 %spec.select, 11
  br i1 %_8.not.i.i47.not, label %_RNvXs9_NtNtCsjMrxcFdYDNN_4core3str6traitsINtNtNtB9_3ops5range9RangeFromjEINtNtNtB9_5slice5index10SliceIndexeE3get.exit.i48, label %bb9.i.i51

bb9.i.i51:                                        ; preds = %bb1.i46
  %27 = getelementptr inbounds nuw i8, ptr %spec.select19, i64 11
  %self1.i.i52 = load i8, ptr %27, align 1, !alias.scope !238, !noalias !227, !noundef !3
  %28 = icmp sgt i8 %self1.i.i52, -65
  br i1 %28, label %_RNvXs9_NtNtCsjMrxcFdYDNN_4core3str6traitsINtNtNtB9_3ops5range9RangeFromjEINtNtNtB9_5slice5index10SliceIndexeE3get.exit.i48, label %bb7.i34.invoke

_RNvXs9_NtNtCsjMrxcFdYDNN_4core3str6traitsINtNtNtB9_3ops5range9RangeFromjEINtNtNtB9_5slice5index10SliceIndexeE3get.exit.i48: ; preds = %bb9.i.i51, %bb1.i46
  %new_len.i.i49 = add i64 %spec.select, -11
  %data.i.i50 = getelementptr inbounds nuw i8, ptr %spec.select19, i64 11
  br label %bb7

bb7:                                              ; preds = %_RNvXs9_NtNtCsjMrxcFdYDNN_4core3str6traitsINtNtNtB9_3ops5range9RangeFromjEINtNtNtB9_5slice5index10SliceIndexeE3get.exit.i48, %_RNvMNtCsjMrxcFdYDNN_4core5sliceSh11starts_withCslwKqnJYeWCA_18build_script_build.exit.i43, %bb6
  %_0.sroa.4.0.i44 = phi i64 [ %new_len.i.i49, %_RNvXs9_NtNtCsjMrxcFdYDNN_4core3str6traitsINtNtNtB9_3ops5range9RangeFromjEINtNtNtB9_5slice5index10SliceIndexeE3get.exit.i48 ], [ undef, %_RNvMNtCsjMrxcFdYDNN_4core5sliceSh11starts_withCslwKqnJYeWCA_18build_script_build.exit.i43 ], [ undef, %bb6 ]
  %_0.sroa.0.0.i45 = phi ptr [ %data.i.i50, %_RNvXs9_NtNtCsjMrxcFdYDNN_4core3str6traitsINtNtNtB9_3ops5range9RangeFromjEINtNtNtB9_5slice5index10SliceIndexeE3get.exit.i48 ], [ null, %_RNvMNtCsjMrxcFdYDNN_4core5sliceSh11starts_withCslwKqnJYeWCA_18build_script_build.exit.i43 ], [ null, %bb6 ]
  %.not18 = icmp eq ptr %_0.sroa.0.0.i45, null
  %spec.select20 = select i1 %.not18, i64 %cpu.sroa.4.082, i64 %_0.sroa.4.0.i44
  %spec.select21 = select i1 %.not18, ptr %cpu.sroa.0.083, ptr %_0.sroa.0.0.i45
  %29 = load i8, ptr %_7.sroa.5.0.iter.sroa_idx, align 1, !range !54, !alias.scope !241, !noundef !3
  %_2.i = trunc nuw i8 %29 to i1
  br i1 %_2.i, label %bb5, label %bb2.i

bb15:                                             ; preds = %bb2.i.i.i4.i.i.i, %bb14
  resume { ptr, i32 } %.pn
}

; build_script_build::strip_prefix
; Function Attrs: uwtable
define internal fastcc { ptr, i64 } @_RNvCslwKqnJYeWCA_18build_script_build12strip_prefix(ptr noalias noundef nonnull readonly align 1 captures(address, read_provenance) %s.0, i64 noundef %s.1, ptr noalias noundef nonnull readonly align 1 captures(none) %pat.0, i64 noundef range(i64 2, 16) %pat.1) unnamed_addr #0 {
start:
  %_4.not.i = icmp samesign ult i64 %s.1, %pat.1
  br i1 %_4.not.i, label %bb3, label %_RNvMNtCsjMrxcFdYDNN_4core5sliceSh11starts_withCslwKqnJYeWCA_18build_script_build.exit

_RNvMNtCsjMrxcFdYDNN_4core5sliceSh11starts_withCslwKqnJYeWCA_18build_script_build.exit: ; preds = %start
  %0 = tail call i32 @memcmp(ptr noundef nonnull readonly align 1 dereferenceable(1) %pat.0, ptr noundef nonnull readonly align 1 dereferenceable(1) %s.0, i64 range(i64 2, 16) %pat.1), !alias.scope !243
  %1 = icmp eq i32 %0, 0
  br i1 %1, label %bb1, label %bb3

bb1:                                              ; preds = %_RNvMNtCsjMrxcFdYDNN_4core5sliceSh11starts_withCslwKqnJYeWCA_18build_script_build.exit
  %_8.not.i = icmp ult i64 %pat.1, %s.1
  br i1 %_8.not.i, label %bb9.i, label %_RNvXs9_NtNtCsjMrxcFdYDNN_4core3str6traitsINtNtNtB9_3ops5range9RangeFromjEINtNtNtB9_5slice5index10SliceIndexeE3get.exit

bb9.i:                                            ; preds = %bb1
  %2 = getelementptr inbounds nuw i8, ptr %s.0, i64 %pat.1
  %self1.i = load i8, ptr %2, align 1, !alias.scope !250, !noundef !3
  %3 = icmp sgt i8 %self1.i, -65
  br i1 %3, label %_RNvXs9_NtNtCsjMrxcFdYDNN_4core3str6traitsINtNtNtB9_3ops5range9RangeFromjEINtNtNtB9_5slice5index10SliceIndexeE3get.exit, label %bb7

_RNvXs9_NtNtCsjMrxcFdYDNN_4core3str6traitsINtNtNtB9_3ops5range9RangeFromjEINtNtNtB9_5slice5index10SliceIndexeE3get.exit: ; preds = %bb1, %bb9.i
  %new_len.i = sub nuw i64 %s.1, %pat.1
  %data.i = getelementptr inbounds nuw i8, ptr %s.0, i64 %pat.1
  br label %bb3

bb3:                                              ; preds = %start, %_RNvXs9_NtNtCsjMrxcFdYDNN_4core3str6traitsINtNtNtB9_3ops5range9RangeFromjEINtNtNtB9_5slice5index10SliceIndexeE3get.exit, %_RNvMNtCsjMrxcFdYDNN_4core5sliceSh11starts_withCslwKqnJYeWCA_18build_script_build.exit
  %_0.sroa.4.0 = phi i64 [ %new_len.i, %_RNvXs9_NtNtCsjMrxcFdYDNN_4core3str6traitsINtNtNtB9_3ops5range9RangeFromjEINtNtNtB9_5slice5index10SliceIndexeE3get.exit ], [ undef, %_RNvMNtCsjMrxcFdYDNN_4core5sliceSh11starts_withCslwKqnJYeWCA_18build_script_build.exit ], [ undef, %start ]
  %_0.sroa.0.0 = phi ptr [ %data.i, %_RNvXs9_NtNtCsjMrxcFdYDNN_4core3str6traitsINtNtNtB9_3ops5range9RangeFromjEINtNtNtB9_5slice5index10SliceIndexeE3get.exit ], [ null, %_RNvMNtCsjMrxcFdYDNN_4core5sliceSh11starts_withCslwKqnJYeWCA_18build_script_build.exit ], [ null, %start ]
  %4 = insertvalue { ptr, i64 } poison, ptr %_0.sroa.0.0, 0
  %5 = insertvalue { ptr, i64 } %4, i64 %_0.sroa.4.0, 1
  ret { ptr, i64 } %5

bb7:                                              ; preds = %bb9.i
; call core::str::slice_error_fail
  tail call void @_RNvNtCsjMrxcFdYDNN_4core3str16slice_error_fail(ptr noalias noundef nonnull readonly align 1 captures(address, read_provenance) %s.0, i64 noundef %s.1, i64 noundef %pat.1, i64 noundef %s.1, ptr noalias noundef readonly align 8 captures(address, read_provenance) dereferenceable(24) @alloc_b9a6efcfeb17b646c43fe2783a9632a7) #29
  unreachable
}

; build_script_build::is_allowed_feature
; Function Attrs: uwtable
define internal fastcc noundef zeroext i1 @_RNvCslwKqnJYeWCA_18build_script_build18is_allowed_feature(ptr noalias noundef nonnull readonly align 1 captures(none) %0, i64 noundef range(i64 3, 22) %1) unnamed_addr #0 personality ptr @rust_eh_personality {
start:
  %_5.i.i.i = alloca [24 x i8], align 8
  %_5.i = alloca [24 x i8], align 8
  %_19 = alloca [72 x i8], align 8
  %iter = alloca [72 x i8], align 8
  %_8 = alloca [24 x i8], align 8
  %_3 = alloca [24 x i8], align 8
  %_2 = alloca [24 x i8], align 8
  call void @llvm.lifetime.start.p0(i64 24, ptr nonnull %_2)
; call std::env::_var_os
  call void @_RNvNtCs5sEH5CPMdak_3std3env7__var_os(ptr noalias noundef nonnull sret([24 x i8]) align 8 captures(address) dereferenceable(24) %_2, ptr noalias noundef nonnull readonly align 1 captures(address, read_provenance) @alloc_dd8815cdae13b8c8aeb9b9be3f3d7a26, i64 noundef 11)
  %2 = load i64, ptr %_2, align 8, !range !11, !noundef !3
  switch i64 %2, label %bb2.i.i.i4.i.i.i.i [
    i64 -9223372036854775808, label %_RINvNtCsjMrxcFdYDNN_4core3ptr13drop_in_placeINtNtB4_6option6OptionNtNtNtCs5sEH5CPMdak_3std3ffi6os_str8OsStringEECslwKqnJYeWCA_18build_script_build.exit30
    i64 0, label %_RINvNtCsjMrxcFdYDNN_4core3ptr13drop_in_placeINtNtB4_6option6OptionNtNtNtCs5sEH5CPMdak_3std3ffi6os_str8OsStringEECslwKqnJYeWCA_18build_script_build.exit
  ]

bb2.i.i.i4.i.i.i.i:                               ; preds = %start
  %3 = getelementptr inbounds nuw i8, ptr %_2, i64 8
  %_2.val25 = load ptr, ptr %3, align 8, !nonnull !3, !noundef !3
; call __rustc::__rust_dealloc
  call void @_RNvCsKhRCbHf33p_7___rustc14___rust_dealloc(ptr noundef nonnull %_2.val25, i64 noundef %2, i64 noundef range(i64 1, -9223372036854775807) 1) #23
  br label %_RINvNtCsjMrxcFdYDNN_4core3ptr13drop_in_placeINtNtB4_6option6OptionNtNtNtCs5sEH5CPMdak_3std3ffi6os_str8OsStringEECslwKqnJYeWCA_18build_script_build.exit

_RINvNtCsjMrxcFdYDNN_4core3ptr13drop_in_placeINtNtB4_6option6OptionNtNtNtCs5sEH5CPMdak_3std3ffi6os_str8OsStringEECslwKqnJYeWCA_18build_script_build.exit: ; preds = %start, %bb2.i.i.i4.i.i.i.i
  call void @llvm.lifetime.end.p0(i64 24, ptr nonnull %_2)
  br label %bb18

_RINvNtCsjMrxcFdYDNN_4core3ptr13drop_in_placeINtNtB4_6option6OptionNtNtNtCs5sEH5CPMdak_3std3ffi6os_str8OsStringEECslwKqnJYeWCA_18build_script_build.exit30: ; preds = %start
  call void @llvm.lifetime.end.p0(i64 24, ptr nonnull %_2)
  call void @llvm.lifetime.start.p0(i64 24, ptr nonnull %_3)
; call std::env::_var_os
  call void @_RNvNtCs5sEH5CPMdak_3std3env7__var_os(ptr noalias noundef nonnull sret([24 x i8]) align 8 captures(address) dereferenceable(24) %_3, ptr noalias noundef nonnull readonly align 1 captures(address, read_provenance) @alloc_07f3eec4949a8d39db630a4a477c65b3, i64 noundef 23)
  %4 = load i64, ptr %_3, align 8, !range !11, !noundef !3
  %.not9 = icmp eq i64 %4, -9223372036854775808
  br i1 %.not9, label %bb22, label %bb7

bb18:                                             ; preds = %bb22, %_RINvNtCsjMrxcFdYDNN_4core3ptr13drop_in_placeINtNtB4_6option6OptionNtNtNtCs5sEH5CPMdak_3std3ffi6os_str8OsStringEECslwKqnJYeWCA_18build_script_build.exit
  %allowed.sroa.0.0.off0 = phi i1 [ false, %_RINvNtCsjMrxcFdYDNN_4core3ptr13drop_in_placeINtNtB4_6option6OptionNtNtNtCs5sEH5CPMdak_3std3ffi6os_str8OsStringEECslwKqnJYeWCA_18build_script_build.exit ], [ %allowed.sroa.0.1.off0, %bb22 ]
  ret i1 %allowed.sroa.0.0.off0

bb7:                                              ; preds = %_RINvNtCsjMrxcFdYDNN_4core3ptr13drop_in_placeINtNtB4_6option6OptionNtNtNtCs5sEH5CPMdak_3std3ffi6os_str8OsStringEECslwKqnJYeWCA_18build_script_build.exit30
  %rustflags.sroa.5.0._3.sroa_idx = getelementptr inbounds nuw i8, ptr %_3, i64 8
  %rustflags.sroa.5.0.copyload = load ptr, ptr %rustflags.sroa.5.0._3.sroa_idx, align 8, !nonnull !3, !noundef !3
  %rustflags.sroa.8.0._3.sroa_idx = getelementptr inbounds nuw i8, ptr %_3, i64 16
  %rustflags.sroa.8.0.copyload = load i64, ptr %rustflags.sroa.8.0._3.sroa_idx, align 8
  call void @llvm.lifetime.start.p0(i64 24, ptr nonnull %_8)
; invoke <alloc::string::String>::from_utf8_lossy
  invoke void @_RNvMNtCsdJPVW0sQgAG_5alloc6stringNtB2_6String15from_utf8_lossy(ptr noalias noundef nonnull sret([24 x i8]) align 8 captures(none) dereferenceable(24) %_8, ptr noalias noundef nonnull readonly align 1 captures(address, read_provenance) %rustflags.sroa.5.0.copyload, i64 noundef %rustflags.sroa.8.0.copyload)
          to label %bb2.i.lr.ph unwind label %cleanup

bb22:                                             ; preds = %bb2.i.i.i4.i.i.i42, %bb16, %_RINvNtCsjMrxcFdYDNN_4core3ptr13drop_in_placeINtNtB4_6option6OptionNtNtNtCs5sEH5CPMdak_3std3ffi6os_str8OsStringEECslwKqnJYeWCA_18build_script_build.exit30
  %allowed.sroa.0.1.off0 = phi i1 [ true, %_RINvNtCsjMrxcFdYDNN_4core3ptr13drop_in_placeINtNtB4_6option6OptionNtNtNtCs5sEH5CPMdak_3std3ffi6os_str8OsStringEECslwKqnJYeWCA_18build_script_build.exit30 ], [ %allowed.sroa.0.2.off077, %bb16 ], [ %allowed.sroa.0.2.off077, %bb2.i.i.i4.i.i.i42 ]
  call void @llvm.lifetime.end.p0(i64 24, ptr nonnull %_3)
  br label %bb18

bb20:                                             ; preds = %bb2.i.i.i4.i.i.i31, %cleanup1, %cleanup1, %cleanup
  %.pn = phi { ptr, i32 } [ %6, %cleanup ], [ %lpad.phi, %cleanup1 ], [ %lpad.phi, %cleanup1 ], [ %lpad.phi, %bb2.i.i.i4.i.i.i31 ]
  %5 = icmp eq i64 %4, 0
  br i1 %5, label %bb21, label %bb2.i.i.i4.i.i.i

bb2.i.i.i4.i.i.i:                                 ; preds = %bb20
; call __rustc::__rust_dealloc
  call void @_RNvCsKhRCbHf33p_7___rustc14___rust_dealloc(ptr noundef nonnull %rustflags.sroa.5.0.copyload, i64 noundef %4, i64 noundef range(i64 1, -9223372036854775807) 1) #23
  br label %bb21

cleanup:                                          ; preds = %bb7
  %6 = landingpad { ptr, i32 }
          cleanup
  br label %bb20

cleanup1.loopexit:                                ; preds = %bb2.i.i.i
  %lpad.loopexit = landingpad { ptr, i32 }
          cleanup
  br label %cleanup1

cleanup1.loopexit.split-lp.loopexit:              ; preds = %bb2.i
  %lpad.loopexit69 = landingpad { ptr, i32 }
          cleanup
  br label %cleanup1

cleanup1.loopexit.split-lp.loopexit.split-lp:     ; preds = %bb7.i55.invoke
  %lpad.loopexit.split-lp70 = landingpad { ptr, i32 }
          cleanup
  br label %cleanup1

cleanup1:                                         ; preds = %cleanup1.loopexit.split-lp.loopexit, %cleanup1.loopexit.split-lp.loopexit.split-lp, %cleanup1.loopexit
  %lpad.phi = phi { ptr, i32 } [ %lpad.loopexit, %cleanup1.loopexit ], [ %lpad.loopexit69, %cleanup1.loopexit.split-lp.loopexit ], [ %lpad.loopexit.split-lp70, %cleanup1.loopexit.split-lp.loopexit.split-lp ]
  switch i64 %8, label %bb2.i.i.i4.i.i.i31 [
    i64 -9223372036854775808, label %bb20
    i64 0, label %bb20
  ]

bb2.i.i.i4.i.i.i31:                               ; preds = %cleanup1
  %7 = icmp ne ptr %_37, null
  call void @llvm.assume(i1 %7)
; call __rustc::__rust_dealloc
  call void @_RNvCsKhRCbHf33p_7___rustc14___rust_dealloc(ptr noundef nonnull %_37, i64 noundef %8, i64 noundef range(i64 1, -9223372036854775807) 1) #23
  br label %bb20

bb2.i.lr.ph:                                      ; preds = %bb7
  %8 = load i64, ptr %_8, align 8, !range !11, !noundef !3
  %9 = getelementptr inbounds nuw i8, ptr %_8, i64 8
  %_37 = load ptr, ptr %9, align 8
  %10 = getelementptr inbounds nuw i8, ptr %_8, i64 16
  %_36 = load i64, ptr %10, align 8
  call void @llvm.lifetime.start.p0(i64 72, ptr nonnull %iter)
  store i64 0, ptr %iter, align 8
  %_6.sroa.2.0.iter.sroa_idx = getelementptr inbounds nuw i8, ptr %iter, i64 8
  store i64 %_36, ptr %_6.sroa.2.0.iter.sroa_idx, align 8
  %_6.sroa.3.0.iter.sroa_idx = getelementptr inbounds nuw i8, ptr %iter, i64 16
  store ptr %_37, ptr %_6.sroa.3.0.iter.sroa_idx, align 8
  %_6.sroa.3.sroa.2.0._6.sroa.3.0.iter.sroa_idx.sroa_idx = getelementptr inbounds nuw i8, ptr %iter, i64 24
  store i64 %_36, ptr %_6.sroa.3.sroa.2.0._6.sroa.3.0.iter.sroa_idx.sroa_idx, align 8
  %_6.sroa.3.sroa.3.0._6.sroa.3.0.iter.sroa_idx.sroa_idx = getelementptr inbounds nuw i8, ptr %iter, i64 32
  store i64 0, ptr %_6.sroa.3.sroa.3.0._6.sroa.3.0.iter.sroa_idx.sroa_idx, align 8
  %_6.sroa.3.sroa.4.0._6.sroa.3.0.iter.sroa_idx.sroa_idx = getelementptr inbounds nuw i8, ptr %iter, i64 40
  store i64 %_36, ptr %_6.sroa.3.sroa.4.0._6.sroa.3.0.iter.sroa_idx.sroa_idx, align 8
  %_6.sroa.3.sroa.5.0._6.sroa.3.0.iter.sroa_idx.sroa_idx = getelementptr inbounds nuw i8, ptr %iter, i64 48
  store <2 x i32> splat (i32 31), ptr %_6.sroa.3.sroa.5.0._6.sroa.3.0.iter.sroa_idx.sroa_idx, align 8
  %_6.sroa.3.sroa.7.0._6.sroa.3.0.iter.sroa_idx.sroa_idx = getelementptr inbounds nuw i8, ptr %iter, i64 56
  store i8 1, ptr %_6.sroa.3.sroa.7.0._6.sroa.3.0.iter.sroa_idx.sroa_idx, align 8
  %_6.sroa.4.0.iter.sroa_idx = getelementptr inbounds nuw i8, ptr %iter, i64 64
  store i8 1, ptr %_6.sroa.4.0.iter.sroa_idx, align 8
  %_6.sroa.5.0.iter.sroa_idx = getelementptr inbounds nuw i8, ptr %iter, i64 65
  store i8 0, ptr %_6.sroa.5.0.iter.sroa_idx, align 1
  %11 = getelementptr inbounds nuw i8, ptr %_5.i, i64 8
  %12 = getelementptr inbounds nuw i8, ptr %_5.i, i64 16
  %_44.sroa.4.0._19.sroa_idx = getelementptr inbounds nuw i8, ptr %_19, i64 8
  %_44.sroa.5.0._19.sroa_idx = getelementptr inbounds nuw i8, ptr %_19, i64 16
  %_44.sroa.5.sroa.4.0._44.sroa.5.0._19.sroa_idx.sroa_idx = getelementptr inbounds nuw i8, ptr %_19, i64 24
  %_44.sroa.5.sroa.5.0._44.sroa.5.0._19.sroa_idx.sroa_idx = getelementptr inbounds nuw i8, ptr %_19, i64 32
  %_44.sroa.5.sroa.6.0._44.sroa.5.0._19.sroa_idx.sroa_idx = getelementptr inbounds nuw i8, ptr %_19, i64 40
  %_44.sroa.5.sroa.7.0._44.sroa.5.0._19.sroa_idx.sroa_idx = getelementptr inbounds nuw i8, ptr %_19, i64 48
  %_44.sroa.5.sroa.9.0._44.sroa.5.0._19.sroa_idx.sroa_idx = getelementptr inbounds nuw i8, ptr %_19, i64 56
  %_44.sroa.6.0._19.sroa_idx = getelementptr inbounds nuw i8, ptr %_19, i64 64
  %_44.sroa.7.0._19.sroa_idx = getelementptr inbounds nuw i8, ptr %_19, i64 65
  %13 = getelementptr inbounds nuw i8, ptr %_5.i.i.i, i64 8
  %14 = getelementptr inbounds nuw i8, ptr %_5.i.i.i, i64 16
  br label %bb2.i

bb2.i:                                            ; preds = %bb2.i.lr.ph, %bb15
  %allowed.sroa.0.2.off085 = phi i1 [ true, %bb2.i.lr.ph ], [ %allowed.sroa.0.3.off0, %bb15 ]
  call void @llvm.experimental.noalias.scope.decl(metadata !253)
  %_4.val.i = load ptr, ptr %_6.sroa.3.0.iter.sroa_idx, align 8, !alias.scope !253, !nonnull !3, !align !18, !noundef !3
  call void @llvm.lifetime.start.p0(i64 24, ptr nonnull %_5.i), !noalias !253
; invoke <core::str::pattern::CharSearcher as core::str::pattern::Searcher>::next_match
  invoke fastcc void @_RNvXs_NtNtCsjMrxcFdYDNN_4core3str7patternNtB4_12CharSearcherNtB4_8Searcher10next_match(ptr noalias noundef align 8 captures(none) dereferenceable(24) %_5.i, ptr noalias noundef align 8 dereferenceable(48) %_6.sroa.3.0.iter.sroa_idx) #28
          to label %.noexc unwind label %cleanup1.loopexit.split-lp.loopexit

.noexc:                                           ; preds = %bb2.i
  %_7.i = load i64, ptr %_5.i, align 8, !range !37, !noalias !253, !noundef !3
  %15 = trunc nuw i64 %_7.i to i1
  br i1 %15, label %bb7.i, label %bb6.i

bb7.i:                                            ; preds = %.noexc
  %a.i = load i64, ptr %11, align 8, !noalias !253, !noundef !3
  %b.i = load i64, ptr %12, align 8, !noalias !253, !noundef !3
  %i.i = load i64, ptr %iter, align 8, !alias.scope !253, !noundef !3
  %new_len.i = sub nuw i64 %a.i, %i.i
  %data.i = getelementptr inbounds nuw i8, ptr %_4.val.i, i64 %i.i
  store i64 %b.i, ptr %iter, align 8, !alias.scope !253
  br label %bb10

bb6.i:                                            ; preds = %.noexc
  %16 = load i8, ptr %_6.sroa.5.0.iter.sroa_idx, align 1, !range !54, !alias.scope !256, !noundef !3
  %_2.i.i = trunc nuw i8 %16 to i1
  br i1 %_2.i.i, label %bb28.thread62, label %bb1.i.i

bb1.i.i:                                          ; preds = %bb6.i
  store i8 1, ptr %_6.sroa.5.0.iter.sroa_idx, align 1, !alias.scope !256
  %17 = load i8, ptr %_6.sroa.4.0.iter.sroa_idx, align 8, !range !54, !alias.scope !256, !noundef !3
  %_3.i.i = trunc nuw i8 %17 to i1
  %i.pre.i.i = load i64, ptr %iter, align 8, !alias.scope !256
  %i1.pre.i.i = load i64, ptr %_6.sroa.2.0.iter.sroa_idx, align 8, !alias.scope !256
  %_4.not.i.i = icmp ne i64 %i1.pre.i.i, %i.pre.i.i
  %or.cond.not.i.i = select i1 %_3.i.i, i1 true, i1 %_4.not.i.i
  br i1 %or.cond.not.i.i, label %bb4.i.i, label %bb28.thread62

bb4.i.i:                                          ; preds = %bb1.i.i
  %_10.val.i.i = load ptr, ptr %_6.sroa.3.0.iter.sroa_idx, align 8, !alias.scope !256, !nonnull !3, !align !18, !noundef !3
  %new_len.i.i = sub nuw i64 %i1.pre.i.i, %i.pre.i.i
  %data.i.i = getelementptr inbounds nuw i8, ptr %_10.val.i.i, i64 %i.pre.i.i
  br label %bb10

bb28.thread62:                                    ; preds = %bb6.i, %bb1.i.i
  call void @llvm.lifetime.end.p0(i64 24, ptr nonnull %_5.i), !noalias !253
  br label %bb11

bb10:                                             ; preds = %bb4.i.i, %bb7.i
  %_0.sroa.4.0.i = phi i64 [ %new_len.i, %bb7.i ], [ %new_len.i.i, %bb4.i.i ]
  %_0.sroa.0.0.i = phi ptr [ %data.i, %bb7.i ], [ %data.i.i, %bb4.i.i ]
  call void @llvm.lifetime.end.p0(i64 24, ptr nonnull %_5.i), !noalias !253
  call void @llvm.experimental.noalias.scope.decl(metadata !259)
  %_4.not.i.i32 = icmp samesign ult i64 %_0.sroa.4.0.i, 2
  br i1 %_4.not.i.i32, label %bb12, label %_RNvMNtCsjMrxcFdYDNN_4core5sliceSh11starts_withCslwKqnJYeWCA_18build_script_build.exit.i

_RNvMNtCsjMrxcFdYDNN_4core5sliceSh11starts_withCslwKqnJYeWCA_18build_script_build.exit.i: ; preds = %bb10
  %18 = call i32 @memcmp(ptr noundef nonnull readonly align 1 dereferenceable(2) @alloc_9bc7f23b9f8ca5426d0539d95c9ebfc5, ptr noundef nonnull readonly align 1 dereferenceable(2) %_0.sroa.0.0.i, i64 range(i64 2, 16) 2), !alias.scope !262
  %19 = icmp eq i32 %18, 0
  br i1 %19, label %bb1.i, label %bb12

bb1.i:                                            ; preds = %_RNvMNtCsjMrxcFdYDNN_4core5sliceSh11starts_withCslwKqnJYeWCA_18build_script_build.exit.i
  %_8.not.i.i.not = icmp eq i64 %_0.sroa.4.0.i, 2
  br i1 %_8.not.i.i.not, label %_RNvXs9_NtNtCsjMrxcFdYDNN_4core3str6traitsINtNtNtB9_3ops5range9RangeFromjEINtNtNtB9_5slice5index10SliceIndexeE3get.exit.i, label %bb9.i.i

bb9.i.i:                                          ; preds = %bb1.i
  %20 = getelementptr inbounds nuw i8, ptr %_0.sroa.0.0.i, i64 2
  %self1.i.i = load i8, ptr %20, align 1, !alias.scope !270, !noalias !259, !noundef !3
  %21 = icmp sgt i8 %self1.i.i, -65
  br i1 %21, label %_RNvXs9_NtNtCsjMrxcFdYDNN_4core3str6traitsINtNtNtB9_3ops5range9RangeFromjEINtNtNtB9_5slice5index10SliceIndexeE3get.exit.i, label %bb7.i55.invoke

_RNvXs9_NtNtCsjMrxcFdYDNN_4core3str6traitsINtNtNtB9_3ops5range9RangeFromjEINtNtNtB9_5slice5index10SliceIndexeE3get.exit.i: ; preds = %bb9.i.i, %bb1.i
  %new_len.i.i35 = add i64 %_0.sroa.4.0.i, -2
  %data.i.i36 = getelementptr inbounds nuw i8, ptr %_0.sroa.0.0.i, i64 2
  br label %bb12

bb11:                                             ; preds = %bb15, %bb28.thread62
  %allowed.sroa.0.2.off077 = phi i1 [ %allowed.sroa.0.2.off085, %bb28.thread62 ], [ %allowed.sroa.0.3.off0, %bb15 ]
  call void @llvm.lifetime.end.p0(i64 72, ptr nonnull %iter)
  switch i64 %8, label %bb2.i.i.i4.i.i.i40 [
    i64 -9223372036854775808, label %bb16
    i64 0, label %bb16
  ]

bb2.i.i.i4.i.i.i40:                               ; preds = %bb11
  %22 = icmp ne ptr %_37, null
  call void @llvm.assume(i1 %22)
; call __rustc::__rust_dealloc
  call void @_RNvCsKhRCbHf33p_7___rustc14___rust_dealloc(ptr noundef nonnull %_37, i64 noundef %8, i64 noundef range(i64 1, -9223372036854775807) 1) #23
  br label %bb16

bb16:                                             ; preds = %bb2.i.i.i4.i.i.i40, %bb11, %bb11
  call void @llvm.lifetime.end.p0(i64 24, ptr nonnull %_8)
  %23 = icmp eq i64 %4, 0
  br i1 %23, label %bb22, label %bb2.i.i.i4.i.i.i42

bb2.i.i.i4.i.i.i42:                               ; preds = %bb16
; call __rustc::__rust_dealloc
  call void @_RNvCsKhRCbHf33p_7___rustc14___rust_dealloc(ptr noundef nonnull %rustflags.sroa.5.0.copyload, i64 noundef %4, i64 noundef range(i64 1, -9223372036854775807) 1) #23
  br label %bb22

bb12:                                             ; preds = %_RNvXs9_NtNtCsjMrxcFdYDNN_4core3str6traitsINtNtNtB9_3ops5range9RangeFromjEINtNtNtB9_5slice5index10SliceIndexeE3get.exit.i, %_RNvMNtCsjMrxcFdYDNN_4core5sliceSh11starts_withCslwKqnJYeWCA_18build_script_build.exit.i, %bb10
  %_0.sroa.4.0.i33 = phi i64 [ %new_len.i.i35, %_RNvXs9_NtNtCsjMrxcFdYDNN_4core3str6traitsINtNtNtB9_3ops5range9RangeFromjEINtNtNtB9_5slice5index10SliceIndexeE3get.exit.i ], [ undef, %_RNvMNtCsjMrxcFdYDNN_4core5sliceSh11starts_withCslwKqnJYeWCA_18build_script_build.exit.i ], [ undef, %bb10 ]
  %_0.sroa.0.0.i34 = phi ptr [ %data.i.i36, %_RNvXs9_NtNtCsjMrxcFdYDNN_4core3str6traitsINtNtNtB9_3ops5range9RangeFromjEINtNtNtB9_5slice5index10SliceIndexeE3get.exit.i ], [ null, %_RNvMNtCsjMrxcFdYDNN_4core5sliceSh11starts_withCslwKqnJYeWCA_18build_script_build.exit.i ], [ null, %bb10 ]
  %.not16 = icmp eq ptr %_0.sroa.0.0.i34, null
  %spec.select = select i1 %.not16, i64 %_0.sroa.4.0.i, i64 %_0.sroa.4.0.i33
  %spec.select19 = select i1 %.not16, ptr %_0.sroa.0.0.i, ptr %_0.sroa.0.0.i34
  call void @llvm.experimental.noalias.scope.decl(metadata !273)
  %_4.not.i.i44 = icmp samesign ult i64 %spec.select, 15
  br i1 %_4.not.i.i44, label %bb15, label %_RNvMNtCsjMrxcFdYDNN_4core5sliceSh11starts_withCslwKqnJYeWCA_18build_script_build.exit.i45

_RNvMNtCsjMrxcFdYDNN_4core5sliceSh11starts_withCslwKqnJYeWCA_18build_script_build.exit.i45: ; preds = %bb12
  %24 = call i32 @memcmp(ptr noundef nonnull readonly align 1 dereferenceable(15) @alloc_3f5a3f432cc037101cfa0283db269c57, ptr noundef nonnull readonly align 1 dereferenceable(15) %spec.select19, i64 range(i64 2, 16) 15), !alias.scope !276
  %25 = icmp eq i32 %24, 0
  br i1 %25, label %bb1.i48, label %bb15

bb1.i48:                                          ; preds = %_RNvMNtCsjMrxcFdYDNN_4core5sliceSh11starts_withCslwKqnJYeWCA_18build_script_build.exit.i45
  %_8.not.i.i49.not = icmp eq i64 %spec.select, 15
  br i1 %_8.not.i.i49.not, label %bb2.i.i.lr.ph.i, label %bb9.i.i53

bb9.i.i53:                                        ; preds = %bb1.i48
  %26 = getelementptr inbounds nuw i8, ptr %spec.select19, i64 15
  %self1.i.i54 = load i8, ptr %26, align 1, !alias.scope !284, !noalias !273, !noundef !3
  %27 = icmp sgt i8 %self1.i.i54, -65
  br i1 %27, label %bb2.i.i.lr.ph.i, label %bb7.i55.invoke

bb7.i55.invoke:                                   ; preds = %bb9.i.i53, %bb9.i.i
  %28 = phi ptr [ %_0.sroa.0.0.i, %bb9.i.i ], [ %spec.select19, %bb9.i.i53 ]
  %29 = phi i64 [ %_0.sroa.4.0.i, %bb9.i.i ], [ %spec.select, %bb9.i.i53 ]
  %30 = phi i64 [ 2, %bb9.i.i ], [ 15, %bb9.i.i53 ]
; invoke core::str::slice_error_fail
  invoke void @_RNvNtCsjMrxcFdYDNN_4core3str16slice_error_fail(ptr noalias noundef nonnull readonly align 1 captures(address, read_provenance) %28, i64 noundef %29, i64 noundef %30, i64 noundef %29, ptr noalias noundef readonly align 8 captures(address, read_provenance) dereferenceable(24) @alloc_b9a6efcfeb17b646c43fe2783a9632a7) #29
          to label %bb7.i55.cont unwind label %cleanup1.loopexit.split-lp.loopexit.split-lp

bb7.i55.cont:                                     ; preds = %bb7.i55.invoke
  unreachable

bb15:                                             ; preds = %bb12, %_RNvMNtCsjMrxcFdYDNN_4core5sliceSh11starts_withCslwKqnJYeWCA_18build_script_build.exit.i45, %bb34
  %allowed.sroa.0.3.off0 = phi i1 [ %_0.sroa.0.0.off0.i, %bb34 ], [ %allowed.sroa.0.2.off085, %_RNvMNtCsjMrxcFdYDNN_4core5sliceSh11starts_withCslwKqnJYeWCA_18build_script_build.exit.i45 ], [ %allowed.sroa.0.2.off085, %bb12 ]
  %31 = load i8, ptr %_6.sroa.5.0.iter.sroa_idx, align 1, !range !54, !alias.scope !287, !noundef !3
  %_2.i = trunc nuw i8 %31 to i1
  br i1 %_2.i, label %bb11, label %bb2.i

bb2.i.i.lr.ph.i:                                  ; preds = %bb9.i.i53, %bb1.i48
  %new_len.i.i51 = add i64 %spec.select, -15
  %data.i.i52 = getelementptr inbounds nuw i8, ptr %spec.select19, i64 15
  call void @llvm.lifetime.start.p0(i64 72, ptr nonnull %_19)
  store i64 0, ptr %_19, align 8
  store i64 %new_len.i.i51, ptr %_44.sroa.4.0._19.sroa_idx, align 8
  store ptr %data.i.i52, ptr %_44.sroa.5.0._19.sroa_idx, align 8
  store i64 %new_len.i.i51, ptr %_44.sroa.5.sroa.4.0._44.sroa.5.0._19.sroa_idx.sroa_idx, align 8
  store i64 0, ptr %_44.sroa.5.sroa.5.0._44.sroa.5.0._19.sroa_idx.sroa_idx, align 8
  store i64 %new_len.i.i51, ptr %_44.sroa.5.sroa.6.0._44.sroa.5.0._19.sroa_idx.sroa_idx, align 8
  store <2 x i32> splat (i32 44), ptr %_44.sroa.5.sroa.7.0._44.sroa.5.0._19.sroa_idx.sroa_idx, align 8
  store i8 1, ptr %_44.sroa.5.sroa.9.0._44.sroa.5.0._19.sroa_idx.sroa_idx, align 8
  store i8 1, ptr %_44.sroa.6.0._19.sroa_idx, align 8
  store i8 0, ptr %_44.sroa.7.0._19.sroa_idx, align 1
  call void @llvm.experimental.noalias.scope.decl(metadata !289)
  br label %bb2.i.i.i

bb2.i.i.i:                                        ; preds = %bb1.backedge.i, %bb2.i.i.lr.ph.i
  call void @llvm.experimental.noalias.scope.decl(metadata !292)
  call void @llvm.experimental.noalias.scope.decl(metadata !295)
  %_4.val.i.i.i = load ptr, ptr %_44.sroa.5.0._19.sroa_idx, align 8, !alias.scope !298, !noalias !299, !nonnull !3, !align !18, !noundef !3
  call void @llvm.lifetime.start.p0(i64 24, ptr nonnull %_5.i.i.i), !noalias !301
; invoke <core::str::pattern::CharSearcher as core::str::pattern::Searcher>::next_match
  invoke fastcc void @_RNvXs_NtNtCsjMrxcFdYDNN_4core3str7patternNtB4_12CharSearcherNtB4_8Searcher10next_match(ptr noalias noundef align 8 captures(none) dereferenceable(24) %_5.i.i.i, ptr noalias noundef align 8 dereferenceable(48) %_44.sroa.5.0._19.sroa_idx) #28
          to label %.noexc58 unwind label %cleanup1.loopexit

.noexc58:                                         ; preds = %bb2.i.i.i
  %_7.i.i.i = load i64, ptr %_5.i.i.i, align 8, !range !37, !noalias !301, !noundef !3
  %32 = trunc nuw i64 %_7.i.i.i to i1
  br i1 %32, label %bb7.i.i.i, label %bb6.i.i.i

bb7.i.i.i:                                        ; preds = %.noexc58
  %a.i.i.i = load i64, ptr %13, align 8, !noalias !301, !noundef !3
  %b.i.i.i = load i64, ptr %14, align 8, !noalias !301, !noundef !3
  %i.i.i.i = load i64, ptr %_19, align 8, !alias.scope !298, !noalias !299, !noundef !3
  %new_len.i.i.i = sub nuw i64 %a.i.i.i, %i.i.i.i
  %data.i.i.i = getelementptr inbounds nuw i8, ptr %_4.val.i.i.i, i64 %i.i.i.i
  store i64 %b.i.i.i, ptr %_19, align 8, !alias.scope !298, !noalias !299
  br label %bb3.i

bb6.i.i.i:                                        ; preds = %.noexc58
  %33 = load i8, ptr %_44.sroa.7.0._19.sroa_idx, align 1, !range !54, !alias.scope !302, !noalias !299, !noundef !3
  %_2.i.i.i.i = trunc nuw i8 %33 to i1
  br i1 %_2.i.i.i.i, label %_RNvXsX_NtNtCsjMrxcFdYDNN_4core3str4iterINtB5_5SplitcENtNtNtNtB9_4iter6traits8iterator8Iterator4nextCslwKqnJYeWCA_18build_script_build.exit.thread5.i, label %bb1.i.i.i.i

bb1.i.i.i.i:                                      ; preds = %bb6.i.i.i
  store i8 1, ptr %_44.sroa.7.0._19.sroa_idx, align 1, !alias.scope !302, !noalias !299
  %34 = load i8, ptr %_44.sroa.6.0._19.sroa_idx, align 8, !range !54, !alias.scope !302, !noalias !299, !noundef !3
  %_3.i.i.i.i = trunc nuw i8 %34 to i1
  %i.pre.i.i.i.i = load i64, ptr %_19, align 8, !alias.scope !302, !noalias !299
  %i1.pre.i.i.i.i = load i64, ptr %_44.sroa.4.0._19.sroa_idx, align 8, !alias.scope !302, !noalias !299
  %_4.not.i.i.i.i = icmp ne i64 %i1.pre.i.i.i.i, %i.pre.i.i.i.i
  %or.cond.not.i.i.i.i = select i1 %_3.i.i.i.i, i1 true, i1 %_4.not.i.i.i.i
  br i1 %or.cond.not.i.i.i.i, label %bb4.i.i.i.i, label %_RNvXsX_NtNtCsjMrxcFdYDNN_4core3str4iterINtB5_5SplitcENtNtNtNtB9_4iter6traits8iterator8Iterator4nextCslwKqnJYeWCA_18build_script_build.exit.thread5.i

bb4.i.i.i.i:                                      ; preds = %bb1.i.i.i.i
  %_10.val.i.i.i.i = load ptr, ptr %_44.sroa.5.0._19.sroa_idx, align 8, !alias.scope !302, !noalias !299, !nonnull !3, !align !18, !noundef !3
  %new_len.i.i.i.i = sub nuw i64 %i1.pre.i.i.i.i, %i.pre.i.i.i.i
  %data.i.i.i.i = getelementptr inbounds nuw i8, ptr %_10.val.i.i.i.i, i64 %i.pre.i.i.i.i
  br label %bb3.i

_RNvXsX_NtNtCsjMrxcFdYDNN_4core3str4iterINtB5_5SplitcENtNtNtNtB9_4iter6traits8iterator8Iterator4nextCslwKqnJYeWCA_18build_script_build.exit.thread5.i: ; preds = %bb1.i.i.i.i, %bb6.i.i.i
  call void @llvm.lifetime.end.p0(i64 24, ptr nonnull %_5.i.i.i), !noalias !301
  br label %bb34

bb3.i:                                            ; preds = %bb4.i.i.i.i, %bb7.i.i.i
  %_0.sroa.4.0.i.i.i = phi i64 [ %new_len.i.i.i, %bb7.i.i.i ], [ %new_len.i.i.i.i, %bb4.i.i.i.i ]
  %_0.sroa.0.0.i.i.i = phi ptr [ %data.i.i.i, %bb7.i.i.i ], [ %data.i.i.i.i, %bb4.i.i.i.i ]
  call void @llvm.lifetime.end.p0(i64 24, ptr nonnull %_5.i.i.i), !noalias !301
  %_3.not.i.i.i.i = icmp eq i64 %_0.sroa.4.0.i.i.i, %1
  br i1 %_3.not.i.i.i.i, label %bb2.i.i.i.i, label %bb1.backedge.i

bb2.i.i.i.i:                                      ; preds = %bb3.i
  %35 = call i32 @memcmp(ptr noundef nonnull readonly align 1 dereferenceable(1) %_0.sroa.0.0.i.i.i, ptr noundef nonnull readonly align 1 dereferenceable(1) %0, i64 range(i64 0, -9223372036854775808) %1), !alias.scope !305, !noalias !309
  %36 = icmp eq i32 %35, 0
  br i1 %36, label %bb34, label %bb1.backedge.i

bb1.backedge.i:                                   ; preds = %bb2.i.i.i.i, %bb3.i
  %37 = load i8, ptr %_44.sroa.7.0._19.sroa_idx, align 1, !range !54, !alias.scope !310, !noalias !299, !noundef !3
  %_2.i.i.i = trunc nuw i8 %37 to i1
  br i1 %_2.i.i.i, label %bb34, label %bb2.i.i.i

bb34:                                             ; preds = %bb2.i.i.i.i, %bb1.backedge.i, %_RNvXsX_NtNtCsjMrxcFdYDNN_4core3str4iterINtB5_5SplitcENtNtNtNtB9_4iter6traits8iterator8Iterator4nextCslwKqnJYeWCA_18build_script_build.exit.thread5.i
  %_0.sroa.0.0.off0.i = phi i1 [ false, %_RNvXsX_NtNtCsjMrxcFdYDNN_4core3str4iterINtB5_5SplitcENtNtNtNtB9_4iter6traits8iterator8Iterator4nextCslwKqnJYeWCA_18build_script_build.exit.thread5.i ], [ false, %bb1.backedge.i ], [ true, %bb2.i.i.i.i ]
  call void @llvm.lifetime.end.p0(i64 72, ptr nonnull %_19)
  br label %bb15

bb21:                                             ; preds = %bb2.i.i.i4.i.i.i, %bb20
  resume { ptr, i32 } %.pn
}

; build_script_build::target_feature_fallback
; Function Attrs: uwtable
define internal fastcc noundef zeroext i1 @_RNvCslwKqnJYeWCA_18build_script_build23target_feature_fallback(ptr noalias noundef nonnull readonly align 1 captures(address, read_provenance) %0, i64 noundef range(i64 2, 27) %1, i1 noundef zeroext %2) unnamed_addr #0 personality ptr @rust_eh_personality {
start:
  %_5.i = alloca [24 x i8], align 8
  %args = alloca [16 x i8], align 8
  %iter = alloca [72 x i8], align 8
  %_8 = alloca [24 x i8], align 8
  %_3 = alloca [24 x i8], align 8
  %name = alloca [16 x i8], align 8
  store ptr %0, ptr %name, align 8
  %3 = getelementptr inbounds nuw i8, ptr %name, i64 8
  store i64 %1, ptr %3, align 8
  call void @llvm.lifetime.start.p0(i64 24, ptr nonnull %_3)
; call std::env::_var_os
  call void @_RNvNtCs5sEH5CPMdak_3std3env7__var_os(ptr noalias noundef nonnull sret([24 x i8]) align 8 captures(address) dereferenceable(24) %_3, ptr noalias noundef nonnull readonly align 1 captures(address, read_provenance) @alloc_07f3eec4949a8d39db630a4a477c65b3, i64 noundef 23)
  %4 = load i64, ptr %_3, align 8, !range !11, !noundef !3
  %.not = icmp eq i64 %4, -9223372036854775808
  br i1 %.not, label %bb28, label %bb2

bb2:                                              ; preds = %start
  %rustflags.sroa.5.0._3.sroa_idx = getelementptr inbounds nuw i8, ptr %_3, i64 8
  %rustflags.sroa.5.0.copyload = load ptr, ptr %rustflags.sroa.5.0._3.sroa_idx, align 8, !nonnull !3, !noundef !3
  %rustflags.sroa.8.0._3.sroa_idx = getelementptr inbounds nuw i8, ptr %_3, i64 16
  %rustflags.sroa.8.0.copyload = load i64, ptr %rustflags.sroa.8.0._3.sroa_idx, align 8
  call void @llvm.lifetime.start.p0(i64 24, ptr nonnull %_8)
; invoke <alloc::string::String>::from_utf8_lossy
  invoke void @_RNvMNtCsdJPVW0sQgAG_5alloc6stringNtB2_6String15from_utf8_lossy(ptr noalias noundef nonnull sret([24 x i8]) align 8 captures(none) dereferenceable(24) %_8, ptr noalias noundef nonnull readonly align 1 captures(address, read_provenance) %rustflags.sroa.5.0.copyload, i64 noundef %rustflags.sroa.8.0.copyload)
          to label %bb2.i.lr.ph unwind label %cleanup

bb28:                                             ; preds = %start
  call void @llvm.lifetime.end.p0(i64 24, ptr nonnull %_3)
  br i1 %2, label %bb23, label %bb25

bb27:                                             ; preds = %bb2.i.i.i4.i.i.i47, %cleanup2, %cleanup2, %cleanup
  %.pn = phi { ptr, i32 } [ %6, %cleanup ], [ %lpad.phi, %cleanup2 ], [ %lpad.phi, %cleanup2 ], [ %lpad.phi, %bb2.i.i.i4.i.i.i47 ]
  %5 = icmp eq i64 %4, 0
  br i1 %5, label %bb29, label %bb2.i.i.i4.i.i.i

bb2.i.i.i4.i.i.i:                                 ; preds = %bb27
; call __rustc::__rust_dealloc
  call void @_RNvCsKhRCbHf33p_7___rustc14___rust_dealloc(ptr noundef nonnull %rustflags.sroa.5.0.copyload, i64 noundef %4, i64 noundef range(i64 1, -9223372036854775807) 1) #23
  br label %bb29

cleanup:                                          ; preds = %bb2
  %6 = landingpad { ptr, i32 }
          cleanup
  br label %bb27

cleanup2.loopexit:                                ; preds = %bb2.i.us.i
  %lpad.loopexit = landingpad { ptr, i32 }
          cleanup
  br label %cleanup2

cleanup2.loopexit.split-lp.loopexit:              ; preds = %bb2.i
  %lpad.loopexit160 = landingpad { ptr, i32 }
          cleanup
  br label %cleanup2

cleanup2.loopexit.split-lp.loopexit.split-lp:     ; preds = %bb7.i71.invoke
  %lpad.loopexit.split-lp161 = landingpad { ptr, i32 }
          cleanup
  br label %cleanup2

cleanup2:                                         ; preds = %cleanup2.loopexit.split-lp.loopexit, %cleanup2.loopexit.split-lp.loopexit.split-lp, %cleanup2.loopexit
  %lpad.phi = phi { ptr, i32 } [ %lpad.loopexit, %cleanup2.loopexit ], [ %lpad.loopexit160, %cleanup2.loopexit.split-lp.loopexit ], [ %lpad.loopexit.split-lp161, %cleanup2.loopexit.split-lp.loopexit.split-lp ]
  switch i64 %8, label %bb2.i.i.i4.i.i.i47 [
    i64 -9223372036854775808, label %bb27
    i64 0, label %bb27
  ]

bb2.i.i.i4.i.i.i47:                               ; preds = %cleanup2
  %7 = icmp ne ptr %_56, null
  call void @llvm.assume(i1 %7)
; call __rustc::__rust_dealloc
  call void @_RNvCsKhRCbHf33p_7___rustc14___rust_dealloc(ptr noundef nonnull %_56, i64 noundef %8, i64 noundef range(i64 1, -9223372036854775807) 1) #23
  br label %bb27

bb2.i.lr.ph:                                      ; preds = %bb2
  %8 = load i64, ptr %_8, align 8, !range !11, !noundef !3
  %9 = getelementptr inbounds nuw i8, ptr %_8, i64 8
  %_56 = load ptr, ptr %9, align 8
  %10 = getelementptr inbounds nuw i8, ptr %_8, i64 16
  %_55 = load i64, ptr %10, align 8
  call void @llvm.lifetime.start.p0(i64 72, ptr nonnull %iter)
  store i64 0, ptr %iter, align 8
  %_6.sroa.2.0.iter.sroa_idx = getelementptr inbounds nuw i8, ptr %iter, i64 8
  store i64 %_55, ptr %_6.sroa.2.0.iter.sroa_idx, align 8
  %_6.sroa.3.0.iter.sroa_idx = getelementptr inbounds nuw i8, ptr %iter, i64 16
  store ptr %_56, ptr %_6.sroa.3.0.iter.sroa_idx, align 8
  %_6.sroa.3.sroa.2.0._6.sroa.3.0.iter.sroa_idx.sroa_idx = getelementptr inbounds nuw i8, ptr %iter, i64 24
  store i64 %_55, ptr %_6.sroa.3.sroa.2.0._6.sroa.3.0.iter.sroa_idx.sroa_idx, align 8
  %_6.sroa.3.sroa.3.0._6.sroa.3.0.iter.sroa_idx.sroa_idx = getelementptr inbounds nuw i8, ptr %iter, i64 32
  store i64 0, ptr %_6.sroa.3.sroa.3.0._6.sroa.3.0.iter.sroa_idx.sroa_idx, align 8
  %_6.sroa.3.sroa.4.0._6.sroa.3.0.iter.sroa_idx.sroa_idx = getelementptr inbounds nuw i8, ptr %iter, i64 40
  store i64 %_55, ptr %_6.sroa.3.sroa.4.0._6.sroa.3.0.iter.sroa_idx.sroa_idx, align 8
  %_6.sroa.3.sroa.5.0._6.sroa.3.0.iter.sroa_idx.sroa_idx = getelementptr inbounds nuw i8, ptr %iter, i64 48
  store <2 x i32> splat (i32 31), ptr %_6.sroa.3.sroa.5.0._6.sroa.3.0.iter.sroa_idx.sroa_idx, align 8
  %_6.sroa.3.sroa.7.0._6.sroa.3.0.iter.sroa_idx.sroa_idx = getelementptr inbounds nuw i8, ptr %iter, i64 56
  store i8 1, ptr %_6.sroa.3.sroa.7.0._6.sroa.3.0.iter.sroa_idx.sroa_idx, align 8
  %_6.sroa.4.0.iter.sroa_idx = getelementptr inbounds nuw i8, ptr %iter, i64 64
  store i8 1, ptr %_6.sroa.4.0.iter.sroa_idx, align 8
  %_6.sroa.5.0.iter.sroa_idx = getelementptr inbounds nuw i8, ptr %iter, i64 65
  store i8 0, ptr %_6.sroa.5.0.iter.sroa_idx, align 1
  %11 = getelementptr inbounds nuw i8, ptr %_5.i, i64 8
  %12 = getelementptr inbounds nuw i8, ptr %_5.i, i64 16
  br label %bb2.i

bb2.i:                                            ; preds = %bb2.i.lr.ph, %bb20
  %has_target_feature.sroa.0.1.off0180 = phi i1 [ %2, %bb2.i.lr.ph ], [ %has_target_feature.sroa.0.2.off0, %bb20 ]
  call void @llvm.experimental.noalias.scope.decl(metadata !313)
  %_4.val.i = load ptr, ptr %_6.sroa.3.0.iter.sroa_idx, align 8, !alias.scope !313, !nonnull !3, !align !18, !noundef !3
  call void @llvm.lifetime.start.p0(i64 24, ptr nonnull %_5.i), !noalias !313
; invoke <core::str::pattern::CharSearcher as core::str::pattern::Searcher>::next_match
  invoke fastcc void @_RNvXs_NtNtCsjMrxcFdYDNN_4core3str7patternNtB4_12CharSearcherNtB4_8Searcher10next_match(ptr noalias noundef align 8 captures(none) dereferenceable(24) %_5.i, ptr noalias noundef align 8 dereferenceable(48) %_6.sroa.3.0.iter.sroa_idx) #28
          to label %.noexc unwind label %cleanup2.loopexit.split-lp.loopexit

.noexc:                                           ; preds = %bb2.i
  %_7.i = load i64, ptr %_5.i, align 8, !range !37, !noalias !313, !noundef !3
  %13 = trunc nuw i64 %_7.i to i1
  br i1 %13, label %bb7.i, label %bb6.i

bb7.i:                                            ; preds = %.noexc
  %a.i = load i64, ptr %11, align 8, !noalias !313, !noundef !3
  %b.i = load i64, ptr %12, align 8, !noalias !313, !noundef !3
  %i.i = load i64, ptr %iter, align 8, !alias.scope !313, !noundef !3
  %new_len.i = sub nuw i64 %a.i, %i.i
  %data.i = getelementptr inbounds nuw i8, ptr %_4.val.i, i64 %i.i
  store i64 %b.i, ptr %iter, align 8, !alias.scope !313
  br label %bb5

bb6.i:                                            ; preds = %.noexc
  %14 = load i8, ptr %_6.sroa.5.0.iter.sroa_idx, align 1, !range !54, !alias.scope !316, !noundef !3
  %_2.i.i = trunc nuw i8 %14 to i1
  br i1 %_2.i.i, label %bb35.thread127, label %bb1.i.i

bb1.i.i:                                          ; preds = %bb6.i
  store i8 1, ptr %_6.sroa.5.0.iter.sroa_idx, align 1, !alias.scope !316
  %15 = load i8, ptr %_6.sroa.4.0.iter.sroa_idx, align 8, !range !54, !alias.scope !316, !noundef !3
  %_3.i.i = trunc nuw i8 %15 to i1
  %i.pre.i.i = load i64, ptr %iter, align 8, !alias.scope !316
  %i1.pre.i.i = load i64, ptr %_6.sroa.2.0.iter.sroa_idx, align 8, !alias.scope !316
  %_4.not.i.i = icmp ne i64 %i1.pre.i.i, %i.pre.i.i
  %or.cond.not.i.i = select i1 %_3.i.i, i1 true, i1 %_4.not.i.i
  br i1 %or.cond.not.i.i, label %bb4.i.i, label %bb35.thread127

bb4.i.i:                                          ; preds = %bb1.i.i
  %_10.val.i.i = load ptr, ptr %_6.sroa.3.0.iter.sroa_idx, align 8, !alias.scope !316, !nonnull !3, !align !18, !noundef !3
  %new_len.i.i = sub nuw i64 %i1.pre.i.i, %i.pre.i.i
  %data.i.i = getelementptr inbounds nuw i8, ptr %_10.val.i.i, i64 %i.pre.i.i
  br label %bb5

bb35.thread127:                                   ; preds = %bb6.i, %bb1.i.i
  call void @llvm.lifetime.end.p0(i64 24, ptr nonnull %_5.i), !noalias !313
  br label %bb6

bb5:                                              ; preds = %bb4.i.i, %bb7.i
  %_0.sroa.4.0.i = phi i64 [ %new_len.i, %bb7.i ], [ %new_len.i.i, %bb4.i.i ]
  %_0.sroa.0.0.i = phi ptr [ %data.i, %bb7.i ], [ %data.i.i, %bb4.i.i ]
  call void @llvm.lifetime.end.p0(i64 24, ptr nonnull %_5.i), !noalias !313
  call void @llvm.experimental.noalias.scope.decl(metadata !319)
  %_4.not.i.i48 = icmp samesign ult i64 %_0.sroa.4.0.i, 2
  br i1 %_4.not.i.i48, label %bb7, label %_RNvMNtCsjMrxcFdYDNN_4core5sliceSh11starts_withCslwKqnJYeWCA_18build_script_build.exit.i

_RNvMNtCsjMrxcFdYDNN_4core5sliceSh11starts_withCslwKqnJYeWCA_18build_script_build.exit.i: ; preds = %bb5
  %16 = call i32 @memcmp(ptr noundef nonnull readonly align 1 dereferenceable(2) @alloc_13ae1be13e6486d5c310a371cde21787, ptr noundef nonnull readonly align 1 dereferenceable(2) %_0.sroa.0.0.i, i64 range(i64 2, 16) 2), !alias.scope !322
  %17 = icmp eq i32 %16, 0
  br i1 %17, label %bb1.i, label %bb7

bb1.i:                                            ; preds = %_RNvMNtCsjMrxcFdYDNN_4core5sliceSh11starts_withCslwKqnJYeWCA_18build_script_build.exit.i
  %_8.not.i.i.not = icmp eq i64 %_0.sroa.4.0.i, 2
  br i1 %_8.not.i.i.not, label %_RNvXs9_NtNtCsjMrxcFdYDNN_4core3str6traitsINtNtNtB9_3ops5range9RangeFromjEINtNtNtB9_5slice5index10SliceIndexeE3get.exit.i, label %bb9.i.i

bb9.i.i:                                          ; preds = %bb1.i
  %18 = getelementptr inbounds nuw i8, ptr %_0.sroa.0.0.i, i64 2
  %self1.i.i = load i8, ptr %18, align 1, !alias.scope !330, !noalias !319, !noundef !3
  %19 = icmp sgt i8 %self1.i.i, -65
  br i1 %19, label %_RNvXs9_NtNtCsjMrxcFdYDNN_4core3str6traitsINtNtNtB9_3ops5range9RangeFromjEINtNtNtB9_5slice5index10SliceIndexeE3get.exit.i, label %bb7.i71.invoke

_RNvXs9_NtNtCsjMrxcFdYDNN_4core3str6traitsINtNtNtB9_3ops5range9RangeFromjEINtNtNtB9_5slice5index10SliceIndexeE3get.exit.i: ; preds = %bb9.i.i, %bb1.i
  %new_len.i.i51 = add i64 %_0.sroa.4.0.i, -2
  %data.i.i52 = getelementptr inbounds nuw i8, ptr %_0.sroa.0.0.i, i64 2
  br label %bb7

bb6:                                              ; preds = %bb20, %bb35.thread127
  %has_target_feature.sroa.0.1.off0170 = phi i1 [ %has_target_feature.sroa.0.1.off0180, %bb35.thread127 ], [ %has_target_feature.sroa.0.2.off0, %bb20 ]
  call void @llvm.lifetime.end.p0(i64 72, ptr nonnull %iter)
  switch i64 %8, label %bb2.i.i.i4.i.i.i56 [
    i64 -9223372036854775808, label %bb21
    i64 0, label %bb21
  ]

bb2.i.i.i4.i.i.i56:                               ; preds = %bb6
  %20 = icmp ne ptr %_56, null
  call void @llvm.assume(i1 %20)
; call __rustc::__rust_dealloc
  call void @_RNvCsKhRCbHf33p_7___rustc14___rust_dealloc(ptr noundef nonnull %_56, i64 noundef %8, i64 noundef range(i64 1, -9223372036854775807) 1) #23
  br label %bb21

bb21:                                             ; preds = %bb2.i.i.i4.i.i.i56, %bb6, %bb6
  call void @llvm.lifetime.end.p0(i64 24, ptr nonnull %_8)
  %21 = icmp eq i64 %4, 0
  br i1 %21, label %_RINvNtCsjMrxcFdYDNN_4core3ptr13drop_in_placeNtNtNtCs5sEH5CPMdak_3std3ffi6os_str8OsStringECslwKqnJYeWCA_18build_script_build.exit59, label %bb2.i.i.i4.i.i.i58

bb2.i.i.i4.i.i.i58:                               ; preds = %bb21
; call __rustc::__rust_dealloc
  call void @_RNvCsKhRCbHf33p_7___rustc14___rust_dealloc(ptr noundef nonnull %rustflags.sroa.5.0.copyload, i64 noundef %4, i64 noundef range(i64 1, -9223372036854775807) 1) #23
  br label %_RINvNtCsjMrxcFdYDNN_4core3ptr13drop_in_placeNtNtNtCs5sEH5CPMdak_3std3ffi6os_str8OsStringECslwKqnJYeWCA_18build_script_build.exit59

_RINvNtCsjMrxcFdYDNN_4core3ptr13drop_in_placeNtNtNtCs5sEH5CPMdak_3std3ffi6os_str8OsStringECslwKqnJYeWCA_18build_script_build.exit59: ; preds = %bb21, %bb2.i.i.i4.i.i.i58
  call void @llvm.lifetime.end.p0(i64 24, ptr nonnull %_3)
  br i1 %has_target_feature.sroa.0.1.off0170, label %bb23, label %bb25

bb7:                                              ; preds = %_RNvXs9_NtNtCsjMrxcFdYDNN_4core3str6traitsINtNtNtB9_3ops5range9RangeFromjEINtNtNtB9_5slice5index10SliceIndexeE3get.exit.i, %_RNvMNtCsjMrxcFdYDNN_4core5sliceSh11starts_withCslwKqnJYeWCA_18build_script_build.exit.i, %bb5
  %_0.sroa.4.0.i49 = phi i64 [ %new_len.i.i51, %_RNvXs9_NtNtCsjMrxcFdYDNN_4core3str6traitsINtNtNtB9_3ops5range9RangeFromjEINtNtNtB9_5slice5index10SliceIndexeE3get.exit.i ], [ undef, %_RNvMNtCsjMrxcFdYDNN_4core5sliceSh11starts_withCslwKqnJYeWCA_18build_script_build.exit.i ], [ undef, %bb5 ]
  %_0.sroa.0.0.i50 = phi ptr [ %data.i.i52, %_RNvXs9_NtNtCsjMrxcFdYDNN_4core3str6traitsINtNtNtB9_3ops5range9RangeFromjEINtNtNtB9_5slice5index10SliceIndexeE3get.exit.i ], [ null, %_RNvMNtCsjMrxcFdYDNN_4core5sliceSh11starts_withCslwKqnJYeWCA_18build_script_build.exit.i ], [ null, %bb5 ]
  %.not33 = icmp eq ptr %_0.sroa.0.0.i50, null
  %spec.select = select i1 %.not33, i64 %_0.sroa.4.0.i, i64 %_0.sroa.4.0.i49
  %spec.select.fr = freeze i64 %spec.select
  %spec.select38 = select i1 %.not33, ptr %_0.sroa.0.0.i, ptr %_0.sroa.0.0.i50
  call void @llvm.experimental.noalias.scope.decl(metadata !333)
  %_4.not.i.i60 = icmp samesign ult i64 %spec.select.fr, 15
  br i1 %_4.not.i.i60, label %bb20, label %_RNvMNtCsjMrxcFdYDNN_4core5sliceSh11starts_withCslwKqnJYeWCA_18build_script_build.exit.i61

_RNvMNtCsjMrxcFdYDNN_4core5sliceSh11starts_withCslwKqnJYeWCA_18build_script_build.exit.i61: ; preds = %bb7
  %22 = call i32 @memcmp(ptr noundef nonnull readonly align 1 dereferenceable(15) @alloc_b6e2898a10ad3df62e798ba959034459, ptr noundef nonnull readonly align 1 dereferenceable(15) %spec.select38, i64 range(i64 2, 16) 15), !alias.scope !336
  %23 = icmp eq i32 %22, 0
  br i1 %23, label %bb1.i64, label %bb20

bb1.i64:                                          ; preds = %_RNvMNtCsjMrxcFdYDNN_4core5sliceSh11starts_withCslwKqnJYeWCA_18build_script_build.exit.i61
  %_8.not.i.i65.not = icmp eq i64 %spec.select.fr, 15
  br i1 %_8.not.i.i65.not, label %bb39, label %bb9.i.i69

bb9.i.i69:                                        ; preds = %bb1.i64
  %24 = getelementptr inbounds nuw i8, ptr %spec.select38, i64 15
  %self1.i.i70 = load i8, ptr %24, align 1, !alias.scope !344, !noalias !333, !noundef !3
  %25 = icmp sgt i8 %self1.i.i70, -65
  br i1 %25, label %bb39, label %bb7.i71.invoke

bb7.i71.invoke:                                   ; preds = %bb9.i.i69, %bb9.i.i
  %26 = phi ptr [ %_0.sroa.0.0.i, %bb9.i.i ], [ %spec.select38, %bb9.i.i69 ]
  %27 = phi i64 [ %_0.sroa.4.0.i, %bb9.i.i ], [ %spec.select.fr, %bb9.i.i69 ]
  %28 = phi i64 [ 2, %bb9.i.i ], [ 15, %bb9.i.i69 ]
; invoke core::str::slice_error_fail
  invoke void @_RNvNtCsjMrxcFdYDNN_4core3str16slice_error_fail(ptr noalias noundef nonnull readonly align 1 captures(address, read_provenance) %26, i64 noundef %27, i64 noundef %28, i64 noundef %27, ptr noalias noundef readonly align 8 captures(address, read_provenance) dereferenceable(24) @alloc_b9a6efcfeb17b646c43fe2783a9632a7) #29
          to label %bb7.i71.cont unwind label %cleanup2.loopexit.split-lp.loopexit.split-lp

bb7.i71.cont:                                     ; preds = %bb7.i71.invoke
  unreachable

bb20:                                             ; preds = %bb19, %bb7, %_RNvMNtCsjMrxcFdYDNN_4core5sliceSh11starts_withCslwKqnJYeWCA_18build_script_build.exit.i61
  %has_target_feature.sroa.0.2.off0 = phi i1 [ %has_target_feature.sroa.0.1.off0180, %_RNvMNtCsjMrxcFdYDNN_4core5sliceSh11starts_withCslwKqnJYeWCA_18build_script_build.exit.i61 ], [ %has_target_feature.sroa.0.1.off0180, %bb7 ], [ %has_target_feature.sroa.0.4.off0, %bb19 ]
  %29 = load i8, ptr %_6.sroa.5.0.iter.sroa_idx, align 1, !range !54, !alias.scope !347, !noundef !3
  %_2.i = trunc nuw i8 %29 to i1
  br i1 %_2.i, label %bb6, label %bb2.i

bb39:                                             ; preds = %bb1.i64, %bb9.i.i69
  %new_len.i.i67 = add i64 %spec.select.fr, -15
  %data.i.i68 = getelementptr inbounds nuw i8, ptr %spec.select38, i64 15
  br label %bb2.i76

bb2.i76:                                          ; preds = %bb39, %bb19
  %has_target_feature.sroa.0.3.off0178 = phi i1 [ %has_target_feature.sroa.0.1.off0180, %bb39 ], [ %has_target_feature.sroa.0.4.off0, %bb19 ]
  %30 = phi i64 [ 0, %bb39 ], [ %.ph144, %bb19 ]
  %_18.sroa.3.sroa.3.0.copyload121177 = phi i64 [ 0, %bb39 ], [ %_18.sroa.3.sroa.3.0.copyload120.ph, %bb19 ]
  %_4325.i = icmp ult i64 %new_len.i.i67, %_18.sroa.3.sroa.3.0.copyload121177
  br i1 %_4325.i, label %bb11, label %bb12.us.i

bb12.us.i:                                        ; preds = %bb2.i76, %bb9.us.i
  %31 = phi i64 [ %40, %bb9.us.i ], [ %_18.sroa.3.sroa.3.0.copyload121177, %bb2.i76 ]
  %new_len.us.i = sub nuw i64 %new_len.i.i67, %31
  %_46.us.i = getelementptr inbounds nuw i8, ptr %data.i.i68, i64 %31
  %_3.i.us.i = icmp samesign ult i64 %new_len.us.i, 16
  br i1 %_3.i.us.i, label %bb5.preheader.i.us.i, label %bb2.i.us.i

bb2.i.us.i:                                       ; preds = %bb12.us.i
; invoke core::slice::memchr::memchr_aligned
  %32 = invoke { i64, i64 } @_RNvNtNtCsjMrxcFdYDNN_4core5slice6memchr14memchr_aligned(i8 noundef 44, ptr noalias noundef nonnull readonly align 1 captures(address, read_provenance) %_46.us.i, i64 noundef range(i64 0, -9223372036854775808) %new_len.us.i)
          to label %_RNvNtNtCsjMrxcFdYDNN_4core5slice6memchr6memchr.exit.us.i unwind label %cleanup2.loopexit

bb5.preheader.i.us.i:                             ; preds = %bb12.us.i
  %_64.not.i.us.i = icmp eq i64 %new_len.us.i, 0
  br i1 %_64.not.i.us.i, label %bb4.i.us.i, label %bb7.i.us.i

bb7.i.us.i:                                       ; preds = %bb5.preheader.i.us.i, %bb9.i.us.i
  %i.sroa.0.05.i.us.i = phi i64 [ %34, %bb9.i.us.i ], [ 0, %bb5.preheader.i.us.i ]
  %33 = getelementptr inbounds nuw i8, ptr %_46.us.i, i64 %i.sroa.0.05.i.us.i
  %_9.i.us.i = load i8, ptr %33, align 1, !alias.scope !349, !noalias !352, !noundef !3
  %_8.i.us.i = icmp eq i8 %_9.i.us.i, 44
  br i1 %_8.i.us.i, label %bb4.i.us.i, label %bb9.i.us.i

bb9.i.us.i:                                       ; preds = %bb7.i.us.i
  %34 = add nuw nsw i64 %i.sroa.0.05.i.us.i, 1
  %exitcond.not.i.us.i = icmp eq i64 %34, %new_len.us.i
  br i1 %exitcond.not.i.us.i, label %bb4.i.us.i, label %bb7.i.us.i

bb4.i.us.i:                                       ; preds = %bb9.i.us.i, %bb7.i.us.i, %bb5.preheader.i.us.i
  %i.sroa.0.0.lcssa.i.us.i = phi i64 [ 0, %bb5.preheader.i.us.i ], [ %i.sroa.0.05.i.us.i, %bb7.i.us.i ], [ %new_len.us.i, %bb9.i.us.i ]
  %_0.sroa.0.1.i.us.i = phi i64 [ 0, %bb5.preheader.i.us.i ], [ 1, %bb7.i.us.i ], [ 0, %bb9.i.us.i ]
  %35 = insertvalue { i64, i64 } poison, i64 %_0.sroa.0.1.i.us.i, 0
  %36 = insertvalue { i64, i64 } %35, i64 %i.sroa.0.0.lcssa.i.us.i, 1
  br label %_RNvNtNtCsjMrxcFdYDNN_4core5slice6memchr6memchr.exit.us.i

_RNvNtNtCsjMrxcFdYDNN_4core5slice6memchr6memchr.exit.us.i: ; preds = %bb2.i.us.i, %bb4.i.us.i
  %.merged.i.us.i = phi { i64, i64 } [ %36, %bb4.i.us.i ], [ %32, %bb2.i.us.i ]
  %37 = extractvalue { i64, i64 } %.merged.i.us.i, 0
  %38 = trunc nuw i64 %37 to i1
  br i1 %38, label %bb4.us.i, label %bb11

bb4.us.i:                                         ; preds = %_RNvNtNtCsjMrxcFdYDNN_4core5slice6memchr6memchr.exit.us.i
  %39 = extractvalue { i64, i64 } %.merged.i.us.i, 1
  %_16.us.i = add i64 %31, 1
  %40 = add i64 %_16.us.i, %39
  %41 = add i64 %39, %31
  %or.cond.i.not = icmp ult i64 %41, %new_len.i.i67
  br i1 %or.cond.i.not, label %bb19.us.i, label %bb9.us.i

bb19.us.i:                                        ; preds = %bb4.us.i
  %_62.us.i = getelementptr inbounds nuw i8, ptr %data.i.i68, i64 %41
  %lhsc = load i8, ptr %_62.us.i, align 1
  %42 = icmp eq i8 %lhsc, 44
  br i1 %42, label %bb11, label %bb9.us.i

bb9.us.i:                                         ; preds = %bb19.us.i, %bb4.us.i
  %_43.us.i = icmp ult i64 %new_len.i.i67, %40
  br i1 %_43.us.i, label %bb11, label %bb12.us.i

bb11:                                             ; preds = %_RNvNtNtCsjMrxcFdYDNN_4core5slice6memchr6memchr.exit.us.i, %bb9.us.i, %bb19.us.i, %bb2.i76
  %_18.sroa.3.sroa.3.0.copyload120.ph = phi i64 [ %_18.sroa.3.sroa.3.0.copyload121177, %bb2.i76 ], [ %40, %bb9.us.i ], [ %new_len.i.i67, %_RNvNtNtCsjMrxcFdYDNN_4core5slice6memchr6memchr.exit.us.i ], [ %40, %bb19.us.i ]
  %.ph.off0 = phi i1 [ true, %bb2.i76 ], [ true, %bb9.us.i ], [ true, %_RNvNtNtCsjMrxcFdYDNN_4core5slice6memchr6memchr.exit.us.i ], [ false, %bb19.us.i ]
  %.ph144 = phi i64 [ %30, %bb2.i76 ], [ %30, %bb9.us.i ], [ %30, %_RNvNtNtCsjMrxcFdYDNN_4core5slice6memchr6memchr.exit.us.i ], [ %40, %bb19.us.i ]
  %new_len.i.i67.pn = phi i64 [ %new_len.i.i67, %bb2.i76 ], [ %new_len.i.i67, %bb9.us.i ], [ %new_len.i.i67, %_RNvNtNtCsjMrxcFdYDNN_4core5slice6memchr6memchr.exit.us.i ], [ %41, %bb19.us.i ]
  %_69.not = icmp eq i64 %new_len.i.i67.pn, %30
  br i1 %_69.not, label %bb19, label %bb51

bb51:                                             ; preds = %bb11
  %_0.sroa.0.1.i93.ph = getelementptr inbounds nuw i8, ptr %data.i.i68, i64 %30
  %43 = xor i64 %30, -1
  %_76 = add i64 %new_len.i.i67.pn, %43
  %_78 = getelementptr inbounds nuw i8, ptr %_0.sroa.0.1.i93.ph, i64 1
  %44 = load i8, ptr %_0.sroa.0.1.i93.ph, align 1, !noundef !3
  switch i8 %44, label %bb19 [
    i8 43, label %bb14
    i8 45, label %bb13
  ]

bb19:                                             ; preds = %bb14, %bb2.i106, %bb49, %bb13, %bb11, %bb51
  %has_target_feature.sroa.0.4.off0 = phi i1 [ %has_target_feature.sroa.0.3.off0178, %bb51 ], [ %has_target_feature.sroa.0.3.off0178, %bb11 ], [ %has_target_feature.sroa.0.3.off0178, %bb13 ], [ %spec.select158, %bb49 ], [ %47, %bb2.i106 ], [ %has_target_feature.sroa.0.3.off0178, %bb14 ]
  br i1 %.ph.off0, label %bb20, label %bb2.i76

bb14:                                             ; preds = %bb51
  %_3.not.i = icmp eq i64 %_76, %1
  br i1 %_3.not.i, label %bb2.i106, label %bb19

bb2.i106:                                         ; preds = %bb14
  %45 = call i32 @memcmp(ptr noundef nonnull readonly align 1 dereferenceable(1) %_78, ptr noundef nonnull readonly align 1 dereferenceable(1) %0, i64 range(i64 0, -9223372036854775808) %1), !alias.scope !356
  %46 = icmp eq i32 %45, 0
  %47 = select i1 %46, i1 true, i1 %has_target_feature.sroa.0.3.off0178
  br label %bb19

bb13:                                             ; preds = %bb51
  %_3.not.i107 = icmp eq i64 %_76, %1
  br i1 %_3.not.i107, label %bb49, label %bb19

bb49:                                             ; preds = %bb13
  %48 = call i32 @memcmp(ptr noundef nonnull readonly align 1 dereferenceable(1) %_78, ptr noundef nonnull readonly align 1 dereferenceable(1) %0, i64 range(i64 0, -9223372036854775808) %1), !alias.scope !360
  %.fr = freeze i32 %48
  %49 = icmp ne i32 %.fr, 0
  %spec.select158 = select i1 %49, i1 %has_target_feature.sroa.0.3.off0178, i1 false
  br label %bb19

bb29:                                             ; preds = %bb2.i.i.i4.i.i.i, %bb27
  resume { ptr, i32 } %.pn

bb25:                                             ; preds = %_RINvNtCsjMrxcFdYDNN_4core3ptr13drop_in_placeNtNtNtCs5sEH5CPMdak_3std3ffi6os_str8OsStringECslwKqnJYeWCA_18build_script_build.exit59, %bb23, %bb28
  %has_target_feature.sroa.0.0.off0122 = phi i1 [ false, %_RINvNtCsjMrxcFdYDNN_4core3ptr13drop_in_placeNtNtNtCs5sEH5CPMdak_3std3ffi6os_str8OsStringECslwKqnJYeWCA_18build_script_build.exit59 ], [ true, %bb23 ], [ false, %bb28 ]
  ret i1 %has_target_feature.sroa.0.0.off0122

bb23:                                             ; preds = %_RINvNtCsjMrxcFdYDNN_4core3ptr13drop_in_placeNtNtNtCs5sEH5CPMdak_3std3ffi6os_str8OsStringECslwKqnJYeWCA_18build_script_build.exit59, %bb28
  call void @llvm.lifetime.start.p0(i64 16, ptr nonnull %args)
  store ptr %name, ptr %args, align 8
  %_39.sroa.4.0..sroa_idx = getelementptr inbounds nuw i8, ptr %args, i64 8
  store ptr @_RNvXs1i_NtCsjMrxcFdYDNN_4core3fmtReNtB6_7Display3fmtCslwKqnJYeWCA_18build_script_build, ptr %_39.sroa.4.0..sroa_idx, align 8
; call std::io::stdio::_print
  call void @_RNvNtNtCs5sEH5CPMdak_3std2io5stdio6__print(ptr noundef nonnull @alloc_1545dd372b2bbe07420f0d25b9c1ecbe, ptr noundef nonnull %args)
  call void @llvm.lifetime.end.p0(i64 16, ptr nonnull %args)
  br label %bb25
}

; build_script_build::main
; Function Attrs: uwtable
define hidden void @_RNvCslwKqnJYeWCA_18build_script_build4main() unnamed_addr #0 personality ptr @rust_eh_personality {
start:
  %_5.i937 = alloca [24 x i8], align 8
  %_5.i919 = alloca [24 x i8], align 8
  %_14.i = alloca [104 x i8], align 8
  %result.i.i = alloca [24 x i8], align 8
  %_5.i.i.i.i.i.i570 = alloca [24 x i8], align 8
  %_5.i.i.i.i = alloca [24 x i8], align 8
  %_19.i.i = alloca [72 x i8], align 8
  %vector.i.i = alloca [24 x i8], align 8
  %_3.i571 = alloca [72 x i8], align 8
  %result.i = alloca [24 x i8], align 8
  %_5.i162.i.i = alloca [24 x i8], align 8
  %_5.i111.i.i = alloca [24 x i8], align 8
  %_5.i62.i.i = alloca [24 x i8], align 8
  %_5.i.i.i = alloca [24 x i8], align 8
  %_5.i.i.i.i.i.i.i = alloca [24 x i8], align 8
  %_31.i.i = alloca [24 x i8], align 8
  %digits.i.i = alloca [80 x i8], align 16
  %_6.i.i = alloca [72 x i8], align 8
  %release.i.i = alloca [80 x i8], align 16
  %verbose_version.i.i = alloca [16 x i8], align 8
  %_5.sroa.0.i.i = alloca i64, align 8
  %iter.i.i = alloca [48 x i8], align 8
  %_2.i.i = alloca [200 x i8], align 8
  %_27.i = alloca [24 x i8], align 8
  %_21.i = alloca [56 x i8], align 8
  %output.i = alloca [56 x i8], align 8
  %cmd.i = alloca [200 x i8], align 8
  %rustc1.i = alloca [48 x i8], align 8
  %_7.i = alloca [24 x i8], align 8
  %_6.i = alloca [24 x i8], align 8
  %_3.i185 = alloca [24 x i8], align 8
  %e.i175 = alloca [24 x i8], align 8
  %e.i163 = alloca [24 x i8], align 8
  %e.i = alloca [24 x i8], align 8
  %_350 = alloca [24 x i8], align 8
  %_346 = alloca [32 x i8], align 8
  %_345 = alloca [24 x i8], align 8
  %_331 = alloca [24 x i8], align 8
  %args4 = alloca [16 x i8], align 8
  %args3 = alloca [16 x i8], align 8
  %_297 = alloca [24 x i8], align 8
  %_250 = alloca [72 x i8], align 8
  %_247 = alloca [72 x i8], align 8
  %_232 = alloca [24 x i8], align 8
  %_230 = alloca [32 x i8], align 8
  %_217 = alloca [32 x i8], align 8
  %_193 = alloca [32 x i8], align 8
  %args2 = alloca [16 x i8], align 8
  %target_upper = alloca [24 x i8], align 8
  %args = alloca [16 x i8], align 8
  %_21 = alloca [24 x i8], align 8
  %_16 = alloca [32 x i8], align 8
  %_13 = alloca [32 x i8], align 8
  %_10 = alloca [32 x i8], align 8
  %_7 = alloca [16 x i8], align 8
; call std::io::stdio::_print
  tail call void @_RNvNtNtCs5sEH5CPMdak_3std2io5stdio6__print(ptr noundef nonnull @alloc_742f06589122110502429e832b81e8bd, ptr noundef nonnull inttoptr (i64 65 to ptr))
; call std::io::stdio::_print
  tail call void @_RNvNtNtCs5sEH5CPMdak_3std2io5stdio6__print(ptr noundef nonnull @alloc_8724dc04cf16cdfa205f2534ce59cc5f, ptr noundef nonnull inttoptr (i64 81 to ptr))
; call std::io::stdio::_print
  tail call void @_RNvNtNtCs5sEH5CPMdak_3std2io5stdio6__print(ptr noundef nonnull @alloc_9529fcb5bab6980e7c00a1d3aa85ad20, ptr noundef nonnull inttoptr (i64 69 to ptr))
  call void @llvm.lifetime.start.p0(i64 16, ptr nonnull %_7)
  call void @llvm.lifetime.start.p0(i64 32, ptr nonnull %_10)
; call std::env::_var
  call void @_RNvNtCs5sEH5CPMdak_3std3env4__var(ptr noalias noundef nonnull sret([32 x i8]) align 8 captures(none) dereferenceable(32) %_10, ptr noalias noundef nonnull readonly align 1 captures(address, read_provenance) @alloc_dcbc225a8ec7dbfaaef714ff8a7176fb, i64 noundef 6)
  tail call void @llvm.experimental.noalias.scope.decl(metadata !364)
  tail call void @llvm.experimental.noalias.scope.decl(metadata !367)
  %_3.i = load i64, ptr %_10, align 8, !range !37, !alias.scope !367, !noalias !369, !noundef !3
  %0 = trunc nuw i64 %_3.i to i1
  br i1 %0, label %bb2.i, label %_RNvMNtCsjMrxcFdYDNN_4core6resultINtB2_6ResultNtNtCsdJPVW0sQgAG_5alloc6string6StringNtNtCs5sEH5CPMdak_3std3env8VarErrorE6expectCslwKqnJYeWCA_18build_script_build.exit, !prof !102

bb2.i:                                            ; preds = %start
  call void @llvm.lifetime.start.p0(i64 24, ptr nonnull %e.i), !noalias !372
  %1 = getelementptr inbounds nuw i8, ptr %_10, i64 8
  call void @llvm.memcpy.p0.p0.i64(ptr noundef nonnull align 8 dereferenceable(24) %e.i, ptr noundef nonnull readonly align 8 dereferenceable(24) %1, i64 24, i1 false), !noalias !369
; invoke core::result::unwrap_failed
