; ModuleID = 'anstyle.9cb3e0c0969f9164-cgu.0'
source_filename = "anstyle.9cb3e0c0969f9164-cgu.0"
target datalayout = "e-m:o-p270:32:32-p271:32:32-p272:64:64-i64:64-i128:128-n32:64-S128-Fn32"
target triple = "arm64-apple-macosx11.0.0"

%"effect::Metadata" = type { { ptr, i64 }, { ptr, i64 } }

@alloc_2fac3da3cafda41fdec93432bd8e8f76 = private unnamed_addr constant [5 x i8] c"\1B[40m", align 1
@alloc_96b3c0834466c3e8a4209d0ffb97dab4 = private unnamed_addr constant [5 x i8] c"\1B[41m", align 1
@alloc_673d134723258a7395f110acdcf2247e = private unnamed_addr constant [5 x i8] c"\1B[42m", align 1
@alloc_318228bfd5f3ecb15811efb743156842 = private unnamed_addr constant [5 x i8] c"\1B[43m", align 1
@alloc_203eb48c4de2cc477f90c15987678ede = private unnamed_addr constant [5 x i8] c"\1B[44m", align 1
@alloc_2d69ff2cc5f3c9040a2fdac2da8766ba = private unnamed_addr constant [5 x i8] c"\1B[45m", align 1
@alloc_96776682192f26875aea0db308865150 = private unnamed_addr constant [5 x i8] c"\1B[46m", align 1
@alloc_30c7237322f867982964e5dd79d5df68 = private unnamed_addr constant [5 x i8] c"\1B[47m", align 1
@alloc_18bea72b960cfa888bfc0d9acfb01fc7 = private unnamed_addr constant [6 x i8] c"\1B[100m", align 1
@alloc_03faf8cdbadd9cc3792097fdbc32be73 = private unnamed_addr constant [6 x i8] c"\1B[101m", align 1
@alloc_befa86c8b3631da68bef8ef95898b704 = private unnamed_addr constant [6 x i8] c"\1B[102m", align 1
@alloc_6e169b49646c974e897657382a76dd8c = private unnamed_addr constant [6 x i8] c"\1B[103m", align 1
@alloc_89c6915df2c8544b1843104b59b59397 = private unnamed_addr constant [6 x i8] c"\1B[104m", align 1
@alloc_03a18f6b279b618007f689fdccd6ef7f = private unnamed_addr constant [6 x i8] c"\1B[105m", align 1
@alloc_91268508cbc3b62757acc1bb9cc37179 = private unnamed_addr constant [6 x i8] c"\1B[106m", align 1
@alloc_8b2101e3692dc168f9faf4c9ca2db507 = private unnamed_addr constant [6 x i8] c"\1B[107m", align 1
@alloc_e970a240fb13367e8eac7fa70fe4a008 = private unnamed_addr constant [5 x i8] c"\1B[30m", align 1
@alloc_36b890f196aa2257dee25701da1799c6 = private unnamed_addr constant [5 x i8] c"\1B[31m", align 1
@alloc_85b089f67df96e82fcbecd5258aa523c = private unnamed_addr constant [5 x i8] c"\1B[32m", align 1
@alloc_cafddaf0a65f0312d8051ab1f0ab481f = private unnamed_addr constant [5 x i8] c"\1B[33m", align 1
@alloc_4b0706dbbf94cfd73c145acc891aafce = private unnamed_addr constant [5 x i8] c"\1B[34m", align 1
@alloc_bf2b56ab4088f07914f700da46257498 = private unnamed_addr constant [5 x i8] c"\1B[35m", align 1
@alloc_41808999943dc43abd0e451f2b1a03ff = private unnamed_addr constant [5 x i8] c"\1B[36m", align 1
@alloc_fe5621d0c28fea15aed8d58e68ab5a8f = private unnamed_addr constant [5 x i8] c"\1B[37m", align 1
@alloc_3f56f073711807205db30f8194a24346 = private unnamed_addr constant [5 x i8] c"\1B[90m", align 1
@alloc_43ad04745c5e9a5292ee55ffff97daae = private unnamed_addr constant [5 x i8] c"\1B[91m", align 1
@alloc_8be06878f5d11cfc7fccc08d7c3dcb6e = private unnamed_addr constant [5 x i8] c"\1B[92m", align 1
@alloc_0165e002c8d9a5c4b04fde1340c9d263 = private unnamed_addr constant [5 x i8] c"\1B[93m", align 1
@alloc_ceb0d2a92ac6a38ff0479e94716edeb6 = private unnamed_addr constant [5 x i8] c"\1B[94m", align 1
@alloc_43cb081981db00a759b39f0a437d59a7 = private unnamed_addr constant [5 x i8] c"\1B[95m", align 1
@alloc_1354611a5d9bdfcedd823c86d5d7194c = private unnamed_addr constant [5 x i8] c"\1B[96m", align 1
@alloc_f976cb424cf15a7f2f239726682e66b7 = private unnamed_addr constant [5 x i8] c"\1B[97m", align 1
@alloc_3e9a3238ac949a26fbfe490d1405ae67 = private unnamed_addr constant [7 x i8] c"\1B[48;5;", align 1
@alloc_db17741ad3337aa0400b53159a3d2f13 = private unnamed_addr constant [1 x i8] c"m", align 1
@alloc_aca2b11134fdcfdc7105e532b0223cf1 = private unnamed_addr constant [7 x i8] c"\1B[38;5;", align 1
@alloc_2b317766360e5439e32d108d09c1e59c = private unnamed_addr constant [7 x i8] c"\1B[58;5;", align 1
@alloc_d47b6e43e5fe52b802ac6fabd8394e29 = private unnamed_addr constant [7 x i8] c"\1B[48;2;", align 1
@alloc_67ff1e09660ce038a33d9b00e9fc869e = private unnamed_addr constant [1 x i8] c";", align 1
@alloc_dd5500055d24b68ea02c7348f7eac361 = private unnamed_addr constant [7 x i8] c"\1B[38;2;", align 1
@alloc_99584e165067514af164238710aa5aec = private unnamed_addr constant [7 x i8] c"\1B[58;2;", align 1
@alloc_93c4cc5d89bd0524ae9234163f5c8799 = private unnamed_addr constant [100 x i8] c"/Users/hongyaotang/.cargo/registry/src/index.crates.io-1949cf8c6b5b557f/anstyle-1.0.13/src/color.rs\00", align 1
@alloc_8f758d68e5cae81af8239ef77e990c04 = private unnamed_addr constant <{ ptr, [16 x i8] }> <{ ptr @alloc_93c4cc5d89bd0524ae9234163f5c8799, [16 x i8] c"c\00\00\00\00\00\00\00U\02\00\00\0D\00\00\00" }>, align 8
@alloc_33310d171f47c6e92ccd998e99737aec = private unnamed_addr constant <{ ptr, [16 x i8] }> <{ ptr @alloc_93c4cc5d89bd0524ae9234163f5c8799, [16 x i8] c"c\00\00\00\00\00\00\00Y\02\00\00\0D\00\00\00" }>, align 8
@alloc_94b73d0feb0f4a04f02dec76b5797fb4 = private unnamed_addr constant <{ ptr, [16 x i8] }> <{ ptr @alloc_93c4cc5d89bd0524ae9234163f5c8799, [16 x i8] c"c\00\00\00\00\00\00\00]\02\00\00\09\00\00\00" }>, align 8
@alloc_293418d1b2535a7441b43ec2e2f86060 = private unnamed_addr constant <{ ptr, [16 x i8] }> <{ ptr @alloc_93c4cc5d89bd0524ae9234163f5c8799, [16 x i8] c"c\00\00\00\00\00\00\00E\02\00\00\0D\00\00\00" }>, align 8
@alloc_749654b3ca13fb46ffea8a6507ab0e5a = private unnamed_addr constant [4 x i8] c"BOLD", align 1
@alloc_9967faaeeff2fc2c96b576c36f171513 = private unnamed_addr constant [4 x i8] c"\1B[1m", align 1
@alloc_13c93edceeea6fac6a4c7e4bdacbec0e = private unnamed_addr constant [6 x i8] c"DIMMED", align 1
@alloc_8ac8fbb885427a8d39badcb98357a440 = private unnamed_addr constant [4 x i8] c"\1B[2m", align 1
@alloc_ce240eb0d5183a404ee65e04f6331e3c = private unnamed_addr constant [6 x i8] c"ITALIC", align 1
@alloc_8e4f32733b7c801fbf7dcc9200203edc = private unnamed_addr constant [4 x i8] c"\1B[3m", align 1
@alloc_30400580d5db03870e31aa97f5bbdae2 = private unnamed_addr constant [9 x i8] c"UNDERLINE", align 1
@alloc_afda087ad85e45509b01314737695b56 = private unnamed_addr constant [4 x i8] c"\1B[4m", align 1
@alloc_9fafa30547738c2198e780a396f87db5 = private unnamed_addr constant [16 x i8] c"DOUBLE_UNDERLINE", align 1
@alloc_a6361ec4f03a324dc068ae5c5241334d = private unnamed_addr constant [5 x i8] c"\1B[21m", align 1
@alloc_05c18a4541a7592dce261afb687e689b = private unnamed_addr constant [15 x i8] c"CURLY_UNDERLINE", align 1
@alloc_75a591e045444cc568f57485487f89f1 = private unnamed_addr constant [6 x i8] c"\1B[4:3m", align 1
@alloc_18327e42ef8c236771c955754282af54 = private unnamed_addr constant [16 x i8] c"DOTTED_UNDERLINE", align 1
@alloc_7be780cb7601d537120acca9ae17abca = private unnamed_addr constant [6 x i8] c"\1B[4:4m", align 1
@alloc_b99a795c10dca039c398cced97ce1b95 = private unnamed_addr constant [16 x i8] c"DASHED_UNDERLINE", align 1
@alloc_63799d62876e68fe63f3d63cfa1f515d = private unnamed_addr constant [6 x i8] c"\1B[4:5m", align 1
@alloc_3827f0c4aced720a99595f39f49875de = private unnamed_addr constant [5 x i8] c"BLINK", align 1
@alloc_8c3fdc6a66b66ce210c6b467e567523b = private unnamed_addr constant [4 x i8] c"\1B[5m", align 1
@alloc_8c320966adc235f17ffae4b857e8ceee = private unnamed_addr constant [6 x i8] c"INVERT", align 1
@alloc_f7664ce79f01aa92da993194a242e9ca = private unnamed_addr constant [4 x i8] c"\1B[7m", align 1
@alloc_c6bc65194a80d79e555217454384b678 = private unnamed_addr constant [6 x i8] c"HIDDEN", align 1
@alloc_a4e17fe94a69c93cd714399a9f7e8fa0 = private unnamed_addr constant [4 x i8] c"\1B[8m", align 1
@alloc_bcd14d118c83e149aae4ce0786fe37a3 = private unnamed_addr constant [13 x i8] c"STRIKETHROUGH", align 1
@alloc_b2630285d1e2bc2afcda212b644ef377 = private unnamed_addr constant [4 x i8] c"\1B[9m", align 1
@alloc_a83267f071447d25999211ea618065a8 = private unnamed_addr constant <{ ptr, [8 x i8], ptr, [8 x i8], ptr, [8 x i8], ptr, [8 x i8], ptr, [8 x i8], ptr, [8 x i8], ptr, [8 x i8], ptr, [8 x i8], ptr, [8 x i8], ptr, [8 x i8], ptr, [8 x i8], ptr, [8 x i8], ptr, [8 x i8], ptr, [8 x i8], ptr, [8 x i8], ptr, [8 x i8], ptr, [8 x i8], ptr, [8 x i8], ptr, [8 x i8], ptr, [8 x i8], ptr, [8 x i8], ptr, [8 x i8], ptr, [8 x i8], ptr, [8 x i8] }> <{ ptr @alloc_749654b3ca13fb46ffea8a6507ab0e5a, [8 x i8] c"\04\00\00\00\00\00\00\00", ptr @alloc_9967faaeeff2fc2c96b576c36f171513, [8 x i8] c"\04\00\00\00\00\00\00\00", ptr @alloc_13c93edceeea6fac6a4c7e4bdacbec0e, [8 x i8] c"\06\00\00\00\00\00\00\00", ptr @alloc_8ac8fbb885427a8d39badcb98357a440, [8 x i8] c"\04\00\00\00\00\00\00\00", ptr @alloc_ce240eb0d5183a404ee65e04f6331e3c, [8 x i8] c"\06\00\00\00\00\00\00\00", ptr @alloc_8e4f32733b7c801fbf7dcc9200203edc, [8 x i8] c"\04\00\00\00\00\00\00\00", ptr @alloc_30400580d5db03870e31aa97f5bbdae2, [8 x i8] c"\09\00\00\00\00\00\00\00", ptr @alloc_afda087ad85e45509b01314737695b56, [8 x i8] c"\04\00\00\00\00\00\00\00", ptr @alloc_9fafa30547738c2198e780a396f87db5, [8 x i8] c"\10\00\00\00\00\00\00\00", ptr @alloc_a6361ec4f03a324dc068ae5c5241334d, [8 x i8] c"\05\00\00\00\00\00\00\00", ptr @alloc_05c18a4541a7592dce261afb687e689b, [8 x i8] c"\0F\00\00\00\00\00\00\00", ptr @alloc_75a591e045444cc568f57485487f89f1, [8 x i8] c"\06\00\00\00\00\00\00\00", ptr @alloc_18327e42ef8c236771c955754282af54, [8 x i8] c"\10\00\00\00\00\00\00\00", ptr @alloc_7be780cb7601d537120acca9ae17abca, [8 x i8] c"\06\00\00\00\00\00\00\00", ptr @alloc_b99a795c10dca039c398cced97ce1b95, [8 x i8] c"\10\00\00\00\00\00\00\00", ptr @alloc_63799d62876e68fe63f3d63cfa1f515d, [8 x i8] c"\06\00\00\00\00\00\00\00", ptr @alloc_3827f0c4aced720a99595f39f49875de, [8 x i8] c"\05\00\00\00\00\00\00\00", ptr @alloc_8c3fdc6a66b66ce210c6b467e567523b, [8 x i8] c"\04\00\00\00\00\00\00\00", ptr @alloc_8c320966adc235f17ffae4b857e8ceee, [8 x i8] c"\06\00\00\00\00\00\00\00", ptr @alloc_f7664ce79f01aa92da993194a242e9ca, [8 x i8] c"\04\00\00\00\00\00\00\00", ptr @alloc_c6bc65194a80d79e555217454384b678, [8 x i8] c"\06\00\00\00\00\00\00\00", ptr @alloc_a4e17fe94a69c93cd714399a9f7e8fa0, [8 x i8] c"\04\00\00\00\00\00\00\00", ptr @alloc_bcd14d118c83e149aae4ce0786fe37a3, [8 x i8] c"\0D\00\00\00\00\00\00\00", ptr @alloc_b2630285d1e2bc2afcda212b644ef377, [8 x i8] c"\04\00\00\00\00\00\00\00" }>, align 8
@alloc_b2e2de532144b2a6c8ad2a240fe6a874 = private unnamed_addr constant [101 x i8] c"/Users/hongyaotang/.cargo/registry/src/index.crates.io-1949cf8c6b5b557f/anstyle-1.0.13/src/effect.rs\00", align 1
@alloc_1eac0480e2e48185d4ca9bc483cda2f2 = private unnamed_addr constant [4 x i8] c"\1B[0m", align 1
@alloc_c8bc6aff3aa66b537b2f69b10865d0f5 = private unnamed_addr constant [8 x i8] c"Effects(", align 1
@alloc_9e3f62b0e6490cc45676dc85f910c2d0 = private unnamed_addr constant [1 x i8] c")", align 1
@alloc_a73d0e35045fd787c81346701178a687 = private unnamed_addr constant [3 x i8] c" | ", align 1
@alloc_1587c5f4b3abb9389aa8d1ffdb872772 = private unnamed_addr constant <{ ptr, [16 x i8] }> <{ ptr @alloc_b2e2de532144b2a6c8ad2a240fe6a874, [16 x i8] c"d\00\00\00\00\00\00\00\C6\00\00\00\1D\00\00\00" }>, align 8
@alloc_0c812808379efded5a4fb82d2790b556 = private unnamed_addr constant [2 x i8] c"\C0\00", align 1
@alloc_7b468d7ba7f42e59ef151c8717c57469 = private unnamed_addr constant <{ ptr, [16 x i8] }> <{ ptr @alloc_93c4cc5d89bd0524ae9234163f5c8799, [16 x i8] c"c\00\00\00\00\00\00\00h\02\00\008\00\00\00" }>, align 8
@switch.table._RNvMNtCsds7IErrfYrg_7anstyle5styleNtB2_5Style6fmt_to = private unnamed_addr constant [16 x ptr] [ptr @alloc_e970a240fb13367e8eac7fa70fe4a008, ptr @alloc_36b890f196aa2257dee25701da1799c6, ptr @alloc_85b089f67df96e82fcbecd5258aa523c, ptr @alloc_cafddaf0a65f0312d8051ab1f0ab481f, ptr @alloc_4b0706dbbf94cfd73c145acc891aafce, ptr @alloc_bf2b56ab4088f07914f700da46257498, ptr @alloc_41808999943dc43abd0e451f2b1a03ff, ptr @alloc_fe5621d0c28fea15aed8d58e68ab5a8f, ptr @alloc_3f56f073711807205db30f8194a24346, ptr @alloc_43ad04745c5e9a5292ee55ffff97daae, ptr @alloc_8be06878f5d11cfc7fccc08d7c3dcb6e, ptr @alloc_0165e002c8d9a5c4b04fde1340c9d263, ptr @alloc_ceb0d2a92ac6a38ff0479e94716edeb6, ptr @alloc_43cb081981db00a759b39f0a437d59a7, ptr @alloc_1354611a5d9bdfcedd823c86d5d7194c, ptr @alloc_f976cb424cf15a7f2f239726682e66b7], align 8
@switch.table._RNvMNtCsds7IErrfYrg_7anstyle5styleNtB2_5Style6fmt_to.8 = private unnamed_addr constant [16 x i64] [i64 5, i64 5, i64 5, i64 5, i64 5, i64 5, i64 5, i64 5, i64 6, i64 6, i64 6, i64 6, i64 6, i64 6, i64 6, i64 6], align 8
@switch.table._RNvMNtCsds7IErrfYrg_7anstyle5styleNtB2_5Style6fmt_to.9 = private unnamed_addr constant [16 x ptr] [ptr @alloc_2fac3da3cafda41fdec93432bd8e8f76, ptr @alloc_96b3c0834466c3e8a4209d0ffb97dab4, ptr @alloc_673d134723258a7395f110acdcf2247e, ptr @alloc_318228bfd5f3ecb15811efb743156842, ptr @alloc_203eb48c4de2cc477f90c15987678ede, ptr @alloc_2d69ff2cc5f3c9040a2fdac2da8766ba, ptr @alloc_96776682192f26875aea0db308865150, ptr @alloc_30c7237322f867982964e5dd79d5df68, ptr @alloc_18bea72b960cfa888bfc0d9acfb01fc7, ptr @alloc_03faf8cdbadd9cc3792097fdbc32be73, ptr @alloc_befa86c8b3631da68bef8ef95898b704, ptr @alloc_6e169b49646c974e897657382a76dd8c, ptr @alloc_89c6915df2c8544b1843104b59b59397, ptr @alloc_03a18f6b279b618007f689fdccd6ef7f, ptr @alloc_91268508cbc3b62757acc1bb9cc37179, ptr @alloc_8b2101e3692dc168f9faf4c9ca2db507], align 8

; <anstyle::style::Style>::fmt_to
; Function Attrs: uwtable
define noundef zeroext i1 @_RNvMNtCsds7IErrfYrg_7anstyle5styleNtB2_5Style6fmt_to(ptr noalias noundef readonly align 2 captures(none) dereferenceable(14) %self, ptr noalias noundef align 8 dereferenceable(24) %f) unnamed_addr #0 personality ptr @rust_eh_personality {
start:
  %_8.i.i59 = alloca [32 x i8], align 8
  %_7.i.i60 = alloca [32 x i8], align 8
  %_6.i.i61 = alloca [32 x i8], align 8
  %_5.i.i62 = alloca [32 x i8], align 8
  %_4.i4.i = alloca [32 x i8], align 8
  %_3.i5.i = alloca [32 x i8], align 8
  %_2.i6.i = alloca [32 x i8], align 8
  %_4.i.i63 = alloca [32 x i8], align 8
  %_3.i.i64 = alloca [32 x i8], align 8
  %_2.i.i65 = alloca [32 x i8], align 8
  %_4.i.i.i = alloca [32 x i8], align 8
  %_3.i.i.i = alloca [32 x i8], align 8
  %_2.i.i.i = alloca [32 x i8], align 8
  %_8.i.i13 = alloca [32 x i8], align 8
  %_7.i.i14 = alloca [32 x i8], align 8
  %_6.i.i15 = alloca [32 x i8], align 8
  %_5.i.i16 = alloca [32 x i8], align 8
  %_4.i5.i17 = alloca [32 x i8], align 8
  %_3.i6.i18 = alloca [32 x i8], align 8
  %_2.i7.i19 = alloca [32 x i8], align 8
  %_4.i.i20 = alloca [32 x i8], align 8
  %_3.i.i21 = alloca [32 x i8], align 8
  %_2.i4.i22 = alloca [32 x i8], align 8
  %_2.i.i23 = alloca [32 x i8], align 8
  %_8.i.i = alloca [32 x i8], align 8
  %_7.i.i = alloca [32 x i8], align 8
  %_6.i.i = alloca [32 x i8], align 8
  %_5.i.i = alloca [32 x i8], align 8
  %_4.i5.i = alloca [32 x i8], align 8
  %_3.i6.i = alloca [32 x i8], align 8
  %_2.i7.i = alloca [32 x i8], align 8
  %_4.i.i = alloca [32 x i8], align 8
  %_3.i.i = alloca [32 x i8], align 8
  %_2.i4.i = alloca [32 x i8], align 8
  %_2.i.i = alloca [32 x i8], align 8
  %_21 = alloca [32 x i8], align 8
  %_16 = alloca [32 x i8], align 8
  %_11 = alloca [32 x i8], align 8
  %0 = getelementptr inbounds nuw i8, ptr %self, i64 12
  %_6 = load i16, ptr %0, align 2, !noundef !2
  br label %bb1.i

bb1.i:                                            ; preds = %bb3.i, %start
  %iter.sroa.0.0.i = phi i64 [ 0, %start ], [ %1, %bb3.i ]
  %umax.i = tail call i64 @llvm.umax.i64(i64 %iter.sroa.0.0.i, i64 12)
  br label %bb6.i

bb6.i:                                            ; preds = %bb7.i, %bb1.i
  %iter.sroa.0.1.i = phi i64 [ %iter.sroa.0.0.i, %bb1.i ], [ %1, %bb7.i ]
  %exitcond.not.i = icmp eq i64 %iter.sroa.0.1.i, %umax.i
  br i1 %exitcond.not.i, label %bb17, label %bb7.i

bb7.i:                                            ; preds = %bb6.i
  %1 = add i64 %iter.sroa.0.1.i, 1
  %2 = trunc nuw nsw i64 %iter.sroa.0.1.i to i16
  %_12.i = shl nuw nsw i16 1, %2
  %_14.i = and i16 %_12.i, %_6
  %_13.not.i = icmp eq i16 %_14.i, 0
  br i1 %_13.not.i, label %bb6.i, label %bb3.i

bb3.i:                                            ; preds = %bb7.i
  %3 = getelementptr inbounds nuw %"effect::Metadata", ptr @alloc_a83267f071447d25999211ea618065a8, i64 %iter.sroa.0.1.i, i32 1
  %_8.0.i = load ptr, ptr %3, align 8, !noalias !3, !nonnull !2, !align !6, !noundef !2
  %4 = getelementptr inbounds nuw i8, ptr %3, i64 8
  %_8.1.i = load i64, ptr %4, align 8, !noalias !3, !noundef !2
; call <core::fmt::Formatter>::write_str
  %_5.i = tail call noundef zeroext i1 @_RNvMsa_NtCsjMrxcFdYDNN_4core3fmtNtB5_9Formatter9write_str(ptr noalias noundef nonnull align 8 dereferenceable(24) %f, ptr noalias noundef nonnull readonly align 1 captures(address, read_provenance) %_8.0.i, i64 noundef %_8.1.i)
  br i1 %_5.i, label %_RNvXs4_NtCsds7IErrfYrg_7anstyle6effectNtB5_14EffectsDisplayNtNtCsjMrxcFdYDNN_4core3fmt7Display3fmt.exit, label %bb1.i

_RNvXs4_NtCsds7IErrfYrg_7anstyle6effectNtB5_14EffectsDisplayNtNtCsjMrxcFdYDNN_4core3fmt7Display3fmt.exit: ; preds = %bb3.i
  %5 = icmp ult i64 %iter.sroa.0.1.i, 12
  br i1 %5, label %bb15, label %bb17

bb17:                                             ; preds = %bb6.i, %_RNvXs4_NtCsds7IErrfYrg_7anstyle6effectNtB5_14EffectsDisplayNtNtCsjMrxcFdYDNN_4core3fmt7Display3fmt.exit
  %6 = load i8, ptr %self, align 2, !range !7, !noundef !2
  %.not = icmp eq i8 %6, 3
  br i1 %.not, label %bb6, label %bb3

bb3:                                              ; preds = %bb17
  %fg.sroa.0.0.copyload = load i32, ptr %self, align 2
  call void @llvm.lifetime.start.p0(i64 32, ptr nonnull %_11)
  %.sroa.4.0.extract.shift.i = lshr i32 %fg.sroa.0.0.copyload, 8
  %.sroa.4.0.extract.trunc.i = trunc i32 %.sroa.4.0.extract.shift.i to i8
  %trunc.i = trunc i32 %fg.sroa.0.0.copyload to i8
  switch i8 %trunc.i, label %bb1.i9 [
    i8 0, label %bb4.i
    i8 1, label %bb3.i8
    i8 2, label %bb2.i
  ]

bb1.i9:                                           ; preds = %bb3
  unreachable

bb4.i:                                            ; preds = %bb3
  call void @llvm.lifetime.start.p0(i64 32, ptr nonnull %_2.i.i), !noalias !8
  call void @llvm.memset.p0.i64(ptr noundef nonnull align 8 dereferenceable(27) %_2.i.i, i8 0, i64 27, i1 false), !noalias !8
  %.sroa.4.0.extract.trunc.i.mask = and i32 %.sroa.4.0.extract.shift.i, 255
  %7 = zext nneg i32 %.sroa.4.0.extract.trunc.i.mask to i64
  %switch.gep = getelementptr inbounds nuw [16 x ptr], ptr @switch.table._RNvMNtCsds7IErrfYrg_7anstyle5styleNtB2_5Style6fmt_to, i64 0, i64 %7
  %switch.load = load ptr, ptr %switch.gep, align 8
; call <anstyle::color::DisplayBuffer>::write_str
  call void @_RNvMsa_NtCsds7IErrfYrg_7anstyle5colorNtB5_13DisplayBuffer9write_str(ptr noalias noundef nonnull sret([32 x i8]) align 8 captures(none) dereferenceable(32) %_11, ptr noalias noundef nonnull align 8 captures(none) dereferenceable(32) %_2.i.i, ptr noalias noundef nonnull readonly align 1 captures(address, read_provenance) %switch.load, i64 noundef 5) #10
  call void @llvm.lifetime.end.p0(i64 32, ptr nonnull %_2.i.i), !noalias !8
  br label %_RNvMNtCsds7IErrfYrg_7anstyle5colorNtB2_5Color9render_fg.exit

bb3.i8:                                           ; preds = %bb3
  call void @llvm.lifetime.start.p0(i64 32, ptr nonnull %_2.i4.i), !noalias !13
  call void @llvm.lifetime.start.p0(i64 32, ptr nonnull %_3.i.i), !noalias !13
  call void @llvm.lifetime.start.p0(i64 32, ptr nonnull %_4.i.i), !noalias !13
  call void @llvm.memset.p0.i64(ptr noundef nonnull align 8 dereferenceable(27) %_4.i.i, i8 0, i64 27, i1 false), !noalias !13
; call <anstyle::color::DisplayBuffer>::write_str
  call void @_RNvMsa_NtCsds7IErrfYrg_7anstyle5colorNtB5_13DisplayBuffer9write_str(ptr noalias noundef nonnull sret([32 x i8]) align 8 captures(none) dereferenceable(32) %_3.i.i, ptr noalias noundef nonnull align 8 captures(none) dereferenceable(32) %_4.i.i, ptr noalias noundef nonnull readonly align 1 captures(address, read_provenance) @alloc_aca2b11134fdcfdc7105e532b0223cf1, i64 noundef 7) #10, !noalias !13
  call void @llvm.lifetime.end.p0(i64 32, ptr nonnull %_4.i.i), !noalias !13
; call <anstyle::color::DisplayBuffer>::write_code
  call void @_RNvMsa_NtCsds7IErrfYrg_7anstyle5colorNtB5_13DisplayBuffer10write_code(ptr noalias noundef nonnull sret([32 x i8]) align 8 captures(none) dereferenceable(32) %_2.i4.i, ptr noalias noundef nonnull align 8 captures(none) dereferenceable(32) %_3.i.i, i8 noundef %.sroa.4.0.extract.trunc.i) #10, !noalias !13
  call void @llvm.lifetime.end.p0(i64 32, ptr nonnull %_3.i.i), !noalias !13
; call <anstyle::color::DisplayBuffer>::write_str
  call void @_RNvMsa_NtCsds7IErrfYrg_7anstyle5colorNtB5_13DisplayBuffer9write_str(ptr noalias noundef nonnull sret([32 x i8]) align 8 captures(none) dereferenceable(32) %_11, ptr noalias noundef nonnull align 8 captures(none) dereferenceable(32) %_2.i4.i, ptr noalias noundef nonnull readonly align 1 captures(address, read_provenance) @alloc_db17741ad3337aa0400b53159a3d2f13, i64 noundef 1) #10
  call void @llvm.lifetime.end.p0(i64 32, ptr nonnull %_2.i4.i), !noalias !13
  br label %_RNvMNtCsds7IErrfYrg_7anstyle5colorNtB2_5Color9render_fg.exit

bb2.i:                                            ; preds = %bb3
  %.sroa.5.0.extract.shift.i = lshr i32 %fg.sroa.0.0.copyload, 16
  call void @llvm.lifetime.start.p0(i64 32, ptr nonnull %_2.i7.i), !noalias !16
  call void @llvm.lifetime.start.p0(i64 32, ptr nonnull %_3.i6.i), !noalias !16
  call void @llvm.lifetime.start.p0(i64 32, ptr nonnull %_4.i5.i), !noalias !16
  call void @llvm.lifetime.start.p0(i64 32, ptr nonnull %_5.i.i), !noalias !16
  call void @llvm.lifetime.start.p0(i64 32, ptr nonnull %_6.i.i), !noalias !16
  call void @llvm.lifetime.start.p0(i64 32, ptr nonnull %_7.i.i), !noalias !16
  call void @llvm.lifetime.start.p0(i64 32, ptr nonnull %_8.i.i), !noalias !16
  call void @llvm.memset.p0.i64(ptr noundef nonnull align 8 dereferenceable(27) %_8.i.i, i8 0, i64 27, i1 false), !noalias !16
; call <anstyle::color::DisplayBuffer>::write_str
  call void @_RNvMsa_NtCsds7IErrfYrg_7anstyle5colorNtB5_13DisplayBuffer9write_str(ptr noalias noundef nonnull sret([32 x i8]) align 8 captures(none) dereferenceable(32) %_7.i.i, ptr noalias noundef nonnull align 8 captures(none) dereferenceable(32) %_8.i.i, ptr noalias noundef nonnull readonly align 1 captures(address, read_provenance) @alloc_dd5500055d24b68ea02c7348f7eac361, i64 noundef 7) #10, !noalias !16
  call void @llvm.lifetime.end.p0(i64 32, ptr nonnull %_8.i.i), !noalias !16
; call <anstyle::color::DisplayBuffer>::write_code
  call void @_RNvMsa_NtCsds7IErrfYrg_7anstyle5colorNtB5_13DisplayBuffer10write_code(ptr noalias noundef nonnull sret([32 x i8]) align 8 captures(none) dereferenceable(32) %_6.i.i, ptr noalias noundef nonnull align 8 captures(none) dereferenceable(32) %_7.i.i, i8 noundef %.sroa.4.0.extract.trunc.i) #10, !noalias !16
  call void @llvm.lifetime.end.p0(i64 32, ptr nonnull %_7.i.i), !noalias !16
; call <anstyle::color::DisplayBuffer>::write_str
  call void @_RNvMsa_NtCsds7IErrfYrg_7anstyle5colorNtB5_13DisplayBuffer9write_str(ptr noalias noundef nonnull sret([32 x i8]) align 8 captures(none) dereferenceable(32) %_5.i.i, ptr noalias noundef nonnull align 8 captures(none) dereferenceable(32) %_6.i.i, ptr noalias noundef nonnull readonly align 1 captures(address, read_provenance) @alloc_67ff1e09660ce038a33d9b00e9fc869e, i64 noundef 1) #10, !noalias !16
  call void @llvm.lifetime.end.p0(i64 32, ptr nonnull %_6.i.i), !noalias !16
  %color2.sroa.4.1.extract.trunc.i = trunc i32 %.sroa.5.0.extract.shift.i to i8
; call <anstyle::color::DisplayBuffer>::write_code
  call void @_RNvMsa_NtCsds7IErrfYrg_7anstyle5colorNtB5_13DisplayBuffer10write_code(ptr noalias noundef nonnull sret([32 x i8]) align 8 captures(none) dereferenceable(32) %_4.i5.i, ptr noalias noundef nonnull align 8 captures(none) dereferenceable(32) %_5.i.i, i8 noundef %color2.sroa.4.1.extract.trunc.i) #10, !noalias !16
  call void @llvm.lifetime.end.p0(i64 32, ptr nonnull %_5.i.i), !noalias !16
; call <anstyle::color::DisplayBuffer>::write_str
  call void @_RNvMsa_NtCsds7IErrfYrg_7anstyle5colorNtB5_13DisplayBuffer9write_str(ptr noalias noundef nonnull sret([32 x i8]) align 8 captures(none) dereferenceable(32) %_3.i6.i, ptr noalias noundef nonnull align 8 captures(none) dereferenceable(32) %_4.i5.i, ptr noalias noundef nonnull readonly align 1 captures(address, read_provenance) @alloc_67ff1e09660ce038a33d9b00e9fc869e, i64 noundef 1) #10, !noalias !16
  call void @llvm.lifetime.end.p0(i64 32, ptr nonnull %_4.i5.i), !noalias !16
  %sum.shift.i = lshr i32 %fg.sroa.0.0.copyload, 24
  %color2.sroa.4.2.extract.trunc.i = trunc nuw i32 %sum.shift.i to i8
; call <anstyle::color::DisplayBuffer>::write_code
  call void @_RNvMsa_NtCsds7IErrfYrg_7anstyle5colorNtB5_13DisplayBuffer10write_code(ptr noalias noundef nonnull sret([32 x i8]) align 8 captures(none) dereferenceable(32) %_2.i7.i, ptr noalias noundef nonnull align 8 captures(none) dereferenceable(32) %_3.i6.i, i8 noundef %color2.sroa.4.2.extract.trunc.i) #10, !noalias !16
  call void @llvm.lifetime.end.p0(i64 32, ptr nonnull %_3.i6.i), !noalias !16
; call <anstyle::color::DisplayBuffer>::write_str
  call void @_RNvMsa_NtCsds7IErrfYrg_7anstyle5colorNtB5_13DisplayBuffer9write_str(ptr noalias noundef nonnull sret([32 x i8]) align 8 captures(none) dereferenceable(32) %_11, ptr noalias noundef nonnull align 8 captures(none) dereferenceable(32) %_2.i7.i, ptr noalias noundef nonnull readonly align 1 captures(address, read_provenance) @alloc_db17741ad3337aa0400b53159a3d2f13, i64 noundef 1) #10, !noalias !20
  call void @llvm.lifetime.end.p0(i64 32, ptr nonnull %_2.i7.i), !noalias !16
  br label %_RNvMNtCsds7IErrfYrg_7anstyle5colorNtB2_5Color9render_fg.exit

_RNvMNtCsds7IErrfYrg_7anstyle5colorNtB2_5Color9render_fg.exit: ; preds = %bb4.i, %bb3.i8, %bb2.i
  tail call void @llvm.experimental.noalias.scope.decl(metadata !21)
  %_6.i = load i64, ptr %_11, align 8, !alias.scope !21, !noalias !24, !noundef !2
  %_8.i = icmp ult i64 %_6.i, 20
  br i1 %_8.i, label %_RNvXsb_NtCsds7IErrfYrg_7anstyle5colorNtB5_13DisplayBufferNtNtCsjMrxcFdYDNN_4core3fmt7Display3fmt.exit, label %bb3.i10, !prof !26

bb3.i10:                                          ; preds = %_RNvMNtCsds7IErrfYrg_7anstyle5colorNtB2_5Color9render_fg.exit
; call core::slice::index::slice_index_fail
  tail call void @_RNvNtNtCsjMrxcFdYDNN_4core5slice5index16slice_index_fail(i64 noundef 0, i64 noundef %_6.i, i64 noundef 19, ptr noalias noundef readonly align 8 captures(address, read_provenance) dereferenceable(24) @alloc_7b468d7ba7f42e59ef151c8717c57469) #11, !noalias !27
  unreachable

_RNvXsb_NtCsds7IErrfYrg_7anstyle5colorNtB5_13DisplayBufferNtNtCsjMrxcFdYDNN_4core3fmt7Display3fmt.exit: ; preds = %_RNvMNtCsds7IErrfYrg_7anstyle5colorNtB2_5Color9render_fg.exit
  %_5.i12 = getelementptr inbounds nuw i8, ptr %_11, i64 8
; call <core::fmt::Formatter>::write_str
  %_0.i = call noundef zeroext i1 @_RNvMsa_NtCsjMrxcFdYDNN_4core3fmtNtB5_9Formatter9write_str(ptr noalias noundef nonnull align 8 dereferenceable(24) %f, ptr noalias noundef nonnull readonly align 1 captures(address, read_provenance) %_5.i12, i64 noundef %_6.i)
  call void @llvm.lifetime.end.p0(i64 32, ptr nonnull %_11)
  br i1 %_0.i, label %bb15, label %bb6

bb6:                                              ; preds = %_RNvXsb_NtCsds7IErrfYrg_7anstyle5colorNtB5_13DisplayBufferNtNtCsjMrxcFdYDNN_4core3fmt7Display3fmt.exit, %bb17
  %8 = getelementptr inbounds nuw i8, ptr %self, i64 4
  %9 = load i8, ptr %8, align 2, !range !7, !noundef !2
  %.not6 = icmp eq i8 %9, 3
  br i1 %.not6, label %bb10, label %bb7

bb15:                                             ; preds = %_RNvXsb_NtCsds7IErrfYrg_7anstyle5colorNtB5_13DisplayBufferNtNtCsjMrxcFdYDNN_4core3fmt7Display3fmt.exit58, %_RNvXsb_NtCsds7IErrfYrg_7anstyle5colorNtB5_13DisplayBufferNtNtCsjMrxcFdYDNN_4core3fmt7Display3fmt.exit, %_RNvXs4_NtCsds7IErrfYrg_7anstyle6effectNtB5_14EffectsDisplayNtNtCsjMrxcFdYDNN_4core3fmt7Display3fmt.exit, %_RNvXsb_NtCsds7IErrfYrg_7anstyle5colorNtB5_13DisplayBufferNtNtCsjMrxcFdYDNN_4core3fmt7Display3fmt.exit83, %bb10
  %_0.sroa.0.0.off0 = phi i1 [ false, %bb10 ], [ %_0.i82, %_RNvXsb_NtCsds7IErrfYrg_7anstyle5colorNtB5_13DisplayBufferNtNtCsjMrxcFdYDNN_4core3fmt7Display3fmt.exit83 ], [ true, %_RNvXs4_NtCsds7IErrfYrg_7anstyle6effectNtB5_14EffectsDisplayNtNtCsjMrxcFdYDNN_4core3fmt7Display3fmt.exit ], [ true, %_RNvXsb_NtCsds7IErrfYrg_7anstyle5colorNtB5_13DisplayBufferNtNtCsjMrxcFdYDNN_4core3fmt7Display3fmt.exit ], [ true, %_RNvXsb_NtCsds7IErrfYrg_7anstyle5colorNtB5_13DisplayBufferNtNtCsjMrxcFdYDNN_4core3fmt7Display3fmt.exit58 ]
  ret i1 %_0.sroa.0.0.off0

bb7:                                              ; preds = %bb6
  %bg.sroa.0.0.copyload = load i32, ptr %8, align 2
  call void @llvm.lifetime.start.p0(i64 32, ptr nonnull %_16)
  %.sroa.4.0.extract.shift.i24 = lshr i32 %bg.sroa.0.0.copyload, 8
  %.sroa.4.0.extract.trunc.i25 = trunc i32 %.sroa.4.0.extract.shift.i24 to i8
  %trunc.i26 = trunc i32 %bg.sroa.0.0.copyload to i8
  switch i8 %trunc.i26, label %bb1.i51 [
    i8 0, label %bb4.i33
    i8 1, label %bb3.i32
    i8 2, label %bb2.i27
  ]

bb1.i51:                                          ; preds = %bb7
  unreachable

bb4.i33:                                          ; preds = %bb7
  call void @llvm.lifetime.start.p0(i64 32, ptr nonnull %_2.i.i23), !noalias !28
  call void @llvm.memset.p0.i64(ptr noundef nonnull align 8 dereferenceable(27) %_2.i.i23, i8 0, i64 27, i1 false), !noalias !28
  %.sroa.4.0.extract.trunc.i25.mask = and i32 %.sroa.4.0.extract.shift.i24, 255
  %10 = zext nneg i32 %.sroa.4.0.extract.trunc.i25.mask to i64
  %switch.gep93 = getelementptr inbounds nuw [16 x i64], ptr @switch.table._RNvMNtCsds7IErrfYrg_7anstyle5styleNtB2_5Style6fmt_to.8, i64 0, i64 %10
  %switch.load94 = load i64, ptr %switch.gep93, align 8
  %.sroa.4.0.extract.trunc.i25.mask97 = and i32 %.sroa.4.0.extract.shift.i24, 255
  %11 = zext nneg i32 %.sroa.4.0.extract.trunc.i25.mask97 to i64
  %switch.gep95 = getelementptr inbounds nuw [16 x ptr], ptr @switch.table._RNvMNtCsds7IErrfYrg_7anstyle5styleNtB2_5Style6fmt_to.9, i64 0, i64 %11
  %switch.load96 = load ptr, ptr %switch.gep95, align 8
; call <anstyle::color::DisplayBuffer>::write_str
  call void @_RNvMsa_NtCsds7IErrfYrg_7anstyle5colorNtB5_13DisplayBuffer9write_str(ptr noalias noundef nonnull sret([32 x i8]) align 8 captures(none) dereferenceable(32) %_16, ptr noalias noundef nonnull align 8 captures(none) dereferenceable(32) %_2.i.i23, ptr noalias noundef nonnull readonly align 1 captures(address, read_provenance) %switch.load96, i64 noundef %switch.load94) #10
  call void @llvm.lifetime.end.p0(i64 32, ptr nonnull %_2.i.i23), !noalias !28
  br label %_RNvMNtCsds7IErrfYrg_7anstyle5colorNtB2_5Color9render_bg.exit

bb3.i32:                                          ; preds = %bb7
  call void @llvm.lifetime.start.p0(i64 32, ptr nonnull %_2.i4.i22), !noalias !33
  call void @llvm.lifetime.start.p0(i64 32, ptr nonnull %_3.i.i21), !noalias !33
  call void @llvm.lifetime.start.p0(i64 32, ptr nonnull %_4.i.i20), !noalias !33
  call void @llvm.memset.p0.i64(ptr noundef nonnull align 8 dereferenceable(27) %_4.i.i20, i8 0, i64 27, i1 false), !noalias !33
; call <anstyle::color::DisplayBuffer>::write_str
  call void @_RNvMsa_NtCsds7IErrfYrg_7anstyle5colorNtB5_13DisplayBuffer9write_str(ptr noalias noundef nonnull sret([32 x i8]) align 8 captures(none) dereferenceable(32) %_3.i.i21, ptr noalias noundef nonnull align 8 captures(none) dereferenceable(32) %_4.i.i20, ptr noalias noundef nonnull readonly align 1 captures(address, read_provenance) @alloc_3e9a3238ac949a26fbfe490d1405ae67, i64 noundef 7) #10, !noalias !33
  call void @llvm.lifetime.end.p0(i64 32, ptr nonnull %_4.i.i20), !noalias !33
; call <anstyle::color::DisplayBuffer>::write_code
  call void @_RNvMsa_NtCsds7IErrfYrg_7anstyle5colorNtB5_13DisplayBuffer10write_code(ptr noalias noundef nonnull sret([32 x i8]) align 8 captures(none) dereferenceable(32) %_2.i4.i22, ptr noalias noundef nonnull align 8 captures(none) dereferenceable(32) %_3.i.i21, i8 noundef %.sroa.4.0.extract.trunc.i25) #10, !noalias !33
  call void @llvm.lifetime.end.p0(i64 32, ptr nonnull %_3.i.i21), !noalias !33
; call <anstyle::color::DisplayBuffer>::write_str
  call void @_RNvMsa_NtCsds7IErrfYrg_7anstyle5colorNtB5_13DisplayBuffer9write_str(ptr noalias noundef nonnull sret([32 x i8]) align 8 captures(none) dereferenceable(32) %_16, ptr noalias noundef nonnull align 8 captures(none) dereferenceable(32) %_2.i4.i22, ptr noalias noundef nonnull readonly align 1 captures(address, read_provenance) @alloc_db17741ad3337aa0400b53159a3d2f13, i64 noundef 1) #10
  call void @llvm.lifetime.end.p0(i64 32, ptr nonnull %_2.i4.i22), !noalias !33
  br label %_RNvMNtCsds7IErrfYrg_7anstyle5colorNtB2_5Color9render_bg.exit

bb2.i27:                                          ; preds = %bb7
  %.sroa.5.0.extract.shift.i28 = lshr i32 %bg.sroa.0.0.copyload, 16
  call void @llvm.lifetime.start.p0(i64 32, ptr nonnull %_2.i7.i19), !noalias !36
  call void @llvm.lifetime.start.p0(i64 32, ptr nonnull %_3.i6.i18), !noalias !36
  call void @llvm.lifetime.start.p0(i64 32, ptr nonnull %_4.i5.i17), !noalias !36
  call void @llvm.lifetime.start.p0(i64 32, ptr nonnull %_5.i.i16), !noalias !36
  call void @llvm.lifetime.start.p0(i64 32, ptr nonnull %_6.i.i15), !noalias !36
  call void @llvm.lifetime.start.p0(i64 32, ptr nonnull %_7.i.i14), !noalias !36
  call void @llvm.lifetime.start.p0(i64 32, ptr nonnull %_8.i.i13), !noalias !36
  call void @llvm.memset.p0.i64(ptr noundef nonnull align 8 dereferenceable(27) %_8.i.i13, i8 0, i64 27, i1 false), !noalias !36
; call <anstyle::color::DisplayBuffer>::write_str
  call void @_RNvMsa_NtCsds7IErrfYrg_7anstyle5colorNtB5_13DisplayBuffer9write_str(ptr noalias noundef nonnull sret([32 x i8]) align 8 captures(none) dereferenceable(32) %_7.i.i14, ptr noalias noundef nonnull align 8 captures(none) dereferenceable(32) %_8.i.i13, ptr noalias noundef nonnull readonly align 1 captures(address, read_provenance) @alloc_d47b6e43e5fe52b802ac6fabd8394e29, i64 noundef 7) #10, !noalias !36
  call void @llvm.lifetime.end.p0(i64 32, ptr nonnull %_8.i.i13), !noalias !36
; call <anstyle::color::DisplayBuffer>::write_code
  call void @_RNvMsa_NtCsds7IErrfYrg_7anstyle5colorNtB5_13DisplayBuffer10write_code(ptr noalias noundef nonnull sret([32 x i8]) align 8 captures(none) dereferenceable(32) %_6.i.i15, ptr noalias noundef nonnull align 8 captures(none) dereferenceable(32) %_7.i.i14, i8 noundef %.sroa.4.0.extract.trunc.i25) #10, !noalias !36
  call void @llvm.lifetime.end.p0(i64 32, ptr nonnull %_7.i.i14), !noalias !36
; call <anstyle::color::DisplayBuffer>::write_str
  call void @_RNvMsa_NtCsds7IErrfYrg_7anstyle5colorNtB5_13DisplayBuffer9write_str(ptr noalias noundef nonnull sret([32 x i8]) align 8 captures(none) dereferenceable(32) %_5.i.i16, ptr noalias noundef nonnull align 8 captures(none) dereferenceable(32) %_6.i.i15, ptr noalias noundef nonnull readonly align 1 captures(address, read_provenance) @alloc_67ff1e09660ce038a33d9b00e9fc869e, i64 noundef 1) #10, !noalias !36
  call void @llvm.lifetime.end.p0(i64 32, ptr nonnull %_6.i.i15), !noalias !36
  %color2.sroa.4.1.extract.trunc.i29 = trunc i32 %.sroa.5.0.extract.shift.i28 to i8
; call <anstyle::color::DisplayBuffer>::write_code
  call void @_RNvMsa_NtCsds7IErrfYrg_7anstyle5colorNtB5_13DisplayBuffer10write_code(ptr noalias noundef nonnull sret([32 x i8]) align 8 captures(none) dereferenceable(32) %_4.i5.i17, ptr noalias noundef nonnull align 8 captures(none) dereferenceable(32) %_5.i.i16, i8 noundef %color2.sroa.4.1.extract.trunc.i29) #10, !noalias !36
  call void @llvm.lifetime.end.p0(i64 32, ptr nonnull %_5.i.i16), !noalias !36
; call <anstyle::color::DisplayBuffer>::write_str
  call void @_RNvMsa_NtCsds7IErrfYrg_7anstyle5colorNtB5_13DisplayBuffer9write_str(ptr noalias noundef nonnull sret([32 x i8]) align 8 captures(none) dereferenceable(32) %_3.i6.i18, ptr noalias noundef nonnull align 8 captures(none) dereferenceable(32) %_4.i5.i17, ptr noalias noundef nonnull readonly align 1 captures(address, read_provenance) @alloc_67ff1e09660ce038a33d9b00e9fc869e, i64 noundef 1) #10, !noalias !36
  call void @llvm.lifetime.end.p0(i64 32, ptr nonnull %_4.i5.i17), !noalias !36
  %sum.shift.i30 = lshr i32 %bg.sroa.0.0.copyload, 24
  %color2.sroa.4.2.extract.trunc.i31 = trunc nuw i32 %sum.shift.i30 to i8
; call <anstyle::color::DisplayBuffer>::write_code
  call void @_RNvMsa_NtCsds7IErrfYrg_7anstyle5colorNtB5_13DisplayBuffer10write_code(ptr noalias noundef nonnull sret([32 x i8]) align 8 captures(none) dereferenceable(32) %_2.i7.i19, ptr noalias noundef nonnull align 8 captures(none) dereferenceable(32) %_3.i6.i18, i8 noundef %color2.sroa.4.2.extract.trunc.i31) #10, !noalias !36
  call void @llvm.lifetime.end.p0(i64 32, ptr nonnull %_3.i6.i18), !noalias !36
; call <anstyle::color::DisplayBuffer>::write_str
  call void @_RNvMsa_NtCsds7IErrfYrg_7anstyle5colorNtB5_13DisplayBuffer9write_str(ptr noalias noundef nonnull sret([32 x i8]) align 8 captures(none) dereferenceable(32) %_16, ptr noalias noundef nonnull align 8 captures(none) dereferenceable(32) %_2.i7.i19, ptr noalias noundef nonnull readonly align 1 captures(address, read_provenance) @alloc_db17741ad3337aa0400b53159a3d2f13, i64 noundef 1) #10, !noalias !40
  call void @llvm.lifetime.end.p0(i64 32, ptr nonnull %_2.i7.i19), !noalias !36
  br label %_RNvMNtCsds7IErrfYrg_7anstyle5colorNtB2_5Color9render_bg.exit

_RNvMNtCsds7IErrfYrg_7anstyle5colorNtB2_5Color9render_bg.exit: ; preds = %bb4.i33, %bb3.i32, %bb2.i27
  call void @llvm.experimental.noalias.scope.decl(metadata !41)
  %_6.i52 = load i64, ptr %_16, align 8, !alias.scope !41, !noalias !44, !noundef !2
  %_8.i53 = icmp ult i64 %_6.i52, 20
  br i1 %_8.i53, label %_RNvXsb_NtCsds7IErrfYrg_7anstyle5colorNtB5_13DisplayBufferNtNtCsjMrxcFdYDNN_4core3fmt7Display3fmt.exit58, label %bb3.i54, !prof !26

bb3.i54:                                          ; preds = %_RNvMNtCsds7IErrfYrg_7anstyle5colorNtB2_5Color9render_bg.exit
; call core::slice::index::slice_index_fail
  call void @_RNvNtNtCsjMrxcFdYDNN_4core5slice5index16slice_index_fail(i64 noundef 0, i64 noundef %_6.i52, i64 noundef 19, ptr noalias noundef readonly align 8 captures(address, read_provenance) dereferenceable(24) @alloc_7b468d7ba7f42e59ef151c8717c57469) #11, !noalias !46
  unreachable

_RNvXsb_NtCsds7IErrfYrg_7anstyle5colorNtB5_13DisplayBufferNtNtCsjMrxcFdYDNN_4core3fmt7Display3fmt.exit58: ; preds = %_RNvMNtCsds7IErrfYrg_7anstyle5colorNtB2_5Color9render_bg.exit
  %_5.i56 = getelementptr inbounds nuw i8, ptr %_16, i64 8
; call <core::fmt::Formatter>::write_str
  %_0.i57 = call noundef zeroext i1 @_RNvMsa_NtCsjMrxcFdYDNN_4core3fmtNtB5_9Formatter9write_str(ptr noalias noundef nonnull align 8 dereferenceable(24) %f, ptr noalias noundef nonnull readonly align 1 captures(address, read_provenance) %_5.i56, i64 noundef %_6.i52)
  call void @llvm.lifetime.end.p0(i64 32, ptr nonnull %_16)
  br i1 %_0.i57, label %bb15, label %bb10

bb10:                                             ; preds = %_RNvXsb_NtCsds7IErrfYrg_7anstyle5colorNtB5_13DisplayBufferNtNtCsjMrxcFdYDNN_4core3fmt7Display3fmt.exit58, %bb6
  %12 = getelementptr inbounds nuw i8, ptr %self, i64 8
  %13 = load i8, ptr %12, align 2, !range !7, !noundef !2
  %.not7 = icmp eq i8 %13, 3
  br i1 %.not7, label %bb15, label %bb11

bb11:                                             ; preds = %bb10
  %underline.sroa.0.0.copyload = load i32, ptr %12, align 2
  call void @llvm.lifetime.start.p0(i64 32, ptr nonnull %_21)
  %.sroa.4.0.extract.shift.i66 = lshr i32 %underline.sroa.0.0.copyload, 8
  %.sroa.4.0.extract.trunc.i67 = trunc i32 %.sroa.4.0.extract.shift.i66 to i8
  %trunc.i68 = trunc i32 %underline.sroa.0.0.copyload to i8
  switch i8 %trunc.i68, label %bb1.i76 [
    i8 0, label %bb4.i75
    i8 1, label %bb3.i74
    i8 2, label %bb2.i69
  ]

bb1.i76:                                          ; preds = %bb11
  unreachable

bb4.i75:                                          ; preds = %bb11
  call void @llvm.lifetime.start.p0(i64 32, ptr nonnull %_2.i.i.i), !noalias !47
  call void @llvm.lifetime.start.p0(i64 32, ptr nonnull %_3.i.i.i), !noalias !47
  call void @llvm.lifetime.start.p0(i64 32, ptr nonnull %_4.i.i.i), !noalias !47
  call void @llvm.memset.p0.i64(ptr noundef nonnull align 8 dereferenceable(27) %_4.i.i.i, i8 0, i64 27, i1 false), !noalias !47
; call <anstyle::color::DisplayBuffer>::write_str
  call void @_RNvMsa_NtCsds7IErrfYrg_7anstyle5colorNtB5_13DisplayBuffer9write_str(ptr noalias noundef nonnull sret([32 x i8]) align 8 captures(none) dereferenceable(32) %_3.i.i.i, ptr noalias noundef nonnull align 8 captures(none) dereferenceable(32) %_4.i.i.i, ptr noalias noundef nonnull readonly align 1 captures(address, read_provenance) @alloc_2b317766360e5439e32d108d09c1e59c, i64 noundef 7) #10, !noalias !47
  call void @llvm.lifetime.end.p0(i64 32, ptr nonnull %_4.i.i.i), !noalias !47
; call <anstyle::color::DisplayBuffer>::write_code
  call void @_RNvMsa_NtCsds7IErrfYrg_7anstyle5colorNtB5_13DisplayBuffer10write_code(ptr noalias noundef nonnull sret([32 x i8]) align 8 captures(none) dereferenceable(32) %_2.i.i.i, ptr noalias noundef nonnull align 8 captures(none) dereferenceable(32) %_3.i.i.i, i8 noundef %.sroa.4.0.extract.trunc.i67) #10, !noalias !47
  call void @llvm.lifetime.end.p0(i64 32, ptr nonnull %_3.i.i.i), !noalias !47
; call <anstyle::color::DisplayBuffer>::write_str
  call void @_RNvMsa_NtCsds7IErrfYrg_7anstyle5colorNtB5_13DisplayBuffer9write_str(ptr noalias noundef nonnull sret([32 x i8]) align 8 captures(none) dereferenceable(32) %_21, ptr noalias noundef nonnull align 8 captures(none) dereferenceable(32) %_2.i.i.i, ptr noalias noundef nonnull readonly align 1 captures(address, read_provenance) @alloc_db17741ad3337aa0400b53159a3d2f13, i64 noundef 1) #10
  call void @llvm.lifetime.end.p0(i64 32, ptr nonnull %_2.i.i.i), !noalias !47
  br label %_RNvMNtCsds7IErrfYrg_7anstyle5colorNtB2_5Color16render_underline.exit

bb3.i74:                                          ; preds = %bb11
  call void @llvm.lifetime.start.p0(i64 32, ptr nonnull %_2.i.i65), !noalias !54
  call void @llvm.lifetime.start.p0(i64 32, ptr nonnull %_3.i.i64), !noalias !54
  call void @llvm.lifetime.start.p0(i64 32, ptr nonnull %_4.i.i63), !noalias !54
  call void @llvm.memset.p0.i64(ptr noundef nonnull align 8 dereferenceable(27) %_4.i.i63, i8 0, i64 27, i1 false), !noalias !54
; call <anstyle::color::DisplayBuffer>::write_str
  call void @_RNvMsa_NtCsds7IErrfYrg_7anstyle5colorNtB5_13DisplayBuffer9write_str(ptr noalias noundef nonnull sret([32 x i8]) align 8 captures(none) dereferenceable(32) %_3.i.i64, ptr noalias noundef nonnull align 8 captures(none) dereferenceable(32) %_4.i.i63, ptr noalias noundef nonnull readonly align 1 captures(address, read_provenance) @alloc_2b317766360e5439e32d108d09c1e59c, i64 noundef 7) #10, !noalias !54
  call void @llvm.lifetime.end.p0(i64 32, ptr nonnull %_4.i.i63), !noalias !54
; call <anstyle::color::DisplayBuffer>::write_code
  call void @_RNvMsa_NtCsds7IErrfYrg_7anstyle5colorNtB5_13DisplayBuffer10write_code(ptr noalias noundef nonnull sret([32 x i8]) align 8 captures(none) dereferenceable(32) %_2.i.i65, ptr noalias noundef nonnull align 8 captures(none) dereferenceable(32) %_3.i.i64, i8 noundef %.sroa.4.0.extract.trunc.i67) #10, !noalias !54
  call void @llvm.lifetime.end.p0(i64 32, ptr nonnull %_3.i.i64), !noalias !54
; call <anstyle::color::DisplayBuffer>::write_str
  call void @_RNvMsa_NtCsds7IErrfYrg_7anstyle5colorNtB5_13DisplayBuffer9write_str(ptr noalias noundef nonnull sret([32 x i8]) align 8 captures(none) dereferenceable(32) %_21, ptr noalias noundef nonnull align 8 captures(none) dereferenceable(32) %_2.i.i65, ptr noalias noundef nonnull readonly align 1 captures(address, read_provenance) @alloc_db17741ad3337aa0400b53159a3d2f13, i64 noundef 1) #10
  call void @llvm.lifetime.end.p0(i64 32, ptr nonnull %_2.i.i65), !noalias !54
  br label %_RNvMNtCsds7IErrfYrg_7anstyle5colorNtB2_5Color16render_underline.exit

bb2.i69:                                          ; preds = %bb11
  %.sroa.5.0.extract.shift.i70 = lshr i32 %underline.sroa.0.0.copyload, 16
  call void @llvm.lifetime.start.p0(i64 32, ptr nonnull %_2.i6.i), !noalias !57
  call void @llvm.lifetime.start.p0(i64 32, ptr nonnull %_3.i5.i), !noalias !57
  call void @llvm.lifetime.start.p0(i64 32, ptr nonnull %_4.i4.i), !noalias !57
  call void @llvm.lifetime.start.p0(i64 32, ptr nonnull %_5.i.i62), !noalias !57
  call void @llvm.lifetime.start.p0(i64 32, ptr nonnull %_6.i.i61), !noalias !57
  call void @llvm.lifetime.start.p0(i64 32, ptr nonnull %_7.i.i60), !noalias !57
  call void @llvm.lifetime.start.p0(i64 32, ptr nonnull %_8.i.i59), !noalias !57
  call void @llvm.memset.p0.i64(ptr noundef nonnull align 8 dereferenceable(27) %_8.i.i59, i8 0, i64 27, i1 false), !noalias !57
; call <anstyle::color::DisplayBuffer>::write_str
  call void @_RNvMsa_NtCsds7IErrfYrg_7anstyle5colorNtB5_13DisplayBuffer9write_str(ptr noalias noundef nonnull sret([32 x i8]) align 8 captures(none) dereferenceable(32) %_7.i.i60, ptr noalias noundef nonnull align 8 captures(none) dereferenceable(32) %_8.i.i59, ptr noalias noundef nonnull readonly align 1 captures(address, read_provenance) @alloc_99584e165067514af164238710aa5aec, i64 noundef 7) #10, !noalias !57
  call void @llvm.lifetime.end.p0(i64 32, ptr nonnull %_8.i.i59), !noalias !57
; call <anstyle::color::DisplayBuffer>::write_code
  call void @_RNvMsa_NtCsds7IErrfYrg_7anstyle5colorNtB5_13DisplayBuffer10write_code(ptr noalias noundef nonnull sret([32 x i8]) align 8 captures(none) dereferenceable(32) %_6.i.i61, ptr noalias noundef nonnull align 8 captures(none) dereferenceable(32) %_7.i.i60, i8 noundef %.sroa.4.0.extract.trunc.i67) #10, !noalias !57
  call void @llvm.lifetime.end.p0(i64 32, ptr nonnull %_7.i.i60), !noalias !57
; call <anstyle::color::DisplayBuffer>::write_str
  call void @_RNvMsa_NtCsds7IErrfYrg_7anstyle5colorNtB5_13DisplayBuffer9write_str(ptr noalias noundef nonnull sret([32 x i8]) align 8 captures(none) dereferenceable(32) %_5.i.i62, ptr noalias noundef nonnull align 8 captures(none) dereferenceable(32) %_6.i.i61, ptr noalias noundef nonnull readonly align 1 captures(address, read_provenance) @alloc_67ff1e09660ce038a33d9b00e9fc869e, i64 noundef 1) #10, !noalias !57
  call void @llvm.lifetime.end.p0(i64 32, ptr nonnull %_6.i.i61), !noalias !57
  %color2.sroa.4.1.extract.trunc.i71 = trunc i32 %.sroa.5.0.extract.shift.i70 to i8
; call <anstyle::color::DisplayBuffer>::write_code
  call void @_RNvMsa_NtCsds7IErrfYrg_7anstyle5colorNtB5_13DisplayBuffer10write_code(ptr noalias noundef nonnull sret([32 x i8]) align 8 captures(none) dereferenceable(32) %_4.i4.i, ptr noalias noundef nonnull align 8 captures(none) dereferenceable(32) %_5.i.i62, i8 noundef %color2.sroa.4.1.extract.trunc.i71) #10, !noalias !57
  call void @llvm.lifetime.end.p0(i64 32, ptr nonnull %_5.i.i62), !noalias !57
; call <anstyle::color::DisplayBuffer>::write_str
  call void @_RNvMsa_NtCsds7IErrfYrg_7anstyle5colorNtB5_13DisplayBuffer9write_str(ptr noalias noundef nonnull sret([32 x i8]) align 8 captures(none) dereferenceable(32) %_3.i5.i, ptr noalias noundef nonnull align 8 captures(none) dereferenceable(32) %_4.i4.i, ptr noalias noundef nonnull readonly align 1 captures(address, read_provenance) @alloc_67ff1e09660ce038a33d9b00e9fc869e, i64 noundef 1) #10, !noalias !57
  call void @llvm.lifetime.end.p0(i64 32, ptr nonnull %_4.i4.i), !noalias !57
  %sum.shift.i72 = lshr i32 %underline.sroa.0.0.copyload, 24
  %color2.sroa.4.2.extract.trunc.i73 = trunc nuw i32 %sum.shift.i72 to i8
; call <anstyle::color::DisplayBuffer>::write_code
  call void @_RNvMsa_NtCsds7IErrfYrg_7anstyle5colorNtB5_13DisplayBuffer10write_code(ptr noalias noundef nonnull sret([32 x i8]) align 8 captures(none) dereferenceable(32) %_2.i6.i, ptr noalias noundef nonnull align 8 captures(none) dereferenceable(32) %_3.i5.i, i8 noundef %color2.sroa.4.2.extract.trunc.i73) #10, !noalias !57
  call void @llvm.lifetime.end.p0(i64 32, ptr nonnull %_3.i5.i), !noalias !57
; call <anstyle::color::DisplayBuffer>::write_str
  call void @_RNvMsa_NtCsds7IErrfYrg_7anstyle5colorNtB5_13DisplayBuffer9write_str(ptr noalias noundef nonnull sret([32 x i8]) align 8 captures(none) dereferenceable(32) %_21, ptr noalias noundef nonnull align 8 captures(none) dereferenceable(32) %_2.i6.i, ptr noalias noundef nonnull readonly align 1 captures(address, read_provenance) @alloc_db17741ad3337aa0400b53159a3d2f13, i64 noundef 1) #10, !noalias !61
  call void @llvm.lifetime.end.p0(i64 32, ptr nonnull %_2.i6.i), !noalias !57
  br label %_RNvMNtCsds7IErrfYrg_7anstyle5colorNtB2_5Color16render_underline.exit

_RNvMNtCsds7IErrfYrg_7anstyle5colorNtB2_5Color16render_underline.exit: ; preds = %bb4.i75, %bb3.i74, %bb2.i69
  call void @llvm.experimental.noalias.scope.decl(metadata !62)
  %_6.i77 = load i64, ptr %_21, align 8, !alias.scope !62, !noalias !65, !noundef !2
  %_8.i78 = icmp ult i64 %_6.i77, 20
  br i1 %_8.i78, label %_RNvXsb_NtCsds7IErrfYrg_7anstyle5colorNtB5_13DisplayBufferNtNtCsjMrxcFdYDNN_4core3fmt7Display3fmt.exit83, label %bb3.i79, !prof !26

bb3.i79:                                          ; preds = %_RNvMNtCsds7IErrfYrg_7anstyle5colorNtB2_5Color16render_underline.exit
; call core::slice::index::slice_index_fail
  call void @_RNvNtNtCsjMrxcFdYDNN_4core5slice5index16slice_index_fail(i64 noundef 0, i64 noundef %_6.i77, i64 noundef 19, ptr noalias noundef readonly align 8 captures(address, read_provenance) dereferenceable(24) @alloc_7b468d7ba7f42e59ef151c8717c57469) #11, !noalias !67
  unreachable

_RNvXsb_NtCsds7IErrfYrg_7anstyle5colorNtB5_13DisplayBufferNtNtCsjMrxcFdYDNN_4core3fmt7Display3fmt.exit83: ; preds = %_RNvMNtCsds7IErrfYrg_7anstyle5colorNtB2_5Color16render_underline.exit
  %_5.i81 = getelementptr inbounds nuw i8, ptr %_21, i64 8
; call <core::fmt::Formatter>::write_str
  %_0.i82 = call noundef zeroext i1 @_RNvMsa_NtCsjMrxcFdYDNN_4core3fmtNtB5_9Formatter9write_str(ptr noalias noundef nonnull align 8 dereferenceable(24) %f, ptr noalias noundef nonnull readonly align 1 captures(address, read_provenance) %_5.i81, i64 noundef %_6.i77)
  call void @llvm.lifetime.end.p0(i64 32, ptr nonnull %_21)
  br label %bb15
}

; <anstyle::color::DisplayBuffer>::write_code
; Function Attrs: noinline uwtable
define void @_RNvMsa_NtCsds7IErrfYrg_7anstyle5colorNtB5_13DisplayBuffer10write_code(ptr dead_on_unwind noalias noundef writable writeonly sret([32 x i8]) align 8 captures(none) dereferenceable(32) %_0, ptr dead_on_return noalias noundef align 8 captures(none) dereferenceable(32) %self, i8 noundef %code) unnamed_addr #1 {
start:
  %_4 = udiv i8 %code, 100
  %_6 = udiv i8 %code, 10
  %c2 = urem i8 %_6, 10
  %0 = icmp ult i8 %code, 100
  br i1 %0, label %bb3, label %bb1

bb3:                                              ; preds = %start
  %.not = icmp eq i8 %c2, 0
  %_14.pr = load i64, ptr %self, align 8
  br i1 %.not, label %bb6, label %bb4

bb1:                                              ; preds = %start
  %_9 = load i64, ptr %self, align 8, !noundef !2
  %_10 = icmp ult i64 %_9, 19
  br i1 %_10, label %bb2, label %panic

bb4:                                              ; preds = %bb3, %bb2
  %_12 = phi i64 [ %4, %bb2 ], [ %_14.pr, %bb3 ]
  %_13 = icmp ult i64 %_12, 19
  br i1 %_13, label %bb5, label %panic1

bb6:                                              ; preds = %bb3, %bb5
  %_14 = phi i64 [ %8, %bb5 ], [ %_14.pr, %bb3 ]
  %_15 = icmp ult i64 %_14, 19
  br i1 %_15, label %bb7, label %panic2

bb2:                                              ; preds = %bb1
  %1 = getelementptr inbounds nuw i8, ptr %self, i64 8
  %2 = getelementptr inbounds nuw i8, ptr %1, i64 %_9
  %3 = or disjoint i8 %_4, 48
  store i8 %3, ptr %2, align 1
  %4 = add nuw nsw i64 %_9, 1
  store i64 %4, ptr %self, align 8
  br label %bb4

panic:                                            ; preds = %bb1
; call core::panicking::panic_bounds_check
  tail call void @_RNvNtCsjMrxcFdYDNN_4core9panicking18panic_bounds_check(i64 noundef %_9, i64 noundef 19, ptr noalias noundef readonly align 8 captures(address, read_provenance) dereferenceable(24) @alloc_8f758d68e5cae81af8239ef77e990c04) #11
  unreachable

bb5:                                              ; preds = %bb4
  %5 = getelementptr inbounds nuw i8, ptr %self, i64 8
  %6 = getelementptr inbounds nuw i8, ptr %5, i64 %_12
  %7 = or disjoint i8 %c2, 48
  store i8 %7, ptr %6, align 1
  %8 = add nuw nsw i64 %_12, 1
  store i64 %8, ptr %self, align 8
  br label %bb6

panic1:                                           ; preds = %bb4
; call core::panicking::panic_bounds_check
  tail call void @_RNvNtCsjMrxcFdYDNN_4core9panicking18panic_bounds_check(i64 noundef %_12, i64 noundef 19, ptr noalias noundef readonly align 8 captures(address, read_provenance) dereferenceable(24) @alloc_33310d171f47c6e92ccd998e99737aec) #11
  unreachable

bb7:                                              ; preds = %bb6
  %9 = mul i8 %_6, 10
  %c3.decomposed = sub i8 %code, %9
  %10 = getelementptr inbounds nuw i8, ptr %self, i64 8
  %11 = getelementptr inbounds nuw i8, ptr %10, i64 %_14
  %12 = or disjoint i8 %c3.decomposed, 48
  store i8 %12, ptr %11, align 1
  %13 = add nuw nsw i64 %_14, 1
  store i64 %13, ptr %self, align 8
  tail call void @llvm.memcpy.p0.p0.i64(ptr noundef nonnull align 8 dereferenceable(32) %_0, ptr noundef nonnull align 8 dereferenceable(32) %self, i64 32, i1 false)
  ret void

panic2:                                           ; preds = %bb6
; call core::panicking::panic_bounds_check
  tail call void @_RNvNtCsjMrxcFdYDNN_4core9panicking18panic_bounds_check(i64 noundef %_14, i64 noundef 19, ptr noalias noundef readonly align 8 captures(address, read_provenance) dereferenceable(24) @alloc_94b73d0feb0f4a04f02dec76b5797fb4) #11
  unreachable
}

; <anstyle::color::DisplayBuffer>::write_str
; Function Attrs: noinline uwtable
define void @_RNvMsa_NtCsds7IErrfYrg_7anstyle5colorNtB5_13DisplayBuffer9write_str(ptr dead_on_unwind noalias noundef writable writeonly sret([32 x i8]) align 8 captures(none) dereferenceable(32) %_0, ptr dead_on_return noalias noundef align 8 captures(none) dereferenceable(32) %self, ptr noalias noundef nonnull readonly align 1 captures(address) %part.0, i64 noundef %part.1) unnamed_addr #1 personality ptr @rust_eh_personality {
start:
  %_19 = getelementptr inbounds nuw i8, ptr %part.0, i64 %part.1
  %_6.i.i7 = icmp samesign eq i64 %part.1, 0
  %.pre = load i64, ptr %self, align 8
  br i1 %_6.i.i7, label %bb5, label %bb4.lr.ph

bb4.lr.ph:                                        ; preds = %start
  %0 = getelementptr inbounds nuw i8, ptr %self, i64 8
  %1 = tail call i64 @llvm.usub.sat.i64(i64 19, i64 %.pre)
  %2 = add i64 %part.1, -1
  %umin = tail call i64 @llvm.umin.i64(i64 %2, i64 %1)
  %min.iters.check = icmp samesign ult i64 %umin, 8
  br i1 %min.iters.check, label %bb4.preheader, label %vector.ph

vector.ph:                                        ; preds = %bb4.lr.ph
  %3 = add nuw nsw i64 %umin, 1
  %n.mod.vf = and i64 %3, 7
  %4 = icmp eq i64 %n.mod.vf, 0
  %5 = select i1 %4, i64 8, i64 %n.mod.vf
  %n.vec = sub nsw i64 %3, %5
  %6 = getelementptr i8, ptr %part.0, i64 %n.vec
  %7 = getelementptr inbounds nuw i8, ptr %0, i64 %.pre
  br label %vector.body

vector.body:                                      ; preds = %vector.body, %vector.ph
  %index = phi i64 [ 0, %vector.ph ], [ %index.next, %vector.body ]
  %next.gep = getelementptr i8, ptr %part.0, i64 %index
  %8 = getelementptr i8, ptr %next.gep, i64 4
  %wide.load = load <4 x i8>, ptr %next.gep, align 1
  %wide.load13 = load <4 x i8>, ptr %8, align 1
  %9 = getelementptr inbounds nuw i8, ptr %7, i64 %index
  %10 = getelementptr inbounds nuw i8, ptr %9, i64 4
  store <4 x i8> %wide.load, ptr %9, align 1
  store <4 x i8> %wide.load13, ptr %10, align 1
  %index.next = add nuw i64 %index, 8
  %11 = icmp eq i64 %index.next, %n.vec
  br i1 %11, label %bb4.preheader, label %vector.body, !llvm.loop !68

bb4.preheader:                                    ; preds = %vector.body, %bb4.lr.ph
  %iter.sroa.0.09.ph = phi ptr [ %part.0, %bb4.lr.ph ], [ %6, %vector.body ]
  %iter.sroa.7.08.ph = phi i64 [ 0, %bb4.lr.ph ], [ %n.vec, %vector.body ]
  br label %bb4

bb4:                                              ; preds = %bb4.preheader, %bb6
  %iter.sroa.0.09 = phi ptr [ %_16.i.i, %bb6 ], [ %iter.sroa.0.09.ph, %bb4.preheader ]
  %iter.sroa.7.08 = phi i64 [ %_8.0.i, %bb6 ], [ %iter.sroa.7.08.ph, %bb4.preheader ]
  %_13 = add nuw nsw i64 %.pre, %iter.sroa.7.08
  %exitcond.not = icmp eq i64 %iter.sroa.7.08, %1
  br i1 %exitcond.not, label %panic, label %bb6

bb5:                                              ; preds = %bb6, %start
  %12 = add i64 %.pre, %part.1
  store i64 %12, ptr %self, align 8
  tail call void @llvm.memcpy.p0.p0.i64(ptr noundef nonnull align 8 dereferenceable(32) %_0, ptr noundef nonnull align 8 dereferenceable(32) %self, i64 32, i1 false)
  ret void

bb6:                                              ; preds = %bb4
  %_8.0.i = add nuw nsw i64 %iter.sroa.7.08, 1
  %_16.i.i = getelementptr inbounds nuw i8, ptr %iter.sroa.0.09, i64 1
  %_12 = load i8, ptr %iter.sroa.0.09, align 1, !noundef !2
  %13 = getelementptr inbounds nuw i8, ptr %0, i64 %_13
  store i8 %_12, ptr %13, align 1
  %_6.i.i = icmp eq ptr %_16.i.i, %_19
  br i1 %_6.i.i, label %bb5, label %bb4, !llvm.loop !71

panic:                                            ; preds = %bb4
; call core::panicking::panic_bounds_check
  tail call void @_RNvNtCsjMrxcFdYDNN_4core9panicking18panic_bounds_check(i64 noundef %_13, i64 noundef 19, ptr noalias noundef readonly align 8 captures(address, read_provenance) dereferenceable(24) @alloc_293418d1b2535a7441b43ec2e2f86060) #11
  unreachable
}

; <&str as core::fmt::Display>::fmt
; Function Attrs: uwtable
define internal noundef zeroext i1 @_RNvXs1i_NtCsjMrxcFdYDNN_4core3fmtReNtB6_7Display3fmtCsds7IErrfYrg_7anstyle(ptr noalias noundef readonly align 8 captures(none) dereferenceable(16) %self, ptr noalias noundef align 8 dereferenceable(24) %f) unnamed_addr #0 {
start:
  %_3.0 = load ptr, ptr %self, align 8, !nonnull !2, !align !6, !noundef !2
  %0 = getelementptr inbounds nuw i8, ptr %self, i64 8
  %_3.1 = load i64, ptr %0, align 8, !noundef !2
; call <str as core::fmt::Display>::fmt
  %_0 = tail call noundef zeroext i1 @_RNvXsi_NtCsjMrxcFdYDNN_4core3fmteNtB5_7Display3fmt(ptr noalias noundef nonnull readonly align 1 captures(address, read_provenance) %_3.0, i64 noundef %_3.1, ptr noalias noundef nonnull align 8 dereferenceable(24) %f)
  ret i1 %_0
}

; <anstyle::style::StyleDisplay as core::fmt::Display>::fmt
; Function Attrs: uwtable
define noundef zeroext i1 @_RNvXs8_NtCsds7IErrfYrg_7anstyle5styleNtB5_12StyleDisplayNtNtCsjMrxcFdYDNN_4core3fmt7Display3fmt(ptr noalias noundef readonly align 2 captures(none) dereferenceable(14) %self, ptr noalias noundef align 8 dereferenceable(24) %f) unnamed_addr #0 {
start:
; call <anstyle::style::Style>::fmt_to
  %_0 = tail call noundef zeroext i1 @_RNvMNtCsds7IErrfYrg_7anstyle5styleNtB2_5Style6fmt_to(ptr noalias noundef nonnull readonly align 2 captures(address, read_provenance) dereferenceable(14) %self, ptr noalias noundef nonnull align 8 dereferenceable(24) %f)
  ret i1 %_0
}

; <anstyle::reset::Reset as core::fmt::Display>::fmt
; Function Attrs: uwtable
define noundef zeroext i1 @_RNvXs_NtCsds7IErrfYrg_7anstyle5resetNtB4_5ResetNtNtCsjMrxcFdYDNN_4core3fmt7Display3fmt(ptr noalias noundef nonnull readonly align 1 captures(none) %self, ptr noalias noundef align 8 dereferenceable(24) %f) unnamed_addr #0 {
start:
; call <core::fmt::Formatter>::write_str
  %_0 = tail call noundef zeroext i1 @_RNvMsa_NtCsjMrxcFdYDNN_4core3fmtNtB5_9Formatter9write_str(ptr noalias noundef nonnull align 8 dereferenceable(24) %f, ptr noalias noundef nonnull readonly align 1 captures(address, read_provenance) @alloc_1eac0480e2e48185d4ca9bc483cda2f2, i64 noundef 4)
  ret i1 %_0
}

; <anstyle::effect::Effects as core::fmt::Debug>::fmt
; Function Attrs: uwtable
define noundef zeroext i1 @_RNvXs_NtCsds7IErrfYrg_7anstyle6effectNtB4_7EffectsNtNtCsjMrxcFdYDNN_4core3fmt5Debug3fmt(ptr noalias noundef readonly align 2 captures(none) dereferenceable(2) %self, ptr noalias noundef readonly align 8 captures(none) dereferenceable(24) %f) unnamed_addr #0 personality ptr @rust_eh_personality {
start:
  %args = alloca [16 x i8], align 8
  %_37.0 = load ptr, ptr %f, align 8, !nonnull !2, !align !6, !noundef !2
  %0 = getelementptr inbounds nuw i8, ptr %f, i64 8
  %_37.1 = load ptr, ptr %0, align 8, !nonnull !2, !align !72, !noundef !2
  %1 = getelementptr inbounds nuw i8, ptr %_37.1, i64 24
  %2 = load ptr, ptr %1, align 8, !invariant.load !2, !nonnull !2
  %3 = tail call noundef zeroext i1 %2(ptr noundef nonnull align 1 %_37.0, ptr noalias noundef nonnull readonly align 1 captures(address, read_provenance) @alloc_c8bc6aff3aa66b537b2f69b10865d0f5, i64 noundef 8) #12
  br i1 %3, label %bb10, label %bb17

bb17:                                             ; preds = %start
  %_7 = load i16, ptr %self, align 2, !noundef !2
  %_21.sroa.4.0..sroa_idx = getelementptr inbounds nuw i8, ptr %args, i64 8
  br label %bb2

bb2:                                              ; preds = %bb8, %bb17
  %iter.sroa.812.0 = phi i64 [ 0, %bb17 ], [ %_8.0.i, %bb8 ]
  %iter.sroa.0.0 = phi i64 [ 0, %bb17 ], [ %5, %bb8 ]
  br label %bb1.i.i

bb1.i.i:                                          ; preds = %bb2.i.i, %bb2
  %4 = phi i64 [ %5, %bb2.i.i ], [ %iter.sroa.0.0, %bb2 ]
  %exitcond.not.i.i = icmp eq i64 %4, 12
  br i1 %exitcond.not.i.i, label %bb5, label %bb2.i.i

bb2.i.i:                                          ; preds = %bb1.i.i
  %5 = add i64 %4, 1
  %6 = trunc nuw nsw i64 %4 to i16
  %effect.i.i = shl nuw nsw i16 1, %6
  %_7.i.i = and i16 %effect.i.i, %_7
  %_6.not.i.i = icmp eq i16 %_7.i.i, 0
  br i1 %_6.not.i.i, label %bb1.i.i, label %bb4

bb4:                                              ; preds = %bb2.i.i
  %_8.0.i = add i64 %iter.sroa.812.0, 1
  %7 = icmp eq i64 %iter.sroa.812.0, 0
  br i1 %7, label %bb7, label %bb51

bb5:                                              ; preds = %bb1.i.i
  %8 = call noundef zeroext i1 %2(ptr noundef nonnull align 1 %_37.0, ptr noalias noundef nonnull readonly align 1 captures(address, read_provenance) @alloc_9e3f62b0e6490cc45676dc85f910c2d0, i64 noundef 1) #12
  br label %bb10

bb10:                                             ; preds = %bb8, %bb51, %bb5, %start
  %_0.sroa.0.0.off0 = phi i1 [ true, %start ], [ %8, %bb5 ], [ true, %bb51 ], [ true, %bb8 ]
  ret i1 %_0.sroa.0.0.off0

bb7:                                              ; preds = %bb51, %bb4
  %_19 = icmp ult i64 %4, 12
  br i1 %_19, label %bb8, label %panic

bb51:                                             ; preds = %bb4
  %9 = call noundef zeroext i1 %2(ptr noundef nonnull align 1 %_37.0, ptr noalias noundef nonnull readonly align 1 captures(address, read_provenance) @alloc_a73d0e35045fd787c81346701178a687, i64 noundef 3) #12
  br i1 %9, label %bb10, label %bb7

bb8:                                              ; preds = %bb7
  %args1 = getelementptr inbounds nuw %"effect::Metadata", ptr @alloc_a83267f071447d25999211ea618065a8, i64 %4
  call void @llvm.lifetime.start.p0(i64 16, ptr nonnull %args)
  store ptr %args1, ptr %args, align 8
  store ptr @_RNvXs1i_NtCsjMrxcFdYDNN_4core3fmtReNtB6_7Display3fmtCsds7IErrfYrg_7anstyle, ptr %_21.sroa.4.0..sroa_idx, align 8
; call core::fmt::write
  %10 = call noundef zeroext i1 @_RNvNtCsjMrxcFdYDNN_4core3fmt5write(ptr noundef nonnull align 1 %_37.0, ptr noalias noundef nonnull readonly align 8 captures(address, read_provenance) dereferenceable(48) %_37.1, ptr noundef nonnull @alloc_0c812808379efded5a4fb82d2790b556, ptr noundef nonnull %args)
  call void @llvm.lifetime.end.p0(i64 16, ptr nonnull %args)
  br i1 %10, label %bb10, label %bb2

panic:                                            ; preds = %bb7
; call core::panicking::panic_bounds_check
  call void @_RNvNtCsjMrxcFdYDNN_4core9panicking18panic_bounds_check(i64 noundef %4, i64 noundef 12, ptr noalias noundef readonly align 8 captures(address, read_provenance) dereferenceable(24) @alloc_1587c5f4b3abb9389aa8d1ffdb872772) #11
  unreachable
}

; Function Attrs: mustprogress nocallback nofree nosync nounwind willreturn memory(argmem: readwrite)
declare void @llvm.lifetime.start.p0(i64 immarg, ptr captures(none)) #2

; Function Attrs: mustprogress nocallback nofree nounwind willreturn memory(argmem: readwrite)
declare void @llvm.memcpy.p0.p0.i64(ptr noalias writeonly captures(none), ptr noalias readonly captures(none), i64, i1 immarg) #3

; Function Attrs: mustprogress nocallback nofree nosync nounwind willreturn memory(argmem: readwrite)
declare void @llvm.lifetime.end.p0(i64 immarg, ptr captures(none)) #2

; core::panicking::panic_bounds_check
; Function Attrs: cold minsize noinline noreturn optsize uwtable
declare void @_RNvNtCsjMrxcFdYDNN_4core9panicking18panic_bounds_check(i64 noundef, i64 noundef, ptr noalias noundef readonly align 8 captures(address, read_provenance) dereferenceable(24)) unnamed_addr #4

; <str as core::fmt::Display>::fmt
; Function Attrs: uwtable
declare noundef zeroext i1 @_RNvXsi_NtCsjMrxcFdYDNN_4core3fmteNtB5_7Display3fmt(ptr noalias noundef nonnull readonly align 1 captures(address, read_provenance), i64 noundef, ptr noalias noundef align 8 dereferenceable(24)) unnamed_addr #0

; <core::fmt::Formatter>::write_str
; Function Attrs: uwtable
declare noundef zeroext i1 @_RNvMsa_NtCsjMrxcFdYDNN_4core3fmtNtB5_9Formatter9write_str(ptr noalias noundef align 8 dereferenceable(24), ptr noalias noundef nonnull readonly align 1 captures(address, read_provenance), i64 noundef) unnamed_addr #0

; Function Attrs: nounwind uwtable
declare noundef range(i32 0, 10) i32 @rust_eh_personality(i32 noundef, i32 noundef, i64 noundef, ptr noundef, ptr noundef) unnamed_addr #5

; core::fmt::write
; Function Attrs: uwtable
declare noundef zeroext i1 @_RNvNtCsjMrxcFdYDNN_4core3fmt5write(ptr noundef nonnull align 1, ptr noalias noundef readonly align 8 captures(address, read_provenance) dereferenceable(48), ptr noundef nonnull, ptr noundef nonnull) unnamed_addr #0

; core::slice::index::slice_index_fail
; Function Attrs: cold noinline noreturn uwtable
declare void @_RNvNtNtCsjMrxcFdYDNN_4core5slice5index16slice_index_fail(i64 noundef, i64 noundef, i64 noundef, ptr noalias noundef readonly align 8 captures(address, read_provenance) dereferenceable(24)) unnamed_addr #6

; Function Attrs: nocallback nofree nosync nounwind speculatable willreturn memory(none)
declare i64 @llvm.umax.i64(i64, i64) #7

; Function Attrs: nocallback nofree nounwind willreturn memory(argmem: write)
declare void @llvm.memset.p0.i64(ptr writeonly captures(none), i8, i64, i1 immarg) #8

; Function Attrs: nocallback nofree nosync nounwind willreturn memory(inaccessiblemem: readwrite)
declare void @llvm.experimental.noalias.scope.decl(metadata) #9

; Function Attrs: nocallback nofree nosync nounwind speculatable willreturn memory(none)
declare i64 @llvm.usub.sat.i64(i64, i64) #7

; Function Attrs: nocallback nofree nosync nounwind speculatable willreturn memory(none)
declare i64 @llvm.umin.i64(i64, i64) #7

attributes #0 = { uwtable "frame-pointer"="non-leaf" "probe-stack"="inline-asm" "target-cpu"="apple-m1" }
attributes #1 = { noinline uwtable "frame-pointer"="non-leaf" "probe-stack"="inline-asm" "target-cpu"="apple-m1" }
attributes #2 = { mustprogress nocallback nofree nosync nounwind willreturn memory(argmem: readwrite) }
attributes #3 = { mustprogress nocallback nofree nounwind willreturn memory(argmem: readwrite) }
attributes #4 = { cold minsize noinline noreturn optsize uwtable "frame-pointer"="non-leaf" "probe-stack"="inline-asm" "target-cpu"="apple-m1" }
attributes #5 = { nounwind uwtable "frame-pointer"="non-leaf" "probe-stack"="inline-asm" "target-cpu"="apple-m1" }
attributes #6 = { cold noinline noreturn uwtable "frame-pointer"="non-leaf" "probe-stack"="inline-asm" "target-cpu"="apple-m1" }
attributes #7 = { nocallback nofree nosync nounwind speculatable willreturn memory(none) }
attributes #8 = { nocallback nofree nounwind willreturn memory(argmem: write) }
attributes #9 = { nocallback nofree nosync nounwind willreturn memory(inaccessiblemem: readwrite) }
attributes #10 = { noinline }
attributes #11 = { noinline noreturn }
attributes #12 = { inlinehint }

!llvm.module.flags = !{!0}
!llvm.ident = !{!1}

!0 = !{i32 8, !"PIC Level", i32 2}
!1 = !{!"rustc version 1.95.0-nightly (39052daf9 2026-01-22)"}
!2 = !{}
!3 = !{!4}
!4 = distinct !{!4, !5, !"_RNvXs4_NtCsds7IErrfYrg_7anstyle6effectNtB5_14EffectsDisplayNtNtCsjMrxcFdYDNN_4core3fmt7Display3fmt: %f"}
!5 = distinct !{!5, !"_RNvXs4_NtCsds7IErrfYrg_7anstyle6effectNtB5_14EffectsDisplayNtNtCsjMrxcFdYDNN_4core3fmt7Display3fmt"}
!6 = !{i64 1}
!7 = !{i8 0, i8 4}
!8 = !{!9, !11}
!9 = distinct !{!9, !10, !"_RNvMs4_NtCsds7IErrfYrg_7anstyle5colorNtB5_9AnsiColor12as_fg_buffer: %_0"}
!10 = distinct !{!10, !"_RNvMs4_NtCsds7IErrfYrg_7anstyle5colorNtB5_9AnsiColor12as_fg_buffer"}
!11 = distinct !{!11, !12, !"_RNvMNtCsds7IErrfYrg_7anstyle5colorNtB2_5Color9render_fg: %_0"}
!12 = distinct !{!12, !"_RNvMNtCsds7IErrfYrg_7anstyle5colorNtB2_5Color9render_fg"}
!13 = !{!14, !11}
!14 = distinct !{!14, !15, !"_RNvMs5_NtCsds7IErrfYrg_7anstyle5colorNtB5_12Ansi256Color12as_fg_buffer: %_0"}
!15 = distinct !{!15, !"_RNvMs5_NtCsds7IErrfYrg_7anstyle5colorNtB5_12Ansi256Color12as_fg_buffer"}
!16 = !{!17, !19, !11}
!17 = distinct !{!17, !18, !"_RNvMs8_NtCsds7IErrfYrg_7anstyle5colorNtB5_8RgbColor12as_fg_buffer: %_0"}
!18 = distinct !{!18, !"_RNvMs8_NtCsds7IErrfYrg_7anstyle5colorNtB5_8RgbColor12as_fg_buffer"}
!19 = distinct !{!19, !18, !"_RNvMs8_NtCsds7IErrfYrg_7anstyle5colorNtB5_8RgbColor12as_fg_buffer: %self"}
!20 = !{!19}
!21 = !{!22}
!22 = distinct !{!22, !23, !"_RNvXsb_NtCsds7IErrfYrg_7anstyle5colorNtB5_13DisplayBufferNtNtCsjMrxcFdYDNN_4core3fmt7Display3fmt: %self"}
!23 = distinct !{!23, !"_RNvXsb_NtCsds7IErrfYrg_7anstyle5colorNtB5_13DisplayBufferNtNtCsjMrxcFdYDNN_4core3fmt7Display3fmt"}
!24 = !{!25}
!25 = distinct !{!25, !23, !"_RNvXsb_NtCsds7IErrfYrg_7anstyle5colorNtB5_13DisplayBufferNtNtCsjMrxcFdYDNN_4core3fmt7Display3fmt: %f"}
!26 = !{!"branch_weights", i32 4000000, i32 4001}
!27 = !{!22, !25}
!28 = !{!29, !31}
!29 = distinct !{!29, !30, !"_RNvMs4_NtCsds7IErrfYrg_7anstyle5colorNtB5_9AnsiColor12as_bg_buffer: %_0"}
!30 = distinct !{!30, !"_RNvMs4_NtCsds7IErrfYrg_7anstyle5colorNtB5_9AnsiColor12as_bg_buffer"}
!31 = distinct !{!31, !32, !"_RNvMNtCsds7IErrfYrg_7anstyle5colorNtB2_5Color9render_bg: %_0"}
!32 = distinct !{!32, !"_RNvMNtCsds7IErrfYrg_7anstyle5colorNtB2_5Color9render_bg"}
!33 = !{!34, !31}
!34 = distinct !{!34, !35, !"_RNvMs5_NtCsds7IErrfYrg_7anstyle5colorNtB5_12Ansi256Color12as_bg_buffer: %_0"}
!35 = distinct !{!35, !"_RNvMs5_NtCsds7IErrfYrg_7anstyle5colorNtB5_12Ansi256Color12as_bg_buffer"}
!36 = !{!37, !39, !31}
!37 = distinct !{!37, !38, !"_RNvMs8_NtCsds7IErrfYrg_7anstyle5colorNtB5_8RgbColor12as_bg_buffer: %_0"}
!38 = distinct !{!38, !"_RNvMs8_NtCsds7IErrfYrg_7anstyle5colorNtB5_8RgbColor12as_bg_buffer"}
!39 = distinct !{!39, !38, !"_RNvMs8_NtCsds7IErrfYrg_7anstyle5colorNtB5_8RgbColor12as_bg_buffer: %self"}
!40 = !{!39}
!41 = !{!42}
!42 = distinct !{!42, !43, !"_RNvXsb_NtCsds7IErrfYrg_7anstyle5colorNtB5_13DisplayBufferNtNtCsjMrxcFdYDNN_4core3fmt7Display3fmt: %self"}
!43 = distinct !{!43, !"_RNvXsb_NtCsds7IErrfYrg_7anstyle5colorNtB5_13DisplayBufferNtNtCsjMrxcFdYDNN_4core3fmt7Display3fmt"}
!44 = !{!45}
!45 = distinct !{!45, !43, !"_RNvXsb_NtCsds7IErrfYrg_7anstyle5colorNtB5_13DisplayBufferNtNtCsjMrxcFdYDNN_4core3fmt7Display3fmt: %f"}
!46 = !{!42, !45}
!47 = !{!48, !50, !52}
!48 = distinct !{!48, !49, !"_RNvMs5_NtCsds7IErrfYrg_7anstyle5colorNtB5_12Ansi256Color19as_underline_buffer: %_0"}
!49 = distinct !{!49, !"_RNvMs5_NtCsds7IErrfYrg_7anstyle5colorNtB5_12Ansi256Color19as_underline_buffer"}
!50 = distinct !{!50, !51, !"_RNvMs4_NtCsds7IErrfYrg_7anstyle5colorNtB5_9AnsiColor19as_underline_buffer: %_0"}
!51 = distinct !{!51, !"_RNvMs4_NtCsds7IErrfYrg_7anstyle5colorNtB5_9AnsiColor19as_underline_buffer"}
!52 = distinct !{!52, !53, !"_RNvMNtCsds7IErrfYrg_7anstyle5colorNtB2_5Color16render_underline: %_0"}
!53 = distinct !{!53, !"_RNvMNtCsds7IErrfYrg_7anstyle5colorNtB2_5Color16render_underline"}
!54 = !{!55, !52}
!55 = distinct !{!55, !56, !"_RNvMs5_NtCsds7IErrfYrg_7anstyle5colorNtB5_12Ansi256Color19as_underline_buffer: %_0"}
!56 = distinct !{!56, !"_RNvMs5_NtCsds7IErrfYrg_7anstyle5colorNtB5_12Ansi256Color19as_underline_buffer"}
!57 = !{!58, !60, !52}
!58 = distinct !{!58, !59, !"_RNvMs8_NtCsds7IErrfYrg_7anstyle5colorNtB5_8RgbColor19as_underline_buffer: %_0"}
!59 = distinct !{!59, !"_RNvMs8_NtCsds7IErrfYrg_7anstyle5colorNtB5_8RgbColor19as_underline_buffer"}
!60 = distinct !{!60, !59, !"_RNvMs8_NtCsds7IErrfYrg_7anstyle5colorNtB5_8RgbColor19as_underline_buffer: %self"}
!61 = !{!60}
!62 = !{!63}
!63 = distinct !{!63, !64, !"_RNvXsb_NtCsds7IErrfYrg_7anstyle5colorNtB5_13DisplayBufferNtNtCsjMrxcFdYDNN_4core3fmt7Display3fmt: %self"}
!64 = distinct !{!64, !"_RNvXsb_NtCsds7IErrfYrg_7anstyle5colorNtB5_13DisplayBufferNtNtCsjMrxcFdYDNN_4core3fmt7Display3fmt"}
!65 = !{!66}
!66 = distinct !{!66, !64, !"_RNvXsb_NtCsds7IErrfYrg_7anstyle5colorNtB5_13DisplayBufferNtNtCsjMrxcFdYDNN_4core3fmt7Display3fmt: %f"}
!67 = !{!63, !66}
!68 = distinct !{!68, !69, !70}
!69 = !{!"llvm.loop.isvectorized", i32 1}
!70 = !{!"llvm.loop.unroll.runtime.disable"}
!71 = distinct !{!71, !70, !69}
!72 = !{i64 8}
