; ModuleID = 'colored.cd6eddc3348ddde4-cgu.0'
source_filename = "colored.cd6eddc3348ddde4-cgu.0"
target datalayout = "e-m:o-p270:32:32-p271:32:32-p272:64:64-i64:64-i128:128-n32:64-S128-Fn32"
target triple = "arm64-apple-macosx11.0.0"

@vtable.0 = private unnamed_addr constant <{ [24 x i8], ptr, ptr }> <{ [24 x i8] c"\00\00\00\00\00\00\00\00\08\00\00\00\00\00\00\00\08\00\00\00\00\00\00\00", ptr @_RNSNvYNCINvMs0_NtNtCs5sEH5CPMdak_3std4sync4onceNtBd_4Once9call_onceNCINvMNtCs3hqUhmJYu5V_11lazy_static4lazyINtB19_4LazyNtNtCshDvXgAkadjA_7colored7control14ShouldColorizeE3getNvNvXs0_B1V_NtB1V_15SHOULD_COLORIZENtNtNtCsjMrxcFdYDNN_4core3ops5deref5Deref5deref23___static_ref_initializeE0E0INtNtB3p_8function6FnOnceTRNtBd_9OnceStateEE9call_once6vtableB1X_, ptr @_RNCINvMs0_NtNtCs5sEH5CPMdak_3std4sync4onceNtB8_4Once9call_onceNCINvMNtCs3hqUhmJYu5V_11lazy_static4lazyINtB14_4LazyNtNtCshDvXgAkadjA_7colored7control14ShouldColorizeE3getNvNvXs0_B1Q_NtB1Q_15SHOULD_COLORIZENtNtNtCsjMrxcFdYDNN_4core3ops5deref5Deref5deref23___static_ref_initializeE0E0B1S_ }>, align 8
@alloc_7fe94be2e120ffbd80c490b1b3c481ee = private unnamed_addr constant [120 x i8] c"/Users/hongyaotang/.rustup/toolchains/nightly-aarch64-apple-darwin/lib/rustlib/src/rust/library/core/src/str/pattern.rs\00", align 1
@alloc_3c3a438693b52af6c6b31c2cc77620da = private unnamed_addr constant <{ ptr, [16 x i8] }> <{ ptr @alloc_7fe94be2e120ffbd80c490b1b3c481ee, [16 x i8] c"w\00\00\00\00\00\00\00\E4\05\00\00\14\00\00\00" }>, align 8
@alloc_759b6db6182a2ae5f8169b55f322d553 = private unnamed_addr constant <{ ptr, [16 x i8] }> <{ ptr @alloc_7fe94be2e120ffbd80c490b1b3c481ee, [16 x i8] c"w\00\00\00\00\00\00\00\E4\05\00\00!\00\00\00" }>, align 8
@alloc_cfc145f12794171662ae0bd5e97799ce = private unnamed_addr constant <{ ptr, [16 x i8] }> <{ ptr @alloc_7fe94be2e120ffbd80c490b1b3c481ee, [16 x i8] c"w\00\00\00\00\00\00\00\D8\05\00\00!\00\00\00" }>, align 8
@alloc_c7175637917997c04b44e3b2099eecca = private unnamed_addr constant [113 x i8] c"/Users/hongyaotang/.rustup/toolchains/nightly-aarch64-apple-darwin/lib/rustlib/src/rust/library/alloc/src/str.rs\00", align 1
@alloc_3f2fbfdca196a5b824209b380ee7ae1b = private unnamed_addr constant <{ ptr, [16 x i8] }> <{ ptr @alloc_c7175637917997c04b44e3b2099eecca, [16 x i8] c"p\00\00\00\00\00\00\00\B1\00\00\00\16\00\00\00" }>, align 8
@alloc_ca673fb95acb8e58af271999e89294ae = private unnamed_addr constant [53 x i8] c"attempt to join into collection with len > usize::MAX", align 1
@alloc_60488e92c3d9250777708a132d567f7b = private unnamed_addr constant <{ ptr, [16 x i8] }> <{ ptr @alloc_c7175637917997c04b44e3b2099eecca, [16 x i8] c"p\00\00\00\00\00\00\00\9A\00\00\00\0A\00\00\00" }>, align 8
@alloc_8abc8245dd622154cb39537f390f45d3 = private unnamed_addr constant [117 x i8] c"/Users/hongyaotang/.rustup/toolchains/nightly-aarch64-apple-darwin/lib/rustlib/src/rust/library/std/src/sync/once.rs\00", align 1
@alloc_3129176114b12752e73d3989241bb5f0 = private unnamed_addr constant <{ ptr, [16 x i8] }> <{ ptr @alloc_8abc8245dd622154cb39537f390f45d3, [16 x i8] c"t\00\00\00\00\00\00\00\9F\00\00\002\00\00\00" }>, align 8
@alloc_f9ceb740a12f0ef7d1d4affe11fbde22 = private unnamed_addr constant [37 x i8] c"\11not implemented: \C0\10 not a TrueColor\00", align 1
@alloc_2b1cf5ff572573adf2ba104ba3e0fe8c = private unnamed_addr constant [99 x i8] c"/Users/hongyaotang/.cargo/registry/src/index.crates.io-1949cf8c6b5b557f/colored-2.2.0/src/color.rs\00", align 1
@alloc_1bf7c10d52bec4028941f119a628db49 = private unnamed_addr constant <{ ptr, [16 x i8] }> <{ ptr @alloc_2b1cf5ff572573adf2ba104ba3e0fe8c, [16 x i8] c"b\00\00\00\00\00\00\00\81\00\00\00\19\00\00\00" }>, align 8
@alloc_26f643e647dbf77f42e670b3488e8932 = private unnamed_addr constant [1 x i8] c"1", align 1
@alloc_2915479852334936e8130753f7743db9 = private unnamed_addr constant [1 x i8] c"2", align 1
@alloc_9cf8d94634c21829dfe78a5c04e937a1 = private unnamed_addr constant [1 x i8] c"4", align 1
@alloc_3a69216911966da9513ed3dd343b9603 = private unnamed_addr constant [1 x i8] c"7", align 1
@alloc_7d41ec57c1295544fb8684618c5cb662 = private unnamed_addr constant [1 x i8] c"3", align 1
@alloc_7654ceb84663324a351487f0eb73a275 = private unnamed_addr constant [1 x i8] c"5", align 1
@alloc_7b73433ff6202cf4b7f65fc1930b9e3f = private unnamed_addr constant [1 x i8] c"8", align 1
@alloc_913d41a8d32ae477dc676e00a5bcf023 = private unnamed_addr constant [1 x i8] c"9", align 1
@alloc_1eac0480e2e48185d4ca9bc483cda2f2 = private unnamed_addr constant [4 x i8] c"\1B[0m", align 1
@alloc_17341a64e582a87b94a59158a67ef759 = private unnamed_addr constant [97 x i8] c"/Users/hongyaotang/.cargo/registry/src/index.crates.io-1949cf8c6b5b557f/colored-2.2.0/src/lib.rs\00", align 1
@alloc_61b56d7422db143c532e4420767e9ee6 = private unnamed_addr constant <{ ptr, [16 x i8] }> <{ ptr @alloc_17341a64e582a87b94a59158a67ef759, [16 x i8] c"`\00\00\00\00\00\00\002\02\00\00\17\00\00\00" }>, align 8
@alloc_fd658439c397d335ee01abc3a4ed5fd5 = private unnamed_addr constant [44 x i8] c"assertion failed: self.is_char_boundary(idx)", align 1
@alloc_0365545ab5addf8c1e0dbc7bfed6c697 = private unnamed_addr constant <{ ptr, [16 x i8] }> <{ ptr @alloc_2b1cf5ff572573adf2ba104ba3e0fe8c, [16 x i8] c"b\00\00\00\00\00\00\00\84\00\00\00A\00\00\00" }>, align 8
@alloc_def6dda311e6aae9c1f3dfa404e3026d = private unnamed_addr constant [2 x i8] c"40", align 1
@alloc_75d4da06079ab2653dac88032812239e = private unnamed_addr constant [2 x i8] c"41", align 1
@alloc_4cca07c46305327e56b5abbe1b5e418e = private unnamed_addr constant [2 x i8] c"42", align 1
@alloc_5e91073b1ff1be34105c35685693c827 = private unnamed_addr constant [2 x i8] c"43", align 1
@alloc_691dd26263b9e01df39337e22a61601d = private unnamed_addr constant [2 x i8] c"44", align 1
@alloc_649f94856553e144f183c9b3d7033ad7 = private unnamed_addr constant [2 x i8] c"45", align 1
@alloc_2f51cc630a76febdb3156da5df9f16b0 = private unnamed_addr constant [2 x i8] c"46", align 1
@alloc_c40e213685b08aef1d04b996e3fbae92 = private unnamed_addr constant [2 x i8] c"47", align 1
@alloc_074d034e48c6e28c2447ef50e9c5a3ca = private unnamed_addr constant [3 x i8] c"100", align 1
@alloc_ab1e971ada9b86b5bb9d00a42de16c83 = private unnamed_addr constant [3 x i8] c"101", align 1
@alloc_a887c4a286608855bf20578cb6d6c6e0 = private unnamed_addr constant [3 x i8] c"102", align 1
@alloc_06d5f10b0fc9ee0c5c0dd8b6eb7af3ba = private unnamed_addr constant [3 x i8] c"103", align 1
@alloc_7999279de4068b238a432f3cb5c9a35d = private unnamed_addr constant [3 x i8] c"104", align 1
@alloc_09dfb1047c16a7b54652f5f649aa2d2b = private unnamed_addr constant [3 x i8] c"105", align 1
@alloc_98c8b37b75685b9b43ca4cf6dd0f861a = private unnamed_addr constant [3 x i8] c"106", align 1
@alloc_c640ae5813955a832eb0bfd4ae898f2a = private unnamed_addr constant [3 x i8] c"107", align 1
@alloc_8ecae3d72a1b521e22681a6129fb5a94 = private unnamed_addr constant [14 x i8] c"\0548;2;\C0\01;\C0\01;\C0\00", align 1
@alloc_c3fbebdb0220fda2a43de759023090c3 = private unnamed_addr constant [2 x i8] c"30", align 1
@alloc_6a2cb61e6b0660e36e5d436bb8417179 = private unnamed_addr constant [2 x i8] c"31", align 1
@alloc_8e020aace2b3cf2c6b8375c8868270b7 = private unnamed_addr constant [2 x i8] c"32", align 1
@alloc_454c11e38a5cd8d43e8bc4940eb97bee = private unnamed_addr constant [2 x i8] c"33", align 1
@alloc_b5a0fc3cf4b8ee4d3aeb5c5640b2b45f = private unnamed_addr constant [2 x i8] c"34", align 1
@alloc_56844157099e868917d4b204e532edf2 = private unnamed_addr constant [2 x i8] c"35", align 1
@alloc_d0730efd1684e823f120eaf5280e28e7 = private unnamed_addr constant [2 x i8] c"36", align 1
@alloc_542d6812827803deb4df28621f1b32c6 = private unnamed_addr constant [2 x i8] c"37", align 1
@alloc_3f380359d59e1ef0c5983fcf119716b9 = private unnamed_addr constant [2 x i8] c"90", align 1
@alloc_82a5b8d1eb5c2fa6842ed3e2641606ac = private unnamed_addr constant [2 x i8] c"91", align 1
@alloc_dbc926726952b6c50f4fab069427a2ee = private unnamed_addr constant [2 x i8] c"92", align 1
@alloc_43e1742116e6ff496644c2b696ffbf61 = private unnamed_addr constant [2 x i8] c"93", align 1
@alloc_6ecf2a6bcd09c4d5a8e48190a41b4824 = private unnamed_addr constant [2 x i8] c"94", align 1
@alloc_42a30566604273b9a26dee42422dad98 = private unnamed_addr constant [2 x i8] c"95", align 1
@alloc_78ada7107e125f51179d44227ac16370 = private unnamed_addr constant [2 x i8] c"96", align 1
@alloc_5cfa05489a254439c016c3e56a9f6399 = private unnamed_addr constant [2 x i8] c"97", align 1
@alloc_e20137bdd1ead667d372a2fd1287ca38 = private unnamed_addr constant [14 x i8] c"\0538;2;\C0\01;\C0\01;\C0\00", align 1
@alloc_0c812808379efded5a4fb82d2790b556 = private unnamed_addr constant [2 x i8] c"\C0\00", align 1
@alloc_d1084648e479974e70c9329824bf76f9 = private unnamed_addr constant [9 x i8] c"mid > len", align 1
@alloc_5c8c5330792b76d76bc036d6b9372d18 = private unnamed_addr constant [8 x i8] c"CLICOLOR", align 1
@alloc_9e8821ebf06809bdf585485e81a043ea = private unnamed_addr constant [8 x i8] c"NO_COLOR", align 1
@alloc_787344c135fb1ca228327e24d16f41dc = private unnamed_addr constant [14 x i8] c"CLICOLOR_FORCE", align 1
@alloc_bbef72ec6bd2c39a4634049fde9777fa = private unnamed_addr constant [9 x i8] c"COLORTERM", align 1
@alloc_cdf72cddbb0732970bcaed945c3659d6 = private unnamed_addr constant [9 x i8] c"truecolor", align 1
@alloc_9f65f0464c50f7cf20dc7fee3e0aa30d = private unnamed_addr constant [5 x i8] c"24bit", align 1
@_RNvNtCshDvXgAkadjA_7colored5style5CLEAR = local_unnamed_addr constant [1 x i8] zeroinitializer, align 1
@_RNvNtCshDvXgAkadjA_7colored5style6STYLES = internal unnamed_addr constant [16 x i8] c"\01\01@\02\02\03\04\04\08\05\10\06 \07\80\08", align 1
@_RNvNtCshDvXgAkadjA_7colored7control15SHOULD_COLORIZE = local_unnamed_addr constant <{}> zeroinitializer, align 1
@_RNvNvNvXs0_NtCshDvXgAkadjA_7colored7controlNtB9_15SHOULD_COLORIZENtNtNtCsjMrxcFdYDNN_4core3ops5deref5Deref5deref11___stability4LAZY = internal global <{ [8 x i8], [8 x i8] }> <{ [8 x i8] c"\03\00\00\00\00\00\00\00", [8 x i8] undef }>, align 8
@alloc_e36cf5c61229a2652ef4721c060d2d1b = private unnamed_addr constant [109 x i8] c"/Users/hongyaotang/.cargo/registry/src/index.crates.io-1949cf8c6b5b557f/lazy_static-1.5.0/src/inline_lazy.rs\00", align 1
@alloc_4cc74d07071177400f0958be48db382c = private unnamed_addr constant <{ ptr, [16 x i8] }> <{ ptr @alloc_e36cf5c61229a2652ef4721c060d2d1b, [16 x i8] c"l\00\00\00\00\00\00\00\1E\00\00\00\10\00\00\00" }>, align 8
@alloc_f46351429e0b545e52edab17c91e045b = private unnamed_addr constant [5 x i8] c"black", align 1
@alloc_940496d3cd18caebe90765385b962abe = private unnamed_addr constant [3 x i8] c"red", align 1
@alloc_b8ebeef8965b067fea87e4e40f7a2696 = private unnamed_addr constant [5 x i8] c"green", align 1
@alloc_761ec3f22b4eea6465689eb413e86232 = private unnamed_addr constant [6 x i8] c"yellow", align 1
@alloc_d11e62a55d3bc6b15beecd4f0707fbb1 = private unnamed_addr constant [4 x i8] c"blue", align 1
@alloc_3d9fd8ba1c29d9f6085e0294be30b396 = private unnamed_addr constant [7 x i8] c"magenta", align 1
@alloc_f98107cca013894fc55bc81ab0efc10d = private unnamed_addr constant [6 x i8] c"purple", align 1
@alloc_6fc1c32c52b5575ce6b85d0118457658 = private unnamed_addr constant [4 x i8] c"cyan", align 1
@alloc_16c9842326e8d04943b3c4e15a061707 = private unnamed_addr constant [5 x i8] c"white", align 1
@alloc_79d8d48460afb75434b7246d2beb1a78 = private unnamed_addr constant [12 x i8] c"bright black", align 1
@alloc_547f42fbb48b55aafa563ae7b4c13933 = private unnamed_addr constant [10 x i8] c"bright red", align 1
@alloc_9188f0c91b493bd3363141f30e983a9c = private unnamed_addr constant [12 x i8] c"bright green", align 1
@alloc_636cb1bc3530e7c536526ad0e8515791 = private unnamed_addr constant [13 x i8] c"bright yellow", align 1
@alloc_20a451ffaa0cff2424aad5f5a90c4ab9 = private unnamed_addr constant [11 x i8] c"bright blue", align 1
@alloc_f4a4168b7f6a17d04b115608c34abe7e = private unnamed_addr constant [14 x i8] c"bright magenta", align 1
@alloc_06952700c0346790dbf96ba0b62ae842 = private unnamed_addr constant [11 x i8] c"bright cyan", align 1
@alloc_00f3c0d15c4d4a7d99148aeb65910835 = private unnamed_addr constant [12 x i8] c"bright white", align 1
@alloc_ddf315e752b80f8088cd6407f4389819 = private unnamed_addr constant [5 x i8] c"Black", align 1
@alloc_f68f945f4b0d5582669e4f82589ddb09 = private unnamed_addr constant [3 x i8] c"Red", align 1
@alloc_c2c110312de72f05b4f6b2dd5161b81c = private unnamed_addr constant [5 x i8] c"Green", align 1
@alloc_8388bfec82f3b9ba106af1d8c48a2db8 = private unnamed_addr constant [6 x i8] c"Yellow", align 1
@alloc_9dd73c20dc576e7c6b01311c1d3cd76d = private unnamed_addr constant [4 x i8] c"Blue", align 1
@alloc_07a85c1159ba117944d89308bf4df78a = private unnamed_addr constant [7 x i8] c"Magenta", align 1
@alloc_cc3cb9a6c8d0118d4bbde34e38e67ea1 = private unnamed_addr constant [4 x i8] c"Cyan", align 1
@alloc_3dad2e62669cf0977cdfdec37b9fd585 = private unnamed_addr constant [5 x i8] c"White", align 1
@alloc_c91ad1bd64e5d054b5b8fd80f6de5789 = private unnamed_addr constant [11 x i8] c"BrightBlack", align 1
@alloc_621e84d2759b3a0e5aaa072d601a0d17 = private unnamed_addr constant [9 x i8] c"BrightRed", align 1
@alloc_1864b197697ba78c5a92797b527c36fe = private unnamed_addr constant [11 x i8] c"BrightGreen", align 1
@alloc_2dac082cd6141126e9c3ef06d0bb5b4f = private unnamed_addr constant [12 x i8] c"BrightYellow", align 1
@alloc_de4f16fb276f7d055189a08bbee61d55 = private unnamed_addr constant [10 x i8] c"BrightBlue", align 1
@alloc_8ce60633285b89aa49b8d7e1adbc3167 = private unnamed_addr constant [13 x i8] c"BrightMagenta", align 1
@alloc_3d7b7303c7d9774c5154366adfaa95b4 = private unnamed_addr constant [10 x i8] c"BrightCyan", align 1
@alloc_171eb4a1dd7a734601909a4629207303 = private unnamed_addr constant [11 x i8] c"BrightWhite", align 1
@vtable.1 = private unnamed_addr constant <{ [24 x i8], ptr }> <{ [24 x i8] c"\00\00\00\00\00\00\00\00\01\00\00\00\00\00\00\00\01\00\00\00\00\00\00\00", ptr @_RNvXsU_NtNtCsjMrxcFdYDNN_4core3fmt3numhNtB7_5Debug3fmt }>, align 8
@vtable.2 = private unnamed_addr constant <{ [24 x i8], ptr }> <{ [24 x i8] c"\00\00\00\00\00\00\00\00\08\00\00\00\00\00\00\00\08\00\00\00\00\00\00\00", ptr @_RNvXs1g_NtCsjMrxcFdYDNN_4core3fmtRhNtB6_5Debug3fmtCshDvXgAkadjA_7colored }>, align 8
@alloc_d018cf32ce500d39c2524eab9862e5b1 = private unnamed_addr constant [9 x i8] c"TrueColor", align 1
@alloc_c7ca2384edadb766999f3f810e9a1faa = private unnamed_addr constant [1 x i8] c"r", align 1
@alloc_94b0c3be2372b2b991b6eabed868154d = private unnamed_addr constant [1 x i8] c"g", align 1
@alloc_ab7766fee1e1b94f8c00ce7ffec41c7e = private unnamed_addr constant [1 x i8] c"b", align 1
@alloc_fe60d4b57800eede14ae677ac49542af = private unnamed_addr constant <{ ptr, [16 x i8], ptr }> <{ ptr @_RINvNtCsjMrxcFdYDNN_4core3ptr13drop_in_placeNtNtCshDvXgAkadjA_7colored5error18ColoredStringErrorEBK_, [16 x i8] c"(\00\00\00\00\00\00\00\08\00\00\00\00\00\00\00", ptr @_RNvXs0_NtCshDvXgAkadjA_7colored5errorNtB5_18ColoredStringErrorNtNtCsjMrxcFdYDNN_4core3fmt5Debug3fmt }>, align 8
@vtable.3 = private unnamed_addr constant <{ ptr, [16 x i8], ptr, ptr, ptr, ptr, ptr, ptr, ptr, ptr }> <{ ptr @_RINvNtCsjMrxcFdYDNN_4core3ptr13drop_in_placeNtNtCshDvXgAkadjA_7colored5error18ColoredStringErrorEBK_, [16 x i8] c"(\00\00\00\00\00\00\00\08\00\00\00\00\00\00\00", ptr @_RNvXs0_NtCshDvXgAkadjA_7colored5errorNtB5_18ColoredStringErrorNtNtCsjMrxcFdYDNN_4core3fmt5Debug3fmt, ptr @_RNvXs0_NtCshDvXgAkadjA_7colored5errorNtB5_18ColoredStringErrorNtNtCsjMrxcFdYDNN_4core3fmt5Debug3fmt, ptr @alloc_fe60d4b57800eede14ae677ac49542af, ptr @_RNvYNtNtCshDvXgAkadjA_7colored5error18ColoredStringErrorNtNtCsjMrxcFdYDNN_4core5error5Error5causeB6_, ptr @_RNvYNtNtCshDvXgAkadjA_7colored5error18ColoredStringErrorNtNtCsjMrxcFdYDNN_4core5error5Error7type_idB6_, ptr @_RNvYNtNtCshDvXgAkadjA_7colored5error18ColoredStringErrorNtNtCsjMrxcFdYDNN_4core5error5Error11descriptionB6_, ptr @_RNvYNtNtCshDvXgAkadjA_7colored5error18ColoredStringErrorNtNtCsjMrxcFdYDNN_4core5error5Error5causeB6_, ptr @_RNvYNtNtCshDvXgAkadjA_7colored5error18ColoredStringErrorNtNtCsjMrxcFdYDNN_4core5error5Error7provideB6_ }>, align 8
@alloc_559c4f386b668c946885822cef1a587d = private unnamed_addr constant <{ ptr, [16 x i8] }> <{ ptr @alloc_7fe94be2e120ffbd80c490b1b3c481ee, [16 x i8] c"w\00\00\00\00\00\00\00h\04\00\00$\00\00\00" }>, align 8
@alloc_04d7ce44d7c86a9a02b346ab945bf155 = private unnamed_addr constant [40 x i8] c"description() is deprecated; use Display", align 1
@anon.ab24f484cdb0ff97b65c9c62695ee6c3.0 = private unnamed_addr constant <{ ptr, ptr }> <{ ptr inttoptr (i64 1420762068351203660 to ptr), ptr inttoptr (i64 934645527684415447 to ptr) }>, align 8

@_RNvXs_NtCshDvXgAkadjA_7colored5errorNtB4_18ColoredStringErrorNtNtCsjMrxcFdYDNN_4core3fmt7Display3fmt = unnamed_addr alias i1 (ptr, ptr), ptr @_RNvXs0_NtCshDvXgAkadjA_7colored5errorNtB5_18ColoredStringErrorNtNtCsjMrxcFdYDNN_4core3fmt5Debug3fmt
@_RNvXs4_CshDvXgAkadjA_7coloredReNtB5_8Colorize5clear = unnamed_addr alias void (ptr, ptr, i64), ptr @_RNvXs2_CshDvXgAkadjA_7coloredNtB5_13ColoredStringINtNtCsjMrxcFdYDNN_4core7convert4FromReE4from

; <core::str::pattern::TwoWaySearcher>::next::<core::str::pattern::MatchOnly>
; Function Attrs: inlinehint uwtable
define internal fastcc void @_RINvMsx_NtNtCsjMrxcFdYDNN_4core3str7patternNtB6_14TwoWaySearcher4nextNtB6_9MatchOnlyECshDvXgAkadjA_7colored(ptr dead_on_unwind noalias noundef nonnull writable writeonly align 8 captures(none) dereferenceable(24) %_0, ptr noalias noundef nonnull align 8 captures(none) dereferenceable(64) %self, ptr noalias noundef nonnull readonly align 1 captures(none) %haystack.0, i64 noundef range(i64 0, -9223372036854775808) %haystack.1, ptr noalias noundef nonnull readonly align 1 captures(none) %needle.0, i64 noundef range(i64 0, -9223372036854775808) %needle.1, i1 noundef zeroext %long_period) unnamed_addr #0 personality ptr @rust_eh_personality {
start:
  %0 = getelementptr inbounds nuw i8, ptr %self, i64 32
  %needle_last = add nsw i64 %needle.1, -1
  %.promoted = load i64, ptr %0, align 8
  %index24 = add i64 %needle_last, %.promoted
  %_5325 = icmp ult i64 %index24, %haystack.1
  br i1 %_5325, label %bb39.lr.ph, label %bb40

bb39.lr.ph:                                       ; preds = %start
  %1 = getelementptr inbounds nuw i8, ptr %self, i64 24
  %_58 = load i64, ptr %1, align 8, !noundef !2
  %v1 = load i64, ptr %self, align 8
  %2 = getelementptr inbounds nuw i8, ptr %self, i64 48
  %3 = getelementptr inbounds nuw i8, ptr %self, i64 16
  %_48 = load i64, ptr %3, align 8
  %4 = sub i64 %needle.1, %_48
  %.promoted27 = load i64, ptr %2, align 8
  br label %bb39

bb40:                                             ; preds = %bb37, %start
  store i64 %haystack.1, ptr %0, align 8
  br label %bb38

bb39:                                             ; preds = %bb39.lr.ph, %bb37
  %v229 = phi i64 [ %.promoted27, %bb39.lr.ph ], [ %v228, %bb37 ]
  %index26 = phi i64 [ %index24, %bb39.lr.ph ], [ %index, %bb37 ]
  %5 = phi i64 [ %.promoted, %bb39.lr.ph ], [ %10, %bb37 ]
  %_55 = getelementptr inbounds nuw i8, ptr %haystack.0, i64 %index26
  %tail_byte = load i8, ptr %_55, align 1, !noundef !2
  %_60 = and i8 %tail_byte, 63
  %_59 = zext nneg i8 %_60 to i64
  %6 = shl nuw i64 1, %_59
  %7 = and i64 %6, %_58
  %8 = icmp eq i64 %7, 0
  br i1 %8, label %bb10, label %bb9

bb38:                                             ; preds = %bb34, %bb40
  %storemerge = phi i64 [ 0, %bb40 ], [ 1, %bb34 ]
  store i64 %storemerge, ptr %_0, align 8
  ret void

bb10:                                             ; preds = %bb39
  %9 = add i64 %5, %needle.1
  store i64 %9, ptr %0, align 8
  br i1 %long_period, label %bb37, label %bb37.sink.split

bb9:                                              ; preds = %bb39
  %_0.sroa.0.0.i = tail call i64 @llvm.umax.i64(i64 %v229, i64 %v1)
  %start1.sroa.0.0 = select i1 %long_period, i64 %v1, i64 %_0.sroa.0.0.i
  %umax40 = tail call i64 @llvm.umax.i64(i64 %start1.sroa.0.0, i64 %needle.1)
  br label %bb16

bb37.sink.split:                                  ; preds = %bb10, %bb19, %bb29
  %.sink = phi i64 [ %4, %bb29 ], [ 0, %bb19 ], [ 0, %bb10 ]
  %.ph = phi i64 [ %16, %bb29 ], [ %20, %bb19 ], [ %9, %bb10 ]
  store i64 %.sink, ptr %2, align 8
  br label %bb37

bb37:                                             ; preds = %bb37.sink.split, %bb19, %bb29, %bb10
  %v228 = phi i64 [ %v229, %bb19 ], [ %v229, %bb29 ], [ %v229, %bb10 ], [ %.sink, %bb37.sink.split ]
  %10 = phi i64 [ %20, %bb19 ], [ %16, %bb29 ], [ %9, %bb10 ], [ %.ph, %bb37.sink.split ]
  %index = add i64 %needle_last, %10
  %_53 = icmp ult i64 %index, %haystack.1
  br i1 %_53, label %bb39, label %bb40

bb16:                                             ; preds = %bb18, %bb9
  %iter.sroa.0.0 = phi i64 [ %start1.sroa.0.0, %bb9 ], [ %_65, %bb18 ]
  %exitcond.not = icmp eq i64 %iter.sroa.0.0, %umax40
  br i1 %exitcond.not, label %bb43, label %bb42

bb43:                                             ; preds = %bb16
  %start2.sroa.0.0 = select i1 %long_period, i64 0, i64 %v229
  br label %bb26

bb42:                                             ; preds = %bb16
  %_28 = add i64 %iter.sroa.0.0, %5
  %_30 = icmp ult i64 %_28, %haystack.1
  br i1 %_30, label %bb18, label %panic8

bb26:                                             ; preds = %bb28, %bb43
  %iter3.sroa.2.0 = phi i64 [ %v1, %bb43 ], [ %_73, %bb28 ]
  %_70 = icmp ult i64 %start2.sroa.0.0, %iter3.sroa.2.0
  br i1 %_70, label %bb46, label %bb47

bb47:                                             ; preds = %bb26
  %11 = add i64 %5, %needle.1
  store i64 %11, ptr %0, align 8
  br i1 %long_period, label %bb34, label %bb33

bb46:                                             ; preds = %bb26
  %_73 = add i64 %iter3.sroa.2.0, -1
  %_43 = icmp ult i64 %_73, %needle.1
  br i1 %_43, label %bb27, label %panic

bb33:                                             ; preds = %bb47
  store i64 0, ptr %2, align 8
  br label %bb34

bb34:                                             ; preds = %bb33, %bb47
  %12 = getelementptr inbounds nuw i8, ptr %_0, i64 8
  store i64 %5, ptr %12, align 8, !alias.scope !3
  %13 = getelementptr inbounds nuw i8, ptr %_0, i64 16
  store i64 %11, ptr %13, align 8, !alias.scope !3
  br label %bb38

bb27:                                             ; preds = %bb46
  %_45 = add i64 %_73, %5
  %_47 = icmp ult i64 %_45, %haystack.1
  br i1 %_47, label %bb28, label %panic5

panic:                                            ; preds = %bb46
; call core::panicking::panic_bounds_check
  tail call void @_RNvNtCsjMrxcFdYDNN_4core9panicking18panic_bounds_check(i64 noundef %_73, i64 noundef %needle.1, ptr noalias noundef readonly align 8 captures(address, read_provenance) dereferenceable(24) @alloc_3c3a438693b52af6c6b31c2cc77620da) #22
  unreachable

bb28:                                             ; preds = %bb27
  %14 = getelementptr inbounds nuw i8, ptr %needle.0, i64 %_73
  %_42 = load i8, ptr %14, align 1, !noundef !2
  %15 = getelementptr inbounds nuw i8, ptr %haystack.0, i64 %_45
  %_44 = load i8, ptr %15, align 1, !noundef !2
  %_41.not = icmp eq i8 %_42, %_44
  br i1 %_41.not, label %bb26, label %bb29

panic5:                                           ; preds = %bb27
; call core::panicking::panic_bounds_check
  tail call void @_RNvNtCsjMrxcFdYDNN_4core9panicking18panic_bounds_check(i64 noundef %_45, i64 noundef %haystack.1, ptr noalias noundef readonly align 8 captures(address, read_provenance) dereferenceable(24) @alloc_759b6db6182a2ae5f8169b55f322d553) #22
  unreachable

bb29:                                             ; preds = %bb28
  %16 = add i64 %_48, %5
  store i64 %16, ptr %0, align 8
  br i1 %long_period, label %bb37, label %bb37.sink.split

bb18:                                             ; preds = %bb42
  %_65 = add i64 %iter.sroa.0.0, 1
  %17 = getelementptr inbounds nuw i8, ptr %needle.0, i64 %iter.sroa.0.0
  %_25 = load i8, ptr %17, align 1, !noundef !2
  %18 = getelementptr inbounds nuw i8, ptr %haystack.0, i64 %_28
  %_27 = load i8, ptr %18, align 1, !noundef !2
  %_24.not = icmp eq i8 %_25, %_27
  br i1 %_24.not, label %bb16, label %bb19

panic8:                                           ; preds = %bb42
  %19 = add i64 %start1.sroa.0.0, %5
  %umax = tail call i64 @llvm.umax.i64(i64 %haystack.1, i64 %19)
; call core::panicking::panic_bounds_check
  tail call void @_RNvNtCsjMrxcFdYDNN_4core9panicking18panic_bounds_check(i64 noundef %umax, i64 noundef %haystack.1, ptr noalias noundef readonly align 8 captures(address, read_provenance) dereferenceable(24) @alloc_cfc145f12794171662ae0bd5e97799ce) #22
  unreachable

bb19:                                             ; preds = %bb18
  %_32 = add i64 %5, 1
  %_31 = add i64 %_32, %iter.sroa.0.0
  %20 = sub i64 %_31, %v1
  store i64 %20, ptr %0, align 8
  br i1 %long_period, label %bb37, label %bb37.sink.split
}

; core::ptr::drop_in_place::<core::result::Result<alloc::string::String, std::env::VarError>>
; Function Attrs: nounwind uwtable
define internal fastcc void @_RINvNtCsjMrxcFdYDNN_4core3ptr13drop_in_placeINtNtB4_6result6ResultNtNtCsdJPVW0sQgAG_5alloc6string6StringNtNtCs5sEH5CPMdak_3std3env8VarErrorEECshDvXgAkadjA_7colored(ptr noalias noundef nonnull readonly align 8 captures(none) dereferenceable(32) %_1) unnamed_addr #1 personality ptr @rust_eh_personality {
start:
  %_2 = load i64, ptr %_1, align 8, !range !6, !noundef !2
  %0 = icmp eq i64 %_2, 0
  %1 = getelementptr inbounds nuw i8, ptr %_1, i64 8
  %.val = load i64, ptr %1, align 8
  br i1 %0, label %bb2, label %bb3

bb2:                                              ; preds = %start
  %2 = icmp eq i64 %.val, 0
  br i1 %2, label %bb1, label %bb1.sink.split

bb3:                                              ; preds = %start
  switch i64 %.val, label %bb1.sink.split [
    i64 -9223372036854775808, label %bb1
    i64 0, label %bb1
  ]

bb1.sink.split:                                   ; preds = %bb3, %bb2
  %3 = getelementptr inbounds nuw i8, ptr %_1, i64 16
  %.val3 = load ptr, ptr %3, align 8, !nonnull !2, !noundef !2
; call __rustc::__rust_dealloc
  tail call void @_RNvCsKhRCbHf33p_7___rustc14___rust_dealloc(ptr noundef nonnull %.val3, i64 noundef %.val, i64 noundef range(i64 1, -9223372036854775807) 1) #23
  br label %bb1

bb1:                                              ; preds = %bb1.sink.split, %bb3, %bb3, %bb2
  ret void
}

; core::ptr::drop_in_place::<colored::error::ColoredStringError>
; Function Attrs: nounwind uwtable
define internal void @_RINvNtCsjMrxcFdYDNN_4core3ptr13drop_in_placeNtNtCshDvXgAkadjA_7colored5error18ColoredStringErrorEBK_(ptr noalias noundef readonly align 8 captures(none) dereferenceable(40) %_1) unnamed_addr #1 personality ptr @rust_eh_personality {
start:
  %_1.val = load i64, ptr %_1, align 8
  %0 = icmp eq i64 %_1.val, 0
  br i1 %0, label %_RINvNtCsjMrxcFdYDNN_4core3ptr13drop_in_placeNtCshDvXgAkadjA_7colored13ColoredStringEBI_.exit, label %bb2.i.i.i4.i.i.i

bb2.i.i.i4.i.i.i:                                 ; preds = %start
  %1 = getelementptr inbounds nuw i8, ptr %_1, i64 8
  %_1.val1 = load ptr, ptr %1, align 8, !nonnull !2, !noundef !2
; call __rustc::__rust_dealloc
  tail call void @_RNvCsKhRCbHf33p_7___rustc14___rust_dealloc(ptr noundef nonnull %_1.val1, i64 noundef %_1.val, i64 noundef range(i64 1, -9223372036854775807) 1) #23
  br label %_RINvNtCsjMrxcFdYDNN_4core3ptr13drop_in_placeNtCshDvXgAkadjA_7colored13ColoredStringEBI_.exit

_RINvNtCsjMrxcFdYDNN_4core3ptr13drop_in_placeNtCshDvXgAkadjA_7colored13ColoredStringEBI_.exit: ; preds = %start, %bb2.i.i.i4.i.i.i
  ret void
}

; <alloc::raw_vec::RawVecInner<_>>::reserve::do_reserve_and_handle::<alloc::alloc::Global>
; Function Attrs: cold uwtable
define internal fastcc void @_RINvNvMs2_NtCsdJPVW0sQgAG_5alloc7raw_vecINtB8_11RawVecInnerpE7reserve21do_reserve_and_handleNtNtBa_5alloc6GlobalECshDvXgAkadjA_7colored(ptr noalias noundef nonnull align 8 captures(none) dereferenceable(16) %slf, i64 noundef %len, i64 noundef %additional, i64 noundef range(i64 1, 9) %elem_layout.0, i64 noundef range(i64 1, 17) %elem_layout.1) unnamed_addr #2 personality ptr @rust_eh_personality {
start:
  %self3.i = alloca [24 x i8], align 8
  tail call void @llvm.experimental.noalias.scope.decl(metadata !7)
  %_25.0.i = add i64 %additional, %len
  %_25.1.i = icmp ult i64 %_25.0.i, %len
  br i1 %_25.1.i, label %bb2, label %bb9.i

bb9.i:                                            ; preds = %start
  %self5.i = load i64, ptr %slf, align 8, !range !10, !alias.scope !7, !noundef !2
  %v16.i = shl nuw i64 %self5.i, 1
  %_0.sroa.0.0.i.i = tail call noundef i64 @llvm.umax.i64(i64 %_25.0.i, i64 %v16.i)
  %0 = icmp eq i64 %elem_layout.1, 1
  %v1.sroa.0.0.i = select i1 %0, i64 8, i64 4
  %_0.sroa.0.0.i16.i = tail call noundef i64 @llvm.umax.i64(i64 %_0.sroa.0.0.i.i, i64 %v1.sroa.0.0.i)
  call void @llvm.lifetime.start.p0(i64 24, ptr nonnull %self3.i), !noalias !7
  %1 = getelementptr inbounds nuw i8, ptr %slf, i64 8
  %self.val15.i = load ptr, ptr %1, align 8, !alias.scope !7
; call <alloc::raw_vec::RawVecInner>::finish_grow
  call fastcc void @_RNvMs4_NtCsdJPVW0sQgAG_5alloc7raw_vecNtB5_11RawVecInner11finish_growCshDvXgAkadjA_7colored(ptr noalias noundef align 8 captures(none) dereferenceable(24) %self3.i, i64 %self5.i, ptr %self.val15.i, i64 noundef %_0.sroa.0.0.i16.i, i64 noundef range(i64 1, 9) %elem_layout.0, i64 noundef range(i64 1, 17) %elem_layout.1), !noalias !7
  %_35.i = load i64, ptr %self3.i, align 8, !range !6, !noalias !7, !noundef !2
  %2 = trunc nuw i64 %_35.i to i1
  %3 = getelementptr inbounds nuw i8, ptr %self3.i, i64 8
  br i1 %2, label %bb18.i, label %bb3

bb18.i:                                           ; preds = %bb9.i
  %e.0.i = load i64, ptr %3, align 8, !range !11, !noalias !7, !noundef !2
  %4 = getelementptr inbounds nuw i8, ptr %self3.i, i64 16
  %e.1.i = load i64, ptr %4, align 8, !noalias !7
  call void @llvm.lifetime.end.p0(i64 24, ptr nonnull %self3.i), !noalias !7
  br label %bb2

bb2:                                              ; preds = %bb18.i, %start
  %_0.sroa.5.0.i.ph = phi i64 [ undef, %start ], [ %e.1.i, %bb18.i ]
  %_0.sroa.0.0.i.ph = phi i64 [ 0, %start ], [ %e.0.i, %bb18.i ]
; call alloc::raw_vec::handle_error
  tail call void @_RNvNtCsdJPVW0sQgAG_5alloc7raw_vec12handle_error(i64 noundef %_0.sroa.0.0.i.ph, i64 %_0.sroa.5.0.i.ph) #24
  unreachable

bb3:                                              ; preds = %bb9.i
  %v.0.i = load ptr, ptr %3, align 8, !noalias !7, !nonnull !2, !noundef !2
  call void @llvm.lifetime.end.p0(i64 24, ptr nonnull %self3.i), !noalias !7
  store ptr %v.0.i, ptr %1, align 8, !alias.scope !7
  %5 = icmp sgt i64 %_0.sroa.0.0.i16.i, -1
  tail call void @llvm.assume(i1 %5)
  store i64 %_0.sroa.0.0.i16.i, ptr %slf, align 8, !alias.scope !7
  ret void
}

; <std::sync::once::Once>::call_once::<<lazy_static::lazy::Lazy<colored::control::ShouldColorize>>::get<<colored::control::SHOULD_COLORIZE as core::ops::deref::Deref>::deref::__static_ref_initialize>::{closure#0}>::{closure#0}
; Function Attrs: inlinehint uwtable
define internal void @_RNCINvMs0_NtNtCs5sEH5CPMdak_3std4sync4onceNtB8_4Once9call_onceNCINvMNtCs3hqUhmJYu5V_11lazy_static4lazyINtB14_4LazyNtNtCshDvXgAkadjA_7colored7control14ShouldColorizeE3getNvNvXs0_B1Q_NtB1Q_15SHOULD_COLORIZENtNtNtCsjMrxcFdYDNN_4core3ops5deref5Deref5deref23___static_ref_initializeE0E0B1S_(ptr noalias noundef readonly align 8 captures(none) dereferenceable(8) %_1, ptr nonnull readnone align 8 captures(none) %_2) unnamed_addr #0 {
start:
  %self1 = load ptr, ptr %_1, align 8, !nonnull !2, !align !12, !noundef !2
  %0 = load ptr, ptr %self1, align 8, !align !12, !noundef !2
  store ptr null, ptr %self1, align 8
  %.not = icmp eq ptr %0, null
  br i1 %.not, label %bb3, label %bb4, !prof !13

bb4:                                              ; preds = %start
  %.val = load ptr, ptr %0, align 8, !nonnull !2, !align !12, !noundef !2
; call <colored::control::ShouldColorize>::from_env
  %1 = tail call range(i32 0, 514) i32 @_RNvMs_NtCshDvXgAkadjA_7colored7controlNtB4_14ShouldColorize8from_env()
  %_10.i = getelementptr inbounds nuw i8, ptr %.val, i64 8
  store i32 %1, ptr %_10.i, align 8
  ret void

bb3:                                              ; preds = %start
; call core::option::unwrap_failed
  tail call void @_RNvNtCsjMrxcFdYDNN_4core6option13unwrap_failed(ptr noalias noundef readonly align 8 captures(address, read_provenance) dereferenceable(24) @alloc_3129176114b12752e73d3989241bb5f0) #22
  unreachable
}

; <<std::sync::once::Once>::call_once<<lazy_static::lazy::Lazy<colored::control::ShouldColorize>>::get<<colored::control::SHOULD_COLORIZE as core::ops::deref::Deref>::deref::__static_ref_initialize>::{closure#0}>::{closure#0} as core::ops::function::FnOnce<(&std::sync::once::OnceState,)>>::call_once::{shim:vtable#0}
; Function Attrs: inlinehint uwtable
define internal void @_RNSNvYNCINvMs0_NtNtCs5sEH5CPMdak_3std4sync4onceNtBd_4Once9call_onceNCINvMNtCs3hqUhmJYu5V_11lazy_static4lazyINtB19_4LazyNtNtCshDvXgAkadjA_7colored7control14ShouldColorizeE3getNvNvXs0_B1V_NtB1V_15SHOULD_COLORIZENtNtNtCsjMrxcFdYDNN_4core3ops5deref5Deref5deref23___static_ref_initializeE0E0INtNtB3p_8function6FnOnceTRNtBd_9OnceStateEE9call_once6vtableB1X_(ptr noundef readonly captures(none) %_1, ptr nonnull readnone align 8 captures(none) %0) unnamed_addr #0 personality ptr @rust_eh_personality {
start:
  %1 = load ptr, ptr %_1, align 8, !nonnull !2, !align !12, !noundef !2
  tail call void @llvm.experimental.noalias.scope.decl(metadata !14)
  %2 = load ptr, ptr %1, align 8, !alias.scope !14, !noalias !17, !align !12, !noundef !2
  store ptr null, ptr %1, align 8, !alias.scope !14, !noalias !17
  %.not.i.i = icmp eq ptr %2, null
  br i1 %.not.i.i, label %bb3.i.i, label %_RNvYNCINvMs0_NtNtCs5sEH5CPMdak_3std4sync4onceNtBb_4Once9call_onceNCINvMNtCs3hqUhmJYu5V_11lazy_static4lazyINtB17_4LazyNtNtCshDvXgAkadjA_7colored7control14ShouldColorizeE3getNvNvXs0_B1T_NtB1T_15SHOULD_COLORIZENtNtNtCsjMrxcFdYDNN_4core3ops5deref5Deref5deref23___static_ref_initializeE0E0INtNtB3n_8function6FnOnceTRNtBb_9OnceStateEE9call_onceB1V_.exit, !prof !13

bb3.i.i:                                          ; preds = %start
; call core::option::unwrap_failed
  tail call void @_RNvNtCsjMrxcFdYDNN_4core6option13unwrap_failed(ptr noalias noundef readonly align 8 captures(address, read_provenance) dereferenceable(24) @alloc_3129176114b12752e73d3989241bb5f0) #22, !noalias !20
  unreachable

_RNvYNCINvMs0_NtNtCs5sEH5CPMdak_3std4sync4onceNtBb_4Once9call_onceNCINvMNtCs3hqUhmJYu5V_11lazy_static4lazyINtB17_4LazyNtNtCshDvXgAkadjA_7colored7control14ShouldColorizeE3getNvNvXs0_B1T_NtB1T_15SHOULD_COLORIZENtNtNtCsjMrxcFdYDNN_4core3ops5deref5Deref5deref23___static_ref_initializeE0E0INtNtB3n_8function6FnOnceTRNtBb_9OnceStateEE9call_onceB1V_.exit: ; preds = %start
  %.val.i.i = load ptr, ptr %2, align 8, !noalias !20, !nonnull !2, !align !12, !noundef !2
; call <colored::control::ShouldColorize>::from_env
  %3 = tail call range(i32 0, 514) i32 @_RNvMs_NtCshDvXgAkadjA_7colored7controlNtB4_14ShouldColorize8from_env(), !noalias !20
  %_10.i.i.i = getelementptr inbounds nuw i8, ptr %.val.i.i, i64 8
  store i32 %3, ptr %_10.i.i.i, align 8, !noalias !20
  ret void
}

; <colored::ColoredString>::compute_style
; Function Attrs: uwtable
define internal fastcc void @_RNvMCshDvXgAkadjA_7coloredNtB2_13ColoredString13compute_style(ptr dead_on_unwind noalias noundef nonnull writable writeonly align 8 captures(none) dereferenceable(24) %_0, ptr noalias noundef nonnull readonly align 8 captures(none) dereferenceable(40) %self) unnamed_addr #3 personality ptr @rust_eh_personality {
start:
  %result.i.i = alloca [24 x i8], align 8
  %vector.i.i.i = alloca [24 x i8], align 8
  %_11.i.i.i = alloca [8 x i8], align 8
  %f1.i.i.i = alloca [8 x i8], align 8
  %_2.i.i = alloca [8 x i8], align 8
  %_21 = alloca [24 x i8], align 8
  %_15 = alloca [24 x i8], align 8
  %res = alloca [24 x i8], align 8
  call void @llvm.lifetime.start.p0(i64 8, ptr nonnull %_2.i.i)
  store ptr @_RNvNvNvXs0_NtCshDvXgAkadjA_7colored7controlNtB9_15SHOULD_COLORIZENtNtNtCsjMrxcFdYDNN_4core3ops5deref5Deref5deref11___stability4LAZY, ptr %_2.i.i, align 8
  %0 = load atomic ptr, ptr @_RNvNvNvXs0_NtCshDvXgAkadjA_7colored7controlNtB9_15SHOULD_COLORIZENtNtNtCsjMrxcFdYDNN_4core3ops5deref5Deref5deref11___stability4LAZY acquire, align 8, !noalias !21
  %_3.i.i.i = icmp eq ptr %0, null
  br i1 %_3.i.i.i, label %_RNvXs0_NtCshDvXgAkadjA_7colored7controlNtB5_15SHOULD_COLORIZENtNtNtCsjMrxcFdYDNN_4core3ops5deref5Deref5deref.exit.i, label %bb2.i.i.i, !prof !24

bb2.i.i.i:                                        ; preds = %start
  call void @llvm.lifetime.start.p0(i64 8, ptr nonnull %f1.i.i.i), !noalias !21
  store ptr %_2.i.i, ptr %f1.i.i.i, align 8, !noalias !21
  call void @llvm.lifetime.start.p0(i64 8, ptr nonnull %_11.i.i.i), !noalias !21
  store ptr %f1.i.i.i, ptr %_11.i.i.i, align 8, !noalias !21
; call <std::sys::sync::once::queue::Once>::call
  call void @_RNvMNtNtNtNtCs5sEH5CPMdak_3std3sys4sync4once5queueNtB2_4Once4call(ptr noundef nonnull align 8 @_RNvNvNvXs0_NtCshDvXgAkadjA_7colored7controlNtB9_15SHOULD_COLORIZENtNtNtCsjMrxcFdYDNN_4core3ops5deref5Deref5deref11___stability4LAZY, i1 noundef zeroext false, ptr noundef nonnull align 1 %_11.i.i.i, ptr noalias noundef readonly align 8 captures(address, read_provenance) dereferenceable(40) @vtable.0, ptr noalias noundef readonly align 8 captures(address, read_provenance) dereferenceable(24) @alloc_4cc74d07071177400f0958be48db382c)
  call void @llvm.lifetime.end.p0(i64 8, ptr nonnull %_11.i.i.i), !noalias !21
  call void @llvm.lifetime.end.p0(i64 8, ptr nonnull %f1.i.i.i), !noalias !21
  br label %_RNvXs0_NtCshDvXgAkadjA_7colored7controlNtB5_15SHOULD_COLORIZENtNtNtCsjMrxcFdYDNN_4core3ops5deref5Deref5deref.exit.i

_RNvXs0_NtCshDvXgAkadjA_7colored7controlNtB5_15SHOULD_COLORIZENtNtNtCsjMrxcFdYDNN_4core3ops5deref5Deref5deref.exit.i: ; preds = %bb2.i.i.i, %start
  call void @llvm.lifetime.end.p0(i64 8, ptr nonnull %_2.i.i)
  %1 = load atomic i8, ptr getelementptr inbounds nuw (i8, ptr @_RNvNvNvXs0_NtCshDvXgAkadjA_7colored7controlNtB9_15SHOULD_COLORIZENtNtNtCsjMrxcFdYDNN_4core3ops5deref5Deref5deref11___stability4LAZY, i64 10) monotonic, align 2
  %2 = icmp eq i8 %1, 0
  br i1 %2, label %bb2.i.i, label %_RNvMCshDvXgAkadjA_7coloredNtB2_13ColoredString10has_colors.exit

bb2.i.i:                                          ; preds = %_RNvXs0_NtCshDvXgAkadjA_7colored7controlNtB5_15SHOULD_COLORIZENtNtNtCsjMrxcFdYDNN_4core3ops5deref5Deref5deref.exit.i
  %3 = load i8, ptr getelementptr inbounds nuw (i8, ptr @_RNvNvNvXs0_NtCshDvXgAkadjA_7colored7controlNtB9_15SHOULD_COLORIZENtNtNtCsjMrxcFdYDNN_4core3ops5deref5Deref5deref11___stability4LAZY, i64 9), align 1, !range !25, !noundef !2
  %.not.i.i = icmp eq i8 %3, 2
  br i1 %.not.i.i, label %bb3.i.i, label %bb4.i.i

bb4.i.i:                                          ; preds = %bb2.i.i
  %extract.t.i.i = trunc nuw i8 %3 to i1
  br i1 %extract.t.i.i, label %bb2, label %bb27

bb3.i.i:                                          ; preds = %bb2.i.i
  %4 = load i8, ptr getelementptr inbounds nuw (i8, ptr @_RNvNvNvXs0_NtCshDvXgAkadjA_7colored7controlNtB9_15SHOULD_COLORIZENtNtNtCsjMrxcFdYDNN_4core3ops5deref5Deref5deref11___stability4LAZY, i64 8), align 8, !range !26, !noundef !2
  %extract.t1.i.i = trunc nuw i8 %4 to i1
  br i1 %extract.t1.i.i, label %bb2, label %bb27

_RNvMCshDvXgAkadjA_7coloredNtB2_13ColoredString10has_colors.exit: ; preds = %_RNvXs0_NtCshDvXgAkadjA_7colored7controlNtB5_15SHOULD_COLORIZENtNtNtCsjMrxcFdYDNN_4core3ops5deref5Deref5deref.exit.i
  %5 = load atomic i8, ptr getelementptr inbounds nuw (i8, ptr @_RNvNvNvXs0_NtCshDvXgAkadjA_7colored7controlNtB9_15SHOULD_COLORIZENtNtNtCsjMrxcFdYDNN_4core3ops5deref5Deref5deref11___stability4LAZY, i64 11) monotonic, align 1
  %.not109 = icmp eq i8 %5, 0
  br i1 %.not109, label %bb27, label %bb2

bb27:                                             ; preds = %bb3.i.i, %bb4.i.i, %bb24, %_RNvMCshDvXgAkadjA_7coloredNtB2_13ColoredString10has_colors.exit
  store i64 0, ptr %_0, align 8
  %_31.sroa.4.0._0.sroa_idx = getelementptr inbounds nuw i8, ptr %_0, i64 8
  store ptr inttoptr (i64 1 to ptr), ptr %_31.sroa.4.0._0.sroa_idx, align 8
  %_31.sroa.5.0._0.sroa_idx = getelementptr inbounds nuw i8, ptr %_0, i64 16
  store i64 0, ptr %_31.sroa.5.0._0.sroa_idx, align 8
  br label %bb18

bb2:                                              ; preds = %bb3.i.i, %bb4.i.i, %_RNvMCshDvXgAkadjA_7coloredNtB2_13ColoredString10has_colors.exit
  %6 = getelementptr inbounds nuw i8, ptr %self, i64 28
  %7 = load i8, ptr %6, align 4, !range !27, !noundef !2
  %.not = icmp eq i8 %7, 17
  br i1 %.not, label %bb24, label %bb3

bb24:                                             ; preds = %bb2
  %8 = getelementptr inbounds nuw i8, ptr %self, i64 24
  %9 = load i8, ptr %8, align 8, !range !27, !noundef !2
  %.not9 = icmp eq i8 %9, 17
  %10 = getelementptr inbounds nuw i8, ptr %self, i64 32
  %_30 = load i8, ptr %10, align 8
  %_3 = icmp eq i8 %_30, 0
  %or.cond = select i1 %.not9, i1 %_3, i1 false
  br i1 %or.cond, label %bb27, label %bb3

bb3:                                              ; preds = %bb2, %bb24
  call void @llvm.lifetime.start.p0(i64 24, ptr nonnull %res)
; call __rustc::__rust_no_alloc_shim_is_unstable_v2
  call void @_RNvCsKhRCbHf33p_7___rustc35___rust_no_alloc_shim_is_unstable_v2() #23, !noalias !28
; call __rustc::__rust_alloc
  %11 = call noundef dereferenceable_or_null(2) ptr @_RNvCsKhRCbHf33p_7___rustc12___rust_alloc(i64 noundef 2, i64 noundef range(i64 1, -9223372036854775807) 1) #23, !noalias !28
  %12 = icmp eq ptr %11, null
  br i1 %12, label %bb30, label %bb31

bb30:                                             ; preds = %bb3
; call alloc::raw_vec::handle_error
  call void @_RNvNtCsdJPVW0sQgAG_5alloc7raw_vec12handle_error(i64 noundef 1, i64 2) #24
  unreachable

bb31:                                             ; preds = %bb3
  store i16 23323, ptr %11, align 1
  store i64 2, ptr %res, align 8
  %_32.sroa.4.0.res.sroa_idx = getelementptr inbounds nuw i8, ptr %res, i64 8
  store ptr %11, ptr %_32.sroa.4.0.res.sroa_idx, align 8
  %_32.sroa.6.0.res.sroa_idx = getelementptr inbounds nuw i8, ptr %res, i64 16
  store i64 2, ptr %_32.sroa.6.0.res.sroa_idx, align 8
  %13 = getelementptr inbounds nuw i8, ptr %self, i64 32
  %_51 = load i8, ptr %13, align 8, !noundef !2
  %_50.not = icmp eq i8 %_51, 0
  br i1 %_50.not, label %bb7, label %bb2.i.i28

bb7:                                              ; preds = %bb31
  br i1 %.not, label %bb48, label %bb9

bb2.i.i28:                                        ; preds = %bb31
  call void @llvm.lifetime.start.p0(i64 24, ptr nonnull %vector.i.i.i), !noalias !31
  %_4.i.i.i.i.i.i.i.i = and i8 %_51, 1
  %_0.i.i.not.i.i.i.i.i.i = icmp eq i8 %_4.i.i.i.i.i.i.i.i, 0
  br i1 %_0.i.i.not.i.i.i.i.i.i, label %bb1.i.i.i.i.1.i.i, label %_RNvXs_NtCsdJPVW0sQgAG_5alloc5allocNtB4_6GlobalNtNtCsjMrxcFdYDNN_4core5alloc9Allocator8allocate.exit.i.i.i.i.i

bb1.i.i.i.i.1.i.i:                                ; preds = %bb2.i.i28
  %_4.i.i.i.i.i.i.1.i.i = and i8 %_51, 64
  %_0.i.i.not.i.i.i.i.1.i.i = icmp eq i8 %_4.i.i.i.i.i.i.1.i.i, 0
  br i1 %_0.i.i.not.i.i.i.i.1.i.i, label %bb1.i.i.i.i.2.i.i, label %_RNvXs_NtCsdJPVW0sQgAG_5alloc5allocNtB4_6GlobalNtNtCsjMrxcFdYDNN_4core5alloc9Allocator8allocate.exit.i.i.i.i.i

bb1.i.i.i.i.2.i.i:                                ; preds = %bb1.i.i.i.i.1.i.i
  %_4.i.i.i.i.i.i.2.i.i = and i8 %_51, 2
  %_0.i.i.not.i.i.i.i.2.i.i = icmp eq i8 %_4.i.i.i.i.i.i.2.i.i, 0
  br i1 %_0.i.i.not.i.i.i.i.2.i.i, label %bb1.i.i.i.i.3.i.i, label %_RNvXs_NtCsdJPVW0sQgAG_5alloc5allocNtB4_6GlobalNtNtCsjMrxcFdYDNN_4core5alloc9Allocator8allocate.exit.i.i.i.i.i

bb1.i.i.i.i.3.i.i:                                ; preds = %bb1.i.i.i.i.2.i.i
  %_4.i.i.i.i.i.i.3.i.i = and i8 %_51, 4
  %_0.i.i.not.i.i.i.i.3.i.i = icmp eq i8 %_4.i.i.i.i.i.i.3.i.i, 0
  br i1 %_0.i.i.not.i.i.i.i.3.i.i, label %bb1.i.i.i.i.4.i.i, label %_RNvXs_NtCsdJPVW0sQgAG_5alloc5allocNtB4_6GlobalNtNtCsjMrxcFdYDNN_4core5alloc9Allocator8allocate.exit.i.i.i.i.i

bb1.i.i.i.i.4.i.i:                                ; preds = %bb1.i.i.i.i.3.i.i
  %_4.i.i.i.i.i.i.4.i.i = and i8 %_51, 8
  %_0.i.i.not.i.i.i.i.4.i.i = icmp eq i8 %_4.i.i.i.i.i.i.4.i.i, 0
  br i1 %_0.i.i.not.i.i.i.i.4.i.i, label %bb1.i.i.i.i.5.i.i, label %_RNvXs_NtCsdJPVW0sQgAG_5alloc5allocNtB4_6GlobalNtNtCsjMrxcFdYDNN_4core5alloc9Allocator8allocate.exit.i.i.i.i.i

bb1.i.i.i.i.5.i.i:                                ; preds = %bb1.i.i.i.i.4.i.i
  %_4.i.i.i.i.i.i.5.i.i = and i8 %_51, 16
  %_0.i.i.not.i.i.i.i.5.i.i = icmp eq i8 %_4.i.i.i.i.i.i.5.i.i, 0
  br i1 %_0.i.i.not.i.i.i.i.5.i.i, label %bb1.i.i.i.i.6.i.i, label %_RNvXs_NtCsdJPVW0sQgAG_5alloc5allocNtB4_6GlobalNtNtCsjMrxcFdYDNN_4core5alloc9Allocator8allocate.exit.i.i.i.i.i

bb1.i.i.i.i.6.i.i:                                ; preds = %bb1.i.i.i.i.5.i.i
  %_4.i.i.i.i.i.i.6.i.i = and i8 %_51, 32
  %_0.i.i.not.i.i.i.i.6.i.i = icmp eq i8 %_4.i.i.i.i.i.i.6.i.i, 0
  %spec.select.i.i = select i1 %_0.i.i.not.i.i.i.i.6.i.i, ptr getelementptr inbounds nuw (i8, ptr @_RNvNtCshDvXgAkadjA_7colored5style6STYLES, i64 14), ptr getelementptr inbounds nuw (i8, ptr @_RNvNtCshDvXgAkadjA_7colored5style6STYLES, i64 12)
  %spec.select17.i.i = select i1 %_0.i.i.not.i.i.i.i.6.i.i, i64 16, i64 14
  br label %_RNvXs_NtCsdJPVW0sQgAG_5alloc5allocNtB4_6GlobalNtNtCsjMrxcFdYDNN_4core5alloc9Allocator8allocate.exit.i.i.i.i.i

_RNvXs_NtCsdJPVW0sQgAG_5alloc5allocNtB4_6GlobalNtNtCsjMrxcFdYDNN_4core5alloc9Allocator8allocate.exit.i.i.i.i.i: ; preds = %bb1.i.i.i.i.6.i.i, %bb1.i.i.i.i.5.i.i, %bb1.i.i.i.i.4.i.i, %bb1.i.i.i.i.3.i.i, %bb1.i.i.i.i.2.i.i, %bb1.i.i.i.i.1.i.i, %bb2.i.i28
  %_231.i.i.i.i.ptr.lcssa.i.i = phi ptr [ @_RNvNtCshDvXgAkadjA_7colored5style6STYLES, %bb2.i.i28 ], [ getelementptr inbounds nuw (i8, ptr @_RNvNtCshDvXgAkadjA_7colored5style6STYLES, i64 2), %bb1.i.i.i.i.1.i.i ], [ getelementptr inbounds nuw (i8, ptr @_RNvNtCshDvXgAkadjA_7colored5style6STYLES, i64 4), %bb1.i.i.i.i.2.i.i ], [ getelementptr inbounds nuw (i8, ptr @_RNvNtCshDvXgAkadjA_7colored5style6STYLES, i64 6), %bb1.i.i.i.i.3.i.i ], [ getelementptr inbounds nuw (i8, ptr @_RNvNtCshDvXgAkadjA_7colored5style6STYLES, i64 8), %bb1.i.i.i.i.4.i.i ], [ getelementptr inbounds nuw (i8, ptr @_RNvNtCshDvXgAkadjA_7colored5style6STYLES, i64 10), %bb1.i.i.i.i.5.i.i ], [ %spec.select.i.i, %bb1.i.i.i.i.6.i.i ]
  %_231.i.i.i.i.add.lcssa.i.i = phi i64 [ 2, %bb2.i.i28 ], [ 4, %bb1.i.i.i.i.1.i.i ], [ 6, %bb1.i.i.i.i.2.i.i ], [ 8, %bb1.i.i.i.i.3.i.i ], [ 10, %bb1.i.i.i.i.4.i.i ], [ 12, %bb1.i.i.i.i.5.i.i ], [ %spec.select17.i.i, %bb1.i.i.i.i.6.i.i ]
  %14 = getelementptr i8, ptr %_231.i.i.i.i.ptr.lcssa.i.i, i64 1
  %.val.i.i.i.i = load i8, ptr %14, align 1, !range !39, !noalias !40, !noundef !2
; call __rustc::__rust_no_alloc_shim_is_unstable_v2
  call void @_RNvCsKhRCbHf33p_7___rustc35___rust_no_alloc_shim_is_unstable_v2() #23, !noalias !43
; call __rustc::__rust_alloc
  %15 = call noundef dereferenceable_or_null(8) ptr @_RNvCsKhRCbHf33p_7___rustc12___rust_alloc(i64 noundef 8, i64 noundef range(i64 1, 9) 1) #23, !noalias !43
  %16 = icmp eq ptr %15, null
  br i1 %16, label %bb3.i.i.i.i, label %_RNvMs4_NtCsdJPVW0sQgAG_5alloc7raw_vecNtB5_11RawVecInner16with_capacity_inCshDvXgAkadjA_7colored.exit.i.i.i

bb3.i.i.i.i:                                      ; preds = %_RNvXs_NtCsdJPVW0sQgAG_5alloc5allocNtB4_6GlobalNtNtCsjMrxcFdYDNN_4core5alloc9Allocator8allocate.exit.i.i.i.i.i
; invoke alloc::raw_vec::handle_error
  invoke void @_RNvNtCsdJPVW0sQgAG_5alloc7raw_vec12handle_error(i64 noundef 1, i64 8) #24
          to label %.noexc unwind label %cleanup

.noexc:                                           ; preds = %bb3.i.i.i.i
  unreachable

_RNvMs4_NtCsdJPVW0sQgAG_5alloc7raw_vecNtB5_11RawVecInner16with_capacity_inCshDvXgAkadjA_7colored.exit.i.i.i: ; preds = %_RNvXs_NtCsdJPVW0sQgAG_5alloc5allocNtB4_6GlobalNtNtCsjMrxcFdYDNN_4core5alloc9Allocator8allocate.exit.i.i.i.i.i
  store i8 %.val.i.i.i.i, ptr %15, align 1, !noalias !31
  store i64 8, ptr %vector.i.i.i, align 8, !noalias !31
  %vector1.sroa.4.0.vector.sroa_idx.i.i.i = getelementptr inbounds nuw i8, ptr %vector.i.i.i, i64 8
  store ptr %15, ptr %vector1.sroa.4.0.vector.sroa_idx.i.i.i, align 8, !noalias !31
  %vector1.sroa.6.0.vector.sroa_idx.i.i.i = getelementptr inbounds nuw i8, ptr %vector.i.i.i, i64 16
  store i64 1, ptr %vector1.sroa.6.0.vector.sroa_idx.i.i.i, align 8, !noalias !31
  call void @llvm.experimental.noalias.scope.decl(metadata !46)
  call void @llvm.experimental.noalias.scope.decl(metadata !49)
  br label %bb1.i.i.i.i.i

bb1.i.i.i.i.i:                                    ; preds = %bb8.i.i.i.i.i, %_RNvMs4_NtCsdJPVW0sQgAG_5alloc7raw_vecNtB5_11RawVecInner16with_capacity_inCshDvXgAkadjA_7colored.exit.i.i.i
  %_23.i.i18.i.i.i = phi ptr [ %_23.i.i.i.i.i, %bb8.i.i.i.i.i ], [ %15, %_RNvMs4_NtCsdJPVW0sQgAG_5alloc7raw_vecNtB5_11RawVecInner16with_capacity_inCshDvXgAkadjA_7colored.exit.i.i.i ]
  %res.sroa.8.0.copyload4.i.i = phi i64 [ %new_len.i.i.i.i.i, %bb8.i.i.i.i.i ], [ 1, %_RNvMs4_NtCsdJPVW0sQgAG_5alloc7raw_vecNtB5_11RawVecInner16with_capacity_inCshDvXgAkadjA_7colored.exit.i.i.i ]
  %_23.i.i.i10.i.i.i.idx.i.i = phi i64 [ %_231.i.i.i.i.i.i.add.i.i, %bb8.i.i.i.i.i ], [ %_231.i.i.i.i.add.lcssa.i.i, %_RNvMs4_NtCsdJPVW0sQgAG_5alloc7raw_vecNtB5_11RawVecInner16with_capacity_inCshDvXgAkadjA_7colored.exit.i.i.i ]
  br label %bb1.i.i.i.i.i.i.i.i

bb1.i.i.i.i.i.i.i.i:                              ; preds = %bb13.i.i.i.i.i.i.i.i, %bb1.i.i.i.i.i
  %_231.i.i.i.i.i.i.idx.i.i = phi i64 [ %_231.i.i.i.i.i.i.add.i.i, %bb13.i.i.i.i.i.i.i.i ], [ %_23.i.i.i10.i.i.i.idx.i.i, %bb1.i.i.i.i.i ]
  %_13.i.i.i.i.i.i.i.i = icmp eq i64 %_231.i.i.i.i.i.i.idx.i.i, 16
  br i1 %_13.i.i.i.i.i.i.i.i, label %_RNvMNtCshDvXgAkadjA_7colored5styleNtB2_6Styles7from_u8.exit.i, label %bb13.i.i.i.i.i.i.i.i

bb13.i.i.i.i.i.i.i.i:                             ; preds = %bb1.i.i.i.i.i.i.i.i
  %_231.i.i.i.i.i.i.ptr.i.i = getelementptr inbounds nuw i8, ptr @_RNvNtCshDvXgAkadjA_7colored5style6STYLES, i64 %_231.i.i.i.i.i.i.idx.i.i
  %_231.i.i.i.i.i.i.add.i.i = add nuw nsw i64 %_231.i.i.i.i.i.i.idx.i.i, 2
  %_8.i.i.i.i.i.i.i.i.i.i = load i8, ptr %_231.i.i.i.i.i.i.ptr.i.i, align 1, !noalias !52, !noundef !2
  %_4.i.i.i.i.i.i.i.i.i.i = and i8 %_8.i.i.i.i.i.i.i.i.i.i, %_51
  %_0.i.i.not.i.i.i.i.i.i.i.i = icmp eq i8 %_4.i.i.i.i.i.i.i.i.i.i, 0
  br i1 %_0.i.i.not.i.i.i.i.i.i.i.i, label %bb1.i.i.i.i.i.i.i.i, label %bb3.i.i.i.i.i

bb3.i.i.i.i.i:                                    ; preds = %bb13.i.i.i.i.i.i.i.i
  %17 = getelementptr i8, ptr %_231.i.i.i.i.i.i.ptr.i.i, i64 1
  %.val.i.i.i.i.i.i = load i8, ptr %17, align 1, !range !39, !noalias !62, !noundef !2
  %_19.i.i.i.i.i = icmp sgt i64 %res.sroa.8.0.copyload4.i.i, -1
  call void @llvm.assume(i1 %_19.i.i.i.i.i)
  %self1.i.i.i.i.i = load i64, ptr %vector.i.i.i, align 8, !range !10, !alias.scope !63, !noalias !64, !noundef !2
  %_8.i.i.i.i.i = icmp eq i64 %res.sroa.8.0.copyload4.i.i, %self1.i.i.i.i.i
  br i1 %_8.i.i.i.i.i, label %_RNvMs_NtCsdJPVW0sQgAG_5alloc3vecINtB4_3VecNtNtCshDvXgAkadjA_7colored5style6StylesE7reserveBI_.exit.i.i.i.i.i, label %bb8.i.i.i.i.i

_RNvMs_NtCsdJPVW0sQgAG_5alloc3vecINtB4_3VecNtNtCshDvXgAkadjA_7colored5style6StylesE7reserveBI_.exit.i.i.i.i.i: ; preds = %bb3.i.i.i.i.i
; invoke <alloc::raw_vec::RawVecInner<_>>::reserve::do_reserve_and_handle::<alloc::alloc::Global>
  invoke fastcc void @_RINvNvMs2_NtCsdJPVW0sQgAG_5alloc7raw_vecINtB8_11RawVecInnerpE7reserve21do_reserve_and_handleNtNtBa_5alloc6GlobalECshDvXgAkadjA_7colored(ptr noalias noundef nonnull align 8 dereferenceable(24) %vector.i.i.i, i64 noundef %res.sroa.8.0.copyload4.i.i, i64 noundef range(i64 1, 0) 1, i64 noundef 1, i64 noundef 1)
          to label %_RNvMs_NtCsdJPVW0sQgAG_5alloc3vecINtB4_3VecNtNtCshDvXgAkadjA_7colored5style6StylesE7reserveBI_.exit.i.i.bb8.i.i_crit_edge.i.i.i unwind label %cleanup3.i.i.i, !noalias !31

_RNvMs_NtCsdJPVW0sQgAG_5alloc3vecINtB4_3VecNtNtCshDvXgAkadjA_7colored5style6StylesE7reserveBI_.exit.i.i.bb8.i.i_crit_edge.i.i.i: ; preds = %_RNvMs_NtCsdJPVW0sQgAG_5alloc3vecINtB4_3VecNtNtCshDvXgAkadjA_7colored5style6StylesE7reserveBI_.exit.i.i.i.i.i
  %_23.i.i.pre.i.i.i = load ptr, ptr %vector1.sroa.4.0.vector.sroa_idx.i.i.i, align 8, !alias.scope !63, !noalias !64
  br label %bb8.i.i.i.i.i

bb8.i.i.i.i.i:                                    ; preds = %_RNvMs_NtCsdJPVW0sQgAG_5alloc3vecINtB4_3VecNtNtCshDvXgAkadjA_7colored5style6StylesE7reserveBI_.exit.i.i.bb8.i.i_crit_edge.i.i.i, %bb3.i.i.i.i.i
  %_23.i.i.i.i.i = phi ptr [ %_23.i.i.pre.i.i.i, %_RNvMs_NtCsdJPVW0sQgAG_5alloc3vecINtB4_3VecNtNtCshDvXgAkadjA_7colored5style6StylesE7reserveBI_.exit.i.i.bb8.i.i_crit_edge.i.i.i ], [ %_23.i.i18.i.i.i, %bb3.i.i.i.i.i ]
  %dst.i.i.i.i.i = getelementptr inbounds nuw i8, ptr %_23.i.i.i.i.i, i64 %res.sroa.8.0.copyload4.i.i
  store i8 %.val.i.i.i.i.i.i, ptr %dst.i.i.i.i.i, align 1, !noalias !65
  %new_len.i.i.i.i.i = add nuw i64 %res.sroa.8.0.copyload4.i.i, 1
  store i64 %new_len.i.i.i.i.i, ptr %vector1.sroa.6.0.vector.sroa_idx.i.i.i, align 8, !alias.scope !63, !noalias !64
  br label %bb1.i.i.i.i.i

cleanup3.i.i.i:                                   ; preds = %_RNvMs_NtCsdJPVW0sQgAG_5alloc3vecINtB4_3VecNtNtCshDvXgAkadjA_7colored5style6StylesE7reserveBI_.exit.i.i.i.i.i
  %18 = landingpad { ptr, i32 }
          cleanup
  %vector.val.i.i.i = load i64, ptr %vector.i.i.i, align 8, !noalias !31
  %19 = icmp eq i64 %vector.val.i.i.i, 0
  br i1 %19, label %bb22, label %bb2.i.i.i4.i.i.i.i

bb2.i.i.i4.i.i.i.i:                               ; preds = %cleanup3.i.i.i
  %vector.val8.i.i.i = load ptr, ptr %vector1.sroa.4.0.vector.sroa_idx.i.i.i, align 8, !noalias !31, !nonnull !2, !noundef !2
; call __rustc::__rust_dealloc
  call void @_RNvCsKhRCbHf33p_7___rustc14___rust_dealloc(ptr noundef nonnull %vector.val8.i.i.i, i64 noundef %vector.val.i.i.i, i64 noundef range(i64 1, -9223372036854775807) 1) #23, !noalias !31
  br label %bb22

_RNvMNtCshDvXgAkadjA_7colored5styleNtB2_6Styles7from_u8.exit.i: ; preds = %bb1.i.i.i.i.i.i.i.i
  %res.sroa.0.0.copyload2.i.i = load i64, ptr %vector.i.i.i, align 8, !noalias !66
  %res.sroa.6.0.copyload3.i.i = load ptr, ptr %vector1.sroa.4.0.vector.sroa_idx.i.i.i, align 8, !noalias !66
  call void @llvm.lifetime.end.p0(i64 24, ptr nonnull %vector.i.i.i), !noalias !31
  %_18.i.i = icmp sgt i64 %res.sroa.8.0.copyload4.i.i, -1
  call void @llvm.assume(i1 %_18.i.i)
  %.not.i = icmp eq i64 %res.sroa.0.0.copyload2.i.i, -9223372036854775808
  br i1 %.not.i, label %bb33, label %bb6.i.i.i.i.i

bb6.i.i.i.i.i:                                    ; preds = %_RNvMNtCshDvXgAkadjA_7colored5styleNtB2_6Styles7from_u8.exit.i
  %_24.i.i.i.i.i = add nsw i64 %res.sroa.8.0.copyload4.i.i, -1
  %_27.0.i.i.i.i.i = shl i64 %_24.i.i.i.i.i, 4
  %_27.1.i.i.i.i.i = icmp ugt i64 %_24.i.i.i.i.i, 1152921504606846975
  %_40.i.i.i.i.i = icmp ugt i64 %_27.0.i.i.i.i.i, 9223372036854775784
  %or.cond.i.i = or i1 %_27.1.i.i.i.i.i, %_40.i.i.i.i.i
  br i1 %or.cond.i.i, label %bb3.i.i.i, label %_RNvXs_NtCsdJPVW0sQgAG_5alloc5allocNtB4_6GlobalNtNtCsjMrxcFdYDNN_4core5alloc9Allocator8allocate.exit.i.i.i.i, !prof !67

_RNvXs_NtCsdJPVW0sQgAG_5alloc5allocNtB4_6GlobalNtNtCsjMrxcFdYDNN_4core5alloc9Allocator8allocate.exit.i.i.i.i: ; preds = %bb6.i.i.i.i.i
  %new_size2.i.i.i.i.i = add nuw nsw i64 %_27.0.i.i.i.i.i, 16
; call __rustc::__rust_no_alloc_shim_is_unstable_v2
  call void @_RNvCsKhRCbHf33p_7___rustc35___rust_no_alloc_shim_is_unstable_v2() #23, !noalias !68
; call __rustc::__rust_alloc
  %20 = call noundef align 8 ptr @_RNvCsKhRCbHf33p_7___rustc12___rust_alloc(i64 noundef %new_size2.i.i.i.i.i, i64 noundef range(i64 1, 9) 8) #23, !noalias !68
  %21 = icmp eq ptr %20, null
  br i1 %21, label %bb3.i.i.i, label %bb9.i.i.i.i.i.i.i

bb3.i.i.i:                                        ; preds = %_RNvXs_NtCsdJPVW0sQgAG_5alloc5allocNtB4_6GlobalNtNtCsjMrxcFdYDNN_4core5alloc9Allocator8allocate.exit.i.i.i.i, %bb6.i.i.i.i.i
  %_4.sroa.4.0.ph.i.i.i = phi i64 [ 8, %_RNvXs_NtCsdJPVW0sQgAG_5alloc5allocNtB4_6GlobalNtNtCsjMrxcFdYDNN_4core5alloc9Allocator8allocate.exit.i.i.i.i ], [ 0, %bb6.i.i.i.i.i ]
  %_4.sroa.10.0.ph.i.i.i = phi i64 [ %new_size2.i.i.i.i.i, %_RNvXs_NtCsdJPVW0sQgAG_5alloc5allocNtB4_6GlobalNtNtCsjMrxcFdYDNN_4core5alloc9Allocator8allocate.exit.i.i.i.i ], [ undef, %bb6.i.i.i.i.i ]
; invoke alloc::raw_vec::handle_error
  invoke void @_RNvNtCsdJPVW0sQgAG_5alloc7raw_vec12handle_error(i64 noundef %_4.sroa.4.0.ph.i.i.i, i64 %_4.sroa.10.0.ph.i.i.i) #24
          to label %.noexc.i unwind label %cleanup.i, !noalias !73

.noexc.i:                                         ; preds = %bb3.i.i.i
  unreachable

bb9.i.i.i.i.i.i.i:                                ; preds = %_RNvXs_NtCsdJPVW0sQgAG_5alloc5allocNtB4_6GlobalNtNtCsjMrxcFdYDNN_4core5alloc9Allocator8allocate.exit.i.i.i.i, %bb28.i.i.i.i.i.i.i
  %22 = phi i64 [ %24, %bb28.i.i.i.i.i.i.i ], [ 0, %_RNvXs_NtCsdJPVW0sQgAG_5alloc5allocNtB4_6GlobalNtNtCsjMrxcFdYDNN_4core5alloc9Allocator8allocate.exit.i.i.i.i ]
  %_46.i.i.i.i.i.i.i = getelementptr inbounds nuw i8, ptr %res.sroa.6.0.copyload3.i.i, i64 %22
  %_46.val.i.i.i.i.i.i.i = load i8, ptr %_46.i.i.i.i.i.i.i, align 1, !range !39, !noalias !74, !noundef !2
  switch i8 %_46.val.i.i.i.i.i.i.i, label %default.unreachable [
    i8 0, label %bb28.i.i.i.i.i.i.i
    i8 1, label %bb10.i.i.i.i.i.i.i.i.i
    i8 2, label %bb9.i.i.i.i.i.i.i.i.i
    i8 3, label %bb7.i.i.i.i.i.i.i.i.i
    i8 4, label %bb5.i.i.i.i.i.i.i.i.i
    i8 5, label %bb8.i.i.i.i.i.i.i.i.i
    i8 6, label %bb6.i.i.i.i.i.i.i.i.i
    i8 7, label %bb4.i.i.i.i.i.i.i.i.i
    i8 8, label %bb3.i.i.i.i.i.i.i.i.i
  ]

default.unreachable:                              ; preds = %bb9.i.i.i.i.i.i.i
  unreachable

bb10.i.i.i.i.i.i.i.i.i:                           ; preds = %bb9.i.i.i.i.i.i.i
  br label %bb28.i.i.i.i.i.i.i

bb9.i.i.i.i.i.i.i.i.i:                            ; preds = %bb9.i.i.i.i.i.i.i
  br label %bb28.i.i.i.i.i.i.i

bb7.i.i.i.i.i.i.i.i.i:                            ; preds = %bb9.i.i.i.i.i.i.i
  br label %bb28.i.i.i.i.i.i.i

bb5.i.i.i.i.i.i.i.i.i:                            ; preds = %bb9.i.i.i.i.i.i.i
  br label %bb28.i.i.i.i.i.i.i

bb8.i.i.i.i.i.i.i.i.i:                            ; preds = %bb9.i.i.i.i.i.i.i
  br label %bb28.i.i.i.i.i.i.i

bb6.i.i.i.i.i.i.i.i.i:                            ; preds = %bb9.i.i.i.i.i.i.i
  br label %bb28.i.i.i.i.i.i.i

bb4.i.i.i.i.i.i.i.i.i:                            ; preds = %bb9.i.i.i.i.i.i.i
  br label %bb28.i.i.i.i.i.i.i

bb3.i.i.i.i.i.i.i.i.i:                            ; preds = %bb9.i.i.i.i.i.i.i
  br label %bb28.i.i.i.i.i.i.i

bb28.i.i.i.i.i.i.i:                               ; preds = %bb3.i.i.i.i.i.i.i.i.i, %bb4.i.i.i.i.i.i.i.i.i, %bb6.i.i.i.i.i.i.i.i.i, %bb8.i.i.i.i.i.i.i.i.i, %bb5.i.i.i.i.i.i.i.i.i, %bb7.i.i.i.i.i.i.i.i.i, %bb9.i.i.i.i.i.i.i.i.i, %bb10.i.i.i.i.i.i.i.i.i, %bb9.i.i.i.i.i.i.i
  %_0.sroa.10.0.i.i.i.i.i.i.i.i.i = phi i64 [ 1, %bb10.i.i.i.i.i.i.i.i.i ], [ 1, %bb9.i.i.i.i.i.i.i.i.i ], [ 1, %bb7.i.i.i.i.i.i.i.i.i ], [ 1, %bb5.i.i.i.i.i.i.i.i.i ], [ 1, %bb8.i.i.i.i.i.i.i.i.i ], [ 1, %bb6.i.i.i.i.i.i.i.i.i ], [ 1, %bb4.i.i.i.i.i.i.i.i.i ], [ 1, %bb3.i.i.i.i.i.i.i.i.i ], [ 0, %bb9.i.i.i.i.i.i.i ]
  %_0.sroa.0.0.i.i.i.i.i.i.i.i.i = phi ptr [ @alloc_26f643e647dbf77f42e670b3488e8932, %bb10.i.i.i.i.i.i.i.i.i ], [ @alloc_2915479852334936e8130753f7743db9, %bb9.i.i.i.i.i.i.i.i.i ], [ @alloc_9cf8d94634c21829dfe78a5c04e937a1, %bb7.i.i.i.i.i.i.i.i.i ], [ @alloc_3a69216911966da9513ed3dd343b9603, %bb5.i.i.i.i.i.i.i.i.i ], [ @alloc_7d41ec57c1295544fb8684618c5cb662, %bb8.i.i.i.i.i.i.i.i.i ], [ @alloc_7654ceb84663324a351487f0eb73a275, %bb6.i.i.i.i.i.i.i.i.i ], [ @alloc_7b73433ff6202cf4b7f65fc1930b9e3f, %bb4.i.i.i.i.i.i.i.i.i ], [ @alloc_913d41a8d32ae477dc676e00a5bcf023, %bb3.i.i.i.i.i.i.i.i.i ], [ inttoptr (i64 1 to ptr), %bb9.i.i.i.i.i.i.i ]
  %_3.i.i.i.i.i.i.i.i.i.i = getelementptr inbounds nuw { ptr, i64 }, ptr %20, i64 %22
  store ptr %_0.sroa.0.0.i.i.i.i.i.i.i.i.i, ptr %_3.i.i.i.i.i.i.i.i.i.i, align 8, !noalias !85
  %23 = getelementptr inbounds nuw i8, ptr %_3.i.i.i.i.i.i.i.i.i.i, i64 8
  store i64 %_0.sroa.10.0.i.i.i.i.i.i.i.i.i, ptr %23, align 8, !noalias !94
  %24 = add nuw nsw i64 %22, 1
  %_28.i.i.i.i.i.i.i = icmp eq i64 %24, %res.sroa.8.0.copyload4.i.i
  br i1 %_28.i.i.i.i.i.i.i, label %bb12.i, label %bb9.i.i.i.i.i.i.i

cleanup.i:                                        ; preds = %bb3.i.i.i
  %25 = landingpad { ptr, i32 }
          cleanup
  %26 = icmp eq i64 %res.sroa.0.0.copyload2.i.i, 0
  br i1 %26, label %bb22, label %bb2.i.i.i4.i.i

bb2.i.i.i4.i.i:                                   ; preds = %cleanup.i
  %27 = icmp ne ptr %res.sroa.6.0.copyload3.i.i, null
  call void @llvm.assume(i1 %27)
; call __rustc::__rust_dealloc
  call void @_RNvCsKhRCbHf33p_7___rustc14___rust_dealloc(ptr noundef nonnull %res.sroa.6.0.copyload3.i.i, i64 noundef %res.sroa.0.0.copyload2.i.i, i64 noundef range(i64 1, -9223372036854775807) 1) #23, !noalias !73
  br label %bb22

bb12.i:                                           ; preds = %bb28.i.i.i.i.i.i.i
  call void @llvm.experimental.noalias.scope.decl(metadata !95)
  %_95.idx.i.i = shl nuw i64 %res.sroa.8.0.copyload4.i.i, 4
  %_95.i.i = getelementptr inbounds nuw i8, ptr %20, i64 %_95.idx.i.i
  %gepdiff.i.i = add nsw i64 %_95.idx.i.i, -16
  %28 = lshr exact i64 %gepdiff.i.i, 4
  br label %bb1.i.i.i

bb1.i.i.i:                                        ; preds = %bb3.i.i16.i, %bb12.i
  %_16.i6.i.i.i = phi ptr [ %20, %bb12.i ], [ %_16.i.i.i.i, %bb3.i.i16.i ]
  %accum.sroa.0.0.i.i.i = phi i64 [ %28, %bb12.i ], [ %_4.0.i.i.i.i.i.i, %bb3.i.i16.i ]
  %_6.i.i.i.i = icmp eq ptr %_16.i6.i.i.i, %_95.i.i
  br i1 %_6.i.i.i.i, label %bb53.i.i, label %bb3.i.i16.i

bb3.i.i16.i:                                      ; preds = %bb1.i.i.i
  %_16.i.i.i.i = getelementptr inbounds nuw i8, ptr %_16.i6.i.i.i, i64 16
  %29 = getelementptr i8, ptr %_16.i6.i.i.i, i64 8
  %.val3.i.i.i = load i64, ptr %29, align 8, !alias.scope !95, !noalias !98, !noundef !2
  %_4.0.i.i.i.i.i.i = add i64 %.val3.i.i.i, %accum.sroa.0.0.i.i.i
  %_4.1.i.i.i.i.i.i = icmp ult i64 %_4.0.i.i.i.i.i.i, %accum.sroa.0.0.i.i.i
  br i1 %_4.1.i.i.i.i.i.i, label %bb52.i.i, label %bb1.i.i.i

bb53.i.i:                                         ; preds = %bb1.i.i.i
  call void @llvm.lifetime.start.p0(i64 24, ptr nonnull %result.i.i), !noalias !102
  %_23.i.i.i.i17.i = icmp eq i64 %accum.sroa.0.0.i.i.i, 0
  br i1 %_23.i.i.i.i17.i, label %bb4.i21.i, label %bb6.i.i.i.i18.i

bb6.i.i.i.i18.i:                                  ; preds = %bb53.i.i
  %or.cond.not.i.i = icmp sgt i64 %accum.sroa.0.0.i.i.i, 0
  br i1 %or.cond.not.i.i, label %_RNvXs_NtCsdJPVW0sQgAG_5alloc5allocNtB4_6GlobalNtNtCsjMrxcFdYDNN_4core5alloc9Allocator8allocate.exit.i.i.i20.i, label %bb3.i102.i.i, !prof !103

_RNvXs_NtCsdJPVW0sQgAG_5alloc5allocNtB4_6GlobalNtNtCsjMrxcFdYDNN_4core5alloc9Allocator8allocate.exit.i.i.i20.i: ; preds = %bb6.i.i.i.i18.i
; call __rustc::__rust_no_alloc_shim_is_unstable_v2
  call void @_RNvCsKhRCbHf33p_7___rustc35___rust_no_alloc_shim_is_unstable_v2() #23, !noalias !104
; call __rustc::__rust_alloc
  %30 = call noundef ptr @_RNvCsKhRCbHf33p_7___rustc12___rust_alloc(i64 noundef %accum.sroa.0.0.i.i.i, i64 noundef range(i64 1, 9) 1) #23, !noalias !104
  %31 = icmp eq ptr %30, null
  br i1 %31, label %bb3.i102.i.i, label %bb4.i21.i

bb3.i102.i.i:                                     ; preds = %_RNvXs_NtCsdJPVW0sQgAG_5alloc5allocNtB4_6GlobalNtNtCsjMrxcFdYDNN_4core5alloc9Allocator8allocate.exit.i.i.i20.i, %bb6.i.i.i.i18.i
  %_4.sroa.4.0.ph.i.i19.i = phi i64 [ 1, %_RNvXs_NtCsdJPVW0sQgAG_5alloc5allocNtB4_6GlobalNtNtCsjMrxcFdYDNN_4core5alloc9Allocator8allocate.exit.i.i.i20.i ], [ 0, %bb6.i.i.i.i18.i ]
; invoke alloc::raw_vec::handle_error
  invoke void @_RNvNtCsdJPVW0sQgAG_5alloc7raw_vec12handle_error(i64 noundef %_4.sroa.4.0.ph.i.i19.i, i64 %accum.sroa.0.0.i.i.i) #24
          to label %.noexc23.i unwind label %cleanup1.i, !noalias !73

.noexc23.i:                                       ; preds = %bb3.i102.i.i
  unreachable

bb52.i.i:                                         ; preds = %bb3.i.i16.i
; invoke core::option::expect_failed
  invoke void @_RNvNtCsjMrxcFdYDNN_4core6option13expect_failed(ptr noalias noundef nonnull readonly align 1 captures(address, read_provenance) @alloc_ca673fb95acb8e58af271999e89294ae, i64 noundef 53, ptr noalias noundef readonly align 8 captures(address, read_provenance) dereferenceable(24) @alloc_60488e92c3d9250777708a132d567f7b) #22
          to label %.noexc24.i unwind label %cleanup1.i, !noalias !73

.noexc24.i:                                       ; preds = %bb52.i.i
  unreachable

cleanup.i.i:                                      ; preds = %bb3.i116.invoke.i.i, %bb1.i.i.i.i22.i
  %32 = landingpad { ptr, i32 }
          cleanup
  %result.val.i.i = load i64, ptr %result.i.i, align 8, !noalias !102
  %33 = icmp eq i64 %result.val.i.i, 0
  br i1 %33, label %cleanup1.body.i, label %bb2.i.i.i4.i.i.i

bb2.i.i.i4.i.i.i:                                 ; preds = %cleanup.i.i
  %result.val99.i.i = load ptr, ptr %34, align 8, !noalias !102, !nonnull !2, !noundef !2
; call __rustc::__rust_dealloc
  call void @_RNvCsKhRCbHf33p_7___rustc14___rust_dealloc(ptr noundef nonnull %result.val99.i.i, i64 noundef %result.val.i.i, i64 noundef range(i64 1, -9223372036854775807) 1) #23, !noalias !102
  br label %cleanup1.body.i

bb4.i21.i:                                        ; preds = %_RNvXs_NtCsdJPVW0sQgAG_5alloc5allocNtB4_6GlobalNtNtCsjMrxcFdYDNN_4core5alloc9Allocator8allocate.exit.i.i.i20.i, %bb53.i.i
  %_4.sroa.10.0.i.i.i = phi ptr [ inttoptr (i64 1 to ptr), %bb53.i.i ], [ %30, %_RNvXs_NtCsdJPVW0sQgAG_5alloc5allocNtB4_6GlobalNtNtCsjMrxcFdYDNN_4core5alloc9Allocator8allocate.exit.i.i.i20.i ]
  store i64 %accum.sroa.0.0.i.i.i, ptr %result.i.i, align 8, !noalias !102
  %34 = getelementptr inbounds nuw i8, ptr %result.i.i, i64 8
  store ptr %_4.sroa.10.0.i.i.i, ptr %34, align 8, !noalias !102
  %35 = getelementptr inbounds nuw i8, ptr %result.i.i, i64 16
  store i64 0, ptr %35, align 8, !noalias !102
  %slice.0.val.i.i = load ptr, ptr %20, align 8, !alias.scope !95, !noalias !107, !nonnull !2, !align !108, !noundef !2
  %36 = getelementptr i8, ptr %20, i64 8
  %slice.0.val101.i.i = load i64, ptr %36, align 8, !alias.scope !95, !noalias !107, !noundef !2
  call void @llvm.experimental.noalias.scope.decl(metadata !109)
  call void @llvm.experimental.noalias.scope.decl(metadata !112)
  %_7.i.i.i.i.i = icmp ugt i64 %slice.0.val101.i.i, %accum.sroa.0.0.i.i.i
  br i1 %_7.i.i.i.i.i, label %bb1.i.i.i.i22.i, label %bb55.i.i, !prof !13

bb1.i.i.i.i22.i:                                  ; preds = %bb4.i21.i
; invoke <alloc::raw_vec::RawVecInner<_>>::reserve::do_reserve_and_handle::<alloc::alloc::Global>
  invoke fastcc void @_RINvNvMs2_NtCsdJPVW0sQgAG_5alloc7raw_vecINtB8_11RawVecInnerpE7reserve21do_reserve_and_handleNtNtBa_5alloc6GlobalECshDvXgAkadjA_7colored(ptr noalias noundef nonnull align 8 dereferenceable(24) %result.i.i, i64 noundef 0, i64 noundef %slice.0.val101.i.i, i64 noundef 1, i64 noundef 1)
          to label %.noexc.i.i unwind label %cleanup.i.i, !noalias !102

.noexc.i.i:                                       ; preds = %bb1.i.i.i.i22.i
  %len.pre.i.i.i.i = load i64, ptr %35, align 8, !alias.scope !115, !noalias !102
  %_10.i.i.pre.i.i = load ptr, ptr %34, align 8, !alias.scope !115, !noalias !102
  br label %bb55.i.i

bb55.i.i:                                         ; preds = %.noexc.i.i, %bb4.i21.i
  %_10.i.i.i.i = phi ptr [ %_4.sroa.10.0.i.i.i, %bb4.i21.i ], [ %_10.i.i.pre.i.i, %.noexc.i.i ]
  %len.i.i.i.i = phi i64 [ 0, %bb4.i21.i ], [ %len.pre.i.i.i.i, %.noexc.i.i ]
  %_9.i.i.i.i = icmp sgt i64 %len.i.i.i.i, -1
  call void @llvm.assume(i1 %_9.i.i.i.i)
  %dst.i.i.i.i = getelementptr inbounds nuw i8, ptr %_10.i.i.i.i, i64 %len.i.i.i.i
  call void @llvm.memcpy.p0.p0.i64(ptr nonnull align 1 %dst.i.i.i.i, ptr nonnull readonly align 1 %slice.0.val.i.i, i64 %slice.0.val101.i.i, i1 false), !noalias !116
  %37 = add i64 %len.i.i.i.i, %slice.0.val101.i.i
  %_157.i.i = icmp sgt i64 %37, -1
  call void @llvm.assume(i1 %_157.i.i)
  %index.i.i = sub nsw i64 %accum.sroa.0.0.i.i.i, %37
  %_2206.i.i = icmp eq i64 %res.sroa.8.0.copyload4.i.i, 1
  br i1 %_2206.i.i, label %bb13.i, label %bb96.preheader.i.i

bb96.preheader.i.i:                               ; preds = %bb55.i.i
  %iter_uninit.sroa.0.15.i.i = getelementptr inbounds nuw i8, ptr %20, i64 16
  %_159.i.i = getelementptr inbounds nuw i8, ptr %_10.i.i.i.i, i64 %37
  br label %bb96.i.i

bb90.i.loopexit.i:                                ; preds = %_RINvNtCsjMrxcFdYDNN_4core5slice20copy_from_slice_implINtNtNtB4_3mem12maybe_uninit11MaybeUninithEECshDvXgAkadjA_7colored.exit122.i.i
  %_24.sroa.5.0.copyload40.pre.i = load ptr, ptr %34, align 8, !noalias !117
  br label %bb13.i

bb96.i.i:                                         ; preds = %_RINvNtCsjMrxcFdYDNN_4core5slice20copy_from_slice_implINtNtNtB4_3mem12maybe_uninit11MaybeUninithEECshDvXgAkadjA_7colored.exit122.i.i, %bb96.preheader.i.i
  %iter_uninit.sroa.0.110.i.i = phi ptr [ %iter_uninit.sroa.0.1.i.i, %_RINvNtCsjMrxcFdYDNN_4core5slice20copy_from_slice_implINtNtNtB4_3mem12maybe_uninit11MaybeUninithEECshDvXgAkadjA_7colored.exit122.i.i ], [ %iter_uninit.sroa.0.15.i.i, %bb96.preheader.i.i ]
  %slice.0.pn9.i.i = phi ptr [ %iter_uninit.sroa.0.110.i.i, %_RINvNtCsjMrxcFdYDNN_4core5slice20copy_from_slice_implINtNtNtB4_3mem12maybe_uninit11MaybeUninithEECshDvXgAkadjA_7colored.exit122.i.i ], [ %20, %bb96.preheader.i.i ]
  %target.sroa.26.28.i.i = phi i64 [ %len.i.i112.i.i, %_RINvNtCsjMrxcFdYDNN_4core5slice20copy_from_slice_implINtNtNtB4_3mem12maybe_uninit11MaybeUninithEECshDvXgAkadjA_7colored.exit122.i.i ], [ %index.i.i, %bb96.preheader.i.i ]
  %target.sroa.0.27.i.i = phi ptr [ %data.i.i111.i.i, %_RINvNtCsjMrxcFdYDNN_4core5slice20copy_from_slice_implINtNtNtB4_3mem12maybe_uninit11MaybeUninithEECshDvXgAkadjA_7colored.exit122.i.i ], [ %_159.i.i, %bb96.preheader.i.i ]
  %iter_uninit.sroa.0.1.val.i.i = load ptr, ptr %iter_uninit.sroa.0.110.i.i, align 8, !alias.scope !95, !noalias !107, !nonnull !2, !align !108, !noundef !2
  %38 = getelementptr i8, ptr %slice.0.pn9.i.i, i64 24
  %iter_uninit.sroa.0.1.val100.i.i = load i64, ptr %38, align 8, !alias.scope !95, !noalias !107, !noundef !2
  %_6.not.i.i.i = icmp eq i64 %target.sroa.26.28.i.i, 0
  br i1 %_6.not.i.i.i, label %bb3.i116.invoke.i.i, label %bb100.i.i, !prof !13

bb100.i.i:                                        ; preds = %bb96.i.i
  %len.i.i104.i.i = add nsw i64 %target.sroa.26.28.i.i, -1
  store i8 59, ptr %target.sroa.0.27.i.i, align 1, !alias.scope !118, !noalias !102
  %_6.not.i109.i.i = icmp ugt i64 %iter_uninit.sroa.0.1.val100.i.i, %len.i.i104.i.i
  br i1 %_6.not.i109.i.i, label %bb3.i116.invoke.i.i, label %_RINvNtCsjMrxcFdYDNN_4core5slice20copy_from_slice_implINtNtNtB4_3mem12maybe_uninit11MaybeUninithEECshDvXgAkadjA_7colored.exit122.i.i, !prof !13

bb3.i116.invoke.i.i:                              ; preds = %bb100.i.i, %bb96.i.i
; invoke core::panicking::panic_fmt
  invoke void @_RNvNtCsjMrxcFdYDNN_4core9panicking9panic_fmt(ptr noundef nonnull @alloc_d1084648e479974e70c9329824bf76f9, ptr noundef nonnull inttoptr (i64 19 to ptr), ptr noalias noundef readonly align 8 captures(address, read_provenance) dereferenceable(24) @alloc_3f2fbfdca196a5b824209b380ee7ae1b) #22
          to label %bb3.i116.cont.i.i unwind label %cleanup.i.i, !noalias !102

bb3.i116.cont.i.i:                                ; preds = %bb3.i116.invoke.i.i
  unreachable

_RINvNtCsjMrxcFdYDNN_4core5slice20copy_from_slice_implINtNtNtB4_3mem12maybe_uninit11MaybeUninithEECshDvXgAkadjA_7colored.exit122.i.i: ; preds = %bb100.i.i
  %data.i.i.i.i = getelementptr inbounds nuw i8, ptr %target.sroa.0.27.i.i, i64 1
  %data.i.i111.i.i = getelementptr inbounds nuw i8, ptr %data.i.i.i.i, i64 %iter_uninit.sroa.0.1.val100.i.i
  %len.i.i112.i.i = sub nuw nsw i64 %len.i.i104.i.i, %iter_uninit.sroa.0.1.val100.i.i
  call void @llvm.memcpy.p0.p0.i64(ptr nonnull align 1 %data.i.i.i.i, ptr nonnull readonly align 1 %iter_uninit.sroa.0.1.val.i.i, i64 range(i64 0, -9223372036854775808) %iter_uninit.sroa.0.1.val100.i.i, i1 false), !alias.scope !122, !noalias !102
  %iter_uninit.sroa.0.1.i.i = getelementptr inbounds nuw i8, ptr %iter_uninit.sroa.0.110.i.i, i64 16
  %_220.i.i = icmp eq ptr %iter_uninit.sroa.0.1.i.i, %_95.i.i
  br i1 %_220.i.i, label %bb90.i.loopexit.i, label %bb96.i.i

cleanup1.i:                                       ; preds = %bb52.i.i, %bb3.i102.i.i
  %39 = landingpad { ptr, i32 }
          cleanup
  br label %cleanup1.body.i

cleanup1.body.i:                                  ; preds = %cleanup1.i, %bb2.i.i.i4.i.i.i, %cleanup.i.i
  %eh.lpad-body.i = phi { ptr, i32 } [ %39, %cleanup1.i ], [ %32, %bb2.i.i.i4.i.i.i ], [ %32, %cleanup.i.i ]
  %40 = icmp eq i64 %res.sroa.0.0.copyload2.i.i, 0
  br i1 %40, label %bb2.i.i.i4.i32.i, label %bb2.i.i.i4.i26.i

bb2.i.i.i4.i26.i:                                 ; preds = %cleanup1.body.i
  %41 = icmp ne ptr %res.sroa.6.0.copyload3.i.i, null
  call void @llvm.assume(i1 %41)
; call __rustc::__rust_dealloc
  call void @_RNvCsKhRCbHf33p_7___rustc14___rust_dealloc(ptr noundef nonnull %res.sroa.6.0.copyload3.i.i, i64 noundef %res.sroa.0.0.copyload2.i.i, i64 noundef range(i64 1, -9223372036854775807) 1) #23, !noalias !73
  br label %bb2.i.i.i4.i32.i

bb13.i:                                           ; preds = %bb90.i.loopexit.i, %bb55.i.i
  %_24.sroa.5.0.copyload40.i = phi ptr [ %_10.i.i.i.i, %bb55.i.i ], [ %_24.sroa.5.0.copyload40.pre.i, %bb90.i.loopexit.i ]
  %target.sroa.26.2.lcssa.i.i = phi i64 [ %index.i.i, %bb55.i.i ], [ %len.i.i112.i.i, %bb90.i.loopexit.i ]
  %result_len.i.i = sub i64 %accum.sroa.0.0.i.i.i, %target.sroa.26.2.lcssa.i.i
  %_24.sroa.0.0.copyload39.i = load i64, ptr %result.i.i, align 8, !noalias !117
  call void @llvm.lifetime.end.p0(i64 24, ptr nonnull %result.i.i), !noalias !102
  %42 = icmp eq i64 %res.sroa.0.0.copyload2.i.i, 0
  br i1 %42, label %bb5, label %bb2.i.i.i4.i29.i

bb2.i.i.i4.i29.i:                                 ; preds = %bb13.i
  %43 = icmp ne ptr %res.sroa.6.0.copyload3.i.i, null
  call void @llvm.assume(i1 %43)
; call __rustc::__rust_dealloc
  call void @_RNvCsKhRCbHf33p_7___rustc14___rust_dealloc(ptr noundef nonnull %res.sroa.6.0.copyload3.i.i, i64 noundef %res.sroa.0.0.copyload2.i.i, i64 noundef range(i64 1, -9223372036854775807) 1) #23, !noalias !73
  br label %bb5

bb2.i.i.i4.i32.i:                                 ; preds = %bb2.i.i.i4.i26.i, %cleanup1.body.i
; call __rustc::__rust_dealloc
  call void @_RNvCsKhRCbHf33p_7___rustc14___rust_dealloc(ptr noundef nonnull %20, i64 noundef %_95.idx.i.i, i64 noundef range(i64 1, -9223372036854775807) 8) #23, !noalias !73
  br label %bb22

bb48:                                             ; preds = %bb7
  %44 = getelementptr inbounds nuw i8, ptr %self, i64 24
  %45 = load i8, ptr %44, align 8, !range !27, !noundef !2
  %.not11 = icmp eq i8 %45, 17
  br i1 %.not11, label %bb1.i.i29, label %bb13

bb9:                                              ; preds = %_RNvMNtCsdJPVW0sQgAG_5alloc6stringNtB2_6String4push.exit51, %bb7
  %_100117 = phi ptr [ %_20.i44, %_RNvMNtCsdJPVW0sQgAG_5alloc6stringNtB2_6String4push.exit51 ], [ %11, %bb7 ]
  %len.i52 = phi i64 [ %new_len.i47, %_RNvMNtCsdJPVW0sQgAG_5alloc6stringNtB2_6String4push.exit51 ], [ 2, %bb7 ]
  call void @llvm.lifetime.start.p0(i64 24, ptr nonnull %_15)
; invoke <colored::color::Color>::to_bg_str
  invoke void @_RNvMNtCshDvXgAkadjA_7colored5colorNtB2_5Color9to_bg_str(ptr noalias noundef nonnull sret([24 x i8]) align 8 captures(address) dereferenceable(24) %_15, ptr noalias noundef nonnull readonly align 1 captures(address, read_provenance) dereferenceable(4) %6)
          to label %bb10 unwind label %cleanup

bb16:                                             ; preds = %bb15, %bb45
  %self2.i.i = phi i64 [ %self2.i.i.pre, %bb15 ], [ %self2.i.i.pre123, %bb45 ]
  %len.i = phi i64 [ %68, %bb15 ], [ %len.i.pre, %bb45 ]
  call void @llvm.experimental.noalias.scope.decl(metadata !126)
  %_14.i = icmp sgt i64 %len.i, -1
  call void @llvm.assume(i1 %_14.i)
  %_7.i.i = icmp eq i64 %self2.i.i, %len.i
  br i1 %_7.i.i, label %bb1.i.i29, label %bb17, !prof !129

bb1.i.i29:                                        ; preds = %bb48, %bb16
  %len.i135 = phi i64 [ %len.i, %bb16 ], [ 2, %bb48 ]
  %self2.i.i133 = phi i64 [ %self2.i.i, %bb16 ], [ 2, %bb48 ]
; invoke <alloc::raw_vec::RawVecInner<_>>::reserve::do_reserve_and_handle::<alloc::alloc::Global>
  invoke fastcc void @_RINvNvMs2_NtCsdJPVW0sQgAG_5alloc7raw_vecINtB8_11RawVecInnerpE7reserve21do_reserve_and_handleNtNtBa_5alloc6GlobalECshDvXgAkadjA_7colored(ptr noalias noundef nonnull align 8 dereferenceable(24) %res, i64 noundef %self2.i.i133, i64 noundef 1, i64 noundef 1, i64 noundef 1)
          to label %.noexc30 unwind label %cleanup

.noexc30:                                         ; preds = %bb1.i.i29
  %count.pre.i = load i64, ptr %_32.sroa.6.0.res.sroa_idx, align 8, !alias.scope !126
  br label %bb17

bb13:                                             ; preds = %_RNvMNtCsdJPVW0sQgAG_5alloc6stringNtB2_6String4push.exit77, %bb48
  %_125121 = phi ptr [ %_20.i70, %_RNvMNtCsdJPVW0sQgAG_5alloc6stringNtB2_6String4push.exit77 ], [ %11, %bb48 ]
  %len.i78 = phi i64 [ %new_len.i73, %_RNvMNtCsdJPVW0sQgAG_5alloc6stringNtB2_6String4push.exit77 ], [ 2, %bb48 ]
  %fgcolor.sroa.0.0 = phi ptr [ %54, %_RNvMNtCsdJPVW0sQgAG_5alloc6stringNtB2_6String4push.exit77 ], [ %44, %bb48 ]
  call void @llvm.lifetime.start.p0(i64 24, ptr nonnull %_21)
; invoke <colored::color::Color>::to_fg_str
  invoke void @_RNvMNtCshDvXgAkadjA_7colored5colorNtB2_5Color9to_fg_str(ptr noalias noundef nonnull sret([24 x i8]) align 8 captures(address) dereferenceable(24) %_21, ptr noalias noundef nonnull readonly align 1 captures(address, read_provenance) dereferenceable(4) %fgcolor.sroa.0.0)
          to label %bb14 unwind label %cleanup

bb22:                                             ; preds = %bb2.i.i.i4.i.i.i87, %cleanup3, %cleanup3, %bb2.i.i.i4.i.i.i61, %cleanup2, %cleanup2, %bb2.i.i.i4.i.i35, %cleanup1, %cleanup, %bb2.i.i.i4.i32.i, %bb2.i.i.i4.i.i, %cleanup.i, %bb2.i.i.i4.i.i.i.i, %cleanup3.i.i.i
  %.pn = phi { ptr, i32 } [ %47, %cleanup ], [ %18, %bb2.i.i.i4.i.i.i.i ], [ %18, %cleanup3.i.i.i ], [ %25, %cleanup.i ], [ %25, %bb2.i.i.i4.i.i ], [ %eh.lpad-body.i, %bb2.i.i.i4.i32.i ], [ %48, %cleanup1 ], [ %48, %bb2.i.i.i4.i.i35 ], [ %59, %cleanup2 ], [ %59, %cleanup2 ], [ %59, %bb2.i.i.i4.i.i.i61 ], [ %66, %cleanup3 ], [ %66, %cleanup3 ], [ %66, %bb2.i.i.i4.i.i.i87 ]
  %res.val = load i64, ptr %res, align 8
  %46 = icmp eq i64 %res.val, 0
  br i1 %46, label %bb23, label %bb2.i.i.i4.i.i31

bb2.i.i.i4.i.i31:                                 ; preds = %bb22
  %res.val17 = load ptr, ptr %_32.sroa.4.0.res.sroa_idx, align 8, !nonnull !2, !noundef !2
; call __rustc::__rust_dealloc
  call void @_RNvCsKhRCbHf33p_7___rustc14___rust_dealloc(ptr noundef nonnull %res.val17, i64 noundef %res.val, i64 noundef range(i64 1, -9223372036854775807) 1) #23
  br label %bb23

cleanup:                                          ; preds = %bb1.i.i74, %bb1.i.i48, %bb1.i.i29, %bb3.i.i.i.i, %bb13, %bb9
  %47 = landingpad { ptr, i32 }
          cleanup
  br label %bb22

bb5:                                              ; preds = %bb13.i, %bb2.i.i.i4.i29.i
; call __rustc::__rust_dealloc
  call void @_RNvCsKhRCbHf33p_7___rustc14___rust_dealloc(ptr noundef nonnull %20, i64 noundef %_95.idx.i.i, i64 noundef range(i64 1, -9223372036854775807) 8) #23, !noalias !73
  %len.i32 = load i64, ptr %_32.sroa.6.0.res.sroa_idx, align 8, !alias.scope !130, !noundef !2
  %self2.i = load i64, ptr %res, align 8, !range !10, !alias.scope !130, !noundef !2
  %_9.i = sub i64 %self2.i, %len.i32
  %_7.i = icmp ugt i64 %result_len.i.i, %_9.i
  br i1 %_7.i, label %bb1.i, label %bb33, !prof !133

bb1.i:                                            ; preds = %bb5
; invoke <alloc::raw_vec::RawVecInner<_>>::reserve::do_reserve_and_handle::<alloc::alloc::Global>
  invoke fastcc void @_RINvNvMs2_NtCsdJPVW0sQgAG_5alloc7raw_vecINtB8_11RawVecInnerpE7reserve21do_reserve_and_handleNtNtBa_5alloc6GlobalECshDvXgAkadjA_7colored(ptr noalias noundef nonnull align 8 dereferenceable(24) %res, i64 noundef %len.i32, i64 noundef %result_len.i.i, i64 noundef 1, i64 noundef 1)
          to label %bb33 unwind label %cleanup1

cleanup1:                                         ; preds = %bb1.i
  %48 = landingpad { ptr, i32 }
          cleanup
  %49 = icmp eq i64 %_24.sroa.0.0.copyload39.i, 0
  br i1 %49, label %bb22, label %bb2.i.i.i4.i.i35

bb2.i.i.i4.i.i35:                                 ; preds = %cleanup1
  %50 = icmp ne ptr %_24.sroa.5.0.copyload40.i, null
  call void @llvm.assume(i1 %50)
; call __rustc::__rust_dealloc
  call void @_RNvCsKhRCbHf33p_7___rustc14___rust_dealloc(ptr noundef nonnull %_24.sroa.5.0.copyload40.i, i64 noundef %_24.sroa.0.0.copyload39.i, i64 noundef range(i64 1, -9223372036854775807) 1) #23
  br label %bb22

bb33:                                             ; preds = %_RNvMNtCshDvXgAkadjA_7colored5styleNtB2_6Styles7from_u8.exit.i, %bb5, %bb1.i
  %_8.sroa.0.0108 = phi i64 [ %_24.sroa.0.0.copyload39.i, %bb5 ], [ %_24.sroa.0.0.copyload39.i, %bb1.i ], [ 0, %_RNvMNtCshDvXgAkadjA_7colored5styleNtB2_6Styles7from_u8.exit.i ]
  %_8.sroa.6.0107 = phi ptr [ %_24.sroa.5.0.copyload40.i, %bb5 ], [ %_24.sroa.5.0.copyload40.i, %bb1.i ], [ inttoptr (i64 1 to ptr), %_RNvMNtCshDvXgAkadjA_7colored5styleNtB2_6Styles7from_u8.exit.i ]
  %_8.sroa.11.0106 = phi i64 [ %result_len.i.i, %bb5 ], [ %result_len.i.i, %bb1.i ], [ 0, %_RNvMNtCshDvXgAkadjA_7colored5styleNtB2_6Styles7from_u8.exit.i ]
  %_70 = load i64, ptr %_32.sroa.6.0.res.sroa_idx, align 8, !noundef !2
  %_74 = icmp sgt i64 %_70, -1
  call void @llvm.assume(i1 %_74)
  %_75 = load ptr, ptr %_32.sroa.4.0.res.sroa_idx, align 8, !nonnull !2, !noundef !2
  %_72 = getelementptr inbounds nuw i8, ptr %_75, i64 %_70
  call void @llvm.memcpy.p0.p0.i64(ptr nonnull align 1 %_72, ptr nonnull align 1 %_8.sroa.6.0107, i64 %_8.sroa.11.0106, i1 false)
  %51 = add i64 %_70, %_8.sroa.11.0106
  store i64 %51, ptr %_32.sroa.6.0.res.sroa_idx, align 8
  %52 = icmp eq i64 %_8.sroa.0.0108, 0
  br i1 %52, label %bb6, label %bb2.i.i.i4.i.i37

bb2.i.i.i4.i.i37:                                 ; preds = %bb33
  %53 = icmp ne ptr %_8.sroa.6.0107, null
  call void @llvm.assume(i1 %53)
; call __rustc::__rust_dealloc
  call void @_RNvCsKhRCbHf33p_7___rustc14___rust_dealloc(ptr noundef nonnull %_8.sroa.6.0107, i64 noundef %_8.sroa.0.0108, i64 noundef range(i64 1, -9223372036854775807) 1) #23
  %len.i.pre.pre.pre = load i64, ptr %_32.sroa.6.0.res.sroa_idx, align 8, !alias.scope !126
  br label %bb6

bb6:                                              ; preds = %bb2.i.i.i4.i.i37, %bb33
  %len.i.pre.pre = phi i64 [ %len.i.pre.pre.pre, %bb2.i.i.i4.i.i37 ], [ %51, %bb33 ]
  %self2.i.i.pre123.pre126 = load i64, ptr %res, align 8, !range !10, !alias.scope !134
  br i1 %.not, label %bb45, label %bb44

bb44:                                             ; preds = %bb6
  call void @llvm.experimental.noalias.scope.decl(metadata !137)
  %_14.i40 = icmp sgt i64 %len.i.pre.pre, -1
  call void @llvm.assume(i1 %_14.i40)
  %_7.i.i42 = icmp eq i64 %self2.i.i.pre123.pre126, %len.i.pre.pre
  br i1 %_7.i.i42, label %bb1.i.i48, label %_RNvMNtCsdJPVW0sQgAG_5alloc6stringNtB2_6String4push.exit51, !prof !13

bb1.i.i48:                                        ; preds = %bb44
; invoke <alloc::raw_vec::RawVecInner<_>>::reserve::do_reserve_and_handle::<alloc::alloc::Global>
  invoke fastcc void @_RINvNvMs2_NtCsdJPVW0sQgAG_5alloc7raw_vecINtB8_11RawVecInnerpE7reserve21do_reserve_and_handleNtNtBa_5alloc6GlobalECshDvXgAkadjA_7colored(ptr noalias noundef nonnull align 8 dereferenceable(24) %res, i64 noundef %len.i.pre.pre, i64 noundef 1, i64 noundef 1, i64 noundef 1)
          to label %.noexc50 unwind label %cleanup

.noexc50:                                         ; preds = %bb1.i.i48
  %count.pre.i49 = load i64, ptr %_32.sroa.6.0.res.sroa_idx, align 8, !alias.scope !137
  br label %_RNvMNtCsdJPVW0sQgAG_5alloc6stringNtB2_6String4push.exit51

_RNvMNtCsdJPVW0sQgAG_5alloc6stringNtB2_6String4push.exit51: ; preds = %bb44, %.noexc50
  %count.i43 = phi i64 [ %len.i.pre.pre, %bb44 ], [ %count.pre.i49, %.noexc50 ]
  %_20.i44 = load ptr, ptr %_32.sroa.4.0.res.sroa_idx, align 8, !alias.scope !137, !nonnull !2, !noundef !2
  %_21.i45 = icmp sgt i64 %count.i43, -1
  call void @llvm.assume(i1 %_21.i45)
  %_8.i46 = getelementptr inbounds nuw i8, ptr %_20.i44, i64 %count.i43
  store i8 59, ptr %_8.i46, align 1, !noalias !137
  %new_len.i47 = add nuw i64 %len.i.pre.pre, 1
  store i64 %new_len.i47, ptr %_32.sroa.6.0.res.sroa_idx, align 8, !alias.scope !137
  br label %bb9

bb45:                                             ; preds = %bb11, %bb6
  %self2.i.i.pre123 = phi i64 [ %self2.i.i.pre123.pre, %bb11 ], [ %self2.i.i.pre123.pre126, %bb6 ]
  %len.i.pre = phi i64 [ %61, %bb11 ], [ %len.i.pre.pre, %bb6 ]
  %54 = getelementptr inbounds nuw i8, ptr %self, i64 24
  %55 = load i8, ptr %54, align 8, !range !27, !noundef !2
  %.not14 = icmp eq i8 %55, 17
  br i1 %.not14, label %bb16, label %bb46

bb10:                                             ; preds = %bb9
  %56 = load i64, ptr %_15, align 8, !range !11, !noundef !2
  %57 = getelementptr inbounds nuw i8, ptr %_15, i64 8
  %_81 = load ptr, ptr %57, align 8
  %58 = getelementptr inbounds nuw i8, ptr %_15, i64 16
  %_80 = load i64, ptr %58, align 8
  %self2.i53 = load i64, ptr %res, align 8, !range !10, !alias.scope !140, !noundef !2
  %_9.i54 = sub i64 %self2.i53, %len.i52
  %_7.i55 = icmp ugt i64 %_80, %_9.i54
  br i1 %_7.i55, label %bb1.i57, label %bb38, !prof !13

bb1.i57:                                          ; preds = %bb10
; invoke <alloc::raw_vec::RawVecInner<_>>::reserve::do_reserve_and_handle::<alloc::alloc::Global>
  invoke fastcc void @_RINvNvMs2_NtCsdJPVW0sQgAG_5alloc7raw_vecINtB8_11RawVecInnerpE7reserve21do_reserve_and_handleNtNtBa_5alloc6GlobalECshDvXgAkadjA_7colored(ptr noalias noundef nonnull align 8 dereferenceable(24) %res, i64 noundef %len.i52, i64 noundef %_80, i64 noundef 1, i64 noundef 1)
          to label %bb1.i57.bb38_crit_edge unwind label %cleanup2

bb1.i57.bb38_crit_edge:                           ; preds = %bb1.i57
  %_95.pre = load i64, ptr %_32.sroa.6.0.res.sroa_idx, align 8
  %_100.pre = load ptr, ptr %_32.sroa.4.0.res.sroa_idx, align 8
  br label %bb38

cleanup2:                                         ; preds = %bb1.i57
  %59 = landingpad { ptr, i32 }
          cleanup
  switch i64 %56, label %bb2.i.i.i4.i.i.i61 [
    i64 -9223372036854775808, label %bb22
    i64 0, label %bb22
  ]

bb2.i.i.i4.i.i.i61:                               ; preds = %cleanup2
  %60 = icmp ne ptr %_81, null
  call void @llvm.assume(i1 %60)
; call __rustc::__rust_dealloc
  call void @_RNvCsKhRCbHf33p_7___rustc14___rust_dealloc(ptr noundef nonnull %_81, i64 noundef %56, i64 noundef range(i64 1, -9223372036854775807) 1) #23
  br label %bb22

bb38:                                             ; preds = %bb1.i57.bb38_crit_edge, %bb10
  %_100 = phi ptr [ %_100.pre, %bb1.i57.bb38_crit_edge ], [ %_100117, %bb10 ]
  %_95 = phi i64 [ %_95.pre, %bb1.i57.bb38_crit_edge ], [ %len.i52, %bb10 ]
  %_99 = icmp sgt i64 %_95, -1
  call void @llvm.assume(i1 %_99)
  %_97 = getelementptr inbounds nuw i8, ptr %_100, i64 %_95
  call void @llvm.memcpy.p0.p0.i64(ptr nonnull align 1 %_97, ptr nonnull align 1 %_81, i64 %_80, i1 false)
  %61 = add i64 %_95, %_80
  store i64 %61, ptr %_32.sroa.6.0.res.sroa_idx, align 8
  switch i64 %56, label %bb2.i.i.i4.i.i.i63 [
    i64 -9223372036854775808, label %bb11
    i64 0, label %bb11
  ]

bb2.i.i.i4.i.i.i63:                               ; preds = %bb38
  %62 = icmp ne ptr %_81, null
  call void @llvm.assume(i1 %62)
; call __rustc::__rust_dealloc
  call void @_RNvCsKhRCbHf33p_7___rustc14___rust_dealloc(ptr noundef nonnull %_81, i64 noundef %56, i64 noundef range(i64 1, -9223372036854775807) 1) #23
  br label %bb11

bb11:                                             ; preds = %bb2.i.i.i4.i.i.i63, %bb38, %bb38
  call void @llvm.lifetime.end.p0(i64 24, ptr nonnull %_15)
  %self2.i.i.pre123.pre = load i64, ptr %res, align 8, !range !10, !alias.scope !134
  br label %bb45

bb46:                                             ; preds = %bb45
  call void @llvm.experimental.noalias.scope.decl(metadata !143)
  %_14.i66 = icmp sgt i64 %len.i.pre, -1
  call void @llvm.assume(i1 %_14.i66)
  %_7.i.i68 = icmp eq i64 %self2.i.i.pre123, %len.i.pre
  br i1 %_7.i.i68, label %bb1.i.i74, label %_RNvMNtCsdJPVW0sQgAG_5alloc6stringNtB2_6String4push.exit77, !prof !13

bb1.i.i74:                                        ; preds = %bb46
; invoke <alloc::raw_vec::RawVecInner<_>>::reserve::do_reserve_and_handle::<alloc::alloc::Global>
  invoke fastcc void @_RINvNvMs2_NtCsdJPVW0sQgAG_5alloc7raw_vecINtB8_11RawVecInnerpE7reserve21do_reserve_and_handleNtNtBa_5alloc6GlobalECshDvXgAkadjA_7colored(ptr noalias noundef nonnull align 8 dereferenceable(24) %res, i64 noundef %self2.i.i.pre123, i64 noundef 1, i64 noundef 1, i64 noundef 1)
          to label %.noexc76 unwind label %cleanup

.noexc76:                                         ; preds = %bb1.i.i74
  %count.pre.i75 = load i64, ptr %_32.sroa.6.0.res.sroa_idx, align 8, !alias.scope !143
  br label %_RNvMNtCsdJPVW0sQgAG_5alloc6stringNtB2_6String4push.exit77

_RNvMNtCsdJPVW0sQgAG_5alloc6stringNtB2_6String4push.exit77: ; preds = %bb46, %.noexc76
  %count.i69 = phi i64 [ %len.i.pre, %bb46 ], [ %count.pre.i75, %.noexc76 ]
  %_20.i70 = load ptr, ptr %_32.sroa.4.0.res.sroa_idx, align 8, !alias.scope !143, !nonnull !2, !noundef !2
  %_21.i71 = icmp sgt i64 %count.i69, -1
  call void @llvm.assume(i1 %_21.i71)
  %_8.i72 = getelementptr inbounds nuw i8, ptr %_20.i70, i64 %count.i69
  store i8 59, ptr %_8.i72, align 1, !noalias !143
  %new_len.i73 = add nuw i64 %len.i.pre, 1
  store i64 %new_len.i73, ptr %_32.sroa.6.0.res.sroa_idx, align 8, !alias.scope !143
  br label %bb13

bb14:                                             ; preds = %bb13
  %63 = load i64, ptr %_21, align 8, !range !11, !noundef !2
  %64 = getelementptr inbounds nuw i8, ptr %_21, i64 8
  %_106 = load ptr, ptr %64, align 8
  %65 = getelementptr inbounds nuw i8, ptr %_21, i64 16
  %_105 = load i64, ptr %65, align 8
  %self2.i79 = load i64, ptr %res, align 8, !range !10, !alias.scope !146, !noundef !2
  %_9.i80 = sub i64 %self2.i79, %len.i78
  %_7.i81 = icmp ugt i64 %_105, %_9.i80
  br i1 %_7.i81, label %bb1.i83, label %bb43, !prof !13

bb1.i83:                                          ; preds = %bb14
; invoke <alloc::raw_vec::RawVecInner<_>>::reserve::do_reserve_and_handle::<alloc::alloc::Global>
  invoke fastcc void @_RINvNvMs2_NtCsdJPVW0sQgAG_5alloc7raw_vecINtB8_11RawVecInnerpE7reserve21do_reserve_and_handleNtNtBa_5alloc6GlobalECshDvXgAkadjA_7colored(ptr noalias noundef nonnull align 8 dereferenceable(24) %res, i64 noundef %len.i78, i64 noundef %_105, i64 noundef 1, i64 noundef 1)
          to label %bb1.i83.bb43_crit_edge unwind label %cleanup3

bb1.i83.bb43_crit_edge:                           ; preds = %bb1.i83
  %_120.pre = load i64, ptr %_32.sroa.6.0.res.sroa_idx, align 8
  %_125.pre = load ptr, ptr %_32.sroa.4.0.res.sroa_idx, align 8
  br label %bb43

cleanup3:                                         ; preds = %bb1.i83
  %66 = landingpad { ptr, i32 }
          cleanup
  switch i64 %63, label %bb2.i.i.i4.i.i.i87 [
    i64 -9223372036854775808, label %bb22
    i64 0, label %bb22
  ]

bb2.i.i.i4.i.i.i87:                               ; preds = %cleanup3
  %67 = icmp ne ptr %_106, null
  call void @llvm.assume(i1 %67)
; call __rustc::__rust_dealloc
  call void @_RNvCsKhRCbHf33p_7___rustc14___rust_dealloc(ptr noundef nonnull %_106, i64 noundef %63, i64 noundef range(i64 1, -9223372036854775807) 1) #23
  br label %bb22

bb43:                                             ; preds = %bb1.i83.bb43_crit_edge, %bb14
  %_125 = phi ptr [ %_125.pre, %bb1.i83.bb43_crit_edge ], [ %_125121, %bb14 ]
  %_120 = phi i64 [ %_120.pre, %bb1.i83.bb43_crit_edge ], [ %len.i78, %bb14 ]
  %_124 = icmp sgt i64 %_120, -1
  call void @llvm.assume(i1 %_124)
  %_122 = getelementptr inbounds nuw i8, ptr %_125, i64 %_120
  call void @llvm.memcpy.p0.p0.i64(ptr nonnull align 1 %_122, ptr nonnull align 1 %_106, i64 %_105, i1 false)
  %68 = add i64 %_120, %_105
  store i64 %68, ptr %_32.sroa.6.0.res.sroa_idx, align 8
  switch i64 %63, label %bb2.i.i.i4.i.i.i90 [
    i64 -9223372036854775808, label %bb15
    i64 0, label %bb15
  ]

bb2.i.i.i4.i.i.i90:                               ; preds = %bb43
  %69 = icmp ne ptr %_106, null
  call void @llvm.assume(i1 %69)
; call __rustc::__rust_dealloc
  call void @_RNvCsKhRCbHf33p_7___rustc14___rust_dealloc(ptr noundef nonnull %_106, i64 noundef %63, i64 noundef range(i64 1, -9223372036854775807) 1) #23
  br label %bb15

bb15:                                             ; preds = %bb2.i.i.i4.i.i.i90, %bb43, %bb43
  call void @llvm.lifetime.end.p0(i64 24, ptr nonnull %_21)
  %self2.i.i.pre = load i64, ptr %res, align 8, !range !10, !alias.scope !134
  br label %bb16

bb17:                                             ; preds = %.noexc30, %bb16
  %len.i134 = phi i64 [ %len.i, %bb16 ], [ %len.i135, %.noexc30 ]
  %count.i = phi i64 [ %len.i, %bb16 ], [ %count.pre.i, %.noexc30 ]
  %_20.i = load ptr, ptr %_32.sroa.4.0.res.sroa_idx, align 8, !alias.scope !126, !nonnull !2, !noundef !2
  %_21.i = icmp sgt i64 %count.i, -1
  call void @llvm.assume(i1 %_21.i)
  %_8.i = getelementptr inbounds nuw i8, ptr %_20.i, i64 %count.i
  store i8 109, ptr %_8.i, align 1, !noalias !126
  %new_len.i = add nuw i64 %len.i134, 1
  store i64 %new_len.i, ptr %_32.sroa.6.0.res.sroa_idx, align 8, !alias.scope !126
  call void @llvm.memcpy.p0.p0.i64(ptr noundef nonnull align 8 dereferenceable(24) %_0, ptr noundef nonnull align 8 dereferenceable(24) %res, i64 24, i1 false)
  call void @llvm.lifetime.end.p0(i64 24, ptr nonnull %res)
  br label %bb18

bb18:                                             ; preds = %bb27, %bb17
  ret void

bb23:                                             ; preds = %bb2.i.i.i4.i.i31, %bb22
  resume { ptr, i32 } %.pn
}

; <colored::color::Color>::closest_color_euclidean
; Function Attrs: uwtable
define internal fastcc i32 @_RNvMNtCshDvXgAkadjA_7colored5colorNtB2_5Color23closest_color_euclidean(i32 %0) unnamed_addr #3 personality ptr @rust_eh_personality {
start:
  %args.i.i.i.i.i.i.i = alloca [16 x i8], align 8
  %c.i.i.i.i.i.i.i = alloca [4 x i8], align 4
  %args.i.i.i = alloca [16 x i8], align 8
  %c.i.i.i = alloca [4 x i8], align 4
  %1 = insertelement <2 x i32> poison, i32 %0, i64 0
  %2 = shufflevector <2 x i32> %1, <2 x i32> poison, <2 x i32> zeroinitializer
  %3 = lshr <2 x i32> %2, <i32 16, i32 8>
  %.sroa.6.0.extract.shift = lshr i32 %0, 24
  %.sroa.0.0.extract.trunc.mask = and i32 %0, 255
  %4 = icmp eq i32 %.sroa.0.0.extract.trunc.mask, 16
  br i1 %4, label %bb2, label %bb1

bb2:                                              ; preds = %start
  %5 = trunc <2 x i32> %3 to <2 x i8>
  %6 = trunc <2 x i32> %3 to <2 x i8>
  %.sroa.6.0.extract.trunc = trunc nuw i32 %.sroa.6.0.extract.shift to i8
; call __rustc::__rust_no_alloc_shim_is_unstable_v2
  tail call void @_RNvCsKhRCbHf33p_7___rustc35___rust_no_alloc_shim_is_unstable_v2() #23
; call __rustc::__rust_alloc
  %7 = tail call noundef dereferenceable_or_null(64) ptr @_RNvCsKhRCbHf33p_7___rustc12___rust_alloc(i64 noundef 64, i64 noundef 1) #23
  %8 = icmp eq ptr %7, null
  br i1 %8, label %bb5, label %_RNvXs4_NtNtCsdJPVW0sQgAG_5alloc3vec9into_iterINtB5_8IntoIterNtNtCshDvXgAkadjA_7colored5color5ColorENtNtNtNtCsjMrxcFdYDNN_4core4iter6traits8iterator8Iterator4nextB10_.exit.i.i.i, !prof !13

bb1:                                              ; preds = %start
  %.sroa.0.0.extract.trunc = trunc i32 %0 to i8
  %9 = extractelement <2 x i32> %3, i64 0
  %10 = extractelement <2 x i32> %3, i64 1
  br label %bb3

bb5:                                              ; preds = %bb2
; call alloc::alloc::handle_alloc_error
  tail call void @_RNvNtCsdJPVW0sQgAG_5alloc5alloc18handle_alloc_error(i64 noundef 1, i64 noundef 64) #24
  unreachable

_RNvXs4_NtNtCsdJPVW0sQgAG_5alloc3vec9into_iterINtB5_8IntoIterNtNtCshDvXgAkadjA_7colored5color5ColorENtNtNtNtCsjMrxcFdYDNN_4core4iter6traits8iterator8Iterator4nextB10_.exit.i.i.i: ; preds = %bb2
  store i8 0, ptr %7, align 1
  %.ptr = getelementptr inbounds nuw i8, ptr %7, i64 4
  store i8 1, ptr %.ptr, align 1
  %11 = getelementptr inbounds nuw i8, ptr %7, i64 8
  store i8 2, ptr %11, align 1
  %12 = getelementptr inbounds nuw i8, ptr %7, i64 12
  store i8 3, ptr %12, align 1
  %13 = getelementptr inbounds nuw i8, ptr %7, i64 16
  store i8 4, ptr %13, align 1
  %14 = getelementptr inbounds nuw i8, ptr %7, i64 20
  store i8 5, ptr %14, align 1
  %15 = getelementptr inbounds nuw i8, ptr %7, i64 24
  store i8 6, ptr %15, align 1
  %16 = getelementptr inbounds nuw i8, ptr %7, i64 28
  store i8 7, ptr %16, align 1
  %17 = getelementptr inbounds nuw i8, ptr %7, i64 32
  store i8 8, ptr %17, align 1
  %18 = getelementptr inbounds nuw i8, ptr %7, i64 36
  store i8 9, ptr %18, align 1
  %19 = getelementptr inbounds nuw i8, ptr %7, i64 40
  store i8 10, ptr %19, align 1
  %20 = getelementptr inbounds nuw i8, ptr %7, i64 44
  store i8 11, ptr %20, align 1
  %21 = getelementptr inbounds nuw i8, ptr %7, i64 48
  store i8 12, ptr %21, align 1
  %22 = getelementptr inbounds nuw i8, ptr %7, i64 52
  store i8 13, ptr %22, align 1
  %23 = getelementptr inbounds nuw i8, ptr %7, i64 56
  store i8 14, ptr %23, align 1
  %24 = getelementptr inbounds nuw i8, ptr %7, i64 60
  store i8 15, ptr %24, align 1
  %_17.sroa.0.0.copyload.i.i.i.i = load i32, ptr %7, align 1, !noalias !149
  %25 = and i32 %_17.sroa.0.0.copyload.i.i.i.i, 255
  %.not.i.i.i = icmp eq i32 %25, 17
  br i1 %.not.i.i.i, label %_RINvYINtNtNtNtCsjMrxcFdYDNN_4core4iter8adapters3map3MapIB4_INtNtNtCsdJPVW0sQgAG_5alloc3vec9into_iter8IntoIterNtNtCshDvXgAkadjA_7colored5color5ColorENCNvMB1L_B1J_23closest_color_euclidean0ENCB2o_s_0ENtNtNtBa_6traits8iterator8Iterator6reduceNCINvNvB3a_6min_by4foldTB1J_mENCB2o_s0_0E0EB1N_.exit.thread, label %bb5.i.i.i

bb5.i.i.i:                                        ; preds = %_RNvXs4_NtNtCsdJPVW0sQgAG_5alloc3vec9into_iterINtB5_8IntoIterNtNtCshDvXgAkadjA_7colored5color5ColorENtNtNtNtCsjMrxcFdYDNN_4core4iter6traits8iterator8Iterator4nextB10_.exit.i.i.i
  %trunc.i.i.i.i.i = trunc i32 %_17.sroa.0.0.copyload.i.i.i.i to i8
  switch i8 %trunc.i.i.i.i.i, label %bb1.i.i.i.i.i [
    i8 0, label %_RNvXs0_NtNtNtCsjMrxcFdYDNN_4core4iter8adapters3mapINtB5_3MapINtNtNtCsdJPVW0sQgAG_5alloc3vec9into_iter8IntoIterNtNtCshDvXgAkadjA_7colored5color5ColorENCNvMB1M_B1K_23closest_color_euclidean0ENtNtNtB9_6traits8iterator8Iterator4nextB1O_.exit.i.i
    i8 1, label %bb17.i.i.i.i.i
    i8 2, label %bb16.i.i.i.i.i
    i8 3, label %bb15.i.i.i.i.i
    i8 4, label %bb14.i.i.i.i.i
    i8 5, label %bb13.i.i.i.i.i
    i8 6, label %bb12.i.i.i.i.i
    i8 7, label %bb11.i.i.i.i.i
    i8 8, label %bb10.i.i.i.i.i
    i8 9, label %bb9.i.i.i.i.i
    i8 10, label %bb8.i.i.i.i.i
    i8 11, label %bb7.i.i.i.i.i
    i8 12, label %bb6.i.i.i.i.i
    i8 13, label %bb5.i.i.i.i.i
    i8 14, label %bb4.i.i.i.i.i
    i8 15, label %bb3.i.i.i.i.i
    i8 16, label %bb2.i.i.i.i.i
  ]

bb1.i.i.i.i.i:                                    ; preds = %bb5.i.i.i
  unreachable

bb17.i.i.i.i.i:                                   ; preds = %bb5.i.i.i
  br label %_RNvXs0_NtNtNtCsjMrxcFdYDNN_4core4iter8adapters3mapINtB5_3MapINtNtNtCsdJPVW0sQgAG_5alloc3vec9into_iter8IntoIterNtNtCshDvXgAkadjA_7colored5color5ColorENCNvMB1M_B1K_23closest_color_euclidean0ENtNtNtB9_6traits8iterator8Iterator4nextB1O_.exit.i.i

bb16.i.i.i.i.i:                                   ; preds = %bb5.i.i.i
  br label %_RNvXs0_NtNtNtCsjMrxcFdYDNN_4core4iter8adapters3mapINtB5_3MapINtNtNtCsdJPVW0sQgAG_5alloc3vec9into_iter8IntoIterNtNtCshDvXgAkadjA_7colored5color5ColorENCNvMB1M_B1K_23closest_color_euclidean0ENtNtNtB9_6traits8iterator8Iterator4nextB1O_.exit.i.i

bb15.i.i.i.i.i:                                   ; preds = %bb5.i.i.i
  br label %_RNvXs0_NtNtNtCsjMrxcFdYDNN_4core4iter8adapters3mapINtB5_3MapINtNtNtCsdJPVW0sQgAG_5alloc3vec9into_iter8IntoIterNtNtCshDvXgAkadjA_7colored5color5ColorENCNvMB1M_B1K_23closest_color_euclidean0ENtNtNtB9_6traits8iterator8Iterator4nextB1O_.exit.i.i

bb14.i.i.i.i.i:                                   ; preds = %bb5.i.i.i
  br label %_RNvXs0_NtNtNtCsjMrxcFdYDNN_4core4iter8adapters3mapINtB5_3MapINtNtNtCsdJPVW0sQgAG_5alloc3vec9into_iter8IntoIterNtNtCshDvXgAkadjA_7colored5color5ColorENCNvMB1M_B1K_23closest_color_euclidean0ENtNtNtB9_6traits8iterator8Iterator4nextB1O_.exit.i.i

bb13.i.i.i.i.i:                                   ; preds = %bb5.i.i.i
  br label %_RNvXs0_NtNtNtCsjMrxcFdYDNN_4core4iter8adapters3mapINtB5_3MapINtNtNtCsdJPVW0sQgAG_5alloc3vec9into_iter8IntoIterNtNtCshDvXgAkadjA_7colored5color5ColorENCNvMB1M_B1K_23closest_color_euclidean0ENtNtNtB9_6traits8iterator8Iterator4nextB1O_.exit.i.i

bb12.i.i.i.i.i:                                   ; preds = %bb5.i.i.i
  br label %_RNvXs0_NtNtNtCsjMrxcFdYDNN_4core4iter8adapters3mapINtB5_3MapINtNtNtCsdJPVW0sQgAG_5alloc3vec9into_iter8IntoIterNtNtCshDvXgAkadjA_7colored5color5ColorENCNvMB1M_B1K_23closest_color_euclidean0ENtNtNtB9_6traits8iterator8Iterator4nextB1O_.exit.i.i

bb11.i.i.i.i.i:                                   ; preds = %bb5.i.i.i
  br label %_RNvXs0_NtNtNtCsjMrxcFdYDNN_4core4iter8adapters3mapINtB5_3MapINtNtNtCsdJPVW0sQgAG_5alloc3vec9into_iter8IntoIterNtNtCshDvXgAkadjA_7colored5color5ColorENCNvMB1M_B1K_23closest_color_euclidean0ENtNtNtB9_6traits8iterator8Iterator4nextB1O_.exit.i.i

bb10.i.i.i.i.i:                                   ; preds = %bb5.i.i.i
  br label %_RNvXs0_NtNtNtCsjMrxcFdYDNN_4core4iter8adapters3mapINtB5_3MapINtNtNtCsdJPVW0sQgAG_5alloc3vec9into_iter8IntoIterNtNtCshDvXgAkadjA_7colored5color5ColorENCNvMB1M_B1K_23closest_color_euclidean0ENtNtNtB9_6traits8iterator8Iterator4nextB1O_.exit.i.i

bb9.i.i.i.i.i:                                    ; preds = %bb5.i.i.i
  br label %_RNvXs0_NtNtNtCsjMrxcFdYDNN_4core4iter8adapters3mapINtB5_3MapINtNtNtCsdJPVW0sQgAG_5alloc3vec9into_iter8IntoIterNtNtCshDvXgAkadjA_7colored5color5ColorENCNvMB1M_B1K_23closest_color_euclidean0ENtNtNtB9_6traits8iterator8Iterator4nextB1O_.exit.i.i

bb8.i.i.i.i.i:                                    ; preds = %bb5.i.i.i
  br label %_RNvXs0_NtNtNtCsjMrxcFdYDNN_4core4iter8adapters3mapINtB5_3MapINtNtNtCsdJPVW0sQgAG_5alloc3vec9into_iter8IntoIterNtNtCshDvXgAkadjA_7colored5color5ColorENCNvMB1M_B1K_23closest_color_euclidean0ENtNtNtB9_6traits8iterator8Iterator4nextB1O_.exit.i.i

bb7.i.i.i.i.i:                                    ; preds = %bb5.i.i.i
  br label %_RNvXs0_NtNtNtCsjMrxcFdYDNN_4core4iter8adapters3mapINtB5_3MapINtNtNtCsdJPVW0sQgAG_5alloc3vec9into_iter8IntoIterNtNtCshDvXgAkadjA_7colored5color5ColorENCNvMB1M_B1K_23closest_color_euclidean0ENtNtNtB9_6traits8iterator8Iterator4nextB1O_.exit.i.i

bb6.i.i.i.i.i:                                    ; preds = %bb5.i.i.i
  br label %_RNvXs0_NtNtNtCsjMrxcFdYDNN_4core4iter8adapters3mapINtB5_3MapINtNtNtCsdJPVW0sQgAG_5alloc3vec9into_iter8IntoIterNtNtCshDvXgAkadjA_7colored5color5ColorENCNvMB1M_B1K_23closest_color_euclidean0ENtNtNtB9_6traits8iterator8Iterator4nextB1O_.exit.i.i

bb5.i.i.i.i.i:                                    ; preds = %bb5.i.i.i
  br label %_RNvXs0_NtNtNtCsjMrxcFdYDNN_4core4iter8adapters3mapINtB5_3MapINtNtNtCsdJPVW0sQgAG_5alloc3vec9into_iter8IntoIterNtNtCshDvXgAkadjA_7colored5color5ColorENCNvMB1M_B1K_23closest_color_euclidean0ENtNtNtB9_6traits8iterator8Iterator4nextB1O_.exit.i.i

bb4.i.i.i.i.i:                                    ; preds = %bb5.i.i.i
  br label %_RNvXs0_NtNtNtCsjMrxcFdYDNN_4core4iter8adapters3mapINtB5_3MapINtNtNtCsdJPVW0sQgAG_5alloc3vec9into_iter8IntoIterNtNtCshDvXgAkadjA_7colored5color5ColorENCNvMB1M_B1K_23closest_color_euclidean0ENtNtNtB9_6traits8iterator8Iterator4nextB1O_.exit.i.i

bb3.i.i.i.i.i:                                    ; preds = %bb5.i.i.i
  br label %_RNvXs0_NtNtNtCsjMrxcFdYDNN_4core4iter8adapters3mapINtB5_3MapINtNtNtCsdJPVW0sQgAG_5alloc3vec9into_iter8IntoIterNtNtCshDvXgAkadjA_7colored5color5ColorENCNvMB1M_B1K_23closest_color_euclidean0ENtNtNtB9_6traits8iterator8Iterator4nextB1O_.exit.i.i

bb2.i.i.i.i.i:                                    ; preds = %bb5.i.i.i
  %.sroa.6.0.extract.shift.i.i.i.i.i = and i32 %_17.sroa.0.0.copyload.i.i.i.i, -16777216
  %26 = insertelement <2 x i32> poison, i32 %_17.sroa.0.0.copyload.i.i.i.i, i64 0
  %27 = shufflevector <2 x i32> %26, <2 x i32> poison, <2 x i32> zeroinitializer
  %28 = and <2 x i32> %27, <i32 16711680, i32 65280>
  br label %_RNvXs0_NtNtNtCsjMrxcFdYDNN_4core4iter8adapters3mapINtB5_3MapINtNtNtCsdJPVW0sQgAG_5alloc3vec9into_iter8IntoIterNtNtCshDvXgAkadjA_7colored5color5ColorENCNvMB1M_B1K_23closest_color_euclidean0ENtNtNtB9_6traits8iterator8Iterator4nextB1O_.exit.i.i

_RNvXs0_NtNtNtCsjMrxcFdYDNN_4core4iter8adapters3mapINtB5_3MapINtNtNtCsdJPVW0sQgAG_5alloc3vec9into_iter8IntoIterNtNtCshDvXgAkadjA_7colored5color5ColorENCNvMB1M_B1K_23closest_color_euclidean0ENtNtNtB9_6traits8iterator8Iterator4nextB1O_.exit.i.i: ; preds = %bb2.i.i.i.i.i, %bb3.i.i.i.i.i, %bb4.i.i.i.i.i, %bb5.i.i.i.i.i, %bb6.i.i.i.i.i, %bb7.i.i.i.i.i, %bb8.i.i.i.i.i, %bb9.i.i.i.i.i, %bb10.i.i.i.i.i, %bb11.i.i.i.i.i, %bb12.i.i.i.i.i, %bb13.i.i.i.i.i, %bb14.i.i.i.i.i, %bb15.i.i.i.i.i, %bb16.i.i.i.i.i, %bb17.i.i.i.i.i, %bb5.i.i.i
  %_0.sroa.0.0.i.i.i.i.i = phi i32 [ 16, %bb17.i.i.i.i.i ], [ 16, %bb16.i.i.i.i.i ], [ 16, %bb15.i.i.i.i.i ], [ 16, %bb14.i.i.i.i.i ], [ 16, %bb13.i.i.i.i.i ], [ 16, %bb12.i.i.i.i.i ], [ 16, %bb11.i.i.i.i.i ], [ 16, %bb10.i.i.i.i.i ], [ 16, %bb9.i.i.i.i.i ], [ 16, %bb8.i.i.i.i.i ], [ 16, %bb7.i.i.i.i.i ], [ 16, %bb6.i.i.i.i.i ], [ 16, %bb5.i.i.i.i.i ], [ 16, %bb4.i.i.i.i.i ], [ 16, %bb3.i.i.i.i.i ], [ %25, %bb2.i.i.i.i.i ], [ 16, %bb5.i.i.i ]
  %_0.sroa.52.0.i.i.i.i.i = phi i32 [ 0, %bb17.i.i.i.i.i ], [ 0, %bb16.i.i.i.i.i ], [ 0, %bb15.i.i.i.i.i ], [ -301989888, %bb14.i.i.i.i.i ], [ -855638016, %bb13.i.i.i.i.i ], [ -855638016, %bb12.i.i.i.i.i ], [ -452984832, %bb11.i.i.i.i.i ], [ 2130706432, %bb10.i.i.i.i.i ], [ 0, %bb9.i.i.i.i.i ], [ 0, %bb8.i.i.i.i.i ], [ 0, %bb7.i.i.i.i.i ], [ -16777216, %bb6.i.i.i.i.i ], [ -16777216, %bb5.i.i.i.i.i ], [ -16777216, %bb4.i.i.i.i.i ], [ -16777216, %bb3.i.i.i.i.i ], [ %.sroa.6.0.extract.shift.i.i.i.i.i, %bb2.i.i.i.i.i ], [ 0, %bb5.i.i.i ]
  %29 = phi <2 x i32> [ <i32 0, i32 52480>, %bb17.i.i.i.i.i ], [ <i32 13434880, i32 0>, %bb16.i.i.i.i.i ], [ <i32 13434880, i32 52480>, %bb15.i.i.i.i.i ], [ zeroinitializer, %bb14.i.i.i.i.i ], [ <i32 0, i32 52480>, %bb13.i.i.i.i.i ], [ <i32 13434880, i32 0>, %bb12.i.i.i.i.i ], [ <i32 15007744, i32 58624>, %bb11.i.i.i.i.i ], [ <i32 8323072, i32 32512>, %bb10.i.i.i.i.i ], [ <i32 0, i32 65280>, %bb9.i.i.i.i.i ], [ <i32 16711680, i32 0>, %bb8.i.i.i.i.i ], [ <i32 16711680, i32 65280>, %bb7.i.i.i.i.i ], [ <i32 6029312, i32 23552>, %bb6.i.i.i.i.i ], [ <i32 0, i32 65280>, %bb5.i.i.i.i.i ], [ <i32 16711680, i32 0>, %bb4.i.i.i.i.i ], [ <i32 16711680, i32 65280>, %bb3.i.i.i.i.i ], [ %28, %bb2.i.i.i.i.i ], [ zeroinitializer, %bb5.i.i.i ]
  %_0.sroa.0.0.insert.ext.i.i.i.i = zext i32 %_17.sroa.0.0.copyload.i.i.i.i to i64
  %30 = and i64 %_0.sroa.0.0.insert.ext.i.i.i.i, 255
  %.not.i.i = icmp eq i64 %30, 17
  br i1 %.not.i.i, label %_RINvYINtNtNtNtCsjMrxcFdYDNN_4core4iter8adapters3map3MapIB4_INtNtNtCsdJPVW0sQgAG_5alloc3vec9into_iter8IntoIterNtNtCshDvXgAkadjA_7colored5color5ColorENCNvMB1L_B1J_23closest_color_euclidean0ENCB2o_s_0ENtNtNtBa_6traits8iterator8Iterator6reduceNCINvNvB3a_6min_by4foldTB1J_mENCB2o_s0_0E0EB1N_.exit.thread, label %bb5.i.i

bb5.i.i:                                          ; preds = %_RNvXs0_NtNtNtCsjMrxcFdYDNN_4core4iter8adapters3mapINtB5_3MapINtNtNtCsdJPVW0sQgAG_5alloc3vec9into_iter8IntoIterNtNtCshDvXgAkadjA_7colored5color5ColorENCNvMB1M_B1K_23closest_color_euclidean0ENtNtNtB9_6traits8iterator8Iterator4nextB1O_.exit.i.i
  %31 = extractelement <2 x i32> %29, i64 1
  %32 = extractelement <2 x i32> %29, i64 0
  %33 = or disjoint i32 %31, %32
  %34 = or disjoint i32 %33, %_0.sroa.0.0.i.i.i.i.i
  %_0.sroa.0.0.insert.insert.i.i.i.i.i = or disjoint i32 %34, %_0.sroa.52.0.i.i.i.i.i
  call void @llvm.lifetime.start.p0(i64 4, ptr nonnull %c.i.i.i), !noalias !158
  store i32 %_0.sroa.0.0.insert.insert.i.i.i.i.i, ptr %c.i.i.i, align 4, !noalias !158
  %35 = icmp eq i32 %_0.sroa.0.0.i.i.i.i.i, 16
  br i1 %35, label %bb12.i, label %bb5.i6.i.i, !prof !24

bb5.i6.i.i:                                       ; preds = %bb5.i.i
  call void @llvm.lifetime.start.p0(i64 16, ptr nonnull %args.i.i.i), !noalias !158
  store ptr %c.i.i.i, ptr %args.i.i.i, align 8, !noalias !158
  %_36.sroa.4.0..sroa_idx.i.i.i = getelementptr inbounds nuw i8, ptr %args.i.i.i, i64 8
  store ptr @_RNvXs5_NtCshDvXgAkadjA_7colored5colorNtB5_5ColorNtNtCsjMrxcFdYDNN_4core3fmt5Debug3fmt, ptr %_36.sroa.4.0..sroa_idx.i.i.i, align 8, !noalias !158
; invoke core::panicking::panic_fmt
  invoke void @_RNvNtCsjMrxcFdYDNN_4core9panicking9panic_fmt(ptr noundef nonnull @alloc_f9ceb740a12f0ef7d1d4affe11fbde22, ptr noundef nonnull %args.i.i.i, ptr noalias noundef readonly align 8 captures(address, read_provenance) dereferenceable(24) @alloc_1bf7c10d52bec4028941f119a628db49) #22
          to label %.noexc.i unwind label %bb2.i.i.i.i.i4.i.i.i.i12.i, !noalias !161

.noexc.i:                                         ; preds = %bb5.i6.i.i
  unreachable

bb12.i:                                           ; preds = %bb5.i.i
  call void @llvm.lifetime.end.p0(i64 4, ptr nonnull %c.i.i.i), !noalias !158
  %36 = lshr exact <2 x i32> %29, <i32 16, i32 8>
  %37 = trunc <2 x i32> %36 to <2 x i8>
  %38 = tail call <2 x i8> @llvm.umax.v2i8(<2 x i8> %6, <2 x i8> %37)
  %39 = tail call <2 x i8> @llvm.umin.v2i8(<2 x i8> %6, <2 x i8> %37)
  %40 = sub <2 x i8> %38, %39
  %41 = zext <2 x i8> %40 to <2 x i32>
  %42 = mul nuw nsw <2 x i32> %41, %41
  %shift = shufflevector <2 x i32> %42, <2 x i32> poison, <2 x i32> <i32 1, i32 poison>
  %43 = add nuw nsw <2 x i32> %42, %shift
  %_28.i.i.i = extractelement <2 x i32> %43, i64 0
  %44 = lshr exact i32 %_0.sroa.52.0.i.i.i.i.i, 24
  %45 = trunc nuw i32 %44 to i8
  %_0.sroa.0.0.i7.i.i.i = tail call noundef i8 @llvm.umax.i8(i8 %.sroa.6.0.extract.trunc, i8 %45)
  %_0.sroa.0.0.i8.i.i.i = tail call noundef i8 @llvm.umin.i8(i8 %.sroa.6.0.extract.trunc, i8 %45)
  %bd.i.i.i = sub i8 %_0.sroa.0.0.i7.i.i.i, %_0.sroa.0.0.i8.i.i.i
  %bd3.i.i.i = zext i8 %bd.i.i.i to i32
  %_13.0.i10.i.i.i = mul nuw nsw i32 %bd3.i.i.i, %bd3.i.i.i
  %distance.i.i.i = add nuw nsw i32 %_28.i.i.i, %_13.0.i10.i.i.i
  %_0.sroa.2.0.insert.ext.i.i.i = zext nneg i32 %distance.i.i.i to i64
  %_0.sroa.2.0.insert.shift.i.i.i = shl nuw nsw i64 %_0.sroa.2.0.insert.ext.i.i.i, 32
  %_0.sroa.0.0.insert.insert.i7.i.i = or disjoint i64 %_0.sroa.2.0.insert.shift.i.i.i, %_0.sroa.0.0.insert.ext.i.i.i.i
  br label %bb6.i.i.i.i

bb6.i.i.i.i:                                      ; preds = %bb12.i, %_RNCINvNtNtNtCsjMrxcFdYDNN_4core4iter8adapters3map8map_foldNtNtCshDvXgAkadjA_7colored5color5ColorTBU_BU_ETBU_mENCNvMBW_BU_23closest_color_euclidean0NCIB2_B1w_B1E_B1E_NCB1M_s_0NCINvNvNtNtNtB8_6traits8iterator8Iterator6min_by4foldB1E_NCB1M_s0_0E0E0E0BY_.exit.i.i.i.i
  %accum.sroa.0.023.i.i.i.i = phi i64 [ %_0.sroa.0.0.i.i11.i.i.i.i.i.i, %_RNCINvNtNtNtCsjMrxcFdYDNN_4core4iter8adapters3map8map_foldNtNtCshDvXgAkadjA_7colored5color5ColorTBU_BU_ETBU_mENCNvMBW_BU_23closest_color_euclidean0NCIB2_B1w_B1E_B1E_NCB1M_s_0NCINvNvNtNtNtB8_6traits8iterator8Iterator6min_by4foldB1E_NCB1M_s0_0E0E0E0BY_.exit.i.i.i.i ], [ %_0.sroa.0.0.insert.insert.i7.i.i, %bb12.i ]
  %_402022.i.i.i.i.idx = phi i64 [ %_402022.i.i.i.i.add, %_RNCINvNtNtNtCsjMrxcFdYDNN_4core4iter8adapters3map8map_foldNtNtCshDvXgAkadjA_7colored5color5ColorTBU_BU_ETBU_mENCNvMBW_BU_23closest_color_euclidean0NCIB2_B1w_B1E_B1E_NCB1M_s_0NCINvNvNtNtNtB8_6traits8iterator8Iterator6min_by4foldB1E_NCB1M_s0_0E0E0E0BY_.exit.i.i.i.i ], [ 4, %bb12.i ]
  %_402022.i.i.i.i.ptr = getelementptr inbounds nuw i8, ptr %7, i64 %_402022.i.i.i.i.idx
  %tmp.sroa.0.0.copyload.i.i.i.i = load i32, ptr %_402022.i.i.i.i.ptr, align 1, !noalias !162
  %_402022.i.i.i.i.add = add nuw nsw i64 %_402022.i.i.i.i.idx, 4
  %trunc.i.i.i.i.i.i.i = trunc i32 %tmp.sroa.0.0.copyload.i.i.i.i to i8
  switch i8 %trunc.i.i.i.i.i.i.i, label %bb1.i.i.i.i.i.i.i [
    i8 0, label %_RNCNvMNtCshDvXgAkadjA_7colored5colorNtB4_5Color23closest_color_euclidean0B6_.exit.thread.i.i.i.i.i
    i8 1, label %bb17.i.i.i.i.i.i.i
    i8 2, label %bb16.i.i.i.i.i.i.i
    i8 3, label %bb15.i.i.i.i.i.i.i
    i8 4, label %bb14.i.i.i.i.i.i.i
    i8 5, label %bb13.i.i.i.i.i.i.i
    i8 6, label %bb12.i.i.i.i.i.i.i
    i8 7, label %bb11.i.i.i.i.i.i.i
    i8 8, label %bb10.i.i.i.i.i.i.i
    i8 9, label %bb9.i.i.i.i.i.i.i
    i8 10, label %bb8.i.i.i.i.i.i.i
    i8 11, label %bb7.i.i.i.i.i.i.i
    i8 12, label %bb6.i.i.i.i.i.i.i
    i8 13, label %bb5.i.i.i.i.i.i.i
    i8 14, label %bb4.i.i.i.i.i.i.i
    i8 15, label %bb3.i.i.i.i.i.i.i
    i8 16, label %_RNCNvMNtCshDvXgAkadjA_7colored5colorNtB4_5Color23closest_color_euclidean0B6_.exit.i.i.i.i.i
  ]

bb1.i.i.i.i.i.i.i:                                ; preds = %bb6.i.i.i.i
  unreachable

bb17.i.i.i.i.i.i.i:                               ; preds = %bb6.i.i.i.i
  br label %_RNCNvMNtCshDvXgAkadjA_7colored5colorNtB4_5Color23closest_color_euclidean0B6_.exit.thread.i.i.i.i.i

bb16.i.i.i.i.i.i.i:                               ; preds = %bb6.i.i.i.i
  br label %_RNCNvMNtCshDvXgAkadjA_7colored5colorNtB4_5Color23closest_color_euclidean0B6_.exit.thread.i.i.i.i.i

bb15.i.i.i.i.i.i.i:                               ; preds = %bb6.i.i.i.i
  br label %_RNCNvMNtCshDvXgAkadjA_7colored5colorNtB4_5Color23closest_color_euclidean0B6_.exit.thread.i.i.i.i.i

bb14.i.i.i.i.i.i.i:                               ; preds = %bb6.i.i.i.i
  br label %_RNCNvMNtCshDvXgAkadjA_7colored5colorNtB4_5Color23closest_color_euclidean0B6_.exit.thread.i.i.i.i.i

bb13.i.i.i.i.i.i.i:                               ; preds = %bb6.i.i.i.i
  br label %_RNCNvMNtCshDvXgAkadjA_7colored5colorNtB4_5Color23closest_color_euclidean0B6_.exit.thread.i.i.i.i.i

bb12.i.i.i.i.i.i.i:                               ; preds = %bb6.i.i.i.i
  br label %_RNCNvMNtCshDvXgAkadjA_7colored5colorNtB4_5Color23closest_color_euclidean0B6_.exit.thread.i.i.i.i.i

bb11.i.i.i.i.i.i.i:                               ; preds = %bb6.i.i.i.i
  br label %_RNCNvMNtCshDvXgAkadjA_7colored5colorNtB4_5Color23closest_color_euclidean0B6_.exit.thread.i.i.i.i.i

bb10.i.i.i.i.i.i.i:                               ; preds = %bb6.i.i.i.i
  br label %_RNCNvMNtCshDvXgAkadjA_7colored5colorNtB4_5Color23closest_color_euclidean0B6_.exit.thread.i.i.i.i.i

bb9.i.i.i.i.i.i.i:                                ; preds = %bb6.i.i.i.i
  br label %_RNCNvMNtCshDvXgAkadjA_7colored5colorNtB4_5Color23closest_color_euclidean0B6_.exit.thread.i.i.i.i.i

bb8.i.i.i.i.i.i.i:                                ; preds = %bb6.i.i.i.i
  br label %_RNCNvMNtCshDvXgAkadjA_7colored5colorNtB4_5Color23closest_color_euclidean0B6_.exit.thread.i.i.i.i.i

bb7.i.i.i.i.i.i.i:                                ; preds = %bb6.i.i.i.i
  br label %_RNCNvMNtCshDvXgAkadjA_7colored5colorNtB4_5Color23closest_color_euclidean0B6_.exit.thread.i.i.i.i.i

bb6.i.i.i.i.i.i.i:                                ; preds = %bb6.i.i.i.i
  br label %_RNCNvMNtCshDvXgAkadjA_7colored5colorNtB4_5Color23closest_color_euclidean0B6_.exit.thread.i.i.i.i.i

bb5.i.i.i.i.i.i.i:                                ; preds = %bb6.i.i.i.i
  br label %_RNCNvMNtCshDvXgAkadjA_7colored5colorNtB4_5Color23closest_color_euclidean0B6_.exit.thread.i.i.i.i.i

bb4.i.i.i.i.i.i.i:                                ; preds = %bb6.i.i.i.i
  br label %_RNCNvMNtCshDvXgAkadjA_7colored5colorNtB4_5Color23closest_color_euclidean0B6_.exit.thread.i.i.i.i.i

bb3.i.i.i.i.i.i.i:                                ; preds = %bb6.i.i.i.i
  br label %_RNCNvMNtCshDvXgAkadjA_7colored5colorNtB4_5Color23closest_color_euclidean0B6_.exit.thread.i.i.i.i.i

_RNCNvMNtCshDvXgAkadjA_7colored5colorNtB4_5Color23closest_color_euclidean0B6_.exit.thread.i.i.i.i.i: ; preds = %bb3.i.i.i.i.i.i.i, %bb4.i.i.i.i.i.i.i, %bb5.i.i.i.i.i.i.i, %bb6.i.i.i.i.i.i.i, %bb7.i.i.i.i.i.i.i, %bb8.i.i.i.i.i.i.i, %bb9.i.i.i.i.i.i.i, %bb10.i.i.i.i.i.i.i, %bb11.i.i.i.i.i.i.i, %bb12.i.i.i.i.i.i.i, %bb13.i.i.i.i.i.i.i, %bb14.i.i.i.i.i.i.i, %bb15.i.i.i.i.i.i.i, %bb16.i.i.i.i.i.i.i, %bb17.i.i.i.i.i.i.i, %bb6.i.i.i.i
  %_0.sroa.52.0.i.i.ph.i.i.i.i.i = phi i32 [ 0, %bb6.i.i.i.i ], [ -16777216, %bb3.i.i.i.i.i.i.i ], [ -16777216, %bb4.i.i.i.i.i.i.i ], [ -16777216, %bb5.i.i.i.i.i.i.i ], [ -16777216, %bb6.i.i.i.i.i.i.i ], [ 0, %bb7.i.i.i.i.i.i.i ], [ 0, %bb8.i.i.i.i.i.i.i ], [ 0, %bb9.i.i.i.i.i.i.i ], [ 2130706432, %bb10.i.i.i.i.i.i.i ], [ -452984832, %bb11.i.i.i.i.i.i.i ], [ -855638016, %bb12.i.i.i.i.i.i.i ], [ -855638016, %bb13.i.i.i.i.i.i.i ], [ -301989888, %bb14.i.i.i.i.i.i.i ], [ 0, %bb15.i.i.i.i.i.i.i ], [ 0, %bb16.i.i.i.i.i.i.i ], [ 0, %bb17.i.i.i.i.i.i.i ]
  %46 = phi <2 x i32> [ zeroinitializer, %bb6.i.i.i.i ], [ <i32 16711680, i32 65280>, %bb3.i.i.i.i.i.i.i ], [ <i32 16711680, i32 0>, %bb4.i.i.i.i.i.i.i ], [ <i32 0, i32 65280>, %bb5.i.i.i.i.i.i.i ], [ <i32 6029312, i32 23552>, %bb6.i.i.i.i.i.i.i ], [ <i32 16711680, i32 65280>, %bb7.i.i.i.i.i.i.i ], [ <i32 16711680, i32 0>, %bb8.i.i.i.i.i.i.i ], [ <i32 0, i32 65280>, %bb9.i.i.i.i.i.i.i ], [ <i32 8323072, i32 32512>, %bb10.i.i.i.i.i.i.i ], [ <i32 15007744, i32 58624>, %bb11.i.i.i.i.i.i.i ], [ <i32 13434880, i32 0>, %bb12.i.i.i.i.i.i.i ], [ <i32 0, i32 52480>, %bb13.i.i.i.i.i.i.i ], [ zeroinitializer, %bb14.i.i.i.i.i.i.i ], [ <i32 13434880, i32 52480>, %bb15.i.i.i.i.i.i.i ], [ <i32 13434880, i32 0>, %bb16.i.i.i.i.i.i.i ], [ <i32 0, i32 52480>, %bb17.i.i.i.i.i.i.i ]
  call void @llvm.lifetime.start.p0(i64 4, ptr nonnull %c.i.i.i.i.i.i.i), !noalias !171
  br label %_RNCINvNtNtNtCsjMrxcFdYDNN_4core4iter8adapters3map8map_foldNtNtCshDvXgAkadjA_7colored5color5ColorTBU_BU_ETBU_mENCNvMBW_BU_23closest_color_euclidean0NCIB2_B1w_B1E_B1E_NCB1M_s_0NCINvNvNtNtNtB8_6traits8iterator8Iterator6min_by4foldB1E_NCB1M_s0_0E0E0E0BY_.exit.i.i.i.i

_RNCNvMNtCshDvXgAkadjA_7colored5colorNtB4_5Color23closest_color_euclidean0B6_.exit.i.i.i.i.i: ; preds = %bb6.i.i.i.i
  %.sroa.6.0.extract.shift.i.i.i.i.i.i.i = and i32 %tmp.sroa.0.0.copyload.i.i.i.i, -16777216
  %47 = insertelement <2 x i32> poison, i32 %tmp.sroa.0.0.copyload.i.i.i.i, i64 0
  %48 = shufflevector <2 x i32> %47, <2 x i32> poison, <2 x i32> zeroinitializer
  %49 = and <2 x i32> %48, <i32 16711680, i32 65280>
  %50 = and i32 %tmp.sroa.0.0.copyload.i.i.i.i, 255
  call void @llvm.lifetime.start.p0(i64 4, ptr nonnull %c.i.i.i.i.i.i.i), !noalias !178
  store i32 %tmp.sroa.0.0.copyload.i.i.i.i, ptr %c.i.i.i.i.i.i.i, align 4, !noalias !178
  %51 = icmp eq i32 %50, 16
  br i1 %51, label %_RNCINvNtNtNtCsjMrxcFdYDNN_4core4iter8adapters3map8map_foldNtNtCshDvXgAkadjA_7colored5color5ColorTBU_BU_ETBU_mENCNvMBW_BU_23closest_color_euclidean0NCIB2_B1w_B1E_B1E_NCB1M_s_0NCINvNvNtNtNtB8_6traits8iterator8Iterator6min_by4foldB1E_NCB1M_s0_0E0E0E0BY_.exit.i.i.i.i, label %bb5.i.i11.i.i.i.i.i, !prof !181

bb5.i.i11.i.i.i.i.i:                              ; preds = %_RNCNvMNtCshDvXgAkadjA_7colored5colorNtB4_5Color23closest_color_euclidean0B6_.exit.i.i.i.i.i
  call void @llvm.lifetime.start.p0(i64 16, ptr nonnull %args.i.i.i.i.i.i.i), !noalias !178
  store ptr %c.i.i.i.i.i.i.i, ptr %args.i.i.i.i.i.i.i, align 8, !noalias !178
  %_36.sroa.4.0..sroa_idx.i.i.i.i.i.i.i = getelementptr inbounds nuw i8, ptr %args.i.i.i.i.i.i.i, i64 8
  store ptr @_RNvXs5_NtCshDvXgAkadjA_7colored5colorNtB5_5ColorNtNtCsjMrxcFdYDNN_4core3fmt5Debug3fmt, ptr %_36.sroa.4.0..sroa_idx.i.i.i.i.i.i.i, align 8, !noalias !178
; invoke core::panicking::panic_fmt
  invoke void @_RNvNtCsjMrxcFdYDNN_4core9panicking9panic_fmt(ptr noundef nonnull @alloc_f9ceb740a12f0ef7d1d4affe11fbde22, ptr noundef nonnull %args.i.i.i.i.i.i.i, ptr noalias noundef readonly align 8 captures(address, read_provenance) dereferenceable(24) @alloc_1bf7c10d52bec4028941f119a628db49) #22
          to label %.noexc.i.i.i.i unwind label %bb2.i.i.i.i.i4.i.i15.i.i.i.i, !noalias !162

.noexc.i.i.i.i:                                   ; preds = %bb5.i.i11.i.i.i.i.i
  unreachable

_RNCINvNtNtNtCsjMrxcFdYDNN_4core4iter8adapters3map8map_foldNtNtCshDvXgAkadjA_7colored5color5ColorTBU_BU_ETBU_mENCNvMBW_BU_23closest_color_euclidean0NCIB2_B1w_B1E_B1E_NCB1M_s_0NCINvNvNtNtNtB8_6traits8iterator8Iterator6min_by4foldB1E_NCB1M_s0_0E0E0E0BY_.exit.i.i.i.i: ; preds = %_RNCNvMNtCshDvXgAkadjA_7colored5colorNtB4_5Color23closest_color_euclidean0B6_.exit.i.i.i.i.i, %_RNCNvMNtCshDvXgAkadjA_7colored5colorNtB4_5Color23closest_color_euclidean0B6_.exit.thread.i.i.i.i.i
  %_0.sroa.52.0.i.i20.i.i.i.i.i = phi i32 [ %_0.sroa.52.0.i.i.ph.i.i.i.i.i, %_RNCNvMNtCshDvXgAkadjA_7colored5colorNtB4_5Color23closest_color_euclidean0B6_.exit.thread.i.i.i.i.i ], [ %.sroa.6.0.extract.shift.i.i.i.i.i.i.i, %_RNCNvMNtCshDvXgAkadjA_7colored5colorNtB4_5Color23closest_color_euclidean0B6_.exit.i.i.i.i.i ]
  %52 = phi <2 x i32> [ %46, %_RNCNvMNtCshDvXgAkadjA_7colored5colorNtB4_5Color23closest_color_euclidean0B6_.exit.thread.i.i.i.i.i ], [ %49, %_RNCNvMNtCshDvXgAkadjA_7colored5colorNtB4_5Color23closest_color_euclidean0B6_.exit.i.i.i.i.i ]
  %_0.sroa.0.0.insert.ext.i.i.i.i.i.i = zext i32 %tmp.sroa.0.0.copyload.i.i.i.i to i64
  %53 = lshr exact i32 %_0.sroa.52.0.i.i20.i.i.i.i.i, 24
  %54 = trunc nuw i32 %53 to i8
  %55 = lshr exact <2 x i32> %52, <i32 16, i32 8>
  %_0.sroa.0.0.i7.i.i.i.i.i.i.i = tail call noundef i8 @llvm.umax.i8(i8 %.sroa.6.0.extract.trunc, i8 %54)
  %_0.sroa.0.0.i8.i.i.i.i.i.i.i = tail call noundef i8 @llvm.umin.i8(i8 %.sroa.6.0.extract.trunc, i8 %54)
  %bd.i.i.i.i.i.i.i = sub i8 %_0.sroa.0.0.i7.i.i.i.i.i.i.i, %_0.sroa.0.0.i8.i.i.i.i.i.i.i
  %bd3.i.i.i.i.i.i.i = zext i8 %bd.i.i.i.i.i.i.i to i32
  %56 = trunc <2 x i32> %55 to <2 x i8>
  %57 = tail call <2 x i8> @llvm.umax.v2i8(<2 x i8> %5, <2 x i8> %56)
  %58 = tail call <2 x i8> @llvm.umin.v2i8(<2 x i8> %5, <2 x i8> %56)
  %59 = sub <2 x i8> %57, %58
  %60 = zext <2 x i8> %59 to <2 x i32>
  %61 = mul nuw nsw <2 x i32> %60, %60
  %_13.0.i10.i.i.i.i.i.i.i = mul nuw nsw i32 %bd3.i.i.i.i.i.i.i, %bd3.i.i.i.i.i.i.i
  %62 = extractelement <2 x i32> %61, i64 0
  %_28.i.i.i.i.i.i.i = add nuw nsw i32 %62, %_13.0.i10.i.i.i.i.i.i.i
  %63 = extractelement <2 x i32> %61, i64 1
  %distance.i.i.i.i.i.i.i = add nuw nsw i32 %_28.i.i.i.i.i.i.i, %63
  call void @llvm.lifetime.end.p0(i64 4, ptr nonnull %c.i.i.i.i.i.i.i), !noalias !178
  %_0.sroa.2.0.insert.ext.i.i.i.i.i.i.i = zext nneg i32 %distance.i.i.i.i.i.i.i to i64
  %_0.sroa.2.0.insert.shift.i.i.i.i.i.i.i = shl nuw nsw i64 %_0.sroa.2.0.insert.ext.i.i.i.i.i.i.i, 32
  %_0.sroa.0.0.insert.insert.i.i12.i.i.i.i.i = or disjoint i64 %_0.sroa.2.0.insert.shift.i.i.i.i.i.i.i, %_0.sroa.0.0.insert.ext.i.i.i.i.i.i
  %v1.sroa.1.0.extract.shift.i.i.i.i.i.i.i.i = lshr i64 %accum.sroa.0.023.i.i.i.i, 32
  %_4.not.i.i.i.i.i.i.i.i = icmp samesign ugt i64 %v1.sroa.1.0.extract.shift.i.i.i.i.i.i.i.i, %_0.sroa.2.0.insert.ext.i.i.i.i.i.i.i
  %_0.sroa.0.0.i.i11.i.i.i.i.i.i = select i1 %_4.not.i.i.i.i.i.i.i.i, i64 %_0.sroa.0.0.insert.insert.i.i12.i.i.i.i.i, i64 %accum.sroa.0.023.i.i.i.i
  %_35.not.i.i.i.i = icmp eq i64 %_402022.i.i.i.i.add, 64
  br i1 %_35.not.i.i.i.i, label %_RINvYINtNtNtNtCsjMrxcFdYDNN_4core4iter8adapters3map3MapIB4_INtNtNtCsdJPVW0sQgAG_5alloc3vec9into_iter8IntoIterNtNtCshDvXgAkadjA_7colored5color5ColorENCNvMB1L_B1J_23closest_color_euclidean0ENCB2o_s_0ENtNtNtBa_6traits8iterator8Iterator6reduceNCINvNvB3a_6min_by4foldTB1J_mENCB2o_s0_0E0EB1N_.exit, label %bb6.i.i.i.i

bb2.i.i.i.i.i4.i.i15.i.i.i.i:                     ; preds = %bb5.i.i11.i.i.i.i.i
  %64 = landingpad { ptr, i32 }
          cleanup
  br label %bb6.i

bb6.i:                                            ; preds = %bb2.i.i.i.i.i4.i.i15.i.i.i.i, %bb2.i.i.i.i.i4.i.i.i.i12.i
  %eh.lpad-body17.ph.i = phi { ptr, i32 } [ %65, %bb2.i.i.i.i.i4.i.i.i.i12.i ], [ %64, %bb2.i.i.i.i.i4.i.i15.i.i.i.i ]
; call __rustc::__rust_dealloc
  call void @_RNvCsKhRCbHf33p_7___rustc14___rust_dealloc(ptr noundef nonnull %7, i64 noundef 64, i64 noundef range(i64 1, -9223372036854775807) 1) #23, !noalias !161
  resume { ptr, i32 } %eh.lpad-body17.ph.i

bb2.i.i.i.i.i4.i.i.i.i12.i:                       ; preds = %bb5.i6.i.i
  %65 = landingpad { ptr, i32 }
          cleanup
  br label %bb6.i

_RINvYINtNtNtNtCsjMrxcFdYDNN_4core4iter8adapters3map3MapIB4_INtNtNtCsdJPVW0sQgAG_5alloc3vec9into_iter8IntoIterNtNtCshDvXgAkadjA_7colored5color5ColorENCNvMB1L_B1J_23closest_color_euclidean0ENCB2o_s_0ENtNtNtBa_6traits8iterator8Iterator6reduceNCINvNvB3a_6min_by4foldTB1J_mENCB2o_s0_0E0EB1N_.exit.thread: ; preds = %_RNvXs4_NtNtCsdJPVW0sQgAG_5alloc3vec9into_iterINtB5_8IntoIterNtNtCshDvXgAkadjA_7colored5color5ColorENtNtNtNtCsjMrxcFdYDNN_4core4iter6traits8iterator8Iterator4nextB10_.exit.i.i.i, %_RNvXs0_NtNtNtCsjMrxcFdYDNN_4core4iter8adapters3mapINtB5_3MapINtNtNtCsdJPVW0sQgAG_5alloc3vec9into_iter8IntoIterNtNtCshDvXgAkadjA_7colored5color5ColorENCNvMB1M_B1K_23closest_color_euclidean0ENtNtNtB9_6traits8iterator8Iterator4nextB1O_.exit.i.i
; call __rustc::__rust_dealloc
  tail call void @_RNvCsKhRCbHf33p_7___rustc14___rust_dealloc(ptr noundef nonnull %7, i64 noundef 64, i64 noundef range(i64 1, -9223372036854775807) 1) #23, !noalias !161
  br label %bb9

_RINvYINtNtNtNtCsjMrxcFdYDNN_4core4iter8adapters3map3MapIB4_INtNtNtCsdJPVW0sQgAG_5alloc3vec9into_iter8IntoIterNtNtCshDvXgAkadjA_7colored5color5ColorENCNvMB1L_B1J_23closest_color_euclidean0ENCB2o_s_0ENtNtNtBa_6traits8iterator8Iterator6reduceNCINvNvB3a_6min_by4foldTB1J_mENCB2o_s0_0E0EB1N_.exit: ; preds = %_RNCINvNtNtNtCsjMrxcFdYDNN_4core4iter8adapters3map8map_foldNtNtCshDvXgAkadjA_7colored5color5ColorTBU_BU_ETBU_mENCNvMBW_BU_23closest_color_euclidean0NCIB2_B1w_B1E_B1E_NCB1M_s_0NCINvNvNtNtNtB8_6traits8iterator8Iterator6min_by4foldB1E_NCB1M_s0_0E0E0E0BY_.exit.i.i.i.i
; call __rustc::__rust_dealloc
  tail call void @_RNvCsKhRCbHf33p_7___rustc14___rust_dealloc(ptr noundef nonnull %7, i64 noundef 64, i64 noundef range(i64 1, -9223372036854775807) 1) #23, !noalias !161
  %.sroa.06.0.extract.trunc = trunc i64 %_0.sroa.0.0.i.i11.i.i.i.i.i.i to i8
  %.not = icmp eq i8 %.sroa.06.0.extract.trunc, 17
  br i1 %.not, label %bb9, label %bb10, !prof !129

bb10:                                             ; preds = %_RINvYINtNtNtNtCsjMrxcFdYDNN_4core4iter8adapters3map3MapIB4_INtNtNtCsdJPVW0sQgAG_5alloc3vec9into_iter8IntoIterNtNtCshDvXgAkadjA_7colored5color5ColorENCNvMB1L_B1J_23closest_color_euclidean0ENCB2o_s_0ENtNtNtBa_6traits8iterator8Iterator6reduceNCINvNvB3a_6min_by4foldTB1J_mENCB2o_s0_0E0EB1N_.exit
  %66 = trunc i64 %_0.sroa.0.0.i.i11.i.i.i.i.i.i to i32
  %67 = lshr i32 %66, 24
  %.sroa.58.0.extract.shift = lshr i64 %_0.sroa.0.0.i.i11.i.i.i.i.i.i, 16
  %.sroa.58.0.extract.trunc = trunc i64 %.sroa.58.0.extract.shift to i32
  %.sroa.47.0.extract.shift = lshr i64 %_0.sroa.0.0.i.i11.i.i.i.i.i.i, 8
  %.sroa.47.0.extract.trunc = trunc i64 %.sroa.47.0.extract.shift to i32
  br label %bb3

bb9:                                              ; preds = %_RINvYINtNtNtNtCsjMrxcFdYDNN_4core4iter8adapters3map3MapIB4_INtNtNtCsdJPVW0sQgAG_5alloc3vec9into_iter8IntoIterNtNtCshDvXgAkadjA_7colored5color5ColorENCNvMB1L_B1J_23closest_color_euclidean0ENCB2o_s_0ENtNtNtBa_6traits8iterator8Iterator6reduceNCINvNvB3a_6min_by4foldTB1J_mENCB2o_s0_0E0EB1N_.exit.thread, %_RINvYINtNtNtNtCsjMrxcFdYDNN_4core4iter8adapters3map3MapIB4_INtNtNtCsdJPVW0sQgAG_5alloc3vec9into_iter8IntoIterNtNtCshDvXgAkadjA_7colored5color5ColorENCNvMB1L_B1J_23closest_color_euclidean0ENCB2o_s_0ENtNtNtBa_6traits8iterator8Iterator6reduceNCINvNvB3a_6min_by4foldTB1J_mENCB2o_s0_0E0EB1N_.exit
; call core::option::unwrap_failed
  tail call void @_RNvNtCsjMrxcFdYDNN_4core6option13unwrap_failed(ptr noalias noundef readonly align 8 captures(address, read_provenance) dereferenceable(24) @alloc_0365545ab5addf8c1e0dbc7bfed6c697) #22
  unreachable

bb3:                                              ; preds = %bb1, %bb10
  %_0.sroa.0.0 = phi i8 [ %.sroa.06.0.extract.trunc, %bb10 ], [ %.sroa.0.0.extract.trunc, %bb1 ]
  %_0.sroa.3.0 = phi i32 [ %.sroa.47.0.extract.trunc, %bb10 ], [ %10, %bb1 ]
  %_0.sroa.4.0 = phi i32 [ %.sroa.58.0.extract.trunc, %bb10 ], [ %9, %bb1 ]
  %_0.sroa.5.0 = phi i32 [ %67, %bb10 ], [ %.sroa.6.0.extract.shift, %bb1 ]
  %_0.sroa.5.0.insert.shift = shl nuw i32 %_0.sroa.5.0, 24
  %_0.sroa.4.0.insert.ext = shl i32 %_0.sroa.4.0, 16
  %_0.sroa.4.0.insert.shift = and i32 %_0.sroa.4.0.insert.ext, 16711680
  %_0.sroa.4.0.insert.insert = or disjoint i32 %_0.sroa.5.0.insert.shift, %_0.sroa.4.0.insert.shift
  %_0.sroa.3.0.insert.ext = shl i32 %_0.sroa.3.0, 8
  %_0.sroa.3.0.insert.shift = and i32 %_0.sroa.3.0.insert.ext, 65280
  %_0.sroa.3.0.insert.insert = or disjoint i32 %_0.sroa.4.0.insert.insert, %_0.sroa.3.0.insert.shift
  %_0.sroa.0.0.insert.ext = zext i8 %_0.sroa.0.0 to i32
  %_0.sroa.0.0.insert.insert = or disjoint i32 %_0.sroa.3.0.insert.insert, %_0.sroa.0.0.insert.ext
  ret i32 %_0.sroa.0.0.insert.insert
}

; <colored::color::Color>::to_bg_str
; Function Attrs: uwtable
define void @_RNvMNtCshDvXgAkadjA_7colored5colorNtB2_5Color9to_bg_str(ptr dead_on_unwind noalias noundef writable writeonly sret([24 x i8]) align 8 captures(none) dereferenceable(24) %_0, ptr noalias noundef readonly align 1 captures(none) dereferenceable(4) %self) unnamed_addr #3 personality ptr @rust_eh_personality {
start:
  %args = alloca [48 x i8], align 8
  %b = alloca [1 x i8], align 1
  %g = alloca [1 x i8], align 1
  %r = alloca [1 x i8], align 1
  %_5 = alloca [4 x i8], align 4
  %0 = load i8, ptr %self, align 1, !range !182, !noundef !2
  switch i8 %0, label %default.unreachable4 [
    i8 0, label %bb18
    i8 1, label %bb17
    i8 2, label %bb16
    i8 3, label %bb15
    i8 4, label %bb14
    i8 5, label %bb13
    i8 6, label %bb12
    i8 7, label %bb11
    i8 8, label %bb10
    i8 9, label %bb9
    i8 10, label %bb8
    i8 11, label %bb7
    i8 12, label %bb6
    i8 13, label %bb5
    i8 14, label %bb4
    i8 15, label %bb3
    i8 16, label %bb2
  ]

default.unreachable4:                             ; preds = %start
  unreachable

bb18:                                             ; preds = %start
  %1 = getelementptr inbounds nuw i8, ptr %_0, i64 8
  store ptr @alloc_def6dda311e6aae9c1f3dfa404e3026d, ptr %1, align 8
  %2 = getelementptr inbounds nuw i8, ptr %_0, i64 16
  store i64 2, ptr %2, align 8
  store i64 -9223372036854775808, ptr %_0, align 8
  br label %bb24

bb17:                                             ; preds = %start
  %3 = getelementptr inbounds nuw i8, ptr %_0, i64 8
  store ptr @alloc_75d4da06079ab2653dac88032812239e, ptr %3, align 8
  %4 = getelementptr inbounds nuw i8, ptr %_0, i64 16
  store i64 2, ptr %4, align 8
  store i64 -9223372036854775808, ptr %_0, align 8
  br label %bb24

bb16:                                             ; preds = %start
  %5 = getelementptr inbounds nuw i8, ptr %_0, i64 8
  store ptr @alloc_4cca07c46305327e56b5abbe1b5e418e, ptr %5, align 8
  %6 = getelementptr inbounds nuw i8, ptr %_0, i64 16
  store i64 2, ptr %6, align 8
  store i64 -9223372036854775808, ptr %_0, align 8
  br label %bb24

bb15:                                             ; preds = %start
  %7 = getelementptr inbounds nuw i8, ptr %_0, i64 8
  store ptr @alloc_5e91073b1ff1be34105c35685693c827, ptr %7, align 8
  %8 = getelementptr inbounds nuw i8, ptr %_0, i64 16
  store i64 2, ptr %8, align 8
  store i64 -9223372036854775808, ptr %_0, align 8
  br label %bb24

bb14:                                             ; preds = %start
  %9 = getelementptr inbounds nuw i8, ptr %_0, i64 8
  store ptr @alloc_691dd26263b9e01df39337e22a61601d, ptr %9, align 8
  %10 = getelementptr inbounds nuw i8, ptr %_0, i64 16
  store i64 2, ptr %10, align 8
  store i64 -9223372036854775808, ptr %_0, align 8
  br label %bb24

bb13:                                             ; preds = %start
  %11 = getelementptr inbounds nuw i8, ptr %_0, i64 8
  store ptr @alloc_649f94856553e144f183c9b3d7033ad7, ptr %11, align 8
  %12 = getelementptr inbounds nuw i8, ptr %_0, i64 16
  store i64 2, ptr %12, align 8
  store i64 -9223372036854775808, ptr %_0, align 8
  br label %bb24

bb12:                                             ; preds = %start
  %13 = getelementptr inbounds nuw i8, ptr %_0, i64 8
  store ptr @alloc_2f51cc630a76febdb3156da5df9f16b0, ptr %13, align 8
  %14 = getelementptr inbounds nuw i8, ptr %_0, i64 16
  store i64 2, ptr %14, align 8
  store i64 -9223372036854775808, ptr %_0, align 8
  br label %bb24

bb11:                                             ; preds = %start
  %15 = getelementptr inbounds nuw i8, ptr %_0, i64 8
  store ptr @alloc_c40e213685b08aef1d04b996e3fbae92, ptr %15, align 8
  %16 = getelementptr inbounds nuw i8, ptr %_0, i64 16
  store i64 2, ptr %16, align 8
  store i64 -9223372036854775808, ptr %_0, align 8
  br label %bb24

bb10:                                             ; preds = %start
  %17 = getelementptr inbounds nuw i8, ptr %_0, i64 8
  store ptr @alloc_074d034e48c6e28c2447ef50e9c5a3ca, ptr %17, align 8
  %18 = getelementptr inbounds nuw i8, ptr %_0, i64 16
  store i64 3, ptr %18, align 8
  store i64 -9223372036854775808, ptr %_0, align 8
  br label %bb24

bb9:                                              ; preds = %start
  %19 = getelementptr inbounds nuw i8, ptr %_0, i64 8
  store ptr @alloc_ab1e971ada9b86b5bb9d00a42de16c83, ptr %19, align 8
  %20 = getelementptr inbounds nuw i8, ptr %_0, i64 16
  store i64 3, ptr %20, align 8
  store i64 -9223372036854775808, ptr %_0, align 8
  br label %bb24

bb8:                                              ; preds = %start
  %21 = getelementptr inbounds nuw i8, ptr %_0, i64 8
  store ptr @alloc_a887c4a286608855bf20578cb6d6c6e0, ptr %21, align 8
  %22 = getelementptr inbounds nuw i8, ptr %_0, i64 16
  store i64 3, ptr %22, align 8
  store i64 -9223372036854775808, ptr %_0, align 8
  br label %bb24

bb7:                                              ; preds = %start
  %23 = getelementptr inbounds nuw i8, ptr %_0, i64 8
  store ptr @alloc_06d5f10b0fc9ee0c5c0dd8b6eb7af3ba, ptr %23, align 8
  %24 = getelementptr inbounds nuw i8, ptr %_0, i64 16
  store i64 3, ptr %24, align 8
  store i64 -9223372036854775808, ptr %_0, align 8
  br label %bb24

bb6:                                              ; preds = %start
  %25 = getelementptr inbounds nuw i8, ptr %_0, i64 8
  store ptr @alloc_7999279de4068b238a432f3cb5c9a35d, ptr %25, align 8
  %26 = getelementptr inbounds nuw i8, ptr %_0, i64 16
  store i64 3, ptr %26, align 8
  store i64 -9223372036854775808, ptr %_0, align 8
  br label %bb24

bb5:                                              ; preds = %start
  %27 = getelementptr inbounds nuw i8, ptr %_0, i64 8
  store ptr @alloc_09dfb1047c16a7b54652f5f649aa2d2b, ptr %27, align 8
  %28 = getelementptr inbounds nuw i8, ptr %_0, i64 16
  store i64 3, ptr %28, align 8
  store i64 -9223372036854775808, ptr %_0, align 8
  br label %bb24

bb4:                                              ; preds = %start
  %29 = getelementptr inbounds nuw i8, ptr %_0, i64 8
  store ptr @alloc_98c8b37b75685b9b43ca4cf6dd0f861a, ptr %29, align 8
  %30 = getelementptr inbounds nuw i8, ptr %_0, i64 16
  store i64 3, ptr %30, align 8
  store i64 -9223372036854775808, ptr %_0, align 8
  br label %bb24

bb3:                                              ; preds = %start
  %31 = getelementptr inbounds nuw i8, ptr %_0, i64 8
  store ptr @alloc_c640ae5813955a832eb0bfd4ae898f2a, ptr %31, align 8
  %32 = getelementptr inbounds nuw i8, ptr %_0, i64 16
  store i64 3, ptr %32, align 8
  store i64 -9223372036854775808, ptr %_0, align 8
  br label %bb24

bb2:                                              ; preds = %start
; call colored::color::truecolor_support
  %_3 = tail call fastcc noundef zeroext i1 @_RNvNtCshDvXgAkadjA_7colored5color17truecolor_support()
  br i1 %_3, label %bb20, label %bb21

bb24:                                             ; preds = %bb20, %bb21, %bb3, %bb4, %bb5, %bb6, %bb7, %bb8, %bb9, %bb10, %bb11, %bb12, %bb13, %bb14, %bb15, %bb16, %bb17, %bb18
  ret void

bb21:                                             ; preds = %bb2
  call void @llvm.lifetime.start.p0(i64 4, ptr nonnull %_5)
  %_6.sroa.0.0.copyload = load i32, ptr %self, align 1
; call <colored::color::Color>::closest_color_euclidean
  %33 = tail call fastcc i32 @_RNvMNtCshDvXgAkadjA_7colored5colorNtB2_5Color23closest_color_euclidean(i32 %_6.sroa.0.0.copyload)
  store i32 %33, ptr %_5, align 4
; call <colored::color::Color>::to_bg_str
  call void @_RNvMNtCshDvXgAkadjA_7colored5colorNtB2_5Color9to_bg_str(ptr noalias noundef nonnull sret([24 x i8]) align 8 captures(address) dereferenceable(24) %_0, ptr noalias noundef nonnull readonly align 1 captures(address, read_provenance) dereferenceable(4) %_5)
  call void @llvm.lifetime.end.p0(i64 4, ptr nonnull %_5)
  br label %bb24

bb20:                                             ; preds = %bb2
  call void @llvm.lifetime.start.p0(i64 1, ptr nonnull %r)
  %34 = getelementptr inbounds nuw i8, ptr %self, i64 1
  %35 = load i8, ptr %34, align 1, !noundef !2
  store i8 %35, ptr %r, align 1
  call void @llvm.lifetime.start.p0(i64 1, ptr nonnull %g)
  %36 = getelementptr inbounds nuw i8, ptr %self, i64 2
  %37 = load i8, ptr %36, align 1, !noundef !2
  store i8 %37, ptr %g, align 1
  call void @llvm.lifetime.start.p0(i64 1, ptr nonnull %b)
  %38 = getelementptr inbounds nuw i8, ptr %self, i64 3
  %39 = load i8, ptr %38, align 1, !noundef !2
  store i8 %39, ptr %b, align 1
  call void @llvm.lifetime.start.p0(i64 48, ptr nonnull %args)
  store ptr %r, ptr %args, align 8
  %_16.sroa.4.0..sroa_idx = getelementptr inbounds nuw i8, ptr %args, i64 8
  store ptr @_RNvXNtNtNtCsjMrxcFdYDNN_4core3fmt3num3imphNtB6_7Display3fmt, ptr %_16.sroa.4.0..sroa_idx, align 8
  %40 = getelementptr inbounds nuw i8, ptr %args, i64 16
  store ptr %g, ptr %40, align 8
  %_17.sroa.4.0..sroa_idx = getelementptr inbounds nuw i8, ptr %args, i64 24
  store ptr @_RNvXNtNtNtCsjMrxcFdYDNN_4core3fmt3num3imphNtB6_7Display3fmt, ptr %_17.sroa.4.0..sroa_idx, align 8
  %41 = getelementptr inbounds nuw i8, ptr %args, i64 32
  store ptr %b, ptr %41, align 8
  %_18.sroa.4.0..sroa_idx = getelementptr inbounds nuw i8, ptr %args, i64 40
  store ptr @_RNvXNtNtNtCsjMrxcFdYDNN_4core3fmt3num3imphNtB6_7Display3fmt, ptr %_18.sroa.4.0..sroa_idx, align 8
; call alloc::fmt::format::format_inner
  call void @_RNvNvNtCsdJPVW0sQgAG_5alloc3fmt6format12format_inner(ptr noalias noundef nonnull sret([24 x i8]) align 8 captures(none) dereferenceable(24) %_0, ptr noundef nonnull @alloc_8ecae3d72a1b521e22681a6129fb5a94, ptr noundef nonnull %args)
  call void @llvm.lifetime.end.p0(i64 48, ptr nonnull %args)
  call void @llvm.lifetime.end.p0(i64 1, ptr nonnull %b)
  call void @llvm.lifetime.end.p0(i64 1, ptr nonnull %g)
  call void @llvm.lifetime.end.p0(i64 1, ptr nonnull %r)
  br label %bb24
}

; <colored::color::Color>::to_fg_str
; Function Attrs: uwtable
define void @_RNvMNtCshDvXgAkadjA_7colored5colorNtB2_5Color9to_fg_str(ptr dead_on_unwind noalias noundef writable writeonly sret([24 x i8]) align 8 captures(none) dereferenceable(24) %_0, ptr noalias noundef readonly align 1 captures(none) dereferenceable(4) %self) unnamed_addr #3 personality ptr @rust_eh_personality {
start:
  %args = alloca [48 x i8], align 8
  %b = alloca [1 x i8], align 1
  %g = alloca [1 x i8], align 1
  %r = alloca [1 x i8], align 1
  %_5 = alloca [4 x i8], align 4
  %0 = load i8, ptr %self, align 1, !range !182, !noundef !2
  switch i8 %0, label %default.unreachable4 [
    i8 0, label %bb18
    i8 1, label %bb17
    i8 2, label %bb16
    i8 3, label %bb15
    i8 4, label %bb14
    i8 5, label %bb13
    i8 6, label %bb12
    i8 7, label %bb11
    i8 8, label %bb10
    i8 9, label %bb9
    i8 10, label %bb8
    i8 11, label %bb7
    i8 12, label %bb6
    i8 13, label %bb5
    i8 14, label %bb4
    i8 15, label %bb3
    i8 16, label %bb2
  ]

default.unreachable4:                             ; preds = %start
  unreachable

bb18:                                             ; preds = %start
  %1 = getelementptr inbounds nuw i8, ptr %_0, i64 8
  store ptr @alloc_c3fbebdb0220fda2a43de759023090c3, ptr %1, align 8
  %2 = getelementptr inbounds nuw i8, ptr %_0, i64 16
  store i64 2, ptr %2, align 8
  store i64 -9223372036854775808, ptr %_0, align 8
  br label %bb24

bb17:                                             ; preds = %start
  %3 = getelementptr inbounds nuw i8, ptr %_0, i64 8
  store ptr @alloc_6a2cb61e6b0660e36e5d436bb8417179, ptr %3, align 8
  %4 = getelementptr inbounds nuw i8, ptr %_0, i64 16
  store i64 2, ptr %4, align 8
  store i64 -9223372036854775808, ptr %_0, align 8
  br label %bb24

bb16:                                             ; preds = %start
  %5 = getelementptr inbounds nuw i8, ptr %_0, i64 8
  store ptr @alloc_8e020aace2b3cf2c6b8375c8868270b7, ptr %5, align 8
  %6 = getelementptr inbounds nuw i8, ptr %_0, i64 16
  store i64 2, ptr %6, align 8
  store i64 -9223372036854775808, ptr %_0, align 8
  br label %bb24

bb15:                                             ; preds = %start
  %7 = getelementptr inbounds nuw i8, ptr %_0, i64 8
  store ptr @alloc_454c11e38a5cd8d43e8bc4940eb97bee, ptr %7, align 8
  %8 = getelementptr inbounds nuw i8, ptr %_0, i64 16
  store i64 2, ptr %8, align 8
  store i64 -9223372036854775808, ptr %_0, align 8
  br label %bb24

bb14:                                             ; preds = %start
  %9 = getelementptr inbounds nuw i8, ptr %_0, i64 8
  store ptr @alloc_b5a0fc3cf4b8ee4d3aeb5c5640b2b45f, ptr %9, align 8
  %10 = getelementptr inbounds nuw i8, ptr %_0, i64 16
  store i64 2, ptr %10, align 8
  store i64 -9223372036854775808, ptr %_0, align 8
  br label %bb24

bb13:                                             ; preds = %start
  %11 = getelementptr inbounds nuw i8, ptr %_0, i64 8
  store ptr @alloc_56844157099e868917d4b204e532edf2, ptr %11, align 8
  %12 = getelementptr inbounds nuw i8, ptr %_0, i64 16
  store i64 2, ptr %12, align 8
  store i64 -9223372036854775808, ptr %_0, align 8
  br label %bb24

bb12:                                             ; preds = %start
  %13 = getelementptr inbounds nuw i8, ptr %_0, i64 8
  store ptr @alloc_d0730efd1684e823f120eaf5280e28e7, ptr %13, align 8
  %14 = getelementptr inbounds nuw i8, ptr %_0, i64 16
  store i64 2, ptr %14, align 8
  store i64 -9223372036854775808, ptr %_0, align 8
  br label %bb24

bb11:                                             ; preds = %start
  %15 = getelementptr inbounds nuw i8, ptr %_0, i64 8
  store ptr @alloc_542d6812827803deb4df28621f1b32c6, ptr %15, align 8
  %16 = getelementptr inbounds nuw i8, ptr %_0, i64 16
  store i64 2, ptr %16, align 8
  store i64 -9223372036854775808, ptr %_0, align 8
  br label %bb24

bb10:                                             ; preds = %start
  %17 = getelementptr inbounds nuw i8, ptr %_0, i64 8
  store ptr @alloc_3f380359d59e1ef0c5983fcf119716b9, ptr %17, align 8
  %18 = getelementptr inbounds nuw i8, ptr %_0, i64 16
  store i64 2, ptr %18, align 8
  store i64 -9223372036854775808, ptr %_0, align 8
  br label %bb24

bb9:                                              ; preds = %start
  %19 = getelementptr inbounds nuw i8, ptr %_0, i64 8
  store ptr @alloc_82a5b8d1eb5c2fa6842ed3e2641606ac, ptr %19, align 8
  %20 = getelementptr inbounds nuw i8, ptr %_0, i64 16
  store i64 2, ptr %20, align 8
  store i64 -9223372036854775808, ptr %_0, align 8
  br label %bb24

bb8:                                              ; preds = %start
  %21 = getelementptr inbounds nuw i8, ptr %_0, i64 8
  store ptr @alloc_dbc926726952b6c50f4fab069427a2ee, ptr %21, align 8
  %22 = getelementptr inbounds nuw i8, ptr %_0, i64 16
  store i64 2, ptr %22, align 8
  store i64 -9223372036854775808, ptr %_0, align 8
  br label %bb24

bb7:                                              ; preds = %start
  %23 = getelementptr inbounds nuw i8, ptr %_0, i64 8
  store ptr @alloc_43e1742116e6ff496644c2b696ffbf61, ptr %23, align 8
  %24 = getelementptr inbounds nuw i8, ptr %_0, i64 16
  store i64 2, ptr %24, align 8
  store i64 -9223372036854775808, ptr %_0, align 8
  br label %bb24

bb6:                                              ; preds = %start
  %25 = getelementptr inbounds nuw i8, ptr %_0, i64 8
  store ptr @alloc_6ecf2a6bcd09c4d5a8e48190a41b4824, ptr %25, align 8
  %26 = getelementptr inbounds nuw i8, ptr %_0, i64 16
  store i64 2, ptr %26, align 8
  store i64 -9223372036854775808, ptr %_0, align 8
  br label %bb24

bb5:                                              ; preds = %start
  %27 = getelementptr inbounds nuw i8, ptr %_0, i64 8
  store ptr @alloc_42a30566604273b9a26dee42422dad98, ptr %27, align 8
  %28 = getelementptr inbounds nuw i8, ptr %_0, i64 16
  store i64 2, ptr %28, align 8
  store i64 -9223372036854775808, ptr %_0, align 8
  br label %bb24

bb4:                                              ; preds = %start
  %29 = getelementptr inbounds nuw i8, ptr %_0, i64 8
  store ptr @alloc_78ada7107e125f51179d44227ac16370, ptr %29, align 8
  %30 = getelementptr inbounds nuw i8, ptr %_0, i64 16
  store i64 2, ptr %30, align 8
  store i64 -9223372036854775808, ptr %_0, align 8
  br label %bb24

bb3:                                              ; preds = %start
  %31 = getelementptr inbounds nuw i8, ptr %_0, i64 8
  store ptr @alloc_5cfa05489a254439c016c3e56a9f6399, ptr %31, align 8
  %32 = getelementptr inbounds nuw i8, ptr %_0, i64 16
  store i64 2, ptr %32, align 8
  store i64 -9223372036854775808, ptr %_0, align 8
  br label %bb24

bb2:                                              ; preds = %start
; call colored::color::truecolor_support
  %_3 = tail call fastcc noundef zeroext i1 @_RNvNtCshDvXgAkadjA_7colored5color17truecolor_support()
  br i1 %_3, label %bb20, label %bb21

bb24:                                             ; preds = %bb20, %bb21, %bb3, %bb4, %bb5, %bb6, %bb7, %bb8, %bb9, %bb10, %bb11, %bb12, %bb13, %bb14, %bb15, %bb16, %bb17, %bb18
  ret void

bb21:                                             ; preds = %bb2
  call void @llvm.lifetime.start.p0(i64 4, ptr nonnull %_5)
  %_6.sroa.0.0.copyload = load i32, ptr %self, align 1
; call <colored::color::Color>::closest_color_euclidean
  %33 = tail call fastcc i32 @_RNvMNtCshDvXgAkadjA_7colored5colorNtB2_5Color23closest_color_euclidean(i32 %_6.sroa.0.0.copyload)
  store i32 %33, ptr %_5, align 4
; call <colored::color::Color>::to_fg_str
  call void @_RNvMNtCshDvXgAkadjA_7colored5colorNtB2_5Color9to_fg_str(ptr noalias noundef nonnull sret([24 x i8]) align 8 captures(address) dereferenceable(24) %_0, ptr noalias noundef nonnull readonly align 1 captures(address, read_provenance) dereferenceable(4) %_5)
  call void @llvm.lifetime.end.p0(i64 4, ptr nonnull %_5)
  br label %bb24

bb20:                                             ; preds = %bb2
  call void @llvm.lifetime.start.p0(i64 1, ptr nonnull %r)
  %34 = getelementptr inbounds nuw i8, ptr %self, i64 1
  %35 = load i8, ptr %34, align 1, !noundef !2
  store i8 %35, ptr %r, align 1
  call void @llvm.lifetime.start.p0(i64 1, ptr nonnull %g)
  %36 = getelementptr inbounds nuw i8, ptr %self, i64 2
  %37 = load i8, ptr %36, align 1, !noundef !2
  store i8 %37, ptr %g, align 1
  call void @llvm.lifetime.start.p0(i64 1, ptr nonnull %b)
  %38 = getelementptr inbounds nuw i8, ptr %self, i64 3
  %39 = load i8, ptr %38, align 1, !noundef !2
  store i8 %39, ptr %b, align 1
  call void @llvm.lifetime.start.p0(i64 48, ptr nonnull %args)
  store ptr %r, ptr %args, align 8
  %_16.sroa.4.0..sroa_idx = getelementptr inbounds nuw i8, ptr %args, i64 8
  store ptr @_RNvXNtNtNtCsjMrxcFdYDNN_4core3fmt3num3imphNtB6_7Display3fmt, ptr %_16.sroa.4.0..sroa_idx, align 8
  %40 = getelementptr inbounds nuw i8, ptr %args, i64 16
  store ptr %g, ptr %40, align 8
  %_17.sroa.4.0..sroa_idx = getelementptr inbounds nuw i8, ptr %args, i64 24
  store ptr @_RNvXNtNtNtCsjMrxcFdYDNN_4core3fmt3num3imphNtB6_7Display3fmt, ptr %_17.sroa.4.0..sroa_idx, align 8
  %41 = getelementptr inbounds nuw i8, ptr %args, i64 32
  store ptr %b, ptr %41, align 8
  %_18.sroa.4.0..sroa_idx = getelementptr inbounds nuw i8, ptr %args, i64 40
  store ptr @_RNvXNtNtNtCsjMrxcFdYDNN_4core3fmt3num3imphNtB6_7Display3fmt, ptr %_18.sroa.4.0..sroa_idx, align 8
; call alloc::fmt::format::format_inner
  call void @_RNvNvNtCsdJPVW0sQgAG_5alloc3fmt6format12format_inner(ptr noalias noundef nonnull sret([24 x i8]) align 8 captures(none) dereferenceable(24) %_0, ptr noundef nonnull @alloc_e20137bdd1ead667d372a2fd1287ca38, ptr noundef nonnull %args)
  call void @llvm.lifetime.end.p0(i64 48, ptr nonnull %args)
  call void @llvm.lifetime.end.p0(i64 1, ptr nonnull %b)
  call void @llvm.lifetime.end.p0(i64 1, ptr nonnull %g)
  call void @llvm.lifetime.end.p0(i64 1, ptr nonnull %r)
  br label %bb24
}

; <alloc::raw_vec::RawVecInner>::finish_grow
; Function Attrs: cold nounwind uwtable
define internal fastcc void @_RNvMs4_NtCsdJPVW0sQgAG_5alloc7raw_vecNtB5_11RawVecInner11finish_growCshDvXgAkadjA_7colored(ptr dead_on_unwind noalias noundef nonnull writable writeonly align 8 captures(none) dereferenceable(24) initializes((0, 8)) %_0, i64 %self.0.val, ptr %self.8.val, i64 noundef %cap, i64 noundef range(i64 1, 9) %elem_layout.0, i64 noundef range(i64 1, 17) %elem_layout.1) unnamed_addr #4 {
start:
  %_23.i = icmp eq i64 %cap, 0
  br i1 %_23.i, label %bb14.thread, label %bb6.i

bb6.i:                                            ; preds = %start
  %_15.i = add nsw i64 %elem_layout.0, -1
  %_17.i = add nuw nsw i64 %_15.i, %elem_layout.1
  %_19.i = sub nsw i64 0, %elem_layout.0
  %new_size.i = and i64 %_17.i, %_19.i
  %_24.i = add i64 %cap, -1
  %0 = tail call { i64, i1 } @llvm.umul.with.overflow.i64(i64 %new_size.i, i64 %_24.i)
  %_27.0.i = extractvalue { i64, i1 } %0, 0
  %_27.1.i = extractvalue { i64, i1 } %0, 1
  %_33.i = sub nuw i64 -9223372036854775808, %elem_layout.0
  %_32.i = icmp ugt i64 %_27.0.i, %_33.i
  %or.cond.i = select i1 %_27.1.i, i1 true, i1 %_32.i
  br i1 %or.cond.i, label %bb11, label %bb11.i, !prof !183

bb11.i:                                           ; preds = %bb6.i
  %new_size2.i = add nuw i64 %_27.0.i, %elem_layout.1
  %_40.i = icmp ugt i64 %new_size2.i, %_33.i
  br i1 %_40.i, label %bb11, label %bb14

bb14:                                             ; preds = %bb11.i
  %1 = icmp eq i64 %self.0.val, 0
  br i1 %1, label %bb4.i.i11, label %bb3.i.i

bb14.thread:                                      ; preds = %start
  %2 = icmp eq i64 %self.0.val, 0
  br i1 %2, label %bb7.thread, label %bb3.i.i

bb3.i.i:                                          ; preds = %bb14.thread, %bb14
  %_27.sroa.7.01321 = phi i64 [ %new_size2.i, %bb14 ], [ 0, %bb14.thread ]
  %3 = icmp ne ptr %self.8.val, null
  tail call void @llvm.assume(i1 %3)
  %alloc_size.i23 = mul nuw i64 %elem_layout.1, %self.0.val
  %cond.i.i = icmp uge i64 %_27.sroa.7.01321, %alloc_size.i23
  tail call void @llvm.assume(i1 %cond.i.i)
; call __rustc::__rust_realloc
  %raw_ptr.i.i = tail call noundef ptr @_RNvCsKhRCbHf33p_7___rustc14___rust_realloc(ptr noundef nonnull %self.8.val, i64 noundef %alloc_size.i23, i64 noundef range(i64 1, -9223372036854775807) %elem_layout.0, i64 noundef %_27.sroa.7.01321) #23
  br label %bb7

bb7.thread:                                       ; preds = %bb14.thread
  %_16.i.i = inttoptr i64 %elem_layout.0 to ptr
  br label %bb9

bb4.i.i11:                                        ; preds = %bb14
; call __rustc::__rust_no_alloc_shim_is_unstable_v2
  tail call void @_RNvCsKhRCbHf33p_7___rustc35___rust_no_alloc_shim_is_unstable_v2() #23
; call __rustc::__rust_alloc
  %4 = tail call noundef ptr @_RNvCsKhRCbHf33p_7___rustc12___rust_alloc(i64 noundef %new_size2.i, i64 noundef range(i64 1, -9223372036854775807) %elem_layout.0) #23
  br label %bb7

bb7:                                              ; preds = %bb4.i.i11, %bb3.i.i
  %_27.sroa.7.012 = phi i64 [ %_27.sroa.7.01321, %bb3.i.i ], [ %new_size2.i, %bb4.i.i11 ]
  %raw_ptr.i.i.pn = phi ptr [ %raw_ptr.i.i, %bb3.i.i ], [ %4, %bb4.i.i11 ]
  %5 = icmp eq ptr %raw_ptr.i.i.pn, null
  br i1 %5, label %bb8, label %bb9

bb8:                                              ; preds = %bb7
  %6 = getelementptr inbounds nuw i8, ptr %_0, i64 8
  store i64 %elem_layout.0, ptr %6, align 8
  br label %bb11

bb9:                                              ; preds = %bb7.thread, %bb7
  %raw_ptr.i.i.pn31 = phi ptr [ %_16.i.i, %bb7.thread ], [ %raw_ptr.i.i.pn, %bb7 ]
  %_27.sroa.7.01230 = phi i64 [ 0, %bb7.thread ], [ %_27.sroa.7.012, %bb7 ]
  %7 = getelementptr inbounds nuw i8, ptr %_0, i64 8
  store ptr %raw_ptr.i.i.pn31, ptr %7, align 8
  br label %bb11

bb11:                                             ; preds = %bb6.i, %bb11.i, %bb9, %bb8
  %.sink32 = phi i64 [ 16, %bb9 ], [ 16, %bb8 ], [ 8, %bb11.i ], [ 8, %bb6.i ]
  %_27.sroa.7.01230.sink = phi i64 [ %_27.sroa.7.01230, %bb9 ], [ %_27.sroa.7.012, %bb8 ], [ 0, %bb11.i ], [ 0, %bb6.i ]
  %storemerge8 = phi i64 [ 0, %bb9 ], [ 1, %bb8 ], [ 1, %bb11.i ], [ 1, %bb6.i ]
  %8 = getelementptr inbounds nuw i8, ptr %_0, i64 %.sink32
  store i64 %_27.sroa.7.01230.sink, ptr %8, align 8
  store i64 %storemerge8, ptr %_0, align 8
  ret void
}

; <colored::control::ShouldColorize>::set_override
; Function Attrs: mustprogress nofree norecurse nounwind willreturn memory(argmem: readwrite) uwtable
define void @_RNvMs_NtCshDvXgAkadjA_7colored7controlNtB4_14ShouldColorize12set_override(ptr noundef nonnull writeonly align 1 captures(none) %self, i1 noundef zeroext %override_colorize) unnamed_addr #5 {
start:
  %_5 = getelementptr inbounds nuw i8, ptr %self, i64 2
  store atomic i8 1, ptr %_5 monotonic, align 1
  %_9 = getelementptr inbounds nuw i8, ptr %self, i64 3
  %_8 = zext i1 %override_colorize to i8
  store atomic i8 %_8, ptr %_9 monotonic, align 1
  ret void
}

; <colored::control::ShouldColorize>::unset_override
; Function Attrs: mustprogress nofree norecurse nounwind willreturn memory(argmem: readwrite) uwtable
define void @_RNvMs_NtCshDvXgAkadjA_7colored7controlNtB4_14ShouldColorize14unset_override(ptr noundef nonnull writeonly align 1 captures(none) %self) unnamed_addr #5 {
start:
  %_4 = getelementptr inbounds nuw i8, ptr %self, i64 2
  store atomic i8 0, ptr %_4 monotonic, align 1
  ret void
}

; <colored::control::ShouldColorize>::should_colorize
; Function Attrs: mustprogress nofree norecurse nounwind willreturn memory(argmem: readwrite) uwtable
define noundef zeroext i1 @_RNvMs_NtCshDvXgAkadjA_7colored7controlNtB4_14ShouldColorize15should_colorize(ptr noundef nonnull readonly align 1 captures(none) %self) unnamed_addr #5 {
start:
  %_5 = getelementptr inbounds nuw i8, ptr %self, i64 2
  %0 = load atomic i8, ptr %_5 monotonic, align 1
  %1 = icmp eq i8 %0, 0
  br i1 %1, label %bb2, label %bb1

bb2:                                              ; preds = %start
  %2 = getelementptr inbounds nuw i8, ptr %self, i64 1
  %3 = load i8, ptr %2, align 1, !range !25, !noundef !2
  %.not = icmp eq i8 %3, 2
  br i1 %.not, label %bb3, label %bb4

bb1:                                              ; preds = %start
  %_8 = getelementptr inbounds nuw i8, ptr %self, i64 3
  %4 = load atomic i8, ptr %_8 monotonic, align 1
  %5 = icmp ne i8 %4, 0
  br label %bb5

bb4:                                              ; preds = %bb2
  %extract.t = trunc nuw i8 %3 to i1
  br label %bb5

bb3:                                              ; preds = %bb2
  %6 = load i8, ptr %self, align 1, !range !26, !noundef !2
  %extract.t1 = trunc nuw i8 %6 to i1
  br label %bb5

bb5:                                              ; preds = %bb1, %bb3, %bb4
  %forced_value.sroa.0.0.off0 = phi i1 [ %extract.t, %bb4 ], [ %extract.t1, %bb3 ], [ %5, %bb1 ]
  ret i1 %forced_value.sroa.0.0.off0
}

; <colored::control::ShouldColorize>::from_env
; Function Attrs: uwtable
define range(i32 0, 514) i32 @_RNvMs_NtCshDvXgAkadjA_7colored7controlNtB4_14ShouldColorize8from_env() unnamed_addr #3 personality ptr @rust_eh_personality {
start:
  %_9 = alloca [32 x i8], align 8
  %_8 = alloca [32 x i8], align 8
  %_4 = alloca [32 x i8], align 8
  call void @llvm.lifetime.start.p0(i64 32, ptr nonnull %_4)
; call std::env::_var
  call void @_RNvNtCs5sEH5CPMdak_3std3env4__var(ptr noalias noundef nonnull sret([32 x i8]) align 8 captures(none) dereferenceable(32) %_4, ptr noalias noundef nonnull readonly align 1 captures(address, read_provenance) @alloc_5c8c5330792b76d76bc036d6b9372d18, i64 noundef 8)
  tail call void @llvm.experimental.noalias.scope.decl(metadata !184)
  %_2.i = load i64, ptr %_4, align 8, !range !6, !alias.scope !184, !noundef !2
  %0 = trunc nuw i64 %_2.i to i1
  br i1 %0, label %bb3.i.i, label %bb3.i

bb3.i:                                            ; preds = %start
  %1 = getelementptr inbounds nuw i8, ptr %_4, i64 8
  %string.sroa.0.0.copyload.i = load i64, ptr %1, align 8, !alias.scope !184
  %string.sroa.5.0..sroa_idx.i = getelementptr inbounds nuw i8, ptr %_4, i64 16
  %string.sroa.5.0.copyload.i = load ptr, ptr %string.sroa.5.0..sroa_idx.i, align 8, !alias.scope !184, !nonnull !2, !noundef !2
  %string.sroa.8.0..sroa_idx.i = getelementptr inbounds nuw i8, ptr %_4, i64 24
  %string.sroa.8.0.copyload.i = load i64, ptr %string.sroa.8.0..sroa_idx.i, align 8, !alias.scope !184
  %_3.not.i.i = icmp eq i64 %string.sroa.8.0.copyload.i, 1
  br i1 %_3.not.i.i, label %bb2.i.i, label %bb12.i

bb2.i.i:                                          ; preds = %bb3.i
  %lhsc.i = load i8, ptr %string.sroa.5.0.copyload.i, align 1, !noalias !184
  %2 = icmp ne i8 %lhsc.i, 48
  br label %bb12.i

bb12.i:                                           ; preds = %bb2.i.i, %bb3.i
  %_0.sroa.0.0.off0.i.i = phi i1 [ %2, %bb2.i.i ], [ true, %bb3.i ]
  %3 = icmp eq i64 %string.sroa.0.0.copyload.i, 0
  br i1 %3, label %_RNvMs_NtCshDvXgAkadjA_7colored7controlNtB4_14ShouldColorize13normalize_env.exit, label %bb2.i.i.i4.i.i6.i

bb2.i.i.i4.i.i6.i:                                ; preds = %bb12.i
; call __rustc::__rust_dealloc
  tail call void @_RNvCsKhRCbHf33p_7___rustc14___rust_dealloc(ptr noundef nonnull %string.sroa.5.0.copyload.i, i64 noundef %string.sroa.0.0.copyload.i, i64 noundef range(i64 1, -9223372036854775807) 1) #23, !noalias !184
  br label %_RNvMs_NtCshDvXgAkadjA_7colored7controlNtB4_14ShouldColorize13normalize_env.exit

bb3.i.i:                                          ; preds = %start
  tail call void @llvm.experimental.noalias.scope.decl(metadata !187)
  %4 = getelementptr inbounds nuw i8, ptr %_4, i64 8
  %.val.i.i = load i64, ptr %4, align 8, !alias.scope !190
  switch i64 %.val.i.i, label %bb1.sink.split.i.i [
    i64 -9223372036854775808, label %_RNvMs_NtCshDvXgAkadjA_7colored7controlNtB4_14ShouldColorize13normalize_env.exit.thread
    i64 0, label %_RNvMs_NtCshDvXgAkadjA_7colored7controlNtB4_14ShouldColorize13normalize_env.exit.thread
  ]

bb1.sink.split.i.i:                               ; preds = %bb3.i.i
  %5 = getelementptr inbounds nuw i8, ptr %_4, i64 16
  %.val3.i.i = load ptr, ptr %5, align 8, !alias.scope !190, !nonnull !2, !noundef !2
; call __rustc::__rust_dealloc
  tail call void @_RNvCsKhRCbHf33p_7___rustc14___rust_dealloc(ptr noundef nonnull %.val3.i.i, i64 noundef %.val.i.i, i64 noundef range(i64 1, -9223372036854775807) 1) #23, !noalias !190
  br label %_RNvMs_NtCshDvXgAkadjA_7colored7controlNtB4_14ShouldColorize13normalize_env.exit.thread

_RNvMs_NtCshDvXgAkadjA_7colored7controlNtB4_14ShouldColorize13normalize_env.exit.thread: ; preds = %bb3.i.i, %bb3.i.i, %bb1.sink.split.i.i
  call void @llvm.lifetime.end.p0(i64 32, ptr nonnull %_4)
  br label %bb3

_RNvMs_NtCshDvXgAkadjA_7colored7controlNtB4_14ShouldColorize13normalize_env.exit: ; preds = %bb12.i, %bb2.i.i.i4.i.i6.i
  call void @llvm.lifetime.end.p0(i64 32, ptr nonnull %_4)
  br i1 %_0.sroa.0.0.off0.i.i, label %bb3, label %bb6

bb3:                                              ; preds = %_RNvMs_NtCshDvXgAkadjA_7colored7controlNtB4_14ShouldColorize13normalize_env.exit.thread, %_RNvMs_NtCshDvXgAkadjA_7colored7controlNtB4_14ShouldColorize13normalize_env.exit
; call std::io::stdio::stdout
  %6 = tail call noundef nonnull align 8 ptr @_RNvNtNtCs5sEH5CPMdak_3std2io5stdio6stdout()
  %_3.i = tail call noundef i32 @isatty(i32 noundef 1) #23
  %_0.i = icmp ne i32 %_3.i, 0
  %7 = zext i1 %_0.i to i32
  br label %bb6

bb6:                                              ; preds = %_RNvMs_NtCshDvXgAkadjA_7colored7controlNtB4_14ShouldColorize13normalize_env.exit, %bb3
  %_1.sroa.0.0.off0 = phi i32 [ %7, %bb3 ], [ 0, %_RNvMs_NtCshDvXgAkadjA_7colored7controlNtB4_14ShouldColorize13normalize_env.exit ]
  call void @llvm.lifetime.start.p0(i64 32, ptr nonnull %_8)
; call std::env::_var
  call void @_RNvNtCs5sEH5CPMdak_3std3env4__var(ptr noalias noundef nonnull sret([32 x i8]) align 8 captures(none) dereferenceable(32) %_8, ptr noalias noundef nonnull readonly align 1 captures(address, read_provenance) @alloc_9e8821ebf06809bdf585485e81a043ea, i64 noundef 8)
  call void @llvm.lifetime.start.p0(i64 32, ptr nonnull %_9)
; invoke std::env::_var
  invoke void @_RNvNtCs5sEH5CPMdak_3std3env4__var(ptr noalias noundef nonnull sret([32 x i8]) align 8 captures(none) dereferenceable(32) %_9, ptr noalias noundef nonnull readonly align 1 captures(address, read_provenance) @alloc_787344c135fb1ca228327e24d16f41dc, i64 noundef 14)
          to label %bb8 unwind label %bb11

bb8:                                              ; preds = %bb6
  tail call void @llvm.experimental.noalias.scope.decl(metadata !191)
  tail call void @llvm.experimental.noalias.scope.decl(metadata !194)
  tail call void @llvm.experimental.noalias.scope.decl(metadata !196)
  %_2.i.i = load i64, ptr %_9, align 8, !range !6, !alias.scope !199, !noalias !191, !noundef !2
  %8 = trunc nuw i64 %_2.i.i to i1
  br i1 %8, label %bb3.i.i.i, label %bb3.i.i4

bb3.i.i4:                                         ; preds = %bb8
  %9 = getelementptr inbounds nuw i8, ptr %_9, i64 8
  %string.sroa.0.0.copyload.i.i = load i64, ptr %9, align 8, !alias.scope !199, !noalias !191
  %string.sroa.5.0..sroa_idx.i.i = getelementptr inbounds nuw i8, ptr %_9, i64 16
  %string.sroa.5.0.copyload.i.i = load ptr, ptr %string.sroa.5.0..sroa_idx.i.i, align 8, !alias.scope !199, !noalias !191, !nonnull !2, !noundef !2
  %string.sroa.8.0..sroa_idx.i.i = getelementptr inbounds nuw i8, ptr %_9, i64 24
  %string.sroa.8.0.copyload.i.i = load i64, ptr %string.sroa.8.0..sroa_idx.i.i, align 8, !alias.scope !199, !noalias !191
  %_3.not.i.i.i = icmp eq i64 %string.sroa.8.0.copyload.i.i, 1
  br i1 %_3.not.i.i.i, label %bb2.i.i.i, label %bb12.i.i

bb2.i.i.i:                                        ; preds = %bb3.i.i4
  %lhsc.i.i = load i8, ptr %string.sroa.5.0.copyload.i.i, align 1, !noalias !200
  %10 = icmp eq i8 %lhsc.i.i, 48
  br label %bb12.i.i

bb12.i.i:                                         ; preds = %bb2.i.i.i, %bb3.i.i4
  %_0.sroa.0.0.off0.i.i.i = phi i1 [ %10, %bb2.i.i.i ], [ false, %bb3.i.i4 ]
  %11 = icmp eq i64 %string.sroa.0.0.copyload.i.i, 0
  br i1 %11, label %bb1.i, label %bb2.i.i.i4.i.i6.i.i

bb2.i.i.i4.i.i6.i.i:                              ; preds = %bb12.i.i
; call __rustc::__rust_dealloc
  tail call void @_RNvCsKhRCbHf33p_7___rustc14___rust_dealloc(ptr noundef nonnull %string.sroa.5.0.copyload.i.i, i64 noundef %string.sroa.0.0.copyload.i.i, i64 noundef range(i64 1, -9223372036854775807) 1) #23, !noalias !200
  br label %bb1.i

bb3.i.i.i:                                        ; preds = %bb8
  tail call void @llvm.experimental.noalias.scope.decl(metadata !201)
  %12 = getelementptr inbounds nuw i8, ptr %_9, i64 8
  %.val.i.i.i = load i64, ptr %12, align 8, !alias.scope !204, !noalias !191
  switch i64 %.val.i.i.i, label %bb1.sink.split.i.i.i [
    i64 -9223372036854775808, label %bb3.i9
    i64 0, label %bb3.i9
  ]

bb1.sink.split.i.i.i:                             ; preds = %bb3.i.i.i
  %13 = getelementptr inbounds nuw i8, ptr %_9, i64 16
  %.val3.i.i.i = load ptr, ptr %13, align 8, !alias.scope !204, !noalias !191, !nonnull !2, !noundef !2
; call __rustc::__rust_dealloc
  tail call void @_RNvCsKhRCbHf33p_7___rustc14___rust_dealloc(ptr noundef nonnull %.val3.i.i.i, i64 noundef %.val.i.i.i, i64 noundef range(i64 1, -9223372036854775807) 1) #23, !noalias !205
  br label %bb3.i9

bb1.i:                                            ; preds = %bb2.i.i.i4.i.i6.i.i, %bb12.i.i
  br i1 %_0.sroa.0.0.off0.i.i.i, label %bb3.i9, label %bb2.i

bb3.i9:                                           ; preds = %bb1.i, %bb1.sink.split.i.i.i, %bb3.i.i.i, %bb3.i.i.i
  %_6.sroa.0.0.copyload.i = load i64, ptr %_8, align 8, !alias.scope !191, !noalias !194
  %_6.sroa.4.0.no_color.sroa_idx.i = getelementptr inbounds nuw i8, ptr %_8, i64 8
  %_6.sroa.4.0.copyload.i = load i64, ptr %_6.sroa.4.0.no_color.sroa_idx.i, align 8, !alias.scope !191, !noalias !194
  %_6.sroa.6.0.no_color.sroa_idx.i = getelementptr inbounds nuw i8, ptr %_8, i64 16
  %_6.sroa.6.0.copyload.i = load ptr, ptr %_6.sroa.6.0.no_color.sroa_idx.i, align 8, !alias.scope !191, !noalias !194
  %14 = trunc nuw i64 %_6.sroa.0.0.copyload.i to i1
  br i1 %14, label %bb3.i.i17.i, label %bb3.i3.i

bb3.i3.i:                                         ; preds = %bb3.i9
  %15 = icmp ne ptr %_6.sroa.6.0.copyload.i, null
  tail call void @llvm.assume(i1 %15)
  %16 = icmp eq i64 %_6.sroa.4.0.copyload.i, 0
  br i1 %16, label %bb9, label %bb2.i.i.i4.i.i6.i12.i

bb2.i.i.i4.i.i6.i12.i:                            ; preds = %bb3.i3.i
; call __rustc::__rust_dealloc
  tail call void @_RNvCsKhRCbHf33p_7___rustc14___rust_dealloc(ptr noundef nonnull %_6.sroa.6.0.copyload.i, i64 noundef %_6.sroa.4.0.copyload.i, i64 noundef range(i64 1, -9223372036854775807) 1) #23, !noalias !206
  br label %bb9

bb3.i.i17.i:                                      ; preds = %bb3.i9
  switch i64 %_6.sroa.4.0.copyload.i, label %bb1.sink.split.i.i19.i [
    i64 -9223372036854775808, label %bb9
    i64 0, label %bb9
  ]

bb1.sink.split.i.i19.i:                           ; preds = %bb3.i.i17.i
  %17 = icmp ne ptr %_6.sroa.6.0.copyload.i, null
  tail call void @llvm.assume(i1 %17)
; call __rustc::__rust_dealloc
  tail call void @_RNvCsKhRCbHf33p_7___rustc14___rust_dealloc(ptr noundef nonnull %_6.sroa.6.0.copyload.i, i64 noundef %_6.sroa.4.0.copyload.i, i64 noundef range(i64 1, -9223372036854775807) 1) #23, !noalias !209
  br label %bb9

bb2.i:                                            ; preds = %bb1.i
  tail call void @llvm.experimental.noalias.scope.decl(metadata !212)
  %_2.i22.i = load i64, ptr %_8, align 8, !range !6, !alias.scope !215, !noalias !194, !noundef !2
  %18 = icmp eq i64 %_2.i22.i, 0
  %19 = getelementptr inbounds nuw i8, ptr %_8, i64 8
  %.val.i.i5 = load i64, ptr %19, align 8, !alias.scope !215, !noalias !194
  br i1 %18, label %bb2.i.i8, label %bb3.i23.i

bb2.i.i8:                                         ; preds = %bb2.i
  %20 = icmp eq i64 %.val.i.i5, 0
  br i1 %20, label %bb9, label %bb1.sink.split.i.i6

bb3.i23.i:                                        ; preds = %bb2.i
  switch i64 %.val.i.i5, label %bb1.sink.split.i.i6 [
    i64 -9223372036854775808, label %bb9
    i64 0, label %bb9
  ]

bb1.sink.split.i.i6:                              ; preds = %bb3.i23.i, %bb2.i.i8
  %21 = getelementptr inbounds nuw i8, ptr %_8, i64 16
  %.val3.i.i7 = load ptr, ptr %21, align 8, !alias.scope !215, !noalias !194, !nonnull !2, !noundef !2
; call __rustc::__rust_dealloc
  tail call void @_RNvCsKhRCbHf33p_7___rustc14___rust_dealloc(ptr noundef nonnull %.val3.i.i7, i64 noundef %.val.i.i5, i64 noundef range(i64 1, -9223372036854775807) 1) #23, !noalias !216
  br label %bb9

bb9:                                              ; preds = %bb1.sink.split.i.i6, %bb3.i23.i, %bb3.i23.i, %bb2.i.i8, %bb1.sink.split.i.i19.i, %bb3.i.i17.i, %bb3.i.i17.i, %bb2.i.i.i4.i.i6.i12.i, %bb3.i3.i
  %_0.sroa.0.0.i = phi i32 [ 256, %bb2.i.i8 ], [ 256, %bb3.i23.i ], [ 256, %bb3.i23.i ], [ 256, %bb1.sink.split.i.i6 ], [ 0, %bb3.i3.i ], [ 0, %bb2.i.i.i4.i.i6.i12.i ], [ 512, %bb1.sink.split.i.i19.i ], [ 512, %bb3.i.i17.i ], [ 512, %bb3.i.i17.i ]
  call void @llvm.lifetime.end.p0(i64 32, ptr nonnull %_9)
  call void @llvm.lifetime.end.p0(i64 32, ptr nonnull %_8)
  %_0.sroa.0.0.insert.insert = or disjoint i32 %_0.sroa.0.0.i, %_1.sroa.0.0.off0
  ret i32 %_0.sroa.0.0.insert.insert

bb11:                                             ; preds = %bb6
  %22 = landingpad { ptr, i32 }
          cleanup
; call core::ptr::drop_in_place::<core::result::Result<alloc::string::String, std::env::VarError>>
  call fastcc void @_RINvNtCsjMrxcFdYDNN_4core3ptr13drop_in_placeINtNtB4_6result6ResultNtNtCsdJPVW0sQgAG_5alloc6string6StringNtNtCs5sEH5CPMdak_3std3env8VarErrorEECshDvXgAkadjA_7colored(ptr noalias noundef align 8 dereferenceable(32) %_8) #25
  resume { ptr, i32 } %22
}

; colored::color::truecolor_support
; Function Attrs: uwtable
define internal fastcc noundef zeroext i1 @_RNvNtCshDvXgAkadjA_7colored5color17truecolor_support() unnamed_addr #3 personality ptr @rust_eh_personality {
start:
  %truecolor = alloca [32 x i8], align 8
  call void @llvm.lifetime.start.p0(i64 32, ptr nonnull %truecolor)
; call std::env::_var
  call void @_RNvNtCs5sEH5CPMdak_3std3env4__var(ptr noalias noundef nonnull sret([32 x i8]) align 8 captures(none) dereferenceable(32) %truecolor, ptr noalias noundef nonnull readonly align 1 captures(address, read_provenance) @alloc_bbef72ec6bd2c39a4634049fde9777fa, i64 noundef 9)
  %_2 = load i64, ptr %truecolor, align 8, !range !6, !noundef !2
  %0 = trunc nuw i64 %_2 to i1
  br i1 %0, label %bb3.i, label %bb2

bb2:                                              ; preds = %start
  %1 = getelementptr inbounds nuw i8, ptr %truecolor, i64 8
  %truecolor1.sroa.0.0.copyload = load i64, ptr %1, align 8
  %truecolor1.sroa.5.0..sroa_idx = getelementptr inbounds nuw i8, ptr %truecolor, i64 16
  %truecolor1.sroa.5.0.copyload = load ptr, ptr %truecolor1.sroa.5.0..sroa_idx, align 8, !nonnull !2, !noundef !2
  %truecolor1.sroa.9.0..sroa_idx = getelementptr inbounds nuw i8, ptr %truecolor, i64 24
  %truecolor1.sroa.9.0.copyload = load i64, ptr %truecolor1.sroa.9.0..sroa_idx, align 8
  switch i64 %truecolor1.sroa.9.0.copyload, label %bb5 [
    i64 9, label %bb15
    i64 5, label %bb2.i10
  ]

bb15:                                             ; preds = %bb2
  %2 = tail call i32 @memcmp(ptr noundef nonnull readonly align 1 dereferenceable(9) %truecolor1.sroa.5.0.copyload, ptr noundef nonnull dereferenceable(9) @alloc_cdf72cddbb0732970bcaed945c3659d6, i64 range(i64 0, -9223372036854775808) 9), !alias.scope !217
  %3 = icmp eq i32 %2, 0
  br label %bb5

bb2.i10:                                          ; preds = %bb2
  %4 = tail call i32 @memcmp(ptr noundef nonnull readonly align 1 dereferenceable(5) %truecolor1.sroa.5.0.copyload, ptr noundef nonnull dereferenceable(5) @alloc_9f65f0464c50f7cf20dc7fee3e0aa30d, i64 range(i64 0, -9223372036854775808) 5), !alias.scope !221
  %5 = icmp eq i32 %4, 0
  br label %bb5

bb5:                                              ; preds = %bb15, %bb2, %bb2.i10
  %_0.sroa.0.0.off0 = phi i1 [ %5, %bb2.i10 ], [ %3, %bb15 ], [ false, %bb2 ]
  %6 = icmp eq i64 %truecolor1.sroa.0.0.copyload, 0
  br i1 %6, label %bb10, label %bb2.i.i.i4.i.i12

bb2.i.i.i4.i.i12:                                 ; preds = %bb5
; call __rustc::__rust_dealloc
  tail call void @_RNvCsKhRCbHf33p_7___rustc14___rust_dealloc(ptr noundef nonnull %truecolor1.sroa.5.0.copyload, i64 noundef %truecolor1.sroa.0.0.copyload, i64 noundef range(i64 1, -9223372036854775807) 1) #23
  br label %bb10

bb3.i:                                            ; preds = %start
  tail call void @llvm.experimental.noalias.scope.decl(metadata !225)
  %7 = getelementptr inbounds nuw i8, ptr %truecolor, i64 8
  %.val.i = load i64, ptr %7, align 8, !alias.scope !225
  switch i64 %.val.i, label %bb1.sink.split.i [
    i64 -9223372036854775808, label %bb10
    i64 0, label %bb10
  ]

bb1.sink.split.i:                                 ; preds = %bb3.i
  %8 = getelementptr inbounds nuw i8, ptr %truecolor, i64 16
  %.val3.i = load ptr, ptr %8, align 8, !alias.scope !225, !nonnull !2, !noundef !2
; call __rustc::__rust_dealloc
  tail call void @_RNvCsKhRCbHf33p_7___rustc14___rust_dealloc(ptr noundef nonnull %.val3.i, i64 noundef %.val.i, i64 noundef range(i64 1, -9223372036854775807) 1) #23, !noalias !225
  br label %bb10

bb10:                                             ; preds = %bb2.i.i.i4.i.i12, %bb5, %bb1.sink.split.i, %bb3.i, %bb3.i
  %_0.sroa.0.1.off019 = phi i1 [ false, %bb3.i ], [ false, %bb3.i ], [ false, %bb1.sink.split.i ], [ %_0.sroa.0.0.off0, %bb5 ], [ %_0.sroa.0.0.off0, %bb2.i.i.i4.i.i12 ]
  call void @llvm.lifetime.end.p0(i64 32, ptr nonnull %truecolor)
  ret i1 %_0.sroa.0.1.off019
}

; colored::control::set_override
; Function Attrs: uwtable
define void @_RNvNtCshDvXgAkadjA_7colored7control12set_override(i1 noundef zeroext %override_colorize) unnamed_addr #3 personality ptr @rust_eh_personality {
start:
  %_11.i.i = alloca [8 x i8], align 8
  %f1.i.i = alloca [8 x i8], align 8
  %_2.i = alloca [8 x i8], align 8
  call void @llvm.lifetime.start.p0(i64 8, ptr nonnull %_2.i)
  store ptr @_RNvNvNvXs0_NtCshDvXgAkadjA_7colored7controlNtB9_15SHOULD_COLORIZENtNtNtCsjMrxcFdYDNN_4core3ops5deref5Deref5deref11___stability4LAZY, ptr %_2.i, align 8
  %0 = load atomic ptr, ptr @_RNvNvNvXs0_NtCshDvXgAkadjA_7colored7controlNtB9_15SHOULD_COLORIZENtNtNtCsjMrxcFdYDNN_4core3ops5deref5Deref5deref11___stability4LAZY acquire, align 8, !noalias !228
  %_3.i.i = icmp eq ptr %0, null
  br i1 %_3.i.i, label %_RNvXs0_NtCshDvXgAkadjA_7colored7controlNtB5_15SHOULD_COLORIZENtNtNtCsjMrxcFdYDNN_4core3ops5deref5Deref5deref.exit, label %bb2.i.i, !prof !24

bb2.i.i:                                          ; preds = %start
  call void @llvm.lifetime.start.p0(i64 8, ptr nonnull %f1.i.i), !noalias !228
  store ptr %_2.i, ptr %f1.i.i, align 8, !noalias !228
  call void @llvm.lifetime.start.p0(i64 8, ptr nonnull %_11.i.i), !noalias !228
  store ptr %f1.i.i, ptr %_11.i.i, align 8, !noalias !228
; call <std::sys::sync::once::queue::Once>::call
  call void @_RNvMNtNtNtNtCs5sEH5CPMdak_3std3sys4sync4once5queueNtB2_4Once4call(ptr noundef nonnull align 8 @_RNvNvNvXs0_NtCshDvXgAkadjA_7colored7controlNtB9_15SHOULD_COLORIZENtNtNtCsjMrxcFdYDNN_4core3ops5deref5Deref5deref11___stability4LAZY, i1 noundef zeroext false, ptr noundef nonnull align 1 %_11.i.i, ptr noalias noundef readonly align 8 captures(address, read_provenance) dereferenceable(40) @vtable.0, ptr noalias noundef readonly align 8 captures(address, read_provenance) dereferenceable(24) @alloc_4cc74d07071177400f0958be48db382c)
  call void @llvm.lifetime.end.p0(i64 8, ptr nonnull %_11.i.i), !noalias !228
  call void @llvm.lifetime.end.p0(i64 8, ptr nonnull %f1.i.i), !noalias !228
  br label %_RNvXs0_NtCshDvXgAkadjA_7colored7controlNtB5_15SHOULD_COLORIZENtNtNtCsjMrxcFdYDNN_4core3ops5deref5Deref5deref.exit

_RNvXs0_NtCshDvXgAkadjA_7colored7controlNtB5_15SHOULD_COLORIZENtNtNtCsjMrxcFdYDNN_4core3ops5deref5Deref5deref.exit: ; preds = %start, %bb2.i.i
  call void @llvm.lifetime.end.p0(i64 8, ptr nonnull %_2.i)
  store atomic i8 1, ptr getelementptr inbounds nuw (i8, ptr @_RNvNvNvXs0_NtCshDvXgAkadjA_7colored7controlNtB9_15SHOULD_COLORIZENtNtNtCsjMrxcFdYDNN_4core3ops5deref5Deref5deref11___stability4LAZY, i64 10) monotonic, align 2
  %_8.i = zext i1 %override_colorize to i8
  store atomic i8 %_8.i, ptr getelementptr inbounds nuw (i8, ptr @_RNvNvNvXs0_NtCshDvXgAkadjA_7colored7controlNtB9_15SHOULD_COLORIZENtNtNtCsjMrxcFdYDNN_4core3ops5deref5Deref5deref11___stability4LAZY, i64 11) monotonic, align 1
  ret void
}

; colored::control::unset_override
; Function Attrs: uwtable
define void @_RNvNtCshDvXgAkadjA_7colored7control14unset_override() unnamed_addr #3 personality ptr @rust_eh_personality {
start:
  %_11.i.i = alloca [8 x i8], align 8
  %f1.i.i = alloca [8 x i8], align 8
  %_2.i = alloca [8 x i8], align 8
  call void @llvm.lifetime.start.p0(i64 8, ptr nonnull %_2.i)
  store ptr @_RNvNvNvXs0_NtCshDvXgAkadjA_7colored7controlNtB9_15SHOULD_COLORIZENtNtNtCsjMrxcFdYDNN_4core3ops5deref5Deref5deref11___stability4LAZY, ptr %_2.i, align 8
  %0 = load atomic ptr, ptr @_RNvNvNvXs0_NtCshDvXgAkadjA_7colored7controlNtB9_15SHOULD_COLORIZENtNtNtCsjMrxcFdYDNN_4core3ops5deref5Deref5deref11___stability4LAZY acquire, align 8, !noalias !231
  %_3.i.i = icmp eq ptr %0, null
  br i1 %_3.i.i, label %_RNvXs0_NtCshDvXgAkadjA_7colored7controlNtB5_15SHOULD_COLORIZENtNtNtCsjMrxcFdYDNN_4core3ops5deref5Deref5deref.exit, label %bb2.i.i, !prof !24

bb2.i.i:                                          ; preds = %start
  call void @llvm.lifetime.start.p0(i64 8, ptr nonnull %f1.i.i), !noalias !231
  store ptr %_2.i, ptr %f1.i.i, align 8, !noalias !231
  call void @llvm.lifetime.start.p0(i64 8, ptr nonnull %_11.i.i), !noalias !231
  store ptr %f1.i.i, ptr %_11.i.i, align 8, !noalias !231
; call <std::sys::sync::once::queue::Once>::call
  call void @_RNvMNtNtNtNtCs5sEH5CPMdak_3std3sys4sync4once5queueNtB2_4Once4call(ptr noundef nonnull align 8 @_RNvNvNvXs0_NtCshDvXgAkadjA_7colored7controlNtB9_15SHOULD_COLORIZENtNtNtCsjMrxcFdYDNN_4core3ops5deref5Deref5deref11___stability4LAZY, i1 noundef zeroext false, ptr noundef nonnull align 1 %_11.i.i, ptr noalias noundef readonly align 8 captures(address, read_provenance) dereferenceable(40) @vtable.0, ptr noalias noundef readonly align 8 captures(address, read_provenance) dereferenceable(24) @alloc_4cc74d07071177400f0958be48db382c)
  call void @llvm.lifetime.end.p0(i64 8, ptr nonnull %_11.i.i), !noalias !231
  call void @llvm.lifetime.end.p0(i64 8, ptr nonnull %f1.i.i), !noalias !231
  br label %_RNvXs0_NtCshDvXgAkadjA_7colored7controlNtB5_15SHOULD_COLORIZENtNtNtCsjMrxcFdYDNN_4core3ops5deref5Deref5deref.exit

_RNvXs0_NtCshDvXgAkadjA_7colored7controlNtB5_15SHOULD_COLORIZENtNtNtCsjMrxcFdYDNN_4core3ops5deref5Deref5deref.exit: ; preds = %start, %bb2.i.i
  call void @llvm.lifetime.end.p0(i64 8, ptr nonnull %_2.i)
  store atomic i8 0, ptr getelementptr inbounds nuw (i8, ptr @_RNvNvNvXs0_NtCshDvXgAkadjA_7colored7controlNtB9_15SHOULD_COLORIZENtNtNtCsjMrxcFdYDNN_4core3ops5deref5Deref5deref11___stability4LAZY, i64 10) monotonic, align 2
  ret void
}

; <colored::color::Color as core::convert::From<alloc::string::String>>::from
; Function Attrs: uwtable
define range(i32 0, 18) i32 @_RNvXs0_NtCshDvXgAkadjA_7colored5colorNtB5_5ColorINtNtCsjMrxcFdYDNN_4core7convert4FromNtNtCsdJPVW0sQgAG_5alloc6string6StringE4from(ptr dead_on_return noalias noundef readonly align 8 captures(none) dereferenceable(24) %src) unnamed_addr #3 personality ptr @rust_eh_personality {
start:
  %0 = getelementptr inbounds nuw i8, ptr %src, i64 8
  %_8 = load ptr, ptr %0, align 8, !nonnull !2, !noundef !2
  %1 = getelementptr inbounds nuw i8, ptr %src, i64 16
  %_7 = load i64, ptr %1, align 8, !noundef !2
; invoke <colored::color::Color as core::str::traits::FromStr>::from_str
  %2 = invoke i32 @_RNvXs1_NtCshDvXgAkadjA_7colored5colorNtB5_5ColorNtNtNtCsjMrxcFdYDNN_4core3str6traits7FromStr8from_str(ptr noalias noundef nonnull readonly align 1 captures(address, read_provenance) %_8, i64 noundef %_7)
          to label %bb4 unwind label %cleanup

cleanup:                                          ; preds = %start
  %3 = landingpad { ptr, i32 }
          cleanup
  %src.val = load i64, ptr %src, align 8
  %4 = icmp eq i64 %src.val, 0
  br i1 %4, label %bb3, label %bb2.i.i.i4.i.i

bb2.i.i.i4.i.i:                                   ; preds = %cleanup
; call __rustc::__rust_dealloc
  tail call void @_RNvCsKhRCbHf33p_7___rustc14___rust_dealloc(ptr noundef nonnull %_8, i64 noundef %src.val, i64 noundef range(i64 1, -9223372036854775807) 1) #23
  br label %bb3

bb4:                                              ; preds = %start
  %src.val4 = load i64, ptr %src, align 8
  %5 = icmp eq i64 %src.val4, 0
  br i1 %5, label %_RINvNtCsjMrxcFdYDNN_4core3ptr13drop_in_placeNtNtCsdJPVW0sQgAG_5alloc6string6StringECshDvXgAkadjA_7colored.exit7, label %bb2.i.i.i4.i.i6

bb2.i.i.i4.i.i6:                                  ; preds = %bb4
; call __rustc::__rust_dealloc
  tail call void @_RNvCsKhRCbHf33p_7___rustc14___rust_dealloc(ptr noundef nonnull %_8, i64 noundef %src.val4, i64 noundef range(i64 1, -9223372036854775807) 1) #23
  br label %_RINvNtCsjMrxcFdYDNN_4core3ptr13drop_in_placeNtNtCsdJPVW0sQgAG_5alloc6string6StringECshDvXgAkadjA_7colored.exit7

_RINvNtCsjMrxcFdYDNN_4core3ptr13drop_in_placeNtNtCsdJPVW0sQgAG_5alloc6string6StringECshDvXgAkadjA_7colored.exit7: ; preds = %bb4, %bb2.i.i.i4.i.i6
  %6 = icmp eq i32 %2, 17
  %spec.select = select i1 %6, i32 7, i32 %2
  ret i32 %spec.select

bb3:                                              ; preds = %bb2.i.i.i4.i.i, %cleanup
  resume { ptr, i32 } %3
}

; <colored::error::ColoredStringError as core::fmt::Debug>::fmt
; Function Attrs: uwtable
define noundef zeroext i1 @_RNvXs0_NtCshDvXgAkadjA_7colored5errorNtB5_18ColoredStringErrorNtNtCsjMrxcFdYDNN_4core3fmt5Debug3fmt(ptr noalias noundef readonly align 8 captures(address, read_provenance) dereferenceable(40) %self, ptr noalias noundef readonly align 8 captures(none) dereferenceable(24) %f) unnamed_addr #3 {
start:
  %args.i = alloca [16 x i8], align 8
  %f.val = load ptr, ptr %f, align 8, !nonnull !2, !align !108, !noundef !2
  %0 = getelementptr inbounds nuw i8, ptr %f, i64 8
  %f.val1 = load ptr, ptr %0, align 8, !nonnull !2, !align !12, !noundef !2
  call void @llvm.lifetime.start.p0(i64 16, ptr nonnull %args.i), !noalias !234
  store ptr %self, ptr %args.i, align 8, !noalias !234
  %_6.sroa.4.0..sroa_idx.i = getelementptr inbounds nuw i8, ptr %args.i, i64 8
  store ptr @_RNvXs5_CshDvXgAkadjA_7coloredNtB5_13ColoredStringNtNtCsjMrxcFdYDNN_4core3fmt7Display3fmt, ptr %_6.sroa.4.0..sroa_idx.i, align 8, !noalias !234
; call core::fmt::write
  %1 = call noundef zeroext i1 @_RNvNtCsjMrxcFdYDNN_4core3fmt5write(ptr noundef nonnull align 1 %f.val, ptr noalias noundef nonnull readonly align 8 captures(address, read_provenance) dereferenceable(48) %f.val1, ptr noundef nonnull @alloc_0c812808379efded5a4fb82d2790b556, ptr noundef nonnull %args.i)
  call void @llvm.lifetime.end.p0(i64 16, ptr nonnull %args.i), !noalias !234
  ret i1 %1
}

; <colored::control::SHOULD_COLORIZE as core::ops::deref::Deref>::deref
; Function Attrs: uwtable
define noundef nonnull align 1 ptr @_RNvXs0_NtCshDvXgAkadjA_7colored7controlNtB5_15SHOULD_COLORIZENtNtNtCsjMrxcFdYDNN_4core3ops5deref5Deref5deref(ptr noalias noundef nonnull readonly align 1 captures(none) %self) unnamed_addr #3 personality ptr @rust_eh_personality {
start:
  %_11.i = alloca [8 x i8], align 8
  %f1.i = alloca [8 x i8], align 8
  %_2 = alloca [8 x i8], align 8
  call void @llvm.lifetime.start.p0(i64 8, ptr nonnull %_2)
  store ptr @_RNvNvNvXs0_NtCshDvXgAkadjA_7colored7controlNtB9_15SHOULD_COLORIZENtNtNtCsjMrxcFdYDNN_4core3ops5deref5Deref5deref11___stability4LAZY, ptr %_2, align 8
  %0 = load atomic ptr, ptr @_RNvNvNvXs0_NtCshDvXgAkadjA_7colored7controlNtB9_15SHOULD_COLORIZENtNtNtCsjMrxcFdYDNN_4core3ops5deref5Deref5deref11___stability4LAZY acquire, align 8, !noalias !237
  %_3.i = icmp eq ptr %0, null
  br i1 %_3.i, label %_RINvMs0_NtNtCs5sEH5CPMdak_3std4sync4onceNtB6_4Once9call_onceNCINvMNtCs3hqUhmJYu5V_11lazy_static4lazyINtB12_4LazyNtNtCshDvXgAkadjA_7colored7control14ShouldColorizeE3getNvNvXs0_B1O_NtB1O_15SHOULD_COLORIZENtNtNtCsjMrxcFdYDNN_4core3ops5deref5Deref5deref23___static_ref_initializeE0EB1Q_.exit, label %bb2.i, !prof !24

bb2.i:                                            ; preds = %start
  call void @llvm.lifetime.start.p0(i64 8, ptr nonnull %f1.i), !noalias !237
  store ptr %_2, ptr %f1.i, align 8, !noalias !237
  call void @llvm.lifetime.start.p0(i64 8, ptr nonnull %_11.i), !noalias !237
  store ptr %f1.i, ptr %_11.i, align 8, !noalias !237
; call <std::sys::sync::once::queue::Once>::call
  call void @_RNvMNtNtNtNtCs5sEH5CPMdak_3std3sys4sync4once5queueNtB2_4Once4call(ptr noundef nonnull align 8 @_RNvNvNvXs0_NtCshDvXgAkadjA_7colored7controlNtB9_15SHOULD_COLORIZENtNtNtCsjMrxcFdYDNN_4core3ops5deref5Deref5deref11___stability4LAZY, i1 noundef zeroext false, ptr noundef nonnull align 1 %_11.i, ptr noalias noundef readonly align 8 captures(address, read_provenance) dereferenceable(40) @vtable.0, ptr noalias noundef readonly align 8 captures(address, read_provenance) dereferenceable(24) @alloc_4cc74d07071177400f0958be48db382c)
  call void @llvm.lifetime.end.p0(i64 8, ptr nonnull %_11.i), !noalias !237
  call void @llvm.lifetime.end.p0(i64 8, ptr nonnull %f1.i), !noalias !237
  br label %_RINvMs0_NtNtCs5sEH5CPMdak_3std4sync4onceNtB6_4Once9call_onceNCINvMNtCs3hqUhmJYu5V_11lazy_static4lazyINtB12_4LazyNtNtCshDvXgAkadjA_7colored7control14ShouldColorizeE3getNvNvXs0_B1O_NtB1O_15SHOULD_COLORIZENtNtNtCsjMrxcFdYDNN_4core3ops5deref5Deref5deref23___static_ref_initializeE0EB1Q_.exit

_RINvMs0_NtNtCs5sEH5CPMdak_3std4sync4onceNtB6_4Once9call_onceNCINvMNtCs3hqUhmJYu5V_11lazy_static4lazyINtB12_4LazyNtNtCshDvXgAkadjA_7colored7control14ShouldColorizeE3getNvNvXs0_B1O_NtB1O_15SHOULD_COLORIZENtNtNtCsjMrxcFdYDNN_4core3ops5deref5Deref5deref23___static_ref_initializeE0EB1Q_.exit: ; preds = %start, %bb2.i
  call void @llvm.lifetime.end.p0(i64 8, ptr nonnull %_2)
  ret ptr getelementptr inbounds nuw (i8, ptr @_RNvNvNvXs0_NtCshDvXgAkadjA_7colored7controlNtB9_15SHOULD_COLORIZENtNtNtCsjMrxcFdYDNN_4core3ops5deref5Deref5deref11___stability4LAZY, i64 8)
}

; <core::iter::adapters::map::Map<core::str::iter::MatchIndices<&str>, <colored::ColoredString>::escape_inner_reset_sequences::{closure#0}> as core::iter::traits::iterator::Iterator>::next
; Function Attrs: inlinehint uwtable
define internal fastcc { i64, i64 } @_RNvXs0_NtNtNtCsjMrxcFdYDNN_4core4iter8adapters3mapINtB5_3MapINtNtNtBb_3str4iter12MatchIndicesReENCNvMCshDvXgAkadjA_7coloredNtB1B_13ColoredString28escape_inner_reset_sequences0ENtNtNtB9_6traits8iterator8Iterator4nextB1B_(ptr noalias noundef nonnull align 8 captures(none) dereferenceable(104) %self) unnamed_addr #0 personality ptr @rust_eh_personality {
start:
  %self1.i.i = alloca [24 x i8], align 8
  tail call void @llvm.experimental.noalias.scope.decl(metadata !240)
  tail call void @llvm.experimental.noalias.scope.decl(metadata !243)
  call void @llvm.lifetime.start.p0(i64 24, ptr nonnull %self1.i.i), !noalias !246
  tail call void @llvm.experimental.noalias.scope.decl(metadata !249)
  tail call void @llvm.experimental.noalias.scope.decl(metadata !252)
  %_2.i.i.i = load i64, ptr %self, align 8, !range !6, !alias.scope !254, !noalias !255, !noundef !2
  %0 = trunc nuw i64 %_2.i.i.i to i1
  br i1 %0, label %bb2.i.i.i, label %bb3.i.critedge.i.i.i

bb2.i.i.i:                                        ; preds = %start
  %searcher.i.i.i = getelementptr inbounds nuw i8, ptr %self, i64 8
  %1 = getelementptr inbounds nuw i8, ptr %self, i64 56
  %_10.i.i.i = load i64, ptr %1, align 8, !alias.scope !254, !noalias !255, !noundef !2
  %is_long.i.i.i = icmp eq i64 %_10.i.i.i, -1
  %2 = getelementptr inbounds nuw i8, ptr %self, i64 72
  %self.03.i.i.i = load ptr, ptr %2, align 8, !alias.scope !254, !noalias !255, !nonnull !2, !align !108, !noundef !2
  %3 = getelementptr inbounds nuw i8, ptr %self, i64 80
  %self.14.i.i.i = load i64, ptr %3, align 8, !alias.scope !254, !noalias !255, !noundef !2
  %4 = getelementptr inbounds nuw i8, ptr %self, i64 88
  %self.05.i.i.i = load ptr, ptr %4, align 8, !alias.scope !254, !noalias !255, !nonnull !2, !align !108, !noundef !2
  %5 = getelementptr inbounds nuw i8, ptr %self, i64 96
  %self.16.i.i.i = load i64, ptr %5, align 8, !alias.scope !254, !noalias !255, !noundef !2
  br i1 %is_long.i.i.i, label %bb8.i.i.i, label %bb9.i.i.i

bb3.i.critedge.i.i.i:                             ; preds = %start
  tail call void @llvm.experimental.noalias.scope.decl(metadata !256)
  %6 = getelementptr inbounds nuw i8, ptr %self, i64 8
  %7 = getelementptr inbounds nuw i8, ptr %self, i64 26
  %8 = load i8, ptr %7, align 2, !range !26, !alias.scope !259, !noalias !260, !noundef !2
  %_4.i.i.i.i = trunc nuw i8 %8 to i1
  br i1 %_4.i.i.i.i, label %bb10.i.i.i, label %bb5.i.lr.ph.i.i.i

bb5.i.lr.ph.i.i.i:                                ; preds = %bb3.i.critedge.i.i.i
  %.promoted.i.i.i = load i64, ptr %6, align 8, !alias.scope !254, !noalias !255
  %9 = getelementptr inbounds nuw i8, ptr %self, i64 24
  %10 = getelementptr inbounds nuw i8, ptr %self, i64 72
  %self.0.i.i.i.i = load ptr, ptr %10, align 8, !alias.scope !259, !noalias !260, !nonnull !2, !align !108, !noundef !2
  %11 = getelementptr inbounds nuw i8, ptr %self, i64 80
  %self.1.i.i.i.i = load i64, ptr %11, align 8, !alias.scope !259, !noalias !260, !noundef !2
  %_48.i.i.i.i = getelementptr inbounds nuw i8, ptr %self.0.i.i.i.i, i64 %self.1.i.i.i.i
  %.promoted29.i.i.i = load i8, ptr %9, align 8, !alias.scope !259, !noalias !260
  %extract.t.i.i.i = trunc i8 %.promoted29.i.i.i to i1
  %12 = icmp eq i64 %.promoted.i.i.i, 0
  br i1 %12, label %bb19.i.i.peel.i.i, label %bb5.i.i.i.peel.i.i

bb5.i.i.i.peel.i.i:                               ; preds = %bb5.i.lr.ph.i.i.i
  %_8.not.i.i.i.peel.i.i = icmp ult i64 %.promoted.i.i.i, %self.1.i.i.i.i
  br i1 %_8.not.i.i.i.peel.i.i, label %bb9.i.i.i.peel.i.i, label %bb6.i.i.i.peel.i.i

bb6.i.i.i.peel.i.i:                               ; preds = %bb5.i.i.i.peel.i.i
  %13 = icmp eq i64 %.promoted.i.i.i, %self.1.i.i.i.i
  br i1 %13, label %bb19.i.i.peel.i.i, label %bb18.i.i.i.i

bb9.i.i.i.peel.i.i:                               ; preds = %bb5.i.i.i.peel.i.i
  %14 = getelementptr inbounds nuw i8, ptr %self.0.i.i.i.i, i64 %.promoted.i.i.i
  %self1.i.i.i.peel.i.i = load i8, ptr %14, align 1, !alias.scope !262, !noalias !265, !noundef !2
  %15 = icmp sgt i8 %self1.i.i.i.peel.i.i, -65
  br i1 %15, label %bb19.i.i.peel.i.i, label %bb18.i.i.i.i

bb19.i.i.peel.i.i:                                ; preds = %bb9.i.i.i.peel.i.i, %bb6.i.i.i.peel.i.i, %bb5.i.lr.ph.i.i.i
  %data.i.i.i.peel.i.i = getelementptr inbounds nuw i8, ptr %self.0.i.i.i.i, i64 %.promoted.i.i.i
  %_6.i.i.i.i.peel.i.i = icmp samesign eq i64 %.promoted.i.i.i, %self.1.i.i.i.i
  br i1 %_6.i.i.i.i.peel.i.i, label %bb21.i.i.i.i, label %bb14.i.i.i.peel.i.i

bb14.i.i.i.peel.i.i:                              ; preds = %bb19.i.i.peel.i.i
  %x.i.i.i.peel.i.i = load i8, ptr %data.i.i.i.peel.i.i, align 1, !noalias !267, !noundef !2
  %_6.i.i.i.peel.i.i = icmp sgt i8 %x.i.i.i.peel.i.i, -1
  br i1 %_6.i.i.i.peel.i.i, label %bb3.i.i.i.peel.i.i, label %bb4.i.i.i.peel.i.i

bb4.i.i.i.peel.i.i:                               ; preds = %bb14.i.i.i.peel.i.i
  %_16.i.i.i.i.peel.i.i = getelementptr inbounds nuw i8, ptr %data.i.i.i.peel.i.i, i64 1
  %_30.i.i.i.peel.i.i = and i8 %x.i.i.i.peel.i.i, 31
  %init.i.i.i.peel.i.i = zext nneg i8 %_30.i.i.i.peel.i.i to i32
  %_6.i10.i.i.i.peel.i.i = icmp ne ptr %_16.i.i.i.i.peel.i.i, %_48.i.i.i.i
  tail call void @llvm.assume(i1 %_6.i10.i.i.i.peel.i.i)
  %y.i.i.i.peel.i.i = load i8, ptr %_16.i.i.i.i.peel.i.i, align 1, !noalias !267, !noundef !2
  %_33.i.i.i.peel.i.i = shl nuw nsw i32 %init.i.i.i.peel.i.i, 6
  %_35.i.i.i.peel.i.i = and i8 %y.i.i.i.peel.i.i, 63
  %_34.i.i.i.peel.i.i = zext nneg i8 %_35.i.i.i.peel.i.i to i32
  %16 = or disjoint i32 %_33.i.i.i.peel.i.i, %_34.i.i.i.peel.i.i
  %_13.i.i.i.peel.i.i = icmp samesign ugt i8 %x.i.i.i.peel.i.i, -33
  br i1 %_13.i.i.i.peel.i.i, label %bb6.i21.i.i.peel.i.i, label %bb22.i.i.peel.i.i

bb6.i21.i.i.peel.i.i:                             ; preds = %bb4.i.i.i.peel.i.i
  %_16.i12.i.i.i.peel.i.i = getelementptr inbounds nuw i8, ptr %data.i.i.i.peel.i.i, i64 2
  %_6.i17.i.i.i.peel.i.i = icmp ne ptr %_16.i12.i.i.i.peel.i.i, %_48.i.i.i.i
  tail call void @llvm.assume(i1 %_6.i17.i.i.i.peel.i.i)
  %z.i.i.i.peel.i.i = load i8, ptr %_16.i12.i.i.i.peel.i.i, align 1, !noalias !267, !noundef !2
  %_38.i.i.i.peel.i.i = shl nuw nsw i32 %_34.i.i.i.peel.i.i, 6
  %_40.i.i.i.peel.i.i = and i8 %z.i.i.i.peel.i.i, 63
  %_39.i.i.i.peel.i.i = zext nneg i8 %_40.i.i.i.peel.i.i to i32
  %y_z.i.i.i.peel.i.i = or disjoint i32 %_38.i.i.i.peel.i.i, %_39.i.i.i.peel.i.i
  %_20.i.i.i.peel.i.i = shl nuw nsw i32 %init.i.i.i.peel.i.i, 12
  %17 = or disjoint i32 %y_z.i.i.i.peel.i.i, %_20.i.i.i.peel.i.i
  %_21.i.i.i.peel.i.i = icmp samesign ugt i8 %x.i.i.i.peel.i.i, -17
  br i1 %_21.i.i.i.peel.i.i, label %bb8.i.i.i.peel.i.i, label %bb22.i.i.peel.i.i

bb8.i.i.i.peel.i.i:                               ; preds = %bb6.i21.i.i.peel.i.i
  %_16.i19.i.i.i.peel.i.i = getelementptr inbounds nuw i8, ptr %data.i.i.i.peel.i.i, i64 3
  %_6.i24.i.i.i.peel.i.i = icmp ne ptr %_16.i19.i.i.i.peel.i.i, %_48.i.i.i.i
  tail call void @llvm.assume(i1 %_6.i24.i.i.i.peel.i.i)
  %w.i.i.i.peel.i.i = load i8, ptr %_16.i19.i.i.i.peel.i.i, align 1, !noalias !267, !noundef !2
  %_26.i.i.i.peel.i.i = shl nuw nsw i32 %init.i.i.i.peel.i.i, 18
  %_25.i.i.i.peel.i.i = and i32 %_26.i.i.i.peel.i.i, 1835008
  %_43.i.i.i.peel.i.i = shl nuw nsw i32 %y_z.i.i.i.peel.i.i, 6
  %_45.i.i.i.peel.i.i = and i8 %w.i.i.i.peel.i.i, 63
  %_44.i.i.i.peel.i.i = zext nneg i8 %_45.i.i.i.peel.i.i to i32
  %_27.i.i.i.peel.i.i = or disjoint i32 %_43.i.i.i.peel.i.i, %_44.i.i.i.peel.i.i
  %18 = or disjoint i32 %_27.i.i.i.peel.i.i, %_25.i.i.i.peel.i.i
  br label %bb22.i.i.peel.i.i

bb3.i.i.i.peel.i.i:                               ; preds = %bb14.i.i.i.peel.i.i
  %_7.i.i.i.peel.i.i = zext nneg i8 %x.i.i.i.peel.i.i to i32
  br label %bb22.i.i.peel.i.i

bb22.i.i.peel.i.i:                                ; preds = %bb3.i.i.i.peel.i.i, %bb8.i.i.i.peel.i.i, %bb6.i21.i.i.peel.i.i, %bb4.i.i.i.peel.i.i
  %_0.sroa.4.0.i.ph.i.i.peel.i.i = phi i32 [ %16, %bb4.i.i.i.peel.i.i ], [ %17, %bb6.i21.i.i.peel.i.i ], [ %18, %bb8.i.i.i.peel.i.i ], [ %_7.i.i.i.peel.i.i, %bb3.i.i.i.peel.i.i ]
  %19 = icmp samesign ult i32 %_0.sroa.4.0.i.ph.i.i.peel.i.i, 1114112
  tail call void @llvm.assume(i1 %19)
  br i1 %extract.t.i.i.i, label %bb7.i.sink.split.i.i, label %bb39.i.i.peel.i.i

bb39.i.i.peel.i.i:                                ; preds = %bb22.i.i.peel.i.i
  %_59.i.i.peel.i.i = icmp samesign ult i32 %_0.sroa.4.0.i.ph.i.i.peel.i.i, 128
  br i1 %_59.i.i.peel.i.i, label %bb5.i.i.i.i, label %bb26.i.i.peel.i.i

bb26.i.i.peel.i.i:                                ; preds = %bb39.i.i.peel.i.i
  %_60.i.i.peel.i.i = icmp samesign ult i32 %_0.sroa.4.0.i.ph.i.i.peel.i.i, 2048
  br i1 %_60.i.i.peel.i.i, label %bb5.i.i.i.i, label %bb27.i.i.peel.i.i

bb27.i.i.peel.i.i:                                ; preds = %bb26.i.i.peel.i.i
  %_61.i.i.peel.i.i = icmp samesign ult i32 %_0.sroa.4.0.i.ph.i.i.peel.i.i, 65536
  %..i.i.peel.i.i = select i1 %_61.i.i.peel.i.i, i64 3, i64 4
  br label %bb5.i.i.i.i

bb5.i.i.i.i:                                      ; preds = %bb27.i.i.peel.i.i, %bb26.i.i.peel.i.i, %bb39.i.i.peel.i.i
  %_14.sroa.0.0.i.i.peel.i.i = phi i64 [ 1, %bb39.i.i.peel.i.i ], [ %..i.i.peel.i.i, %bb27.i.i.peel.i.i ], [ 2, %bb26.i.i.peel.i.i ]
  %20 = add i64 %_14.sroa.0.0.i.i.peel.i.i, %.promoted.i.i.i
  store i64 %20, ptr %6, align 8, !alias.scope !270, !noalias !260
  tail call void @llvm.experimental.noalias.scope.decl(metadata !271)
  %21 = icmp eq i64 %20, 0
  br i1 %21, label %bb19.i.i.i.i, label %bb5.i.i.i.i.i

bb5.i.i.i.i.i:                                    ; preds = %bb5.i.i.i.i
  %_8.not.i.i.i.i.i = icmp ult i64 %20, %self.1.i.i.i.i
  br i1 %_8.not.i.i.i.i.i, label %bb9.i.i.i.i.i, label %bb6.i.i.i.i.i

bb6.i.i.i.i.i:                                    ; preds = %bb5.i.i.i.i.i
  %22 = icmp eq i64 %20, %self.1.i.i.i.i
  br i1 %22, label %bb19.i.i.i.i, label %bb18.i.i.i.i

bb9.i.i.i.i.i:                                    ; preds = %bb5.i.i.i.i.i
  %23 = getelementptr inbounds nuw i8, ptr %self.0.i.i.i.i, i64 %20
  %self1.i.i.i.i.i = load i8, ptr %23, align 1, !alias.scope !262, !noalias !272, !noundef !2
  %24 = icmp sgt i8 %self1.i.i.i.i.i, -65
  br i1 %24, label %bb19.i.i.i.i, label %bb18.i.i.i.i

bb19.i.i.i.i:                                     ; preds = %bb9.i.i.i.i.i, %bb6.i.i.i.i.i, %bb5.i.i.i.i
  %data.i.i.i.i.i = getelementptr inbounds nuw i8, ptr %self.0.i.i.i.i, i64 %20
  %_6.i.i.i.i.i.i = icmp samesign eq i64 %20, %self.1.i.i.i.i
  br i1 %_6.i.i.i.i.i.i, label %bb7.i.sink.split.i.i, label %bb14.i.i.i.i.i

bb14.i.i.i.i.i:                                   ; preds = %bb19.i.i.i.i
  %x.i.i.i.i.i = load i8, ptr %data.i.i.i.i.i, align 1, !noalias !273, !noundef !2
  %_6.i.i.i.i.i = icmp sgt i8 %x.i.i.i.i.i, -1
  br i1 %_6.i.i.i.i.i, label %bb3.i.i.i.i.i, label %bb4.i.i.i.i.i

bb4.i.i.i.i.i:                                    ; preds = %bb14.i.i.i.i.i
  %_16.i.i.i.i.i.i = getelementptr inbounds nuw i8, ptr %data.i.i.i.i.i, i64 1
  %_30.i.i.i.i.i = and i8 %x.i.i.i.i.i, 31
  %init.i.i.i.i.i = zext nneg i8 %_30.i.i.i.i.i to i32
  %_6.i10.i.i.i.i.i = icmp ne ptr %_16.i.i.i.i.i.i, %_48.i.i.i.i
  tail call void @llvm.assume(i1 %_6.i10.i.i.i.i.i)
  %y.i.i.i.i.i = load i8, ptr %_16.i.i.i.i.i.i, align 1, !noalias !273, !noundef !2
  %_33.i.i.i.i.i = shl nuw nsw i32 %init.i.i.i.i.i, 6
  %_35.i.i.i.i.i = and i8 %y.i.i.i.i.i, 63
  %_34.i.i.i.i.i = zext nneg i8 %_35.i.i.i.i.i to i32
  %25 = or disjoint i32 %_33.i.i.i.i.i, %_34.i.i.i.i.i
  %_13.i.i.i.i.i = icmp samesign ugt i8 %x.i.i.i.i.i, -33
  br i1 %_13.i.i.i.i.i, label %bb6.i21.i.i.i.i, label %bb7.loopexit.i.loopexit.i.i

bb3.i.i.i.i.i:                                    ; preds = %bb14.i.i.i.i.i
  %_7.i.i.i.i.i = zext nneg i8 %x.i.i.i.i.i to i32
  br label %bb7.loopexit.i.loopexit.i.i

bb6.i21.i.i.i.i:                                  ; preds = %bb4.i.i.i.i.i
  %_16.i12.i.i.i.i.i = getelementptr inbounds nuw i8, ptr %data.i.i.i.i.i, i64 2
  %_6.i17.i.i.i.i.i = icmp ne ptr %_16.i12.i.i.i.i.i, %_48.i.i.i.i
  tail call void @llvm.assume(i1 %_6.i17.i.i.i.i.i)
  %z.i.i.i.i.i = load i8, ptr %_16.i12.i.i.i.i.i, align 1, !noalias !273, !noundef !2
  %_38.i.i.i.i.i = shl nuw nsw i32 %_34.i.i.i.i.i, 6
  %_40.i.i.i.i.i = and i8 %z.i.i.i.i.i, 63
  %_39.i.i.i.i.i = zext nneg i8 %_40.i.i.i.i.i to i32
  %y_z.i.i.i.i.i = or disjoint i32 %_38.i.i.i.i.i, %_39.i.i.i.i.i
  %_20.i.i.i.i.i = shl nuw nsw i32 %init.i.i.i.i.i, 12
  %26 = or disjoint i32 %y_z.i.i.i.i.i, %_20.i.i.i.i.i
  %_21.i.i.i.i.i = icmp samesign ugt i8 %x.i.i.i.i.i, -17
  br i1 %_21.i.i.i.i.i, label %bb8.i.i.i.i.i, label %bb7.loopexit.i.loopexit.i.i

bb8.i.i.i.i.i:                                    ; preds = %bb6.i21.i.i.i.i
  %_16.i19.i.i.i.i.i = getelementptr inbounds nuw i8, ptr %data.i.i.i.i.i, i64 3
  %_6.i24.i.i.i.i.i = icmp ne ptr %_16.i19.i.i.i.i.i, %_48.i.i.i.i
  tail call void @llvm.assume(i1 %_6.i24.i.i.i.i.i)
  %w.i.i.i.i.i = load i8, ptr %_16.i19.i.i.i.i.i, align 1, !noalias !273, !noundef !2
  %_26.i.i.i.i.i = shl nuw nsw i32 %init.i.i.i.i.i, 18
  %_25.i.i.i.i.i = and i32 %_26.i.i.i.i.i, 1835008
  %_43.i.i.i.i.i = shl nuw nsw i32 %y_z.i.i.i.i.i, 6
  %_45.i.i.i.i.i = and i8 %w.i.i.i.i.i, 63
  %_44.i.i.i.i.i = zext nneg i8 %_45.i.i.i.i.i to i32
  %_27.i.i.i.i.i = or disjoint i32 %_43.i.i.i.i.i, %_44.i.i.i.i.i
  %27 = or disjoint i32 %_27.i.i.i.i.i, %_25.i.i.i.i.i
  br label %bb7.loopexit.i.loopexit.i.i

bb18.i.i.i.i:                                     ; preds = %bb9.i.i.i.i.i, %bb6.i.i.i.i.i, %bb9.i.i.i.peel.i.i, %bb6.i.i.i.peel.i.i
  %.off0.i.lcssa.i.i = phi i1 [ %extract.t.i.i.i, %bb6.i.i.i.peel.i.i ], [ %extract.t.i.i.i, %bb9.i.i.i.peel.i.i ], [ true, %bb6.i.i.i.i.i ], [ true, %bb9.i.i.i.i.i ]
  %.lcssa.i.i = phi i64 [ %.promoted.i.i.i, %bb6.i.i.i.peel.i.i ], [ %.promoted.i.i.i, %bb9.i.i.i.peel.i.i ], [ %20, %bb6.i.i.i.i.i ], [ %20, %bb9.i.i.i.i.i ]
  %28 = xor i1 %.off0.i.lcssa.i.i, true
  %29 = zext i1 %28 to i8
  store i8 %29, ptr %9, align 8, !alias.scope !259, !noalias !260
; call core::str::slice_error_fail
  tail call void @_RNvNtCsjMrxcFdYDNN_4core3str16slice_error_fail(ptr noalias noundef nonnull readonly align 1 captures(address, read_provenance) %self.0.i.i.i.i, i64 noundef %self.1.i.i.i.i, i64 noundef %.lcssa.i.i, i64 noundef %self.1.i.i.i.i, ptr noalias noundef readonly align 8 captures(address, read_provenance) dereferenceable(24) @alloc_559c4f386b668c946885822cef1a587d) #22, !noalias !272
  unreachable

bb21.i.i.i.i:                                     ; preds = %bb19.i.i.peel.i.i
  %30 = xor i1 %extract.t.i.i.i, true
  %31 = zext i1 %30 to i8
  store i8 %31, ptr %9, align 8, !alias.scope !259, !noalias !260
  br i1 %extract.t.i.i.i, label %bb7.i.i.i, label %bb40.i.i.i.i

bb40.i.i.i.i:                                     ; preds = %bb21.i.i.i.i
  store i8 1, ptr %7, align 2, !alias.scope !259, !noalias !260
  br label %bb10.i.i.i

bb7.loopexit.i.loopexit.i.i:                      ; preds = %bb8.i.i.i.i.i, %bb6.i21.i.i.i.i, %bb3.i.i.i.i.i, %bb4.i.i.i.i.i
  %_0.sroa.4.0.i.ph.i.i.i.i = phi i32 [ %25, %bb4.i.i.i.i.i ], [ %26, %bb6.i21.i.i.i.i ], [ %27, %bb8.i.i.i.i.i ], [ %_7.i.i.i.i.i, %bb3.i.i.i.i.i ]
  %32 = icmp samesign ult i32 %_0.sroa.4.0.i.ph.i.i.i.i, 1114112
  tail call void @llvm.assume(i1 %32)
  br label %bb7.i.sink.split.i.i

bb7.i.sink.split.i.i:                             ; preds = %bb7.loopexit.i.loopexit.i.i, %bb19.i.i.i.i, %bb22.i.i.peel.i.i
  %.ph.i.i = phi i64 [ %self.1.i.i.i.i, %bb19.i.i.i.i ], [ %.promoted.i.i.i, %bb22.i.i.peel.i.i ], [ %20, %bb7.loopexit.i.loopexit.i.i ]
  store i8 0, ptr %9, align 8, !alias.scope !259, !noalias !260
  br label %bb7.i.i.i

bb7.i.i.i:                                        ; preds = %bb7.i.sink.split.i.i, %bb21.i.i.i.i
  %33 = phi i64 [ %.promoted.i.i.i, %bb21.i.i.i.i ], [ %.ph.i.i, %bb7.i.sink.split.i.i ]
  %34 = getelementptr inbounds nuw i8, ptr %self1.i.i, i64 8
  store i64 %33, ptr %34, align 8, !alias.scope !249, !noalias !274
  br label %bb10.i.i.i

bb10.i.i.i:                                       ; preds = %bb7.i.i.i, %bb40.i.i.i.i, %bb3.i.critedge.i.i.i
  %storemerge.i.i.i = phi i64 [ 1, %bb7.i.i.i ], [ 0, %bb40.i.i.i.i ], [ 0, %bb3.i.critedge.i.i.i ]
  store i64 %storemerge.i.i.i, ptr %self1.i.i, align 8, !alias.scope !249, !noalias !274
  br label %_RNvXsv_NtNtCsjMrxcFdYDNN_4core3str7patternNtB5_11StrSearcherNtB5_8Searcher10next_match.exit.i.i

bb9.i.i.i:                                        ; preds = %bb2.i.i.i
; call <core::str::pattern::TwoWaySearcher>::next::<core::str::pattern::MatchOnly>
  call fastcc void @_RINvMsx_NtNtCsjMrxcFdYDNN_4core3str7patternNtB6_14TwoWaySearcher4nextNtB6_9MatchOnlyECshDvXgAkadjA_7colored(ptr noalias noundef nonnull align 8 captures(address) dereferenceable(24) %self1.i.i, ptr noalias noundef align 8 dereferenceable(64) %searcher.i.i.i, ptr noalias noundef nonnull readonly align 1 captures(address, read_provenance) %self.03.i.i.i, i64 noundef %self.14.i.i.i, ptr noalias noundef nonnull readonly align 1 captures(address, read_provenance) %self.05.i.i.i, i64 noundef %self.16.i.i.i, i1 noundef zeroext false) #26, !noalias !275
  br label %_RNvXsv_NtNtCsjMrxcFdYDNN_4core3str7patternNtB5_11StrSearcherNtB5_8Searcher10next_match.exit.i.i

bb8.i.i.i:                                        ; preds = %bb2.i.i.i
; call <core::str::pattern::TwoWaySearcher>::next::<core::str::pattern::MatchOnly>
  call fastcc void @_RINvMsx_NtNtCsjMrxcFdYDNN_4core3str7patternNtB6_14TwoWaySearcher4nextNtB6_9MatchOnlyECshDvXgAkadjA_7colored(ptr noalias noundef nonnull align 8 captures(address) dereferenceable(24) %self1.i.i, ptr noalias noundef align 8 dereferenceable(64) %searcher.i.i.i, ptr noalias noundef nonnull readonly align 1 captures(address, read_provenance) %self.03.i.i.i, i64 noundef %self.14.i.i.i, ptr noalias noundef nonnull readonly align 1 captures(address, read_provenance) %self.05.i.i.i, i64 noundef %self.16.i.i.i, i1 noundef zeroext true) #26, !noalias !275
  br label %_RNvXsv_NtNtCsjMrxcFdYDNN_4core3str7patternNtB5_11StrSearcherNtB5_8Searcher10next_match.exit.i.i

_RNvXsv_NtNtCsjMrxcFdYDNN_4core3str7patternNtB5_11StrSearcherNtB5_8Searcher10next_match.exit.i.i: ; preds = %bb8.i.i.i, %bb9.i.i.i, %bb10.i.i.i
  %_6.i.i = load i64, ptr %self1.i.i, align 8, !range !6, !noalias !246, !noundef !2
  %35 = trunc nuw i64 %_6.i.i to i1
  %36 = getelementptr inbounds nuw i8, ptr %self1.i.i, i64 8
  %x.0.i.i = load i64, ptr %36, align 8
  %self1.sroa.0.05 = select i1 %35, i64 %x.0.i.i, i64 undef
  call void @llvm.lifetime.end.p0(i64 24, ptr nonnull %self1.i.i), !noalias !246
  %37 = insertvalue { i64, i64 } poison, i64 %_6.i.i, 0
  %38 = insertvalue { i64, i64 } %37, i64 %self1.sroa.0.05, 1
  ret { i64, i64 } %38
}

; <colored::ColoredString as core::convert::From<alloc::string::String>>::from
; Function Attrs: mustprogress nofree norecurse nosync nounwind willreturn memory(argmem: readwrite) uwtable
define void @_RNvXs1_CshDvXgAkadjA_7coloredNtB5_13ColoredStringINtNtCsjMrxcFdYDNN_4core7convert4FromNtNtCsdJPVW0sQgAG_5alloc6string6StringE4from(ptr dead_on_unwind noalias noundef writable writeonly sret([40 x i8]) align 8 captures(none) dereferenceable(40) initializes((0, 33)) %_0, ptr dead_on_return noalias noundef readonly align 8 captures(none) dereferenceable(24) %s) unnamed_addr #6 personality ptr @rust_eh_personality {
_RINvNtCsjMrxcFdYDNN_4core3ptr13drop_in_placeNtCshDvXgAkadjA_7colored13ColoredStringEBI_.exit:
  tail call void @llvm.memcpy.p0.p0.i64(ptr noundef nonnull align 8 dereferenceable(24) %_0, ptr noundef nonnull align 8 dereferenceable(24) %s, i64 24, i1 false)
  %0 = getelementptr inbounds nuw i8, ptr %_0, i64 24
  store <2 x i32> splat (i32 17), ptr %0, align 8
  %1 = getelementptr inbounds nuw i8, ptr %_0, i64 32
  store i8 0, ptr %1, align 8
  ret void
}

; <colored::color::Color as core::str::traits::FromStr>::from_str
; Function Attrs: uwtable
define range(i32 0, 18) i32 @_RNvXs1_NtCshDvXgAkadjA_7colored5colorNtB5_5ColorNtNtNtCsjMrxcFdYDNN_4core3str6traits7FromStr8from_str(ptr noalias noundef nonnull readonly align 1 captures(address, read_provenance) %src.0, i64 noundef %src.1) unnamed_addr #3 personality ptr @rust_eh_personality {
start:
  %src = alloca [24 x i8], align 8
  call void @llvm.lifetime.start.p0(i64 24, ptr nonnull %src)
; call <str>::to_lowercase
  call void @_RNvMs3_NtCsdJPVW0sQgAG_5alloc3stre12to_lowercase(ptr noalias noundef nonnull sret([24 x i8]) align 8 captures(none) dereferenceable(24) %src, ptr noalias noundef nonnull readonly align 1 captures(address, read_provenance) %src.0, i64 noundef %src.1)
  %0 = getelementptr inbounds nuw i8, ptr %src, i64 8
  %_42 = load ptr, ptr %0, align 8, !nonnull !2, !noundef !2
  %1 = getelementptr inbounds nuw i8, ptr %src, i64 16
  %_41 = load i64, ptr %1, align 8, !noundef !2
  switch i64 %_41, label %bb34.thread229 [
    i64 5, label %bb40
    i64 3, label %bb41
    i64 6, label %bb43
    i64 4, label %bb44
    i64 7, label %bb45
    i64 12, label %bb49
    i64 10, label %bb50
    i64 13, label %bb52
    i64 11, label %bb53
    i64 14, label %bb54
  ]

bb40:                                             ; preds = %start
  %2 = tail call i32 @memcmp(ptr noundef nonnull readonly align 1 dereferenceable(5) %_42, ptr noundef nonnull dereferenceable(5) @alloc_f46351429e0b545e52edab17c91e045b, i64 range(i64 0, -9223372036854775808) 5), !alias.scope !276
  %3 = icmp eq i32 %2, 0
  br i1 %3, label %bb36, label %bb42

bb41:                                             ; preds = %start
  %4 = tail call i32 @memcmp(ptr noundef nonnull readonly align 1 dereferenceable(3) %_42, ptr noundef nonnull dereferenceable(3) @alloc_940496d3cd18caebe90765385b962abe, i64 range(i64 0, -9223372036854775808) 3), !alias.scope !280
  %5 = icmp eq i32 %4, 0
  br i1 %5, label %bb36, label %bb34.thread229

bb42:                                             ; preds = %bb40
  %6 = tail call i32 @memcmp(ptr noundef nonnull readonly align 1 dereferenceable(5) %_42, ptr noundef nonnull dereferenceable(5) @alloc_b8ebeef8965b067fea87e4e40f7a2696, i64 range(i64 0, -9223372036854775808) 5), !alias.scope !284
  %7 = icmp eq i32 %6, 0
  br i1 %7, label %bb36, label %bb18.thread236

bb18.thread236:                                   ; preds = %bb42
  %8 = tail call i32 @memcmp(ptr noundef nonnull readonly align 1 dereferenceable(5) %_42, ptr noundef nonnull dereferenceable(5) @alloc_16c9842326e8d04943b3c4e15a061707, i64 range(i64 0, -9223372036854775808) 5), !alias.scope !288
  %9 = icmp eq i32 %8, 0
  br i1 %9, label %bb36, label %bb34

bb43:                                             ; preds = %start
  %10 = tail call i32 @memcmp(ptr noundef nonnull readonly align 1 dereferenceable(6) %_42, ptr noundef nonnull dereferenceable(6) @alloc_761ec3f22b4eea6465689eb413e86232, i64 range(i64 0, -9223372036854775808) 6), !alias.scope !292
  %11 = icmp eq i32 %10, 0
  br i1 %11, label %bb36, label %bb46

bb44:                                             ; preds = %start
  %12 = tail call i32 @memcmp(ptr noundef nonnull readonly align 1 dereferenceable(4) %_42, ptr noundef nonnull dereferenceable(4) @alloc_d11e62a55d3bc6b15beecd4f0707fbb1, i64 range(i64 0, -9223372036854775808) 4), !alias.scope !296
  %13 = icmp eq i32 %12, 0
  br i1 %13, label %bb36, label %bb47.thread237

bb45:                                             ; preds = %start
  %14 = tail call i32 @memcmp(ptr noundef nonnull readonly align 1 dereferenceable(7) %_42, ptr noundef nonnull dereferenceable(7) @alloc_3d9fd8ba1c29d9f6085e0294be30b396, i64 range(i64 0, -9223372036854775808) 7), !alias.scope !300
  %15 = icmp eq i32 %14, 0
  br i1 %15, label %bb36, label %bb34.thread229

bb46:                                             ; preds = %bb43
  %16 = tail call i32 @memcmp(ptr noundef nonnull readonly align 1 dereferenceable(6) %_42, ptr noundef nonnull dereferenceable(6) @alloc_f98107cca013894fc55bc81ab0efc10d, i64 range(i64 0, -9223372036854775808) 6), !alias.scope !304
  %17 = icmp eq i32 %16, 0
  br i1 %17, label %bb36, label %bb34.thread229

bb47.thread237:                                   ; preds = %bb44
  %18 = tail call i32 @memcmp(ptr noundef nonnull readonly align 1 dereferenceable(4) %_42, ptr noundef nonnull dereferenceable(4) @alloc_6fc1c32c52b5575ce6b85d0118457658, i64 range(i64 0, -9223372036854775808) 4), !alias.scope !308
  %19 = icmp eq i32 %18, 0
  br i1 %19, label %bb36, label %bb34.thread229

bb49:                                             ; preds = %start
  %20 = tail call i32 @memcmp(ptr nonnull readonly align 1 %_42, ptr nonnull @alloc_79d8d48460afb75434b7246d2beb1a78, i64 range(i64 0, -9223372036854775808) %_41), !alias.scope !312
  %21 = icmp eq i32 %20, 0
  br i1 %21, label %bb36, label %bb51

bb50:                                             ; preds = %start
  %22 = tail call i32 @memcmp(ptr nonnull readonly align 1 %_42, ptr nonnull @alloc_547f42fbb48b55aafa563ae7b4c13933, i64 range(i64 0, -9223372036854775808) %_41), !alias.scope !316
  %23 = icmp eq i32 %22, 0
  br i1 %23, label %bb36, label %bb34

bb51:                                             ; preds = %bb49
  %24 = tail call i32 @memcmp(ptr nonnull readonly align 1 %_42, ptr nonnull @alloc_9188f0c91b493bd3363141f30e983a9c, i64 range(i64 0, -9223372036854775808) %_41), !alias.scope !320
  %25 = icmp eq i32 %24, 0
  br i1 %25, label %bb36, label %bb56

bb52:                                             ; preds = %start
  %26 = tail call i32 @memcmp(ptr nonnull readonly align 1 %_42, ptr nonnull @alloc_636cb1bc3530e7c536526ad0e8515791, i64 range(i64 0, -9223372036854775808) %_41), !alias.scope !324
  %27 = icmp eq i32 %26, 0
  br i1 %27, label %bb36, label %bb34.thread229

bb53:                                             ; preds = %start
  %28 = tail call i32 @memcmp(ptr nonnull readonly align 1 %_42, ptr nonnull @alloc_20a451ffaa0cff2424aad5f5a90c4ab9, i64 range(i64 0, -9223372036854775808) %_41), !alias.scope !328
  %29 = icmp eq i32 %28, 0
  br i1 %29, label %bb36, label %bb55

bb54:                                             ; preds = %start
  %30 = tail call i32 @memcmp(ptr nonnull readonly align 1 %_42, ptr nonnull @alloc_f4a4168b7f6a17d04b115608c34abe7e, i64 range(i64 0, -9223372036854775808) %_41), !alias.scope !332
  %31 = icmp eq i32 %30, 0
  br i1 %31, label %bb36, label %bb34.thread229

bb55:                                             ; preds = %bb53
  %32 = tail call i32 @memcmp(ptr nonnull readonly align 1 %_42, ptr nonnull @alloc_06952700c0346790dbf96ba0b62ae842, i64 range(i64 0, -9223372036854775808) %_41), !alias.scope !336
  %33 = icmp eq i32 %32, 0
  %spec.select242 = select i1 %33, i32 14, i32 17
  br label %bb36

bb34.thread229:                                   ; preds = %bb47.thread237, %bb46, %bb41, %bb45, %bb54, %start, %bb52
  br label %bb36

bb34:                                             ; preds = %bb18.thread236, %bb50
  br label %bb36

bb56:                                             ; preds = %bb51
  %34 = tail call i32 @memcmp(ptr nonnull readonly align 1 %_42, ptr nonnull @alloc_00f3c0d15c4d4a7d99148aeb65910835, i64 range(i64 0, -9223372036854775808) %_41), !alias.scope !340
  %.fr = freeze i32 %34
  %35 = icmp eq i32 %.fr, 0
  %spec.select = select i1 %35, i32 15, i32 17
  br label %bb36

bb36:                                             ; preds = %bb55, %bb56, %bb34.thread229, %bb34, %bb47.thread237, %bb54, %bb53, %bb52, %bb51, %bb50, %bb49, %bb18.thread236, %bb46, %bb45, %bb44, %bb43, %bb42, %bb41, %bb40
  %_0.sroa.0.0 = phi i32 [ 0, %bb40 ], [ 1, %bb41 ], [ 2, %bb42 ], [ 3, %bb43 ], [ 4, %bb44 ], [ 5, %bb45 ], [ 5, %bb46 ], [ 7, %bb18.thread236 ], [ 8, %bb49 ], [ 9, %bb50 ], [ 10, %bb51 ], [ 11, %bb52 ], [ 12, %bb53 ], [ 13, %bb54 ], [ 6, %bb47.thread237 ], [ 17, %bb34 ], [ 17, %bb34.thread229 ], [ %spec.select, %bb56 ], [ %spec.select242, %bb55 ]
  %src.val34 = load i64, ptr %src, align 8
  %36 = icmp eq i64 %src.val34, 0
  br i1 %36, label %_RINvNtCsjMrxcFdYDNN_4core3ptr13drop_in_placeNtNtCsdJPVW0sQgAG_5alloc6string6StringECshDvXgAkadjA_7colored.exit101, label %bb2.i.i.i4.i.i100

bb2.i.i.i4.i.i100:                                ; preds = %bb36
; call __rustc::__rust_dealloc
  tail call void @_RNvCsKhRCbHf33p_7___rustc14___rust_dealloc(ptr noundef nonnull %_42, i64 noundef %src.val34, i64 noundef range(i64 1, -9223372036854775807) 1) #23
  br label %_RINvNtCsjMrxcFdYDNN_4core3ptr13drop_in_placeNtNtCsdJPVW0sQgAG_5alloc6string6StringECshDvXgAkadjA_7colored.exit101

_RINvNtCsjMrxcFdYDNN_4core3ptr13drop_in_placeNtNtCsdJPVW0sQgAG_5alloc6string6StringECshDvXgAkadjA_7colored.exit101: ; preds = %bb36, %bb2.i.i.i4.i.i100
  call void @llvm.lifetime.end.p0(i64 24, ptr nonnull %src)
  ret i32 %_0.sroa.0.0
}

; <colored::control::SHOULD_COLORIZE as lazy_static::LazyStatic>::initialize
; Function Attrs: uwtable
define void @_RNvXs1_NtCshDvXgAkadjA_7colored7controlNtB5_15SHOULD_COLORIZENtCs3hqUhmJYu5V_11lazy_static10LazyStatic10initialize(ptr noalias noundef nonnull readonly align 1 captures(none) %lazy) unnamed_addr #3 personality ptr @rust_eh_personality {
start:
  %_11.i.i = alloca [8 x i8], align 8
  %f1.i.i = alloca [8 x i8], align 8
  %_2.i = alloca [8 x i8], align 8
  call void @llvm.lifetime.start.p0(i64 8, ptr nonnull %_2.i)
  store ptr @_RNvNvNvXs0_NtCshDvXgAkadjA_7colored7controlNtB9_15SHOULD_COLORIZENtNtNtCsjMrxcFdYDNN_4core3ops5deref5Deref5deref11___stability4LAZY, ptr %_2.i, align 8
  %0 = load atomic ptr, ptr @_RNvNvNvXs0_NtCshDvXgAkadjA_7colored7controlNtB9_15SHOULD_COLORIZENtNtNtCsjMrxcFdYDNN_4core3ops5deref5Deref5deref11___stability4LAZY acquire, align 8, !noalias !344
  %_3.i.i = icmp eq ptr %0, null
  br i1 %_3.i.i, label %_RNvXs0_NtCshDvXgAkadjA_7colored7controlNtB5_15SHOULD_COLORIZENtNtNtCsjMrxcFdYDNN_4core3ops5deref5Deref5deref.exit, label %bb2.i.i, !prof !24

bb2.i.i:                                          ; preds = %start
  call void @llvm.lifetime.start.p0(i64 8, ptr nonnull %f1.i.i), !noalias !344
  store ptr %_2.i, ptr %f1.i.i, align 8, !noalias !344
  call void @llvm.lifetime.start.p0(i64 8, ptr nonnull %_11.i.i), !noalias !344
  store ptr %f1.i.i, ptr %_11.i.i, align 8, !noalias !344
; call <std::sys::sync::once::queue::Once>::call
  call void @_RNvMNtNtNtNtCs5sEH5CPMdak_3std3sys4sync4once5queueNtB2_4Once4call(ptr noundef nonnull align 8 @_RNvNvNvXs0_NtCshDvXgAkadjA_7colored7controlNtB9_15SHOULD_COLORIZENtNtNtCsjMrxcFdYDNN_4core3ops5deref5Deref5deref11___stability4LAZY, i1 noundef zeroext false, ptr noundef nonnull align 1 %_11.i.i, ptr noalias noundef readonly align 8 captures(address, read_provenance) dereferenceable(40) @vtable.0, ptr noalias noundef readonly align 8 captures(address, read_provenance) dereferenceable(24) @alloc_4cc74d07071177400f0958be48db382c)
  call void @llvm.lifetime.end.p0(i64 8, ptr nonnull %_11.i.i), !noalias !344
  call void @llvm.lifetime.end.p0(i64 8, ptr nonnull %f1.i.i), !noalias !344
  br label %_RNvXs0_NtCshDvXgAkadjA_7colored7controlNtB5_15SHOULD_COLORIZENtNtNtCsjMrxcFdYDNN_4core3ops5deref5Deref5deref.exit

_RNvXs0_NtCshDvXgAkadjA_7colored7controlNtB5_15SHOULD_COLORIZENtNtNtCsjMrxcFdYDNN_4core3ops5deref5Deref5deref.exit: ; preds = %start, %bb2.i.i
  call void @llvm.lifetime.end.p0(i64 8, ptr nonnull %_2.i)
  ret void
}

; <&u8 as core::fmt::Debug>::fmt
; Function Attrs: uwtable
define internal noundef zeroext i1 @_RNvXs1g_NtCsjMrxcFdYDNN_4core3fmtRhNtB6_5Debug3fmtCshDvXgAkadjA_7colored(ptr noalias noundef readonly align 8 captures(none) dereferenceable(8) %self, ptr noalias noundef align 8 dereferenceable(24) %f) unnamed_addr #3 {
start:
  %_3 = load ptr, ptr %self, align 8, !nonnull !2, !align !108, !noundef !2
  %0 = getelementptr inbounds nuw i8, ptr %f, i64 16
  %_4.i = load i32, ptr %0, align 8, !alias.scope !347, !noalias !350, !noundef !2
  %_3.i = and i32 %_4.i, 33554432
  %1 = icmp eq i32 %_3.i, 0
  br i1 %1, label %bb2.i, label %bb1.i

bb2.i:                                            ; preds = %start
  %_5.i = and i32 %_4.i, 67108864
  %2 = icmp eq i32 %_5.i, 0
  br i1 %2, label %bb4.i, label %bb3.i

bb1.i:                                            ; preds = %start
; call <u8 as core::fmt::LowerHex>::fmt
  %3 = tail call noundef zeroext i1 @_RNvXse_NtNtCsjMrxcFdYDNN_4core3fmt3numhNtB7_8LowerHex3fmt(ptr noalias noundef nonnull readonly align 1 captures(address, read_provenance) dereferenceable(1) %_3, ptr noalias noundef nonnull align 8 dereferenceable(24) %f)
  br label %_RNvXsU_NtNtCsjMrxcFdYDNN_4core3fmt3numhNtB7_5Debug3fmt.exit

bb4.i:                                            ; preds = %bb2.i
; call <u8 as core::fmt::Display>::fmt
  %4 = tail call noundef zeroext i1 @_RNvXNtNtNtCsjMrxcFdYDNN_4core3fmt3num3imphNtB6_7Display3fmt(ptr noalias noundef nonnull readonly align 1 captures(address, read_provenance) dereferenceable(1) %_3, ptr noalias noundef nonnull align 8 dereferenceable(24) %f)
  br label %_RNvXsU_NtNtCsjMrxcFdYDNN_4core3fmt3numhNtB7_5Debug3fmt.exit

bb3.i:                                            ; preds = %bb2.i
; call <u8 as core::fmt::UpperHex>::fmt
  %5 = tail call noundef zeroext i1 @_RNvXsg_NtNtCsjMrxcFdYDNN_4core3fmt3numhNtB7_8UpperHex3fmt(ptr noalias noundef nonnull readonly align 1 captures(address, read_provenance) dereferenceable(1) %_3, ptr noalias noundef nonnull align 8 dereferenceable(24) %f)
  br label %_RNvXsU_NtNtCsjMrxcFdYDNN_4core3fmt3numhNtB7_5Debug3fmt.exit

_RNvXsU_NtNtCsjMrxcFdYDNN_4core3fmt3numhNtB7_5Debug3fmt.exit: ; preds = %bb1.i, %bb4.i, %bb3.i
  %_0.sroa.0.0.in.i = phi i1 [ %4, %bb4.i ], [ %5, %bb3.i ], [ %3, %bb1.i ]
  ret i1 %_0.sroa.0.0.in.i
}

; <colored::ColoredString as core::convert::From<&str>>::from
; Function Attrs: uwtable
define void @_RNvXs2_CshDvXgAkadjA_7coloredNtB5_13ColoredStringINtNtCsjMrxcFdYDNN_4core7convert4FromReE4from(ptr dead_on_unwind noalias noundef writable writeonly sret([40 x i8]) align 8 captures(none) dereferenceable(40) %_0, ptr noalias noundef nonnull readonly align 1 captures(none) %s.0, i64 noundef %s.1) unnamed_addr #3 personality ptr @rust_eh_personality {
start:
  %_23.i.i = icmp eq i64 %s.1, 0
  br i1 %_23.i.i, label %_RINvNtCsjMrxcFdYDNN_4core3ptr13drop_in_placeNtCshDvXgAkadjA_7colored13ColoredStringEBI_.exit, label %bb6.i.i

bb6.i.i:                                          ; preds = %start
  %or.cond.not = icmp sgt i64 %s.1, 0
  br i1 %or.cond.not, label %_RNvXs_NtCsdJPVW0sQgAG_5alloc5allocNtB4_6GlobalNtNtCsjMrxcFdYDNN_4core5alloc9Allocator8allocate.exit.i, label %bb4, !prof !103

_RNvXs_NtCsdJPVW0sQgAG_5alloc5allocNtB4_6GlobalNtNtCsjMrxcFdYDNN_4core5alloc9Allocator8allocate.exit.i: ; preds = %bb6.i.i
; call __rustc::__rust_no_alloc_shim_is_unstable_v2
  tail call void @_RNvCsKhRCbHf33p_7___rustc35___rust_no_alloc_shim_is_unstable_v2() #23, !noalias !352
; call __rustc::__rust_alloc
  %0 = tail call noundef ptr @_RNvCsKhRCbHf33p_7___rustc12___rust_alloc(i64 noundef %s.1, i64 noundef range(i64 1, -9223372036854775807) 1) #23, !noalias !352
  %1 = icmp eq ptr %0, null
  br i1 %1, label %bb4, label %bb10.i

bb10.i:                                           ; preds = %_RNvXs_NtCsdJPVW0sQgAG_5alloc5allocNtB4_6GlobalNtNtCsjMrxcFdYDNN_4core5alloc9Allocator8allocate.exit.i
  %2 = ptrtoint ptr %0 to i64
  br label %_RINvNtCsjMrxcFdYDNN_4core3ptr13drop_in_placeNtCshDvXgAkadjA_7colored13ColoredStringEBI_.exit

bb4:                                              ; preds = %bb6.i.i, %_RNvXs_NtCsdJPVW0sQgAG_5alloc5allocNtB4_6GlobalNtNtCsjMrxcFdYDNN_4core5alloc9Allocator8allocate.exit.i
  %_13.sroa.4.0.ph = phi i64 [ 1, %_RNvXs_NtCsdJPVW0sQgAG_5alloc5allocNtB4_6GlobalNtNtCsjMrxcFdYDNN_4core5alloc9Allocator8allocate.exit.i ], [ 0, %bb6.i.i ]
; call alloc::raw_vec::handle_error
  tail call void @_RNvNtCsdJPVW0sQgAG_5alloc7raw_vec12handle_error(i64 noundef %_13.sroa.4.0.ph, i64 %s.1) #24
  unreachable

_RINvNtCsjMrxcFdYDNN_4core3ptr13drop_in_placeNtCshDvXgAkadjA_7colored13ColoredStringEBI_.exit: ; preds = %start, %bb10.i
  %_13.sroa.10.0 = phi i64 [ %2, %bb10.i ], [ 1, %start ]
  %3 = inttoptr i64 %_13.sroa.10.0 to ptr
  tail call void @llvm.memcpy.p0.p0.i64(ptr nonnull align 1 %3, ptr nonnull align 1 %s.0, i64 %s.1, i1 false)
  store i64 %s.1, ptr %_0, align 8
  %_2.sroa.4.0._0.sroa_idx = getelementptr inbounds nuw i8, ptr %_0, i64 8
  store ptr %3, ptr %_2.sroa.4.0._0.sroa_idx, align 8
  %_2.sroa.5.0._0.sroa_idx = getelementptr inbounds nuw i8, ptr %_0, i64 16
  store i64 %s.1, ptr %_2.sroa.5.0._0.sroa_idx, align 8
  %4 = getelementptr inbounds nuw i8, ptr %_0, i64 24
  store <2 x i32> splat (i32 17), ptr %4, align 8
  %5 = getelementptr inbounds nuw i8, ptr %_0, i64 32
  store i8 0, ptr %5, align 8
  ret void
}

; <colored::ColoredString as colored::Colorize>::clear
; Function Attrs: mustprogress nofree norecurse nosync nounwind willreturn memory(argmem: readwrite) uwtable
define void @_RNvXs3_CshDvXgAkadjA_7coloredNtB5_13ColoredStringNtB5_8Colorize5clear(ptr dead_on_unwind noalias noundef writable writeonly sret([40 x i8]) align 8 captures(none) dereferenceable(40) initializes((0, 33)) %_0, ptr dead_on_return noalias noundef readonly align 8 captures(none) dereferenceable(40) %self) unnamed_addr #6 personality ptr @rust_eh_personality {
_RINvNtCsjMrxcFdYDNN_4core3ptr13drop_in_placeNtCshDvXgAkadjA_7colored13ColoredStringEBI_.exit:
  tail call void @llvm.memcpy.p0.p0.i64(ptr noundef nonnull align 8 dereferenceable(24) %_0, ptr noundef nonnull align 8 dereferenceable(24) %self, i64 24, i1 false)
  %0 = getelementptr inbounds nuw i8, ptr %_0, i64 24
  store <2 x i32> splat (i32 17), ptr %0, align 8
  %1 = getelementptr inbounds nuw i8, ptr %_0, i64 32
  store i8 0, ptr %1, align 8
  ret void
}

; <colored::ColoredString as colored::Colorize>::normal
; Function Attrs: mustprogress nofree norecurse nosync nounwind willreturn memory(argmem: readwrite, inaccessiblemem: readwrite) uwtable
define void @_RNvXs3_CshDvXgAkadjA_7coloredNtB5_13ColoredStringNtB5_8Colorize6normal(ptr dead_on_unwind noalias noundef writable writeonly sret([40 x i8]) align 8 captures(none) dereferenceable(40) initializes((0, 33)) %_0, ptr dead_on_return noalias noundef readonly align 8 captures(none) dereferenceable(40) %self) unnamed_addr #7 personality ptr @rust_eh_personality {
start:
  tail call void @llvm.experimental.noalias.scope.decl(metadata !355)
  tail call void @llvm.memcpy.p0.p0.i64(ptr noundef nonnull align 8 dereferenceable(40) %_0, ptr noundef nonnull readonly align 8 dereferenceable(40) %self, i64 24, i1 false), !alias.scope !358
  %0 = getelementptr inbounds nuw i8, ptr %_0, i64 24
  store <2 x i32> splat (i32 17), ptr %0, align 8, !alias.scope !360, !noalias !355
  %1 = getelementptr inbounds nuw i8, ptr %_0, i64 32
  store i8 0, ptr %1, align 8, !alias.scope !360, !noalias !355
  ret void
}

; <&str as colored::Colorize>::strikethrough
; Function Attrs: uwtable
define void @_RNvXs4_CshDvXgAkadjA_7coloredReNtB5_8Colorize13strikethrough(ptr dead_on_unwind noalias noundef writable writeonly sret([40 x i8]) align 8 captures(none) dereferenceable(40) %_0, ptr noalias noundef nonnull readonly align 1 captures(none) %self.0, i64 noundef %self.1) unnamed_addr #3 personality ptr @rust_eh_personality {
start:
  tail call void @llvm.experimental.noalias.scope.decl(metadata !361)
  %_23.i.i.i = icmp eq i64 %self.1, 0
  br i1 %_23.i.i.i, label %_RNvXs2_CshDvXgAkadjA_7coloredNtB5_13ColoredStringINtNtCsjMrxcFdYDNN_4core7convert4FromReE4from.exit, label %bb6.i.i.i

bb6.i.i.i:                                        ; preds = %start
  %or.cond.not.i = icmp sgt i64 %self.1, 0
  br i1 %or.cond.not.i, label %_RNvXs_NtCsdJPVW0sQgAG_5alloc5allocNtB4_6GlobalNtNtCsjMrxcFdYDNN_4core5alloc9Allocator8allocate.exit.i.i, label %bb4.i, !prof !103

_RNvXs_NtCsdJPVW0sQgAG_5alloc5allocNtB4_6GlobalNtNtCsjMrxcFdYDNN_4core5alloc9Allocator8allocate.exit.i.i: ; preds = %bb6.i.i.i
; call __rustc::__rust_no_alloc_shim_is_unstable_v2
  tail call void @_RNvCsKhRCbHf33p_7___rustc35___rust_no_alloc_shim_is_unstable_v2() #23, !noalias !364
; call __rustc::__rust_alloc
  %0 = tail call noundef ptr @_RNvCsKhRCbHf33p_7___rustc12___rust_alloc(i64 noundef %self.1, i64 noundef range(i64 1, -9223372036854775807) 1) #23, !noalias !364
  %1 = icmp eq ptr %0, null
  br i1 %1, label %bb4.i, label %bb10.i.i

bb10.i.i:                                         ; preds = %_RNvXs_NtCsdJPVW0sQgAG_5alloc5allocNtB4_6GlobalNtNtCsjMrxcFdYDNN_4core5alloc9Allocator8allocate.exit.i.i
  %2 = ptrtoint ptr %0 to i64
  br label %_RNvXs2_CshDvXgAkadjA_7coloredNtB5_13ColoredStringINtNtCsjMrxcFdYDNN_4core7convert4FromReE4from.exit

bb4.i:                                            ; preds = %_RNvXs_NtCsdJPVW0sQgAG_5alloc5allocNtB4_6GlobalNtNtCsjMrxcFdYDNN_4core5alloc9Allocator8allocate.exit.i.i, %bb6.i.i.i
  %_13.sroa.4.0.ph.i = phi i64 [ 1, %_RNvXs_NtCsdJPVW0sQgAG_5alloc5allocNtB4_6GlobalNtNtCsjMrxcFdYDNN_4core5alloc9Allocator8allocate.exit.i.i ], [ 0, %bb6.i.i.i ]
; call alloc::raw_vec::handle_error
  tail call void @_RNvNtCsdJPVW0sQgAG_5alloc7raw_vec12handle_error(i64 noundef %_13.sroa.4.0.ph.i, i64 %self.1) #24, !noalias !368
  unreachable

_RNvXs2_CshDvXgAkadjA_7coloredNtB5_13ColoredStringINtNtCsjMrxcFdYDNN_4core7convert4FromReE4from.exit: ; preds = %start, %bb10.i.i
  %_13.sroa.10.0.i = phi i64 [ %2, %bb10.i.i ], [ 1, %start ]
  %3 = inttoptr i64 %_13.sroa.10.0.i to ptr
  tail call void @llvm.memcpy.p0.p0.i64(ptr nonnull align 1 %3, ptr nonnull readonly align 1 %self.0, i64 %self.1, i1 false), !noalias !361
  store i64 %self.1, ptr %_0, align 8, !alias.scope !361, !noalias !369
  %_2.sroa.4.0._0.sroa_idx.i = getelementptr inbounds nuw i8, ptr %_0, i64 8
  store ptr %3, ptr %_2.sroa.4.0._0.sroa_idx.i, align 8, !alias.scope !361, !noalias !369
  %_2.sroa.5.0._0.sroa_idx.i = getelementptr inbounds nuw i8, ptr %_0, i64 16
  store i64 %self.1, ptr %_2.sroa.5.0._0.sroa_idx.i, align 8, !alias.scope !361, !noalias !369
  %4 = getelementptr inbounds nuw i8, ptr %_0, i64 24
  store <2 x i32> splat (i32 17), ptr %4, align 8, !alias.scope !361, !noalias !369
  %5 = getelementptr inbounds nuw i8, ptr %_0, i64 32
  store i8 -128, ptr %5, align 8
  ret void
}

; <&str as colored::Colorize>::bold
; Function Attrs: uwtable
define void @_RNvXs4_CshDvXgAkadjA_7coloredReNtB5_8Colorize4bold(ptr dead_on_unwind noalias noundef writable writeonly sret([40 x i8]) align 8 captures(none) dereferenceable(40) %_0, ptr noalias noundef nonnull readonly align 1 captures(none) %self.0, i64 noundef %self.1) unnamed_addr #3 personality ptr @rust_eh_personality {
start:
  tail call void @llvm.experimental.noalias.scope.decl(metadata !370)
  %_23.i.i.i = icmp eq i64 %self.1, 0
  br i1 %_23.i.i.i, label %_RNvXs2_CshDvXgAkadjA_7coloredNtB5_13ColoredStringINtNtCsjMrxcFdYDNN_4core7convert4FromReE4from.exit, label %bb6.i.i.i

bb6.i.i.i:                                        ; preds = %start
  %or.cond.not.i = icmp sgt i64 %self.1, 0
  br i1 %or.cond.not.i, label %_RNvXs_NtCsdJPVW0sQgAG_5alloc5allocNtB4_6GlobalNtNtCsjMrxcFdYDNN_4core5alloc9Allocator8allocate.exit.i.i, label %bb4.i, !prof !103

_RNvXs_NtCsdJPVW0sQgAG_5alloc5allocNtB4_6GlobalNtNtCsjMrxcFdYDNN_4core5alloc9Allocator8allocate.exit.i.i: ; preds = %bb6.i.i.i
; call __rustc::__rust_no_alloc_shim_is_unstable_v2
  tail call void @_RNvCsKhRCbHf33p_7___rustc35___rust_no_alloc_shim_is_unstable_v2() #23, !noalias !373
; call __rustc::__rust_alloc
  %0 = tail call noundef ptr @_RNvCsKhRCbHf33p_7___rustc12___rust_alloc(i64 noundef %self.1, i64 noundef range(i64 1, -9223372036854775807) 1) #23, !noalias !373
  %1 = icmp eq ptr %0, null
  br i1 %1, label %bb4.i, label %bb10.i.i

bb10.i.i:                                         ; preds = %_RNvXs_NtCsdJPVW0sQgAG_5alloc5allocNtB4_6GlobalNtNtCsjMrxcFdYDNN_4core5alloc9Allocator8allocate.exit.i.i
  %2 = ptrtoint ptr %0 to i64
  br label %_RNvXs2_CshDvXgAkadjA_7coloredNtB5_13ColoredStringINtNtCsjMrxcFdYDNN_4core7convert4FromReE4from.exit

bb4.i:                                            ; preds = %_RNvXs_NtCsdJPVW0sQgAG_5alloc5allocNtB4_6GlobalNtNtCsjMrxcFdYDNN_4core5alloc9Allocator8allocate.exit.i.i, %bb6.i.i.i
  %_13.sroa.4.0.ph.i = phi i64 [ 1, %_RNvXs_NtCsdJPVW0sQgAG_5alloc5allocNtB4_6GlobalNtNtCsjMrxcFdYDNN_4core5alloc9Allocator8allocate.exit.i.i ], [ 0, %bb6.i.i.i ]
; call alloc::raw_vec::handle_error
  tail call void @_RNvNtCsdJPVW0sQgAG_5alloc7raw_vec12handle_error(i64 noundef %_13.sroa.4.0.ph.i, i64 %self.1) #24, !noalias !377
  unreachable

_RNvXs2_CshDvXgAkadjA_7coloredNtB5_13ColoredStringINtNtCsjMrxcFdYDNN_4core7convert4FromReE4from.exit: ; preds = %start, %bb10.i.i
  %_13.sroa.10.0.i = phi i64 [ %2, %bb10.i.i ], [ 1, %start ]
  %3 = inttoptr i64 %_13.sroa.10.0.i to ptr
  tail call void @llvm.memcpy.p0.p0.i64(ptr nonnull align 1 %3, ptr nonnull readonly align 1 %self.0, i64 %self.1, i1 false), !noalias !370
  store i64 %self.1, ptr %_0, align 8, !alias.scope !370, !noalias !378
  %_2.sroa.4.0._0.sroa_idx.i = getelementptr inbounds nuw i8, ptr %_0, i64 8
  store ptr %3, ptr %_2.sroa.4.0._0.sroa_idx.i, align 8, !alias.scope !370, !noalias !378
  %_2.sroa.5.0._0.sroa_idx.i = getelementptr inbounds nuw i8, ptr %_0, i64 16
  store i64 %self.1, ptr %_2.sroa.5.0._0.sroa_idx.i, align 8, !alias.scope !370, !noalias !378
  %4 = getelementptr inbounds nuw i8, ptr %_0, i64 24
  store <2 x i32> splat (i32 17), ptr %4, align 8, !alias.scope !370, !noalias !378
  %5 = getelementptr inbounds nuw i8, ptr %_0, i64 32
  store i8 1, ptr %5, align 8
  ret void
}

; <&str as colored::Colorize>::blink
; Function Attrs: uwtable
define void @_RNvXs4_CshDvXgAkadjA_7coloredReNtB5_8Colorize5blink(ptr dead_on_unwind noalias noundef writable writeonly sret([40 x i8]) align 8 captures(none) dereferenceable(40) %_0, ptr noalias noundef nonnull readonly align 1 captures(none) %self.0, i64 noundef %self.1) unnamed_addr #3 personality ptr @rust_eh_personality {
start:
  tail call void @llvm.experimental.noalias.scope.decl(metadata !379)
  %_23.i.i.i = icmp eq i64 %self.1, 0
  br i1 %_23.i.i.i, label %_RNvXs2_CshDvXgAkadjA_7coloredNtB5_13ColoredStringINtNtCsjMrxcFdYDNN_4core7convert4FromReE4from.exit, label %bb6.i.i.i

bb6.i.i.i:                                        ; preds = %start
  %or.cond.not.i = icmp sgt i64 %self.1, 0
  br i1 %or.cond.not.i, label %_RNvXs_NtCsdJPVW0sQgAG_5alloc5allocNtB4_6GlobalNtNtCsjMrxcFdYDNN_4core5alloc9Allocator8allocate.exit.i.i, label %bb4.i, !prof !103

_RNvXs_NtCsdJPVW0sQgAG_5alloc5allocNtB4_6GlobalNtNtCsjMrxcFdYDNN_4core5alloc9Allocator8allocate.exit.i.i: ; preds = %bb6.i.i.i
; call __rustc::__rust_no_alloc_shim_is_unstable_v2
  tail call void @_RNvCsKhRCbHf33p_7___rustc35___rust_no_alloc_shim_is_unstable_v2() #23, !noalias !382
; call __rustc::__rust_alloc
  %0 = tail call noundef ptr @_RNvCsKhRCbHf33p_7___rustc12___rust_alloc(i64 noundef %self.1, i64 noundef range(i64 1, -9223372036854775807) 1) #23, !noalias !382
  %1 = icmp eq ptr %0, null
  br i1 %1, label %bb4.i, label %bb10.i.i

bb10.i.i:                                         ; preds = %_RNvXs_NtCsdJPVW0sQgAG_5alloc5allocNtB4_6GlobalNtNtCsjMrxcFdYDNN_4core5alloc9Allocator8allocate.exit.i.i
  %2 = ptrtoint ptr %0 to i64
  br label %_RNvXs2_CshDvXgAkadjA_7coloredNtB5_13ColoredStringINtNtCsjMrxcFdYDNN_4core7convert4FromReE4from.exit

bb4.i:                                            ; preds = %_RNvXs_NtCsdJPVW0sQgAG_5alloc5allocNtB4_6GlobalNtNtCsjMrxcFdYDNN_4core5alloc9Allocator8allocate.exit.i.i, %bb6.i.i.i
  %_13.sroa.4.0.ph.i = phi i64 [ 1, %_RNvXs_NtCsdJPVW0sQgAG_5alloc5allocNtB4_6GlobalNtNtCsjMrxcFdYDNN_4core5alloc9Allocator8allocate.exit.i.i ], [ 0, %bb6.i.i.i ]
; call alloc::raw_vec::handle_error
  tail call void @_RNvNtCsdJPVW0sQgAG_5alloc7raw_vec12handle_error(i64 noundef %_13.sroa.4.0.ph.i, i64 %self.1) #24, !noalias !386
  unreachable

_RNvXs2_CshDvXgAkadjA_7coloredNtB5_13ColoredStringINtNtCsjMrxcFdYDNN_4core7convert4FromReE4from.exit: ; preds = %start, %bb10.i.i
  %_13.sroa.10.0.i = phi i64 [ %2, %bb10.i.i ], [ 1, %start ]
  %3 = inttoptr i64 %_13.sroa.10.0.i to ptr
  tail call void @llvm.memcpy.p0.p0.i64(ptr nonnull align 1 %3, ptr nonnull readonly align 1 %self.0, i64 %self.1, i1 false), !noalias !379
  store i64 %self.1, ptr %_0, align 8, !alias.scope !379, !noalias !387
  %_2.sroa.4.0._0.sroa_idx.i = getelementptr inbounds nuw i8, ptr %_0, i64 8
  store ptr %3, ptr %_2.sroa.4.0._0.sroa_idx.i, align 8, !alias.scope !379, !noalias !387
  %_2.sroa.5.0._0.sroa_idx.i = getelementptr inbounds nuw i8, ptr %_0, i64 16
  store i64 %self.1, ptr %_2.sroa.5.0._0.sroa_idx.i, align 8, !alias.scope !379, !noalias !387
  %4 = getelementptr inbounds nuw i8, ptr %_0, i64 24
  store <2 x i32> splat (i32 17), ptr %4, align 8, !alias.scope !379, !noalias !387
  %5 = getelementptr inbounds nuw i8, ptr %_0, i64 32
  store i8 16, ptr %5, align 8
  ret void
}

; <&str as colored::Colorize>::dimmed
; Function Attrs: uwtable
define void @_RNvXs4_CshDvXgAkadjA_7coloredReNtB5_8Colorize6dimmed(ptr dead_on_unwind noalias noundef writable writeonly sret([40 x i8]) align 8 captures(none) dereferenceable(40) %_0, ptr noalias noundef nonnull readonly align 1 captures(none) %self.0, i64 noundef %self.1) unnamed_addr #3 personality ptr @rust_eh_personality {
start:
  tail call void @llvm.experimental.noalias.scope.decl(metadata !388)
  %_23.i.i.i = icmp eq i64 %self.1, 0
  br i1 %_23.i.i.i, label %_RNvXs2_CshDvXgAkadjA_7coloredNtB5_13ColoredStringINtNtCsjMrxcFdYDNN_4core7convert4FromReE4from.exit, label %bb6.i.i.i

bb6.i.i.i:                                        ; preds = %start
  %or.cond.not.i = icmp sgt i64 %self.1, 0
  br i1 %or.cond.not.i, label %_RNvXs_NtCsdJPVW0sQgAG_5alloc5allocNtB4_6GlobalNtNtCsjMrxcFdYDNN_4core5alloc9Allocator8allocate.exit.i.i, label %bb4.i, !prof !103

_RNvXs_NtCsdJPVW0sQgAG_5alloc5allocNtB4_6GlobalNtNtCsjMrxcFdYDNN_4core5alloc9Allocator8allocate.exit.i.i: ; preds = %bb6.i.i.i
; call __rustc::__rust_no_alloc_shim_is_unstable_v2
  tail call void @_RNvCsKhRCbHf33p_7___rustc35___rust_no_alloc_shim_is_unstable_v2() #23, !noalias !391
; call __rustc::__rust_alloc
  %0 = tail call noundef ptr @_RNvCsKhRCbHf33p_7___rustc12___rust_alloc(i64 noundef %self.1, i64 noundef range(i64 1, -9223372036854775807) 1) #23, !noalias !391
  %1 = icmp eq ptr %0, null
  br i1 %1, label %bb4.i, label %bb10.i.i

bb10.i.i:                                         ; preds = %_RNvXs_NtCsdJPVW0sQgAG_5alloc5allocNtB4_6GlobalNtNtCsjMrxcFdYDNN_4core5alloc9Allocator8allocate.exit.i.i
  %2 = ptrtoint ptr %0 to i64
  br label %_RNvXs2_CshDvXgAkadjA_7coloredNtB5_13ColoredStringINtNtCsjMrxcFdYDNN_4core7convert4FromReE4from.exit

bb4.i:                                            ; preds = %_RNvXs_NtCsdJPVW0sQgAG_5alloc5allocNtB4_6GlobalNtNtCsjMrxcFdYDNN_4core5alloc9Allocator8allocate.exit.i.i, %bb6.i.i.i
  %_13.sroa.4.0.ph.i = phi i64 [ 1, %_RNvXs_NtCsdJPVW0sQgAG_5alloc5allocNtB4_6GlobalNtNtCsjMrxcFdYDNN_4core5alloc9Allocator8allocate.exit.i.i ], [ 0, %bb6.i.i.i ]
; call alloc::raw_vec::handle_error
  tail call void @_RNvNtCsdJPVW0sQgAG_5alloc7raw_vec12handle_error(i64 noundef %_13.sroa.4.0.ph.i, i64 %self.1) #24, !noalias !395
  unreachable

_RNvXs2_CshDvXgAkadjA_7coloredNtB5_13ColoredStringINtNtCsjMrxcFdYDNN_4core7convert4FromReE4from.exit: ; preds = %start, %bb10.i.i
  %_13.sroa.10.0.i = phi i64 [ %2, %bb10.i.i ], [ 1, %start ]
  %3 = inttoptr i64 %_13.sroa.10.0.i to ptr
  tail call void @llvm.memcpy.p0.p0.i64(ptr nonnull align 1 %3, ptr nonnull readonly align 1 %self.0, i64 %self.1, i1 false), !noalias !388
  store i64 %self.1, ptr %_0, align 8, !alias.scope !388, !noalias !396
  %_2.sroa.4.0._0.sroa_idx.i = getelementptr inbounds nuw i8, ptr %_0, i64 8
  store ptr %3, ptr %_2.sroa.4.0._0.sroa_idx.i, align 8, !alias.scope !388, !noalias !396
  %_2.sroa.5.0._0.sroa_idx.i = getelementptr inbounds nuw i8, ptr %_0, i64 16
  store i64 %self.1, ptr %_2.sroa.5.0._0.sroa_idx.i, align 8, !alias.scope !388, !noalias !396
  %4 = getelementptr inbounds nuw i8, ptr %_0, i64 24
  store <2 x i32> splat (i32 17), ptr %4, align 8, !alias.scope !388, !noalias !396
  %5 = getelementptr inbounds nuw i8, ptr %_0, i64 32
  store i8 64, ptr %5, align 8
  ret void
}

; <&str as colored::Colorize>::hidden
; Function Attrs: uwtable
define void @_RNvXs4_CshDvXgAkadjA_7coloredReNtB5_8Colorize6hidden(ptr dead_on_unwind noalias noundef writable writeonly sret([40 x i8]) align 8 captures(none) dereferenceable(40) %_0, ptr noalias noundef nonnull readonly align 1 captures(none) %self.0, i64 noundef %self.1) unnamed_addr #3 personality ptr @rust_eh_personality {
start:
  tail call void @llvm.experimental.noalias.scope.decl(metadata !397)
  %_23.i.i.i = icmp eq i64 %self.1, 0
  br i1 %_23.i.i.i, label %_RNvXs2_CshDvXgAkadjA_7coloredNtB5_13ColoredStringINtNtCsjMrxcFdYDNN_4core7convert4FromReE4from.exit, label %bb6.i.i.i

bb6.i.i.i:                                        ; preds = %start
  %or.cond.not.i = icmp sgt i64 %self.1, 0
  br i1 %or.cond.not.i, label %_RNvXs_NtCsdJPVW0sQgAG_5alloc5allocNtB4_6GlobalNtNtCsjMrxcFdYDNN_4core5alloc9Allocator8allocate.exit.i.i, label %bb4.i, !prof !103

_RNvXs_NtCsdJPVW0sQgAG_5alloc5allocNtB4_6GlobalNtNtCsjMrxcFdYDNN_4core5alloc9Allocator8allocate.exit.i.i: ; preds = %bb6.i.i.i
; call __rustc::__rust_no_alloc_shim_is_unstable_v2
  tail call void @_RNvCsKhRCbHf33p_7___rustc35___rust_no_alloc_shim_is_unstable_v2() #23, !noalias !400
; call __rustc::__rust_alloc
  %0 = tail call noundef ptr @_RNvCsKhRCbHf33p_7___rustc12___rust_alloc(i64 noundef %self.1, i64 noundef range(i64 1, -9223372036854775807) 1) #23, !noalias !400
  %1 = icmp eq ptr %0, null
  br i1 %1, label %bb4.i, label %bb10.i.i

bb10.i.i:                                         ; preds = %_RNvXs_NtCsdJPVW0sQgAG_5alloc5allocNtB4_6GlobalNtNtCsjMrxcFdYDNN_4core5alloc9Allocator8allocate.exit.i.i
  %2 = ptrtoint ptr %0 to i64
  br label %_RNvXs2_CshDvXgAkadjA_7coloredNtB5_13ColoredStringINtNtCsjMrxcFdYDNN_4core7convert4FromReE4from.exit

bb4.i:                                            ; preds = %_RNvXs_NtCsdJPVW0sQgAG_5alloc5allocNtB4_6GlobalNtNtCsjMrxcFdYDNN_4core5alloc9Allocator8allocate.exit.i.i, %bb6.i.i.i
  %_13.sroa.4.0.ph.i = phi i64 [ 1, %_RNvXs_NtCsdJPVW0sQgAG_5alloc5allocNtB4_6GlobalNtNtCsjMrxcFdYDNN_4core5alloc9Allocator8allocate.exit.i.i ], [ 0, %bb6.i.i.i ]
; call alloc::raw_vec::handle_error
  tail call void @_RNvNtCsdJPVW0sQgAG_5alloc7raw_vec12handle_error(i64 noundef %_13.sroa.4.0.ph.i, i64 %self.1) #24, !noalias !404
  unreachable

_RNvXs2_CshDvXgAkadjA_7coloredNtB5_13ColoredStringINtNtCsjMrxcFdYDNN_4core7convert4FromReE4from.exit: ; preds = %start, %bb10.i.i
  %_13.sroa.10.0.i = phi i64 [ %2, %bb10.i.i ], [ 1, %start ]
  %3 = inttoptr i64 %_13.sroa.10.0.i to ptr
  tail call void @llvm.memcpy.p0.p0.i64(ptr nonnull align 1 %3, ptr nonnull readonly align 1 %self.0, i64 %self.1, i1 false), !noalias !397
  store i64 %self.1, ptr %_0, align 8, !alias.scope !397, !noalias !405
  %_2.sroa.4.0._0.sroa_idx.i = getelementptr inbounds nuw i8, ptr %_0, i64 8
  store ptr %3, ptr %_2.sroa.4.0._0.sroa_idx.i, align 8, !alias.scope !397, !noalias !405
  %_2.sroa.5.0._0.sroa_idx.i = getelementptr inbounds nuw i8, ptr %_0, i64 16
  store i64 %self.1, ptr %_2.sroa.5.0._0.sroa_idx.i, align 8, !alias.scope !397, !noalias !405
  %4 = getelementptr inbounds nuw i8, ptr %_0, i64 24
  store <2 x i32> splat (i32 17), ptr %4, align 8, !alias.scope !397, !noalias !405
  %5 = getelementptr inbounds nuw i8, ptr %_0, i64 32
  store i8 32, ptr %5, align 8
  ret void
}

; <&str as colored::Colorize>::italic
; Function Attrs: uwtable
define void @_RNvXs4_CshDvXgAkadjA_7coloredReNtB5_8Colorize6italic(ptr dead_on_unwind noalias noundef writable writeonly sret([40 x i8]) align 8 captures(none) dereferenceable(40) %_0, ptr noalias noundef nonnull readonly align 1 captures(none) %self.0, i64 noundef %self.1) unnamed_addr #3 personality ptr @rust_eh_personality {
start:
  tail call void @llvm.experimental.noalias.scope.decl(metadata !406)
  %_23.i.i.i = icmp eq i64 %self.1, 0
  br i1 %_23.i.i.i, label %_RNvXs2_CshDvXgAkadjA_7coloredNtB5_13ColoredStringINtNtCsjMrxcFdYDNN_4core7convert4FromReE4from.exit, label %bb6.i.i.i

bb6.i.i.i:                                        ; preds = %start
  %or.cond.not.i = icmp sgt i64 %self.1, 0
  br i1 %or.cond.not.i, label %_RNvXs_NtCsdJPVW0sQgAG_5alloc5allocNtB4_6GlobalNtNtCsjMrxcFdYDNN_4core5alloc9Allocator8allocate.exit.i.i, label %bb4.i, !prof !103

_RNvXs_NtCsdJPVW0sQgAG_5alloc5allocNtB4_6GlobalNtNtCsjMrxcFdYDNN_4core5alloc9Allocator8allocate.exit.i.i: ; preds = %bb6.i.i.i
; call __rustc::__rust_no_alloc_shim_is_unstable_v2
  tail call void @_RNvCsKhRCbHf33p_7___rustc35___rust_no_alloc_shim_is_unstable_v2() #23, !noalias !409
; call __rustc::__rust_alloc
  %0 = tail call noundef ptr @_RNvCsKhRCbHf33p_7___rustc12___rust_alloc(i64 noundef %self.1, i64 noundef range(i64 1, -9223372036854775807) 1) #23, !noalias !409
  %1 = icmp eq ptr %0, null
  br i1 %1, label %bb4.i, label %bb10.i.i

bb10.i.i:                                         ; preds = %_RNvXs_NtCsdJPVW0sQgAG_5alloc5allocNtB4_6GlobalNtNtCsjMrxcFdYDNN_4core5alloc9Allocator8allocate.exit.i.i
  %2 = ptrtoint ptr %0 to i64
  br label %_RNvXs2_CshDvXgAkadjA_7coloredNtB5_13ColoredStringINtNtCsjMrxcFdYDNN_4core7convert4FromReE4from.exit

bb4.i:                                            ; preds = %_RNvXs_NtCsdJPVW0sQgAG_5alloc5allocNtB4_6GlobalNtNtCsjMrxcFdYDNN_4core5alloc9Allocator8allocate.exit.i.i, %bb6.i.i.i
  %_13.sroa.4.0.ph.i = phi i64 [ 1, %_RNvXs_NtCsdJPVW0sQgAG_5alloc5allocNtB4_6GlobalNtNtCsjMrxcFdYDNN_4core5alloc9Allocator8allocate.exit.i.i ], [ 0, %bb6.i.i.i ]
; call alloc::raw_vec::handle_error
  tail call void @_RNvNtCsdJPVW0sQgAG_5alloc7raw_vec12handle_error(i64 noundef %_13.sroa.4.0.ph.i, i64 %self.1) #24, !noalias !413
  unreachable

_RNvXs2_CshDvXgAkadjA_7coloredNtB5_13ColoredStringINtNtCsjMrxcFdYDNN_4core7convert4FromReE4from.exit: ; preds = %start, %bb10.i.i
  %_13.sroa.10.0.i = phi i64 [ %2, %bb10.i.i ], [ 1, %start ]
  %3 = inttoptr i64 %_13.sroa.10.0.i to ptr
  tail call void @llvm.memcpy.p0.p0.i64(ptr nonnull align 1 %3, ptr nonnull readonly align 1 %self.0, i64 %self.1, i1 false), !noalias !406
  store i64 %self.1, ptr %_0, align 8, !alias.scope !406, !noalias !414
  %_2.sroa.4.0._0.sroa_idx.i = getelementptr inbounds nuw i8, ptr %_0, i64 8
  store ptr %3, ptr %_2.sroa.4.0._0.sroa_idx.i, align 8, !alias.scope !406, !noalias !414
  %_2.sroa.5.0._0.sroa_idx.i = getelementptr inbounds nuw i8, ptr %_0, i64 16
  store i64 %self.1, ptr %_2.sroa.5.0._0.sroa_idx.i, align 8, !alias.scope !406, !noalias !414
  %4 = getelementptr inbounds nuw i8, ptr %_0, i64 24
  store <2 x i32> splat (i32 17), ptr %4, align 8, !alias.scope !406, !noalias !414
  %5 = getelementptr inbounds nuw i8, ptr %_0, i64 32
  store i8 8, ptr %5, align 8
  ret void
}

; <&str as colored::Colorize>::normal
; Function Attrs: uwtable
define void @_RNvXs4_CshDvXgAkadjA_7coloredReNtB5_8Colorize6normal(ptr dead_on_unwind noalias noundef writable writeonly sret([40 x i8]) align 8 captures(none) dereferenceable(40) %_0, ptr noalias noundef nonnull readonly align 1 captures(none) %self.0, i64 noundef %self.1) unnamed_addr #3 personality ptr @rust_eh_personality {
start:
  tail call void @llvm.experimental.noalias.scope.decl(metadata !415)
  %_23.i.i.i = icmp eq i64 %self.1, 0
  br i1 %_23.i.i.i, label %_RNvXs4_CshDvXgAkadjA_7coloredReNtB5_8Colorize5clear.exit, label %bb6.i.i.i

bb6.i.i.i:                                        ; preds = %start
  %or.cond.not.i = icmp sgt i64 %self.1, 0
  br i1 %or.cond.not.i, label %_RNvXs_NtCsdJPVW0sQgAG_5alloc5allocNtB4_6GlobalNtNtCsjMrxcFdYDNN_4core5alloc9Allocator8allocate.exit.i.i, label %bb4.i, !prof !103

_RNvXs_NtCsdJPVW0sQgAG_5alloc5allocNtB4_6GlobalNtNtCsjMrxcFdYDNN_4core5alloc9Allocator8allocate.exit.i.i: ; preds = %bb6.i.i.i
; call __rustc::__rust_no_alloc_shim_is_unstable_v2
  tail call void @_RNvCsKhRCbHf33p_7___rustc35___rust_no_alloc_shim_is_unstable_v2() #23, !noalias !418
; call __rustc::__rust_alloc
  %0 = tail call noundef ptr @_RNvCsKhRCbHf33p_7___rustc12___rust_alloc(i64 noundef %self.1, i64 noundef range(i64 1, -9223372036854775807) 1) #23, !noalias !418
  %1 = icmp eq ptr %0, null
  br i1 %1, label %bb4.i, label %bb10.i.i

bb10.i.i:                                         ; preds = %_RNvXs_NtCsdJPVW0sQgAG_5alloc5allocNtB4_6GlobalNtNtCsjMrxcFdYDNN_4core5alloc9Allocator8allocate.exit.i.i
  %2 = ptrtoint ptr %0 to i64
  br label %_RNvXs4_CshDvXgAkadjA_7coloredReNtB5_8Colorize5clear.exit

bb4.i:                                            ; preds = %_RNvXs_NtCsdJPVW0sQgAG_5alloc5allocNtB4_6GlobalNtNtCsjMrxcFdYDNN_4core5alloc9Allocator8allocate.exit.i.i, %bb6.i.i.i
  %_13.sroa.4.0.ph.i = phi i64 [ 1, %_RNvXs_NtCsdJPVW0sQgAG_5alloc5allocNtB4_6GlobalNtNtCsjMrxcFdYDNN_4core5alloc9Allocator8allocate.exit.i.i ], [ 0, %bb6.i.i.i ]
; call alloc::raw_vec::handle_error
  tail call void @_RNvNtCsdJPVW0sQgAG_5alloc7raw_vec12handle_error(i64 noundef %_13.sroa.4.0.ph.i, i64 %self.1) #24, !noalias !422
  unreachable

_RNvXs4_CshDvXgAkadjA_7coloredReNtB5_8Colorize5clear.exit: ; preds = %start, %bb10.i.i
  %_13.sroa.10.0.i = phi i64 [ %2, %bb10.i.i ], [ 1, %start ]
  %3 = inttoptr i64 %_13.sroa.10.0.i to ptr
  tail call void @llvm.memcpy.p0.p0.i64(ptr nonnull align 1 %3, ptr nonnull readonly align 1 %self.0, i64 %self.1, i1 false), !noalias !415
  store i64 %self.1, ptr %_0, align 8, !alias.scope !415, !noalias !423
  %_2.sroa.4.0._0.sroa_idx.i = getelementptr inbounds nuw i8, ptr %_0, i64 8
  store ptr %3, ptr %_2.sroa.4.0._0.sroa_idx.i, align 8, !alias.scope !415, !noalias !423
  %_2.sroa.5.0._0.sroa_idx.i = getelementptr inbounds nuw i8, ptr %_0, i64 16
  store i64 %self.1, ptr %_2.sroa.5.0._0.sroa_idx.i, align 8, !alias.scope !415, !noalias !423
  %4 = getelementptr inbounds nuw i8, ptr %_0, i64 24
  store <2 x i32> splat (i32 17), ptr %4, align 8, !alias.scope !415, !noalias !423
  %5 = getelementptr inbounds nuw i8, ptr %_0, i64 32
  store i8 0, ptr %5, align 8, !alias.scope !415, !noalias !423
  ret void
}

; <&str as colored::Colorize>::reverse
; Function Attrs: uwtable
define void @_RNvXs4_CshDvXgAkadjA_7coloredReNtB5_8Colorize7reverse(ptr dead_on_unwind noalias noundef writable writeonly sret([40 x i8]) align 8 captures(none) dereferenceable(40) %_0, ptr noalias noundef nonnull readonly align 1 captures(none) %self.0, i64 noundef %self.1) unnamed_addr #3 personality ptr @rust_eh_personality {
start:
  tail call void @llvm.experimental.noalias.scope.decl(metadata !424)
  tail call void @llvm.experimental.noalias.scope.decl(metadata !427)
  %_23.i.i.i.i = icmp eq i64 %self.1, 0
  br i1 %_23.i.i.i.i, label %_RNvXs4_CshDvXgAkadjA_7coloredReNtB5_8Colorize8reversed.exit, label %bb6.i.i.i.i

bb6.i.i.i.i:                                      ; preds = %start
  %or.cond.not.i.i = icmp sgt i64 %self.1, 0
  br i1 %or.cond.not.i.i, label %_RNvXs_NtCsdJPVW0sQgAG_5alloc5allocNtB4_6GlobalNtNtCsjMrxcFdYDNN_4core5alloc9Allocator8allocate.exit.i.i.i, label %bb4.i.i, !prof !103

_RNvXs_NtCsdJPVW0sQgAG_5alloc5allocNtB4_6GlobalNtNtCsjMrxcFdYDNN_4core5alloc9Allocator8allocate.exit.i.i.i: ; preds = %bb6.i.i.i.i
; call __rustc::__rust_no_alloc_shim_is_unstable_v2
  tail call void @_RNvCsKhRCbHf33p_7___rustc35___rust_no_alloc_shim_is_unstable_v2() #23, !noalias !430
; call __rustc::__rust_alloc
  %0 = tail call noundef ptr @_RNvCsKhRCbHf33p_7___rustc12___rust_alloc(i64 noundef %self.1, i64 noundef range(i64 1, -9223372036854775807) 1) #23, !noalias !430
  %1 = icmp eq ptr %0, null
  br i1 %1, label %bb4.i.i, label %bb10.i.i.i

bb10.i.i.i:                                       ; preds = %_RNvXs_NtCsdJPVW0sQgAG_5alloc5allocNtB4_6GlobalNtNtCsjMrxcFdYDNN_4core5alloc9Allocator8allocate.exit.i.i.i
  %2 = ptrtoint ptr %0 to i64
  br label %_RNvXs4_CshDvXgAkadjA_7coloredReNtB5_8Colorize8reversed.exit

bb4.i.i:                                          ; preds = %_RNvXs_NtCsdJPVW0sQgAG_5alloc5allocNtB4_6GlobalNtNtCsjMrxcFdYDNN_4core5alloc9Allocator8allocate.exit.i.i.i, %bb6.i.i.i.i
