; ModuleID = 'console.72671f79b508dbd-cgu.0'
source_filename = "console.72671f79b508dbd-cgu.0"
target datalayout = "e-m:o-p270:32:32-p271:32:32-p272:64:64-i64:64-i128:128-n32:64-S128-Fn32"
target triple = "arm64-apple-macosx11.0.0"

%"core::sync::atomic::AtomicUsize" = type { i64 }
%"std::sync::reentrant_lock::ReentrantLock<core::cell::RefCell<std::io::stdio::StderrRaw>>" = type { %"std::sys::sync::mutex::pthread::Mutex", %"std::sync::reentrant_lock::Tid", i32, [1 x i32], i64 }
%"std::sys::sync::mutex::pthread::Mutex" = type { %"std::sys::sync::once_box::OnceBox<std::sys::pal::unix::sync::mutex::Mutex>" }
%"std::sys::sync::once_box::OnceBox<std::sys::pal::unix::sync::mutex::Mutex>" = type { %"core::sync::atomic::AtomicPtr<std::sys::pal::unix::sync::mutex::Mutex>" }
%"core::sync::atomic::AtomicPtr<std::sys::pal::unix::sync::mutex::Mutex>" = type { ptr }
%"std::sync::reentrant_lock::Tid" = type { %"core::sync::atomic::AtomicU64" }
%"core::sync::atomic::AtomicU64" = type { i64 }
%"unicode_width::tables::Align128<[u8; 256]>" = type { [256 x i8] }
%"unicode_width::tables::Align64<[[u8; 64]; 20]>" = type { [20 x [64 x i8]] }
%"unicode_width::tables::Align32<[[u8; 32]; 186]>" = type { [186 x [32 x i8]] }
%"unicode_width::tables::Align128<[[u8; 128]; 7]>" = type { [7 x [128 x i8]] }

@alloc_a51357dfbcca0800220965a98e80088f = private unnamed_addr constant [132 x i8] c"/Users/hongyaotang/.rustup/toolchains/nightly-aarch64-apple-darwin/lib/rustlib/src/rust/library/alloc/src/collections/btree/node.rs\00", align 1
@alloc_36e9d3034d1040a1b97b71beadbdf183 = private unnamed_addr constant <{ ptr, [16 x i8] }> <{ ptr @alloc_a51357dfbcca0800220965a98e80088f, [16 x i8] c"\83\00\00\00\00\00\00\00\F0\00\00\00M\00\00\00" }>, align 8
@alloc_5c50b0573939a5b3b419995fc3e13e19 = private unnamed_addr constant <{ ptr, [16 x i8] }> <{ ptr @alloc_a51357dfbcca0800220965a98e80088f, [16 x i8] c"\83\00\00\00\00\00\00\00\13\05\00\00$\00\00\00" }>, align 8
@alloc_69009fdc319497586282719e739ab5f8 = private unnamed_addr constant [136 x i8] c"/Users/hongyaotang/.rustup/toolchains/nightly-aarch64-apple-darwin/lib/rustlib/src/rust/library/alloc/src/collections/btree/navigate.rs\00", align 1
@alloc_1df1e5171bffdf21494df69d159bd444 = private unnamed_addr constant <{ ptr, [16 x i8] }> <{ ptr @alloc_69009fdc319497586282719e739ab5f8, [16 x i8] c"\87\00\00\00\00\00\00\00\C6\00\00\00'\00\00\00" }>, align 8
@alloc_2bd3b8890b9559f1d5fa47166d6aa71d = private unnamed_addr constant [114 x i8] c"/Users/hongyaotang/.rustup/toolchains/nightly-aarch64-apple-darwin/lib/rustlib/src/rust/library/std/src/io/mod.rs\00", align 1
@alloc_92437324c5298c66e2abee23d7039388 = private unnamed_addr constant <{ ptr, [16 x i8] }> <{ ptr @alloc_2bd3b8890b9559f1d5fa47166d6aa71d, [16 x i8] c"q\00\00\00\00\00\00\00\D2\08\00\005\00\00\00" }>, align 8
@alloc_61571fe18316b4282550a450ed10f289 = private unnamed_addr constant [34 x i8] c"stream did not contain valid UTF-8", align 1
@alloc_a679944945e039118b94625869e7de57 = private unnamed_addr constant <{ ptr, [9 x i8], [7 x i8] }> <{ ptr @alloc_61571fe18316b4282550a450ed10f289, [9 x i8] c"\22\00\00\00\00\00\00\00\15", [7 x i8] undef }>, align 8
@alloc_930f3883875d82d5043e839301ab22e6 = private unnamed_addr constant [40 x i8] c"assertion failed: src.len() == dst.len()", align 1
@alloc_3d1b356cbfc916b26f15e548d269cb74 = private unnamed_addr constant <{ ptr, [16 x i8] }> <{ ptr @alloc_a51357dfbcca0800220965a98e80088f, [16 x i8] c"\83\00\00\00\00\00\00\00T\07\00\00\05\00\00\00" }>, align 8
@alloc_93816f04728d387347072ad30618ff9c = private unnamed_addr constant <{ ptr, [16 x i8] }> <{ ptr @alloc_69009fdc319497586282719e739ab5f8, [16 x i8] c"\87\00\00\00\00\00\00\00X\02\00\000\00\00\00" }>, align 8
@anon.554535de7657ca3c38ed6e2115135a2e.0 = private unnamed_addr constant [64 x i8] c"\A7\AB\AA2\00\00\00\00\00\00\00\00\00\00\00\00\00\00\00\00\00\00\00\00\00\00\00\00\00\00\00\00\00\00\00\00\00\00\00\00\00\00\00\00\00\00\00\00\00\00\00\00\00\00\00\00\00\00\00\00\00\00\00\00", align 8
@alloc_87b741302675a09f531e93859aa1d77d = private unnamed_addr constant [105 x i8] c"/Users/hongyaotang/.cargo/registry/src/index.crates.io-1949cf8c6b5b557f/console-0.15.11/src/unix_term.rs\00", align 1
@alloc_a5020ff128eafee240ced9e9d62411d1 = private unnamed_addr constant <{ ptr, [16 x i8] }> <{ ptr @alloc_87b741302675a09f531e93859aa1d77d, [16 x i8] c"h\00\00\00\00\00\00\00\8E\00\00\00\0C\00\00\00" }>, align 8
@alloc_84da818df01979596a9e7a52ed4fd1e4 = private unnamed_addr constant [48 x i8] c"assertion failed: self.is_char_boundary(new_len)", align 1
@vtable.0 = private unnamed_addr constant <{ ptr, [16 x i8], ptr }> <{ ptr @_RINvNtCsjMrxcFdYDNN_4core3ptr13drop_in_placeINtNtNtCs5sEH5CPMdak_3std4sync6poison11PoisonErrorINtNtBJ_5mutex10MutexGuardDNtNtCsC3JuwEIQwb_7console4term9TermWriteEL_EEEB1Z_, [16 x i8] c"\18\00\00\00\00\00\00\00\08\00\00\00\00\00\00\00", ptr @_RNvXs_NtNtCs5sEH5CPMdak_3std4sync6poisonINtB4_11PoisonErrorINtNtB4_5mutex10MutexGuardDNtNtCsC3JuwEIQwb_7console4term9TermWriteEL_EENtNtCsjMrxcFdYDNN_4core3fmt5Debug3fmtB1q_ }>, align 8
@alloc_00ae4b301f7fab8ac9617c03fcbd7274 = private unnamed_addr constant [43 x i8] c"called `Result::unwrap()` on an `Err` value", align 1
@vtable.1 = private unnamed_addr constant <{ ptr, [16 x i8], ptr }> <{ ptr @_RINvNtCsjMrxcFdYDNN_4core3ptr13drop_in_placeINtNtNtCs5sEH5CPMdak_3std4sync6poison11PoisonErrorINtNtBJ_5mutex10MutexGuardINtNtCsdJPVW0sQgAG_5alloc3vec3VechEEEECsC3JuwEIQwb_7console, [16 x i8] c"\10\00\00\00\00\00\00\00\08\00\00\00\00\00\00\00", ptr @_RNvXs_NtNtCs5sEH5CPMdak_3std4sync6poisonINtB4_11PoisonErrorINtNtB4_5mutex10MutexGuardDNtNtCsC3JuwEIQwb_7console4term9TermWriteEL_EENtNtCsjMrxcFdYDNN_4core3fmt5Debug3fmtB1q_ }>, align 8
@vtable.2 = private unnamed_addr constant <{ ptr, [16 x i8], ptr }> <{ ptr @_RINvNtCsjMrxcFdYDNN_4core3ptr13drop_in_placeINtNtNtCs5sEH5CPMdak_3std4sync6poison11PoisonErrorINtNtBJ_5mutex10MutexGuardINtNtCsdJPVW0sQgAG_5alloc3vec3VechEEEECsC3JuwEIQwb_7console, [16 x i8] c"\10\00\00\00\00\00\00\00\08\00\00\00\00\00\00\00", ptr @_RNvXs_NtNtCs5sEH5CPMdak_3std4sync6poisonINtB4_11PoisonErrorINtNtB4_5mutex10MutexGuardDNtNtCsC3JuwEIQwb_7console4term9TermWriteEL_EENtNtCsjMrxcFdYDNN_4core3fmt5Debug3fmtB1q_ }>, align 8
@vtable.3 = private unnamed_addr constant <{ ptr, [16 x i8], ptr }> <{ ptr @_RINvNtCsjMrxcFdYDNN_4core3ptr13drop_in_placeINtNtNtCs5sEH5CPMdak_3std4sync6poison11PoisonErrorINtNtBJ_6rwlock15RwLockReadGuardNtNtCsdJPVW0sQgAG_5alloc6string6StringEEECsC3JuwEIQwb_7console, [16 x i8] c"\10\00\00\00\00\00\00\00\08\00\00\00\00\00\00\00", ptr @_RNvXs_NtNtCs5sEH5CPMdak_3std4sync6poisonINtB4_11PoisonErrorINtNtB4_5mutex10MutexGuardDNtNtCsC3JuwEIQwb_7console4term9TermWriteEL_EENtNtCsjMrxcFdYDNN_4core3fmt5Debug3fmtB1q_ }>, align 8
@vtable.4 = private unnamed_addr constant <{ ptr, [16 x i8], ptr }> <{ ptr @_RINvNtCsjMrxcFdYDNN_4core3ptr13drop_in_placeINtNtNtCs5sEH5CPMdak_3std4sync6poison11PoisonErrorINtNtBJ_6rwlock16RwLockWriteGuardNtNtCsdJPVW0sQgAG_5alloc6string6StringEEECsC3JuwEIQwb_7console, [16 x i8] c"\10\00\00\00\00\00\00\00\08\00\00\00\00\00\00\00", ptr @_RNvXs_NtNtCs5sEH5CPMdak_3std4sync6poisonINtB4_11PoisonErrorINtNtB4_5mutex10MutexGuardDNtNtCsC3JuwEIQwb_7console4term9TermWriteEL_EENtNtCsjMrxcFdYDNN_4core3fmt5Debug3fmtB1q_ }>, align 8
@_RNvNtNtCs5sEH5CPMdak_3std9panicking11panic_count18GLOBAL_PANIC_COUNT = external local_unnamed_addr global %"core::sync::atomic::AtomicUsize"
@alloc_df3352094b5ea906c434c84ffe49cca7 = private unnamed_addr constant [100 x i8] c"/Users/hongyaotang/.cargo/registry/src/index.crates.io-1949cf8c6b5b557f/console-0.15.11/src/term.rs\00", align 1
@alloc_10ae8e1c7422912565b0a725bff29948 = private unnamed_addr constant <{ ptr, [16 x i8] }> <{ ptr @alloc_df3352094b5ea906c434c84ffe49cca7, [16 x i8] c"c\00\00\00\00\00\00\00\F6\00\00\00/\00\00\00" }>, align 8
@alloc_34a907ce632321878f08de7a619b60ed = private unnamed_addr constant [5 x i8] c"\0D\1B[2K", align 1
@alloc_71ab024f63e05fa8c544dae9bff3eae8 = private unnamed_addr constant [5 x i8] c"\C0\01\0A\C0\00", align 1
@alloc_7954641d60551ca0a31844d45868012f = private unnamed_addr constant <{ ptr, [16 x i8] }> <{ ptr @alloc_df3352094b5ea906c434c84ffe49cca7, [16 x i8] c"c\00\00\00\00\00\00\00\FC\00\00\00/\00\00\00" }>, align 8
@_RNvNvNtNtCs5sEH5CPMdak_3std2io5stdio6stderr8INSTANCE = external global %"std::sync::reentrant_lock::ReentrantLock<core::cell::RefCell<std::io::stdio::StderrRaw>>"
@alloc_be34cf22961c134b4f22f36d9b4f226c = private unnamed_addr constant <{ ptr, [16 x i8] }> <{ ptr @alloc_df3352094b5ea906c434c84ffe49cca7, [16 x i8] c"c\00\00\00\00\00\00\003\02\00\00.\00\00\00" }>, align 8
@alloc_cae42f98ba52838b2ed93bf93f07b323 = private unnamed_addr constant <{ ptr, [16 x i8] }> <{ ptr @alloc_df3352094b5ea906c434c84ffe49cca7, [16 x i8] c"c\00\00\00\00\00\00\00E\01\00\00$\00\00\00" }>, align 8
@alloc_1bd3c013d602be6e35682a3072b8f24e = private unnamed_addr constant <{ ptr, [16 x i8] }> <{ ptr @alloc_df3352094b5ea906c434c84ffe49cca7, [16 x i8] c"c\00\00\00\00\00\00\00G\01\00\005\00\00\00" }>, align 8
@alloc_d1c5991a811577b5a75f5444621d6d5a = private unnamed_addr constant <{ ptr, [16 x i8] }> <{ ptr @alloc_df3352094b5ea906c434c84ffe49cca7, [16 x i8] c"c\00\00\00\00\00\00\00l\01\00\00$\00\00\00" }>, align 8
@alloc_e6817151e95acf2e0d9d4b0416a3fb0b = private unnamed_addr constant <{ ptr, [16 x i8] }> <{ ptr @alloc_df3352094b5ea906c434c84ffe49cca7, [16 x i8] c"c\00\00\00\00\00\00\00\89\01\00\00,\00\00\00" }>, align 8
@alloc_a42bcd32b1b51ab8fb3130fb27019cbe = private unnamed_addr constant [14 x i8] c"Not a terminal", align 1
@alloc_118a6c87c06c70363f5ebdfdf2788916 = private unnamed_addr constant <{ ptr, [16 x i8] }> <{ ptr @alloc_df3352094b5ea906c434c84ffe49cca7, [16 x i8] c"c\00\00\00\00\00\00\00\EF\00\00\00/\00\00\00" }>, align 8
@alloc_f46351429e0b545e52edab17c91e045b = private unnamed_addr constant [5 x i8] c"black", align 1
@alloc_940496d3cd18caebe90765385b962abe = private unnamed_addr constant [3 x i8] c"red", align 1
@alloc_b8ebeef8965b067fea87e4e40f7a2696 = private unnamed_addr constant [5 x i8] c"green", align 1
@alloc_761ec3f22b4eea6465689eb413e86232 = private unnamed_addr constant [6 x i8] c"yellow", align 1
@alloc_d11e62a55d3bc6b15beecd4f0707fbb1 = private unnamed_addr constant [4 x i8] c"blue", align 1
@alloc_3d9fd8ba1c29d9f6085e0294be30b396 = private unnamed_addr constant [7 x i8] c"magenta", align 1
@alloc_6fc1c32c52b5575ce6b85d0118457658 = private unnamed_addr constant [4 x i8] c"cyan", align 1
@alloc_16c9842326e8d04943b3c4e15a061707 = private unnamed_addr constant [5 x i8] c"white", align 1
@alloc_0e40d41a90d9449ef3c0a2d4ebecf25e = private unnamed_addr constant [6 x i8] c"bright", align 1
@alloc_988dbb775df289ae5d387217d1326fbb = private unnamed_addr constant [8 x i8] c"on_black", align 1
@alloc_00afc89fad6ce0b69c03ae44a4c57e63 = private unnamed_addr constant [6 x i8] c"on_red", align 1
@alloc_d3f73fbdad6723a6f7e70241cc5ffd7b = private unnamed_addr constant [8 x i8] c"on_green", align 1
@alloc_b2d76a187fec1d5904bbbaf8cd5a45f9 = private unnamed_addr constant [9 x i8] c"on_yellow", align 1
@alloc_0ea3ed158ba78f67fb80c06310d3d976 = private unnamed_addr constant [7 x i8] c"on_blue", align 1
@alloc_93fbedf531e254d87a372581b818455c = private unnamed_addr constant [10 x i8] c"on_magenta", align 1
@alloc_70cd957082e55e3219d604e7774b3a2a = private unnamed_addr constant [7 x i8] c"on_cyan", align 1
@alloc_28c707092aa47c9e62a5453e9825cf31 = private unnamed_addr constant [8 x i8] c"on_white", align 1
@alloc_d0d4965f28f12d18e1eb5434656a1634 = private unnamed_addr constant [9 x i8] c"on_bright", align 1
@alloc_8004f499ef1e85ed18420cba06aae287 = private unnamed_addr constant [4 x i8] c"bold", align 1
@alloc_bc56aad9843e15c95b8ae131ad5c2648 = private unnamed_addr constant [3 x i8] c"dim", align 1
@alloc_35da8c1274638488887234a29631ac8a = private unnamed_addr constant [10 x i8] c"underlined", align 1
@alloc_343238722d8106d5e592de156f114b52 = private unnamed_addr constant [5 x i8] c"blink", align 1
@alloc_94ec8616ca31a77937e20e985e657532 = private unnamed_addr constant [10 x i8] c"blink_fast", align 1
@alloc_6f7f7c851d095ea6be0620cebf08a8c7 = private unnamed_addr constant [7 x i8] c"reverse", align 1
@alloc_a49a2be336e4029d0e1a46cd0ad31a8b = private unnamed_addr constant [6 x i8] c"hidden", align 1
@alloc_4a97ccfb756c0a73db16da629adb6fac = private unnamed_addr constant [13 x i8] c"strikethrough", align 1
@alloc_607574f98762a7642d8175dbddfc81da = private unnamed_addr constant [3 x i8] c"on_", align 1
@alloc_9b41339eb38873415d2e9ba71f6a1bf6 = private unnamed_addr constant [101 x i8] c"/Users/hongyaotang/.cargo/registry/src/index.crates.io-1949cf8c6b5b557f/console-0.15.11/src/utils.rs\00", align 1
@alloc_9749b5a9842556100920529e544f7dc1 = private unnamed_addr constant <{ ptr, [16 x i8] }> <{ ptr @alloc_9b41339eb38873415d2e9ba71f6a1bf6, [16 x i8] c"d\00\00\00\00\00\00\00\E2\00\00\00(\00\00\00" }>, align 8
@alloc_ebf3b6b7067b219708a558a8386bf721 = private unnamed_addr constant [100 x i8] c"/Users/hongyaotang/.cargo/registry/src/index.crates.io-1949cf8c6b5b557f/console-0.15.11/src/ansi.rs\00", align 1
@alloc_01955e5c48a2e8a6df036a754cf3097b = private unnamed_addr constant <{ ptr, [16 x i8] }> <{ ptr @alloc_ebf3b6b7067b219708a558a8386bf721, [16 x i8] c"c\00\00\00\00\00\00\00\EB\00\00\00\10\00\00\00" }>, align 8
@alloc_a8c1ea329d6664f53eac78246d452a6c = private unnamed_addr constant <{ ptr, [16 x i8] }> <{ ptr @alloc_ebf3b6b7067b219708a558a8386bf721, [16 x i8] c"c\00\00\00\00\00\00\00\E6\00\00\00\10\00\00\00" }>, align 8
@alloc_b0d6f4768d6dbcaaba9bf9a6c0de2b5f = private unnamed_addr constant <{ ptr, [16 x i8] }> <{ ptr @alloc_a51357dfbcca0800220965a98e80088f, [16 x i8] c"\83\00\00\00\00\00\00\00\D0\04\00\00#\00\00\00" }>, align 8
@alloc_890f94c692f51df5fc72c5e0dfe1823b = private unnamed_addr constant [8 x i8] c"/dev/tty", align 1
@alloc_50679f783fca94dab7457816f752eff0 = private unnamed_addr constant [48 x i8] c"assertion failed: edge.height == self.height - 1", align 1
@alloc_6f083584960555ed8732225b7b53e5b1 = private unnamed_addr constant <{ ptr, [16 x i8] }> <{ ptr @alloc_a51357dfbcca0800220965a98e80088f, [16 x i8] c"\83\00\00\00\00\00\00\00\B6\02\00\00\09\00\00\00" }>, align 8
@alloc_80b5bcfc6b71c11e412d8b752ae375dc = private unnamed_addr constant [11 x i8] c"\02\1B[\C0\05D\1B[0K\00", align 1
@alloc_26f3afb675a2033575e507bda4f7709d = private unnamed_addr constant [7 x i8] c"\02\1B[\C0\01A\00", align 1
@alloc_8041b981a0c9f2271efbceca9d03160b = private unnamed_addr constant [7 x i8] c"\02\1B[\C0\01B\00", align 1
@alloc_91eb3b305a07e4e7da5a5c0c180f5643 = private unnamed_addr constant [7 x i8] c"\02\1B[\C0\01D\00", align 1
@alloc_e721d4fe15bdeb41f351b3369d7e026f = private unnamed_addr constant [7 x i8] c"\02\1B[\C0\01C\00", align 1
@alloc_7ba7d7c5f08be500d53e5ec9430a471e = private unnamed_addr constant <{ ptr, [16 x i8] }> <{ ptr @alloc_9b41339eb38873415d2e9ba71f6a1bf6, [16 x i8] c"d\00\00\00\00\00\00\00\0A\03\00\00-\00\00\00" }>, align 8
@_RNvNtCsC3JuwEIQwb_7console5utils13STDERR_COLORS = local_unnamed_addr global <{ [9 x i8], [7 x i8], ptr }> <{ [9 x i8] zeroinitializer, [7 x i8] undef, ptr @_RNvYNCNvNtCsC3JuwEIQwb_7console5utils13STDERR_COLORS0INtNtNtCsjMrxcFdYDNN_4core3ops8function6FnOnceuE9call_onceB8_ }>, align 8
@_RNvNtCsC3JuwEIQwb_7console5utils13STDOUT_COLORS = local_unnamed_addr global <{ [9 x i8], [7 x i8], ptr }> <{ [9 x i8] zeroinitializer, [7 x i8] undef, ptr @_RNvYNCNvNtCsC3JuwEIQwb_7console5utils13STDOUT_COLORS0INtNtNtCsjMrxcFdYDNN_4core3ops8function6FnOnceuE9call_onceB8_ }>, align 8
@alloc_5c8c5330792b76d76bc036d6b9372d18 = private unnamed_addr constant [8 x i8] c"CLICOLOR", align 1
@alloc_787344c135fb1ca228327e24d16f41dc = private unnamed_addr constant [14 x i8] c"CLICOLOR_FORCE", align 1
@alloc_7ef65f9252ea7966a1063c1ab22af5b9 = private unnamed_addr constant [19 x i8] c"Reached end of file", align 1
@alloc_50f3f282355a7f8c5c8e6d622c64bbaf = private unnamed_addr constant [16 x i8] c"read interrupted", align 1
@alloc_9e8821ebf06809bdf585485e81a043ea = private unnamed_addr constant [8 x i8] c"NO_COLOR", align 1
@alloc_c940f1872184b67533cde325d4eb7ceb = private unnamed_addr constant [4 x i8] c"TERM", align 1
@alloc_0cb071d804372b212169612c3e5a40ce = private unnamed_addr constant [4 x i8] c"dumb", align 1
@_RNvNtCsDJOD2kcAir_13unicode_width6tables10WIDTH_ROOT = external local_unnamed_addr global %"unicode_width::tables::Align128<[u8; 256]>"
@alloc_aaca2516fbe9b04517984be67db863ea = private unnamed_addr constant [106 x i8] c"/Users/hongyaotang/.cargo/registry/src/index.crates.io-1949cf8c6b5b557f/unicode-width-0.2.2/src/tables.rs\00", align 1
@_RNvNtCsDJOD2kcAir_13unicode_width6tables12WIDTH_MIDDLE = external local_unnamed_addr global %"unicode_width::tables::Align64<[[u8; 64]; 20]>"
@alloc_3c235b06addb9c2230a3beb294b85791 = private unnamed_addr constant <{ ptr, [16 x i8] }> <{ ptr @alloc_aaca2516fbe9b04517984be67db863ea, [16 x i8] c"i\00\00\00\00\00\00\00\B8\00\00\00\15\00\00\00" }>, align 8
@_RNvNtCsDJOD2kcAir_13unicode_width6tables12WIDTH_LEAVES = external local_unnamed_addr global %"unicode_width::tables::Align32<[[u8; 32]; 186]>"
@alloc_54facc433374646a466a7fffff6dc929 = private unnamed_addr constant <{ ptr, [16 x i8] }> <{ ptr @alloc_aaca2516fbe9b04517984be67db863ea, [16 x i8] c"i\00\00\00\00\00\00\00\BE\00\00\00\19\00\00\00" }>, align 8
@_RNvNtCsDJOD2kcAir_13unicode_width6tables21EMOJI_MODIFIER_LEAF_0 = external local_unnamed_addr global [2 x { i8, i8 }]
@_RNvNtCsDJOD2kcAir_13unicode_width6tables21EMOJI_MODIFIER_LEAF_1 = external local_unnamed_addr global [1 x { i8, i8 }]
@_RNvNtCsDJOD2kcAir_13unicode_width6tables21EMOJI_MODIFIER_LEAF_2 = external local_unnamed_addr global [4 x { i8, i8 }]
@_RNvNtCsDJOD2kcAir_13unicode_width6tables21EMOJI_MODIFIER_LEAF_3 = external local_unnamed_addr global [9 x { i8, i8 }]
@_RNvNtCsDJOD2kcAir_13unicode_width6tables21EMOJI_MODIFIER_LEAF_4 = external local_unnamed_addr global [4 x { i8, i8 }]
@_RNvNtCsDJOD2kcAir_13unicode_width6tables21EMOJI_MODIFIER_LEAF_5 = external local_unnamed_addr global [6 x { i8, i8 }]
@_RNvNtCsDJOD2kcAir_13unicode_width6tables21EMOJI_MODIFIER_LEAF_6 = external local_unnamed_addr global [12 x { i8, i8 }]
@_RNvNtCsDJOD2kcAir_13unicode_width6tables21EMOJI_MODIFIER_LEAF_7 = external local_unnamed_addr global [2 x { i8, i8 }]
@_RNvNtCsDJOD2kcAir_13unicode_width6tables25EMOJI_PRESENTATION_LEAVES = external local_unnamed_addr global %"unicode_width::tables::Align128<[[u8; 128]; 7]>"
@_RNvNtCsDJOD2kcAir_13unicode_width6tables24TEXT_PRESENTATION_LEAF_0 = external local_unnamed_addr global [4 x { i8, i8 }]
@_RNvNtCsDJOD2kcAir_13unicode_width6tables24TEXT_PRESENTATION_LEAF_1 = external local_unnamed_addr global [1 x { i8, i8 }]
@_RNvNtCsDJOD2kcAir_13unicode_width6tables24TEXT_PRESENTATION_LEAF_2 = external local_unnamed_addr global [15 x { i8, i8 }]
@_RNvNtCsDJOD2kcAir_13unicode_width6tables24TEXT_PRESENTATION_LEAF_3 = external local_unnamed_addr global [10 x { i8, i8 }]
@_RNvNtCsDJOD2kcAir_13unicode_width6tables24TEXT_PRESENTATION_LEAF_4 = external local_unnamed_addr global [3 x { i8, i8 }]
@_RNvNtCsDJOD2kcAir_13unicode_width6tables24TEXT_PRESENTATION_LEAF_5 = external local_unnamed_addr global [1 x { i8, i8 }]
@_RNvNtCsDJOD2kcAir_13unicode_width6tables24TEXT_PRESENTATION_LEAF_6 = external local_unnamed_addr global [13 x { i8, i8 }]
@_RNvNtCsDJOD2kcAir_13unicode_width6tables24TEXT_PRESENTATION_LEAF_7 = external local_unnamed_addr global [22 x { i8, i8 }]
@_RNvNtCsDJOD2kcAir_13unicode_width6tables24TEXT_PRESENTATION_LEAF_8 = external local_unnamed_addr global [4 x { i8, i8 }]
@_RNvNtCsDJOD2kcAir_13unicode_width6tables24TEXT_PRESENTATION_LEAF_9 = external local_unnamed_addr global [10 x { i8, i8 }]
@alloc_bf8d9f537a4fba6a5267343a2274f175 = private unnamed_addr constant [105 x i8] c"/Users/hongyaotang/.cargo/registry/src/index.crates.io-1949cf8c6b5b557f/libc-0.2.177/src/unix/bsd/mod.rs\00", align 1
@alloc_e5974023cf134bdbad09697d09348ac9 = private unnamed_addr constant <{ ptr, [16 x i8] }> <{ ptr @alloc_bf8d9f537a4fba6a5267343a2274f175, [16 x i8] c"h\00\00\00\00\00\00\00W\02\00\00\09\00\00\00" }>, align 8
@alloc_afa71497e4832d4e825454760abdae23 = private unnamed_addr constant [4 x i8] c"\01\0A\C0\00", align 1
@alloc_9ead3bbeb6a5cfcbf0840e30f987d290 = private unnamed_addr constant <{ ptr, [16 x i8] }> <{ ptr @alloc_df3352094b5ea906c434c84ffe49cca7, [16 x i8] c"c\00\00\00\00\00\00\00X\02\00\00\1E\00\00\00" }>, align 8
@alloc_da7d8ace005fc641b5ea7745ba5bdcfd = private unnamed_addr constant <{ ptr, [16 x i8] }> <{ ptr @alloc_df3352094b5ea906c434c84ffe49cca7, [16 x i8] c"c\00\00\00\00\00\00\00q\02\00\00/\00\00\00" }>, align 8
@alloc_0878d7ad62607610ca18347eb669fd5d = private unnamed_addr constant <{ ptr, [16 x i8] }> <{ ptr @alloc_df3352094b5ea906c434c84ffe49cca7, [16 x i8] c"c\00\00\00\00\00\00\00\7F\02\00\00/\00\00\00" }>, align 8
@alloc_0c812808379efded5a4fb82d2790b556 = private unnamed_addr constant [2 x i8] c"\C0\00", align 1
@alloc_ca4d880a0cd8b0a81e2f00dd95ebe9c4 = private unnamed_addr constant <{ ptr, [16 x i8] }> <{ ptr @alloc_ebf3b6b7067b219708a558a8386bf721, [16 x i8] c"c\00\00\00\00\00\00\00\F7\00\00\00\1C\00\00\00" }>, align 8
@alloc_1b354bc18ec1773a84dec3c89f38b3b8 = private unnamed_addr constant <{ ptr, [16 x i8] }> <{ ptr @alloc_ebf3b6b7067b219708a558a8386bf721, [16 x i8] c"c\00\00\00\00\00\00\00\81\00\00\00\13\00\00\00" }>, align 8
@alloc_173e90a6bd2787cc8478b93b2c321f76 = private unnamed_addr constant <{ ptr, [16 x i8] }> <{ ptr @alloc_ebf3b6b7067b219708a558a8386bf721, [16 x i8] c"c\00\00\00\00\00\00\00\02\01\00\00\1D\00\00\00" }>, align 8
@alloc_8e2410b80645266732854088d21653bc = private unnamed_addr constant [11 x i8] c"PoisonError", align 1
@switch.table._RNvNtCsC3JuwEIQwb_7console5utils9str_width = private unnamed_addr constant [7 x i16] [i16 0, i16 poison, i16 poison, i16 poison, i16 33, i16 32, i16 0], align 2

@_RNvMsn_NtCsdJPVW0sQgAG_5alloc4syncINtB5_3ArcINtNtNtNtCs5sEH5CPMdak_3std4sync6poison5mutex5MutexDNtNtCsC3JuwEIQwb_7console4term9TermWriteEL_EE9drop_slowB1A_ = unnamed_addr alias void (ptr), ptr @_RNvMsn_NtCsdJPVW0sQgAG_5alloc4syncINtB5_3ArcINtNtNtNtCs5sEH5CPMdak_3std4sync6poison5mutex5MutexDNtNtCsC3JuwEIQwb_7console4term8TermReadEL_EE9drop_slowB1A_

; <std::sys::sync::once_box::OnceBox<std::sys::pal::unix::sync::mutex::Mutex>>::initialize::<<std::sys::sync::mutex::pthread::Mutex>::get::{closure#0}>
; Function Attrs: cold uwtable
define internal fastcc noundef nonnull align 8 ptr @_RINvMNtNtNtCs5sEH5CPMdak_3std3sys4sync8once_boxINtB3_7OnceBoxNtNtNtNtNtB7_3pal4unix4sync5mutex5MutexE10initializeNCNvMNtNtB5_5mutex7pthreadNtB1S_5Mutex3get0ECsC3JuwEIQwb_7console(ptr noundef nonnull align 8 captures(none) %self) unnamed_addr #0 personality ptr @rust_eh_personality {
start:
  %x.i = alloca [64 x i8], align 8
  call void @llvm.lifetime.start.p0(i64 64, ptr nonnull %x.i)
  call void @llvm.memcpy.p0.p0.i64(ptr noundef nonnull align 8 dereferenceable(64) %x.i, ptr noundef nonnull align 8 dereferenceable(64) @anon.554535de7657ca3c38ed6e2115135a2e.0, i64 64, i1 false)
; call __rustc::__rust_no_alloc_shim_is_unstable_v2
  tail call void @_RNvCsKhRCbHf33p_7___rustc35___rust_no_alloc_shim_is_unstable_v2() #29, !noalias !2
; call __rustc::__rust_alloc
  %0 = tail call noundef align 8 dereferenceable_or_null(64) ptr @_RNvCsKhRCbHf33p_7___rustc12___rust_alloc(i64 noundef 64, i64 noundef 8) #29, !noalias !2
  %1 = icmp eq ptr %0, null
  br i1 %1, label %bb2.i.i, label %_RNvMNtCsdJPVW0sQgAG_5alloc5boxedINtB2_3BoxNtNtNtNtNtNtCs5sEH5CPMdak_3std3sys3pal4unix4sync5mutex5MutexE3newCsC3JuwEIQwb_7console.exit.i, !prof !5

bb2.i.i:                                          ; preds = %start
; invoke alloc::alloc::handle_alloc_error
  invoke void @_RNvNtCsdJPVW0sQgAG_5alloc5alloc18handle_alloc_error(i64 noundef 8, i64 noundef 64) #30
          to label %.noexc.i unwind label %cleanup.i.i

.noexc.i:                                         ; preds = %bb2.i.i
  unreachable

cleanup.i.i:                                      ; preds = %bb2.i.i
  %2 = landingpad { ptr, i32 }
          cleanup
; invoke <std::sys::pal::unix::sync::mutex::Mutex as core::ops::drop::Drop>::drop
  invoke void @_RNvXs2_NtNtNtNtNtCs5sEH5CPMdak_3std3sys3pal4unix4sync5mutexNtB5_5MutexNtNtNtCsjMrxcFdYDNN_4core3ops4drop4Drop4drop(ptr noundef nonnull align 8 dereferenceable(64) %x.i)
          to label %common.resume unwind label %terminate.i.i

terminate.i.i:                                    ; preds = %cleanup.i.i
  %3 = landingpad { ptr, i32 }
          filter [0 x ptr] zeroinitializer
; call core::panicking::panic_in_cleanup
  call void @_RNvNtCsjMrxcFdYDNN_4core9panicking16panic_in_cleanup() #31
  unreachable

common.resume:                                    ; preds = %cleanup.i.i, %cleanup.i, %bb1.i
  %common.resume.op = phi { ptr, i32 } [ %9, %bb1.i ], [ %2, %cleanup.i.i ], [ %4, %cleanup.i ]
  resume { ptr, i32 } %common.resume.op

_RNvMNtCsdJPVW0sQgAG_5alloc5boxedINtB2_3BoxNtNtNtNtNtNtCs5sEH5CPMdak_3std3sys3pal4unix4sync5mutex5MutexE3newCsC3JuwEIQwb_7console.exit.i: ; preds = %start
  tail call void @llvm.memcpy.p0.p0.i64(ptr noundef nonnull align 8 dereferenceable(64) %0, ptr noundef nonnull align 8 dereferenceable(64) @anon.554535de7657ca3c38ed6e2115135a2e.0, i64 64, i1 false)
  call void @llvm.lifetime.end.p0(i64 64, ptr nonnull %x.i)
; invoke <std::sys::pal::unix::sync::mutex::Mutex>::init
  invoke void @_RNvMNtNtNtNtNtCs5sEH5CPMdak_3std3sys3pal4unix4sync5mutexNtB2_5Mutex4init(ptr noundef nonnull align 8 %0)
          to label %_RNCNvMNtNtNtNtCs5sEH5CPMdak_3std3sys4sync5mutex7pthreadNtB4_5Mutex3get0CsC3JuwEIQwb_7console.exit unwind label %cleanup.i

cleanup.i:                                        ; preds = %_RNvMNtCsdJPVW0sQgAG_5alloc5boxedINtB2_3BoxNtNtNtNtNtNtCs5sEH5CPMdak_3std3sys3pal4unix4sync5mutex5MutexE3newCsC3JuwEIQwb_7console.exit.i
  %4 = landingpad { ptr, i32 }
          cleanup
; invoke core::ptr::drop_in_place::<core::pin::Pin<alloc::boxed::Box<std::sys::pal::unix::sync::mutex::Mutex>>>
  invoke fastcc void @_RINvNtCsjMrxcFdYDNN_4core3ptr13drop_in_placeINtNtB4_3pin3PinINtNtCsdJPVW0sQgAG_5alloc5boxed3BoxNtNtNtNtNtNtCs5sEH5CPMdak_3std3sys3pal4unix4sync5mutex5MutexEEECsC3JuwEIQwb_7console(ptr %0) #32
          to label %common.resume unwind label %terminate.i

terminate.i:                                      ; preds = %cleanup.i
  %5 = landingpad { ptr, i32 }
          filter [0 x ptr] zeroinitializer
; call core::panicking::panic_in_cleanup
  tail call void @_RNvNtCsjMrxcFdYDNN_4core9panicking16panic_in_cleanup() #31
  unreachable

_RNCNvMNtNtNtNtCs5sEH5CPMdak_3std3sys4sync5mutex7pthreadNtB4_5Mutex3get0CsC3JuwEIQwb_7console.exit: ; preds = %_RNvMNtCsdJPVW0sQgAG_5alloc5boxedINtB2_3BoxNtNtNtNtNtNtCs5sEH5CPMdak_3std3sys3pal4unix4sync5mutex5MutexE3newCsC3JuwEIQwb_7console.exit.i
  %6 = cmpxchg ptr %self, ptr null, ptr %0 release acquire, align 8
  %7 = extractvalue { ptr, i1 } %6, 1
  %8 = extractvalue { ptr, i1 } %6, 0
  br i1 %7, label %bb5, label %bb3

bb3:                                              ; preds = %_RNCNvMNtNtNtNtCs5sEH5CPMdak_3std3sys4sync5mutex7pthreadNtB4_5Mutex3get0CsC3JuwEIQwb_7console.exit
; invoke <std::sys::pal::unix::sync::mutex::Mutex as core::ops::drop::Drop>::drop
  invoke void @_RNvXs2_NtNtNtNtNtCs5sEH5CPMdak_3std3sys3pal4unix4sync5mutexNtB5_5MutexNtNtNtCsjMrxcFdYDNN_4core3ops4drop4Drop4drop(ptr noundef nonnull align 8 %0)
          to label %_RINvNtCsjMrxcFdYDNN_4core3ptr13drop_in_placeINtNtCsdJPVW0sQgAG_5alloc5boxed3BoxNtNtNtNtNtNtCs5sEH5CPMdak_3std3sys3pal4unix4sync5mutex5MutexEECsC3JuwEIQwb_7console.exit unwind label %bb1.i

bb1.i:                                            ; preds = %bb3
  %9 = landingpad { ptr, i32 }
          cleanup
; call __rustc::__rust_dealloc
  tail call void @_RNvCsKhRCbHf33p_7___rustc14___rust_dealloc(ptr noundef nonnull %0, i64 noundef 64, i64 noundef 8) #29
  br label %common.resume

_RINvNtCsjMrxcFdYDNN_4core3ptr13drop_in_placeINtNtCsdJPVW0sQgAG_5alloc5boxed3BoxNtNtNtNtNtNtCs5sEH5CPMdak_3std3sys3pal4unix4sync5mutex5MutexEECsC3JuwEIQwb_7console.exit: ; preds = %bb3
; call __rustc::__rust_dealloc
  tail call void @_RNvCsKhRCbHf33p_7___rustc14___rust_dealloc(ptr noundef nonnull %0, i64 noundef 64, i64 noundef 8) #29
  br label %bb5

bb5:                                              ; preds = %_RNCNvMNtNtNtNtCs5sEH5CPMdak_3std3sys4sync5mutex7pthreadNtB4_5Mutex3get0CsC3JuwEIQwb_7console.exit, %_RINvNtCsjMrxcFdYDNN_4core3ptr13drop_in_placeINtNtCsdJPVW0sQgAG_5alloc5boxed3BoxNtNtNtNtNtNtCs5sEH5CPMdak_3std3sys3pal4unix4sync5mutex5MutexEECsC3JuwEIQwb_7console.exit
  %_0.sroa.0.0 = phi ptr [ %8, %_RINvNtCsjMrxcFdYDNN_4core3ptr13drop_in_placeINtNtCsdJPVW0sQgAG_5alloc5boxed3BoxNtNtNtNtNtNtCs5sEH5CPMdak_3std3sys3pal4unix4sync5mutex5MutexEECsC3JuwEIQwb_7console.exit ], [ %0, %_RNCNvMNtNtNtNtCs5sEH5CPMdak_3std3sys4sync5mutex7pthreadNtB4_5Mutex3get0CsC3JuwEIQwb_7console.exit ]
  %10 = icmp ne ptr %_0.sroa.0.0, null
  tail call void @llvm.assume(i1 %10)
  ret ptr %_0.sroa.0.0
}

; core::ptr::drop_in_place::<core::pin::Pin<alloc::boxed::Box<std::sys::pal::unix::sync::mutex::Mutex>>>
; Function Attrs: uwtable
define internal fastcc void @_RINvNtCsjMrxcFdYDNN_4core3ptr13drop_in_placeINtNtB4_3pin3PinINtNtCsdJPVW0sQgAG_5alloc5boxed3BoxNtNtNtNtNtNtCs5sEH5CPMdak_3std3sys3pal4unix4sync5mutex5MutexEEECsC3JuwEIQwb_7console(ptr nonnull %_1.0.val) unnamed_addr #1 personality ptr @rust_eh_personality {
start:
; invoke <std::sys::pal::unix::sync::mutex::Mutex as core::ops::drop::Drop>::drop
  invoke void @_RNvXs2_NtNtNtNtNtCs5sEH5CPMdak_3std3sys3pal4unix4sync5mutexNtB5_5MutexNtNtNtCsjMrxcFdYDNN_4core3ops4drop4Drop4drop(ptr noundef nonnull align 8 %_1.0.val)
          to label %_RINvNtCsjMrxcFdYDNN_4core3ptr13drop_in_placeINtNtCsdJPVW0sQgAG_5alloc5boxed3BoxNtNtNtNtNtNtCs5sEH5CPMdak_3std3sys3pal4unix4sync5mutex5MutexEECsC3JuwEIQwb_7console.exit unwind label %bb1.i

bb1.i:                                            ; preds = %start
  %0 = landingpad { ptr, i32 }
          cleanup
; call __rustc::__rust_dealloc
  tail call void @_RNvCsKhRCbHf33p_7___rustc14___rust_dealloc(ptr noundef nonnull %_1.0.val, i64 noundef 64, i64 noundef 8) #29
  resume { ptr, i32 } %0

_RINvNtCsjMrxcFdYDNN_4core3ptr13drop_in_placeINtNtCsdJPVW0sQgAG_5alloc5boxed3BoxNtNtNtNtNtNtCs5sEH5CPMdak_3std3sys3pal4unix4sync5mutex5MutexEECsC3JuwEIQwb_7console.exit: ; preds = %start
; call __rustc::__rust_dealloc
  tail call void @_RNvCsKhRCbHf33p_7___rustc14___rust_dealloc(ptr noundef nonnull %_1.0.val, i64 noundef 64, i64 noundef 8) #29
  ret void
}

; core::ptr::drop_in_place::<core::option::Option<std::sync::poison::mutex::Mutex<alloc::vec::Vec<u8>>>>
; Function Attrs: uwtable
define internal fastcc void @_RINvNtCsjMrxcFdYDNN_4core3ptr13drop_in_placeINtNtB4_6option6OptionINtNtNtNtCs5sEH5CPMdak_3std4sync6poison5mutex5MutexINtNtCsdJPVW0sQgAG_5alloc3vec3VechEEEECsC3JuwEIQwb_7console(ptr noalias noundef nonnull align 8 dereferenceable(48) %_1) unnamed_addr #1 personality ptr @rust_eh_personality {
start:
  %_2 = load i64, ptr %_1, align 8, !range !6, !noundef !7
  %0 = icmp eq i64 %_2, 0
  br i1 %0, label %bb1, label %bb2

bb1:                                              ; preds = %bb2.i.i.i4.i.i4.i, %bb4.i, %start
  ret void

bb2:                                              ; preds = %start
  %1 = getelementptr inbounds nuw i8, ptr %_1, i64 8
; invoke <std::sys::sync::mutex::pthread::Mutex as core::ops::drop::Drop>::drop
  invoke void @_RNvXs_NtNtNtNtCs5sEH5CPMdak_3std3sys4sync5mutex7pthreadNtB4_5MutexNtNtNtCsjMrxcFdYDNN_4core3ops4drop4Drop4drop(ptr noalias noundef nonnull align 8 dereferenceable(40) %1)
          to label %bb4.i.i unwind label %cleanup.i.i

cleanup.i.i:                                      ; preds = %bb2
  %2 = landingpad { ptr, i32 }
          cleanup
; invoke core::ptr::drop_in_place::<std::sys::sync::once_box::OnceBox<std::sys::pal::unix::sync::mutex::Mutex>>
  invoke fastcc void @_RINvNtCsjMrxcFdYDNN_4core3ptr13drop_in_placeINtNtNtNtCs5sEH5CPMdak_3std3sys4sync8once_box7OnceBoxNtNtNtNtNtBN_3pal4unix4sync5mutex5MutexEECsC3JuwEIQwb_7console(ptr noalias noundef nonnull align 8 dereferenceable(40) %1) #32
          to label %cleanup.body.i unwind label %terminate.i.i

bb4.i.i:                                          ; preds = %bb2
  tail call void @llvm.experimental.noalias.scope.decl(metadata !8)
  tail call void @llvm.experimental.noalias.scope.decl(metadata !11)
  %ptr.i.i.i.i = load ptr, ptr %1, align 8, !alias.scope !14, !noundef !7
  store ptr null, ptr %1, align 8, !alias.scope !14
  %3 = icmp eq ptr %ptr.i.i.i.i, null
  br i1 %3, label %bb4.i, label %bb2.i.i.i.i.i

bb2.i.i.i.i.i:                                    ; preds = %bb4.i.i
; invoke <std::sys::pal::unix::sync::mutex::Mutex as core::ops::drop::Drop>::drop
  invoke void @_RNvXs2_NtNtNtNtNtCs5sEH5CPMdak_3std3sys3pal4unix4sync5mutexNtB5_5MutexNtNtNtCsjMrxcFdYDNN_4core3ops4drop4Drop4drop(ptr noundef nonnull align 8 %ptr.i.i.i.i)
          to label %_RINvNtCsjMrxcFdYDNN_4core3ptr13drop_in_placeINtNtB4_3pin3PinINtNtCsdJPVW0sQgAG_5alloc5boxed3BoxNtNtNtNtNtNtCs5sEH5CPMdak_3std3sys3pal4unix4sync5mutex5MutexEEECsC3JuwEIQwb_7console.exit.i.i.i.i.i unwind label %bb1.i.i.i.i.i.i.i, !noalias !19

bb1.i.i.i.i.i.i.i:                                ; preds = %bb2.i.i.i.i.i
  %4 = landingpad { ptr, i32 }
          cleanup
; call __rustc::__rust_dealloc
  tail call void @_RNvCsKhRCbHf33p_7___rustc14___rust_dealloc(ptr noundef nonnull %ptr.i.i.i.i, i64 noundef 64, i64 noundef 8) #29, !noalias !19
  br label %cleanup.body.i

_RINvNtCsjMrxcFdYDNN_4core3ptr13drop_in_placeINtNtB4_3pin3PinINtNtCsdJPVW0sQgAG_5alloc5boxed3BoxNtNtNtNtNtNtCs5sEH5CPMdak_3std3sys3pal4unix4sync5mutex5MutexEEECsC3JuwEIQwb_7console.exit.i.i.i.i.i: ; preds = %bb2.i.i.i.i.i
; call __rustc::__rust_dealloc
  tail call void @_RNvCsKhRCbHf33p_7___rustc14___rust_dealloc(ptr noundef nonnull %ptr.i.i.i.i, i64 noundef 64, i64 noundef 8) #29, !noalias !19
  br label %bb4.i

terminate.i.i:                                    ; preds = %cleanup.i.i
  %5 = landingpad { ptr, i32 }
          filter [0 x ptr] zeroinitializer
; call core::panicking::panic_in_cleanup
  tail call void @_RNvNtCsjMrxcFdYDNN_4core9panicking16panic_in_cleanup() #31
  unreachable

cleanup.body.i:                                   ; preds = %bb1.i.i.i.i.i.i.i, %cleanup.i.i
  %eh.lpad-body.i = phi { ptr, i32 } [ %4, %bb1.i.i.i.i.i.i.i ], [ %2, %cleanup.i.i ]
  %6 = getelementptr inbounds nuw i8, ptr %_1, i64 24
  %.val.i = load i64, ptr %6, align 8, !alias.scope !20
  %7 = icmp eq i64 %.val.i, 0
  br i1 %7, label %bb1.i, label %bb2.i.i.i4.i.i.i

bb2.i.i.i4.i.i.i:                                 ; preds = %cleanup.body.i
  %8 = getelementptr inbounds nuw i8, ptr %_1, i64 32
  %.val1.i = load ptr, ptr %8, align 8, !alias.scope !20, !nonnull !7, !noundef !7
; call __rustc::__rust_dealloc
  tail call void @_RNvCsKhRCbHf33p_7___rustc14___rust_dealloc(ptr noundef nonnull %.val1.i, i64 noundef %.val.i, i64 noundef range(i64 1, -9223372036854775807) 1) #29
  br label %bb1.i

bb4.i:                                            ; preds = %_RINvNtCsjMrxcFdYDNN_4core3ptr13drop_in_placeINtNtB4_3pin3PinINtNtCsdJPVW0sQgAG_5alloc5boxed3BoxNtNtNtNtNtNtCs5sEH5CPMdak_3std3sys3pal4unix4sync5mutex5MutexEEECsC3JuwEIQwb_7console.exit.i.i.i.i.i, %bb4.i.i
  %9 = getelementptr inbounds nuw i8, ptr %_1, i64 24
  %.val2.i = load i64, ptr %9, align 8, !alias.scope !20
  %10 = icmp eq i64 %.val2.i, 0
  br i1 %10, label %bb1, label %bb2.i.i.i4.i.i4.i

bb2.i.i.i4.i.i4.i:                                ; preds = %bb4.i
  %11 = getelementptr inbounds nuw i8, ptr %_1, i64 32
  %.val3.i = load ptr, ptr %11, align 8, !alias.scope !20, !nonnull !7, !noundef !7
; call __rustc::__rust_dealloc
  tail call void @_RNvCsKhRCbHf33p_7___rustc14___rust_dealloc(ptr noundef nonnull %.val3.i, i64 noundef %.val2.i, i64 noundef range(i64 1, -9223372036854775807) 1) #29
  br label %bb1

bb1.i:                                            ; preds = %bb2.i.i.i4.i.i.i, %cleanup.body.i
  resume { ptr, i32 } %eh.lpad-body.i
}

; core::ptr::drop_in_place::<core::result::Result<console::kb::Key, std::io::error::Error>>
; Function Attrs: uwtable
define internal fastcc void @_RINvNtCsjMrxcFdYDNN_4core3ptr13drop_in_placeINtNtB4_6result6ResultNtNtCsC3JuwEIQwb_7console2kb3KeyNtNtNtCs5sEH5CPMdak_3std2io5error5ErrorEEB16_(i64 %_1.0.val, ptr %_1.8.val) unnamed_addr #1 personality ptr @rust_eh_personality {
start:
  %.not = icmp eq i64 %_1.0.val, -9223372036854775787
  br i1 %.not, label %bb3, label %bb2

bb2:                                              ; preds = %start
  %0 = icmp ne i64 %_1.0.val, -9223372036854775807
  tail call void @llvm.assume(i1 %0)
  %or.cond.i = icmp slt i64 %_1.0.val, 1
  br i1 %or.cond.i, label %bb1, label %bb2.i.i.i4.i.i

bb2.i.i.i4.i.i:                                   ; preds = %bb2
  %alloc_size.i.i.i.i5.i.i = shl nuw i64 %_1.0.val, 2
  %1 = icmp ne ptr %_1.8.val, null
  tail call void @llvm.assume(i1 %1)
; call __rustc::__rust_dealloc
  tail call void @_RNvCsKhRCbHf33p_7___rustc14___rust_dealloc(ptr noundef nonnull %_1.8.val, i64 noundef %alloc_size.i.i.i.i5.i.i, i64 noundef range(i64 1, -9223372036854775807) 4) #29
  br label %bb1

bb3:                                              ; preds = %start
  %2 = icmp ne ptr %_1.8.val, null
  tail call void @llvm.assume(i1 %2)
  %bits.i.i.i.i = ptrtoint ptr %_1.8.val to i64
  %_5.i.i.i.i = and i64 %bits.i.i.i.i, 3
  %switch.i.i.i = icmp eq i64 %_5.i.i.i.i, 1
  br i1 %switch.i.i.i, label %bb2.i2.i.i.i, label %bb1, !prof !21

bb2.i2.i.i.i:                                     ; preds = %bb3
  %3 = getelementptr i8, ptr %_1.8.val, i64 -1
  %4 = icmp ne ptr %3, null
  tail call void @llvm.assume(i1 %4)
  %_6.val.i.i.i.i.i = load ptr, ptr %3, align 8
  %5 = getelementptr i8, ptr %_1.8.val, i64 7
  %_6.val1.i.i.i.i.i = load ptr, ptr %5, align 8, !nonnull !7, !align !22, !noundef !7
  %6 = load ptr, ptr %_6.val1.i.i.i.i.i, align 8, !invariant.load !7
  %.not.i.i.i.i.i.i.i = icmp eq ptr %6, null
  br i1 %.not.i.i.i.i.i.i.i, label %bb3.i.i.i.i.i.i.i, label %is_not_null.i.i.i.i.i.i.i

is_not_null.i.i.i.i.i.i.i:                        ; preds = %bb2.i2.i.i.i
  %7 = icmp ne ptr %_6.val.i.i.i.i.i, null
  tail call void @llvm.assume(i1 %7)
  invoke void %6(ptr noundef nonnull %_6.val.i.i.i.i.i)
          to label %bb3.i.i.i.i.i.i.i unwind label %cleanup.i.i.i.i.i.i.i

bb3.i.i.i.i.i.i.i:                                ; preds = %is_not_null.i.i.i.i.i.i.i, %bb2.i2.i.i.i
  %8 = icmp ne ptr %_6.val.i.i.i.i.i, null
  tail call void @llvm.assume(i1 %8)
  %9 = getelementptr inbounds nuw i8, ptr %_6.val1.i.i.i.i.i, i64 8
  %10 = load i64, ptr %9, align 8, !range !23, !invariant.load !7
  %11 = getelementptr inbounds nuw i8, ptr %_6.val1.i.i.i.i.i, i64 16
  %12 = load i64, ptr %11, align 8, !range !24, !invariant.load !7
  %13 = add i64 %12, -1
  %14 = icmp sgt i64 %13, -1
  tail call void @llvm.assume(i1 %14)
  %15 = icmp eq i64 %10, 0
  br i1 %15, label %_RINvNtCsjMrxcFdYDNN_4core3ptr13drop_in_placeINtNtCsdJPVW0sQgAG_5alloc5boxed3BoxNtNtNtCs5sEH5CPMdak_3std2io5error6CustomEECsC3JuwEIQwb_7console.exit.i.i.i.i, label %_RNvXs_NtCsdJPVW0sQgAG_5alloc5allocNtB4_6GlobalNtNtCsjMrxcFdYDNN_4core5alloc9Allocator10deallocate.exit.i.i.i.i.i.i.i.i

_RNvXs_NtCsdJPVW0sQgAG_5alloc5allocNtB4_6GlobalNtNtCsjMrxcFdYDNN_4core5alloc9Allocator10deallocate.exit.i.i.i.i.i.i.i.i: ; preds = %bb3.i.i.i.i.i.i.i
; call __rustc::__rust_dealloc
  tail call void @_RNvCsKhRCbHf33p_7___rustc14___rust_dealloc(ptr noundef nonnull %_6.val.i.i.i.i.i, i64 noundef %10, i64 noundef range(i64 1, -9223372036854775807) %12) #29
  br label %_RINvNtCsjMrxcFdYDNN_4core3ptr13drop_in_placeINtNtCsdJPVW0sQgAG_5alloc5boxed3BoxNtNtNtCs5sEH5CPMdak_3std2io5error6CustomEECsC3JuwEIQwb_7console.exit.i.i.i.i

cleanup.i.i.i.i.i.i.i:                            ; preds = %is_not_null.i.i.i.i.i.i.i
  %16 = landingpad { ptr, i32 }
          cleanup
  %17 = getelementptr inbounds nuw i8, ptr %_6.val1.i.i.i.i.i, i64 8
  %18 = load i64, ptr %17, align 8, !range !23, !invariant.load !7
  %19 = getelementptr inbounds nuw i8, ptr %_6.val1.i.i.i.i.i, i64 16
  %20 = load i64, ptr %19, align 8, !range !24, !invariant.load !7
  %21 = add i64 %20, -1
  %22 = icmp sgt i64 %21, -1
  tail call void @llvm.assume(i1 %22)
  %23 = icmp eq i64 %18, 0
  br i1 %23, label %bb1.i.i.i.i.i, label %_RNvXs_NtCsdJPVW0sQgAG_5alloc5allocNtB4_6GlobalNtNtCsjMrxcFdYDNN_4core5alloc9Allocator10deallocate.exit.i4.i.i.i.i.i.i.i

_RNvXs_NtCsdJPVW0sQgAG_5alloc5allocNtB4_6GlobalNtNtCsjMrxcFdYDNN_4core5alloc9Allocator10deallocate.exit.i4.i.i.i.i.i.i.i: ; preds = %cleanup.i.i.i.i.i.i.i
; call __rustc::__rust_dealloc
  tail call void @_RNvCsKhRCbHf33p_7___rustc14___rust_dealloc(ptr noundef nonnull %_6.val.i.i.i.i.i, i64 noundef %18, i64 noundef range(i64 1, -9223372036854775807) %20) #29
  br label %bb1.i.i.i.i.i

bb1.i.i.i.i.i:                                    ; preds = %_RNvXs_NtCsdJPVW0sQgAG_5alloc5allocNtB4_6GlobalNtNtCsjMrxcFdYDNN_4core5alloc9Allocator10deallocate.exit.i4.i.i.i.i.i.i.i, %cleanup.i.i.i.i.i.i.i
; call __rustc::__rust_dealloc
  tail call void @_RNvCsKhRCbHf33p_7___rustc14___rust_dealloc(ptr noundef nonnull %3, i64 noundef 24, i64 noundef 8) #29
  resume { ptr, i32 } %16

_RINvNtCsjMrxcFdYDNN_4core3ptr13drop_in_placeINtNtCsdJPVW0sQgAG_5alloc5boxed3BoxNtNtNtCs5sEH5CPMdak_3std2io5error6CustomEECsC3JuwEIQwb_7console.exit.i.i.i.i: ; preds = %_RNvXs_NtCsdJPVW0sQgAG_5alloc5allocNtB4_6GlobalNtNtCsjMrxcFdYDNN_4core5alloc9Allocator10deallocate.exit.i.i.i.i.i.i.i.i, %bb3.i.i.i.i.i.i.i
; call __rustc::__rust_dealloc
  tail call void @_RNvCsKhRCbHf33p_7___rustc14___rust_dealloc(ptr noundef nonnull %3, i64 noundef 24, i64 noundef 8) #29
  br label %bb1

bb1:                                              ; preds = %_RINvNtCsjMrxcFdYDNN_4core3ptr13drop_in_placeINtNtCsdJPVW0sQgAG_5alloc5boxed3BoxNtNtNtCs5sEH5CPMdak_3std2io5error6CustomEECsC3JuwEIQwb_7console.exit.i.i.i.i, %bb3, %bb2.i.i.i4.i.i, %bb2
  ret void
}

; core::ptr::drop_in_place::<core::result::Result<alloc::string::String, std::io::error::Error>>
; Function Attrs: uwtable
define internal fastcc void @_RINvNtCsjMrxcFdYDNN_4core3ptr13drop_in_placeINtNtB4_6result6ResultNtNtCsdJPVW0sQgAG_5alloc6string6StringNtNtNtCs5sEH5CPMdak_3std2io5error5ErrorEECsC3JuwEIQwb_7console(i64 %_1.0.val, ptr %_1.8.val) unnamed_addr #1 personality ptr @rust_eh_personality {
start:
  switch i64 %_1.0.val, label %bb2.i.i.i4.i.i [
    i64 -9223372036854775808, label %bb3
    i64 0, label %bb1
  ]

bb2.i.i.i4.i.i:                                   ; preds = %start
  %0 = icmp ne ptr %_1.8.val, null
  tail call void @llvm.assume(i1 %0)
; call __rustc::__rust_dealloc
  tail call void @_RNvCsKhRCbHf33p_7___rustc14___rust_dealloc(ptr noundef nonnull %_1.8.val, i64 noundef %_1.0.val, i64 noundef range(i64 1, -9223372036854775807) 1) #29
  br label %bb1

bb3:                                              ; preds = %start
  %1 = icmp ne ptr %_1.8.val, null
  tail call void @llvm.assume(i1 %1)
  %bits.i.i.i.i = ptrtoint ptr %_1.8.val to i64
  %_5.i.i.i.i = and i64 %bits.i.i.i.i, 3
  %switch.i.i.i = icmp eq i64 %_5.i.i.i.i, 1
  br i1 %switch.i.i.i, label %bb2.i2.i.i.i, label %bb1, !prof !21

bb2.i2.i.i.i:                                     ; preds = %bb3
  %2 = getelementptr i8, ptr %_1.8.val, i64 -1
  %3 = icmp ne ptr %2, null
  tail call void @llvm.assume(i1 %3)
  %_6.val.i.i.i.i.i = load ptr, ptr %2, align 8
  %4 = getelementptr i8, ptr %_1.8.val, i64 7
  %_6.val1.i.i.i.i.i = load ptr, ptr %4, align 8, !nonnull !7, !align !22, !noundef !7
  %5 = load ptr, ptr %_6.val1.i.i.i.i.i, align 8, !invariant.load !7
  %.not.i.i.i.i.i.i.i = icmp eq ptr %5, null
  br i1 %.not.i.i.i.i.i.i.i, label %bb3.i.i.i.i.i.i.i, label %is_not_null.i.i.i.i.i.i.i

is_not_null.i.i.i.i.i.i.i:                        ; preds = %bb2.i2.i.i.i
  %6 = icmp ne ptr %_6.val.i.i.i.i.i, null
  tail call void @llvm.assume(i1 %6)
  invoke void %5(ptr noundef nonnull %_6.val.i.i.i.i.i)
          to label %bb3.i.i.i.i.i.i.i unwind label %cleanup.i.i.i.i.i.i.i

bb3.i.i.i.i.i.i.i:                                ; preds = %is_not_null.i.i.i.i.i.i.i, %bb2.i2.i.i.i
  %7 = icmp ne ptr %_6.val.i.i.i.i.i, null
  tail call void @llvm.assume(i1 %7)
  %8 = getelementptr inbounds nuw i8, ptr %_6.val1.i.i.i.i.i, i64 8
  %9 = load i64, ptr %8, align 8, !range !23, !invariant.load !7
  %10 = getelementptr inbounds nuw i8, ptr %_6.val1.i.i.i.i.i, i64 16
  %11 = load i64, ptr %10, align 8, !range !24, !invariant.load !7
  %12 = add i64 %11, -1
  %13 = icmp sgt i64 %12, -1
  tail call void @llvm.assume(i1 %13)
  %14 = icmp eq i64 %9, 0
  br i1 %14, label %_RINvNtCsjMrxcFdYDNN_4core3ptr13drop_in_placeINtNtCsdJPVW0sQgAG_5alloc5boxed3BoxNtNtNtCs5sEH5CPMdak_3std2io5error6CustomEECsC3JuwEIQwb_7console.exit.i.i.i.i, label %_RNvXs_NtCsdJPVW0sQgAG_5alloc5allocNtB4_6GlobalNtNtCsjMrxcFdYDNN_4core5alloc9Allocator10deallocate.exit.i.i.i.i.i.i.i.i

_RNvXs_NtCsdJPVW0sQgAG_5alloc5allocNtB4_6GlobalNtNtCsjMrxcFdYDNN_4core5alloc9Allocator10deallocate.exit.i.i.i.i.i.i.i.i: ; preds = %bb3.i.i.i.i.i.i.i
; call __rustc::__rust_dealloc
  tail call void @_RNvCsKhRCbHf33p_7___rustc14___rust_dealloc(ptr noundef nonnull %_6.val.i.i.i.i.i, i64 noundef %9, i64 noundef range(i64 1, -9223372036854775807) %11) #29
  br label %_RINvNtCsjMrxcFdYDNN_4core3ptr13drop_in_placeINtNtCsdJPVW0sQgAG_5alloc5boxed3BoxNtNtNtCs5sEH5CPMdak_3std2io5error6CustomEECsC3JuwEIQwb_7console.exit.i.i.i.i

cleanup.i.i.i.i.i.i.i:                            ; preds = %is_not_null.i.i.i.i.i.i.i
  %15 = landingpad { ptr, i32 }
          cleanup
  %16 = getelementptr inbounds nuw i8, ptr %_6.val1.i.i.i.i.i, i64 8
  %17 = load i64, ptr %16, align 8, !range !23, !invariant.load !7
  %18 = getelementptr inbounds nuw i8, ptr %_6.val1.i.i.i.i.i, i64 16
  %19 = load i64, ptr %18, align 8, !range !24, !invariant.load !7
  %20 = add i64 %19, -1
  %21 = icmp sgt i64 %20, -1
  tail call void @llvm.assume(i1 %21)
  %22 = icmp eq i64 %17, 0
  br i1 %22, label %bb1.i.i.i.i.i, label %_RNvXs_NtCsdJPVW0sQgAG_5alloc5allocNtB4_6GlobalNtNtCsjMrxcFdYDNN_4core5alloc9Allocator10deallocate.exit.i4.i.i.i.i.i.i.i

_RNvXs_NtCsdJPVW0sQgAG_5alloc5allocNtB4_6GlobalNtNtCsjMrxcFdYDNN_4core5alloc9Allocator10deallocate.exit.i4.i.i.i.i.i.i.i: ; preds = %cleanup.i.i.i.i.i.i.i
; call __rustc::__rust_dealloc
  tail call void @_RNvCsKhRCbHf33p_7___rustc14___rust_dealloc(ptr noundef nonnull %_6.val.i.i.i.i.i, i64 noundef %17, i64 noundef range(i64 1, -9223372036854775807) %19) #29
  br label %bb1.i.i.i.i.i

bb1.i.i.i.i.i:                                    ; preds = %_RNvXs_NtCsdJPVW0sQgAG_5alloc5allocNtB4_6GlobalNtNtCsjMrxcFdYDNN_4core5alloc9Allocator10deallocate.exit.i4.i.i.i.i.i.i.i, %cleanup.i.i.i.i.i.i.i
; call __rustc::__rust_dealloc
  tail call void @_RNvCsKhRCbHf33p_7___rustc14___rust_dealloc(ptr noundef nonnull %2, i64 noundef 24, i64 noundef 8) #29
  resume { ptr, i32 } %15

_RINvNtCsjMrxcFdYDNN_4core3ptr13drop_in_placeINtNtCsdJPVW0sQgAG_5alloc5boxed3BoxNtNtNtCs5sEH5CPMdak_3std2io5error6CustomEECsC3JuwEIQwb_7console.exit.i.i.i.i: ; preds = %_RNvXs_NtCsdJPVW0sQgAG_5alloc5allocNtB4_6GlobalNtNtCsjMrxcFdYDNN_4core5alloc9Allocator10deallocate.exit.i.i.i.i.i.i.i.i, %bb3.i.i.i.i.i.i.i
; call __rustc::__rust_dealloc
  tail call void @_RNvCsKhRCbHf33p_7___rustc14___rust_dealloc(ptr noundef nonnull %2, i64 noundef 24, i64 noundef 8) #29
  br label %bb1

bb1:                                              ; preds = %start, %_RINvNtCsjMrxcFdYDNN_4core3ptr13drop_in_placeINtNtCsdJPVW0sQgAG_5alloc5boxed3BoxNtNtNtCs5sEH5CPMdak_3std2io5error6CustomEECsC3JuwEIQwb_7console.exit.i.i.i.i, %bb3, %bb2.i.i.i4.i.i
  ret void
}

; core::ptr::drop_in_place::<core::result::Result<bool, std::io::error::Error>>
; Function Attrs: uwtable
define internal fastcc void @_RINvNtCsjMrxcFdYDNN_4core3ptr13drop_in_placeINtNtB4_6result6ResultbNtNtNtCs5sEH5CPMdak_3std2io5error5ErrorEECsC3JuwEIQwb_7console(i8 %_1.0.val, ptr %_1.8.val) unnamed_addr #1 personality ptr @rust_eh_personality {
start:
  %0 = icmp eq i8 %_1.0.val, 0
  br i1 %0, label %bb1, label %bb2

bb1:                                              ; preds = %_RINvNtCsjMrxcFdYDNN_4core3ptr13drop_in_placeINtNtCsdJPVW0sQgAG_5alloc5boxed3BoxNtNtNtCs5sEH5CPMdak_3std2io5error6CustomEECsC3JuwEIQwb_7console.exit.i.i.i.i, %bb2, %start
  ret void

bb2:                                              ; preds = %start
  %1 = icmp ne ptr %_1.8.val, null
  tail call void @llvm.assume(i1 %1)
  %bits.i.i.i.i = ptrtoint ptr %_1.8.val to i64
  %_5.i.i.i.i = and i64 %bits.i.i.i.i, 3
  %switch.i.i.i = icmp eq i64 %_5.i.i.i.i, 1
  br i1 %switch.i.i.i, label %bb2.i2.i.i.i, label %bb1, !prof !21

bb2.i2.i.i.i:                                     ; preds = %bb2
  %2 = getelementptr i8, ptr %_1.8.val, i64 -1
  %3 = icmp ne ptr %2, null
  tail call void @llvm.assume(i1 %3)
  %_6.val.i.i.i.i.i = load ptr, ptr %2, align 8
  %4 = getelementptr i8, ptr %_1.8.val, i64 7
  %_6.val1.i.i.i.i.i = load ptr, ptr %4, align 8, !nonnull !7, !align !22, !noundef !7
  %5 = load ptr, ptr %_6.val1.i.i.i.i.i, align 8, !invariant.load !7
  %.not.i.i.i.i.i.i.i = icmp eq ptr %5, null
  br i1 %.not.i.i.i.i.i.i.i, label %bb3.i.i.i.i.i.i.i, label %is_not_null.i.i.i.i.i.i.i

is_not_null.i.i.i.i.i.i.i:                        ; preds = %bb2.i2.i.i.i
  %6 = icmp ne ptr %_6.val.i.i.i.i.i, null
  tail call void @llvm.assume(i1 %6)
  invoke void %5(ptr noundef nonnull %_6.val.i.i.i.i.i)
          to label %bb3.i.i.i.i.i.i.i unwind label %cleanup.i.i.i.i.i.i.i

bb3.i.i.i.i.i.i.i:                                ; preds = %is_not_null.i.i.i.i.i.i.i, %bb2.i2.i.i.i
  %7 = icmp ne ptr %_6.val.i.i.i.i.i, null
  tail call void @llvm.assume(i1 %7)
  %8 = getelementptr inbounds nuw i8, ptr %_6.val1.i.i.i.i.i, i64 8
  %9 = load i64, ptr %8, align 8, !range !23, !invariant.load !7
  %10 = getelementptr inbounds nuw i8, ptr %_6.val1.i.i.i.i.i, i64 16
  %11 = load i64, ptr %10, align 8, !range !24, !invariant.load !7
  %12 = add i64 %11, -1
  %13 = icmp sgt i64 %12, -1
  tail call void @llvm.assume(i1 %13)
  %14 = icmp eq i64 %9, 0
  br i1 %14, label %_RINvNtCsjMrxcFdYDNN_4core3ptr13drop_in_placeINtNtCsdJPVW0sQgAG_5alloc5boxed3BoxNtNtNtCs5sEH5CPMdak_3std2io5error6CustomEECsC3JuwEIQwb_7console.exit.i.i.i.i, label %_RNvXs_NtCsdJPVW0sQgAG_5alloc5allocNtB4_6GlobalNtNtCsjMrxcFdYDNN_4core5alloc9Allocator10deallocate.exit.i.i.i.i.i.i.i.i

_RNvXs_NtCsdJPVW0sQgAG_5alloc5allocNtB4_6GlobalNtNtCsjMrxcFdYDNN_4core5alloc9Allocator10deallocate.exit.i.i.i.i.i.i.i.i: ; preds = %bb3.i.i.i.i.i.i.i
; call __rustc::__rust_dealloc
  tail call void @_RNvCsKhRCbHf33p_7___rustc14___rust_dealloc(ptr noundef nonnull %_6.val.i.i.i.i.i, i64 noundef %9, i64 noundef range(i64 1, -9223372036854775807) %11) #29
  br label %_RINvNtCsjMrxcFdYDNN_4core3ptr13drop_in_placeINtNtCsdJPVW0sQgAG_5alloc5boxed3BoxNtNtNtCs5sEH5CPMdak_3std2io5error6CustomEECsC3JuwEIQwb_7console.exit.i.i.i.i

cleanup.i.i.i.i.i.i.i:                            ; preds = %is_not_null.i.i.i.i.i.i.i
  %15 = landingpad { ptr, i32 }
          cleanup
  %16 = getelementptr inbounds nuw i8, ptr %_6.val1.i.i.i.i.i, i64 8
  %17 = load i64, ptr %16, align 8, !range !23, !invariant.load !7
  %18 = getelementptr inbounds nuw i8, ptr %_6.val1.i.i.i.i.i, i64 16
  %19 = load i64, ptr %18, align 8, !range !24, !invariant.load !7
  %20 = add i64 %19, -1
  %21 = icmp sgt i64 %20, -1
  tail call void @llvm.assume(i1 %21)
  %22 = icmp eq i64 %17, 0
  br i1 %22, label %bb1.i.i.i.i.i, label %_RNvXs_NtCsdJPVW0sQgAG_5alloc5allocNtB4_6GlobalNtNtCsjMrxcFdYDNN_4core5alloc9Allocator10deallocate.exit.i4.i.i.i.i.i.i.i

_RNvXs_NtCsdJPVW0sQgAG_5alloc5allocNtB4_6GlobalNtNtCsjMrxcFdYDNN_4core5alloc9Allocator10deallocate.exit.i4.i.i.i.i.i.i.i: ; preds = %cleanup.i.i.i.i.i.i.i
; call __rustc::__rust_dealloc
  tail call void @_RNvCsKhRCbHf33p_7___rustc14___rust_dealloc(ptr noundef nonnull %_6.val.i.i.i.i.i, i64 noundef %17, i64 noundef range(i64 1, -9223372036854775807) %19) #29
  br label %bb1.i.i.i.i.i

bb1.i.i.i.i.i:                                    ; preds = %_RNvXs_NtCsdJPVW0sQgAG_5alloc5allocNtB4_6GlobalNtNtCsjMrxcFdYDNN_4core5alloc9Allocator10deallocate.exit.i4.i.i.i.i.i.i.i, %cleanup.i.i.i.i.i.i.i
; call __rustc::__rust_dealloc
  tail call void @_RNvCsKhRCbHf33p_7___rustc14___rust_dealloc(ptr noundef nonnull %2, i64 noundef 24, i64 noundef 8) #29
  resume { ptr, i32 } %15

_RINvNtCsjMrxcFdYDNN_4core3ptr13drop_in_placeINtNtCsdJPVW0sQgAG_5alloc5boxed3BoxNtNtNtCs5sEH5CPMdak_3std2io5error6CustomEECsC3JuwEIQwb_7console.exit.i.i.i.i: ; preds = %_RNvXs_NtCsdJPVW0sQgAG_5alloc5allocNtB4_6GlobalNtNtCsjMrxcFdYDNN_4core5alloc9Allocator10deallocate.exit.i.i.i.i.i.i.i.i, %bb3.i.i.i.i.i.i.i
; call __rustc::__rust_dealloc
  tail call void @_RNvCsKhRCbHf33p_7___rustc14___rust_dealloc(ptr noundef nonnull %2, i64 noundef 24, i64 noundef 8) #29
  br label %bb1
}

; core::ptr::drop_in_place::<core::result::Result<usize, std::io::error::Error>>
; Function Attrs: uwtable
define internal fastcc void @_RINvNtCsjMrxcFdYDNN_4core3ptr13drop_in_placeINtNtB4_6result6ResultjNtNtNtCs5sEH5CPMdak_3std2io5error5ErrorEECsC3JuwEIQwb_7console(i64 %_1.0.val, ptr %_1.8.val) unnamed_addr #1 personality ptr @rust_eh_personality {
start:
  %0 = icmp eq i64 %_1.0.val, 0
  br i1 %0, label %bb1, label %bb2

bb1:                                              ; preds = %_RINvNtCsjMrxcFdYDNN_4core3ptr13drop_in_placeINtNtCsdJPVW0sQgAG_5alloc5boxed3BoxNtNtNtCs5sEH5CPMdak_3std2io5error6CustomEECsC3JuwEIQwb_7console.exit.i.i.i.i, %bb2, %start
  ret void

bb2:                                              ; preds = %start
  %1 = icmp ne ptr %_1.8.val, null
  tail call void @llvm.assume(i1 %1)
  %bits.i.i.i.i = ptrtoint ptr %_1.8.val to i64
  %_5.i.i.i.i = and i64 %bits.i.i.i.i, 3
  %switch.i.i.i = icmp eq i64 %_5.i.i.i.i, 1
  br i1 %switch.i.i.i, label %bb2.i2.i.i.i, label %bb1, !prof !21

bb2.i2.i.i.i:                                     ; preds = %bb2
  %2 = getelementptr i8, ptr %_1.8.val, i64 -1
  %3 = icmp ne ptr %2, null
  tail call void @llvm.assume(i1 %3)
  %_6.val.i.i.i.i.i = load ptr, ptr %2, align 8
  %4 = getelementptr i8, ptr %_1.8.val, i64 7
  %_6.val1.i.i.i.i.i = load ptr, ptr %4, align 8, !nonnull !7, !align !22, !noundef !7
  %5 = load ptr, ptr %_6.val1.i.i.i.i.i, align 8, !invariant.load !7
  %.not.i.i.i.i.i.i.i = icmp eq ptr %5, null
  br i1 %.not.i.i.i.i.i.i.i, label %bb3.i.i.i.i.i.i.i, label %is_not_null.i.i.i.i.i.i.i

is_not_null.i.i.i.i.i.i.i:                        ; preds = %bb2.i2.i.i.i
  %6 = icmp ne ptr %_6.val.i.i.i.i.i, null
  tail call void @llvm.assume(i1 %6)
  invoke void %5(ptr noundef nonnull %_6.val.i.i.i.i.i)
          to label %bb3.i.i.i.i.i.i.i unwind label %cleanup.i.i.i.i.i.i.i

bb3.i.i.i.i.i.i.i:                                ; preds = %is_not_null.i.i.i.i.i.i.i, %bb2.i2.i.i.i
  %7 = icmp ne ptr %_6.val.i.i.i.i.i, null
  tail call void @llvm.assume(i1 %7)
  %8 = getelementptr inbounds nuw i8, ptr %_6.val1.i.i.i.i.i, i64 8
  %9 = load i64, ptr %8, align 8, !range !23, !invariant.load !7
  %10 = getelementptr inbounds nuw i8, ptr %_6.val1.i.i.i.i.i, i64 16
  %11 = load i64, ptr %10, align 8, !range !24, !invariant.load !7
  %12 = add i64 %11, -1
  %13 = icmp sgt i64 %12, -1
  tail call void @llvm.assume(i1 %13)
  %14 = icmp eq i64 %9, 0
  br i1 %14, label %_RINvNtCsjMrxcFdYDNN_4core3ptr13drop_in_placeINtNtCsdJPVW0sQgAG_5alloc5boxed3BoxNtNtNtCs5sEH5CPMdak_3std2io5error6CustomEECsC3JuwEIQwb_7console.exit.i.i.i.i, label %_RNvXs_NtCsdJPVW0sQgAG_5alloc5allocNtB4_6GlobalNtNtCsjMrxcFdYDNN_4core5alloc9Allocator10deallocate.exit.i.i.i.i.i.i.i.i

_RNvXs_NtCsdJPVW0sQgAG_5alloc5allocNtB4_6GlobalNtNtCsjMrxcFdYDNN_4core5alloc9Allocator10deallocate.exit.i.i.i.i.i.i.i.i: ; preds = %bb3.i.i.i.i.i.i.i
; call __rustc::__rust_dealloc
  tail call void @_RNvCsKhRCbHf33p_7___rustc14___rust_dealloc(ptr noundef nonnull %_6.val.i.i.i.i.i, i64 noundef %9, i64 noundef range(i64 1, -9223372036854775807) %11) #29
  br label %_RINvNtCsjMrxcFdYDNN_4core3ptr13drop_in_placeINtNtCsdJPVW0sQgAG_5alloc5boxed3BoxNtNtNtCs5sEH5CPMdak_3std2io5error6CustomEECsC3JuwEIQwb_7console.exit.i.i.i.i

cleanup.i.i.i.i.i.i.i:                            ; preds = %is_not_null.i.i.i.i.i.i.i
  %15 = landingpad { ptr, i32 }
          cleanup
  %16 = getelementptr inbounds nuw i8, ptr %_6.val1.i.i.i.i.i, i64 8
  %17 = load i64, ptr %16, align 8, !range !23, !invariant.load !7
  %18 = getelementptr inbounds nuw i8, ptr %_6.val1.i.i.i.i.i, i64 16
  %19 = load i64, ptr %18, align 8, !range !24, !invariant.load !7
  %20 = add i64 %19, -1
  %21 = icmp sgt i64 %20, -1
  tail call void @llvm.assume(i1 %21)
  %22 = icmp eq i64 %17, 0
  br i1 %22, label %bb1.i.i.i.i.i, label %_RNvXs_NtCsdJPVW0sQgAG_5alloc5allocNtB4_6GlobalNtNtCsjMrxcFdYDNN_4core5alloc9Allocator10deallocate.exit.i4.i.i.i.i.i.i.i

_RNvXs_NtCsdJPVW0sQgAG_5alloc5allocNtB4_6GlobalNtNtCsjMrxcFdYDNN_4core5alloc9Allocator10deallocate.exit.i4.i.i.i.i.i.i.i: ; preds = %cleanup.i.i.i.i.i.i.i
; call __rustc::__rust_dealloc
  tail call void @_RNvCsKhRCbHf33p_7___rustc14___rust_dealloc(ptr noundef nonnull %_6.val.i.i.i.i.i, i64 noundef %17, i64 noundef range(i64 1, -9223372036854775807) %19) #29
  br label %bb1.i.i.i.i.i

bb1.i.i.i.i.i:                                    ; preds = %_RNvXs_NtCsdJPVW0sQgAG_5alloc5allocNtB4_6GlobalNtNtCsjMrxcFdYDNN_4core5alloc9Allocator10deallocate.exit.i4.i.i.i.i.i.i.i, %cleanup.i.i.i.i.i.i.i
; call __rustc::__rust_dealloc
  tail call void @_RNvCsKhRCbHf33p_7___rustc14___rust_dealloc(ptr noundef nonnull %2, i64 noundef 24, i64 noundef 8) #29
  resume { ptr, i32 } %15

_RINvNtCsjMrxcFdYDNN_4core3ptr13drop_in_placeINtNtCsdJPVW0sQgAG_5alloc5boxed3BoxNtNtNtCs5sEH5CPMdak_3std2io5error6CustomEECsC3JuwEIQwb_7console.exit.i.i.i.i: ; preds = %_RNvXs_NtCsdJPVW0sQgAG_5alloc5allocNtB4_6GlobalNtNtCsjMrxcFdYDNN_4core5alloc9Allocator10deallocate.exit.i.i.i.i.i.i.i.i, %bb3.i.i.i.i.i.i.i
; call __rustc::__rust_dealloc
  tail call void @_RNvCsKhRCbHf33p_7___rustc14___rust_dealloc(ptr noundef nonnull %2, i64 noundef 24, i64 noundef 8) #29
  br label %bb1
}

; core::ptr::drop_in_place::<console::unix_term::Input<std::io::buffered::bufreader::BufReader<std::fs::File>>>
; Function Attrs: nounwind uwtable
define internal fastcc void @_RINvNtCsjMrxcFdYDNN_4core3ptr13drop_in_placeINtNtCsC3JuwEIQwb_7console9unix_term5InputINtNtNtNtCs5sEH5CPMdak_3std2io8buffered9bufreader9BufReaderNtNtB1v_2fs4FileEEEBL_(ptr noalias noundef nonnull readonly align 8 captures(none) dereferenceable(48) %_1) unnamed_addr #2 personality ptr @rust_eh_personality {
start:
  %0 = load ptr, ptr %_1, align 8, !noundef !7
  %1 = icmp eq ptr %0, null
  br i1 %1, label %bb1, label %bb2

bb1:                                              ; preds = %_RINvNtCsjMrxcFdYDNN_4core3ptr13drop_in_placeINtNtNtNtCs5sEH5CPMdak_3std2io8buffered9bufreader9BufReaderNtNtBP_2fs4FileEECsC3JuwEIQwb_7console.exit, %start
  ret void

bb2:                                              ; preds = %start
  tail call void @llvm.experimental.noalias.scope.decl(metadata !25)
  %2 = getelementptr inbounds nuw i8, ptr %_1, i64 8
  %_1.val2.i = load i64, ptr %2, align 8, !alias.scope !25, !noundef !7
  %3 = icmp eq i64 %_1.val2.i, 0
  br i1 %3, label %_RINvNtCsjMrxcFdYDNN_4core3ptr13drop_in_placeINtNtNtNtCs5sEH5CPMdak_3std2io8buffered9bufreader9BufReaderNtNtBP_2fs4FileEECsC3JuwEIQwb_7console.exit, label %_RNvXs_NtCsdJPVW0sQgAG_5alloc5allocNtB4_6GlobalNtNtCsjMrxcFdYDNN_4core5alloc9Allocator10deallocate.exit.i.i.i.i

_RNvXs_NtCsdJPVW0sQgAG_5alloc5allocNtB4_6GlobalNtNtCsjMrxcFdYDNN_4core5alloc9Allocator10deallocate.exit.i.i.i.i: ; preds = %bb2
; call __rustc::__rust_dealloc
  tail call void @_RNvCsKhRCbHf33p_7___rustc14___rust_dealloc(ptr noundef nonnull %0, i64 noundef %_1.val2.i, i64 noundef 1) #29, !noalias !25
  br label %_RINvNtCsjMrxcFdYDNN_4core3ptr13drop_in_placeINtNtNtNtCs5sEH5CPMdak_3std2io8buffered9bufreader9BufReaderNtNtBP_2fs4FileEECsC3JuwEIQwb_7console.exit

_RINvNtCsjMrxcFdYDNN_4core3ptr13drop_in_placeINtNtNtNtCs5sEH5CPMdak_3std2io8buffered9bufreader9BufReaderNtNtBP_2fs4FileEECsC3JuwEIQwb_7console.exit: ; preds = %bb2, %_RNvXs_NtCsdJPVW0sQgAG_5alloc5allocNtB4_6GlobalNtNtCsjMrxcFdYDNN_4core5alloc9Allocator10deallocate.exit.i.i.i.i
  %4 = getelementptr inbounds nuw i8, ptr %_1, i64 40
  %.val1.i = load i32, ptr %4, align 8, !range !28, !alias.scope !25, !noundef !7
  %_5.i.i.i.i.i3.i = tail call noundef i32 @close(i32 noundef %.val1.i) #29, !noalias !25
  br label %bb1
}

; core::ptr::drop_in_place::<alloc::sync::Weak<std::sync::poison::mutex::Mutex<dyn console::term::TermRead>, &alloc::alloc::Global>>
; Function Attrs: nounwind uwtable
define internal fastcc void @_RINvNtCsjMrxcFdYDNN_4core3ptr13drop_in_placeINtNtCsdJPVW0sQgAG_5alloc4sync4WeakINtNtNtNtCs5sEH5CPMdak_3std4sync6poison5mutex5MutexDNtNtCsC3JuwEIQwb_7console4term8TermReadEL_ERNtNtBL_5alloc6GlobalEEB29_(ptr %_1.0.val, ptr readonly captures(address_is_null) %_1.8.val) unnamed_addr #2 {
start:
  %0 = icmp ne ptr %_1.0.val, null
  tail call void @llvm.assume(i1 %0)
  %_16.i = icmp eq ptr %_1.0.val, inttoptr (i64 -1 to ptr)
  br i1 %_16.i, label %_RNvXsO_NtCsdJPVW0sQgAG_5alloc4syncINtB5_4WeakINtNtNtNtCs5sEH5CPMdak_3std4sync6poison5mutex5MutexDNtNtCsC3JuwEIQwb_7console4term8TermReadEL_ERNtNtB7_5alloc6GlobalENtNtNtCsjMrxcFdYDNN_4core3ops4drop4Drop4dropB1B_.exit, label %bb8.i

bb8.i:                                            ; preds = %start
  %_20.i = getelementptr inbounds nuw i8, ptr %_1.0.val, i64 8
  %1 = atomicrmw sub ptr %_20.i, i64 1 release, align 8
  %2 = icmp eq i64 %1, 1
  br i1 %2, label %bb1.i, label %_RNvXsO_NtCsdJPVW0sQgAG_5alloc4syncINtB5_4WeakINtNtNtNtCs5sEH5CPMdak_3std4sync6poison5mutex5MutexDNtNtCsC3JuwEIQwb_7console4term8TermReadEL_ERNtNtB7_5alloc6GlobalENtNtNtCsjMrxcFdYDNN_4core3ops4drop4Drop4dropB1B_.exit

bb1.i:                                            ; preds = %bb8.i
  fence acquire
  %3 = icmp ne ptr %_1.8.val, null
  tail call void @llvm.assume(i1 %3)
  %4 = getelementptr inbounds nuw i8, ptr %_1.8.val, i64 8
  %5 = load i64, ptr %4, align 8, !range !23, !invariant.load !7
  %6 = getelementptr inbounds nuw i8, ptr %_1.8.val, i64 16
  %7 = load i64, ptr %6, align 8, !range !24, !invariant.load !7
  %8 = add nsw i64 %5, -1
  %9 = add i64 %8, %7
  %10 = sub i64 0, %7
  %11 = and i64 %9, %10
  %12 = tail call i64 @llvm.umax.i64(i64 %7, i64 8)
  %13 = add i64 %12, 8
  %14 = add i64 %13, %11
  %15 = sub i64 0, %12
  %16 = and i64 %14, %15
  %17 = add i64 %12, 15
  %18 = add i64 %17, %16
  %19 = and i64 %18, %15
  %20 = icmp eq i64 %19, 0
  br i1 %20, label %_RNvXsO_NtCsdJPVW0sQgAG_5alloc4syncINtB5_4WeakINtNtNtNtCs5sEH5CPMdak_3std4sync6poison5mutex5MutexDNtNtCsC3JuwEIQwb_7console4term8TermReadEL_ERNtNtB7_5alloc6GlobalENtNtNtCsjMrxcFdYDNN_4core3ops4drop4Drop4dropB1B_.exit, label %bb1.i.i.i

bb1.i.i.i:                                        ; preds = %bb1.i
; call __rustc::__rust_dealloc
  tail call void @_RNvCsKhRCbHf33p_7___rustc14___rust_dealloc(ptr noundef nonnull %_1.0.val, i64 noundef %19, i64 noundef range(i64 1, -9223372036854775807) %12) #29
  br label %_RNvXsO_NtCsdJPVW0sQgAG_5alloc4syncINtB5_4WeakINtNtNtNtCs5sEH5CPMdak_3std4sync6poison5mutex5MutexDNtNtCsC3JuwEIQwb_7console4term8TermReadEL_ERNtNtB7_5alloc6GlobalENtNtNtCsjMrxcFdYDNN_4core3ops4drop4Drop4dropB1B_.exit

_RNvXsO_NtCsdJPVW0sQgAG_5alloc4syncINtB5_4WeakINtNtNtNtCs5sEH5CPMdak_3std4sync6poison5mutex5MutexDNtNtCsC3JuwEIQwb_7console4term8TermReadEL_ERNtNtB7_5alloc6GlobalENtNtNtCsjMrxcFdYDNN_4core3ops4drop4Drop4dropB1B_.exit: ; preds = %start, %bb8.i, %bb1.i, %bb1.i.i.i
  ret void
}

; core::ptr::drop_in_place::<std::sync::poison::PoisonError<std::sync::poison::mutex::MutexGuard<dyn console::term::TermWrite>>>
; Function Attrs: uwtable
define internal void @_RINvNtCsjMrxcFdYDNN_4core3ptr13drop_in_placeINtNtNtCs5sEH5CPMdak_3std4sync6poison11PoisonErrorINtNtBJ_5mutex10MutexGuardDNtNtCsC3JuwEIQwb_7console4term9TermWriteEL_EEEB1Z_(ptr noalias noundef readonly align 8 captures(none) dereferenceable(24) %_1) unnamed_addr #1 {
start:
  %_1.val = load ptr, ptr %_1, align 8, !nonnull !7, !align !22, !noundef !7
  %0 = getelementptr inbounds nuw i8, ptr %_1, i64 16
  %_1.val1 = load i8, ptr %0, align 8, !range !29, !noundef !7
  %_3.i.i = getelementptr inbounds nuw i8, ptr %_1.val, i64 8
  %_3.i.i.i = trunc nuw i8 %_1.val1 to i1
  br i1 %_3.i.i.i, label %_RINvNtCsjMrxcFdYDNN_4core3ptr13drop_in_placeINtNtNtNtCs5sEH5CPMdak_3std4sync6poison5mutex10MutexGuardDNtNtCsC3JuwEIQwb_7console4term9TermWriteEL_EEB1G_.exit, label %bb1.i.i.i

bb1.i.i.i:                                        ; preds = %start
  %1 = load atomic i64, ptr @_RNvNtNtCs5sEH5CPMdak_3std9panicking11panic_count18GLOBAL_PANIC_COUNT monotonic, align 8
  %_7.i.i.i = and i64 %1, 9223372036854775807
  %2 = icmp eq i64 %_7.i.i.i, 0
  br i1 %2, label %_RINvNtCsjMrxcFdYDNN_4core3ptr13drop_in_placeINtNtNtNtCs5sEH5CPMdak_3std4sync6poison5mutex10MutexGuardDNtNtCsC3JuwEIQwb_7console4term9TermWriteEL_EEB1G_.exit, label %bb6.i.i.i, !prof !30

bb6.i.i.i:                                        ; preds = %bb1.i.i.i
; call std::panicking::panic_count::is_zero_slow_path
  %_6.i.i.i = tail call noundef zeroext i1 @_RNvNtNtCs5sEH5CPMdak_3std9panicking11panic_count17is_zero_slow_path() #33
  br i1 %_6.i.i.i, label %_RINvNtCsjMrxcFdYDNN_4core3ptr13drop_in_placeINtNtNtNtCs5sEH5CPMdak_3std4sync6poison5mutex10MutexGuardDNtNtCsC3JuwEIQwb_7console4term9TermWriteEL_EEB1G_.exit, label %bb2.i.i.i

bb2.i.i.i:                                        ; preds = %bb6.i.i.i
  store atomic i8 1, ptr %_3.i.i monotonic, align 8
  br label %_RINvNtCsjMrxcFdYDNN_4core3ptr13drop_in_placeINtNtNtNtCs5sEH5CPMdak_3std4sync6poison5mutex10MutexGuardDNtNtCsC3JuwEIQwb_7console4term9TermWriteEL_EEB1G_.exit

_RINvNtCsjMrxcFdYDNN_4core3ptr13drop_in_placeINtNtNtNtCs5sEH5CPMdak_3std4sync6poison5mutex10MutexGuardDNtNtCsC3JuwEIQwb_7console4term9TermWriteEL_EEB1G_.exit: ; preds = %start, %bb1.i.i.i, %bb6.i.i.i, %bb2.i.i.i
  %3 = load atomic ptr, ptr %_1.val monotonic, align 8
; call <std::sys::pal::unix::sync::mutex::Mutex>::unlock
  tail call void @_RNvMNtNtNtNtNtCs5sEH5CPMdak_3std3sys3pal4unix4sync5mutexNtB2_5Mutex6unlock(ptr noundef nonnull align 8 %3)
  ret void
}

; core::ptr::drop_in_place::<std::sync::poison::PoisonError<std::sync::poison::mutex::MutexGuard<alloc::vec::Vec<u8>>>>
; Function Attrs: uwtable
define internal void @_RINvNtCsjMrxcFdYDNN_4core3ptr13drop_in_placeINtNtNtCs5sEH5CPMdak_3std4sync6poison11PoisonErrorINtNtBJ_5mutex10MutexGuardINtNtCsdJPVW0sQgAG_5alloc3vec3VechEEEECsC3JuwEIQwb_7console(ptr noalias noundef readonly align 8 captures(none) dereferenceable(16) %_1) unnamed_addr #1 {
start:
  %_1.val = load ptr, ptr %_1, align 8, !nonnull !7, !align !22, !noundef !7
  %0 = getelementptr inbounds nuw i8, ptr %_1, i64 8
  %_1.val1 = load i8, ptr %0, align 8, !range !29, !noundef !7
  %_3.i.i = getelementptr inbounds nuw i8, ptr %_1.val, i64 8
  %_3.i.i.i = trunc nuw i8 %_1.val1 to i1
  br i1 %_3.i.i.i, label %_RINvNtCsjMrxcFdYDNN_4core3ptr13drop_in_placeINtNtNtNtCs5sEH5CPMdak_3std4sync6poison5mutex10MutexGuardINtNtCsdJPVW0sQgAG_5alloc3vec3VechEEECsC3JuwEIQwb_7console.exit, label %bb1.i.i.i

bb1.i.i.i:                                        ; preds = %start
  %1 = load atomic i64, ptr @_RNvNtNtCs5sEH5CPMdak_3std9panicking11panic_count18GLOBAL_PANIC_COUNT monotonic, align 8
  %_7.i.i.i = and i64 %1, 9223372036854775807
  %2 = icmp eq i64 %_7.i.i.i, 0
  br i1 %2, label %_RINvNtCsjMrxcFdYDNN_4core3ptr13drop_in_placeINtNtNtNtCs5sEH5CPMdak_3std4sync6poison5mutex10MutexGuardINtNtCsdJPVW0sQgAG_5alloc3vec3VechEEECsC3JuwEIQwb_7console.exit, label %bb6.i.i.i, !prof !30

bb6.i.i.i:                                        ; preds = %bb1.i.i.i
; call std::panicking::panic_count::is_zero_slow_path
  %_6.i.i.i = tail call noundef zeroext i1 @_RNvNtNtCs5sEH5CPMdak_3std9panicking11panic_count17is_zero_slow_path() #33
  br i1 %_6.i.i.i, label %_RINvNtCsjMrxcFdYDNN_4core3ptr13drop_in_placeINtNtNtNtCs5sEH5CPMdak_3std4sync6poison5mutex10MutexGuardINtNtCsdJPVW0sQgAG_5alloc3vec3VechEEECsC3JuwEIQwb_7console.exit, label %bb2.i.i.i

bb2.i.i.i:                                        ; preds = %bb6.i.i.i
  store atomic i8 1, ptr %_3.i.i monotonic, align 8
  br label %_RINvNtCsjMrxcFdYDNN_4core3ptr13drop_in_placeINtNtNtNtCs5sEH5CPMdak_3std4sync6poison5mutex10MutexGuardINtNtCsdJPVW0sQgAG_5alloc3vec3VechEEECsC3JuwEIQwb_7console.exit

_RINvNtCsjMrxcFdYDNN_4core3ptr13drop_in_placeINtNtNtNtCs5sEH5CPMdak_3std4sync6poison5mutex10MutexGuardINtNtCsdJPVW0sQgAG_5alloc3vec3VechEEECsC3JuwEIQwb_7console.exit: ; preds = %start, %bb1.i.i.i, %bb6.i.i.i, %bb2.i.i.i
  %3 = load atomic ptr, ptr %_1.val monotonic, align 8
; call <std::sys::pal::unix::sync::mutex::Mutex>::unlock
  tail call void @_RNvMNtNtNtNtNtCs5sEH5CPMdak_3std3sys3pal4unix4sync5mutexNtB2_5Mutex6unlock(ptr noundef nonnull align 8 %3)
  ret void
}

; core::ptr::drop_in_place::<std::sync::poison::PoisonError<std::sync::poison::rwlock::RwLockReadGuard<alloc::string::String>>>
; Function Attrs: uwtable
define internal void @_RINvNtCsjMrxcFdYDNN_4core3ptr13drop_in_placeINtNtNtCs5sEH5CPMdak_3std4sync6poison11PoisonErrorINtNtBJ_6rwlock15RwLockReadGuardNtNtCsdJPVW0sQgAG_5alloc6string6StringEEECsC3JuwEIQwb_7console(ptr noalias noundef readonly align 8 captures(none) dereferenceable(16) %_1) unnamed_addr #1 personality ptr @rust_eh_personality {
start:
  tail call void @llvm.experimental.noalias.scope.decl(metadata !31)
  tail call void @llvm.experimental.noalias.scope.decl(metadata !34)
  %0 = getelementptr inbounds nuw i8, ptr %_1, i64 8
  %self1.i.i = load ptr, ptr %0, align 8, !alias.scope !37, !nonnull !7, !align !22, !noundef !7
  %1 = load atomic ptr, ptr %self1.i.i acquire, align 8, !noalias !37
  br label %bb1.i.i.i

bb1.i.i.i:                                        ; preds = %bb3.i.i.i, %start
  %prev.sroa.0.0.i.i.i = phi ptr [ %1, %start ], [ %_8.sroa.0.0.i.i.i.i, %bb3.i.i.i ]
  %_4.i.i.i.i = ptrtoint ptr %prev.sroa.0.0.i.i.i to i64
  %_3.i.i.i.i = and i64 %_4.i.i.i.i, 2
  %2 = icmp eq i64 %_3.i.i.i.i, 0
  br i1 %2, label %_RNCNvMs1_NtNtNtNtCs5sEH5CPMdak_3std3sys4sync6rwlock5queueNtB7_6RwLock11read_unlock0CsC3JuwEIQwb_7console.exit.thread.i.i.i, label %_RNCNvMs1_NtNtNtNtCs5sEH5CPMdak_3std3sys4sync6rwlock5queueNtB7_6RwLock11read_unlock0CsC3JuwEIQwb_7console.exit.i.i.i

_RNCNvMs1_NtNtNtNtCs5sEH5CPMdak_3std3sys4sync6rwlock5queueNtB7_6RwLock11read_unlock0CsC3JuwEIQwb_7console.exit.thread.i.i.i: ; preds = %bb1.i.i.i
  %count.i.i.i.i = add i64 %_4.i.i.i.i, -17
  %_7.not.i.i.i.i = icmp eq i64 %count.i.i.i.i, 0
  %addr.i.i.i.i = or i64 %count.i.i.i.i, 1
  %3 = inttoptr i64 %addr.i.i.i.i to ptr
  %_6.sroa.0.0.i.i.i.i = select i1 %_7.not.i.i.i.i, ptr null, ptr %3
  br label %bb3.i.i.i

_RNCNvMs1_NtNtNtNtCs5sEH5CPMdak_3std3sys4sync6rwlock5queueNtB7_6RwLock11read_unlock0CsC3JuwEIQwb_7console.exit.i.i.i: ; preds = %bb1.i.i.i
  %_9.i.i.i.i = and i64 %_4.i.i.i.i, 8
  %.not.i.i.i.i = icmp eq i64 %_9.i.i.i.i, 0
  %4 = tail call nonnull align 2 ptr @llvm.ptrmask.p0.i64(ptr %prev.sroa.0.0.i.i.i, i64 -10)
  br i1 %.not.i.i.i.i, label %bb3.i.i, label %bb3.i.i.i, !prof !38

bb3.i.i.i:                                        ; preds = %_RNCNvMs1_NtNtNtNtCs5sEH5CPMdak_3std3sys4sync6rwlock5queueNtB7_6RwLock11read_unlock0CsC3JuwEIQwb_7console.exit.i.i.i, %_RNCNvMs1_NtNtNtNtCs5sEH5CPMdak_3std3sys4sync6rwlock5queueNtB7_6RwLock11read_unlock0CsC3JuwEIQwb_7console.exit.thread.i.i.i
  %_0.sroa.4.0.i7.i.i.i = phi ptr [ %_6.sroa.0.0.i.i.i.i, %_RNCNvMs1_NtNtNtNtCs5sEH5CPMdak_3std3sys4sync6rwlock5queueNtB7_6RwLock11read_unlock0CsC3JuwEIQwb_7console.exit.thread.i.i.i ], [ %4, %_RNCNvMs1_NtNtNtNtCs5sEH5CPMdak_3std3sys4sync6rwlock5queueNtB7_6RwLock11read_unlock0CsC3JuwEIQwb_7console.exit.i.i.i ]
  %5 = cmpxchg weak ptr %self1.i.i, ptr %prev.sroa.0.0.i.i.i, ptr %_0.sroa.4.0.i7.i.i.i release acquire, align 8, !noalias !37
  %_8.sroa.18.0.in.i.i.i.i = extractvalue { ptr, i1 } %5, 1
  %_8.sroa.0.0.i.i.i.i = extractvalue { ptr, i1 } %5, 0
  br i1 %_8.sroa.18.0.in.i.i.i.i, label %_RINvNtCsjMrxcFdYDNN_4core3ptr13drop_in_placeINtNtNtNtCs5sEH5CPMdak_3std4sync6poison6rwlock15RwLockReadGuardNtNtCsdJPVW0sQgAG_5alloc6string6StringEECsC3JuwEIQwb_7console.exit, label %bb1.i.i.i

bb3.i.i:                                          ; preds = %_RNCNvMs1_NtNtNtNtCs5sEH5CPMdak_3std3sys4sync6rwlock5queueNtB7_6RwLock11read_unlock0CsC3JuwEIQwb_7console.exit.i.i.i
; call <std::sys::sync::rwlock::queue::RwLock>::read_unlock_contended
  tail call void @_RNvMs1_NtNtNtNtCs5sEH5CPMdak_3std3sys4sync6rwlock5queueNtB5_6RwLock21read_unlock_contended(ptr noundef nonnull align 8 %self1.i.i, ptr noundef %prev.sroa.0.0.i.i.i), !noalias !37
  br label %_RINvNtCsjMrxcFdYDNN_4core3ptr13drop_in_placeINtNtNtNtCs5sEH5CPMdak_3std4sync6poison6rwlock15RwLockReadGuardNtNtCsdJPVW0sQgAG_5alloc6string6StringEECsC3JuwEIQwb_7console.exit

_RINvNtCsjMrxcFdYDNN_4core3ptr13drop_in_placeINtNtNtNtCs5sEH5CPMdak_3std4sync6poison6rwlock15RwLockReadGuardNtNtCsdJPVW0sQgAG_5alloc6string6StringEECsC3JuwEIQwb_7console.exit: ; preds = %bb3.i.i.i, %bb3.i.i
  ret void
}

; core::ptr::drop_in_place::<std::sync::poison::PoisonError<std::sync::poison::rwlock::RwLockWriteGuard<alloc::string::String>>>
; Function Attrs: uwtable
define internal void @_RINvNtCsjMrxcFdYDNN_4core3ptr13drop_in_placeINtNtNtCs5sEH5CPMdak_3std4sync6poison11PoisonErrorINtNtBJ_6rwlock16RwLockWriteGuardNtNtCsdJPVW0sQgAG_5alloc6string6StringEEECsC3JuwEIQwb_7console(ptr noalias noundef readonly align 8 captures(none) dereferenceable(16) %_1) unnamed_addr #1 {
start:
  %_1.val = load ptr, ptr %_1, align 8, !nonnull !7, !align !22, !noundef !7
  %0 = getelementptr inbounds nuw i8, ptr %_1, i64 8
  %_1.val1 = load i8, ptr %0, align 8, !range !29, !noundef !7
  %_3.i.i = getelementptr inbounds nuw i8, ptr %_1.val, i64 8
  %_3.i.i.i = trunc nuw i8 %_1.val1 to i1
  br i1 %_3.i.i.i, label %_RNvMNtNtCs5sEH5CPMdak_3std4sync6poisonNtB2_4Flag4done.exit.i.i, label %bb1.i.i.i

bb1.i.i.i:                                        ; preds = %start
  %1 = load atomic i64, ptr @_RNvNtNtCs5sEH5CPMdak_3std9panicking11panic_count18GLOBAL_PANIC_COUNT monotonic, align 8
  %_7.i.i.i = and i64 %1, 9223372036854775807
  %2 = icmp eq i64 %_7.i.i.i, 0
  br i1 %2, label %_RNvMNtNtCs5sEH5CPMdak_3std4sync6poisonNtB2_4Flag4done.exit.i.i, label %bb6.i.i.i, !prof !30

bb6.i.i.i:                                        ; preds = %bb1.i.i.i
; call std::panicking::panic_count::is_zero_slow_path
  %_6.i.i.i = tail call noundef zeroext i1 @_RNvNtNtCs5sEH5CPMdak_3std9panicking11panic_count17is_zero_slow_path() #33
  br i1 %_6.i.i.i, label %_RNvMNtNtCs5sEH5CPMdak_3std4sync6poisonNtB2_4Flag4done.exit.i.i, label %bb2.i.i.i

bb2.i.i.i:                                        ; preds = %bb6.i.i.i
  store atomic i8 1, ptr %_3.i.i monotonic, align 8
  br label %_RNvMNtNtCs5sEH5CPMdak_3std4sync6poisonNtB2_4Flag4done.exit.i.i

_RNvMNtNtCs5sEH5CPMdak_3std4sync6poisonNtB2_4Flag4done.exit.i.i: ; preds = %bb2.i.i.i, %bb6.i.i.i, %bb1.i.i.i, %start
  %3 = cmpxchg ptr %_1.val, ptr inttoptr (i64 1 to ptr), ptr null release monotonic, align 8
  %4 = extractvalue { ptr, i1 } %3, 1
  br i1 %4, label %_RINvNtCsjMrxcFdYDNN_4core3ptr13drop_in_placeINtNtNtNtCs5sEH5CPMdak_3std4sync6poison6rwlock16RwLockWriteGuardNtNtCsdJPVW0sQgAG_5alloc6string6StringEECsC3JuwEIQwb_7console.exit, label %bb3.i.i, !prof !30

bb3.i.i:                                          ; preds = %_RNvMNtNtCs5sEH5CPMdak_3std4sync6poisonNtB2_4Flag4done.exit.i.i
  %5 = extractvalue { ptr, i1 } %3, 0
; call <std::sys::sync::rwlock::queue::RwLock>::unlock_contended
  tail call void @_RNvMs1_NtNtNtNtCs5sEH5CPMdak_3std3sys4sync6rwlock5queueNtB5_6RwLock16unlock_contended(ptr noundef nonnull align 8 %_1.val, ptr noundef %5)
  br label %_RINvNtCsjMrxcFdYDNN_4core3ptr13drop_in_placeINtNtNtNtCs5sEH5CPMdak_3std4sync6poison6rwlock16RwLockWriteGuardNtNtCsdJPVW0sQgAG_5alloc6string6StringEECsC3JuwEIQwb_7console.exit

_RINvNtCsjMrxcFdYDNN_4core3ptr13drop_in_placeINtNtNtNtCs5sEH5CPMdak_3std4sync6poison6rwlock16RwLockWriteGuardNtNtCsdJPVW0sQgAG_5alloc6string6StringEECsC3JuwEIQwb_7console.exit: ; preds = %_RNvMNtNtCs5sEH5CPMdak_3std4sync6poisonNtB2_4Flag4done.exit.i.i, %bb3.i.i
  ret void
}

; core::ptr::drop_in_place::<std::sys::sync::once_box::OnceBox<std::sys::pal::unix::sync::mutex::Mutex>>
; Function Attrs: uwtable
define internal fastcc void @_RINvNtCsjMrxcFdYDNN_4core3ptr13drop_in_placeINtNtNtNtCs5sEH5CPMdak_3std3sys4sync8once_box7OnceBoxNtNtNtNtNtBN_3pal4unix4sync5mutex5MutexEECsC3JuwEIQwb_7console(ptr noalias noundef nonnull align 8 captures(none) dereferenceable(8) %_1) unnamed_addr #1 personality ptr @rust_eh_personality {
start:
  tail call void @llvm.experimental.noalias.scope.decl(metadata !39)
  %ptr.i = load ptr, ptr %_1, align 8, !alias.scope !39, !noundef !7
  store ptr null, ptr %_1, align 8, !alias.scope !39
  %0 = icmp eq ptr %ptr.i, null
  br i1 %0, label %_RNvXs1_NtNtNtCs5sEH5CPMdak_3std3sys4sync8once_boxINtB5_7OnceBoxNtNtNtNtNtB9_3pal4unix4sync5mutex5MutexENtNtNtCsjMrxcFdYDNN_4core3ops4drop4Drop4dropCsC3JuwEIQwb_7console.exit, label %bb2.i.i

bb2.i.i:                                          ; preds = %start
; invoke <std::sys::pal::unix::sync::mutex::Mutex as core::ops::drop::Drop>::drop
  invoke void @_RNvXs2_NtNtNtNtNtCs5sEH5CPMdak_3std3sys3pal4unix4sync5mutexNtB5_5MutexNtNtNtCsjMrxcFdYDNN_4core3ops4drop4Drop4drop(ptr noundef nonnull align 8 %ptr.i)
          to label %_RINvNtCsjMrxcFdYDNN_4core3ptr13drop_in_placeINtNtB4_3pin3PinINtNtCsdJPVW0sQgAG_5alloc5boxed3BoxNtNtNtNtNtNtCs5sEH5CPMdak_3std3sys3pal4unix4sync5mutex5MutexEEECsC3JuwEIQwb_7console.exit.i.i unwind label %bb1.i.i.i.i, !noalias !39

bb1.i.i.i.i:                                      ; preds = %bb2.i.i
  %1 = landingpad { ptr, i32 }
          cleanup
; call __rustc::__rust_dealloc
  tail call void @_RNvCsKhRCbHf33p_7___rustc14___rust_dealloc(ptr noundef nonnull %ptr.i, i64 noundef 64, i64 noundef 8) #29, !noalias !39
  resume { ptr, i32 } %1

_RINvNtCsjMrxcFdYDNN_4core3ptr13drop_in_placeINtNtB4_3pin3PinINtNtCsdJPVW0sQgAG_5alloc5boxed3BoxNtNtNtNtNtNtCs5sEH5CPMdak_3std3sys3pal4unix4sync5mutex5MutexEEECsC3JuwEIQwb_7console.exit.i.i: ; preds = %bb2.i.i
; call __rustc::__rust_dealloc
  tail call void @_RNvCsKhRCbHf33p_7___rustc14___rust_dealloc(ptr noundef nonnull %ptr.i, i64 noundef 64, i64 noundef 8) #29, !noalias !39
  br label %_RNvXs1_NtNtNtCs5sEH5CPMdak_3std3sys4sync8once_boxINtB5_7OnceBoxNtNtNtNtNtB9_3pal4unix4sync5mutex5MutexENtNtNtCsjMrxcFdYDNN_4core3ops4drop4Drop4dropCsC3JuwEIQwb_7console.exit

_RNvXs1_NtNtNtCs5sEH5CPMdak_3std3sys4sync8once_boxINtB5_7OnceBoxNtNtNtNtNtB9_3pal4unix4sync5mutex5MutexENtNtNtCsjMrxcFdYDNN_4core3ops4drop4Drop4dropCsC3JuwEIQwb_7console.exit: ; preds = %start, %_RINvNtCsjMrxcFdYDNN_4core3ptr13drop_in_placeINtNtB4_3pin3PinINtNtCsdJPVW0sQgAG_5alloc5boxed3BoxNtNtNtNtNtNtCs5sEH5CPMdak_3std3sys3pal4unix4sync5mutex5MutexEEECsC3JuwEIQwb_7console.exit.i.i
  ret void
}

; core::ptr::drop_in_place::<std::sync::poison::mutex::MutexGuard<dyn console::term::TermWrite>>
; Function Attrs: uwtable
define internal fastcc void @_RINvNtCsjMrxcFdYDNN_4core3ptr13drop_in_placeINtNtNtNtCs5sEH5CPMdak_3std4sync6poison5mutex10MutexGuardDNtNtCsC3JuwEIQwb_7console4term9TermWriteEL_EEB1G_(ptr captures(address_is_null) %_1.0.val, i8 %_1.16.val) unnamed_addr #1 {
start:
  %0 = icmp ne ptr %_1.0.val, null
  tail call void @llvm.assume(i1 %0)
  %_3.i = getelementptr inbounds nuw i8, ptr %_1.0.val, i64 8
  %_3.i.i = trunc nuw i8 %_1.16.val to i1
  br i1 %_3.i.i, label %_RNvXsc_NtNtNtCs5sEH5CPMdak_3std4sync6poison5mutexINtB5_10MutexGuardDNtNtCsC3JuwEIQwb_7console4term9TermWriteEL_ENtNtNtCsjMrxcFdYDNN_4core3ops4drop4Drop4dropB18_.exit, label %bb1.i.i

bb1.i.i:                                          ; preds = %start
  %1 = load atomic i64, ptr @_RNvNtNtCs5sEH5CPMdak_3std9panicking11panic_count18GLOBAL_PANIC_COUNT monotonic, align 8
  %_7.i.i = and i64 %1, 9223372036854775807
  %2 = icmp eq i64 %_7.i.i, 0
  br i1 %2, label %_RNvXsc_NtNtNtCs5sEH5CPMdak_3std4sync6poison5mutexINtB5_10MutexGuardDNtNtCsC3JuwEIQwb_7console4term9TermWriteEL_ENtNtNtCsjMrxcFdYDNN_4core3ops4drop4Drop4dropB18_.exit, label %bb6.i.i, !prof !30

bb6.i.i:                                          ; preds = %bb1.i.i
; call std::panicking::panic_count::is_zero_slow_path
  %_6.i.i = tail call noundef zeroext i1 @_RNvNtNtCs5sEH5CPMdak_3std9panicking11panic_count17is_zero_slow_path() #33
  br i1 %_6.i.i, label %_RNvXsc_NtNtNtCs5sEH5CPMdak_3std4sync6poison5mutexINtB5_10MutexGuardDNtNtCsC3JuwEIQwb_7console4term9TermWriteEL_ENtNtNtCsjMrxcFdYDNN_4core3ops4drop4Drop4dropB18_.exit, label %bb2.i.i

bb2.i.i:                                          ; preds = %bb6.i.i
  store atomic i8 1, ptr %_3.i monotonic, align 1
  br label %_RNvXsc_NtNtNtCs5sEH5CPMdak_3std4sync6poison5mutexINtB5_10MutexGuardDNtNtCsC3JuwEIQwb_7console4term9TermWriteEL_ENtNtNtCsjMrxcFdYDNN_4core3ops4drop4Drop4dropB18_.exit

_RNvXsc_NtNtNtCs5sEH5CPMdak_3std4sync6poison5mutexINtB5_10MutexGuardDNtNtCsC3JuwEIQwb_7console4term9TermWriteEL_ENtNtNtCsjMrxcFdYDNN_4core3ops4drop4Drop4dropB18_.exit: ; preds = %start, %bb1.i.i, %bb6.i.i, %bb2.i.i
  %3 = load atomic ptr, ptr %_1.0.val monotonic, align 8
; call <std::sys::pal::unix::sync::mutex::Mutex>::unlock
  tail call void @_RNvMNtNtNtNtNtCs5sEH5CPMdak_3std3sys3pal4unix4sync5mutexNtB2_5Mutex6unlock(ptr noundef nonnull align 8 %3)
  ret void
}

; core::ptr::drop_in_place::<std::sync::poison::mutex::Mutex<()>>
; Function Attrs: uwtable
define internal fastcc void @_RINvNtCsjMrxcFdYDNN_4core3ptr13drop_in_placeINtNtNtNtCs5sEH5CPMdak_3std4sync6poison5mutex5MutexuEECsC3JuwEIQwb_7console(ptr noalias noundef nonnull align 8 dereferenceable(16) %_1) unnamed_addr #1 personality ptr @rust_eh_personality {
start:
; invoke <std::sys::sync::mutex::pthread::Mutex as core::ops::drop::Drop>::drop
  invoke void @_RNvXs_NtNtNtNtCs5sEH5CPMdak_3std3sys4sync5mutex7pthreadNtB4_5MutexNtNtNtCsjMrxcFdYDNN_4core3ops4drop4Drop4drop(ptr noalias noundef nonnull align 8 dereferenceable(8) %_1)
          to label %bb4.i unwind label %cleanup.i

cleanup.i:                                        ; preds = %start
  %0 = landingpad { ptr, i32 }
          cleanup
; invoke core::ptr::drop_in_place::<std::sys::sync::once_box::OnceBox<std::sys::pal::unix::sync::mutex::Mutex>>
  invoke fastcc void @_RINvNtCsjMrxcFdYDNN_4core3ptr13drop_in_placeINtNtNtNtCs5sEH5CPMdak_3std3sys4sync8once_box7OnceBoxNtNtNtNtNtBN_3pal4unix4sync5mutex5MutexEECsC3JuwEIQwb_7console(ptr noalias noundef nonnull align 8 dereferenceable(8) %_1) #32
          to label %common.resume.i unwind label %terminate.i

bb4.i:                                            ; preds = %start
  tail call void @llvm.experimental.noalias.scope.decl(metadata !42)
  tail call void @llvm.experimental.noalias.scope.decl(metadata !45)
  %ptr.i.i.i = load ptr, ptr %_1, align 8, !alias.scope !48, !noundef !7
  store ptr null, ptr %_1, align 8, !alias.scope !48
  %1 = icmp eq ptr %ptr.i.i.i, null
  br i1 %1, label %_RINvNtCsjMrxcFdYDNN_4core3ptr13drop_in_placeNtNtNtNtNtCs5sEH5CPMdak_3std3sys4sync5mutex7pthread5MutexECsC3JuwEIQwb_7console.exit, label %bb2.i.i.i.i

bb2.i.i.i.i:                                      ; preds = %bb4.i
; invoke <std::sys::pal::unix::sync::mutex::Mutex as core::ops::drop::Drop>::drop
  invoke void @_RNvXs2_NtNtNtNtNtCs5sEH5CPMdak_3std3sys3pal4unix4sync5mutexNtB5_5MutexNtNtNtCsjMrxcFdYDNN_4core3ops4drop4Drop4drop(ptr noundef nonnull align 8 %ptr.i.i.i)
          to label %_RINvNtCsjMrxcFdYDNN_4core3ptr13drop_in_placeINtNtB4_3pin3PinINtNtCsdJPVW0sQgAG_5alloc5boxed3BoxNtNtNtNtNtNtCs5sEH5CPMdak_3std3sys3pal4unix4sync5mutex5MutexEEECsC3JuwEIQwb_7console.exit.i.i.i.i unwind label %bb1.i.i.i.i.i.i, !noalias !51

common.resume.i:                                  ; preds = %bb1.i.i.i.i.i.i, %cleanup.i
  %common.resume.op.i = phi { ptr, i32 } [ %2, %bb1.i.i.i.i.i.i ], [ %0, %cleanup.i ]
  resume { ptr, i32 } %common.resume.op.i

bb1.i.i.i.i.i.i:                                  ; preds = %bb2.i.i.i.i
  %2 = landingpad { ptr, i32 }
          cleanup
; call __rustc::__rust_dealloc
  tail call void @_RNvCsKhRCbHf33p_7___rustc14___rust_dealloc(ptr noundef nonnull %ptr.i.i.i, i64 noundef 64, i64 noundef 8) #29, !noalias !51
  br label %common.resume.i

_RINvNtCsjMrxcFdYDNN_4core3ptr13drop_in_placeINtNtB4_3pin3PinINtNtCsdJPVW0sQgAG_5alloc5boxed3BoxNtNtNtNtNtNtCs5sEH5CPMdak_3std3sys3pal4unix4sync5mutex5MutexEEECsC3JuwEIQwb_7console.exit.i.i.i.i: ; preds = %bb2.i.i.i.i
; call __rustc::__rust_dealloc
  tail call void @_RNvCsKhRCbHf33p_7___rustc14___rust_dealloc(ptr noundef nonnull %ptr.i.i.i, i64 noundef 64, i64 noundef 8) #29, !noalias !51
  br label %_RINvNtCsjMrxcFdYDNN_4core3ptr13drop_in_placeNtNtNtNtNtCs5sEH5CPMdak_3std3sys4sync5mutex7pthread5MutexECsC3JuwEIQwb_7console.exit

terminate.i:                                      ; preds = %cleanup.i
  %3 = landingpad { ptr, i32 }
          filter [0 x ptr] zeroinitializer
; call core::panicking::panic_in_cleanup
  tail call void @_RNvNtCsjMrxcFdYDNN_4core9panicking16panic_in_cleanup() #31
  unreachable

_RINvNtCsjMrxcFdYDNN_4core3ptr13drop_in_placeNtNtNtNtNtCs5sEH5CPMdak_3std3sys4sync5mutex7pthread5MutexECsC3JuwEIQwb_7console.exit: ; preds = %bb4.i, %_RINvNtCsjMrxcFdYDNN_4core3ptr13drop_in_placeINtNtB4_3pin3PinINtNtCsdJPVW0sQgAG_5alloc5boxed3BoxNtNtNtNtNtNtCs5sEH5CPMdak_3std3sys3pal4unix4sync5mutex5MutexEEECsC3JuwEIQwb_7console.exit.i.i.i.i
  ret void
}

; core::ptr::drop_in_place::<std::sync::poison::rwlock::RwLockReadGuard<alloc::string::String>>
; Function Attrs: uwtable
define internal fastcc void @_RINvNtCsjMrxcFdYDNN_4core3ptr13drop_in_placeINtNtNtNtCs5sEH5CPMdak_3std4sync6poison6rwlock15RwLockReadGuardNtNtCsdJPVW0sQgAG_5alloc6string6StringEECsC3JuwEIQwb_7console(ptr noalias noundef nonnull readonly align 8 captures(none) dereferenceable(16) %_1) unnamed_addr #1 personality ptr @rust_eh_personality {
start:
  tail call void @llvm.experimental.noalias.scope.decl(metadata !52)
  %0 = getelementptr inbounds nuw i8, ptr %_1, i64 8
  %self1.i = load ptr, ptr %0, align 8, !alias.scope !52, !nonnull !7, !align !22, !noundef !7
  %1 = load atomic ptr, ptr %self1.i acquire, align 8, !noalias !52
  br label %bb1.i.i

bb1.i.i:                                          ; preds = %bb3.i.i, %start
  %prev.sroa.0.0.i.i = phi ptr [ %1, %start ], [ %_8.sroa.0.0.i.i.i, %bb3.i.i ]
  %_4.i.i.i = ptrtoint ptr %prev.sroa.0.0.i.i to i64
  %_3.i.i.i = and i64 %_4.i.i.i, 2
  %2 = icmp eq i64 %_3.i.i.i, 0
  br i1 %2, label %_RNCNvMs1_NtNtNtNtCs5sEH5CPMdak_3std3sys4sync6rwlock5queueNtB7_6RwLock11read_unlock0CsC3JuwEIQwb_7console.exit.thread.i.i, label %_RNCNvMs1_NtNtNtNtCs5sEH5CPMdak_3std3sys4sync6rwlock5queueNtB7_6RwLock11read_unlock0CsC3JuwEIQwb_7console.exit.i.i

_RNCNvMs1_NtNtNtNtCs5sEH5CPMdak_3std3sys4sync6rwlock5queueNtB7_6RwLock11read_unlock0CsC3JuwEIQwb_7console.exit.thread.i.i: ; preds = %bb1.i.i
  %count.i.i.i = add i64 %_4.i.i.i, -17
  %_7.not.i.i.i = icmp eq i64 %count.i.i.i, 0
  %addr.i.i.i = or i64 %count.i.i.i, 1
  %3 = inttoptr i64 %addr.i.i.i to ptr
  %_6.sroa.0.0.i.i.i = select i1 %_7.not.i.i.i, ptr null, ptr %3
  br label %bb3.i.i

_RNCNvMs1_NtNtNtNtCs5sEH5CPMdak_3std3sys4sync6rwlock5queueNtB7_6RwLock11read_unlock0CsC3JuwEIQwb_7console.exit.i.i: ; preds = %bb1.i.i
  %_9.i.i.i = and i64 %_4.i.i.i, 8
  %.not.i.i.i = icmp eq i64 %_9.i.i.i, 0
  %4 = tail call nonnull align 2 ptr @llvm.ptrmask.p0.i64(ptr %prev.sroa.0.0.i.i, i64 -10)
  br i1 %.not.i.i.i, label %bb3.i, label %bb3.i.i, !prof !38

bb3.i.i:                                          ; preds = %_RNCNvMs1_NtNtNtNtCs5sEH5CPMdak_3std3sys4sync6rwlock5queueNtB7_6RwLock11read_unlock0CsC3JuwEIQwb_7console.exit.i.i, %_RNCNvMs1_NtNtNtNtCs5sEH5CPMdak_3std3sys4sync6rwlock5queueNtB7_6RwLock11read_unlock0CsC3JuwEIQwb_7console.exit.thread.i.i
  %_0.sroa.4.0.i7.i.i = phi ptr [ %_6.sroa.0.0.i.i.i, %_RNCNvMs1_NtNtNtNtCs5sEH5CPMdak_3std3sys4sync6rwlock5queueNtB7_6RwLock11read_unlock0CsC3JuwEIQwb_7console.exit.thread.i.i ], [ %4, %_RNCNvMs1_NtNtNtNtCs5sEH5CPMdak_3std3sys4sync6rwlock5queueNtB7_6RwLock11read_unlock0CsC3JuwEIQwb_7console.exit.i.i ]
  %5 = cmpxchg weak ptr %self1.i, ptr %prev.sroa.0.0.i.i, ptr %_0.sroa.4.0.i7.i.i release acquire, align 8, !noalias !52
  %_8.sroa.18.0.in.i.i.i = extractvalue { ptr, i1 } %5, 1
  %_8.sroa.0.0.i.i.i = extractvalue { ptr, i1 } %5, 0
  br i1 %_8.sroa.18.0.in.i.i.i, label %_RNvXsh_NtNtNtCs5sEH5CPMdak_3std4sync6poison6rwlockINtB5_15RwLockReadGuardNtNtCsdJPVW0sQgAG_5alloc6string6StringENtNtNtCsjMrxcFdYDNN_4core3ops4drop4Drop4dropCsC3JuwEIQwb_7console.exit, label %bb1.i.i

bb3.i:                                            ; preds = %_RNCNvMs1_NtNtNtNtCs5sEH5CPMdak_3std3sys4sync6rwlock5queueNtB7_6RwLock11read_unlock0CsC3JuwEIQwb_7console.exit.i.i
; call <std::sys::sync::rwlock::queue::RwLock>::read_unlock_contended
  tail call void @_RNvMs1_NtNtNtNtCs5sEH5CPMdak_3std3sys4sync6rwlock5queueNtB5_6RwLock21read_unlock_contended(ptr noundef nonnull align 8 %self1.i, ptr noundef %prev.sroa.0.0.i.i), !noalias !52
  br label %_RNvXsh_NtNtNtCs5sEH5CPMdak_3std4sync6poison6rwlockINtB5_15RwLockReadGuardNtNtCsdJPVW0sQgAG_5alloc6string6StringENtNtNtCsjMrxcFdYDNN_4core3ops4drop4Drop4dropCsC3JuwEIQwb_7console.exit

_RNvXsh_NtNtNtCs5sEH5CPMdak_3std4sync6poison6rwlockINtB5_15RwLockReadGuardNtNtCsdJPVW0sQgAG_5alloc6string6StringENtNtNtCsjMrxcFdYDNN_4core3ops4drop4Drop4dropCsC3JuwEIQwb_7console.exit: ; preds = %bb3.i.i, %bb3.i
  ret void
}

; core::ptr::drop_in_place::<console::term::TermInner>
; Function Attrs: uwtable
define internal fastcc void @_RINvNtCsjMrxcFdYDNN_4core3ptr13drop_in_placeNtNtCsC3JuwEIQwb_7console4term9TermInnerEBK_(ptr noalias noundef nonnull align 8 dereferenceable(168) %_1) unnamed_addr #1 personality ptr @rust_eh_personality {
start:
  %_2.i.i.i.i.i.i.i.i = alloca [24 x i8], align 8
  %_x.i.i.i.i.i.i = alloca [72 x i8], align 8
  %0 = getelementptr inbounds nuw i8, ptr %_1, i64 48
  tail call void @llvm.experimental.noalias.scope.decl(metadata !55)
  %1 = getelementptr inbounds nuw i8, ptr %_1, i64 111
  %2 = load i8, ptr %1, align 1, !range !58, !alias.scope !55, !noundef !7
  %switch1.i = icmp samesign ugt i8 %2, 1
  br i1 %switch1.i, label %bb8, label %bb2.i

bb2.i:                                            ; preds = %start
  tail call void @llvm.experimental.noalias.scope.decl(metadata !59)
  tail call void @llvm.experimental.noalias.scope.decl(metadata !62)
  tail call void @llvm.experimental.noalias.scope.decl(metadata !65)
  %_10.0.i.i.i.i = load ptr, ptr %0, align 8, !alias.scope !68, !nonnull !7, !noundef !7
  %3 = atomicrmw sub ptr %_10.0.i.i.i.i, i64 1 release, align 8, !noalias !68
  %4 = icmp eq i64 %3, 1
  br i1 %4, label %bb2.i.i.i.i, label %bb6.i.i

bb2.i.i.i.i:                                      ; preds = %bb2.i
  fence acquire
; invoke <alloc::sync::Arc<std::sync::poison::mutex::Mutex<dyn console::term::TermRead>>>::drop_slow
  invoke void @_RNvMsn_NtCsdJPVW0sQgAG_5alloc4syncINtB5_3ArcINtNtNtNtCs5sEH5CPMdak_3std4sync6poison5mutex5MutexDNtNtCsC3JuwEIQwb_7console4term8TermReadEL_EE9drop_slowB1A_(ptr noalias noundef nonnull readonly align 8 dereferenceable(64) %0) #33
          to label %bb6.i.i unwind label %cleanup.i.i

cleanup.i.i:                                      ; preds = %bb2.i.i.i.i
  %5 = landingpad { ptr, i32 }
          cleanup
  %6 = getelementptr inbounds nuw i8, ptr %_1, i64 64
  tail call void @llvm.experimental.noalias.scope.decl(metadata !69)
  tail call void @llvm.experimental.noalias.scope.decl(metadata !72)
  %_10.0.i.i3.i.i = load ptr, ptr %6, align 8, !alias.scope !75, !nonnull !7, !noundef !7
  %7 = atomicrmw sub ptr %_10.0.i.i3.i.i, i64 1 release, align 8, !noalias !75
  %8 = icmp eq i64 %7, 1
  br i1 %8, label %bb2.i.i4.i.i, label %bb3.i.i

bb2.i.i4.i.i:                                     ; preds = %cleanup.i.i
  fence acquire
; invoke <alloc::sync::Arc<std::sync::poison::mutex::Mutex<dyn console::term::TermRead>>>::drop_slow
  invoke void @_RNvMsn_NtCsdJPVW0sQgAG_5alloc4syncINtB5_3ArcINtNtNtNtCs5sEH5CPMdak_3std4sync6poison5mutex5MutexDNtNtCsC3JuwEIQwb_7console4term8TermReadEL_EE9drop_slowB1A_(ptr noalias noundef nonnull readonly align 8 dereferenceable(16) %6) #33
          to label %bb3.i.i unwind label %terminate.i.i

bb6.i.i:                                          ; preds = %bb2.i.i.i.i, %bb2.i
  %9 = getelementptr inbounds nuw i8, ptr %_1, i64 64
  tail call void @llvm.experimental.noalias.scope.decl(metadata !76)
  tail call void @llvm.experimental.noalias.scope.decl(metadata !79)
  %_10.0.i.i6.i.i = load ptr, ptr %9, align 8, !alias.scope !82, !nonnull !7, !noundef !7
  %10 = atomicrmw sub ptr %_10.0.i.i6.i.i, i64 1 release, align 8, !noalias !82
  %11 = icmp eq i64 %10, 1
  br i1 %11, label %bb2.i.i7.i.i, label %bb5.i.i

bb2.i.i7.i.i:                                     ; preds = %bb6.i.i
  fence acquire
; invoke <alloc::sync::Arc<std::sync::poison::mutex::Mutex<dyn console::term::TermRead>>>::drop_slow
  invoke void @_RNvMsn_NtCsdJPVW0sQgAG_5alloc4syncINtB5_3ArcINtNtNtNtCs5sEH5CPMdak_3std4sync6poison5mutex5MutexDNtNtCsC3JuwEIQwb_7console4term8TermReadEL_EE9drop_slowB1A_(ptr noalias noundef nonnull readonly align 8 dereferenceable(16) %9) #33
          to label %bb5.i.i unwind label %cleanup1.i.i

bb3.i.i:                                          ; preds = %cleanup1.i.i, %bb2.i.i4.i.i, %cleanup.i.i
  %.pn.i.i = phi { ptr, i32 } [ %13, %cleanup1.i.i ], [ %5, %bb2.i.i4.i.i ], [ %5, %cleanup.i.i ]
  %12 = getelementptr inbounds nuw i8, ptr %_1, i64 80
; invoke core::ptr::drop_in_place::<console::utils::Style>
  invoke fastcc void @_RINvNtCsjMrxcFdYDNN_4core3ptr13drop_in_placeNtNtCsC3JuwEIQwb_7console5utils5StyleEBK_(ptr noalias noundef readonly align 8 dereferenceable(32) %12) #32
          to label %cleanup.body unwind label %terminate.i.i

cleanup1.i.i:                                     ; preds = %bb2.i.i7.i.i
  %13 = landingpad { ptr, i32 }
          cleanup
  br label %bb3.i.i

bb5.i.i:                                          ; preds = %bb2.i.i7.i.i, %bb6.i.i
  %14 = getelementptr inbounds nuw i8, ptr %_1, i64 80
  tail call void @llvm.experimental.noalias.scope.decl(metadata !83)
  tail call void @llvm.experimental.noalias.scope.decl(metadata !86)
  tail call void @llvm.experimental.noalias.scope.decl(metadata !89)
  tail call void @llvm.experimental.noalias.scope.decl(metadata !92)
  call void @llvm.lifetime.start.p0(i64 72, ptr nonnull %_x.i.i.i.i.i.i), !noalias !95
  %self1.sroa.0.0.copyload.i.i.i.i.i.i = load ptr, ptr %14, align 8, !alias.scope !95
  %.not.i.i.i.i.i.i = icmp eq ptr %self1.sroa.0.0.copyload.i.i.i.i.i.i, null
  br i1 %.not.i.i.i.i.i.i, label %bb3.i.i.i.i.i.i, label %bb1.i.i.i.i.i.i

bb1.i.i.i.i.i.i:                                  ; preds = %bb5.i.i
  %self1.sroa.5.0.self.sroa_idx.i.i.i.i.i.i = getelementptr inbounds nuw i8, ptr %_1, i64 96
  %self1.sroa.5.0.copyload.i.i.i.i.i.i = load i64, ptr %self1.sroa.5.0.self.sroa_idx.i.i.i.i.i.i, align 8, !alias.scope !95
  %self1.sroa.4.0.self.sroa_idx.i.i.i.i.i.i = getelementptr inbounds nuw i8, ptr %_1, i64 88
  %self1.sroa.4.0.copyload.i.i.i.i.i.i = load i64, ptr %self1.sroa.4.0.self.sroa_idx.i.i.i.i.i.i, align 8, !alias.scope !95
  %full_range.sroa.4.0._x.sroa_idx.i.i.i.i.i.i = getelementptr inbounds nuw i8, ptr %_x.i.i.i.i.i.i, i64 8
  store ptr null, ptr %full_range.sroa.4.0._x.sroa_idx.i.i.i.i.i.i, align 8, !noalias !95
  %full_range.sroa.4.sroa.4.0.full_range.sroa.4.0._x.sroa_idx.sroa_idx.i.i.i.i.i.i = getelementptr inbounds nuw i8, ptr %_x.i.i.i.i.i.i, i64 16
  store ptr %self1.sroa.0.0.copyload.i.i.i.i.i.i, ptr %full_range.sroa.4.sroa.4.0.full_range.sroa.4.0._x.sroa_idx.sroa_idx.i.i.i.i.i.i, align 8, !noalias !95
  %full_range.sroa.4.sroa.5.0.full_range.sroa.4.0._x.sroa_idx.sroa_idx.i.i.i.i.i.i = getelementptr inbounds nuw i8, ptr %_x.i.i.i.i.i.i, i64 24
  store i64 %self1.sroa.4.0.copyload.i.i.i.i.i.i, ptr %full_range.sroa.4.sroa.5.0.full_range.sroa.4.0._x.sroa_idx.sroa_idx.i.i.i.i.i.i, align 8, !noalias !95
  %full_range.sroa.6.0._x.sroa_idx.i.i.i.i.i.i = getelementptr inbounds nuw i8, ptr %_x.i.i.i.i.i.i, i64 40
  store ptr null, ptr %full_range.sroa.6.0._x.sroa_idx.i.i.i.i.i.i, align 8, !noalias !95
  %full_range.sroa.6.sroa.4.0.full_range.sroa.6.0._x.sroa_idx.sroa_idx.i.i.i.i.i.i = getelementptr inbounds nuw i8, ptr %_x.i.i.i.i.i.i, i64 48
  store ptr %self1.sroa.0.0.copyload.i.i.i.i.i.i, ptr %full_range.sroa.6.sroa.4.0.full_range.sroa.6.0._x.sroa_idx.sroa_idx.i.i.i.i.i.i, align 8, !noalias !95
  %full_range.sroa.6.sroa.5.0.full_range.sroa.6.0._x.sroa_idx.sroa_idx.i.i.i.i.i.i = getelementptr inbounds nuw i8, ptr %_x.i.i.i.i.i.i, i64 56
  store i64 %self1.sroa.4.0.copyload.i.i.i.i.i.i, ptr %full_range.sroa.6.sroa.5.0.full_range.sroa.6.0._x.sroa_idx.sroa_idx.i.i.i.i.i.i, align 8, !noalias !95
  br label %bb3.i.i.i.i.i.i

bb3.i.i.i.i.i.i:                                  ; preds = %bb1.i.i.i.i.i.i, %bb5.i.i
  %.sink9.i.i.i.i.i.i = phi i64 [ 1, %bb1.i.i.i.i.i.i ], [ 0, %bb5.i.i ]
  %self1.sroa.5.0.copyload.sink.i.i.i.i.i.i = phi i64 [ %self1.sroa.5.0.copyload.i.i.i.i.i.i, %bb1.i.i.i.i.i.i ], [ 0, %bb5.i.i ]
  store i64 %.sink9.i.i.i.i.i.i, ptr %_x.i.i.i.i.i.i, align 8, !noalias !95
  %15 = getelementptr inbounds nuw i8, ptr %_x.i.i.i.i.i.i, i64 32
  store i64 %.sink9.i.i.i.i.i.i, ptr %15, align 8, !noalias !95
  %16 = getelementptr inbounds nuw i8, ptr %_x.i.i.i.i.i.i, i64 64
  store i64 %self1.sroa.5.0.copyload.sink.i.i.i.i.i.i, ptr %16, align 8, !noalias !95
  call void @llvm.lifetime.start.p0(i64 24, ptr nonnull %_2.i.i.i.i.i.i.i.i), !noalias !96
; invoke <alloc::collections::btree::map::IntoIter<console::utils::Attribute, alloc::collections::btree::set_val::SetValZST>>::dying_next
  invoke fastcc void @_RNvMsz_NtNtNtCsdJPVW0sQgAG_5alloc11collections5btree3mapINtB5_8IntoIterNtNtCsC3JuwEIQwb_7console5utils9AttributeNtNtB7_7set_val9SetValZSTE10dying_nextB1b_(ptr noalias noundef align 8 captures(none) dereferenceable(24) %_2.i.i.i.i.i.i.i.i, ptr noalias noundef nonnull align 8 dereferenceable(72) %_x.i.i.i.i.i.i)
          to label %.noexc unwind label %cleanup.loopexit.split-lp

.noexc:                                           ; preds = %bb3.i.i.i.i.i.i
  %17 = load ptr, ptr %_2.i.i.i.i.i.i.i.i, align 8, !noalias !96, !noundef !7
  %.not1.i.i.i.i.i.i.i.i = icmp eq ptr %17, null
  br i1 %.not1.i.i.i.i.i.i.i.i, label %_RINvNtCsjMrxcFdYDNN_4core3ptr13drop_in_placeNtNtCsC3JuwEIQwb_7console4term13ReadWritePairEBK_.exit.i, label %bb4.i.i.i.i.i.i.i.i

bb4.i.i.i.i.i.i.i.i:                              ; preds = %.noexc, %.noexc9
  call void @llvm.lifetime.end.p0(i64 24, ptr nonnull %_2.i.i.i.i.i.i.i.i), !noalias !96
  call void @llvm.lifetime.start.p0(i64 24, ptr nonnull %_2.i.i.i.i.i.i.i.i), !noalias !96
; invoke <alloc::collections::btree::map::IntoIter<console::utils::Attribute, alloc::collections::btree::set_val::SetValZST>>::dying_next
  invoke fastcc void @_RNvMsz_NtNtNtCsdJPVW0sQgAG_5alloc11collections5btree3mapINtB5_8IntoIterNtNtCsC3JuwEIQwb_7console5utils9AttributeNtNtB7_7set_val9SetValZSTE10dying_nextB1b_(ptr noalias noundef align 8 captures(none) dereferenceable(24) %_2.i.i.i.i.i.i.i.i, ptr noalias noundef nonnull align 8 dereferenceable(72) %_x.i.i.i.i.i.i)
          to label %.noexc9 unwind label %cleanup.loopexit

.noexc9:                                          ; preds = %bb4.i.i.i.i.i.i.i.i
  %18 = load ptr, ptr %_2.i.i.i.i.i.i.i.i, align 8, !noalias !96, !noundef !7
  %.not.i.i.i.i.i.i.i.i = icmp eq ptr %18, null
  br i1 %.not.i.i.i.i.i.i.i.i, label %_RINvNtCsjMrxcFdYDNN_4core3ptr13drop_in_placeNtNtCsC3JuwEIQwb_7console4term13ReadWritePairEBK_.exit.i, label %bb4.i.i.i.i.i.i.i.i

terminate.i.i:                                    ; preds = %bb3.i.i, %bb2.i.i4.i.i
  %19 = landingpad { ptr, i32 }
          filter [0 x ptr] zeroinitializer
; call core::panicking::panic_in_cleanup
  tail call void @_RNvNtCsjMrxcFdYDNN_4core9panicking16panic_in_cleanup() #31, !noalias !101
  unreachable

_RINvNtCsjMrxcFdYDNN_4core3ptr13drop_in_placeNtNtCsC3JuwEIQwb_7console4term13ReadWritePairEBK_.exit.i: ; preds = %.noexc9, %.noexc
  call void @llvm.lifetime.end.p0(i64 24, ptr nonnull %_2.i.i.i.i.i.i.i.i), !noalias !96
  call void @llvm.lifetime.end.p0(i64 72, ptr nonnull %_x.i.i.i.i.i.i), !noalias !95
  br label %bb8

cleanup.loopexit:                                 ; preds = %bb4.i.i.i.i.i.i.i.i
  %lpad.loopexit = landingpad { ptr, i32 }
          cleanup
  br label %cleanup.body

cleanup.loopexit.split-lp:                        ; preds = %bb3.i.i.i.i.i.i
  %lpad.loopexit.split-lp = landingpad { ptr, i32 }
          cleanup
  br label %cleanup.body

cleanup.body:                                     ; preds = %cleanup.loopexit, %cleanup.loopexit.split-lp, %bb3.i.i
  %eh.lpad-body = phi { ptr, i32 } [ %.pn.i.i, %bb3.i.i ], [ %lpad.loopexit, %cleanup.loopexit ], [ %lpad.loopexit.split-lp, %cleanup.loopexit.split-lp ]
; invoke core::ptr::drop_in_place::<core::option::Option<std::sync::poison::mutex::Mutex<alloc::vec::Vec<u8>>>>
  invoke fastcc void @_RINvNtCsjMrxcFdYDNN_4core3ptr13drop_in_placeINtNtB4_6option6OptionINtNtNtNtCs5sEH5CPMdak_3std4sync6poison5mutex5MutexINtNtCsdJPVW0sQgAG_5alloc3vec3VechEEEECsC3JuwEIQwb_7console(ptr noalias noundef align 8 dereferenceable(48) %_1) #32
          to label %bb4 unwind label %terminate

bb8:                                              ; preds = %_RINvNtCsjMrxcFdYDNN_4core3ptr13drop_in_placeNtNtCsC3JuwEIQwb_7console4term13ReadWritePairEBK_.exit.i, %start
; invoke core::ptr::drop_in_place::<core::option::Option<std::sync::poison::mutex::Mutex<alloc::vec::Vec<u8>>>>
  invoke fastcc void @_RINvNtCsjMrxcFdYDNN_4core3ptr13drop_in_placeINtNtB4_6option6OptionINtNtNtNtCs5sEH5CPMdak_3std4sync6poison5mutex5MutexINtNtCsdJPVW0sQgAG_5alloc3vec3VechEEEECsC3JuwEIQwb_7console(ptr noalias noundef align 8 dereferenceable(48) %_1)
          to label %bb7 unwind label %cleanup1

bb4:                                              ; preds = %cleanup.body, %cleanup1
  %.pn = phi { ptr, i32 } [ %23, %cleanup1 ], [ %eh.lpad-body, %cleanup.body ]
  %20 = getelementptr inbounds nuw i8, ptr %_1, i64 128
  %.val = load i64, ptr %20, align 8
  %21 = icmp eq i64 %.val, 0
  br i1 %21, label %bb3, label %bb2.i.i.i4.i.i.i.i

bb2.i.i.i4.i.i.i.i:                               ; preds = %bb4
  %22 = getelementptr inbounds nuw i8, ptr %_1, i64 136
  %.val6 = load ptr, ptr %22, align 8, !nonnull !7, !noundef !7
; call __rustc::__rust_dealloc
  tail call void @_RNvCsKhRCbHf33p_7___rustc14___rust_dealloc(ptr noundef nonnull %.val6, i64 noundef %.val, i64 noundef range(i64 1, -9223372036854775807) 1) #29
  br label %bb3

cleanup1:                                         ; preds = %bb8
  %23 = landingpad { ptr, i32 }
          cleanup
  br label %bb4

bb7:                                              ; preds = %bb8
  %24 = getelementptr inbounds nuw i8, ptr %_1, i64 128
  %.val7 = load i64, ptr %24, align 8
  %25 = icmp eq i64 %.val7, 0
  br i1 %25, label %bb6, label %bb2.i.i.i4.i.i.i.i10

bb2.i.i.i4.i.i.i.i10:                             ; preds = %bb7
  %26 = getelementptr inbounds nuw i8, ptr %_1, i64 136
  %.val8 = load ptr, ptr %26, align 8, !nonnull !7, !noundef !7
; call __rustc::__rust_dealloc
  tail call void @_RNvCsKhRCbHf33p_7___rustc14___rust_dealloc(ptr noundef nonnull %.val8, i64 noundef %.val7, i64 noundef range(i64 1, -9223372036854775807) 1) #29
  br label %bb6

bb3:                                              ; preds = %bb2.i.i.i4.i.i.i.i, %bb4
  %27 = getelementptr inbounds nuw i8, ptr %_1, i64 152
; invoke core::ptr::drop_in_place::<std::sync::poison::mutex::Mutex<()>>
  invoke fastcc void @_RINvNtCsjMrxcFdYDNN_4core3ptr13drop_in_placeINtNtNtNtCs5sEH5CPMdak_3std4sync6poison5mutex5MutexuEECsC3JuwEIQwb_7console(ptr noalias noundef align 8 dereferenceable(16) %27) #32
          to label %common.resume unwind label %terminate

bb6:                                              ; preds = %bb2.i.i.i4.i.i.i.i10, %bb7
  %28 = getelementptr inbounds nuw i8, ptr %_1, i64 152
; invoke <std::sys::sync::mutex::pthread::Mutex as core::ops::drop::Drop>::drop
  invoke void @_RNvXs_NtNtNtNtCs5sEH5CPMdak_3std3sys4sync5mutex7pthreadNtB4_5MutexNtNtNtCsjMrxcFdYDNN_4core3ops4drop4Drop4drop(ptr noalias noundef nonnull align 8 dereferenceable(16) %28)
          to label %bb4.i.i unwind label %cleanup.i.i12

cleanup.i.i12:                                    ; preds = %bb6
  %29 = landingpad { ptr, i32 }
          cleanup
; invoke core::ptr::drop_in_place::<std::sys::sync::once_box::OnceBox<std::sys::pal::unix::sync::mutex::Mutex>>
  invoke fastcc void @_RINvNtCsjMrxcFdYDNN_4core3ptr13drop_in_placeINtNtNtNtCs5sEH5CPMdak_3std3sys4sync8once_box7OnceBoxNtNtNtNtNtBN_3pal4unix4sync5mutex5MutexEECsC3JuwEIQwb_7console(ptr noalias noundef nonnull align 8 dereferenceable(16) %28) #32
          to label %common.resume unwind label %terminate.i.i13

bb4.i.i:                                          ; preds = %bb6
  tail call void @llvm.experimental.noalias.scope.decl(metadata !102)
  tail call void @llvm.experimental.noalias.scope.decl(metadata !105)
  %ptr.i.i.i.i = load ptr, ptr %28, align 8, !alias.scope !108, !noundef !7
  store ptr null, ptr %28, align 8, !alias.scope !108
  %30 = icmp eq ptr %ptr.i.i.i.i, null
  br i1 %30, label %_RINvNtCsjMrxcFdYDNN_4core3ptr13drop_in_placeINtNtNtNtCs5sEH5CPMdak_3std4sync6poison5mutex5MutexuEECsC3JuwEIQwb_7console.exit, label %bb2.i.i.i.i.i

bb2.i.i.i.i.i:                                    ; preds = %bb4.i.i
; invoke <std::sys::pal::unix::sync::mutex::Mutex as core::ops::drop::Drop>::drop
  invoke void @_RNvXs2_NtNtNtNtNtCs5sEH5CPMdak_3std3sys3pal4unix4sync5mutexNtB5_5MutexNtNtNtCsjMrxcFdYDNN_4core3ops4drop4Drop4drop(ptr noundef nonnull align 8 %ptr.i.i.i.i)
          to label %_RINvNtCsjMrxcFdYDNN_4core3ptr13drop_in_placeINtNtB4_3pin3PinINtNtCsdJPVW0sQgAG_5alloc5boxed3BoxNtNtNtNtNtNtCs5sEH5CPMdak_3std3sys3pal4unix4sync5mutex5MutexEEECsC3JuwEIQwb_7console.exit.i.i.i.i.i unwind label %bb1.i.i.i.i.i.i.i, !noalias !113

common.resume:                                    ; preds = %bb3, %cleanup.i.i12, %bb1.i.i.i.i.i.i.i
  %common.resume.op = phi { ptr, i32 } [ %31, %bb1.i.i.i.i.i.i.i ], [ %29, %cleanup.i.i12 ], [ %.pn, %bb3 ]
  resume { ptr, i32 } %common.resume.op

bb1.i.i.i.i.i.i.i:                                ; preds = %bb2.i.i.i.i.i
  %31 = landingpad { ptr, i32 }
          cleanup
; call __rustc::__rust_dealloc
  tail call void @_RNvCsKhRCbHf33p_7___rustc14___rust_dealloc(ptr noundef nonnull %ptr.i.i.i.i, i64 noundef 64, i64 noundef 8) #29, !noalias !113
  br label %common.resume

_RINvNtCsjMrxcFdYDNN_4core3ptr13drop_in_placeINtNtB4_3pin3PinINtNtCsdJPVW0sQgAG_5alloc5boxed3BoxNtNtNtNtNtNtCs5sEH5CPMdak_3std3sys3pal4unix4sync5mutex5MutexEEECsC3JuwEIQwb_7console.exit.i.i.i.i.i: ; preds = %bb2.i.i.i.i.i
; call __rustc::__rust_dealloc
  tail call void @_RNvCsKhRCbHf33p_7___rustc14___rust_dealloc(ptr noundef nonnull %ptr.i.i.i.i, i64 noundef 64, i64 noundef 8) #29, !noalias !113
  br label %_RINvNtCsjMrxcFdYDNN_4core3ptr13drop_in_placeINtNtNtNtCs5sEH5CPMdak_3std4sync6poison5mutex5MutexuEECsC3JuwEIQwb_7console.exit

terminate.i.i13:                                  ; preds = %cleanup.i.i12
  %32 = landingpad { ptr, i32 }
          filter [0 x ptr] zeroinitializer
; call core::panicking::panic_in_cleanup
  tail call void @_RNvNtCsjMrxcFdYDNN_4core9panicking16panic_in_cleanup() #31
  unreachable

_RINvNtCsjMrxcFdYDNN_4core3ptr13drop_in_placeINtNtNtNtCs5sEH5CPMdak_3std4sync6poison5mutex5MutexuEECsC3JuwEIQwb_7console.exit: ; preds = %bb4.i.i, %_RINvNtCsjMrxcFdYDNN_4core3ptr13drop_in_placeINtNtB4_3pin3PinINtNtCsdJPVW0sQgAG_5alloc5boxed3BoxNtNtNtNtNtNtCs5sEH5CPMdak_3std3sys3pal4unix4sync5mutex5MutexEEECsC3JuwEIQwb_7console.exit.i.i.i.i.i
  ret void

terminate:                                        ; preds = %bb3, %cleanup.body
  %33 = landingpad { ptr, i32 }
          filter [0 x ptr] zeroinitializer
; call core::panicking::panic_in_cleanup
  tail call void @_RNvNtCsjMrxcFdYDNN_4core9panicking16panic_in_cleanup() #31
  unreachable
}

; core::ptr::drop_in_place::<console::utils::Style>
; Function Attrs: uwtable
define internal fastcc void @_RINvNtCsjMrxcFdYDNN_4core3ptr13drop_in_placeNtNtCsC3JuwEIQwb_7console5utils5StyleEBK_(ptr noalias noundef nonnull readonly align 8 captures(none) dereferenceable(32) %_1) unnamed_addr #1 personality ptr @rust_eh_personality {
start:
  %_2.i.i.i.i.i = alloca [24 x i8], align 8
  %_x.i.i.i = alloca [72 x i8], align 8
  tail call void @llvm.experimental.noalias.scope.decl(metadata !114)
  tail call void @llvm.experimental.noalias.scope.decl(metadata !117)
  tail call void @llvm.experimental.noalias.scope.decl(metadata !120)
  call void @llvm.lifetime.start.p0(i64 72, ptr nonnull %_x.i.i.i), !noalias !123
  %self1.sroa.0.0.copyload.i.i.i = load ptr, ptr %_1, align 8, !alias.scope !123
  %.not.i.i.i = icmp eq ptr %self1.sroa.0.0.copyload.i.i.i, null
  br i1 %.not.i.i.i, label %bb3.i.i.i, label %bb1.i.i.i

bb1.i.i.i:                                        ; preds = %start
  %self1.sroa.5.0.self.sroa_idx.i.i.i = getelementptr inbounds nuw i8, ptr %_1, i64 16
  %self1.sroa.5.0.copyload.i.i.i = load i64, ptr %self1.sroa.5.0.self.sroa_idx.i.i.i, align 8, !alias.scope !123
  %self1.sroa.4.0.self.sroa_idx.i.i.i = getelementptr inbounds nuw i8, ptr %_1, i64 8
  %self1.sroa.4.0.copyload.i.i.i = load i64, ptr %self1.sroa.4.0.self.sroa_idx.i.i.i, align 8, !alias.scope !123
  %full_range.sroa.4.0._x.sroa_idx.i.i.i = getelementptr inbounds nuw i8, ptr %_x.i.i.i, i64 8
  store ptr null, ptr %full_range.sroa.4.0._x.sroa_idx.i.i.i, align 8, !noalias !123
  %full_range.sroa.4.sroa.4.0.full_range.sroa.4.0._x.sroa_idx.sroa_idx.i.i.i = getelementptr inbounds nuw i8, ptr %_x.i.i.i, i64 16
  store ptr %self1.sroa.0.0.copyload.i.i.i, ptr %full_range.sroa.4.sroa.4.0.full_range.sroa.4.0._x.sroa_idx.sroa_idx.i.i.i, align 8, !noalias !123
  %full_range.sroa.4.sroa.5.0.full_range.sroa.4.0._x.sroa_idx.sroa_idx.i.i.i = getelementptr inbounds nuw i8, ptr %_x.i.i.i, i64 24
  store i64 %self1.sroa.4.0.copyload.i.i.i, ptr %full_range.sroa.4.sroa.5.0.full_range.sroa.4.0._x.sroa_idx.sroa_idx.i.i.i, align 8, !noalias !123
  %full_range.sroa.6.0._x.sroa_idx.i.i.i = getelementptr inbounds nuw i8, ptr %_x.i.i.i, i64 40
  store ptr null, ptr %full_range.sroa.6.0._x.sroa_idx.i.i.i, align 8, !noalias !123
  %full_range.sroa.6.sroa.4.0.full_range.sroa.6.0._x.sroa_idx.sroa_idx.i.i.i = getelementptr inbounds nuw i8, ptr %_x.i.i.i, i64 48
  store ptr %self1.sroa.0.0.copyload.i.i.i, ptr %full_range.sroa.6.sroa.4.0.full_range.sroa.6.0._x.sroa_idx.sroa_idx.i.i.i, align 8, !noalias !123
  %full_range.sroa.6.sroa.5.0.full_range.sroa.6.0._x.sroa_idx.sroa_idx.i.i.i = getelementptr inbounds nuw i8, ptr %_x.i.i.i, i64 56
  store i64 %self1.sroa.4.0.copyload.i.i.i, ptr %full_range.sroa.6.sroa.5.0.full_range.sroa.6.0._x.sroa_idx.sroa_idx.i.i.i, align 8, !noalias !123
  br label %bb3.i.i.i

bb3.i.i.i:                                        ; preds = %bb1.i.i.i, %start
  %.sink9.i.i.i = phi i64 [ 1, %bb1.i.i.i ], [ 0, %start ]
  %self1.sroa.5.0.copyload.sink.i.i.i = phi i64 [ %self1.sroa.5.0.copyload.i.i.i, %bb1.i.i.i ], [ 0, %start ]
  store i64 %.sink9.i.i.i, ptr %_x.i.i.i, align 8, !noalias !123
  %0 = getelementptr inbounds nuw i8, ptr %_x.i.i.i, i64 32
  store i64 %.sink9.i.i.i, ptr %0, align 8, !noalias !123
  %1 = getelementptr inbounds nuw i8, ptr %_x.i.i.i, i64 64
  store i64 %self1.sroa.5.0.copyload.sink.i.i.i, ptr %1, align 8, !noalias !123
  call void @llvm.lifetime.start.p0(i64 24, ptr nonnull %_2.i.i.i.i.i), !noalias !124
; call <alloc::collections::btree::map::IntoIter<console::utils::Attribute, alloc::collections::btree::set_val::SetValZST>>::dying_next
  call fastcc void @_RNvMsz_NtNtNtCsdJPVW0sQgAG_5alloc11collections5btree3mapINtB5_8IntoIterNtNtCsC3JuwEIQwb_7console5utils9AttributeNtNtB7_7set_val9SetValZSTE10dying_nextB1b_(ptr noalias noundef align 8 captures(none) dereferenceable(24) %_2.i.i.i.i.i, ptr noalias noundef nonnull align 8 dereferenceable(72) %_x.i.i.i), !noalias !123
  %2 = load ptr, ptr %_2.i.i.i.i.i, align 8, !noalias !124, !noundef !7
  %.not1.i.i.i.i.i = icmp eq ptr %2, null
  br i1 %.not1.i.i.i.i.i, label %_RINvNtCsjMrxcFdYDNN_4core3ptr13drop_in_placeINtNtNtNtCsdJPVW0sQgAG_5alloc11collections5btree3set8BTreeSetNtNtCsC3JuwEIQwb_7console5utils9AttributeEEB1J_.exit, label %bb4.i.i.i.i.i

bb4.i.i.i.i.i:                                    ; preds = %bb3.i.i.i, %bb4.i.i.i.i.i
  call void @llvm.lifetime.end.p0(i64 24, ptr nonnull %_2.i.i.i.i.i), !noalias !124
  call void @llvm.lifetime.start.p0(i64 24, ptr nonnull %_2.i.i.i.i.i), !noalias !124
; call <alloc::collections::btree::map::IntoIter<console::utils::Attribute, alloc::collections::btree::set_val::SetValZST>>::dying_next
  call fastcc void @_RNvMsz_NtNtNtCsdJPVW0sQgAG_5alloc11collections5btree3mapINtB5_8IntoIterNtNtCsC3JuwEIQwb_7console5utils9AttributeNtNtB7_7set_val9SetValZSTE10dying_nextB1b_(ptr noalias noundef align 8 captures(none) dereferenceable(24) %_2.i.i.i.i.i, ptr noalias noundef nonnull align 8 dereferenceable(72) %_x.i.i.i), !noalias !123
  %3 = load ptr, ptr %_2.i.i.i.i.i, align 8, !noalias !124, !noundef !7
  %.not.i.i.i.i.i = icmp eq ptr %3, null
  br i1 %.not.i.i.i.i.i, label %_RINvNtCsjMrxcFdYDNN_4core3ptr13drop_in_placeINtNtNtNtCsdJPVW0sQgAG_5alloc11collections5btree3set8BTreeSetNtNtCsC3JuwEIQwb_7console5utils9AttributeEEB1J_.exit, label %bb4.i.i.i.i.i

_RINvNtCsjMrxcFdYDNN_4core3ptr13drop_in_placeINtNtNtNtCsdJPVW0sQgAG_5alloc11collections5btree3set8BTreeSetNtNtCsC3JuwEIQwb_7console5utils9AttributeEEB1J_.exit: ; preds = %bb4.i.i.i.i.i, %bb3.i.i.i
  call void @llvm.lifetime.end.p0(i64 24, ptr nonnull %_2.i.i.i.i.i), !noalias !124
  call void @llvm.lifetime.end.p0(i64 72, ptr nonnull %_x.i.i.i), !noalias !123
  ret void
}

; <alloc::raw_vec::RawVecInner<_>>::reserve::do_reserve_and_handle::<alloc::alloc::Global>
; Function Attrs: cold uwtable
define internal fastcc void @_RINvNvMs2_NtCsdJPVW0sQgAG_5alloc7raw_vecINtB8_11RawVecInnerpE7reserve21do_reserve_and_handleNtNtBa_5alloc6GlobalECsC3JuwEIQwb_7console(ptr noalias noundef nonnull align 8 captures(none) dereferenceable(16) %slf, i64 noundef %len, i64 noundef %additional, i64 noundef range(i64 1, 5) %elem_layout.0, i64 noundef range(i64 1, 5) %elem_layout.1) unnamed_addr #0 personality ptr @rust_eh_personality {
start:
  %self3.i = alloca [24 x i8], align 8
  tail call void @llvm.experimental.noalias.scope.decl(metadata !129)
  %_25.0.i = add i64 %additional, %len
  %_25.1.i = icmp ult i64 %_25.0.i, %len
  br i1 %_25.1.i, label %bb2, label %bb9.i

bb9.i:                                            ; preds = %start
  %self5.i = load i64, ptr %slf, align 8, !range !23, !alias.scope !129, !noundef !7
  %v16.i = shl nuw i64 %self5.i, 1
  %_0.sroa.0.0.i.i = tail call noundef i64 @llvm.umax.i64(i64 %_25.0.i, i64 range(i64 0, -1) %v16.i)
  %0 = icmp eq i64 %elem_layout.1, 1
  %v1.sroa.0.0.i = select i1 %0, i64 8, i64 4
  %_0.sroa.0.0.i16.i = tail call noundef i64 @llvm.umax.i64(i64 %_0.sroa.0.0.i.i, i64 range(i64 0, -1) %v1.sroa.0.0.i)
  call void @llvm.lifetime.start.p0(i64 24, ptr nonnull %self3.i), !noalias !129
  %1 = getelementptr inbounds nuw i8, ptr %slf, i64 8
  %self.val15.i = load ptr, ptr %1, align 8, !alias.scope !129
; call <alloc::raw_vec::RawVecInner>::finish_grow
  call fastcc void @_RNvMs4_NtCsdJPVW0sQgAG_5alloc7raw_vecNtB5_11RawVecInner11finish_growCsC3JuwEIQwb_7console(ptr noalias noundef align 8 captures(none) dereferenceable(24) %self3.i, i64 %self5.i, ptr %self.val15.i, i64 noundef %_0.sroa.0.0.i16.i, i64 noundef range(i64 1, 5) %elem_layout.0, i64 noundef range(i64 1, 5) %elem_layout.1), !noalias !129
  %_35.i = load i64, ptr %self3.i, align 8, !range !6, !noalias !129, !noundef !7
  %2 = trunc nuw i64 %_35.i to i1
  %3 = getelementptr inbounds nuw i8, ptr %self3.i, i64 8
  br i1 %2, label %bb18.i, label %bb3

bb18.i:                                           ; preds = %bb9.i
  %e.0.i = load i64, ptr %3, align 8, !range !132, !noalias !129, !noundef !7
  %4 = getelementptr inbounds nuw i8, ptr %self3.i, i64 16
  %e.1.i = load i64, ptr %4, align 8, !noalias !129
  call void @llvm.lifetime.end.p0(i64 24, ptr nonnull %self3.i), !noalias !129
  br label %bb2

bb2:                                              ; preds = %bb18.i, %start
  %_0.sroa.5.0.i.ph = phi i64 [ undef, %start ], [ %e.1.i, %bb18.i ]
  %_0.sroa.0.0.i.ph = phi i64 [ 0, %start ], [ %e.0.i, %bb18.i ]
; call alloc::raw_vec::handle_error
  tail call void @_RNvNtCsdJPVW0sQgAG_5alloc7raw_vec12handle_error(i64 noundef %_0.sroa.0.0.i.ph, i64 %_0.sroa.5.0.i.ph) #30
  unreachable

bb3:                                              ; preds = %bb9.i
  %v.0.i = load ptr, ptr %3, align 8, !noalias !129, !nonnull !7, !noundef !7
  call void @llvm.lifetime.end.p0(i64 24, ptr nonnull %self3.i), !noalias !129
  store ptr %v.0.i, ptr %1, align 8, !alias.scope !129
  %5 = icmp sgt i64 %_0.sroa.0.0.i16.i, -1
  tail call void @llvm.assume(i1 %5)
  store i64 %_0.sroa.0.0.i16.i, ptr %slf, align 8, !alias.scope !129
  ret void
}

; console::unix_term::read_secure::{closure#3}
; Function Attrs: inlinehint uwtable
define internal fastcc void @_RNCNvNtCsC3JuwEIQwb_7console9unix_term11read_secures1_0B5_(ptr dead_on_unwind noalias noundef nonnull writable writeonly align 8 captures(none) dereferenceable(24) %_0, ptr dead_on_return noalias noundef nonnull align 8 captures(none) dereferenceable(24) %_1) unnamed_addr #3 personality ptr @rust_eh_personality {
start:
  %0 = getelementptr inbounds nuw i8, ptr %_1, i64 8
  %_12 = load ptr, ptr %0, align 8, !nonnull !7, !noundef !7
  %1 = getelementptr inbounds nuw i8, ptr %_1, i64 16
  %_11 = load i64, ptr %1, align 8, !noundef !7
  %2 = icmp samesign eq i64 %_11, 0
  br i1 %2, label %bb1.i.thread, label %bb17.i.i.i.i.i.preheader.i

bb17.i.i.i.i.i.preheader.i:                       ; preds = %start
  %_7.i.i.i.i = getelementptr inbounds nuw i8, ptr %_12, i64 %_11
  br label %bb17.i.i.i.i.i.i

bb17.i.i.i.i.i.i:                                 ; preds = %bb5.i.i.i, %bb17.i.i.i.i.i.preheader.i
  %_23.i25.i.i.i1213.i.i.i = phi ptr [ %_4.i.i.i.i.i, %bb5.i.i.i ], [ %_7.i.i.i.i, %bb17.i.i.i.i.i.preheader.i ]
  %_23.i.i.i.i.i.i.i = getelementptr inbounds i8, ptr %_23.i25.i.i.i1213.i.i.i, i64 -1
  %w.i.i.i.i.i.i = load i8, ptr %_23.i.i.i.i.i.i.i, align 1, !alias.scope !133, !noalias !136, !noundef !7
  %_6.i.i.i.i.i.i = icmp sgt i8 %w.i.i.i.i.i.i, -1
  br i1 %_6.i.i.i.i.i.i, label %bb3.i.i.i.i.i.i, label %bb4.i.i.i.i.i.i

bb4.i.i.i.i.i.i:                                  ; preds = %bb17.i.i.i.i.i.i
  %3 = icmp ne ptr %_12, %_23.i.i.i.i.i.i.i
  tail call void @llvm.assume(i1 %3)
  %_23.i13.i.i.i.i.i.i = getelementptr inbounds i8, ptr %_23.i25.i.i.i1213.i.i.i, i64 -2
  %z.i.i.i.i.i.i = load i8, ptr %_23.i13.i.i.i.i.i.i, align 1, !alias.scope !133, !noalias !136, !noundef !7
  %_25.i.i.i.i.i.i = and i8 %z.i.i.i.i.i.i, 31
  %4 = zext nneg i8 %_25.i.i.i.i.i.i to i32
  %_12.i.i.i.i.i.i = icmp slt i8 %z.i.i.i.i.i.i, -64
  br i1 %_12.i.i.i.i.i.i, label %bb6.i.i.i.i.i.i, label %bb13.i.i.i.i.i.i

bb3.i.i.i.i.i.i:                                  ; preds = %bb17.i.i.i.i.i.i
  %_8.i.i.i.i.i.i = zext nneg i8 %w.i.i.i.i.i.i to i32
  br label %bb1.i.i.i.i.i.i.preheader.i

bb6.i.i.i.i.i.i:                                  ; preds = %bb4.i.i.i.i.i.i
  %5 = icmp ne ptr %_12, %_23.i13.i.i.i.i.i.i
  tail call void @llvm.assume(i1 %5)
  %_23.i19.i.i.i.i.i.i = getelementptr inbounds i8, ptr %_23.i25.i.i.i1213.i.i.i, i64 -3
  %y.i.i.i.i.i.i = load i8, ptr %_23.i19.i.i.i.i.i.i, align 1, !alias.scope !133, !noalias !136, !noundef !7
  %_29.i.i.i.i.i.i = and i8 %y.i.i.i.i.i.i, 15
  %6 = zext nneg i8 %_29.i.i.i.i.i.i to i32
  %_16.i.i.i.i.i.i = icmp slt i8 %y.i.i.i.i.i.i, -64
  br i1 %_16.i.i.i.i.i.i, label %bb8.i.i.i.i.i.i, label %bb11.i.i.i.i.i.i

bb13.i.i.i.i.i.i:                                 ; preds = %bb11.i.i.i.i.i.i, %bb4.i.i.i.i.i.i
  %_4.i14.i.i.i.i.i = phi ptr [ %_4.i15.i.i.i.i.i, %bb11.i.i.i.i.i.i ], [ %_23.i13.i.i.i.i.i.i, %bb4.i.i.i.i.i.i ]
  %ch.sroa.0.0.i.i.i.i.i.i = phi i32 [ %11, %bb11.i.i.i.i.i.i ], [ %4, %bb4.i.i.i.i.i.i ]
  %_40.i.i.i.i.i.i = shl nuw nsw i32 %ch.sroa.0.0.i.i.i.i.i.i, 6
  %_42.i.i.i.i.i.i = and i8 %w.i.i.i.i.i.i, 63
  %_41.i.i.i.i.i.i = zext nneg i8 %_42.i.i.i.i.i.i to i32
  %7 = or disjoint i32 %_40.i.i.i.i.i.i, %_41.i.i.i.i.i.i
  br label %bb1.i.i.i.i.i.i.preheader.i

bb8.i.i.i.i.i.i:                                  ; preds = %bb6.i.i.i.i.i.i
  %8 = icmp ne ptr %_12, %_23.i19.i.i.i.i.i.i
  tail call void @llvm.assume(i1 %8)
  %_23.i25.i.i.i.i.i.i = getelementptr inbounds i8, ptr %_23.i25.i.i.i1213.i.i.i, i64 -4
  %x.i.i.i.i.i.i = load i8, ptr %_23.i25.i.i.i.i.i.i, align 1, !alias.scope !133, !noalias !136, !noundef !7
  %_33.i.i.i.i.i.i = and i8 %x.i.i.i.i.i.i, 7
  %9 = zext nneg i8 %_33.i.i.i.i.i.i to i32
  %_34.i.i.i.i.i.i = shl nuw nsw i32 %9, 6
  %_36.i.i.i.i.i.i = and i8 %y.i.i.i.i.i.i, 63
  %_35.i.i.i.i.i.i = zext nneg i8 %_36.i.i.i.i.i.i to i32
  %10 = or disjoint i32 %_34.i.i.i.i.i.i, %_35.i.i.i.i.i.i
  br label %bb11.i.i.i.i.i.i

bb11.i.i.i.i.i.i:                                 ; preds = %bb8.i.i.i.i.i.i, %bb6.i.i.i.i.i.i
  %_4.i15.i.i.i.i.i = phi ptr [ %_23.i25.i.i.i.i.i.i, %bb8.i.i.i.i.i.i ], [ %_23.i19.i.i.i.i.i.i, %bb6.i.i.i.i.i.i ]
  %ch.sroa.0.1.i.i.i.i.i.i = phi i32 [ %10, %bb8.i.i.i.i.i.i ], [ %6, %bb6.i.i.i.i.i.i ]
  %_37.i.i.i.i.i.i = shl nuw nsw i32 %ch.sroa.0.1.i.i.i.i.i.i, 6
  %_39.i.i.i.i.i.i = and i8 %z.i.i.i.i.i.i, 63
  %_38.i.i.i.i.i.i = zext nneg i8 %_39.i.i.i.i.i.i to i32
  %11 = or disjoint i32 %_37.i.i.i.i.i.i, %_38.i.i.i.i.i.i
  br label %bb13.i.i.i.i.i.i

bb1.i.i.i.i.i.i.preheader.i:                      ; preds = %bb13.i.i.i.i.i.i, %bb3.i.i.i.i.i.i
  %_4.i.i.i.i.i = phi ptr [ %_23.i.i.i.i.i.i.i, %bb3.i.i.i.i.i.i ], [ %_4.i14.i.i.i.i.i, %bb13.i.i.i.i.i.i ]
  %_0.sroa.4.1.i.ph.i.i.i.i.i = phi i32 [ %_8.i.i.i.i.i.i, %bb3.i.i.i.i.i.i ], [ %7, %bb13.i.i.i.i.i.i ]
  %12 = icmp samesign ult i32 %_0.sroa.4.1.i.ph.i.i.i.i.i, 1114112
  tail call void @llvm.assume(i1 %12)
  switch i32 %_0.sroa.4.1.i.ph.i.i.i.i.i, label %bb1 [
    i32 13, label %bb5.i.i.i
    i32 10, label %bb5.i.i.i
  ]

bb5.i.i.i:                                        ; preds = %bb1.i.i.i.i.i.i.preheader.i, %bb1.i.i.i.i.i.i.preheader.i
  %13 = icmp eq ptr %_12, %_4.i.i.i.i.i
  br i1 %13, label %bb1.i.thread, label %bb17.i.i.i.i.i.i

cleanup:                                          ; preds = %bb3.i2
  %14 = landingpad { ptr, i32 }
          cleanup
  %_1.val = load i64, ptr %_1, align 8
  %15 = icmp eq i64 %_1.val, 0
  br i1 %15, label %bb4, label %bb2.i.i.i4.i.i.i

bb2.i.i.i4.i.i.i:                                 ; preds = %cleanup
; call __rustc::__rust_dealloc
  tail call void @_RNvCsKhRCbHf33p_7___rustc14___rust_dealloc(ptr noundef nonnull %_12, i64 noundef %_1.val, i64 noundef range(i64 1, -9223372036854775807) 1) #29
  br label %bb4

bb1.i.thread:                                     ; preds = %bb5.i.i.i, %start
  %_9.i4 = icmp sgt i64 %_11, -1
  tail call void @llvm.assume(i1 %_9.i4)
  br label %bb14.i

bb1:                                              ; preds = %bb1.i.i.i.i.i.i.preheader.i
  %16 = ptrtoint ptr %_23.i25.i.i.i1213.i.i.i to i64
  %17 = ptrtoint ptr %_12 to i64
  %_15.i.i.i.i = sub i64 %16, %17
  tail call void @llvm.experimental.noalias.scope.decl(metadata !150)
  %_9.i = icmp sgt i64 %_11, -1
  tail call void @llvm.assume(i1 %_9.i)
  %_3.not.i = icmp ugt i64 %_15.i.i.i.i, %_11
  br i1 %_3.not.i, label %bb2, label %bb1.i

bb1.i:                                            ; preds = %bb1
  %18 = icmp ne i64 %_15.i.i.i.i, 0
  %_15.not.i = icmp samesign ult i64 %_15.i.i.i.i, %_11
  %or.cond.i = select i1 %18, i1 %_15.not.i, i1 false
  br i1 %or.cond.i, label %bb11.i, label %bb14.i

bb11.i:                                           ; preds = %bb1.i
  %19 = getelementptr inbounds nuw i8, ptr %_12, i64 %_15.i.i.i.i
  %self1.i = load i8, ptr %19, align 1, !noalias !150, !noundef !7
  %20 = icmp sgt i8 %self1.i, -65
  br i1 %20, label %bb14.i, label %bb3.i2, !prof !30

bb3.i2:                                           ; preds = %bb11.i
; invoke core::panicking::panic
  invoke void @_RNvNtCsjMrxcFdYDNN_4core9panicking5panic(ptr noalias noundef nonnull readonly align 1 captures(address, read_provenance) @alloc_84da818df01979596a9e7a52ed4fd1e4, i64 noundef 48, ptr noalias noundef readonly align 8 captures(address, read_provenance) dereferenceable(24) @alloc_a5020ff128eafee240ced9e9d62411d1) #34
          to label %.noexc unwind label %cleanup

.noexc:                                           ; preds = %bb3.i2
  unreachable

bb14.i:                                           ; preds = %bb1.i.thread, %bb11.i, %bb1.i
  %j.sroa.0.0.i610 = phi i64 [ 0, %bb1.i.thread ], [ %_15.i.i.i.i, %bb11.i ], [ %_15.i.i.i.i, %bb1.i ]
  store i64 %j.sroa.0.0.i610, ptr %1, align 8, !alias.scope !150
  br label %bb2

bb2:                                              ; preds = %bb14.i, %bb1
  tail call void @llvm.memcpy.p0.p0.i64(ptr noundef nonnull align 8 dereferenceable(24) %_0, ptr noundef nonnull align 8 dereferenceable(24) %_1, i64 24, i1 false)
  ret void

bb4:                                              ; preds = %bb2.i.i.i4.i.i.i, %cleanup
  resume { ptr, i32 } %14
}

; <console::term::Term>::with_inner
; Function Attrs: uwtable
define void @_RNvMs1_NtCsC3JuwEIQwb_7console4termNtB5_4Term10with_inner(ptr dead_on_unwind noalias noundef writable writeonly sret([16 x i8]) align 8 captures(none) dereferenceable(16) %_0, ptr dead_on_return noalias noundef readonly align 8 captures(none) dereferenceable(168) %inner) unnamed_addr #1 personality ptr @rust_eh_personality {
start:
  %_7 = alloca [184 x i8], align 16
  %term = alloca [16 x i8], align 8
  call void @llvm.lifetime.start.p0(i64 16, ptr nonnull %term)
  call void @llvm.lifetime.start.p0(i64 184, ptr nonnull %_7)
  store <2 x i64> splat (i64 1), ptr %_7, align 16
  %0 = getelementptr inbounds nuw i8, ptr %_7, i64 16
  call void @llvm.memcpy.p0.p0.i64(ptr noundef nonnull align 16 dereferenceable(168) %0, ptr noundef nonnull align 8 dereferenceable(168) %inner, i64 168, i1 false)
; call __rustc::__rust_no_alloc_shim_is_unstable_v2
  tail call void @_RNvCsKhRCbHf33p_7___rustc35___rust_no_alloc_shim_is_unstable_v2() #29, !noalias !153
; call __rustc::__rust_alloc
  %1 = tail call noundef align 8 dereferenceable_or_null(184) ptr @_RNvCsKhRCbHf33p_7___rustc12___rust_alloc(i64 noundef 184, i64 noundef 8) #29, !noalias !153
  %2 = icmp eq ptr %1, null
  br i1 %2, label %bb2.i, label %_RNvMNtCsdJPVW0sQgAG_5alloc5boxedINtB2_3BoxINtNtB4_4sync8ArcInnerNtNtCsC3JuwEIQwb_7console4term9TermInnerEE3newB14_.exit, !prof !5

bb2.i:                                            ; preds = %start
; invoke alloc::alloc::handle_alloc_error
  invoke void @_RNvNtCsdJPVW0sQgAG_5alloc5alloc18handle_alloc_error(i64 noundef 8, i64 noundef 184) #30
          to label %.noexc unwind label %cleanup.i

.noexc:                                           ; preds = %bb2.i
  unreachable

cleanup.i:                                        ; preds = %bb2.i
  %3 = landingpad { ptr, i32 }
          cleanup
; invoke core::ptr::drop_in_place::<console::term::TermInner>
  invoke fastcc void @_RINvNtCsjMrxcFdYDNN_4core3ptr13drop_in_placeNtNtCsC3JuwEIQwb_7console4term9TermInnerEBK_(ptr noalias noundef align 8 dereferenceable(168) %0)
          to label %common.resume unwind label %terminate.i

terminate.i:                                      ; preds = %cleanup.i
  %4 = landingpad { ptr, i32 }
          filter [0 x ptr] zeroinitializer
; call core::panicking::panic_in_cleanup
  call void @_RNvNtCsjMrxcFdYDNN_4core9panicking16panic_in_cleanup() #31
  unreachable

common.resume:                                    ; preds = %bb2.i.i.i, %cleanup, %cleanup.i
  %common.resume.op = phi { ptr, i32 } [ %3, %cleanup.i ], [ %6, %cleanup ], [ %6, %bb2.i.i.i ]
  resume { ptr, i32 } %common.resume.op

_RNvMNtCsdJPVW0sQgAG_5alloc5boxedINtB2_3BoxINtNtB4_4sync8ArcInnerNtNtCsC3JuwEIQwb_7console4term9TermInnerEE3newB14_.exit: ; preds = %start
  call void @llvm.memcpy.p0.p0.i64(ptr noundef nonnull align 8 dereferenceable(184) %1, ptr noundef nonnull align 16 dereferenceable(184) %_7, i64 184, i1 false)
  call void @llvm.lifetime.end.p0(i64 184, ptr nonnull %_7)
  store ptr %1, ptr %term, align 8
  %5 = getelementptr inbounds nuw i8, ptr %term, i64 8
  store i16 0, ptr %5, align 8
; invoke <console::term::Term as std::os::fd::raw::AsRawFd>::as_raw_fd
  %_15 = invoke noundef i32 @_RNvXs2_NtCsC3JuwEIQwb_7console4termNtB5_4TermNtNtNtNtCs5sEH5CPMdak_3std2os2fd3raw7AsRawFd9as_raw_fd(ptr noalias noundef nonnull readonly align 8 captures(address, read_provenance) dereferenceable(16) %term)
          to label %bb4 unwind label %cleanup

cleanup:                                          ; preds = %_RNvMNtCsdJPVW0sQgAG_5alloc5boxedINtB2_3BoxINtNtB4_4sync8ArcInnerNtNtCsC3JuwEIQwb_7console4term9TermInnerEE3newB14_.exit
  %6 = landingpad { ptr, i32 }
          cleanup
  %7 = atomicrmw sub ptr %1, i64 1 release, align 8, !noalias !156
  %8 = icmp eq i64 %7, 1
  br i1 %8, label %bb2.i.i.i, label %common.resume

bb2.i.i.i:                                        ; preds = %cleanup
  fence acquire
; invoke <alloc::sync::Arc<console::term::TermInner>>::drop_slow
  invoke void @_RNvMsn_NtCsdJPVW0sQgAG_5alloc4syncINtB5_3ArcNtNtCsC3JuwEIQwb_7console4term9TermInnerE9drop_slowBK_(ptr noalias noundef nonnull readonly align 8 dereferenceable(16) %term) #33
          to label %common.resume unwind label %terminate

bb4:                                              ; preds = %_RNvMNtCsdJPVW0sQgAG_5alloc5boxedINtB2_3BoxINtNtB4_4sync8ArcInnerNtNtCsC3JuwEIQwb_7console4term9TermInnerEE3newB14_.exit
  %9 = getelementptr inbounds nuw i8, ptr %term, i64 9
  %_14 = tail call noundef i32 @isatty(i32 noundef %_15) #29
  %_4 = icmp ne i32 %_14, 0
  %10 = zext i1 %_4 to i8
  store i8 %10, ptr %9, align 1
  call void @llvm.memcpy.p0.p0.i64(ptr noundef nonnull align 8 dereferenceable(16) %_0, ptr noundef nonnull align 8 dereferenceable(16) %term, i64 16, i1 false)
  call void @llvm.lifetime.end.p0(i64 16, ptr nonnull %term)
  ret void

terminate:                                        ; preds = %bb2.i.i.i
  %11 = landingpad { ptr, i32 }
          filter [0 x ptr] zeroinitializer
; call core::panicking::panic_in_cleanup
  tail call void @_RNvNtCsjMrxcFdYDNN_4core9panicking16panic_in_cleanup() #31
  unreachable
}

; <console::term::Term>::write_line
; Function Attrs: uwtable
define noundef ptr @_RNvMs1_NtCsC3JuwEIQwb_7console4termNtB5_4Term10write_line(ptr noalias noundef readonly align 8 captures(none) dereferenceable(16) %self, ptr noalias noundef nonnull readonly align 1 captures(address, read_provenance) %0, i64 noundef %1) unnamed_addr #1 personality ptr @rust_eh_personality {
start:
  %e.i6 = alloca [16 x i8], align 8
  %e.i = alloca [16 x i8], align 8
  %args = alloca [32 x i8], align 8
  %_23 = alloca [16 x i8], align 8
  %_19 = alloca [24 x i8], align 8
  %prompt = alloca [16 x i8], align 8
  %s = alloca [16 x i8], align 8
  store ptr %0, ptr %s, align 8
  %2 = getelementptr inbounds nuw i8, ptr %s, i64 8
  store i64 %1, ptr %2, align 8
  call void @llvm.lifetime.start.p0(i64 16, ptr nonnull %prompt)
  %_29 = load ptr, ptr %self, align 8, !nonnull !7, !noundef !7
  %_5 = getelementptr inbounds nuw i8, ptr %_29, i64 128
  %3 = load atomic ptr, ptr %_5 monotonic, align 8
  br label %bb1.i

bb1.i:                                            ; preds = %bb3.i, %start
  %prev.sroa.0.0.i = phi ptr [ %3, %start ], [ %_8.sroa.0.0.i.i, %bb3.i ]
  %self1.i.i.i = ptrtoint ptr %prev.sroa.0.0.i to i64
  %_2.i.i.i = and i64 %self1.i.i.i, 2
  %4 = icmp eq i64 %_2.i.i.i, 0
  %_4.i.i.i = icmp ne ptr %prev.sroa.0.0.i, inttoptr (i64 1 to ptr)
  %or.cond.not3.not4.i.i.i = and i1 %_4.i.i.i, %4
  %_11.1.i.i.i = icmp ule ptr %prev.sroa.0.0.i, inttoptr (i64 -17 to ptr)
  %or.cond2.not.i.i.i = and i1 %_11.1.i.i.i, %or.cond.not3.not4.i.i.i
  br i1 %or.cond2.not.i.i.i, label %bb3.i, label %bb24

bb3.i:                                            ; preds = %bb1.i
  %5 = or i64 %self1.i.i.i, 1
  %addr.i.i.i = add i64 %5, 16
  %_5.i.i.i = inttoptr i64 %addr.i.i.i to ptr
  %6 = cmpxchg weak ptr %_5, ptr %prev.sroa.0.0.i, ptr %_5.i.i.i acquire monotonic, align 8
  %_8.sroa.18.0.in.i.i = extractvalue { ptr, i1 } %6, 1
  %_8.sroa.0.0.i.i = extractvalue { ptr, i1 } %6, 0
  br i1 %_8.sroa.18.0.in.i.i, label %bb22, label %bb1.i

bb24:                                             ; preds = %bb1.i
; call <std::sys::sync::rwlock::queue::RwLock>::lock_contended
  tail call void @_RNvMs1_NtNtNtNtCs5sEH5CPMdak_3std3sys4sync6rwlock5queueNtB5_6RwLock14lock_contended(ptr noundef nonnull align 8 %_5, i1 noundef zeroext false)
  br label %bb22

bb22:                                             ; preds = %bb3.i, %bb24
  %_9.i = getelementptr inbounds nuw i8, ptr %_29, i64 136
  %7 = load atomic i8, ptr %_9.i monotonic, align 1, !noalias !163
  %.not68 = icmp eq i8 %7, 0
  %_8.i1.sink.i.i = getelementptr inbounds nuw i8, ptr %_29, i64 144
  br i1 %.not68, label %_RNvMNtCsjMrxcFdYDNN_4core6resultINtB2_6ResultINtNtNtNtCs5sEH5CPMdak_3std4sync6poison6rwlock15RwLockReadGuardNtNtCsdJPVW0sQgAG_5alloc6string6StringEINtBM_11PoisonErrorBH_EE6unwrapCsC3JuwEIQwb_7console.exit, label %bb2.i10, !prof !30

bb2.i10:                                          ; preds = %bb22
  call void @llvm.lifetime.start.p0(i64 16, ptr nonnull %e.i6), !noalias !166
  store ptr %_8.i1.sink.i.i, ptr %e.i6, align 8, !noalias !166
  %8 = getelementptr inbounds nuw i8, ptr %e.i6, i64 8
  store ptr %_5, ptr %8, align 8, !noalias !166
; invoke core::result::unwrap_failed
  invoke void @_RNvNtCsjMrxcFdYDNN_4core6result13unwrap_failed(ptr noalias noundef nonnull readonly align 1 captures(address, read_provenance) @alloc_00ae4b301f7fab8ac9617c03fcbd7274, i64 noundef 43, ptr noundef nonnull align 1 %e.i6, ptr noalias noundef readonly align 8 captures(address, read_provenance) dereferenceable(32) @vtable.3, ptr noalias noundef readonly align 8 captures(address, read_provenance) dereferenceable(24) @alloc_10ae8e1c7422912565b0a725bff29948) #30
          to label %unreachable.i14 unwind label %cleanup.i11, !noalias !166

cleanup.i11:                                      ; preds = %bb2.i10
  %9 = landingpad { ptr, i32 }
          cleanup
; invoke core::ptr::drop_in_place::<std::sync::poison::PoisonError<std::sync::poison::rwlock::RwLockReadGuard<alloc::string::String>>>
  invoke void @_RINvNtCsjMrxcFdYDNN_4core3ptr13drop_in_placeINtNtNtCs5sEH5CPMdak_3std4sync6poison11PoisonErrorINtNtBJ_6rwlock15RwLockReadGuardNtNtCsdJPVW0sQgAG_5alloc6string6StringEEECsC3JuwEIQwb_7console(ptr noalias noundef nonnull align 8 dereferenceable(16) %e.i6) #32
          to label %common.resume unwind label %terminate.i12, !noalias !166

unreachable.i14:                                  ; preds = %bb2.i10
  unreachable

terminate.i12:                                    ; preds = %cleanup.i11
  %10 = landingpad { ptr, i32 }
          filter [0 x ptr] zeroinitializer
; call core::panicking::panic_in_cleanup
  call void @_RNvNtCsjMrxcFdYDNN_4core9panicking16panic_in_cleanup() #31, !noalias !166
  unreachable

common.resume:                                    ; preds = %bb19, %cleanup.i11
  %common.resume.op = phi { ptr, i32 } [ %9, %cleanup.i11 ], [ %.pn, %bb19 ]
  resume { ptr, i32 } %common.resume.op

_RNvMNtCsjMrxcFdYDNN_4core6resultINtB2_6ResultINtNtNtNtCs5sEH5CPMdak_3std4sync6poison6rwlock15RwLockReadGuardNtNtCsdJPVW0sQgAG_5alloc6string6StringEINtBM_11PoisonErrorBH_EE6unwrapCsC3JuwEIQwb_7console.exit: ; preds = %bb22
  store ptr %_8.i1.sink.i.i, ptr %prompt, align 8
  %11 = getelementptr inbounds nuw i8, ptr %prompt, i64 8
  store ptr %_5, ptr %11, align 8
  %12 = getelementptr inbounds nuw i8, ptr %_29, i64 160
  %_37 = load i64, ptr %12, align 8, !noundef !7
  %_38 = icmp sgt i64 %_37, -1
  tail call void @llvm.assume(i1 %_38)
  %13 = icmp eq i64 %_37, 0
  br i1 %13, label %bb5, label %bb3

bb3:                                              ; preds = %_RNvMNtCsjMrxcFdYDNN_4core6resultINtB2_6ResultINtNtNtNtCs5sEH5CPMdak_3std4sync6poison6rwlock15RwLockReadGuardNtNtCsdJPVW0sQgAG_5alloc6string6StringEINtBM_11PoisonErrorBH_EE6unwrapCsC3JuwEIQwb_7console.exit
; invoke <console::term::Term>::write_str
  %14 = invoke noundef ptr @_RNvMs1_NtCsC3JuwEIQwb_7console4termNtB5_4Term9write_str(ptr noalias noundef nonnull readonly align 8 captures(address, read_provenance) dereferenceable(16) %self, ptr noalias noundef nonnull readonly align 1 captures(address, read_provenance) @alloc_34a907ce632321878f08de7a619b60ed, i64 noundef 5)
          to label %bb26 unwind label %cleanup

bb5:                                              ; preds = %bb26, %_RNvMNtCsjMrxcFdYDNN_4core6resultINtB2_6ResultINtNtNtNtCs5sEH5CPMdak_3std4sync6poison6rwlock15RwLockReadGuardNtNtCsdJPVW0sQgAG_5alloc6string6StringEINtBM_11PoisonErrorBH_EE6unwrapCsC3JuwEIQwb_7console.exit
  %15 = getelementptr inbounds nuw i8, ptr %_29, i64 16
  %_9 = load i64, ptr %15, align 8, !range !6, !noundef !7
  %16 = trunc nuw i64 %_9 to i1
  br i1 %16, label %bb7, label %bb6

bb19:                                             ; preds = %cleanup.i, %bb2.i.i.i4.i.i, %cleanup1, %cleanup, %cleanup2
  %.pn = phi { ptr, i32 } [ %48, %cleanup2 ], [ %17, %cleanup ], [ %34, %cleanup1 ], [ %34, %bb2.i.i.i4.i.i ], [ %45, %cleanup.i ]
; invoke core::ptr::drop_in_place::<std::sync::poison::rwlock::RwLockReadGuard<alloc::string::String>>
  invoke fastcc void @_RINvNtCsjMrxcFdYDNN_4core3ptr13drop_in_placeINtNtNtNtCs5sEH5CPMdak_3std4sync6poison6rwlock15RwLockReadGuardNtNtCsdJPVW0sQgAG_5alloc6string6StringEECsC3JuwEIQwb_7console(ptr noalias noundef align 8 dereferenceable(16) %prompt) #32
          to label %common.resume unwind label %terminate

cleanup:                                          ; preds = %_RNvXsc_NtNtNtCs5sEH5CPMdak_3std4sync6poison5mutexINtB5_10MutexGuardINtNtCsdJPVW0sQgAG_5alloc3vec3VechEENtNtNtCsjMrxcFdYDNN_4core3ops4drop4Drop4dropCsC3JuwEIQwb_7console.exit.i, %bb6.i.i.i, %bb6, %bb6.i.i, %_RINvMNtNtNtCs5sEH5CPMdak_3std3sys4sync8once_boxINtB3_7OnceBoxNtNtNtNtNtB7_3pal4unix4sync5mutex5MutexE11get_or_initNCNvMNtNtB5_5mutex7pthreadNtB1T_5Mutex3get0ECsC3JuwEIQwb_7console.exit.i, %bb7.i.i, %bb3
  %17 = landingpad { ptr, i32 }
          cleanup
  br label %bb19

bb26:                                             ; preds = %bb3
  %.not = icmp eq ptr %14, null
  br i1 %.not, label %bb5, label %bb27

bb27:                                             ; preds = %bb26
  %18 = load atomic ptr, ptr %_5 acquire, align 8, !noalias !169
  br label %bb1.i.i.i

bb1.i.i.i:                                        ; preds = %bb3.i.i.i, %bb27
  %prev.sroa.0.0.i.i.i = phi ptr [ %18, %bb27 ], [ %_8.sroa.0.0.i.i.i.i, %bb3.i.i.i ]
  %_4.i.i.i.i = ptrtoint ptr %prev.sroa.0.0.i.i.i to i64
  %_3.i.i.i.i = and i64 %_4.i.i.i.i, 2
  %19 = icmp eq i64 %_3.i.i.i.i, 0
  br i1 %19, label %_RNCNvMs1_NtNtNtNtCs5sEH5CPMdak_3std3sys4sync6rwlock5queueNtB7_6RwLock11read_unlock0CsC3JuwEIQwb_7console.exit.thread.i.i.i, label %_RNCNvMs1_NtNtNtNtCs5sEH5CPMdak_3std3sys4sync6rwlock5queueNtB7_6RwLock11read_unlock0CsC3JuwEIQwb_7console.exit.i.i.i

_RNCNvMs1_NtNtNtNtCs5sEH5CPMdak_3std3sys4sync6rwlock5queueNtB7_6RwLock11read_unlock0CsC3JuwEIQwb_7console.exit.thread.i.i.i: ; preds = %bb1.i.i.i
  %count.i.i.i.i = add i64 %_4.i.i.i.i, -17
  %_7.not.i.i.i.i = icmp eq i64 %count.i.i.i.i, 0
  %addr.i.i.i.i = or i64 %count.i.i.i.i, 1
  %20 = inttoptr i64 %addr.i.i.i.i to ptr
  %_6.sroa.0.0.i.i.i.i = select i1 %_7.not.i.i.i.i, ptr null, ptr %20
  br label %bb3.i.i.i

_RNCNvMs1_NtNtNtNtCs5sEH5CPMdak_3std3sys4sync6rwlock5queueNtB7_6RwLock11read_unlock0CsC3JuwEIQwb_7console.exit.i.i.i: ; preds = %bb1.i.i.i
  %_9.i.i.i.i = and i64 %_4.i.i.i.i, 8
  %.not.i.i.i.i = icmp eq i64 %_9.i.i.i.i, 0
  %21 = tail call nonnull align 2 ptr @llvm.ptrmask.p0.i64(ptr %prev.sroa.0.0.i.i.i, i64 -10)
  br i1 %.not.i.i.i.i, label %bb3.i.i, label %bb3.i.i.i, !prof !38

bb3.i.i.i:                                        ; preds = %_RNCNvMs1_NtNtNtNtCs5sEH5CPMdak_3std3sys4sync6rwlock5queueNtB7_6RwLock11read_unlock0CsC3JuwEIQwb_7console.exit.i.i.i, %_RNCNvMs1_NtNtNtNtCs5sEH5CPMdak_3std3sys4sync6rwlock5queueNtB7_6RwLock11read_unlock0CsC3JuwEIQwb_7console.exit.thread.i.i.i
  %_0.sroa.4.0.i7.i.i.i = phi ptr [ %_6.sroa.0.0.i.i.i.i, %_RNCNvMs1_NtNtNtNtCs5sEH5CPMdak_3std3sys4sync6rwlock5queueNtB7_6RwLock11read_unlock0CsC3JuwEIQwb_7console.exit.thread.i.i.i ], [ %21, %_RNCNvMs1_NtNtNtNtCs5sEH5CPMdak_3std3sys4sync6rwlock5queueNtB7_6RwLock11read_unlock0CsC3JuwEIQwb_7console.exit.i.i.i ]
  %22 = cmpxchg weak ptr %_5, ptr %prev.sroa.0.0.i.i.i, ptr %_0.sroa.4.0.i7.i.i.i release acquire, align 8, !noalias !169
  %_8.sroa.18.0.in.i.i.i.i = extractvalue { ptr, i1 } %22, 1
  %_8.sroa.0.0.i.i.i.i = extractvalue { ptr, i1 } %22, 0
  br i1 %_8.sroa.18.0.in.i.i.i.i, label %bb16, label %bb1.i.i.i

bb3.i.i:                                          ; preds = %_RNCNvMs1_NtNtNtNtCs5sEH5CPMdak_3std3sys4sync6rwlock5queueNtB7_6RwLock11read_unlock0CsC3JuwEIQwb_7console.exit.i.i.i
; call <std::sys::sync::rwlock::queue::RwLock>::read_unlock_contended
  tail call void @_RNvMs1_NtNtNtNtCs5sEH5CPMdak_3std3sys4sync6rwlock5queueNtB5_6RwLock21read_unlock_contended(ptr noundef nonnull align 8 %_5, ptr noundef %prev.sroa.0.0.i.i.i), !noalias !169
  br label %bb16

bb7:                                              ; preds = %bb5
  %mutex = getelementptr inbounds nuw i8, ptr %_29, i64 24
  %23 = load atomic ptr, ptr %mutex acquire, align 8, !noalias !174
  %24 = icmp eq ptr %23, null
  br i1 %24, label %bb7.i.i, label %_RINvMNtNtNtCs5sEH5CPMdak_3std3sys4sync8once_boxINtB3_7OnceBoxNtNtNtNtNtB7_3pal4unix4sync5mutex5MutexE11get_or_initNCNvMNtNtB5_5mutex7pthreadNtB1T_5Mutex3get0ECsC3JuwEIQwb_7console.exit.i, !prof !5

bb7.i.i:                                          ; preds = %bb7
; invoke <std::sys::sync::once_box::OnceBox<std::sys::pal::unix::sync::mutex::Mutex>>::initialize::<<std::sys::sync::mutex::pthread::Mutex>::get::{closure#0}>
  %25 = invoke fastcc noundef nonnull align 8 ptr @_RINvMNtNtNtCs5sEH5CPMdak_3std3sys4sync8once_boxINtB3_7OnceBoxNtNtNtNtNtB7_3pal4unix4sync5mutex5MutexE10initializeNCNvMNtNtB5_5mutex7pthreadNtB1S_5Mutex3get0ECsC3JuwEIQwb_7console(ptr noundef nonnull align 8 %mutex)
          to label %_RINvMNtNtNtCs5sEH5CPMdak_3std3sys4sync8once_boxINtB3_7OnceBoxNtNtNtNtNtB7_3pal4unix4sync5mutex5MutexE11get_or_initNCNvMNtNtB5_5mutex7pthreadNtB1T_5Mutex3get0ECsC3JuwEIQwb_7console.exit.i unwind label %cleanup

_RINvMNtNtNtCs5sEH5CPMdak_3std3sys4sync8once_boxINtB3_7OnceBoxNtNtNtNtNtB7_3pal4unix4sync5mutex5MutexE11get_or_initNCNvMNtNtB5_5mutex7pthreadNtB1T_5Mutex3get0ECsC3JuwEIQwb_7console.exit.i: ; preds = %bb7.i.i, %bb7
  %_0.sroa.0.0.i.i = phi ptr [ %23, %bb7 ], [ %25, %bb7.i.i ]
; invoke <std::sys::pal::unix::sync::mutex::Mutex>::lock
  invoke void @_RNvMNtNtNtNtNtCs5sEH5CPMdak_3std3sys3pal4unix4sync5mutexNtB2_5Mutex4lock(ptr noundef nonnull align 8 %_0.sroa.0.0.i.i)
          to label %.noexc23 unwind label %cleanup

.noexc23:                                         ; preds = %_RINvMNtNtNtCs5sEH5CPMdak_3std3sys4sync8once_boxINtB3_7OnceBoxNtNtNtNtNtB7_3pal4unix4sync5mutex5MutexE11get_or_initNCNvMNtNtB5_5mutex7pthreadNtB1T_5Mutex3get0ECsC3JuwEIQwb_7console.exit.i
  %26 = load atomic i64, ptr @_RNvNtNtCs5sEH5CPMdak_3std9panicking11panic_count18GLOBAL_PANIC_COUNT monotonic, align 8, !noalias !174
  %_6.i.i = and i64 %26, 9223372036854775807
  %27 = icmp eq i64 %_6.i.i, 0
  br i1 %27, label %bb8, label %bb6.i.i, !prof !30

bb6.i.i:                                          ; preds = %.noexc23
; invoke std::panicking::panic_count::is_zero_slow_path
  %28 = invoke noundef zeroext i1 @_RNvNtNtCs5sEH5CPMdak_3std9panicking11panic_count17is_zero_slow_path() #33
          to label %.noexc24 unwind label %cleanup

.noexc24:                                         ; preds = %bb6.i.i
  %29 = xor i1 %28, true
  br label %bb8

bb6:                                              ; preds = %bb5
  call void @llvm.lifetime.start.p0(i64 24, ptr nonnull %_19)
  call void @llvm.lifetime.start.p0(i64 16, ptr nonnull %_23)
  %30 = getelementptr inbounds nuw i8, ptr %_29, i64 152
  %_100 = load ptr, ptr %30, align 8, !nonnull !7, !noundef !7
  %_99 = load i64, ptr %12, align 8, !noundef !7
  store ptr %_100, ptr %_23, align 8
  %31 = getelementptr inbounds nuw i8, ptr %_23, i64 8
  store i64 %_99, ptr %31, align 8
  call void @llvm.lifetime.start.p0(i64 32, ptr nonnull %args)
  store ptr %s, ptr %args, align 8
  %_25.sroa.4.0..sroa_idx = getelementptr inbounds nuw i8, ptr %args, i64 8
  store ptr @_RNvXs1i_NtCsjMrxcFdYDNN_4core3fmtReNtB6_7Display3fmtCsC3JuwEIQwb_7console, ptr %_25.sroa.4.0..sroa_idx, align 8
  %32 = getelementptr inbounds nuw i8, ptr %args, i64 16
  store ptr %_23, ptr %32, align 8
  %_26.sroa.4.0..sroa_idx = getelementptr inbounds nuw i8, ptr %args, i64 24
  store ptr @_RNvXs1i_NtCsjMrxcFdYDNN_4core3fmtReNtB6_7Display3fmtCsC3JuwEIQwb_7console, ptr %_26.sroa.4.0..sroa_idx, align 8
; invoke alloc::fmt::format::format_inner
  invoke void @_RNvNvNtCsdJPVW0sQgAG_5alloc3fmt6format12format_inner(ptr noalias noundef nonnull sret([24 x i8]) align 8 captures(none) dereferenceable(24) %_19, ptr noundef nonnull @alloc_71ab024f63e05fa8c544dae9bff3eae8, ptr noundef nonnull %args)
          to label %bb34 unwind label %cleanup

bb34:                                             ; preds = %bb6
  call void @llvm.lifetime.end.p0(i64 32, ptr nonnull %args)
  call void @llvm.lifetime.end.p0(i64 16, ptr nonnull %_23)
  %_18.sroa.0.0.copyload = load i64, ptr %_19, align 8
  %_18.sroa.5.0._19.sroa_idx = getelementptr inbounds nuw i8, ptr %_19, i64 8
  %_18.sroa.5.0.copyload = load ptr, ptr %_18.sroa.5.0._19.sroa_idx, align 8, !nonnull !7, !noundef !7
  %_18.sroa.8.0._19.sroa_idx = getelementptr inbounds nuw i8, ptr %_19, i64 16
  %_18.sroa.8.0.copyload = load i64, ptr %_18.sroa.8.0._19.sroa_idx, align 8
  call void @llvm.lifetime.end.p0(i64 24, ptr nonnull %_19)
; invoke <console::term::Term>::write_through
  %33 = invoke fastcc noundef ptr @_RNvMs1_NtCsC3JuwEIQwb_7console4termNtB5_4Term13write_through(ptr nonnull %_29, ptr noalias noundef nonnull readonly align 1 captures(address, read_provenance) %_18.sroa.5.0.copyload, i64 noundef %_18.sroa.8.0.copyload)
          to label %bb11 unwind label %cleanup1

cleanup1:                                         ; preds = %bb34
  %34 = landingpad { ptr, i32 }
          cleanup
  %35 = icmp eq i64 %_18.sroa.0.0.copyload, 0
  br i1 %35, label %bb19, label %bb2.i.i.i4.i.i

bb2.i.i.i4.i.i:                                   ; preds = %cleanup1
; call __rustc::__rust_dealloc
  call void @_RNvCsKhRCbHf33p_7___rustc14___rust_dealloc(ptr noundef nonnull %_18.sroa.5.0.copyload, i64 noundef %_18.sroa.0.0.copyload, i64 noundef range(i64 1, -9223372036854775807) 1) #29
  br label %bb19

bb11:                                             ; preds = %bb34
  %36 = icmp eq i64 %_18.sroa.0.0.copyload, 0
  br i1 %36, label %bb13, label %bb2.i.i.i4.i.i26

bb2.i.i.i4.i.i26:                                 ; preds = %bb11
; call __rustc::__rust_dealloc
  call void @_RNvCsKhRCbHf33p_7___rustc14___rust_dealloc(ptr noundef nonnull %_18.sroa.5.0.copyload, i64 noundef %_18.sroa.0.0.copyload, i64 noundef range(i64 1, -9223372036854775807) 1) #29
  br label %bb13

bb13:                                             ; preds = %_RNvXsc_NtNtNtCs5sEH5CPMdak_3std4sync6poison5mutexINtB5_10MutexGuardINtNtCsdJPVW0sQgAG_5alloc3vec3VechEENtNtNtCsjMrxcFdYDNN_4core3ops4drop4Drop4dropCsC3JuwEIQwb_7console.exit.i, %bb11, %bb2.i.i.i4.i.i26
  %_0.sroa.0.0 = phi ptr [ %33, %bb2.i.i.i4.i.i26 ], [ %33, %bb11 ], [ null, %_RNvXsc_NtNtNtCs5sEH5CPMdak_3std4sync6poison5mutexINtB5_10MutexGuardINtNtCsdJPVW0sQgAG_5alloc3vec3VechEENtNtNtCsjMrxcFdYDNN_4core3ops4drop4Drop4dropCsC3JuwEIQwb_7console.exit.i ]
  %37 = load atomic ptr, ptr %_5 acquire, align 8, !noalias !177
  br label %bb1.i.i.i29

bb1.i.i.i29:                                      ; preds = %bb3.i.i.i36, %bb13
  %prev.sroa.0.0.i.i.i30 = phi ptr [ %37, %bb13 ], [ %_8.sroa.0.0.i.i.i.i39, %bb3.i.i.i36 ]
  %_4.i.i.i.i31 = ptrtoint ptr %prev.sroa.0.0.i.i.i30 to i64
  %_3.i.i.i.i32 = and i64 %_4.i.i.i.i31, 2
  %38 = icmp eq i64 %_3.i.i.i.i32, 0
  br i1 %38, label %_RNCNvMs1_NtNtNtNtCs5sEH5CPMdak_3std3sys4sync6rwlock5queueNtB7_6RwLock11read_unlock0CsC3JuwEIQwb_7console.exit.thread.i.i.i41, label %_RNCNvMs1_NtNtNtNtCs5sEH5CPMdak_3std3sys4sync6rwlock5queueNtB7_6RwLock11read_unlock0CsC3JuwEIQwb_7console.exit.i.i.i33

_RNCNvMs1_NtNtNtNtCs5sEH5CPMdak_3std3sys4sync6rwlock5queueNtB7_6RwLock11read_unlock0CsC3JuwEIQwb_7console.exit.thread.i.i.i41: ; preds = %bb1.i.i.i29
  %count.i.i.i.i42 = add i64 %_4.i.i.i.i31, -17
  %_7.not.i.i.i.i43 = icmp eq i64 %count.i.i.i.i42, 0
  %addr.i.i.i.i44 = or i64 %count.i.i.i.i42, 1
  %39 = inttoptr i64 %addr.i.i.i.i44 to ptr
  %_6.sroa.0.0.i.i.i.i45 = select i1 %_7.not.i.i.i.i43, ptr null, ptr %39
  br label %bb3.i.i.i36

_RNCNvMs1_NtNtNtNtCs5sEH5CPMdak_3std3sys4sync6rwlock5queueNtB7_6RwLock11read_unlock0CsC3JuwEIQwb_7console.exit.i.i.i33: ; preds = %bb1.i.i.i29
  %_9.i.i.i.i34 = and i64 %_4.i.i.i.i31, 8
  %.not.i.i.i.i35 = icmp eq i64 %_9.i.i.i.i34, 0
  %40 = call nonnull align 2 ptr @llvm.ptrmask.p0.i64(ptr %prev.sroa.0.0.i.i.i30, i64 -10)
  br i1 %.not.i.i.i.i35, label %bb3.i.i40, label %bb3.i.i.i36, !prof !38

bb3.i.i.i36:                                      ; preds = %_RNCNvMs1_NtNtNtNtCs5sEH5CPMdak_3std3sys4sync6rwlock5queueNtB7_6RwLock11read_unlock0CsC3JuwEIQwb_7console.exit.i.i.i33, %_RNCNvMs1_NtNtNtNtCs5sEH5CPMdak_3std3sys4sync6rwlock5queueNtB7_6RwLock11read_unlock0CsC3JuwEIQwb_7console.exit.thread.i.i.i41
  %_0.sroa.4.0.i7.i.i.i37 = phi ptr [ %_6.sroa.0.0.i.i.i.i45, %_RNCNvMs1_NtNtNtNtCs5sEH5CPMdak_3std3sys4sync6rwlock5queueNtB7_6RwLock11read_unlock0CsC3JuwEIQwb_7console.exit.thread.i.i.i41 ], [ %40, %_RNCNvMs1_NtNtNtNtCs5sEH5CPMdak_3std3sys4sync6rwlock5queueNtB7_6RwLock11read_unlock0CsC3JuwEIQwb_7console.exit.i.i.i33 ]
  %41 = cmpxchg weak ptr %_5, ptr %prev.sroa.0.0.i.i.i30, ptr %_0.sroa.4.0.i7.i.i.i37 release acquire, align 8, !noalias !177
  %_8.sroa.18.0.in.i.i.i.i38 = extractvalue { ptr, i1 } %41, 1
  %_8.sroa.0.0.i.i.i.i39 = extractvalue { ptr, i1 } %41, 0
  br i1 %_8.sroa.18.0.in.i.i.i.i38, label %bb16, label %bb1.i.i.i29

bb3.i.i40:                                        ; preds = %_RNCNvMs1_NtNtNtNtCs5sEH5CPMdak_3std3sys4sync6rwlock5queueNtB7_6RwLock11read_unlock0CsC3JuwEIQwb_7console.exit.i.i.i33
; call <std::sys::sync::rwlock::queue::RwLock>::read_unlock_contended
  call void @_RNvMs1_NtNtNtNtCs5sEH5CPMdak_3std3sys4sync6rwlock5queueNtB5_6RwLock21read_unlock_contended(ptr noundef nonnull align 8 %_5, ptr noundef %prev.sroa.0.0.i.i.i30), !noalias !177
  br label %bb16

terminate:                                        ; preds = %cleanup2, %bb19
  %42 = landingpad { ptr, i32 }
          filter [0 x ptr] zeroinitializer
; call core::panicking::panic_in_cleanup
  call void @_RNvNtCsjMrxcFdYDNN_4core9panicking16panic_in_cleanup() #31
  unreachable

bb8:                                              ; preds = %.noexc24, %.noexc23
  %_5.sroa.0.0.off0.i.i = phi i1 [ %29, %.noexc24 ], [ false, %.noexc23 ]
  %_7.i = getelementptr inbounds nuw i8, ptr %_29, i64 32
  %43 = load atomic i8, ptr %_7.i monotonic, align 1, !noalias !174
  %.not69 = icmp eq i8 %43, 0
  %_0.sroa.3.0.i.i = zext i1 %_5.sroa.0.0.off0.i.i to i8
  br i1 %.not69, label %bb9, label %bb2.i, !prof !30

bb2.i:                                            ; preds = %bb8
  call void @llvm.lifetime.start.p0(i64 16, ptr nonnull %e.i), !noalias !182
  store ptr %mutex, ptr %e.i, align 8, !noalias !182
  %44 = getelementptr inbounds nuw i8, ptr %e.i, i64 8
  store i8 %_0.sroa.3.0.i.i, ptr %44, align 8, !noalias !182
; invoke core::result::unwrap_failed
  invoke void @_RNvNtCsjMrxcFdYDNN_4core6result13unwrap_failed(ptr noalias noundef nonnull readonly align 1 captures(address, read_provenance) @alloc_00ae4b301f7fab8ac9617c03fcbd7274, i64 noundef 43, ptr noundef nonnull align 1 %e.i, ptr noalias noundef readonly align 8 captures(address, read_provenance) dereferenceable(32) @vtable.1, ptr noalias noundef readonly align 8 captures(address, read_provenance) dereferenceable(24) @alloc_7954641d60551ca0a31844d45868012f) #30
          to label %unreachable.i unwind label %cleanup.i, !noalias !186

cleanup.i:                                        ; preds = %bb2.i
  %45 = landingpad { ptr, i32 }
          cleanup
; invoke core::ptr::drop_in_place::<std::sync::poison::PoisonError<std::sync::poison::mutex::MutexGuard<alloc::vec::Vec<u8>>>>
  invoke void @_RINvNtCsjMrxcFdYDNN_4core3ptr13drop_in_placeINtNtNtCs5sEH5CPMdak_3std4sync6poison11PoisonErrorINtNtBJ_5mutex10MutexGuardINtNtCsdJPVW0sQgAG_5alloc3vec3VechEEEECsC3JuwEIQwb_7console(ptr noalias noundef nonnull align 8 dereferenceable(16) %e.i) #32
          to label %bb19 unwind label %terminate.i, !noalias !186

unreachable.i:                                    ; preds = %bb2.i
  unreachable

terminate.i:                                      ; preds = %cleanup.i
  %46 = landingpad { ptr, i32 }
          filter [0 x ptr] zeroinitializer
; call core::panicking::panic_in_cleanup
  call void @_RNvNtCsjMrxcFdYDNN_4core9panicking16panic_in_cleanup() #31, !noalias !186
  unreachable

bb9:                                              ; preds = %bb8
  %_49 = getelementptr inbounds nuw i8, ptr %_29, i64 40
  %_14.0 = load ptr, ptr %s, align 8, !nonnull !7, !align !187, !noundef !7
  %_14.1 = load i64, ptr %2, align 8, !noundef !7
  %47 = getelementptr inbounds nuw i8, ptr %_29, i64 56
  %len.i = load i64, ptr %47, align 8, !alias.scope !188, !noundef !7
  %self2.i = load i64, ptr %_49, align 8, !range !23, !alias.scope !188, !noundef !7
  %_9.i47 = sub i64 %self2.i, %len.i
  %_7.i48 = icmp ugt i64 %_14.1, %_9.i47
  br i1 %_7.i48, label %bb1.i50, label %bb30, !prof !5

bb1.i50:                                          ; preds = %bb9
; invoke <alloc::raw_vec::RawVecInner<_>>::reserve::do_reserve_and_handle::<alloc::alloc::Global>
  invoke fastcc void @_RINvNvMs2_NtCsdJPVW0sQgAG_5alloc7raw_vecINtB8_11RawVecInnerpE7reserve21do_reserve_and_handleNtNtBa_5alloc6GlobalECsC3JuwEIQwb_7console(ptr noalias noundef nonnull align 8 dereferenceable(24) %_49, i64 noundef %len.i, i64 noundef %_14.1, i64 noundef 1, i64 noundef 1)
          to label %bb1.i50.bb30_crit_edge unwind label %cleanup2

bb1.i50.bb30_crit_edge:                           ; preds = %bb1.i50
  %_61.pre = load i64, ptr %47, align 8
  br label %bb30

cleanup2:                                         ; preds = %bb1.i60, %bb1.i53, %bb1.i50
  %48 = landingpad { ptr, i32 }
          cleanup
; invoke core::ptr::drop_in_place::<std::sync::poison::mutex::MutexGuard<dyn console::term::TermWrite>>
  invoke fastcc void @_RINvNtCsjMrxcFdYDNN_4core3ptr13drop_in_placeINtNtNtNtCs5sEH5CPMdak_3std4sync6poison5mutex10MutexGuardDNtNtCsC3JuwEIQwb_7console4term9TermWriteEL_EEB1G_(ptr nonnull %mutex, i8 %_0.sroa.3.0.i.i) #32
          to label %bb19 unwind label %terminate

bb30:                                             ; preds = %bb1.i50.bb30_crit_edge, %bb9
  %_61 = phi i64 [ %_61.pre, %bb1.i50.bb30_crit_edge ], [ %len.i, %bb9 ]
  %_65 = icmp sgt i64 %_61, -1
  tail call void @llvm.assume(i1 %_65)
  %49 = getelementptr inbounds nuw i8, ptr %_29, i64 48
  %_66 = load ptr, ptr %49, align 8, !nonnull !7, !noundef !7
  %_63 = getelementptr inbounds nuw i8, ptr %_66, i64 %_61
  tail call void @llvm.memcpy.p0.p0.i64(ptr nonnull align 1 %_63, ptr nonnull align 1 %_14.0, i64 %_14.1, i1 false)
  %50 = load i64, ptr %47, align 8, !noundef !7
  %51 = add i64 %50, %_14.1
  store i64 %51, ptr %47, align 8
  %self1.i = load i64, ptr %_49, align 8, !range !23, !alias.scope !191, !noundef !7
  %_4.i = icmp eq i64 %51, %self1.i
  br i1 %_4.i, label %bb1.i53, label %bb31

bb1.i53:                                          ; preds = %bb30
; invoke <alloc::raw_vec::RawVec<u8>>::grow_one
  invoke void @_RNvMs3_NtCsdJPVW0sQgAG_5alloc7raw_vecINtB5_6RawVechE8grow_oneB7_(ptr noalias noundef nonnull align 8 dereferenceable(24) %_49)
          to label %bb31 unwind label %cleanup2

bb31:                                             ; preds = %bb30, %bb1.i53
  %_14.i = load ptr, ptr %49, align 8, !alias.scope !191, !nonnull !7, !noundef !7
  %end.i = getelementptr inbounds nuw i8, ptr %_14.i, i64 %51
  store i8 10, ptr %end.i, align 1
  %52 = add i64 %51, 1
  store i64 %52, ptr %47, align 8, !alias.scope !191
  %53 = getelementptr inbounds nuw i8, ptr %_29, i64 152
  %_79 = load ptr, ptr %53, align 8, !nonnull !7, !noundef !7
  %_78 = load i64, ptr %12, align 8, !noundef !7
  %self2.i56 = load i64, ptr %_49, align 8, !range !23, !alias.scope !194, !noundef !7
  %_9.i57 = sub i64 %self2.i56, %52
  %_7.i58 = icmp ugt i64 %_78, %_9.i57
  br i1 %_7.i58, label %bb1.i60, label %bb33, !prof !5

bb1.i60:                                          ; preds = %bb31
; invoke <alloc::raw_vec::RawVecInner<_>>::reserve::do_reserve_and_handle::<alloc::alloc::Global>
  invoke fastcc void @_RINvNvMs2_NtCsdJPVW0sQgAG_5alloc7raw_vecINtB8_11RawVecInnerpE7reserve21do_reserve_and_handleNtNtBa_5alloc6GlobalECsC3JuwEIQwb_7console(ptr noalias noundef nonnull align 8 dereferenceable(24) %_49, i64 noundef %52, i64 noundef %_78, i64 noundef 1, i64 noundef 1)
          to label %bb1.i60.bb33_crit_edge unwind label %cleanup2

bb1.i60.bb33_crit_edge:                           ; preds = %bb1.i60
  %_90.pre = load i64, ptr %47, align 8
  br label %bb33

bb33:                                             ; preds = %bb1.i60.bb33_crit_edge, %bb31
  %_90 = phi i64 [ %_90.pre, %bb1.i60.bb33_crit_edge ], [ %52, %bb31 ]
  %_94 = icmp sgt i64 %_90, -1
  tail call void @llvm.assume(i1 %_94)
  %_95 = load ptr, ptr %49, align 8, !nonnull !7, !noundef !7
  %_92 = getelementptr inbounds nuw i8, ptr %_95, i64 %_90
  tail call void @llvm.memcpy.p0.p0.i64(ptr nonnull align 1 %_92, ptr nonnull align 1 %_79, i64 %_78, i1 false)
  %54 = load i64, ptr %47, align 8, !noundef !7
  %55 = add i64 %54, %_78
  store i64 %55, ptr %47, align 8
  br i1 %_5.sroa.0.0.off0.i.i, label %_RNvXsc_NtNtNtCs5sEH5CPMdak_3std4sync6poison5mutexINtB5_10MutexGuardINtNtCsdJPVW0sQgAG_5alloc3vec3VechEENtNtNtCsjMrxcFdYDNN_4core3ops4drop4Drop4dropCsC3JuwEIQwb_7console.exit.i, label %bb1.i.i.i63

bb1.i.i.i63:                                      ; preds = %bb33
  %56 = load atomic i64, ptr @_RNvNtNtCs5sEH5CPMdak_3std9panicking11panic_count18GLOBAL_PANIC_COUNT monotonic, align 8
  %_7.i.i.i = and i64 %56, 9223372036854775807
  %57 = icmp eq i64 %_7.i.i.i, 0
  br i1 %57, label %_RNvXsc_NtNtNtCs5sEH5CPMdak_3std4sync6poison5mutexINtB5_10MutexGuardINtNtCsdJPVW0sQgAG_5alloc3vec3VechEENtNtNtCsjMrxcFdYDNN_4core3ops4drop4Drop4dropCsC3JuwEIQwb_7console.exit.i, label %bb6.i.i.i, !prof !30

bb6.i.i.i:                                        ; preds = %bb1.i.i.i63
; invoke std::panicking::panic_count::is_zero_slow_path
  %_6.i.i.i64 = invoke noundef zeroext i1 @_RNvNtNtCs5sEH5CPMdak_3std9panicking11panic_count17is_zero_slow_path() #33
          to label %_6.i.i.i.noexc unwind label %cleanup

_6.i.i.i.noexc:                                   ; preds = %bb6.i.i.i
  br i1 %_6.i.i.i64, label %_RNvXsc_NtNtNtCs5sEH5CPMdak_3std4sync6poison5mutexINtB5_10MutexGuardINtNtCsdJPVW0sQgAG_5alloc3vec3VechEENtNtNtCsjMrxcFdYDNN_4core3ops4drop4Drop4dropCsC3JuwEIQwb_7console.exit.i, label %bb2.i.i.i

bb2.i.i.i:                                        ; preds = %_6.i.i.i.noexc
  store atomic i8 1, ptr %_7.i monotonic, align 1
  br label %_RNvXsc_NtNtNtCs5sEH5CPMdak_3std4sync6poison5mutexINtB5_10MutexGuardINtNtCsdJPVW0sQgAG_5alloc3vec3VechEENtNtNtCsjMrxcFdYDNN_4core3ops4drop4Drop4dropCsC3JuwEIQwb_7console.exit.i

_RNvXsc_NtNtNtCs5sEH5CPMdak_3std4sync6poison5mutexINtB5_10MutexGuardINtNtCsdJPVW0sQgAG_5alloc3vec3VechEENtNtNtCsjMrxcFdYDNN_4core3ops4drop4Drop4dropCsC3JuwEIQwb_7console.exit.i: ; preds = %bb2.i.i.i, %_6.i.i.i.noexc, %bb1.i.i.i63, %bb33
  %58 = load atomic ptr, ptr %mutex monotonic, align 8
; invoke <std::sys::pal::unix::sync::mutex::Mutex>::unlock
  invoke void @_RNvMNtNtNtNtNtCs5sEH5CPMdak_3std3sys3pal4unix4sync5mutexNtB2_5Mutex6unlock(ptr noundef nonnull align 8 %58)
          to label %bb13 unwind label %cleanup

bb16:                                             ; preds = %bb3.i.i.i, %bb3.i.i.i36, %bb3.i.i40, %bb3.i.i
  %_0.sroa.0.1 = phi ptr [ %14, %bb3.i.i ], [ %_0.sroa.0.0, %bb3.i.i40 ], [ %_0.sroa.0.0, %bb3.i.i.i36 ], [ %14, %bb3.i.i.i ]
  call void @llvm.lifetime.end.p0(i64 16, ptr nonnull %prompt)
  ret ptr %_0.sroa.0.1
}

; <console::term::Term>::read_key_raw
; Function Attrs: uwtable
define void @_RNvMs1_NtCsC3JuwEIQwb_7console4termNtB5_4Term12read_key_raw(ptr dead_on_unwind noalias noundef writable writeonly sret([24 x i8]) align 8 captures(none) dereferenceable(24) %_0, ptr noalias noundef readonly align 8 captures(none) dereferenceable(16) %self) unnamed_addr #1 {
start:
  %0 = getelementptr inbounds nuw i8, ptr %self, i64 9
  %1 = load i8, ptr %0, align 1, !range !29, !noundef !7
  %_2 = trunc nuw i8 %1 to i1
  br i1 %_2, label %bb2, label %bb1

bb1:                                              ; preds = %start
  store i64 -9223372036854775808, ptr %_0, align 8
  br label %bb3

bb2:                                              ; preds = %start
; call console::unix_term::read_single_key
  tail call fastcc void @_RNvNtCsC3JuwEIQwb_7console9unix_term15read_single_key(ptr noalias noundef align 8 captures(none) dereferenceable(24) %_0, i1 noundef zeroext true)
  br label %bb3

bb3:                                              ; preds = %bb2, %bb1
  ret void
}

; <console::term::Term>::write_through
; Function Attrs: uwtable
define internal fastcc noundef ptr @_RNvMs1_NtCsC3JuwEIQwb_7console4termNtB5_4Term13write_through(ptr readonly captures(address_is_null) %self.0.val, ptr noalias noundef nonnull readonly align 1 captures(address, read_provenance) %bytes.0, i64 noundef range(i64 0, -9223372036854775808) %bytes.1) unnamed_addr #1 personality ptr @rust_eh_personality {
start:
  %e.i.i = alloca [24 x i8], align 8
  %_22.i = alloca [8 x i8], align 8
  %_17.i = alloca [8 x i8], align 8
  %_12.i = alloca [8 x i8], align 8
  %_7.i = alloca [8 x i8], align 8
  %0 = icmp ne ptr %self.0.val, null
  tail call void @llvm.assume(i1 %0)
  %1 = getelementptr inbounds nuw i8, ptr %self.0.val, i64 127
  %2 = load i8, ptr %1, align 1, !range !58, !noalias !197, !noundef !7
  %3 = add nsw i8 %2, -2
  %.inv.i = icmp samesign ult i8 %2, 2
  %narrow.i = select i1 %.inv.i, i8 2, i8 %3
  switch i8 %narrow.i, label %bb1.i [
    i8 0, label %bb4.i
    i8 1, label %bb3.i
    i8 2, label %bb2.i
  ]

bb1.i:                                            ; preds = %start
  unreachable

bb4.i:                                            ; preds = %start
  call void @llvm.lifetime.start.p0(i64 8, ptr nonnull %_7.i), !noalias !197
; call std::io::stdio::stdout
  %4 = tail call noundef nonnull align 8 ptr @_RNvNtNtCs5sEH5CPMdak_3std2io5stdio6stdout(), !noalias !197
  store ptr %4, ptr %_7.i, align 8, !noalias !197
; call <std::io::stdio::Stdout as std::io::Write>::write_all
  %5 = call noundef ptr @_RNvXsd_NtNtCs5sEH5CPMdak_3std2io5stdioNtB5_6StdoutNtB7_5Write9write_all(ptr noalias noundef nonnull align 8 dereferenceable(8) %_7.i, ptr noalias noundef nonnull readonly align 1 captures(address, read_provenance) %bytes.0, i64 noundef range(i64 0, -9223372036854775808) %bytes.1)
  %.not9.i = icmp eq ptr %5, null
  call void @llvm.lifetime.end.p0(i64 8, ptr nonnull %_7.i), !noalias !197
  br i1 %.not9.i, label %bb23.i, label %_RNvMs1_NtCsC3JuwEIQwb_7console4termNtB5_4Term20write_through_common.exit

bb3.i:                                            ; preds = %start
  call void @llvm.lifetime.start.p0(i64 8, ptr nonnull %_17.i), !noalias !197
  store ptr @_RNvNvNtNtCs5sEH5CPMdak_3std2io5stdio6stderr8INSTANCE, ptr %_17.i, align 8, !noalias !197
; call <std::io::stdio::Stderr as std::io::Write>::write_all
  %6 = call noundef ptr @_RNvXsn_NtNtCs5sEH5CPMdak_3std2io5stdioNtB5_6StderrNtB7_5Write9write_all(ptr noalias noundef nonnull align 8 dereferenceable(8) %_17.i, ptr noalias noundef nonnull readonly align 1 captures(address, read_provenance) %bytes.0, i64 noundef range(i64 0, -9223372036854775808) %bytes.1)
  %.not7.i = icmp eq ptr %6, null
  call void @llvm.lifetime.end.p0(i64 8, ptr nonnull %_17.i), !noalias !197
  br i1 %.not7.i, label %bb27.i, label %_RNvMs1_NtCsC3JuwEIQwb_7console4termNtB5_4Term20write_through_common.exit

bb2.i:                                            ; preds = %start
  %7 = getelementptr inbounds nuw i8, ptr %self.0.val, i64 80
  %_39.0.i = load ptr, ptr %7, align 8, !noalias !197, !nonnull !7, !noundef !7
  %8 = getelementptr inbounds nuw i8, ptr %self.0.val, i64 88
  %_39.1.i = load ptr, ptr %8, align 8, !noalias !197, !nonnull !7, !align !22, !noundef !7
  %9 = getelementptr inbounds nuw i8, ptr %_39.1.i, i64 16
  %10 = load i64, ptr %9, align 8, !range !24, !invariant.load !7, !noalias !197
  %11 = tail call i64 @llvm.umax.i64(i64 %10, i64 8)
  %12 = add i64 %11, -1
  %13 = and i64 %12, -16
  %14 = getelementptr i8, ptr %_39.0.i, i64 %13
  %_27.0.i = getelementptr i8, ptr %14, i64 16
  %15 = load atomic ptr, ptr %_27.0.i acquire, align 8, !noalias !200
  %16 = icmp eq ptr %15, null
  br i1 %16, label %bb7.i.i.i, label %_RINvMNtNtNtCs5sEH5CPMdak_3std3sys4sync8once_boxINtB3_7OnceBoxNtNtNtNtNtB7_3pal4unix4sync5mutex5MutexE11get_or_initNCNvMNtNtB5_5mutex7pthreadNtB1T_5Mutex3get0ECsC3JuwEIQwb_7console.exit.i.i, !prof !5

bb7.i.i.i:                                        ; preds = %bb2.i
; call <std::sys::sync::once_box::OnceBox<std::sys::pal::unix::sync::mutex::Mutex>>::initialize::<<std::sys::sync::mutex::pthread::Mutex>::get::{closure#0}>
  %17 = tail call fastcc noundef nonnull align 8 ptr @_RINvMNtNtNtCs5sEH5CPMdak_3std3sys4sync8once_boxINtB3_7OnceBoxNtNtNtNtNtB7_3pal4unix4sync5mutex5MutexE10initializeNCNvMNtNtB5_5mutex7pthreadNtB1S_5Mutex3get0ECsC3JuwEIQwb_7console(ptr noundef nonnull align 8 %_27.0.i), !noalias !200
  br label %_RINvMNtNtNtCs5sEH5CPMdak_3std3sys4sync8once_boxINtB3_7OnceBoxNtNtNtNtNtB7_3pal4unix4sync5mutex5MutexE11get_or_initNCNvMNtNtB5_5mutex7pthreadNtB1T_5Mutex3get0ECsC3JuwEIQwb_7console.exit.i.i

_RINvMNtNtNtCs5sEH5CPMdak_3std3sys4sync8once_boxINtB3_7OnceBoxNtNtNtNtNtB7_3pal4unix4sync5mutex5MutexE11get_or_initNCNvMNtNtB5_5mutex7pthreadNtB1T_5Mutex3get0ECsC3JuwEIQwb_7console.exit.i.i: ; preds = %bb7.i.i.i, %bb2.i
  %_0.sroa.0.0.i.i.i = phi ptr [ %17, %bb7.i.i.i ], [ %15, %bb2.i ]
; call <std::sys::pal::unix::sync::mutex::Mutex>::lock
  tail call void @_RNvMNtNtNtNtNtCs5sEH5CPMdak_3std3sys3pal4unix4sync5mutexNtB2_5Mutex4lock(ptr noundef nonnull align 8 %_0.sroa.0.0.i.i.i), !noalias !200
  %18 = load atomic i64, ptr @_RNvNtNtCs5sEH5CPMdak_3std9panicking11panic_count18GLOBAL_PANIC_COUNT monotonic, align 8, !noalias !200
  %_6.i.i.i = and i64 %18, 9223372036854775807
  %19 = icmp eq i64 %_6.i.i.i, 0
  br i1 %19, label %_RNvMs5_NtNtNtCs5sEH5CPMdak_3std4sync6poison5mutexINtB5_5MutexDNtNtCsC3JuwEIQwb_7console4term9TermWriteEL_E4lockB12_.exit.i, label %bb6.i.i.i, !prof !30

bb6.i.i.i:                                        ; preds = %_RINvMNtNtNtCs5sEH5CPMdak_3std3sys4sync8once_boxINtB3_7OnceBoxNtNtNtNtNtB7_3pal4unix4sync5mutex5MutexE11get_or_initNCNvMNtNtB5_5mutex7pthreadNtB1T_5Mutex3get0ECsC3JuwEIQwb_7console.exit.i.i
; call std::panicking::panic_count::is_zero_slow_path
  %20 = tail call noundef zeroext i1 @_RNvNtNtCs5sEH5CPMdak_3std9panicking11panic_count17is_zero_slow_path() #33, !noalias !200
  %21 = xor i1 %20, true
  br label %_RNvMs5_NtNtNtCs5sEH5CPMdak_3std4sync6poison5mutexINtB5_5MutexDNtNtCsC3JuwEIQwb_7console4term9TermWriteEL_E4lockB12_.exit.i

_RNvMs5_NtNtNtCs5sEH5CPMdak_3std4sync6poison5mutexINtB5_5MutexDNtNtCsC3JuwEIQwb_7console4term9TermWriteEL_E4lockB12_.exit.i: ; preds = %bb6.i.i.i, %_RINvMNtNtNtCs5sEH5CPMdak_3std3sys4sync8once_boxINtB3_7OnceBoxNtNtNtNtNtB7_3pal4unix4sync5mutex5MutexE11get_or_initNCNvMNtNtB5_5mutex7pthreadNtB1T_5Mutex3get0ECsC3JuwEIQwb_7console.exit.i.i
  %_5.sroa.0.0.off0.i.i.i = phi i1 [ %21, %bb6.i.i.i ], [ false, %_RINvMNtNtNtCs5sEH5CPMdak_3std3sys4sync8once_boxINtB3_7OnceBoxNtNtNtNtNtB7_3pal4unix4sync5mutex5MutexE11get_or_initNCNvMNtNtB5_5mutex7pthreadNtB1T_5Mutex3get0ECsC3JuwEIQwb_7console.exit.i.i ]
  %_7.i.i = getelementptr i8, ptr %14, i64 24
  %22 = load atomic i8, ptr %_7.i.i monotonic, align 1, !noalias !200
  %.not1.i = icmp eq i8 %22, 0
  %_0.sroa.3.0.i.i.i = zext i1 %_5.sroa.0.0.off0.i.i.i to i8
  br i1 %.not1.i, label %_RNvMNtCsjMrxcFdYDNN_4core6resultINtB2_6ResultINtNtNtNtCs5sEH5CPMdak_3std4sync6poison5mutex10MutexGuardDNtNtCsC3JuwEIQwb_7console4term9TermWriteEL_EINtBM_11PoisonErrorBH_EE6unwrapB1H_.exit.i, label %bb2.i.i, !prof !30

bb2.i.i:                                          ; preds = %_RNvMs5_NtNtNtCs5sEH5CPMdak_3std4sync6poison5mutexINtB5_5MutexDNtNtCsC3JuwEIQwb_7console4term9TermWriteEL_E4lockB12_.exit.i
  call void @llvm.lifetime.start.p0(i64 24, ptr nonnull %e.i.i), !noalias !204
  store ptr %_27.0.i, ptr %e.i.i, align 8, !noalias !209
  %_26.sroa.7.8.e.i.sroa_idx.i = getelementptr inbounds nuw i8, ptr %e.i.i, i64 8
  store ptr %_39.1.i, ptr %_26.sroa.7.8.e.i.sroa_idx.i, align 8, !noalias !209
  %_26.sroa.9.8.e.i.sroa_idx.i = getelementptr inbounds nuw i8, ptr %e.i.i, i64 16
  store i8 %_0.sroa.3.0.i.i.i, ptr %_26.sroa.9.8.e.i.sroa_idx.i, align 8, !noalias !209
; invoke core::result::unwrap_failed
  invoke void @_RNvNtCsjMrxcFdYDNN_4core6result13unwrap_failed(ptr noalias noundef nonnull readonly align 1 captures(address, read_provenance) @alloc_00ae4b301f7fab8ac9617c03fcbd7274, i64 noundef 43, ptr noundef nonnull align 1 %e.i.i, ptr noalias noundef readonly align 8 captures(address, read_provenance) dereferenceable(32) @vtable.0, ptr noalias noundef readonly align 8 captures(address, read_provenance) dereferenceable(24) @alloc_be34cf22961c134b4f22f36d9b4f226c) #30
          to label %unreachable.i.i unwind label %cleanup.i.i, !noalias !210

cleanup.i.i:                                      ; preds = %bb2.i.i
  %23 = landingpad { ptr, i32 }
          cleanup
; invoke core::ptr::drop_in_place::<std::sync::poison::PoisonError<std::sync::poison::mutex::MutexGuard<dyn console::term::TermWrite>>>
  invoke void @_RINvNtCsjMrxcFdYDNN_4core3ptr13drop_in_placeINtNtNtCs5sEH5CPMdak_3std4sync6poison11PoisonErrorINtNtBJ_5mutex10MutexGuardDNtNtCsC3JuwEIQwb_7console4term9TermWriteEL_EEEB1Z_(ptr noalias noundef nonnull align 8 dereferenceable(24) %e.i.i) #32
          to label %common.resume.i unwind label %terminate.i.i, !noalias !210

unreachable.i.i:                                  ; preds = %bb2.i.i
  unreachable

terminate.i.i:                                    ; preds = %cleanup.i.i
  %24 = landingpad { ptr, i32 }
          filter [0 x ptr] zeroinitializer
; call core::panicking::panic_in_cleanup
  call void @_RNvNtCsjMrxcFdYDNN_4core9panicking16panic_in_cleanup() #31, !noalias !210
  unreachable

common.resume.i:                                  ; preds = %cleanup.i, %cleanup.i.i
  %common.resume.op.i = phi { ptr, i32 } [ %23, %cleanup.i.i ], [ %34, %cleanup.i ]
  resume { ptr, i32 } %common.resume.op.i

_RNvMNtCsjMrxcFdYDNN_4core6resultINtB2_6ResultINtNtNtNtCs5sEH5CPMdak_3std4sync6poison5mutex10MutexGuardDNtNtCsC3JuwEIQwb_7console4term9TermWriteEL_EINtBM_11PoisonErrorBH_EE6unwrapB1H_.exit.i: ; preds = %_RNvMs5_NtNtNtCs5sEH5CPMdak_3std4sync6poison5mutexINtB5_5MutexDNtNtCsC3JuwEIQwb_7console4term9TermWriteEL_E4lockB12_.exit.i
  %25 = add i64 %10, -1
  %26 = and i64 %25, -9
  %27 = getelementptr i8, ptr %_27.0.i, i64 %26
  %_58.0.i = getelementptr i8, ptr %27, i64 9
  %28 = getelementptr inbounds nuw i8, ptr %_39.1.i, i64 56
  %29 = load ptr, ptr %28, align 8, !invariant.load !7, !noalias !197, !nonnull !7
  %30 = invoke noundef ptr %29(ptr noundef align 1 %_58.0.i, ptr noalias noundef nonnull readonly align 1 captures(address, read_provenance) %bytes.0, i64 noundef range(i64 0, -9223372036854775808) %bytes.1)
          to label %bb13.i unwind label %cleanup.i

bb23.i:                                           ; preds = %bb4.i
  call void @llvm.lifetime.start.p0(i64 8, ptr nonnull %_12.i), !noalias !197
; call std::io::stdio::stdout
  %31 = call noundef nonnull align 8 ptr @_RNvNtNtCs5sEH5CPMdak_3std2io5stdio6stdout()
  store ptr %31, ptr %_12.i, align 8, !noalias !197
; call <std::io::stdio::Stdout as std::io::Write>::flush
  %32 = call noundef ptr @_RNvXsd_NtNtCs5sEH5CPMdak_3std2io5stdioNtB5_6StdoutNtB7_5Write5flush(ptr noalias noundef nonnull align 8 dereferenceable(8) %_12.i)
  call void @llvm.lifetime.end.p0(i64 8, ptr nonnull %_12.i), !noalias !197
  br label %_RNvMs1_NtCsC3JuwEIQwb_7console4termNtB5_4Term20write_through_common.exit

bb27.i:                                           ; preds = %bb3.i
  call void @llvm.lifetime.start.p0(i64 8, ptr nonnull %_22.i), !noalias !197
  store ptr @_RNvNvNtNtCs5sEH5CPMdak_3std2io5stdio6stderr8INSTANCE, ptr %_22.i, align 8, !noalias !197
; call <std::io::stdio::Stderr as std::io::Write>::flush
  %33 = call noundef ptr @_RNvXsn_NtNtCs5sEH5CPMdak_3std2io5stdioNtB5_6StderrNtB7_5Write5flush(ptr noalias noundef nonnull align 8 dereferenceable(8) %_22.i)
  call void @llvm.lifetime.end.p0(i64 8, ptr nonnull %_22.i), !noalias !197
  br label %_RNvMs1_NtCsC3JuwEIQwb_7console4termNtB5_4Term20write_through_common.exit

cleanup.i:                                        ; preds = %bb31.i, %_RNvMNtCsjMrxcFdYDNN_4core6resultINtB2_6ResultINtNtNtNtCs5sEH5CPMdak_3std4sync6poison5mutex10MutexGuardDNtNtCsC3JuwEIQwb_7console4term9TermWriteEL_EINtBM_11PoisonErrorBH_EE6unwrapB1H_.exit.i
  %34 = landingpad { ptr, i32 }
          cleanup
; invoke core::ptr::drop_in_place::<std::sync::poison::mutex::MutexGuard<dyn console::term::TermWrite>>
  invoke fastcc void @_RINvNtCsjMrxcFdYDNN_4core3ptr13drop_in_placeINtNtNtNtCs5sEH5CPMdak_3std4sync6poison5mutex10MutexGuardDNtNtCsC3JuwEIQwb_7console4term9TermWriteEL_EEB1G_(ptr nonnull %_27.0.i, i8 %_0.sroa.3.0.i.i.i) #32
          to label %common.resume.i unwind label %terminate.i

bb13.i:                                           ; preds = %_RNvMNtCsjMrxcFdYDNN_4core6resultINtB2_6ResultINtNtNtNtCs5sEH5CPMdak_3std4sync6poison5mutex10MutexGuardDNtNtCsC3JuwEIQwb_7console4term9TermWriteEL_EINtBM_11PoisonErrorBH_EE6unwrapB1H_.exit.i
  %.not.i = icmp eq ptr %30, null
  br i1 %.not.i, label %bb31.i, label %bb17.i

bb31.i:                                           ; preds = %bb13.i
  %35 = getelementptr inbounds nuw i8, ptr %_39.1.i, i64 48
  %36 = load ptr, ptr %35, align 8, !invariant.load !7, !nonnull !7
  %37 = invoke noundef ptr %36(ptr noundef align 1 %_58.0.i)
          to label %bb14.i unwind label %cleanup.i

bb14.i:                                           ; preds = %bb31.i
  %.not6.i = icmp eq ptr %37, null
  br i1 %.not6.i, label %bb33.i, label %bb17.i

bb33.i:                                           ; preds = %bb14.i
  br i1 %_5.sroa.0.0.off0.i.i.i, label %_RINvNtCsjMrxcFdYDNN_4core3ptr13drop_in_placeINtNtNtNtCs5sEH5CPMdak_3std4sync6poison5mutex10MutexGuardDNtNtCsC3JuwEIQwb_7console4term9TermWriteEL_EEB1G_.exit.i, label %bb1.i.i.i.i

bb1.i.i.i.i:                                      ; preds = %bb33.i
  %38 = load atomic i64, ptr @_RNvNtNtCs5sEH5CPMdak_3std9panicking11panic_count18GLOBAL_PANIC_COUNT monotonic, align 8, !noalias !197
  %_7.i.i.i.i = and i64 %38, 9223372036854775807
  %39 = icmp eq i64 %_7.i.i.i.i, 0
  br i1 %39, label %_RINvNtCsjMrxcFdYDNN_4core3ptr13drop_in_placeINtNtNtNtCs5sEH5CPMdak_3std4sync6poison5mutex10MutexGuardDNtNtCsC3JuwEIQwb_7console4term9TermWriteEL_EEB1G_.exit.i, label %bb6.i.i.i.i, !prof !30

bb6.i.i.i.i:                                      ; preds = %bb1.i.i.i.i
; call std::panicking::panic_count::is_zero_slow_path
  %_6.i.i.i.i = tail call noundef zeroext i1 @_RNvNtNtCs5sEH5CPMdak_3std9panicking11panic_count17is_zero_slow_path() #33
  br i1 %_6.i.i.i.i, label %_RINvNtCsjMrxcFdYDNN_4core3ptr13drop_in_placeINtNtNtNtCs5sEH5CPMdak_3std4sync6poison5mutex10MutexGuardDNtNtCsC3JuwEIQwb_7console4term9TermWriteEL_EEB1G_.exit.i, label %bb2.i.i.i.i

bb2.i.i.i.i:                                      ; preds = %bb6.i.i.i.i
  store atomic i8 1, ptr %_7.i.i monotonic, align 1
  br label %_RINvNtCsjMrxcFdYDNN_4core3ptr13drop_in_placeINtNtNtNtCs5sEH5CPMdak_3std4sync6poison5mutex10MutexGuardDNtNtCsC3JuwEIQwb_7console4term9TermWriteEL_EEB1G_.exit.i

_RINvNtCsjMrxcFdYDNN_4core3ptr13drop_in_placeINtNtNtNtCs5sEH5CPMdak_3std4sync6poison5mutex10MutexGuardDNtNtCsC3JuwEIQwb_7console4term9TermWriteEL_EEB1G_.exit.i: ; preds = %bb2.i.i.i.i, %bb6.i.i.i.i, %bb1.i.i.i.i, %bb33.i
  %40 = load atomic ptr, ptr %_27.0.i monotonic, align 8
; call <std::sys::pal::unix::sync::mutex::Mutex>::unlock
  tail call void @_RNvMNtNtNtNtNtCs5sEH5CPMdak_3std3sys3pal4unix4sync5mutexNtB2_5Mutex6unlock(ptr noundef nonnull align 8 %40)
  br label %_RNvMs1_NtCsC3JuwEIQwb_7console4termNtB5_4Term20write_through_common.exit

bb17.i:                                           ; preds = %bb14.i, %bb13.i
  %_0.sroa.0.1.i = phi ptr [ %30, %bb13.i ], [ %37, %bb14.i ]
  br i1 %_5.sroa.0.0.off0.i.i.i, label %_RINvNtCsjMrxcFdYDNN_4core3ptr13drop_in_placeINtNtNtNtCs5sEH5CPMdak_3std4sync6poison5mutex10MutexGuardDNtNtCsC3JuwEIQwb_7console4term9TermWriteEL_EEB1G_.exit24.i, label %bb1.i.i.i19.i

bb1.i.i.i19.i:                                    ; preds = %bb17.i
  %41 = load atomic i64, ptr @_RNvNtNtCs5sEH5CPMdak_3std9panicking11panic_count18GLOBAL_PANIC_COUNT monotonic, align 8, !noalias !197
  %_7.i.i.i20.i = and i64 %41, 9223372036854775807
  %42 = icmp eq i64 %_7.i.i.i20.i, 0
  br i1 %42, label %_RINvNtCsjMrxcFdYDNN_4core3ptr13drop_in_placeINtNtNtNtCs5sEH5CPMdak_3std4sync6poison5mutex10MutexGuardDNtNtCsC3JuwEIQwb_7console4term9TermWriteEL_EEB1G_.exit24.i, label %bb6.i.i.i21.i, !prof !30

bb6.i.i.i21.i:                                    ; preds = %bb1.i.i.i19.i
; call std::panicking::panic_count::is_zero_slow_path
  %_6.i.i.i22.i = tail call noundef zeroext i1 @_RNvNtNtCs5sEH5CPMdak_3std9panicking11panic_count17is_zero_slow_path() #33
  br i1 %_6.i.i.i22.i, label %_RINvNtCsjMrxcFdYDNN_4core3ptr13drop_in_placeINtNtNtNtCs5sEH5CPMdak_3std4sync6poison5mutex10MutexGuardDNtNtCsC3JuwEIQwb_7console4term9TermWriteEL_EEB1G_.exit24.i, label %bb2.i.i.i23.i

bb2.i.i.i23.i:                                    ; preds = %bb6.i.i.i21.i
  store atomic i8 1, ptr %_7.i.i monotonic, align 1
  br label %_RINvNtCsjMrxcFdYDNN_4core3ptr13drop_in_placeINtNtNtNtCs5sEH5CPMdak_3std4sync6poison5mutex10MutexGuardDNtNtCsC3JuwEIQwb_7console4term9TermWriteEL_EEB1G_.exit24.i

_RINvNtCsjMrxcFdYDNN_4core3ptr13drop_in_placeINtNtNtNtCs5sEH5CPMdak_3std4sync6poison5mutex10MutexGuardDNtNtCsC3JuwEIQwb_7console4term9TermWriteEL_EEB1G_.exit24.i: ; preds = %bb2.i.i.i23.i, %bb6.i.i.i21.i, %bb1.i.i.i19.i, %bb17.i
  %43 = load atomic ptr, ptr %_27.0.i monotonic, align 8
; call <std::sys::pal::unix::sync::mutex::Mutex>::unlock
  tail call void @_RNvMNtNtNtNtNtCs5sEH5CPMdak_3std3sys3pal4unix4sync5mutexNtB2_5Mutex6unlock(ptr noundef nonnull align 8 %43)
  br label %_RNvMs1_NtCsC3JuwEIQwb_7console4termNtB5_4Term20write_through_common.exit

terminate.i:                                      ; preds = %cleanup.i
  %44 = landingpad { ptr, i32 }
          filter [0 x ptr] zeroinitializer
; call core::panicking::panic_in_cleanup
  tail call void @_RNvNtCsjMrxcFdYDNN_4core9panicking16panic_in_cleanup() #31
  unreachable

_RNvMs1_NtCsC3JuwEIQwb_7console4termNtB5_4Term20write_through_common.exit: ; preds = %bb4.i, %bb3.i, %bb23.i, %bb27.i, %_RINvNtCsjMrxcFdYDNN_4core3ptr13drop_in_placeINtNtNtNtCs5sEH5CPMdak_3std4sync6poison5mutex10MutexGuardDNtNtCsC3JuwEIQwb_7console4term9TermWriteEL_EEB1G_.exit.i, %_RINvNtCsjMrxcFdYDNN_4core3ptr13drop_in_placeINtNtNtNtCs5sEH5CPMdak_3std4sync6poison5mutex10MutexGuardDNtNtCsC3JuwEIQwb_7console4term9TermWriteEL_EEB1G_.exit24.i
  %_0.sroa.0.0.i = phi ptr [ %_0.sroa.0.1.i, %_RINvNtCsjMrxcFdYDNN_4core3ptr13drop_in_placeINtNtNtNtCs5sEH5CPMdak_3std4sync6poison5mutex10MutexGuardDNtNtCsC3JuwEIQwb_7console4term9TermWriteEL_EEB1G_.exit24.i ], [ null, %_RINvNtCsjMrxcFdYDNN_4core3ptr13drop_in_placeINtNtNtNtCs5sEH5CPMdak_3std4sync6poison5mutex10MutexGuardDNtNtCsC3JuwEIQwb_7console4term9TermWriteEL_EEB1G_.exit.i ], [ %33, %bb27.i ], [ %32, %bb23.i ], [ %5, %bb4.i ], [ %6, %bb3.i ]
  ret ptr %_0.sroa.0.0.i
}

; <console::term::Term>::buffered_stderr
; Function Attrs: uwtable
define void @_RNvMs1_NtCsC3JuwEIQwb_7console4termNtB5_4Term15buffered_stderr(ptr dead_on_unwind noalias noundef writable writeonly sret([16 x i8]) align 8 captures(none) dereferenceable(16) %_0) unnamed_addr #1 {
start:
  %_1 = alloca [168 x i8], align 16
  call void @llvm.lifetime.start.p0(i64 168, ptr nonnull %_1)
  %_2.sroa.3.0..sroa_idx = getelementptr inbounds nuw i8, ptr %_1, i64 111
  store i8 3, ptr %_2.sroa.3.0..sroa_idx, align 1
  store <2 x i64> <i64 1, i64 0>, ptr %_1, align 16
  %_3.sroa.4.sroa.4.0._3.sroa.4.0._1.sroa_idx.sroa_idx = getelementptr inbounds nuw i8, ptr %_1, i64 16
  store i8 0, ptr %_3.sroa.4.sroa.4.0._3.sroa.4.0._1.sroa_idx.sroa_idx, align 16
  %_3.sroa.4.sroa.5.sroa.4.0._3.sroa.4.sroa.5.0._3.sroa.4.0._1.sroa_idx.sroa_idx.sroa_idx = getelementptr inbounds nuw i8, ptr %_1, i64 24
  store i64 0, ptr %_3.sroa.4.sroa.5.sroa.4.0._3.sroa.4.sroa.5.0._3.sroa.4.0._1.sroa_idx.sroa_idx.sroa_idx, align 8
  %_3.sroa.4.sroa.5.sroa.5.0._3.sroa.4.sroa.5.0._3.sroa.4.0._1.sroa_idx.sroa_idx.sroa_idx = getelementptr inbounds nuw i8, ptr %_1, i64 32
  store ptr inttoptr (i64 1 to ptr), ptr %_3.sroa.4.sroa.5.sroa.5.0._3.sroa.4.sroa.5.0._3.sroa.4.0._1.sroa_idx.sroa_idx.sroa_idx, align 16
  %_3.sroa.4.sroa.5.sroa.6.0._3.sroa.4.sroa.5.0._3.sroa.4.0._1.sroa_idx.sroa_idx.sroa_idx = getelementptr inbounds nuw i8, ptr %_1, i64 40
  store i64 0, ptr %_3.sroa.4.sroa.5.sroa.6.0._3.sroa.4.sroa.5.0._3.sroa.4.0._1.sroa_idx.sroa_idx.sroa_idx, align 8
  %0 = getelementptr inbounds nuw i8, ptr %_1, i64 112
  store i64 0, ptr %0, align 16
  %_6.sroa.4.0..sroa_idx = getelementptr inbounds nuw i8, ptr %_1, i64 120
  store i8 0, ptr %_6.sroa.4.0..sroa_idx, align 8
  %_6.sroa.5.sroa.3.0._6.sroa.5.0..sroa_idx.sroa_idx = getelementptr inbounds nuw i8, ptr %_1, i64 128
  store i64 0, ptr %_6.sroa.5.sroa.3.0._6.sroa.5.0..sroa_idx.sroa_idx, align 16
  %_6.sroa.5.sroa.4.0._6.sroa.5.0..sroa_idx.sroa_idx = getelementptr inbounds nuw i8, ptr %_1, i64 136
  store ptr inttoptr (i64 1 to ptr), ptr %_6.sroa.5.sroa.4.0._6.sroa.5.0..sroa_idx.sroa_idx, align 8
  %_6.sroa.5.sroa.5.0._6.sroa.5.0..sroa_idx.sroa_idx = getelementptr inbounds nuw i8, ptr %_1, i64 144
  call void @llvm.memset.p0.i64(ptr noundef nonnull align 16 dereferenceable(17) %_6.sroa.5.sroa.5.0._6.sroa.5.0..sroa_idx.sroa_idx, i8 0, i64 17, i1 false)
; call <console::term::Term>::with_inner
  call void @_RNvMs1_NtCsC3JuwEIQwb_7console4termNtB5_4Term10with_inner(ptr noalias noundef nonnull sret([16 x i8]) align 8 captures(none) dereferenceable(16) %_0, ptr noalias noundef nonnull readonly align 8 captures(none) dereferenceable(168) %_1)
  call void @llvm.lifetime.end.p0(i64 168, ptr nonnull %_1)
  ret void
}

; <console::term::Term>::buffered_stdout
; Function Attrs: uwtable
define void @_RNvMs1_NtCsC3JuwEIQwb_7console4termNtB5_4Term15buffered_stdout(ptr dead_on_unwind noalias noundef writable writeonly sret([16 x i8]) align 8 captures(none) dereferenceable(16) %_0) unnamed_addr #1 {
start:
  %_1 = alloca [168 x i8], align 16
  call void @llvm.lifetime.start.p0(i64 168, ptr nonnull %_1)
  %_2.sroa.3.0..sroa_idx = getelementptr inbounds nuw i8, ptr %_1, i64 111
  store i8 2, ptr %_2.sroa.3.0..sroa_idx, align 1
  store <2 x i64> <i64 1, i64 0>, ptr %_1, align 16
  %_3.sroa.4.sroa.4.0._3.sroa.4.0._1.sroa_idx.sroa_idx = getelementptr inbounds nuw i8, ptr %_1, i64 16
  store i8 0, ptr %_3.sroa.4.sroa.4.0._3.sroa.4.0._1.sroa_idx.sroa_idx, align 16
  %_3.sroa.4.sroa.5.sroa.4.0._3.sroa.4.sroa.5.0._3.sroa.4.0._1.sroa_idx.sroa_idx.sroa_idx = getelementptr inbounds nuw i8, ptr %_1, i64 24
  store i64 0, ptr %_3.sroa.4.sroa.5.sroa.4.0._3.sroa.4.sroa.5.0._3.sroa.4.0._1.sroa_idx.sroa_idx.sroa_idx, align 8
  %_3.sroa.4.sroa.5.sroa.5.0._3.sroa.4.sroa.5.0._3.sroa.4.0._1.sroa_idx.sroa_idx.sroa_idx = getelementptr inbounds nuw i8, ptr %_1, i64 32
  store ptr inttoptr (i64 1 to ptr), ptr %_3.sroa.4.sroa.5.sroa.5.0._3.sroa.4.sroa.5.0._3.sroa.4.0._1.sroa_idx.sroa_idx.sroa_idx, align 16
  %_3.sroa.4.sroa.5.sroa.6.0._3.sroa.4.sroa.5.0._3.sroa.4.0._1.sroa_idx.sroa_idx.sroa_idx = getelementptr inbounds nuw i8, ptr %_1, i64 40
  store i64 0, ptr %_3.sroa.4.sroa.5.sroa.6.0._3.sroa.4.sroa.5.0._3.sroa.4.0._1.sroa_idx.sroa_idx.sroa_idx, align 8
  %0 = getelementptr inbounds nuw i8, ptr %_1, i64 112
  store i64 0, ptr %0, align 16
  %_6.sroa.4.0..sroa_idx = getelementptr inbounds nuw i8, ptr %_1, i64 120
  store i8 0, ptr %_6.sroa.4.0..sroa_idx, align 8
  %_6.sroa.5.sroa.3.0._6.sroa.5.0..sroa_idx.sroa_idx = getelementptr inbounds nuw i8, ptr %_1, i64 128
  store i64 0, ptr %_6.sroa.5.sroa.3.0._6.sroa.5.0..sroa_idx.sroa_idx, align 16
  %_6.sroa.5.sroa.4.0._6.sroa.5.0..sroa_idx.sroa_idx = getelementptr inbounds nuw i8, ptr %_1, i64 136
  store ptr inttoptr (i64 1 to ptr), ptr %_6.sroa.5.sroa.4.0._6.sroa.5.0..sroa_idx.sroa_idx, align 8
  %_6.sroa.5.sroa.5.0._6.sroa.5.0..sroa_idx.sroa_idx = getelementptr inbounds nuw i8, ptr %_1, i64 144
  call void @llvm.memset.p0.i64(ptr noundef nonnull align 16 dereferenceable(17) %_6.sroa.5.sroa.5.0._6.sroa.5.0..sroa_idx.sroa_idx, i8 0, i64 17, i1 false)
; call <console::term::Term>::with_inner
  call void @_RNvMs1_NtCsC3JuwEIQwb_7console4termNtB5_4Term10with_inner(ptr noalias noundef nonnull sret([16 x i8]) align 8 captures(none) dereferenceable(16) %_0, ptr noalias noundef nonnull readonly align 8 captures(none) dereferenceable(168) %_1)
  call void @llvm.lifetime.end.p0(i64 168, ptr nonnull %_1)
  ret void
}

; <console::term::Term>::clear_last_lines
; Function Attrs: uwtable
define noundef ptr @_RNvMs1_NtCsC3JuwEIQwb_7console4termNtB5_4Term16clear_last_lines(ptr noalias noundef readonly align 8 captures(none) dereferenceable(16) %self, i64 noundef %n) unnamed_addr #1 personality ptr @rust_eh_personality {
start:
  %args.i26 = alloca [16 x i8], align 8
  %_6.i27 = alloca [24 x i8], align 8
  %n.i28 = alloca [8 x i8], align 8
  %args.i8 = alloca [16 x i8], align 8
  %_6.i9 = alloca [24 x i8], align 8
  %n.i10 = alloca [8 x i8], align 8
  %args.i = alloca [16 x i8], align 8
  %_6.i = alloca [24 x i8], align 8
  %n.i = alloca [8 x i8], align 8
  call void @llvm.lifetime.start.p0(i64 8, ptr nonnull %n.i)
  store i64 %n, ptr %n.i, align 8, !noalias !211
  %_3.not.i = icmp eq i64 %n, 0
  br i1 %_3.not.i, label %_RNvNtCsC3JuwEIQwb_7console11common_term14move_cursor_up.exit.thread, label %bb1.i

_RNvNtCsC3JuwEIQwb_7console11common_term14move_cursor_up.exit.thread: ; preds = %start
  call void @llvm.lifetime.end.p0(i64 8, ptr nonnull %n.i)
  br label %bb2.preheader

bb1.i:                                            ; preds = %start
  call void @llvm.lifetime.start.p0(i64 24, ptr nonnull %_6.i), !noalias !211
  call void @llvm.lifetime.start.p0(i64 16, ptr nonnull %args.i), !noalias !211
  store ptr %n.i, ptr %args.i, align 8, !noalias !211
  %_10.sroa.4.0..sroa_idx.i = getelementptr inbounds nuw i8, ptr %args.i, i64 8
  store ptr @_RNvXsi_NtNtNtCsjMrxcFdYDNN_4core3fmt3num3impjNtB9_7Display3fmt, ptr %_10.sroa.4.0..sroa_idx.i, align 8, !noalias !211
; call alloc::fmt::format::format_inner
  call void @_RNvNvNtCsdJPVW0sQgAG_5alloc3fmt6format12format_inner(ptr noalias noundef nonnull sret([24 x i8]) align 8 captures(none) dereferenceable(24) %_6.i, ptr noundef nonnull @alloc_26f3afb675a2033575e507bda4f7709d, ptr noundef nonnull %args.i), !noalias !211
  call void @llvm.lifetime.end.p0(i64 16, ptr nonnull %args.i), !noalias !211
  %_5.sroa.0.0.copyload.i = load i64, ptr %_6.i, align 8, !noalias !211
  %_5.sroa.5.0._6.sroa_idx.i = getelementptr inbounds nuw i8, ptr %_6.i, i64 8
  %_5.sroa.5.0.copyload.i = load ptr, ptr %_5.sroa.5.0._6.sroa_idx.i, align 8, !noalias !211, !nonnull !7, !noundef !7
  %_5.sroa.8.0._6.sroa_idx.i = getelementptr inbounds nuw i8, ptr %_6.i, i64 16
  %_5.sroa.8.0.copyload.i = load i64, ptr %_5.sroa.8.0._6.sroa_idx.i, align 8, !noalias !211
  call void @llvm.lifetime.end.p0(i64 24, ptr nonnull %_6.i), !noalias !211
; invoke <console::term::Term>::write_str
  %0 = invoke noundef ptr @_RNvMs1_NtCsC3JuwEIQwb_7console4termNtB5_4Term9write_str(ptr noalias noundef nonnull readonly align 8 captures(address, read_provenance) dereferenceable(16) %self, ptr noalias noundef nonnull readonly align 1 captures(address, read_provenance) %_5.sroa.5.0.copyload.i, i64 noundef %_5.sroa.8.0.copyload.i)
          to label %bb2.i unwind label %cleanup.i

cleanup.i:                                        ; preds = %bb1.i
  %1 = landingpad { ptr, i32 }
          cleanup
  %2 = icmp eq i64 %_5.sroa.0.0.copyload.i, 0
  br i1 %2, label %common.resume, label %bb2.i.i.i4.i.i.i

bb2.i.i.i4.i.i.i:                                 ; preds = %cleanup.i
; call __rustc::__rust_dealloc
  call void @_RNvCsKhRCbHf33p_7___rustc14___rust_dealloc(ptr noundef nonnull %_5.sroa.5.0.copyload.i, i64 noundef %_5.sroa.0.0.copyload.i, i64 noundef range(i64 1, -9223372036854775807) 1) #29, !noalias !211
  br label %common.resume

bb2.i:                                            ; preds = %bb1.i
  %3 = icmp eq i64 %_5.sroa.0.0.copyload.i, 0
  br i1 %3, label %_RNvNtCsC3JuwEIQwb_7console11common_term14move_cursor_up.exit, label %bb2.i.i.i4.i.i5.i

bb2.i.i.i4.i.i5.i:                                ; preds = %bb2.i
; call __rustc::__rust_dealloc
  call void @_RNvCsKhRCbHf33p_7___rustc14___rust_dealloc(ptr noundef nonnull %_5.sroa.5.0.copyload.i, i64 noundef %_5.sroa.0.0.copyload.i, i64 noundef range(i64 1, -9223372036854775807) 1) #29, !noalias !211
  br label %_RNvNtCsC3JuwEIQwb_7console11common_term14move_cursor_up.exit

common.resume:                                    ; preds = %cleanup.i36, %bb2.i.i.i4.i.i.i37, %cleanup.i19, %bb2.i.i.i4.i.i.i20, %cleanup.i, %bb2.i.i.i4.i.i.i
  %common.resume.op = phi { ptr, i32 } [ %1, %bb2.i.i.i4.i.i.i ], [ %1, %cleanup.i ], [ %5, %bb2.i.i.i4.i.i.i20 ], [ %5, %cleanup.i19 ], [ %10, %bb2.i.i.i4.i.i.i37 ], [ %10, %cleanup.i36 ]
  resume { ptr, i32 } %common.resume.op

_RNvNtCsC3JuwEIQwb_7console11common_term14move_cursor_up.exit: ; preds = %bb2.i, %bb2.i.i.i4.i.i5.i
  call void @llvm.lifetime.end.p0(i64 8, ptr nonnull %n.i)
  %.not = icmp eq ptr %0, null
  br i1 %.not, label %bb2.preheader, label %bb4

bb2.preheader:                                    ; preds = %_RNvNtCsC3JuwEIQwb_7console11common_term14move_cursor_up.exit.thread, %_RNvNtCsC3JuwEIQwb_7console11common_term14move_cursor_up.exit
  %_10.sroa.4.0..sroa_idx.i30 = getelementptr inbounds nuw i8, ptr %args.i26, i64 8
  %_5.sroa.5.0._6.sroa_idx.i32 = getelementptr inbounds nuw i8, ptr %_6.i27, i64 8
  %_5.sroa.8.0._6.sroa_idx.i34 = getelementptr inbounds nuw i8, ptr %_6.i27, i64 16
  br label %bb2

bb2:                                              ; preds = %bb2.preheader, %_RNvNtCsC3JuwEIQwb_7console11common_term16move_cursor_down.exit
  %iter.sroa.0.0 = phi i64 [ %_20, %_RNvNtCsC3JuwEIQwb_7console11common_term16move_cursor_down.exit ], [ 0, %bb2.preheader ]
  %exitcond.not = icmp eq i64 %iter.sroa.0.0, %n
  br i1 %exitcond.not, label %bb9, label %bb8

bb9:                                              ; preds = %bb2
  call void @llvm.lifetime.start.p0(i64 8, ptr nonnull %n.i10)
  store i64 %n, ptr %n.i10, align 8, !noalias !214
  br i1 %_3.not.i, label %_RNvNtCsC3JuwEIQwb_7console11common_term14move_cursor_up.exit25, label %bb1.i12

bb1.i12:                                          ; preds = %bb9
  call void @llvm.lifetime.start.p0(i64 24, ptr nonnull %_6.i9), !noalias !214
  call void @llvm.lifetime.start.p0(i64 16, ptr nonnull %args.i8), !noalias !214
  store ptr %n.i10, ptr %args.i8, align 8, !noalias !214
  %_10.sroa.4.0..sroa_idx.i13 = getelementptr inbounds nuw i8, ptr %args.i8, i64 8
  store ptr @_RNvXsi_NtNtNtCsjMrxcFdYDNN_4core3fmt3num3impjNtB9_7Display3fmt, ptr %_10.sroa.4.0..sroa_idx.i13, align 8, !noalias !214
; call alloc::fmt::format::format_inner
  call void @_RNvNvNtCsdJPVW0sQgAG_5alloc3fmt6format12format_inner(ptr noalias noundef nonnull sret([24 x i8]) align 8 captures(none) dereferenceable(24) %_6.i9, ptr noundef nonnull @alloc_26f3afb675a2033575e507bda4f7709d, ptr noundef nonnull %args.i8), !noalias !214
  call void @llvm.lifetime.end.p0(i64 16, ptr nonnull %args.i8), !noalias !214
  %_5.sroa.0.0.copyload.i14 = load i64, ptr %_6.i9, align 8, !noalias !214
  %_5.sroa.5.0._6.sroa_idx.i15 = getelementptr inbounds nuw i8, ptr %_6.i9, i64 8
  %_5.sroa.5.0.copyload.i16 = load ptr, ptr %_5.sroa.5.0._6.sroa_idx.i15, align 8, !noalias !214, !nonnull !7, !noundef !7
  %_5.sroa.8.0._6.sroa_idx.i17 = getelementptr inbounds nuw i8, ptr %_6.i9, i64 16
  %_5.sroa.8.0.copyload.i18 = load i64, ptr %_5.sroa.8.0._6.sroa_idx.i17, align 8, !noalias !214
  call void @llvm.lifetime.end.p0(i64 24, ptr nonnull %_6.i9), !noalias !214
; invoke <console::term::Term>::write_str
  %4 = invoke noundef ptr @_RNvMs1_NtCsC3JuwEIQwb_7console4termNtB5_4Term9write_str(ptr noalias noundef nonnull readonly align 8 captures(address, read_provenance) dereferenceable(16) %self, ptr noalias noundef nonnull readonly align 1 captures(address, read_provenance) %_5.sroa.5.0.copyload.i16, i64 noundef %_5.sroa.8.0.copyload.i18)
          to label %bb2.i22 unwind label %cleanup.i19

cleanup.i19:                                      ; preds = %bb1.i12
  %5 = landingpad { ptr, i32 }
          cleanup
  %6 = icmp eq i64 %_5.sroa.0.0.copyload.i14, 0
  br i1 %6, label %common.resume, label %bb2.i.i.i4.i.i.i20

bb2.i.i.i4.i.i.i20:                               ; preds = %cleanup.i19
; call __rustc::__rust_dealloc
  call void @_RNvCsKhRCbHf33p_7___rustc14___rust_dealloc(ptr noundef nonnull %_5.sroa.5.0.copyload.i16, i64 noundef %_5.sroa.0.0.copyload.i14, i64 noundef range(i64 1, -9223372036854775807) 1) #29, !noalias !214
  br label %common.resume

bb2.i22:                                          ; preds = %bb1.i12
  %7 = icmp eq i64 %_5.sroa.0.0.copyload.i14, 0
  br i1 %7, label %_RNvNtCsC3JuwEIQwb_7console11common_term14move_cursor_up.exit25, label %bb2.i.i.i4.i.i5.i23

bb2.i.i.i4.i.i5.i23:                              ; preds = %bb2.i22
; call __rustc::__rust_dealloc
  call void @_RNvCsKhRCbHf33p_7___rustc14___rust_dealloc(ptr noundef nonnull %_5.sroa.5.0.copyload.i16, i64 noundef %_5.sroa.0.0.copyload.i14, i64 noundef range(i64 1, -9223372036854775807) 1) #29, !noalias !214
  br label %_RNvNtCsC3JuwEIQwb_7console11common_term14move_cursor_up.exit25

_RNvNtCsC3JuwEIQwb_7console11common_term14move_cursor_up.exit25: ; preds = %bb9, %bb2.i22, %bb2.i.i.i4.i.i5.i23
  %_0.sroa.0.0.i24 = phi ptr [ null, %bb9 ], [ %4, %bb2.i22 ], [ %4, %bb2.i.i.i4.i.i5.i23 ]
  call void @llvm.lifetime.end.p0(i64 8, ptr nonnull %n.i10)
  br label %bb4

bb8:                                              ; preds = %bb2
  %_20 = add i64 %iter.sroa.0.0, 1
; call <console::term::Term>::write_str
  %8 = call noundef ptr @_RNvMs1_NtCsC3JuwEIQwb_7console4termNtB5_4Term9write_str(ptr noalias noundef nonnull readonly align 8 captures(address, read_provenance) dereferenceable(16) %self, ptr noalias noundef nonnull readonly align 1 captures(address, read_provenance) @alloc_34a907ce632321878f08de7a619b60ed, i64 noundef 5)
  %.not6 = icmp eq ptr %8, null
  br i1 %.not6, label %bb13, label %bb4

bb4:                                              ; preds = %_RNvNtCsC3JuwEIQwb_7console11common_term16move_cursor_down.exit, %bb8, %_RNvNtCsC3JuwEIQwb_7console11common_term14move_cursor_up.exit25, %_RNvNtCsC3JuwEIQwb_7console11common_term14move_cursor_up.exit
  %_0.sroa.0.0 = phi ptr [ %0, %_RNvNtCsC3JuwEIQwb_7console11common_term14move_cursor_up.exit ], [ %_0.sroa.0.0.i24, %_RNvNtCsC3JuwEIQwb_7console11common_term14move_cursor_up.exit25 ], [ %9, %_RNvNtCsC3JuwEIQwb_7console11common_term16move_cursor_down.exit ], [ %8, %bb8 ]
  ret ptr %_0.sroa.0.0

bb13:                                             ; preds = %bb8
  call void @llvm.lifetime.start.p0(i64 8, ptr nonnull %n.i28)
  store i64 1, ptr %n.i28, align 8, !noalias !217
  call void @llvm.lifetime.start.p0(i64 24, ptr nonnull %_6.i27), !noalias !217
  call void @llvm.lifetime.start.p0(i64 16, ptr nonnull %args.i26), !noalias !217
  store ptr %n.i28, ptr %args.i26, align 8, !noalias !217
  store ptr @_RNvXsi_NtNtNtCsjMrxcFdYDNN_4core3fmt3num3impjNtB9_7Display3fmt, ptr %_10.sroa.4.0..sroa_idx.i30, align 8, !noalias !217
; call alloc::fmt::format::format_inner
  call void @_RNvNvNtCsdJPVW0sQgAG_5alloc3fmt6format12format_inner(ptr noalias noundef nonnull sret([24 x i8]) align 8 captures(none) dereferenceable(24) %_6.i27, ptr noundef nonnull @alloc_8041b981a0c9f2271efbceca9d03160b, ptr noundef nonnull %args.i26), !noalias !217
  call void @llvm.lifetime.end.p0(i64 16, ptr nonnull %args.i26), !noalias !217
  %_5.sroa.0.0.copyload.i31 = load i64, ptr %_6.i27, align 8, !noalias !217
  %_5.sroa.5.0.copyload.i33 = load ptr, ptr %_5.sroa.5.0._6.sroa_idx.i32, align 8, !noalias !217, !nonnull !7, !noundef !7
  %_5.sroa.8.0.copyload.i35 = load i64, ptr %_5.sroa.8.0._6.sroa_idx.i34, align 8, !noalias !217
  call void @llvm.lifetime.end.p0(i64 24, ptr nonnull %_6.i27), !noalias !217
; invoke <console::term::Term>::write_str
  %9 = invoke noundef ptr @_RNvMs1_NtCsC3JuwEIQwb_7console4termNtB5_4Term9write_str(ptr noalias noundef nonnull readonly align 8 captures(address, read_provenance) dereferenceable(16) %self, ptr noalias noundef nonnull readonly align 1 captures(address, read_provenance) %_5.sroa.5.0.copyload.i33, i64 noundef %_5.sroa.8.0.copyload.i35)
          to label %bb2.i39 unwind label %cleanup.i36

cleanup.i36:                                      ; preds = %bb13
  %10 = landingpad { ptr, i32 }
          cleanup
  %11 = icmp eq i64 %_5.sroa.0.0.copyload.i31, 0
  br i1 %11, label %common.resume, label %bb2.i.i.i4.i.i.i37

bb2.i.i.i4.i.i.i37:                               ; preds = %cleanup.i36
; call __rustc::__rust_dealloc
  call void @_RNvCsKhRCbHf33p_7___rustc14___rust_dealloc(ptr noundef nonnull %_5.sroa.5.0.copyload.i33, i64 noundef %_5.sroa.0.0.copyload.i31, i64 noundef range(i64 1, -9223372036854775807) 1) #29, !noalias !217
  br label %common.resume

bb2.i39:                                          ; preds = %bb13
  %12 = icmp eq i64 %_5.sroa.0.0.copyload.i31, 0
  br i1 %12, label %_RNvNtCsC3JuwEIQwb_7console11common_term16move_cursor_down.exit, label %bb2.i.i.i4.i.i5.i40

bb2.i.i.i4.i.i5.i40:                              ; preds = %bb2.i39
; call __rustc::__rust_dealloc
  call void @_RNvCsKhRCbHf33p_7___rustc14___rust_dealloc(ptr noundef nonnull %_5.sroa.5.0.copyload.i33, i64 noundef %_5.sroa.0.0.copyload.i31, i64 noundef range(i64 1, -9223372036854775807) 1) #29, !noalias !217
  br label %_RNvNtCsC3JuwEIQwb_7console11common_term16move_cursor_down.exit

_RNvNtCsC3JuwEIQwb_7console11common_term16move_cursor_down.exit: ; preds = %bb2.i39, %bb2.i.i.i4.i.i5.i40
  call void @llvm.lifetime.end.p0(i64 8, ptr nonnull %n.i28)
  %.not7 = icmp eq ptr %9, null
  br i1 %.not7, label %bb2, label %bb4
}

; <console::term::Term>::read_secure_line
; Function Attrs: uwtable
define void @_RNvMs1_NtCsC3JuwEIQwb_7console4termNtB5_4Term16read_secure_line(ptr dead_on_unwind noalias noundef writable sret([24 x i8]) align 8 captures(none) dereferenceable(24) %_0, ptr noalias noundef readonly align 8 captures(none) dereferenceable(16) %self) unnamed_addr #1 personality ptr @rust_eh_personality {
start:
  %buf.i.i.i.i.i.i.i.i = alloca [32 x i8], align 8
  %_12.i.i.i.i = alloca [24 x i8], align 8
  %g.i.i.i.i = alloca [16 x i8], align 8
  %_6.i.i.i = alloca [12 x i8], align 4
  %_4.i.i.i = alloca [16 x i8], align 8
  %_1.sroa.7.sroa.0.i.i = alloca [24 x i8], align 8
  %_58.i = alloca [24 x i8], align 8
  %_57.i = alloca [24 x i8], align 8
  %rv.i = alloca [24 x i8], align 8
  %original.i = alloca [72 x i8], align 8
  %termios1.i = alloca [72 x i8], align 8
  %termios.i = alloca [72 x i8], align 8
  %input.i = alloca [48 x i8], align 8
  %0 = getelementptr inbounds nuw i8, ptr %self, i64 9
  %1 = load i8, ptr %0, align 1, !range !29, !noundef !7
  %_2 = trunc nuw i8 %1 to i1
  br i1 %_2, label %bb2, label %bb14

bb2:                                              ; preds = %start
  tail call void @llvm.experimental.noalias.scope.decl(metadata !220)
  call void @llvm.lifetime.start.p0(i64 48, ptr nonnull %input.i), !noalias !220
  call void @llvm.lifetime.start.p0(i64 24, ptr nonnull %_1.sroa.7.sroa.0.i.i)
; call std::io::stdio::stdin
  %stdin.i.i.i = tail call noundef nonnull align 8 ptr @_RNvNtNtCs5sEH5CPMdak_3std2io5stdio5stdin(), !noalias !223
  %_10.i.i.i = tail call noundef i32 @isatty(i32 noundef 0) #29, !noalias !223
  %2 = icmp eq i32 %_10.i.i.i, 0
  br i1 %2, label %bb3.i.i.i, label %bb21.i

bb3.i.i.i:                                        ; preds = %bb2
  call void @llvm.lifetime.start.p0(i64 16, ptr nonnull %_4.i.i.i), !noalias !223
  call void @llvm.lifetime.start.p0(i64 12, ptr nonnull %_6.i.i.i), !noalias !223
  store i32 0, ptr %_6.i.i.i, align 4, !noalias !223
  %_11.sroa.4.0._6.sroa_idx.i.i.i = getelementptr inbounds nuw i8, ptr %_6.i.i.i, i64 4
  store i16 438, ptr %_11.sroa.4.0._6.sroa_idx.i.i.i, align 4, !noalias !223
  %_11.sroa.5.0._6.sroa_idx.i.i.i = getelementptr inbounds nuw i8, ptr %_6.i.i.i, i64 6
  %_11.sroa.6.0._6.sroa_idx.i.i.i = getelementptr inbounds nuw i8, ptr %_6.i.i.i, i64 7
  %3 = getelementptr inbounds nuw i8, ptr %_6.i.i.i, i64 8
  store i32 0, ptr %3, align 4, !noalias !223
  store i8 1, ptr %_11.sroa.5.0._6.sroa_idx.i.i.i, align 2, !noalias !223
  store i8 1, ptr %_11.sroa.6.0._6.sroa_idx.i.i.i, align 1, !noalias !223
; call <std::fs::OpenOptions>::_open
  call void @_RNvMsl_NtCs5sEH5CPMdak_3std2fsNtB5_11OpenOptions5__open(ptr noalias noundef nonnull sret([16 x i8]) align 8 captures(none) dereferenceable(16) %_4.i.i.i, ptr noalias noundef nonnull readonly align 4 captures(address, read_provenance) dereferenceable(12) %_6.i.i.i, ptr noalias noundef nonnull readonly align 1 captures(address, read_provenance) @alloc_890f94c692f51df5fc72c5e0dfe1823b, i64 noundef 8), !noalias !223
  %4 = load i32, ptr %_4.i.i.i, align 8, !range !228, !noalias !223, !noundef !7
  %5 = trunc nuw i32 %4 to i1
  br i1 %5, label %_RNvNtCsC3JuwEIQwb_7console9unix_term11read_secure.exit.thread, label %bb3.i.i

bb3.i.i:                                          ; preds = %bb3.i.i.i
  %6 = getelementptr inbounds nuw i8, ptr %_4.i.i.i, i64 4
  %_13.i.i.i = load i32, ptr %6, align 4, !range !28, !noalias !223, !noundef !7
  call void @llvm.lifetime.end.p0(i64 16, ptr nonnull %_4.i.i.i), !noalias !223
  call void @llvm.lifetime.end.p0(i64 12, ptr nonnull %_6.i.i.i), !noalias !223
; call __rustc::__rust_no_alloc_shim_is_unstable_v2
  call void @_RNvCsKhRCbHf33p_7___rustc35___rust_no_alloc_shim_is_unstable_v2() #29, !noalias !229
; call __rustc::__rust_alloc
  %7 = call noundef dereferenceable_or_null(8192) ptr @_RNvCsKhRCbHf33p_7___rustc12___rust_alloc(i64 noundef 8192, i64 noundef range(i64 1, -9223372036854775807) 1) #29, !noalias !229
  %8 = icmp eq ptr %7, null
  br i1 %8, label %bb3.i.i.i.i, label %_RNvMNtNtNtCs5sEH5CPMdak_3std2io8buffered9bufreaderINtB2_9BufReaderNtNtB8_2fs4FileE13with_capacityCsC3JuwEIQwb_7console.exit.i.i

bb3.i.i.i.i:                                      ; preds = %bb3.i.i
; invoke alloc::raw_vec::handle_error
  invoke void @_RNvNtCsdJPVW0sQgAG_5alloc7raw_vec12handle_error(i64 noundef 1, i64 8192) #30
          to label %.noexc.i.i.i unwind label %bb2.i8.i.i, !noalias !234

.noexc.i.i.i:                                     ; preds = %bb3.i.i.i.i
  unreachable

common.resume:                                    ; preds = %cleanup, %bb2.i.i.i4.i.i, %bb2.i8.i.i, %bb14.i
  %common.resume.op = phi { ptr, i32 } [ %9, %bb2.i8.i.i ], [ %.pn12.i, %bb14.i ], [ %102, %bb2.i.i.i4.i.i ], [ %102, %cleanup ]
  resume { ptr, i32 } %common.resume.op

bb2.i8.i.i:                                       ; preds = %bb3.i.i.i.i
  %9 = landingpad { ptr, i32 }
          cleanup
  %_5.i.i.i.i.i.i.i.i = call noundef i32 @close(i32 noundef range(i32 0, -1) %_13.i.i.i) #29, !noalias !234
  br label %common.resume

_RNvMNtNtNtCs5sEH5CPMdak_3std2io8buffered9bufreaderINtB2_9BufReaderNtNtB8_2fs4FileE13with_capacityCsC3JuwEIQwb_7console.exit.i.i: ; preds = %bb3.i.i
  call void @llvm.memset.p0.i64(ptr noundef nonnull align 8 dereferenceable(24) %_1.sroa.7.sroa.0.i.i, i8 0, i64 24, i1 false), !noalias !235
  br label %bb21.i

_RNvNtCsC3JuwEIQwb_7console9unix_term11read_secure.exit.thread: ; preds = %bb3.i.i.i
  %10 = getelementptr inbounds nuw i8, ptr %_4.i.i.i, i64 8
  %_14.i.i.i = load ptr, ptr %10, align 8, !noalias !223, !nonnull !7, !noundef !7
  call void @llvm.lifetime.end.p0(i64 16, ptr nonnull %_4.i.i.i), !noalias !223
  call void @llvm.lifetime.end.p0(i64 12, ptr nonnull %_6.i.i.i), !noalias !223
  call void @llvm.lifetime.end.p0(i64 24, ptr nonnull %_1.sroa.7.sroa.0.i.i)
  %11 = getelementptr inbounds nuw i8, ptr %_0, i64 8
  store ptr %_14.i.i.i, ptr %11, align 8, !alias.scope !220
  store i64 -9223372036854775808, ptr %_0, align 8, !alias.scope !220
  call void @llvm.lifetime.end.p0(i64 48, ptr nonnull %input.i), !noalias !220
  br label %bb9

bb21.i:                                           ; preds = %_RNvMNtNtNtCs5sEH5CPMdak_3std2io8buffered9bufreaderINtB2_9BufReaderNtNtB8_2fs4FileE13with_capacityCsC3JuwEIQwb_7console.exit.i.i, %bb2
  %_3.sroa.7.0.ph18.i.i = phi i32 [ %_13.i.i.i, %_RNvMNtNtNtCs5sEH5CPMdak_3std2io8buffered9bufreaderINtB2_9BufReaderNtNtB8_2fs4FileE13with_capacityCsC3JuwEIQwb_7console.exit.i.i ], [ undef, %bb2 ]
  %_1.sroa.6.0.i.i = phi ptr [ inttoptr (i64 8192 to ptr), %_RNvMNtNtNtCs5sEH5CPMdak_3std2io8buffered9bufreaderINtB2_9BufReaderNtNtB8_2fs4FileE13with_capacityCsC3JuwEIQwb_7console.exit.i.i ], [ %stdin.i.i.i, %bb2 ]
  %_1.sroa.0.0.i.i = phi ptr [ %7, %_RNvMNtNtNtCs5sEH5CPMdak_3std2io8buffered9bufreaderINtB2_9BufReaderNtNtB8_2fs4FileE13with_capacityCsC3JuwEIQwb_7console.exit.i.i ], [ null, %bb2 ]
  %val.sroa.4.sroa.4.0.val.sroa.4.0.input.sroa_idx.sroa_idx.i = getelementptr inbounds nuw i8, ptr %input.i, i64 16
  call void @llvm.memcpy.p0.p0.i64(ptr noundef nonnull align 8 dereferenceable(24) %val.sroa.4.sroa.4.0.val.sroa.4.0.input.sroa_idx.sroa_idx.i, ptr noundef nonnull align 8 dereferenceable(24) %_1.sroa.7.sroa.0.i.i, i64 24, i1 false), !noalias !220
  call void @llvm.lifetime.end.p0(i64 24, ptr nonnull %_1.sroa.7.sroa.0.i.i)
  store ptr %_1.sroa.0.0.i.i, ptr %input.i, align 8, !noalias !220
  %val.sroa.4.0.input.sroa_idx.i = getelementptr inbounds nuw i8, ptr %input.i, i64 8
  store ptr %_1.sroa.6.0.i.i, ptr %val.sroa.4.0.input.sroa_idx.i, align 8, !noalias !220
  %val.sroa.4.sroa.5.0.val.sroa.4.0.input.sroa_idx.sroa_idx.i = getelementptr inbounds nuw i8, ptr %input.i, i64 40
  store i32 %_3.sroa.7.0.ph18.i.i, ptr %val.sroa.4.sroa.5.0.val.sroa.4.0.input.sroa_idx.sroa_idx.i, align 8, !noalias !220
  call void @llvm.lifetime.start.p0(i64 72, ptr nonnull %termios.i), !noalias !220
  %.not.i.i.i = icmp eq ptr %_1.sroa.0.0.i.i, null
  %_2.sroa.0.0.i.i.i = select i1 %.not.i.i.i, i32 0, i32 %_3.sroa.7.0.ph18.i.i
  %_0.i.i.i = call noundef i32 @tcgetattr(i32 noundef %_2.sroa.0.0.i.i.i, ptr noundef nonnull align 8 dereferenceable(72) %termios.i) #29, !noalias !220
  %12 = icmp eq i32 %_0.i.i.i, 0
  br i1 %12, label %bb23.i, label %bb22.i

bb14.i:                                           ; preds = %bb2.i.i.i4.i.i56.i, %bb18.i, %cleanup3.i
  %.pn12.i = phi { ptr, i32 } [ %86, %cleanup3.i ], [ %.pn.ph.i, %bb18.i ], [ %.pn.ph.i, %bb2.i.i.i4.i.i56.i ]
; call core::ptr::drop_in_place::<console::unix_term::Input<std::io::buffered::bufreader::BufReader<std::fs::File>>>
  call fastcc void @_RINvNtCsjMrxcFdYDNN_4core3ptr13drop_in_placeINtNtCsC3JuwEIQwb_7console9unix_term5InputINtNtNtNtCs5sEH5CPMdak_3std2io8buffered9bufreader9BufReaderNtNtB1v_2fs4FileEEEBL_(ptr noalias noundef align 8 dereferenceable(48) %input.i) #32, !noalias !220
  br label %common.resume

bb22.i:                                           ; preds = %bb21.i
  %_5.i.i = tail call noundef ptr @__error() #29
  %_4.i.i = load i32, ptr %_5.i.i, align 4, !noalias !220, !noundef !7
  %_9.i.i = sext i32 %_4.i.i to i64
  %_8.i.i = shl nsw i64 %_9.i.i, 32
  %_7.i.i = or disjoint i64 %_8.i.i, 2
  %_14.i.i = inttoptr i64 %_7.i.i to ptr
  %13 = getelementptr inbounds nuw i8, ptr %_0, i64 8
  store ptr %_14.i.i, ptr %13, align 8, !alias.scope !220
  store i64 -9223372036854775808, ptr %_0, align 8, !alias.scope !220
  br label %bb11.i

bb23.i:                                           ; preds = %bb21.i
  call void @llvm.lifetime.start.p0(i64 72, ptr nonnull %termios1.i), !noalias !220
  call void @llvm.memcpy.p0.p0.i64(ptr noundef nonnull align 8 dereferenceable(72) %termios1.i, ptr noundef nonnull align 8 dereferenceable(72) %termios.i, i64 72, i1 false), !noalias !220
  call void @llvm.lifetime.start.p0(i64 72, ptr nonnull %original.i), !noalias !220
  call void @llvm.memcpy.p0.p0.i64(ptr noundef nonnull align 8 dereferenceable(72) %original.i, ptr noundef nonnull align 8 dereferenceable(72) %termios.i, i64 72, i1 false), !noalias !220
  %14 = getelementptr inbounds nuw i8, ptr %termios1.i, i64 24
  %15 = load i64, ptr %14, align 8, !noalias !220, !noundef !7
  %16 = and i64 %15, -9
  store i64 %16, ptr %14, align 8, !noalias !220
  %input.val18.i = load ptr, ptr %input.i, align 8, !noalias !220, !noundef !7
  %input.val19.i = load i32, ptr %val.sroa.4.sroa.5.0.val.sroa.4.0.input.sroa_idx.sroa_idx.i, align 8, !noalias !220
  %.not.i.i26.i = icmp eq ptr %input.val18.i, null
  %_2.sroa.0.0.i.i27.i = select i1 %.not.i.i26.i, i32 0, i32 %input.val19.i
  %_0.i.i28.i = call noundef i32 @tcsetattr(i32 noundef %_2.sroa.0.0.i.i27.i, i32 noundef 2, ptr noundef nonnull readonly align 8 dereferenceable(72) %termios1.i) #29, !noalias !220
  %17 = icmp eq i32 %_0.i.i28.i, 0
  br i1 %17, label %bb25.i, label %bb24.i

bb24.i:                                           ; preds = %bb23.i
  %_5.i30.i = tail call noundef ptr @__error() #29
  %_4.i31.i = load i32, ptr %_5.i30.i, align 4, !noalias !220, !noundef !7
  %_9.i32.i = sext i32 %_4.i31.i to i64
  %_8.i33.i = shl nsw i64 %_9.i32.i, 32
  %_7.i34.i = or disjoint i64 %_8.i33.i, 2
  %_14.i35.i = inttoptr i64 %_7.i34.i to ptr
  %18 = getelementptr inbounds nuw i8, ptr %_0, i64 8
  store ptr %_14.i35.i, ptr %18, align 8, !alias.scope !220
  store i64 -9223372036854775808, ptr %_0, align 8, !alias.scope !220
  br label %bb10.i

bb25.i:                                           ; preds = %bb23.i
  call void @llvm.lifetime.start.p0(i64 24, ptr nonnull %rv.i), !noalias !220
  store i64 0, ptr %rv.i, align 8, !noalias !220
  %_50.sroa.4.0.rv.sroa_idx.i = getelementptr inbounds nuw i8, ptr %rv.i, i64 8
  store ptr inttoptr (i64 1 to ptr), ptr %_50.sroa.4.0.rv.sroa_idx.i, align 8, !noalias !220
  %_50.sroa.5.0.rv.sroa_idx.i = getelementptr inbounds nuw i8, ptr %rv.i, i64 16
  store i64 0, ptr %_50.sroa.5.0.rv.sroa_idx.i, align 8, !noalias !220
  call void @llvm.experimental.noalias.scope.decl(metadata !236)
  call void @llvm.experimental.noalias.scope.decl(metadata !239)
  %19 = load ptr, ptr %input.i, align 8, !alias.scope !236, !noalias !241, !noundef !7
  %.not.i.i = icmp eq ptr %19, null
  br i1 %.not.i.i, label %bb3.i41.i, label %bb2.i37.i

bb2.i37.i:                                        ; preds = %bb25.i
  call void @llvm.experimental.noalias.scope.decl(metadata !242)
  call void @llvm.experimental.noalias.scope.decl(metadata !245)
  call void @llvm.experimental.noalias.scope.decl(metadata !247)
  call void @llvm.experimental.noalias.scope.decl(metadata !250)
  call void @llvm.lifetime.start.p0(i64 16, ptr nonnull %g.i.i.i.i), !noalias !252
  store ptr %rv.i, ptr %g.i.i.i.i, align 8, !noalias !252
  %20 = getelementptr inbounds nuw i8, ptr %g.i.i.i.i, i64 8
  store i64 0, ptr %20, align 8, !noalias !252
  call void @llvm.experimental.noalias.scope.decl(metadata !253)
  call void @llvm.experimental.noalias.scope.decl(metadata !256)
  call void @llvm.experimental.noalias.scope.decl(metadata !258)
  call void @llvm.experimental.noalias.scope.decl(metadata !261)
  %21 = getelementptr inbounds nuw i8, ptr %input.i, i64 24
  %22 = getelementptr inbounds nuw i8, ptr %buf.i.i.i.i.i.i.i.i, i64 8
  %23 = getelementptr inbounds nuw i8, ptr %buf.i.i.i.i.i.i.i.i, i64 16
  %24 = getelementptr inbounds nuw i8, ptr %buf.i.i.i.i.i.i.i.i, i64 24
  %25 = getelementptr inbounds nuw i8, ptr %input.i, i64 32
  br label %bb1.outer.i.i.i.i.i.i

bb1.outer.i.i.i.i.i.i:                            ; preds = %_RNvMs_NtCsdJPVW0sQgAG_5alloc3vecINtB4_3VechE15append_elementsCsC3JuwEIQwb_7console.exit39.i.i.i.i.i.i, %bb2.i37.i
  %read.sroa.0.0.ph.i.i.i.i.i.i = phi i64 [ %42, %_RNvMs_NtCsdJPVW0sQgAG_5alloc3vecINtB4_3VechE15append_elementsCsC3JuwEIQwb_7console.exit39.i.i.i.i.i.i ], [ 0, %bb2.i37.i ]
  br label %bb1.i.i.i.i.i.i

bb1.i.i.i.i.i.i:                                  ; preds = %bb1.i.i.i.i.i.i.backedge, %bb1.outer.i.i.i.i.i.i
  call void @llvm.experimental.noalias.scope.decl(metadata !263)
  call void @llvm.experimental.noalias.scope.decl(metadata !266)
  %_4.i.i.i.i.i.i.i.i = load i64, ptr %val.sroa.4.sroa.4.0.val.sroa.4.0.input.sroa_idx.sroa_idx.i, align 8, !alias.scope !269, !noalias !270, !noundef !7
  %_5.i.i.i.i.i.i.i38.i = load i64, ptr %21, align 8, !alias.scope !269, !noalias !270, !noundef !7
  %_3.not.i.i.i.i.i.i.i.i = icmp ult i64 %_4.i.i.i.i.i.i.i.i, %_5.i.i.i.i.i.i.i38.i
  %_38.0.pre.i.i.i.i.i.i.i.i = load ptr, ptr %input.i, align 8, !alias.scope !269, !noalias !270
  br i1 %_3.not.i.i.i.i.i.i.i.i, label %_RNvXs4_NtNtNtCs5sEH5CPMdak_3std2io8buffered9bufreaderINtB5_9BufReaderNtNtBb_2fs4FileENtB9_7BufRead8fill_bufCsC3JuwEIQwb_7console.exit.i.i.i.i.i.i, label %bb1.i.i.i.i.i.i.i.i

bb1.i.i.i.i.i.i.i.i:                              ; preds = %bb1.i.i.i.i.i.i
  call void @llvm.lifetime.start.p0(i64 32, ptr nonnull %buf.i.i.i.i.i.i.i.i), !noalias !274
  %_39.1.i.i.i.i.i.i.i.i = load i64, ptr %val.sroa.4.0.input.sroa_idx.i, align 8, !alias.scope !269, !noalias !270, !noundef !7
  store ptr %_38.0.pre.i.i.i.i.i.i.i.i, ptr %buf.i.i.i.i.i.i.i.i, align 8, !noalias !274
  store i64 %_39.1.i.i.i.i.i.i.i.i, ptr %22, align 8, !noalias !274
  store i64 0, ptr %23, align 8, !noalias !274
  %n.i.i.i.i.i.i.i.i = load i64, ptr %25, align 8, !alias.scope !269, !noalias !270, !noundef !7
  store i64 %n.i.i.i.i.i.i.i.i, ptr %24, align 8, !noalias !274
; invoke <std::fs::File as std::io::Read>::read_buf
  %_0.i.i.i.i.i10.i.i.i.i = invoke noundef ptr @_RNvXsa_NtCs5sEH5CPMdak_3std2fsNtB5_4FileNtNtB7_2io4Read8read_buf(ptr noalias noundef nonnull align 4 dereferenceable(4) %val.sroa.4.sroa.5.0.val.sroa.4.0.input.sroa_idx.sroa_idx.i, ptr noalias noundef nonnull align 8 dereferenceable(32) %buf.i.i.i.i.i.i.i.i)
          to label %_0.i.i.i.i.i.noexc.i.i.i.i unwind label %cleanup.loopexit.i.i.i.i, !noalias !220

_0.i.i.i.i.i.noexc.i.i.i.i:                       ; preds = %bb1.i.i.i.i.i.i.i.i
  store i64 0, ptr %val.sroa.4.sroa.4.0.val.sroa.4.0.input.sroa_idx.sroa_idx.i, align 8, !alias.scope !269, !noalias !270
  %26 = load <2 x i64>, ptr %23, align 8, !noalias !274
  %_14.i.i.i.i.i.i.i.i = load i64, ptr %23, align 8, !noalias !274, !noundef !7
  store <2 x i64> %26, ptr %21, align 8, !alias.scope !269, !noalias !270
  %.not.i.i.i.i.i.i.i.i = icmp eq ptr %_0.i.i.i.i.i10.i.i.i.i, null
  br i1 %.not.i.i.i.i.i.i.i.i, label %bb11.i.i.i.i.i.i.i.i, label %_RNvXs4_NtNtNtCs5sEH5CPMdak_3std2io8buffered9bufreaderINtB5_9BufReaderNtNtBb_2fs4FileENtB9_7BufRead8fill_bufCsC3JuwEIQwb_7console.exit.thread.i.i.i.i.i.i

_RNvXs4_NtNtNtCs5sEH5CPMdak_3std2io8buffered9bufreaderINtB5_9BufReaderNtNtBb_2fs4FileENtB9_7BufRead8fill_bufCsC3JuwEIQwb_7console.exit.thread.i.i.i.i.i.i: ; preds = %_0.i.i.i.i.i.noexc.i.i.i.i
  %27 = ptrtoint ptr %_0.i.i.i.i.i10.i.i.i.i to i64
  call void @llvm.lifetime.end.p0(i64 32, ptr nonnull %buf.i.i.i.i.i.i.i.i), !noalias !274
  br label %bb4.i.i.i.i.i.i

bb11.i.i.i.i.i.i.i.i:                             ; preds = %_0.i.i.i.i.i.noexc.i.i.i.i
  call void @llvm.lifetime.end.p0(i64 32, ptr nonnull %buf.i.i.i.i.i.i.i.i), !noalias !274
  br label %_RNvXs4_NtNtNtCs5sEH5CPMdak_3std2io8buffered9bufreaderINtB5_9BufReaderNtNtBb_2fs4FileENtB9_7BufRead8fill_bufCsC3JuwEIQwb_7console.exit.i.i.i.i.i.i

_RNvXs4_NtNtNtCs5sEH5CPMdak_3std2io8buffered9bufreaderINtB5_9BufReaderNtNtBb_2fs4FileENtB9_7BufRead8fill_bufCsC3JuwEIQwb_7console.exit.i.i.i.i.i.i: ; preds = %bb11.i.i.i.i.i.i.i.i, %bb1.i.i.i.i.i.i
  %index1.i.i.i.i.i.i.i.i = phi i64 [ %_5.i.i.i.i.i.i.i38.i, %bb1.i.i.i.i.i.i ], [ %_14.i.i.i.i.i.i.i.i, %bb11.i.i.i.i.i.i.i.i ]
  %index.i.i.i.i.i.i.i.i = phi i64 [ %_4.i.i.i.i.i.i.i.i, %bb1.i.i.i.i.i.i ], [ 0, %bb11.i.i.i.i.i.i.i.i ]
  %new_len.i.i.i.i.i.i.i.i = sub nuw i64 %index1.i.i.i.i.i.i.i.i, %index.i.i.i.i.i.i.i.i
  %28 = icmp eq ptr %_38.0.pre.i.i.i.i.i.i.i.i, null
  br i1 %28, label %bb4.i.i.i.i.i.i, label %bb5.i.i.i.i.i.i

bb4.i.i.i.i.i.i:                                  ; preds = %_RNvXs4_NtNtNtCs5sEH5CPMdak_3std2io8buffered9bufreaderINtB5_9BufReaderNtNtBb_2fs4FileENtB9_7BufRead8fill_bufCsC3JuwEIQwb_7console.exit.i.i.i.i.i.i, %_RNvXs4_NtNtNtCs5sEH5CPMdak_3std2io8buffered9bufreaderINtB5_9BufReaderNtNtBb_2fs4FileENtB9_7BufRead8fill_bufCsC3JuwEIQwb_7console.exit.thread.i.i.i.i.i.i
  %_5.sroa.9.047.i.i.i.i.i.i = phi i64 [ %27, %_RNvXs4_NtNtNtCs5sEH5CPMdak_3std2io8buffered9bufreaderINtB5_9BufReaderNtNtBb_2fs4FileENtB9_7BufRead8fill_bufCsC3JuwEIQwb_7console.exit.thread.i.i.i.i.i.i ], [ %new_len.i.i.i.i.i.i.i.i, %_RNvXs4_NtNtNtCs5sEH5CPMdak_3std2io8buffered9bufreaderINtB5_9BufReaderNtNtBb_2fs4FileENtB9_7BufRead8fill_bufCsC3JuwEIQwb_7console.exit.i.i.i.i.i.i ]
  %29 = inttoptr i64 %_5.sroa.9.047.i.i.i.i.i.i to ptr
  %_5.i.i.i.i.i.i.i = and i64 %_5.sroa.9.047.i.i.i.i.i.i, 3
  switch i64 %_5.i.i.i.i.i.i.i, label %default.unreachable [
    i64 2, label %bb20.i.i.i.i.i.i
    i64 3, label %bb4.i.i.i.i.i.i.i
    i64 0, label %bb17.i.i.i.i.i.i
    i64 1, label %bb21.i.i.i.i.i.i
  ], !prof !275

default.unreachable:                              ; preds = %bb4.i.i.i.i.i.i
  unreachable

bb4.i.i.i.i.i.i.i:                                ; preds = %bb4.i.i.i.i.i.i
  %_10.i.mask.i.i.i.i.i.i = and i64 %_5.sroa.9.047.i.i.i.i.i.i, -4294967296
  %switch.i.i.i.i.i.i = icmp eq i64 %_10.i.mask.i.i.i.i.i.i, 150323855360
  br i1 %switch.i.i.i.i.i.i, label %bb1.i.i.i.i.i.i.backedge, label %bb1.i.i.i.i

bb5.i.i.i.i.i.i:                                  ; preds = %_RNvXs4_NtNtNtCs5sEH5CPMdak_3std2io8buffered9bufreaderINtB5_9BufReaderNtNtBb_2fs4FileENtB9_7BufRead8fill_bufCsC3JuwEIQwb_7console.exit.i.i.i.i.i.i
  %_36.i.i.le.i.i.i.i.i.i = getelementptr inbounds nuw i8, ptr %_38.0.pre.i.i.i.i.i.i.i.i, i64 %index.i.i.i.i.i.i.i.i
  %_3.i20.i.i.i.i.i.i = icmp samesign ult i64 %new_len.i.i.i.i.i.i.i.i, 16
  br i1 %_3.i20.i.i.i.i.i.i, label %bb5.preheader.i.i.i.i.i.i.i, label %bb2.i21.i.i.i.i.i.i

bb5.preheader.i.i.i.i.i.i.i:                      ; preds = %bb5.i.i.i.i.i.i
  %_64.not.i.i.i.i.i.i.i = icmp eq i64 %new_len.i.i.i.i.i.i.i.i, 0
  br i1 %_64.not.i.i.i.i.i.i.i, label %bb4.i23.i.i.i.i.i.i, label %bb7.i.i.i.i.i.i.i

bb2.i21.i.i.i.i.i.i:                              ; preds = %bb5.i.i.i.i.i.i
; invoke core::slice::memchr::memchr_aligned
  %30 = invoke { i64, i64 } @_RNvNtNtCsjMrxcFdYDNN_4core5slice6memchr14memchr_aligned(i8 noundef 10, ptr noalias noundef nonnull readonly align 1 captures(address, read_provenance) %_36.i.i.le.i.i.i.i.i.i, i64 noundef range(i64 0, -9223372036854775808) %new_len.i.i.i.i.i.i.i.i)
          to label %_RNvNtNtCsjMrxcFdYDNN_4core5slice6memchr6memchr.exit.i.i.i.i.i.i unwind label %cleanup.loopexit.split-lp.loopexit.i.i.i.i, !noalias !220

bb4.i23.i.i.i.i.i.i:                              ; preds = %bb9.i.i.i.i.i.i.i, %bb7.i.i.i.i.i.i.i, %bb5.preheader.i.i.i.i.i.i.i
  %i.sroa.0.0.lcssa.i.i.i.i.i.i.i = phi i64 [ 0, %bb5.preheader.i.i.i.i.i.i.i ], [ %new_len.i.i.i.i.i.i.i.i, %bb9.i.i.i.i.i.i.i ], [ %i.sroa.0.05.i.i.i.i.i.i.i, %bb7.i.i.i.i.i.i.i ]
  %_0.sroa.0.1.i.i.i.i.i.i.i = phi i64 [ 0, %bb5.preheader.i.i.i.i.i.i.i ], [ 0, %bb9.i.i.i.i.i.i.i ], [ 1, %bb7.i.i.i.i.i.i.i ]
  %31 = insertvalue { i64, i64 } poison, i64 %_0.sroa.0.1.i.i.i.i.i.i.i, 0
  %32 = insertvalue { i64, i64 } %31, i64 %i.sroa.0.0.lcssa.i.i.i.i.i.i.i, 1
  br label %_RNvNtNtCsjMrxcFdYDNN_4core5slice6memchr6memchr.exit.i.i.i.i.i.i

bb7.i.i.i.i.i.i.i:                                ; preds = %bb5.preheader.i.i.i.i.i.i.i, %bb9.i.i.i.i.i.i.i
  %i.sroa.0.05.i.i.i.i.i.i.i = phi i64 [ %34, %bb9.i.i.i.i.i.i.i ], [ 0, %bb5.preheader.i.i.i.i.i.i.i ]
  %33 = getelementptr inbounds nuw i8, ptr %_36.i.i.le.i.i.i.i.i.i, i64 %i.sroa.0.05.i.i.i.i.i.i.i
  %_9.i.i.i.i.i.i.i = load i8, ptr %33, align 1, !alias.scope !276, !noalias !279, !noundef !7
  %_8.i.i.i.i.i.i.i = icmp eq i8 %_9.i.i.i.i.i.i.i, 10
  br i1 %_8.i.i.i.i.i.i.i, label %bb4.i23.i.i.i.i.i.i, label %bb9.i.i.i.i.i.i.i

bb9.i.i.i.i.i.i.i:                                ; preds = %bb7.i.i.i.i.i.i.i
  %34 = add nuw nsw i64 %i.sroa.0.05.i.i.i.i.i.i.i, 1
  %exitcond.not.i.i.i.i.i.i.i = icmp eq i64 %34, %new_len.i.i.i.i.i.i.i.i
  br i1 %exitcond.not.i.i.i.i.i.i.i, label %bb4.i23.i.i.i.i.i.i, label %bb7.i.i.i.i.i.i.i

_RNvNtNtCsjMrxcFdYDNN_4core5slice6memchr6memchr.exit.i.i.i.i.i.i: ; preds = %bb4.i23.i.i.i.i.i.i, %bb2.i21.i.i.i.i.i.i
  %.merged.i.i.i.i.i.i.i = phi { i64, i64 } [ %32, %bb4.i23.i.i.i.i.i.i ], [ %30, %bb2.i21.i.i.i.i.i.i ]
  %35 = extractvalue { i64, i64 } %.merged.i.i.i.i.i.i.i, 0
  %36 = trunc nuw i64 %35 to i1
  br i1 %36, label %bb10.i.i.i.i.i.i, label %bb9.i.i.i.i.i.i

bb10.i.i.i.i.i.i:                                 ; preds = %_RNvNtNtCsjMrxcFdYDNN_4core5slice6memchr6memchr.exit.i.i.i.i.i.i
  %37 = extractvalue { i64, i64 } %.merged.i.i.i.i.i.i.i, 1
  %_7.i24.i.i.i.i.i.i = icmp ult i64 %37, %new_len.i.i.i.i.i.i.i.i
  br i1 %_7.i24.i.i.i.i.i.i, label %_RNvXs8_NtNtCsjMrxcFdYDNN_4core5slice5indexINtNtNtB9_3ops5range14RangeInclusivejEINtB5_10SliceIndexShE5indexCsC3JuwEIQwb_7console.exit.i.i.i.i.i.i, label %bb6.i.i.i.i.i.i.i, !prof !30

bb6.i.i.i.i.i.i.i:                                ; preds = %bb10.i.i.i.i.i.i
; invoke core::slice::index::slice_index_fail
  invoke void @_RNvNtNtCsjMrxcFdYDNN_4core5slice5index16slice_index_fail(i64 noundef 0, i64 noundef %37, i64 noundef range(i64 0, -9223372036854775808) %new_len.i.i.i.i.i.i.i.i, ptr noalias noundef readonly align 8 captures(address, read_provenance) dereferenceable(24) @alloc_92437324c5298c66e2abee23d7039388) #34
          to label %.noexc11.i.i.i.i unwind label %cleanup.loopexit.split-lp.loopexit.split-lp.i.i.i.i, !noalias !220

.noexc11.i.i.i.i:                                 ; preds = %bb6.i.i.i.i.i.i.i
  unreachable

_RNvXs8_NtNtCsjMrxcFdYDNN_4core5slice5indexINtNtNtB9_3ops5range14RangeInclusivejEINtB5_10SliceIndexShE5indexCsC3JuwEIQwb_7console.exit.i.i.i.i.i.i: ; preds = %bb10.i.i.i.i.i.i
  %38 = add nuw i64 %37, 1
  call void @llvm.experimental.noalias.scope.decl(metadata !280)
  %len.i.i.i.i.i.i.i.i = load i64, ptr %_50.sroa.5.0.rv.sroa_idx.i, align 8, !alias.scope !283, !noalias !286, !noundef !7
  %self2.i.i.i.i.i.i.i.i = load i64, ptr %rv.i, align 8, !range !23, !alias.scope !283, !noalias !286, !noundef !7
  %_9.i.i.i.i.i.i.i.i = sub i64 %self2.i.i.i.i.i.i.i.i, %len.i.i.i.i.i.i.i.i
  %_7.i.i.not.i.i.i.i.i.i = icmp ult i64 %37, %_9.i.i.i.i.i.i.i.i
  br i1 %_7.i.i.not.i.i.i.i.i.i, label %_RNvMs_NtCsdJPVW0sQgAG_5alloc3vecINtB4_3VechE15append_elementsCsC3JuwEIQwb_7console.exit.i.i.i.i.i.i, label %bb1.i.i27.i.i.i.i.i.i, !prof !30

bb1.i.i27.i.i.i.i.i.i:                            ; preds = %_RNvXs8_NtNtCsjMrxcFdYDNN_4core5slice5indexINtNtNtB9_3ops5range14RangeInclusivejEINtB5_10SliceIndexShE5indexCsC3JuwEIQwb_7console.exit.i.i.i.i.i.i
; invoke <alloc::raw_vec::RawVecInner<_>>::reserve::do_reserve_and_handle::<alloc::alloc::Global>
  invoke fastcc void @_RINvNvMs2_NtCsdJPVW0sQgAG_5alloc7raw_vecINtB8_11RawVecInnerpE7reserve21do_reserve_and_handleNtNtBa_5alloc6GlobalECsC3JuwEIQwb_7console(ptr noalias noundef nonnull align 8 dereferenceable(24) %rv.i, i64 noundef %len.i.i.i.i.i.i.i.i, i64 noundef %38, i64 noundef 1, i64 noundef 1)
          to label %.noexc12.i.i.i.i unwind label %cleanup.loopexit.split-lp.loopexit.split-lp.i.i.i.i, !noalias !220

.noexc12.i.i.i.i:                                 ; preds = %bb1.i.i27.i.i.i.i.i.i
  %len.pre.i.i.i.i.i.i.i = load i64, ptr %_50.sroa.5.0.rv.sroa_idx.i, align 8, !alias.scope !287, !noalias !286
  br label %_RNvMs_NtCsdJPVW0sQgAG_5alloc3vecINtB4_3VechE15append_elementsCsC3JuwEIQwb_7console.exit.i.i.i.i.i.i

_RNvMs_NtCsdJPVW0sQgAG_5alloc3vecINtB4_3VechE15append_elementsCsC3JuwEIQwb_7console.exit.i.i.i.i.i.i: ; preds = %.noexc12.i.i.i.i, %_RNvXs8_NtNtCsjMrxcFdYDNN_4core5slice5indexINtNtNtB9_3ops5range14RangeInclusivejEINtB5_10SliceIndexShE5indexCsC3JuwEIQwb_7console.exit.i.i.i.i.i.i
  %len.i.i.i.i.i.i.i = phi i64 [ %len.i.i.i.i.i.i.i.i, %_RNvXs8_NtNtCsjMrxcFdYDNN_4core5slice5indexINtNtNtB9_3ops5range14RangeInclusivejEINtB5_10SliceIndexShE5indexCsC3JuwEIQwb_7console.exit.i.i.i.i.i.i ], [ %len.pre.i.i.i.i.i.i.i, %.noexc12.i.i.i.i ]
  %_9.i25.i.i.i.i.i.i = icmp sgt i64 %len.i.i.i.i.i.i.i, -1
  call void @llvm.assume(i1 %_9.i25.i.i.i.i.i.i)
  %_10.i26.i.i.i.i.i.i = load ptr, ptr %_50.sroa.4.0.rv.sroa_idx.i, align 8, !alias.scope !287, !noalias !286, !nonnull !7, !noundef !7
  %dst.i.i.i.i.i.i.i = getelementptr inbounds nuw i8, ptr %_10.i26.i.i.i.i.i.i, i64 %len.i.i.i.i.i.i.i
  call void @llvm.memcpy.p0.p0.i64(ptr noundef nonnull align 1 dereferenceable(1) %dst.i.i.i.i.i.i.i, ptr noundef nonnull readonly align 1 dereferenceable(1) %_36.i.i.le.i.i.i.i.i.i, i64 %38, i1 false), !noalias !288
  %39 = add i64 %len.i.i.i.i.i.i.i, %38
  store i64 %39, ptr %_50.sroa.5.0.rv.sroa_idx.i, align 8, !alias.scope !287, !noalias !286
  %_6.i.i.i.i.i.i.i = load i64, ptr %val.sroa.4.sroa.4.0.val.sroa.4.0.input.sroa_idx.sroa_idx.i, align 8, !alias.scope !289, !noalias !292, !noundef !7
  %v1.i.i.i.i.i.i.i = add i64 %_6.i.i.i.i.i.i.i, %38
  %v2.i.i.i.i.i.i.i = load i64, ptr %21, align 8, !alias.scope !289, !noalias !292, !noundef !7
  %_0.sroa.0.0.i.i28.i.i.i.i.i.i = call noundef i64 @llvm.umin.i64(i64 %v2.i.i.i.i.i.i.i, i64 %v1.i.i.i.i.i.i.i)
  store i64 %_0.sroa.0.0.i.i28.i.i.i.i.i.i, ptr %val.sroa.4.sroa.4.0.val.sroa.4.0.input.sroa_idx.sroa_idx.i, align 8, !alias.scope !289, !noalias !292
  %40 = add i64 %38, %read.sroa.0.0.ph.i.i.i.i.i.i
  br label %bb11.i.i.i.i.i.i

bb9.i.i.i.i.i.i:                                  ; preds = %_RNvNtNtCsjMrxcFdYDNN_4core5slice6memchr6memchr.exit.i.i.i.i.i.i
  call void @llvm.experimental.noalias.scope.decl(metadata !293)
  %len.i.i29.i.i.i.i.i.i = load i64, ptr %_50.sroa.5.0.rv.sroa_idx.i, align 8, !alias.scope !296, !noalias !286, !noundef !7
  %self2.i.i30.i.i.i.i.i.i = load i64, ptr %rv.i, align 8, !range !23, !alias.scope !296, !noalias !286, !noundef !7
  %_9.i.i31.i.i.i.i.i.i = sub i64 %self2.i.i30.i.i.i.i.i.i, %len.i.i29.i.i.i.i.i.i
  %_7.i.i32.i.i.i.i.i.i = icmp ugt i64 %new_len.i.i.i.i.i.i.i.i, %_9.i.i31.i.i.i.i.i.i
  br i1 %_7.i.i32.i.i.i.i.i.i, label %bb1.i.i37.i.i.i.i.i.i, label %_RNvMs_NtCsdJPVW0sQgAG_5alloc3vecINtB4_3VechE15append_elementsCsC3JuwEIQwb_7console.exit39.i.i.i.i.i.i, !prof !5

bb1.i.i37.i.i.i.i.i.i:                            ; preds = %bb9.i.i.i.i.i.i
; invoke <alloc::raw_vec::RawVecInner<_>>::reserve::do_reserve_and_handle::<alloc::alloc::Global>
  invoke fastcc void @_RINvNvMs2_NtCsdJPVW0sQgAG_5alloc7raw_vecINtB8_11RawVecInnerpE7reserve21do_reserve_and_handleNtNtBa_5alloc6GlobalECsC3JuwEIQwb_7console(ptr noalias noundef nonnull align 8 dereferenceable(24) %rv.i, i64 noundef %len.i.i29.i.i.i.i.i.i, i64 noundef %new_len.i.i.i.i.i.i.i.i, i64 noundef 1, i64 noundef 1)
          to label %.noexc13.i.i.i.i unwind label %cleanup.loopexit.split-lp.loopexit.i.i.i.i, !noalias !220

.noexc13.i.i.i.i:                                 ; preds = %bb1.i.i37.i.i.i.i.i.i
  %len.pre.i38.i.i.i.i.i.i = load i64, ptr %_50.sroa.5.0.rv.sroa_idx.i, align 8, !alias.scope !299, !noalias !286
  br label %_RNvMs_NtCsdJPVW0sQgAG_5alloc3vecINtB4_3VechE15append_elementsCsC3JuwEIQwb_7console.exit39.i.i.i.i.i.i

_RNvMs_NtCsdJPVW0sQgAG_5alloc3vecINtB4_3VechE15append_elementsCsC3JuwEIQwb_7console.exit39.i.i.i.i.i.i: ; preds = %.noexc13.i.i.i.i, %bb9.i.i.i.i.i.i
  %len.i33.i.i.i.i.i.i = phi i64 [ %len.i.i29.i.i.i.i.i.i, %bb9.i.i.i.i.i.i ], [ %len.pre.i38.i.i.i.i.i.i, %.noexc13.i.i.i.i ]
  %_9.i34.i.i.i.i.i.i = icmp sgt i64 %len.i33.i.i.i.i.i.i, -1
  call void @llvm.assume(i1 %_9.i34.i.i.i.i.i.i)
  %_10.i35.i.i.i.i.i.i = load ptr, ptr %_50.sroa.4.0.rv.sroa_idx.i, align 8, !alias.scope !299, !noalias !286, !nonnull !7, !noundef !7
  %dst.i36.i.i.i.i.i.i = getelementptr inbounds nuw i8, ptr %_10.i35.i.i.i.i.i.i, i64 %len.i33.i.i.i.i.i.i
  call void @llvm.memcpy.p0.p0.i64(ptr nonnull align 1 %dst.i36.i.i.i.i.i.i, ptr nonnull readonly align 1 %_36.i.i.le.i.i.i.i.i.i, i64 %new_len.i.i.i.i.i.i.i.i, i1 false), !noalias !300
  %41 = add i64 %len.i33.i.i.i.i.i.i, %new_len.i.i.i.i.i.i.i.i
  store i64 %41, ptr %_50.sroa.5.0.rv.sroa_idx.i, align 8, !alias.scope !299, !noalias !286
  %_6.i40.i.i.i.i.i.i = load i64, ptr %val.sroa.4.sroa.4.0.val.sroa.4.0.input.sroa_idx.sroa_idx.i, align 8, !alias.scope !301, !noalias !292, !noundef !7
  %v1.i41.i.i.i.i.i.i = add i64 %_6.i40.i.i.i.i.i.i, %new_len.i.i.i.i.i.i.i.i
  %v2.i42.i.i.i.i.i.i = load i64, ptr %21, align 8, !alias.scope !301, !noalias !292, !noundef !7
  %_0.sroa.0.0.i.i43.i.i.i.i.i.i = call noundef i64 @llvm.umin.i64(i64 %v2.i42.i.i.i.i.i.i, i64 %v1.i41.i.i.i.i.i.i)
  store i64 %_0.sroa.0.0.i.i43.i.i.i.i.i.i, ptr %val.sroa.4.sroa.4.0.val.sroa.4.0.input.sroa_idx.sroa_idx.i, align 8, !alias.scope !301, !noalias !292
  %42 = add i64 %new_len.i.i.i.i.i.i.i.i, %read.sroa.0.0.ph.i.i.i.i.i.i
  %_18.i.i.i.i.i.i = icmp eq i64 %new_len.i.i.i.i.i.i.i.i, 0
  br i1 %_18.i.i.i.i.i.i, label %bb11.i.i.i.i.i.i, label %bb1.outer.i.i.i.i.i.i

bb11.i.i.i.i.i.i:                                 ; preds = %_RNvMs_NtCsdJPVW0sQgAG_5alloc3vecINtB4_3VechE15append_elementsCsC3JuwEIQwb_7console.exit39.i.i.i.i.i.i, %_RNvMs_NtCsdJPVW0sQgAG_5alloc3vecINtB4_3VechE15append_elementsCsC3JuwEIQwb_7console.exit.i.i.i.i.i.i
  %read.sroa.0.1.i.i.i.i.i.i = phi i64 [ %40, %_RNvMs_NtCsdJPVW0sQgAG_5alloc3vecINtB4_3VechE15append_elementsCsC3JuwEIQwb_7console.exit.i.i.i.i.i.i ], [ %42, %_RNvMs_NtCsdJPVW0sQgAG_5alloc3vecINtB4_3VechE15append_elementsCsC3JuwEIQwb_7console.exit39.i.i.i.i.i.i ]
  %43 = inttoptr i64 %read.sroa.0.1.i.i.i.i.i.i to ptr
  br label %bb1.i.i.i.i

bb20.i.i.i.i.i.i:                                 ; preds = %bb4.i.i.i.i.i.i
  %_7.i19.mask.i.i.i.i.i.i = and i64 %_5.sroa.9.047.i.i.i.i.i.i, -4294967296
  %44 = icmp eq i64 %_7.i19.mask.i.i.i.i.i.i, 17179869184
  br i1 %44, label %bb1.i.i.i.i.i.i.backedge, label %bb1.i.i.i.i

bb17.i.i.i.i.i.i:                                 ; preds = %bb4.i.i.i.i.i.i
  %45 = icmp ne i64 %_5.sroa.9.047.i.i.i.i.i.i, 0
  call void @llvm.assume(i1 %45)
  %46 = getelementptr inbounds nuw i8, ptr %29, i64 16
  %47 = load i8, ptr %46, align 8, !range !304, !noalias !279, !noundef !7
  %48 = icmp eq i8 %47, 35
  br i1 %48, label %bb1.i.i.i.i.i.i.backedge, label %bb1.i.i.i.i

bb21.i.i.i.i.i.i:                                 ; preds = %bb4.i.i.i.i.i.i
  %49 = getelementptr i8, ptr %29, i64 -1
  %50 = icmp ne ptr %49, null
  call void @llvm.assume(i1 %50)
  %51 = getelementptr i8, ptr %29, i64 15
  %52 = load i8, ptr %51, align 8, !range !304, !noalias !279, !noundef !7
  %53 = icmp eq i8 %52, 35
  br i1 %53, label %bb2.i2.i.i.i.i.i.i.i.i.i, label %bb1.i.i.i.i

bb2.i2.i.i.i.i.i.i.i.i.i:                         ; preds = %bb21.i.i.i.i.i.i
  %_6.val.i.i.i.i.i.i.i.i.i.i.i = load ptr, ptr %49, align 8, !noalias !279
  %54 = getelementptr i8, ptr %29, i64 7
  %_6.val1.i.i.i.i.i.i.i.i.i.i.i = load ptr, ptr %54, align 8, !noalias !279, !nonnull !7, !align !22, !noundef !7
  %55 = load ptr, ptr %_6.val1.i.i.i.i.i.i.i.i.i.i.i, align 8, !invariant.load !7, !noalias !279
  %.not.i.i.i.i.i.i.i.i.i.i.i.i.i = icmp eq ptr %55, null
  br i1 %.not.i.i.i.i.i.i.i.i.i.i.i.i.i, label %bb3.i.i.i.i.i.i.i.i.i.i.i.i.i, label %is_not_null.i.i.i.i.i.i.i.i.i.i.i.i.i

is_not_null.i.i.i.i.i.i.i.i.i.i.i.i.i:            ; preds = %bb2.i2.i.i.i.i.i.i.i.i.i
  %56 = icmp ne ptr %_6.val.i.i.i.i.i.i.i.i.i.i.i, null
  call void @llvm.assume(i1 %56), !noalias !261
  invoke void %55(ptr noundef nonnull %_6.val.i.i.i.i.i.i.i.i.i.i.i)
          to label %bb3.i.i.i.i.i.i.i.i.i.i.i.i.i unwind label %cleanup.i.i.i.i.i.i.i.i.i.i.i.i.i, !noalias !279

bb3.i.i.i.i.i.i.i.i.i.i.i.i.i:                    ; preds = %is_not_null.i.i.i.i.i.i.i.i.i.i.i.i.i, %bb2.i2.i.i.i.i.i.i.i.i.i
  %57 = icmp ne ptr %_6.val.i.i.i.i.i.i.i.i.i.i.i, null
  call void @llvm.assume(i1 %57), !noalias !261
  %58 = getelementptr inbounds nuw i8, ptr %_6.val1.i.i.i.i.i.i.i.i.i.i.i, i64 8
  %59 = load i64, ptr %58, align 8, !range !23, !invariant.load !7, !noalias !279
  %60 = getelementptr inbounds nuw i8, ptr %_6.val1.i.i.i.i.i.i.i.i.i.i.i, i64 16
  %61 = load i64, ptr %60, align 8, !range !24, !invariant.load !7, !noalias !279
  %62 = add i64 %61, -1
  %63 = icmp sgt i64 %62, -1
  call void @llvm.assume(i1 %63), !noalias !261
  %64 = icmp eq i64 %59, 0
  br i1 %64, label %_RINvNtCsjMrxcFdYDNN_4core3ptr13drop_in_placeINtNtCsdJPVW0sQgAG_5alloc5boxed3BoxNtNtNtCs5sEH5CPMdak_3std2io5error6CustomEECsC3JuwEIQwb_7console.exit.i.i.i.i.i.i.i.i.i.i, label %_RNvXs_NtCsdJPVW0sQgAG_5alloc5allocNtB4_6GlobalNtNtCsjMrxcFdYDNN_4core5alloc9Allocator10deallocate.exit.i.i.i.i.i.i.i.i.i.i.i.i.i.i

_RNvXs_NtCsdJPVW0sQgAG_5alloc5allocNtB4_6GlobalNtNtCsjMrxcFdYDNN_4core5alloc9Allocator10deallocate.exit.i.i.i.i.i.i.i.i.i.i.i.i.i.i: ; preds = %bb3.i.i.i.i.i.i.i.i.i.i.i.i.i
; call __rustc::__rust_dealloc
  call void @_RNvCsKhRCbHf33p_7___rustc14___rust_dealloc(ptr noundef nonnull %_6.val.i.i.i.i.i.i.i.i.i.i.i, i64 noundef %59, i64 noundef range(i64 1, -9223372036854775807) %61) #29, !noalias !279
  br label %_RINvNtCsjMrxcFdYDNN_4core3ptr13drop_in_placeINtNtCsdJPVW0sQgAG_5alloc5boxed3BoxNtNtNtCs5sEH5CPMdak_3std2io5error6CustomEECsC3JuwEIQwb_7console.exit.i.i.i.i.i.i.i.i.i.i

cleanup.i.i.i.i.i.i.i.i.i.i.i.i.i:                ; preds = %is_not_null.i.i.i.i.i.i.i.i.i.i.i.i.i
  %65 = landingpad { ptr, i32 }
          cleanup
  %66 = getelementptr inbounds nuw i8, ptr %_6.val1.i.i.i.i.i.i.i.i.i.i.i, i64 8
  %67 = load i64, ptr %66, align 8, !range !23, !invariant.load !7, !noalias !279
  %68 = getelementptr inbounds nuw i8, ptr %_6.val1.i.i.i.i.i.i.i.i.i.i.i, i64 16
  %69 = load i64, ptr %68, align 8, !range !24, !invariant.load !7, !noalias !279
  %70 = add i64 %69, -1
  %71 = icmp sgt i64 %70, -1
  call void @llvm.assume(i1 %71), !noalias !261
  %72 = icmp eq i64 %67, 0
  br i1 %72, label %bb1.i.i.i.i.i.i.i.i.i.i.i, label %_RNvXs_NtCsdJPVW0sQgAG_5alloc5allocNtB4_6GlobalNtNtCsjMrxcFdYDNN_4core5alloc9Allocator10deallocate.exit.i4.i.i.i.i.i.i.i.i.i.i.i.i.i

_RNvXs_NtCsdJPVW0sQgAG_5alloc5allocNtB4_6GlobalNtNtCsjMrxcFdYDNN_4core5alloc9Allocator10deallocate.exit.i4.i.i.i.i.i.i.i.i.i.i.i.i.i: ; preds = %cleanup.i.i.i.i.i.i.i.i.i.i.i.i.i
; call __rustc::__rust_dealloc
  call void @_RNvCsKhRCbHf33p_7___rustc14___rust_dealloc(ptr noundef nonnull %_6.val.i.i.i.i.i.i.i.i.i.i.i, i64 noundef %67, i64 noundef range(i64 1, -9223372036854775807) %69) #29, !noalias !279
  br label %bb1.i.i.i.i.i.i.i.i.i.i.i

bb1.i.i.i.i.i.i.i.i.i.i.i:                        ; preds = %_RNvXs_NtCsdJPVW0sQgAG_5alloc5allocNtB4_6GlobalNtNtCsjMrxcFdYDNN_4core5alloc9Allocator10deallocate.exit.i4.i.i.i.i.i.i.i.i.i.i.i.i.i, %cleanup.i.i.i.i.i.i.i.i.i.i.i.i.i
; call __rustc::__rust_dealloc
  call void @_RNvCsKhRCbHf33p_7___rustc14___rust_dealloc(ptr noundef nonnull %49, i64 noundef 24, i64 noundef 8) #29, !noalias !279
  br label %bb7.i.i.i.i

_RINvNtCsjMrxcFdYDNN_4core3ptr13drop_in_placeINtNtCsdJPVW0sQgAG_5alloc5boxed3BoxNtNtNtCs5sEH5CPMdak_3std2io5error6CustomEECsC3JuwEIQwb_7console.exit.i.i.i.i.i.i.i.i.i.i: ; preds = %_RNvXs_NtCsdJPVW0sQgAG_5alloc5allocNtB4_6GlobalNtNtCsjMrxcFdYDNN_4core5alloc9Allocator10deallocate.exit.i.i.i.i.i.i.i.i.i.i.i.i.i.i, %bb3.i.i.i.i.i.i.i.i.i.i.i.i.i
; call __rustc::__rust_dealloc
  call void @_RNvCsKhRCbHf33p_7___rustc14___rust_dealloc(ptr noundef nonnull %49, i64 noundef 24, i64 noundef 8) #29, !noalias !279
  br label %bb1.i.i.i.i.i.i.backedge

bb1.i.i.i.i.i.i.backedge:                         ; preds = %_RINvNtCsjMrxcFdYDNN_4core3ptr13drop_in_placeINtNtCsdJPVW0sQgAG_5alloc5boxed3BoxNtNtNtCs5sEH5CPMdak_3std2io5error6CustomEECsC3JuwEIQwb_7console.exit.i.i.i.i.i.i.i.i.i.i, %bb17.i.i.i.i.i.i, %bb20.i.i.i.i.i.i, %bb4.i.i.i.i.i.i.i
  br label %bb1.i.i.i.i.i.i

bb7.i.i.i.i:                                      ; preds = %cleanup3.i.i.i.i, %cleanup.loopexit.split-lp.loopexit.split-lp.i.i.i.i, %cleanup.loopexit.split-lp.loopexit.i.i.i.i, %cleanup.loopexit.i.i.i.i, %bb1.i.i.i.i.i.i.i.i.i.i.i
  %.pn.i.i.i.i = phi { ptr, i32 } [ %75, %cleanup3.i.i.i.i ], [ %65, %bb1.i.i.i.i.i.i.i.i.i.i.i ], [ %lpad.loopexit.i.i.i.i, %cleanup.loopexit.i.i.i.i ], [ %lpad.loopexit18.i.i.i.i, %cleanup.loopexit.split-lp.loopexit.i.i.i.i ], [ %lpad.loopexit.split-lp19.i.i.i.i, %cleanup.loopexit.split-lp.loopexit.split-lp.i.i.i.i ]
; invoke <std::io::Guard as core::ops::drop::Drop>::drop
  invoke void @_RNvXNtCs5sEH5CPMdak_3std2ioNtB2_5GuardNtNtNtCsjMrxcFdYDNN_4core3ops4drop4Drop4drop(ptr noalias noundef nonnull align 8 dereferenceable(16) %g.i.i.i.i)
          to label %bb18.i unwind label %terminate.i.i.i.i, !noalias !220

cleanup.loopexit.i.i.i.i:                         ; preds = %bb1.i.i.i.i.i.i.i.i
  %lpad.loopexit.i.i.i.i = landingpad { ptr, i32 }
          cleanup
  br label %bb7.i.i.i.i

cleanup.loopexit.split-lp.loopexit.i.i.i.i:       ; preds = %bb1.i.i37.i.i.i.i.i.i, %bb2.i21.i.i.i.i.i.i
  %lpad.loopexit18.i.i.i.i = landingpad { ptr, i32 }
          cleanup
  br label %bb7.i.i.i.i

cleanup.loopexit.split-lp.loopexit.split-lp.i.i.i.i: ; preds = %bb1.i.i27.i.i.i.i.i.i, %bb6.i.i.i.i.i.i.i
  %lpad.loopexit.split-lp19.i.i.i.i = landingpad { ptr, i32 }
          cleanup
  br label %bb7.i.i.i.i

bb1.i.i.i.i:                                      ; preds = %bb21.i.i.i.i.i.i, %bb17.i.i.i.i.i.i, %bb20.i.i.i.i.i.i, %bb4.i.i.i.i.i.i.i, %bb11.i.i.i.i.i.i
  %_0.sroa.3.0.i.i.i.i.i.i = phi ptr [ %43, %bb11.i.i.i.i.i.i ], [ %29, %bb4.i.i.i.i.i.i.i ], [ %29, %bb20.i.i.i.i.i.i ], [ %29, %bb17.i.i.i.i.i.i ], [ %29, %bb21.i.i.i.i.i.i ]
  %_0.sroa.0.0.i.i.i.i.i.i = phi i64 [ 0, %bb11.i.i.i.i.i.i ], [ 1, %bb4.i.i.i.i.i.i.i ], [ 1, %bb20.i.i.i.i.i.i ], [ 1, %bb17.i.i.i.i.i.i ], [ 1, %bb21.i.i.i.i.i.i ]
  %self1.i.i.i.i = load ptr, ptr %g.i.i.i.i, align 8, !noalias !252, !nonnull !7, !align !22, !noundef !7
  %73 = getelementptr inbounds nuw i8, ptr %self1.i.i.i.i, i64 8
  %_21.i.i.i.i = load ptr, ptr %73, align 8, !noalias !220, !nonnull !7, !noundef !7
  %74 = getelementptr inbounds nuw i8, ptr %self1.i.i.i.i, i64 16
  %self2.i.i.i.i = load i64, ptr %74, align 8, !noalias !220, !noundef !7
  %index.i.i.i.i = load i64, ptr %20, align 8, !noalias !252, !noundef !7
  %new_len.i.i.i.i = sub nuw i64 %self2.i.i.i.i, %index.i.i.i.i
  %_27.i.i.i.i = getelementptr inbounds nuw i8, ptr %_21.i.i.i.i, i64 %index.i.i.i.i
  call void @llvm.lifetime.start.p0(i64 24, ptr nonnull %_12.i.i.i.i), !noalias !252
; invoke core::str::converts::from_utf8
  invoke void @_RNvNtNtCsjMrxcFdYDNN_4core3str8converts9from_utf8(ptr noalias noundef nonnull sret([24 x i8]) align 8 captures(none) dereferenceable(24) %_12.i.i.i.i, ptr noalias noundef nonnull readonly align 1 captures(address, read_provenance) %_27.i.i.i.i, i64 noundef %new_len.i.i.i.i)
          to label %bb2.i.i.i.i unwind label %cleanup3.i.i.i.i, !noalias !220

cleanup3.i.i.i.i:                                 ; preds = %bb1.i.i.i.i
  %75 = landingpad { ptr, i32 }
          cleanup
; invoke core::ptr::drop_in_place::<core::result::Result<usize, std::io::error::Error>>
  invoke fastcc void @_RINvNtCsjMrxcFdYDNN_4core3ptr13drop_in_placeINtNtB4_6result6ResultjNtNtNtCs5sEH5CPMdak_3std2io5error5ErrorEECsC3JuwEIQwb_7console(i64 %_0.sroa.0.0.i.i.i.i.i.i, ptr %_0.sroa.3.0.i.i.i.i.i.i) #32
          to label %bb7.i.i.i.i unwind label %terminate.i.i.i.i, !noalias !220

bb2.i.i.i.i:                                      ; preds = %bb1.i.i.i.i
  %_29.i.i.i.i = load i64, ptr %_12.i.i.i.i, align 8, !range !6, !noalias !252, !noundef !7
  %_28.not.i.i.i.i = icmp eq i64 %_29.i.i.i.i, 0
  call void @llvm.lifetime.end.p0(i64 24, ptr nonnull %_12.i.i.i.i), !noalias !252
  br i1 %_28.not.i.i.i.i, label %bb4.i.i.i.i, label %bb3.i.i.i39.i

bb4.i.i.i.i:                                      ; preds = %bb2.i.i.i.i
  %self4.i.i.i.i = load ptr, ptr %g.i.i.i.i, align 8, !noalias !252, !nonnull !7, !align !22, !noundef !7
  %76 = getelementptr inbounds nuw i8, ptr %self4.i.i.i.i, i64 16
  %_13.i.i.i.i = load i64, ptr %76, align 8, !noalias !220, !noundef !7
  %_33.i.i.i.i = icmp sgt i64 %_13.i.i.i.i, -1
  call void @llvm.assume(i1 %_33.i.i.i.i)
  store i64 %_13.i.i.i.i, ptr %20, align 8, !noalias !252
  br label %_RNvYINtNtNtNtCs5sEH5CPMdak_3std2io8buffered9bufreader9BufReaderNtNtBb_2fs4FileENtB9_7BufRead9read_lineCsC3JuwEIQwb_7console.exit.i.i

bb3.i.i.i39.i:                                    ; preds = %bb2.i.i.i.i
  %77 = trunc nuw i64 %_0.sroa.0.0.i.i.i.i.i.i to i1
  %spec.select.i.i.i.i = select i1 %77, ptr %_0.sroa.3.0.i.i.i.i.i.i, ptr @alloc_a679944945e039118b94625869e7de57
  br label %_RNvYINtNtNtNtCs5sEH5CPMdak_3std2io8buffered9bufreader9BufReaderNtNtBb_2fs4FileENtB9_7BufRead9read_lineCsC3JuwEIQwb_7console.exit.i.i

terminate.i.i.i.i:                                ; preds = %cleanup3.i.i.i.i, %bb7.i.i.i.i
  %78 = landingpad { ptr, i32 }
          filter [0 x ptr] zeroinitializer
; call core::panicking::panic_in_cleanup
  call void @_RNvNtCsjMrxcFdYDNN_4core9panicking16panic_in_cleanup() #31, !noalias !220
  unreachable

_RNvYINtNtNtNtCs5sEH5CPMdak_3std2io8buffered9bufreader9BufReaderNtNtBb_2fs4FileENtB9_7BufRead9read_lineCsC3JuwEIQwb_7console.exit.i.i: ; preds = %bb3.i.i.i39.i, %bb4.i.i.i.i
  %self.sroa.5.0.i.i.i.i = phi ptr [ %_0.sroa.3.0.i.i.i.i.i.i, %bb4.i.i.i.i ], [ %spec.select.i.i.i.i, %bb3.i.i.i39.i ]
  %self.sroa.0.0.i.i.i.i = phi i64 [ %_0.sroa.0.0.i.i.i.i.i.i, %bb4.i.i.i.i ], [ 1, %bb3.i.i.i39.i ]
; invoke <std::io::Guard as core::ops::drop::Drop>::drop
  invoke void @_RNvXNtCs5sEH5CPMdak_3std2ioNtB2_5GuardNtNtNtCsjMrxcFdYDNN_4core3ops4drop4Drop4drop(ptr noalias noundef nonnull align 8 dereferenceable(16) %g.i.i.i.i)
          to label %.noexc.i unwind label %cleanup2.i, !noalias !220

.noexc.i:                                         ; preds = %_RNvYINtNtNtNtCs5sEH5CPMdak_3std2io8buffered9bufreader9BufReaderNtNtBb_2fs4FileENtB9_7BufRead9read_lineCsC3JuwEIQwb_7console.exit.i.i
  call void @llvm.lifetime.end.p0(i64 16, ptr nonnull %g.i.i.i.i), !noalias !252
  %79 = insertvalue { i64, ptr } poison, i64 %self.sroa.0.0.i.i.i.i, 0
  %80 = insertvalue { i64, ptr } %79, ptr %self.sroa.5.0.i.i.i.i, 1
  br label %bb5.i

bb3.i41.i:                                        ; preds = %bb25.i
; invoke <std::io::stdio::Stdin>::read_line
  %81 = invoke { i64, ptr } @_RNvMs1_NtNtCs5sEH5CPMdak_3std2io5stdioNtB5_5Stdin9read_line(ptr noalias noundef nonnull readonly align 8 captures(address, read_provenance) dereferenceable(8) %val.sroa.4.0.input.sroa_idx.i, ptr noalias noundef nonnull align 8 dereferenceable(24) %rv.i)
          to label %bb5.i unwind label %cleanup2.i, !noalias !220

cleanup2.i:                                       ; preds = %bb26.i, %bb3.i41.i, %_RNvYINtNtNtNtCs5sEH5CPMdak_3std2io8buffered9bufreader9BufReaderNtNtBb_2fs4FileENtB9_7BufRead9read_lineCsC3JuwEIQwb_7console.exit.i.i
  %82 = landingpad { ptr, i32 }
          cleanup
  br label %bb18.i

bb5.i:                                            ; preds = %bb3.i41.i, %.noexc.i
  %.pn.i.i = phi { i64, ptr } [ %80, %.noexc.i ], [ %81, %bb3.i41.i ]
  %83 = extractvalue { i64, ptr } %.pn.i.i, 0
  %84 = extractvalue { i64, ptr } %.pn.i.i, 1
  %input.val23.i = load ptr, ptr %input.i, align 8, !noalias !220, !noundef !7
  %input.val24.i = load i32, ptr %val.sroa.4.sroa.5.0.val.sroa.4.0.input.sroa_idx.sroa_idx.i, align 8, !noalias !220
  %.not.i.i44.i = icmp eq ptr %input.val23.i, null
  %_2.sroa.0.0.i.i45.i = select i1 %.not.i.i44.i, i32 0, i32 %input.val24.i
  %_0.i.i46.i = call noundef i32 @tcsetattr(i32 noundef %_2.sroa.0.0.i.i45.i, i32 noundef 2, ptr noundef nonnull readonly align 8 dereferenceable(72) %original.i) #29, !noalias !220
  %85 = icmp eq i32 %_0.i.i46.i, 0
  br i1 %85, label %bb27.i, label %bb26.i

cleanup3.i:                                       ; preds = %bb30.i
  %86 = landingpad { ptr, i32 }
          cleanup
  br label %bb14.i

bb26.i:                                           ; preds = %bb5.i
  %_5.i48.i = tail call noundef ptr @__error() #29
  %_4.i49.i = load i32, ptr %_5.i48.i, align 4, !noalias !220, !noundef !7
  %_9.i50.i = sext i32 %_4.i49.i to i64
  %_8.i51.i = shl nsw i64 %_9.i50.i, 32
  %_7.i52.i = or disjoint i64 %_8.i51.i, 2
  %_14.i53.i = inttoptr i64 %_7.i52.i to ptr
  %87 = getelementptr inbounds nuw i8, ptr %_0, i64 8
  store ptr %_14.i53.i, ptr %87, align 8, !alias.scope !220
  store i64 -9223372036854775808, ptr %_0, align 8, !alias.scope !220
; invoke core::ptr::drop_in_place::<core::result::Result<usize, std::io::error::Error>>
  invoke fastcc void @_RINvNtCsjMrxcFdYDNN_4core3ptr13drop_in_placeINtNtB4_6result6ResultjNtNtNtCs5sEH5CPMdak_3std2io5error5ErrorEECsC3JuwEIQwb_7console(i64 %83, ptr %84)
          to label %bb8.i unwind label %cleanup2.i, !noalias !220

bb27.i:                                           ; preds = %bb5.i
  %_33.sroa.0.0.copyload.i = load i64, ptr %rv.i, align 8, !noalias !220
  %_33.sroa.5.0.copyload.i = load ptr, ptr %_50.sroa.4.0.rv.sroa_idx.i, align 8, !noalias !220
  %88 = trunc nuw i64 %83 to i1
  br i1 %88, label %bb29.i, label %bb30.i

bb29.i:                                           ; preds = %bb27.i
  %89 = getelementptr inbounds nuw i8, ptr %_0, i64 8
  store ptr %84, ptr %89, align 8, !alias.scope !220
  store i64 -9223372036854775808, ptr %_0, align 8, !alias.scope !220
  %90 = icmp eq i64 %_33.sroa.0.0.copyload.i, 0
  br i1 %90, label %bb28.i, label %bb2.i.i.i4.i.i.i.i

bb2.i.i.i4.i.i.i.i:                               ; preds = %bb29.i
  %91 = icmp ne ptr %_33.sroa.5.0.copyload.i, null
  call void @llvm.assume(i1 %91)
; call __rustc::__rust_dealloc
  call void @_RNvCsKhRCbHf33p_7___rustc14___rust_dealloc(ptr noundef nonnull %_33.sroa.5.0.copyload.i, i64 noundef %_33.sroa.0.0.copyload.i, i64 noundef range(i64 1, -9223372036854775807) 1) #29, !noalias !220
  br label %bb28.i

bb30.i:                                           ; preds = %bb27.i
  %_33.sroa.6.0.copyload.i = load i64, ptr %_50.sroa.5.0.rv.sroa_idx.i, align 8, !noalias !220
  call void @llvm.lifetime.start.p0(i64 24, ptr nonnull %_57.i), !noalias !220
  call void @llvm.lifetime.start.p0(i64 24, ptr nonnull %_58.i), !noalias !220
  store i64 %_33.sroa.0.0.copyload.i, ptr %_58.i, align 8, !noalias !220
  %_33.sroa.5.0._58.sroa_idx.i = getelementptr inbounds nuw i8, ptr %_58.i, i64 8
  store ptr %_33.sroa.5.0.copyload.i, ptr %_33.sroa.5.0._58.sroa_idx.i, align 8, !noalias !220
  %_33.sroa.6.0._58.sroa_idx.i = getelementptr inbounds nuw i8, ptr %_58.i, i64 16
  store i64 %_33.sroa.6.0.copyload.i, ptr %_33.sroa.6.0._58.sroa_idx.i, align 8, !noalias !220
; invoke console::unix_term::read_secure::{closure#3}
  invoke fastcc void @_RNCNvNtCsC3JuwEIQwb_7console9unix_term11read_secures1_0B5_(ptr noalias noundef align 8 captures(none) dereferenceable(24) %_57.i, ptr noalias noundef align 8 captures(address) dereferenceable(24) %_58.i)
          to label %bb31.i unwind label %cleanup3.i

bb31.i:                                           ; preds = %bb30.i
  call void @llvm.lifetime.end.p0(i64 24, ptr nonnull %_58.i), !noalias !220
  call void @llvm.memcpy.p0.p0.i64(ptr noundef nonnull align 8 dereferenceable(24) %_0, ptr noundef nonnull align 8 dereferenceable(24) %_57.i, i64 24, i1 false)
  call void @llvm.lifetime.end.p0(i64 24, ptr nonnull %_57.i), !noalias !220
  br label %bb28.i

bb28.i:                                           ; preds = %bb31.i, %bb2.i.i.i4.i.i.i.i, %bb29.i
  call void @llvm.lifetime.end.p0(i64 24, ptr nonnull %rv.i), !noalias !220
  call void @llvm.lifetime.end.p0(i64 72, ptr nonnull %original.i), !noalias !220
  call void @llvm.lifetime.end.p0(i64 72, ptr nonnull %termios1.i), !noalias !220
  call void @llvm.lifetime.end.p0(i64 72, ptr nonnull %termios.i), !noalias !220
  call void @llvm.experimental.noalias.scope.decl(metadata !305)
  %92 = load ptr, ptr %input.i, align 8, !alias.scope !305, !noalias !220, !noundef !7
  %93 = icmp eq ptr %92, null
  br i1 %93, label %_RNvNtCsC3JuwEIQwb_7console9unix_term11read_secure.exit, label %bb2.i55.i

bb2.i55.i:                                        ; preds = %bb28.i
  call void @llvm.experimental.noalias.scope.decl(metadata !308)
  %_1.val2.i.i.i = load i64, ptr %val.sroa.4.0.input.sroa_idx.i, align 8, !alias.scope !311, !noalias !220, !noundef !7
  %94 = icmp eq i64 %_1.val2.i.i.i, 0
  br i1 %94, label %_RNvNtCsC3JuwEIQwb_7console9unix_term11read_secure.exit.sink.split, label %_RNvXs_NtCsdJPVW0sQgAG_5alloc5allocNtB4_6GlobalNtNtCsjMrxcFdYDNN_4core5alloc9Allocator10deallocate.exit.i.i.i.i.i.i

_RNvXs_NtCsdJPVW0sQgAG_5alloc5allocNtB4_6GlobalNtNtCsjMrxcFdYDNN_4core5alloc9Allocator10deallocate.exit.i.i.i.i.i.i: ; preds = %bb2.i55.i
