; ModuleID = 'heck.1a1dfad340048966-cgu.0'
source_filename = "heck.1a1dfad340048966-cgu.0"
target datalayout = "e-m:o-p270:32:32-p271:32:32-p272:64:64-i64:64-i128:128-n32:64-S128-Fn32"
target triple = "arm64-apple-macosx11.0.0"

@alloc_cea3b8959a83461a5d607431cd4e6334 = private unnamed_addr constant [94 x i8] c"/Users/hongyaotang/.cargo/registry/src/index.crates.io-1949cf8c6b5b557f/heck-0.5.0/src/lib.rs\00", align 1
@alloc_13b4bf5d328eab9b8df3f7027955d33b = private unnamed_addr constant <{ ptr, [16 x i8] }> <{ ptr @alloc_cea3b8959a83461a5d607431cd4e6334, [16 x i8] c"]\00\00\00\00\00\00\00\98\00\00\00 \00\00\00" }>, align 8
@alloc_308f8938e9762d461fc13622ca97483f = private unnamed_addr constant <{ ptr, [16 x i8] }> <{ ptr @alloc_cea3b8959a83461a5d607431cd4e6334, [16 x i8] c"]\00\00\00\00\00\00\00\89\00\00\00$\00\00\00" }>, align 8
@alloc_a50a5070980a36c272121b09121457de = private unnamed_addr constant <{ ptr, [16 x i8] }> <{ ptr @alloc_cea3b8959a83461a5d607431cd4e6334, [16 x i8] c"]\00\00\00\00\00\00\00|\00\00\00$\00\00\00" }>, align 8
@alloc_0c812808379efded5a4fb82d2790b556 = private unnamed_addr constant [2 x i8] c"\C0\00", align 1
@alloc_4e2f5c99210b7b3b4346cc992c5fffc9 = private unnamed_addr constant <{ ptr, [16 x i8] }> <{ ptr @alloc_cea3b8959a83461a5d607431cd4e6334, [16 x i8] c"]\00\00\00\00\00\00\00\BB\00\00\00\19\00\00\00" }>, align 8
@alloc_ce246300cd91ffc3b77a40cb1bee254d = private unnamed_addr constant [2 x i8] c"\CF\82", align 1
@vtable.0 = private unnamed_addr constant <{ [24 x i8], ptr }> <{ [24 x i8] c"\00\00\00\00\00\00\00\00\00\00\00\00\00\00\00\00\01\00\00\00\00\00\00\00", ptr @_RNvXsK_NtCsjMrxcFdYDNN_4core3fmtNtB5_5ErrorNtB5_5Debug3fmt }>, align 8
@vtable.1 = private unnamed_addr constant <{ ptr, [16 x i8], ptr, ptr, ptr }> <{ ptr @_RINvNtCsjMrxcFdYDNN_4core3ptr13drop_in_placeNtNtCsdJPVW0sQgAG_5alloc6string6StringECs2f1hMIlW3Va_4heck, [16 x i8] c"\18\00\00\00\00\00\00\00\08\00\00\00\00\00\00\00", ptr @_RNvXsZ_NtCsdJPVW0sQgAG_5alloc6stringNtB5_6StringNtNtCsjMrxcFdYDNN_4core3fmt5Write9write_str, ptr @_RNvXsZ_NtCsdJPVW0sQgAG_5alloc6stringNtB5_6StringNtNtCsjMrxcFdYDNN_4core3fmt5Write10write_char, ptr @_RNvYNtNtCsdJPVW0sQgAG_5alloc6string6StringNtNtCsjMrxcFdYDNN_4core3fmt5Write9write_fmtCs2f1hMIlW3Va_4heck }>, align 8
@alloc_cc656815297f75969399c3f4b1ad3de4 = private unnamed_addr constant [55 x i8] c"a Display implementation returned an error unexpectedly", align 1
@alloc_82687d2573a6ed8a4d1fcf733f159466 = private unnamed_addr constant [116 x i8] c"/Users/hongyaotang/.rustup/toolchains/nightly-aarch64-apple-darwin/lib/rustlib/src/rust/library/alloc/src/string.rs\00", align 1
@alloc_f3c70bf9d2724ff8f638341943ddf3c8 = private unnamed_addr constant <{ ptr, [16 x i8] }> <{ ptr @alloc_82687d2573a6ed8a4d1fcf733f159466, [16 x i8] c"s\00\00\00\00\00\00\00f\0B\00\00\0E\00\00\00" }>, align 8
@alloc_99ac8a81a24cac863217ce4a5cbfabea = private unnamed_addr constant [5 x i8] c"Error", align 1

; core::ptr::drop_in_place::<alloc::string::String>
; Function Attrs: nounwind uwtable
define internal void @_RINvNtCsjMrxcFdYDNN_4core3ptr13drop_in_placeNtNtCsdJPVW0sQgAG_5alloc6string6StringECs2f1hMIlW3Va_4heck(ptr noalias noundef readonly align 8 captures(none) dereferenceable(24) %_1) unnamed_addr #0 personality ptr @rust_eh_personality {
start:
  %_1.val = load i64, ptr %_1, align 8
  %0 = icmp eq i64 %_1.val, 0
  br i1 %0, label %_RINvNtCsjMrxcFdYDNN_4core3ptr13drop_in_placeINtNtCsdJPVW0sQgAG_5alloc3vec3VechEECs2f1hMIlW3Va_4heck.exit, label %_RNvXs_NtCsdJPVW0sQgAG_5alloc5allocNtB4_6GlobalNtNtCsjMrxcFdYDNN_4core5alloc9Allocator10deallocate.exit.i.i.i4.i

_RNvXs_NtCsdJPVW0sQgAG_5alloc5allocNtB4_6GlobalNtNtCsjMrxcFdYDNN_4core5alloc9Allocator10deallocate.exit.i.i.i4.i: ; preds = %start
  %1 = getelementptr inbounds nuw i8, ptr %_1, i64 8
  %_1.val1 = load ptr, ptr %1, align 8, !nonnull !2, !noundef !2
; call __rustc::__rust_dealloc
  tail call void @_RNvCsKhRCbHf33p_7___rustc14___rust_dealloc(ptr noundef nonnull %_1.val1, i64 noundef %_1.val, i64 noundef range(i64 1, -9223372036854775807) 1) #17
  br label %_RINvNtCsjMrxcFdYDNN_4core3ptr13drop_in_placeINtNtCsdJPVW0sQgAG_5alloc3vec3VechEECs2f1hMIlW3Va_4heck.exit

_RINvNtCsjMrxcFdYDNN_4core3ptr13drop_in_placeINtNtCsdJPVW0sQgAG_5alloc3vec3VechEECs2f1hMIlW3Va_4heck.exit: ; preds = %start, %_RNvXs_NtCsdJPVW0sQgAG_5alloc5allocNtB4_6GlobalNtNtCsjMrxcFdYDNN_4core5alloc9Allocator10deallocate.exit.i.i.i4.i
  ret void
}

; <alloc::raw_vec::RawVecInner<_>>::reserve::do_reserve_and_handle::<alloc::alloc::Global>
; Function Attrs: cold uwtable
define internal fastcc void @_RINvNvMs2_NtCsdJPVW0sQgAG_5alloc7raw_vecINtB8_11RawVecInnerpE7reserve21do_reserve_and_handleNtNtBa_5alloc6GlobalECs2f1hMIlW3Va_4heck(ptr noalias noundef nonnull align 8 captures(none) dereferenceable(16) %slf, i64 noundef %len, i64 noundef %additional) unnamed_addr #1 personality ptr @rust_eh_personality {
start:
  %self3.i = alloca [24 x i8], align 8
  tail call void @llvm.experimental.noalias.scope.decl(metadata !3)
  %_25.0.i = add i64 %additional, %len
  %_25.1.i = icmp ult i64 %_25.0.i, %len
  br i1 %_25.1.i, label %bb2, label %bb9.i

bb9.i:                                            ; preds = %start
  %self5.i = load i64, ptr %slf, align 8, !range !6, !alias.scope !3, !noundef !2
  %v16.i = shl nuw i64 %self5.i, 1
  %_0.sroa.0.0.i.i = tail call noundef i64 @llvm.umax.i64(i64 %_25.0.i, i64 range(i64 0, -1) %v16.i)
  %_0.sroa.0.0.i16.i = tail call noundef i64 @llvm.umax.i64(i64 %_0.sroa.0.0.i.i, i64 8)
  call void @llvm.lifetime.start.p0(i64 24, ptr nonnull %self3.i), !noalias !3
  %0 = getelementptr inbounds nuw i8, ptr %slf, i64 8
  %self.val15.i = load ptr, ptr %0, align 8, !alias.scope !3
; call <alloc::raw_vec::RawVecInner>::finish_grow
  call fastcc void @_RNvMs4_NtCsdJPVW0sQgAG_5alloc7raw_vecNtB5_11RawVecInner11finish_growCs2f1hMIlW3Va_4heck(ptr noalias noundef align 8 captures(none) dereferenceable(24) %self3.i, i64 %self5.i, ptr %self.val15.i, i64 noundef %_0.sroa.0.0.i16.i)
  %_35.i = load i64, ptr %self3.i, align 8, !range !7, !noalias !3, !noundef !2
  %1 = trunc nuw i64 %_35.i to i1
  %2 = getelementptr inbounds nuw i8, ptr %self3.i, i64 8
  br i1 %1, label %bb18.i, label %bb3

bb18.i:                                           ; preds = %bb9.i
  %e.0.i = load i64, ptr %2, align 8, !range !8, !noalias !3, !noundef !2
  %3 = getelementptr inbounds nuw i8, ptr %self3.i, i64 16
  %e.1.i = load i64, ptr %3, align 8, !noalias !3
  call void @llvm.lifetime.end.p0(i64 24, ptr nonnull %self3.i), !noalias !3
  br label %bb2

bb2:                                              ; preds = %bb18.i, %start
  %_0.sroa.5.0.i.ph = phi i64 [ undef, %start ], [ %e.1.i, %bb18.i ]
  %_0.sroa.0.0.i.ph = phi i64 [ 0, %start ], [ %e.0.i, %bb18.i ]
; call alloc::raw_vec::handle_error
  tail call void @_RNvNtCsdJPVW0sQgAG_5alloc7raw_vec12handle_error(i64 noundef %_0.sroa.0.0.i.ph, i64 %_0.sroa.5.0.i.ph) #18
  unreachable

bb3:                                              ; preds = %bb9.i
  %v.0.i = load ptr, ptr %2, align 8, !noalias !3, !nonnull !2, !noundef !2
  call void @llvm.lifetime.end.p0(i64 24, ptr nonnull %self3.i), !noalias !3
  store ptr %v.0.i, ptr %0, align 8, !alias.scope !3
  %4 = icmp sgt i64 %_0.sroa.0.0.i16.i, -1
  tail call void @llvm.assume(i1 %4)
  store i64 %_0.sroa.0.0.i16.i, ptr %slf, align 8, !alias.scope !3
  ret void
}

; heck::capitalize
; Function Attrs: uwtable
define noundef zeroext i1 @_RNvCs2f1hMIlW3Va_4heck10capitalize(ptr noalias noundef nonnull readonly align 1 captures(address, read_provenance) %s.0, i64 noundef %s.1, ptr noalias noundef readonly align 8 captures(none) dereferenceable(24) %f) unnamed_addr #2 personality ptr @rust_eh_personality {
start:
  %_33 = alloca [12 x i8], align 8
  %args = alloca [16 x i8], align 8
  %_11 = alloca [32 x i8], align 8
  %_28 = getelementptr inbounds nuw i8, ptr %s.0, i64 %s.1
  %0 = ptrtoint ptr %s.0 to i64
  %_6.i.i.i = icmp samesign eq i64 %s.1, 0
  br i1 %_6.i.i.i, label %bb12, label %bb14.i.i

bb14.i.i:                                         ; preds = %start
  %_16.i.i.i = getelementptr inbounds nuw i8, ptr %s.0, i64 1
  %x.i.i = load i8, ptr %s.0, align 1, !noalias !9, !noundef !2
  %_6.i.i = icmp sgt i8 %x.i.i, -1
  br i1 %_6.i.i, label %bb3.i.i, label %bb4.i.i

bb4.i.i:                                          ; preds = %bb14.i.i
  %_30.i.i = and i8 %x.i.i, 31
  %init.i.i = zext nneg i8 %_30.i.i to i32
  %_6.i10.i.i = icmp samesign ne i64 %s.1, 1
  tail call void @llvm.assume(i1 %_6.i10.i.i)
  %_16.i12.i.i = getelementptr inbounds nuw i8, ptr %s.0, i64 2
  %y.i.i = load i8, ptr %_16.i.i.i, align 1, !noalias !9, !noundef !2
  %_33.i.i = shl nuw nsw i32 %init.i.i, 6
  %_35.i.i = and i8 %y.i.i, 63
  %_34.i.i = zext nneg i8 %_35.i.i to i32
  %1 = or disjoint i32 %_33.i.i, %_34.i.i
  %_13.i.i = icmp samesign ugt i8 %x.i.i, -33
  br i1 %_13.i.i, label %bb6.i.i, label %bb2

bb3.i.i:                                          ; preds = %bb14.i.i
  %_7.i.i = zext nneg i8 %x.i.i to i32
  br label %bb2

bb6.i.i:                                          ; preds = %bb4.i.i
  %_6.i17.i.i = icmp samesign ne i64 %s.1, 2
  tail call void @llvm.assume(i1 %_6.i17.i.i)
  %_16.i19.i.i = getelementptr inbounds nuw i8, ptr %s.0, i64 3
  %z.i.i = load i8, ptr %_16.i12.i.i, align 1, !noalias !9, !noundef !2
  %_38.i.i = shl nuw nsw i32 %_34.i.i, 6
  %_40.i.i = and i8 %z.i.i, 63
  %_39.i.i = zext nneg i8 %_40.i.i to i32
  %y_z.i.i = or disjoint i32 %_38.i.i, %_39.i.i
  %_20.i.i = shl nuw nsw i32 %init.i.i, 12
  %2 = or disjoint i32 %y_z.i.i, %_20.i.i
  %_21.i.i = icmp samesign ugt i8 %x.i.i, -17
  br i1 %_21.i.i, label %bb8.i.i, label %bb2

bb8.i.i:                                          ; preds = %bb6.i.i
  %_6.i24.i.i = icmp samesign ne i64 %s.1, 3
  tail call void @llvm.assume(i1 %_6.i24.i.i)
  %_16.i26.i.i = getelementptr inbounds nuw i8, ptr %s.0, i64 4
  %w.i.i = load i8, ptr %_16.i19.i.i, align 1, !noalias !9, !noundef !2
  %_26.i.i = shl nuw nsw i32 %init.i.i, 18
  %_25.i.i = and i32 %_26.i.i, 1835008
  %_43.i.i = shl nuw nsw i32 %y_z.i.i, 6
  %_45.i.i = and i8 %w.i.i, 63
  %_44.i.i = zext nneg i8 %_45.i.i to i32
  %_27.i.i = or disjoint i32 %_43.i.i, %_44.i.i
  %3 = or disjoint i32 %_27.i.i, %_25.i.i
  br label %bb2

bb2:                                              ; preds = %bb8.i.i, %bb6.i.i, %bb3.i.i, %bb4.i.i
  %char_indices.sroa.0.0 = phi ptr [ %_16.i.i.i, %bb3.i.i ], [ %_16.i26.i.i, %bb8.i.i ], [ %_16.i19.i.i, %bb6.i.i ], [ %_16.i12.i.i, %bb4.i.i ]
  %_0.sroa.4.0.i.ph.i = phi i32 [ %_7.i.i, %bb3.i.i ], [ %3, %bb8.i.i ], [ %2, %bb6.i.i ], [ %1, %bb4.i.i ]
  %4 = icmp samesign ult i32 %_0.sroa.4.0.i.ph.i, 1114112
  tail call void @llvm.assume(i1 %4)
  %5 = ptrtoint ptr %char_indices.sroa.0.0 to i64
  %6 = sub i64 %5, %0
  call void @llvm.lifetime.start.p0(i64 32, ptr nonnull %_11)
; call core::unicode::unicode_data::conversions::to_upper
  call void @_RNvNtNtNtCsjMrxcFdYDNN_4core7unicode12unicode_data11conversions8to_upper(ptr noalias noundef nonnull sret([12 x i8]) align 4 captures(none) dereferenceable(12) %_33, i32 noundef %_0.sroa.4.0.i.ph.i)
  %7 = getelementptr inbounds nuw i8, ptr %_33, i64 8
  %_3.i = load i32, ptr %7, align 8, !range !14, !noundef !2
  %8 = icmp eq i32 %_3.i, 0
  %9 = getelementptr inbounds nuw i8, ptr %_33, i64 4
  %_6.i = load i32, ptr %9, align 4, !range !14
  %10 = icmp eq i32 %_6.i, 0
  %spec.select.i = select i1 %10, i64 1, i64 2
  %iter.sroa.4.0.i = select i1 %8, i64 %spec.select.i, i64 3
  store i64 0, ptr %_11, align 8
  %_32.sroa.4.0._11.sroa_idx = getelementptr inbounds nuw i8, ptr %_11, i64 8
  store i64 %iter.sroa.4.0.i, ptr %_32.sroa.4.0._11.sroa_idx, align 8
  %_32.sroa.5.0._11.sroa_idx = getelementptr inbounds nuw i8, ptr %_11, i64 16
  call void @llvm.memcpy.p0.p0.i64(ptr noundef nonnull align 8 dereferenceable(12) %_32.sroa.5.0._11.sroa_idx, ptr noundef nonnull align 8 dereferenceable(12) %_33, i64 12, i1 false)
  call void @llvm.lifetime.start.p0(i64 16, ptr nonnull %args)
  store ptr %_11, ptr %args, align 8
  %_13.sroa.4.0..sroa_idx = getelementptr inbounds nuw i8, ptr %args, i64 8
  store ptr @_RNvXsB_NtCsjMrxcFdYDNN_4core4charNtB5_11ToLowercaseNtNtB7_3fmt7Display3fmt, ptr %_13.sroa.4.0..sroa_idx, align 8
  %_45.0 = load ptr, ptr %f, align 8, !nonnull !2, !align !15, !noundef !2
  %11 = getelementptr inbounds nuw i8, ptr %f, i64 8
  %_45.1 = load ptr, ptr %11, align 8, !nonnull !2, !align !16, !noundef !2
; call core::fmt::write
  %12 = call noundef zeroext i1 @_RNvNtCsjMrxcFdYDNN_4core3fmt5write(ptr noundef nonnull align 1 %_45.0, ptr noalias noundef nonnull readonly align 8 captures(address, read_provenance) dereferenceable(48) %_45.1, ptr noundef nonnull @alloc_0c812808379efded5a4fb82d2790b556, ptr noundef nonnull %args)
  call void @llvm.lifetime.end.p0(i64 16, ptr nonnull %args)
  call void @llvm.lifetime.end.p0(i64 32, ptr nonnull %_11)
  br i1 %12, label %bb11, label %bb23

bb23:                                             ; preds = %bb2
  %_6.i.i.i14 = icmp eq ptr %char_indices.sroa.0.0, %_28
  br i1 %_6.i.i.i14, label %bb12, label %bb14.i.i15

bb14.i.i15:                                       ; preds = %bb23
  %x.i.i17 = load i8, ptr %char_indices.sroa.0.0, align 1, !noalias !17, !noundef !2
  %_6.i.i18 = icmp sgt i8 %x.i.i17, -1
  br i1 %_6.i.i18, label %bb3.i.i56, label %bb4.i.i19

bb4.i.i19:                                        ; preds = %bb14.i.i15
  %_16.i.i.i16 = getelementptr inbounds nuw i8, ptr %char_indices.sroa.0.0, i64 1
  %_30.i.i20 = and i8 %x.i.i17, 31
  %init.i.i21 = zext nneg i8 %_30.i.i20 to i32
  %_6.i10.i.i22 = icmp ne ptr %_16.i.i.i16, %_28
  call void @llvm.assume(i1 %_6.i10.i.i22)
  %y.i.i24 = load i8, ptr %_16.i.i.i16, align 1, !noalias !17, !noundef !2
  %_33.i.i25 = shl nuw nsw i32 %init.i.i21, 6
  %_35.i.i26 = and i8 %y.i.i24, 63
  %_34.i.i27 = zext nneg i8 %_35.i.i26 to i32
  %13 = or disjoint i32 %_33.i.i25, %_34.i.i27
  %_13.i.i28 = icmp samesign ugt i8 %x.i.i17, -33
  br i1 %_13.i.i28, label %bb6.i.i36, label %bb6

bb3.i.i56:                                        ; preds = %bb14.i.i15
  %_7.i.i57 = zext nneg i8 %x.i.i17 to i32
  br label %bb6

bb6.i.i36:                                        ; preds = %bb4.i.i19
  %_16.i12.i.i23 = getelementptr inbounds nuw i8, ptr %char_indices.sroa.0.0, i64 2
  %_6.i17.i.i37 = icmp ne ptr %_16.i12.i.i23, %_28
  call void @llvm.assume(i1 %_6.i17.i.i37)
  %z.i.i39 = load i8, ptr %_16.i12.i.i23, align 1, !noalias !17, !noundef !2
  %_38.i.i40 = shl nuw nsw i32 %_34.i.i27, 6
  %_40.i.i41 = and i8 %z.i.i39, 63
  %_39.i.i42 = zext nneg i8 %_40.i.i41 to i32
  %y_z.i.i43 = or disjoint i32 %_38.i.i40, %_39.i.i42
  %_20.i.i44 = shl nuw nsw i32 %init.i.i21, 12
  %14 = or disjoint i32 %y_z.i.i43, %_20.i.i44
  %_21.i.i45 = icmp samesign ugt i8 %x.i.i17, -17
  br i1 %_21.i.i45, label %bb8.i.i46, label %bb6

bb8.i.i46:                                        ; preds = %bb6.i.i36
  %_16.i19.i.i38 = getelementptr inbounds nuw i8, ptr %char_indices.sroa.0.0, i64 3
  %_6.i24.i.i47 = icmp ne ptr %_16.i19.i.i38, %_28
  call void @llvm.assume(i1 %_6.i24.i.i47)
  %w.i.i49 = load i8, ptr %_16.i19.i.i38, align 1, !noalias !17, !noundef !2
  %_26.i.i50 = shl nuw nsw i32 %init.i.i21, 18
  %_25.i.i51 = and i32 %_26.i.i50, 1835008
  %_43.i.i52 = shl nuw nsw i32 %y_z.i.i43, 6
  %_45.i.i53 = and i8 %w.i.i49, 63
  %_44.i.i54 = zext nneg i8 %_45.i.i53 to i32
  %_27.i.i55 = or disjoint i32 %_43.i.i52, %_44.i.i54
  %15 = or disjoint i32 %_27.i.i55, %_25.i.i51
  br label %bb6

bb6:                                              ; preds = %bb8.i.i46, %bb6.i.i36, %bb3.i.i56, %bb4.i.i19
  %_0.sroa.4.0.i.ph.i31 = phi i32 [ %13, %bb4.i.i19 ], [ %14, %bb6.i.i36 ], [ %15, %bb8.i.i46 ], [ %_7.i.i57, %bb3.i.i56 ]
  %16 = icmp samesign ult i32 %_0.sroa.4.0.i.ph.i31, 1114112
  call void @llvm.assume(i1 %16)
  %_8.not.i = icmp ult i64 %6, %s.1
  br i1 %_8.not.i, label %bb9.i, label %bb6.i

bb6.i:                                            ; preds = %bb6
  %17 = icmp eq i64 %6, %s.1
  br i1 %17, label %bb26, label %bb25

bb9.i:                                            ; preds = %bb6
  %18 = getelementptr inbounds nuw i8, ptr %s.0, i64 %6
  %self1.i = load i8, ptr %18, align 1, !alias.scope !22, !noundef !2
  %19 = icmp sgt i8 %self1.i, -65
  br i1 %19, label %bb26, label %bb25

bb26:                                             ; preds = %bb9.i, %bb6.i
  %new_len.i = sub nuw i64 %s.1, %6
  %data.i = getelementptr inbounds nuw i8, ptr %s.0, i64 %6
; call heck::lowercase
  %_19 = call noundef zeroext i1 @_RNvCs2f1hMIlW3Va_4heck9lowercase(ptr noalias noundef nonnull readonly align 1 captures(address, read_provenance) %data.i, i64 noundef %new_len.i, ptr noalias noundef nonnull align 8 dereferenceable(24) %f)
  br i1 %_19, label %bb11, label %bb12

bb25:                                             ; preds = %bb9.i, %bb6.i
; call core::str::slice_error_fail
  call void @_RNvNtCsjMrxcFdYDNN_4core3str16slice_error_fail(ptr noalias noundef nonnull readonly align 1 captures(address, read_provenance) %s.0, i64 noundef %s.1, i64 noundef %6, i64 noundef %s.1, ptr noalias noundef readonly align 8 captures(address, read_provenance) dereferenceable(24) @alloc_4e2f5c99210b7b3b4346cc992c5fffc9) #19
  unreachable

bb11:                                             ; preds = %bb2, %bb26
  br label %bb12

bb12:                                             ; preds = %bb23, %start, %bb26, %bb11
  %_0.sroa.0.1.off0 = phi i1 [ true, %bb11 ], [ false, %bb26 ], [ false, %start ], [ false, %bb23 ]
  ret i1 %_0.sroa.0.1.off0
}

; heck::lowercase
; Function Attrs: uwtable
define noundef zeroext i1 @_RNvCs2f1hMIlW3Va_4heck9lowercase(ptr noalias noundef nonnull readonly align 1 captures(address) %s.0, i64 noundef %s.1, ptr noalias noundef readonly align 8 captures(none) dereferenceable(24) %f) unnamed_addr #2 personality ptr @rust_eh_personality {
start:
  %_63 = alloca [12 x i8], align 4
  %args = alloca [16 x i8], align 8
  %_13 = alloca [32 x i8], align 8
  %_22 = getelementptr inbounds nuw i8, ptr %s.0, i64 %s.1
  %0 = getelementptr inbounds nuw i8, ptr %_63, i64 8
  %1 = getelementptr inbounds nuw i8, ptr %_63, i64 4
  %_62.sroa.4.0._13.sroa_idx = getelementptr inbounds nuw i8, ptr %_13, i64 8
  %_62.sroa.5.0._13.sroa_idx = getelementptr inbounds nuw i8, ptr %_13, i64 16
  %_15.sroa.4.0..sroa_idx = getelementptr inbounds nuw i8, ptr %args, i64 8
  %_75.0 = load ptr, ptr %f, align 8, !nonnull !2, !align !15
  %2 = getelementptr inbounds nuw i8, ptr %f, i64 8
  %_75.1 = load ptr, ptr %2, align 8, !nonnull !2, !align !16
  %3 = getelementptr inbounds nuw i8, ptr %_75.1, i64 24
  br label %bb1

bb1:                                              ; preds = %bb1.backedge, %start
  %chars.sroa.17.0 = phi i32 [ 1114113, %start ], [ %chars.sroa.17.0.be, %bb1.backedge ]
  %chars.sroa.0.0 = phi ptr [ %s.0, %start ], [ %chars.sroa.0.0.be, %bb1.backedge ]
  switch i32 %chars.sroa.17.0, label %bb2 [
    i32 1114113, label %bb14
    i32 1114112, label %bb11
  ]

bb14:                                             ; preds = %bb1
  %_6.i.i = icmp eq ptr %chars.sroa.0.0, %_22
  br i1 %_6.i.i, label %bb11, label %bb14.i

bb14.i:                                           ; preds = %bb14
  %_16.i.i = getelementptr inbounds nuw i8, ptr %chars.sroa.0.0, i64 1
  %x.i = load i8, ptr %chars.sroa.0.0, align 1, !noalias !25, !noundef !2
  %_6.i = icmp sgt i8 %x.i, -1
  br i1 %_6.i, label %bb3.i, label %bb4.i

bb4.i:                                            ; preds = %bb14.i
  %_30.i = and i8 %x.i, 31
  %init.i = zext nneg i8 %_30.i to i32
  %_6.i10.i = icmp ne ptr %_16.i.i, %_22
  call void @llvm.assume(i1 %_6.i10.i)
  %_16.i12.i = getelementptr inbounds nuw i8, ptr %chars.sroa.0.0, i64 2
  %y.i = load i8, ptr %_16.i.i, align 1, !noalias !25, !noundef !2
  %_33.i = shl nuw nsw i32 %init.i, 6
  %_35.i = and i8 %y.i, 63
  %_34.i = zext nneg i8 %_35.i to i32
  %4 = or disjoint i32 %_33.i, %_34.i
  %_13.i = icmp samesign ugt i8 %x.i, -33
  br i1 %_13.i, label %bb6.i, label %bb18

bb3.i:                                            ; preds = %bb14.i
  %_7.i = zext nneg i8 %x.i to i32
  br label %bb18

bb6.i:                                            ; preds = %bb4.i
  %_6.i17.i = icmp ne ptr %_16.i12.i, %_22
  call void @llvm.assume(i1 %_6.i17.i)
  %_16.i19.i = getelementptr inbounds nuw i8, ptr %chars.sroa.0.0, i64 3
  %z.i = load i8, ptr %_16.i12.i, align 1, !noalias !25, !noundef !2
  %_38.i = shl nuw nsw i32 %_34.i, 6
  %_40.i = and i8 %z.i, 63
  %_39.i = zext nneg i8 %_40.i to i32
  %y_z.i = or disjoint i32 %_38.i, %_39.i
  %_20.i = shl nuw nsw i32 %init.i, 12
  %5 = or disjoint i32 %y_z.i, %_20.i
  %_21.i = icmp samesign ugt i8 %x.i, -17
  br i1 %_21.i, label %bb8.i, label %bb18

bb8.i:                                            ; preds = %bb6.i
  %_6.i24.i = icmp ne ptr %_16.i19.i, %_22
  call void @llvm.assume(i1 %_6.i24.i)
  %_16.i26.i = getelementptr inbounds nuw i8, ptr %chars.sroa.0.0, i64 4
  %w.i = load i8, ptr %_16.i19.i, align 1, !noalias !25, !noundef !2
  %_26.i = shl nuw nsw i32 %init.i, 18
  %_25.i = and i32 %_26.i, 1835008
  %_43.i = shl nuw nsw i32 %y_z.i, 6
  %_45.i = and i8 %w.i, 63
  %_44.i = zext nneg i8 %_45.i to i32
  %_27.i = or disjoint i32 %_43.i, %_44.i
  %6 = or disjoint i32 %_27.i, %_25.i
  br label %bb18

bb18:                                             ; preds = %bb3.i, %bb8.i, %bb6.i, %bb4.i
  %chars.sroa.0.4.ph = phi ptr [ %_16.i12.i, %bb4.i ], [ %_16.i19.i, %bb6.i ], [ %_16.i26.i, %bb8.i ], [ %_16.i.i, %bb3.i ]
  %_0.sroa.4.0.i.ph = phi i32 [ %4, %bb4.i ], [ %5, %bb6.i ], [ %6, %bb8.i ], [ %_7.i, %bb3.i ]
  %7 = icmp samesign ult i32 %_0.sroa.4.0.i.ph, 1114112
  call void @llvm.assume(i1 %7)
  br label %bb2

bb2:                                              ; preds = %bb1, %bb18
  %chars.sroa.0.1 = phi ptr [ %chars.sroa.0.0, %bb1 ], [ %chars.sroa.0.4.ph, %bb18 ]
  %_5.sroa.0.0 = phi i32 [ %chars.sroa.17.0, %bb1 ], [ %_0.sroa.4.0.i.ph, %bb18 ]
  %8 = icmp eq i32 %_5.sroa.0.0, 931
  br i1 %8, label %bb1.i, label %bb5

bb1.i:                                            ; preds = %bb2
  %_6.i.i.not.i.i.i = icmp eq ptr %chars.sroa.0.1, %_22
  br i1 %_6.i.i.not.i.i.i, label %bb47, label %bb14.i.i.i.i

bb14.i.i.i.i:                                     ; preds = %bb1.i
  %_16.i.i.i.i.i = getelementptr inbounds nuw i8, ptr %chars.sroa.0.1, i64 1
  %x.i.i.i.i = load i8, ptr %chars.sroa.0.1, align 1, !noalias !28, !noundef !2
  %_6.i.i.i.i = icmp sgt i8 %x.i.i.i.i, -1
  br i1 %_6.i.i.i.i, label %bb3.i.i.i.i, label %bb4.i.i.i.i

bb4.i.i.i.i:                                      ; preds = %bb14.i.i.i.i
  %_30.i.i.i.i = and i8 %x.i.i.i.i, 31
  %init.i.i.i.i = zext nneg i8 %_30.i.i.i.i to i32
  %_6.i10.i.i.i.i = icmp ne ptr %_16.i.i.i.i.i, %_22
  call void @llvm.assume(i1 %_6.i10.i.i.i.i)
  %_16.i12.i.i.i.i = getelementptr inbounds nuw i8, ptr %chars.sroa.0.1, i64 2
  %y.i.i.i.i = load i8, ptr %_16.i.i.i.i.i, align 1, !noalias !28, !noundef !2
  %_33.i.i.i.i = shl nuw nsw i32 %init.i.i.i.i, 6
  %_35.i.i.i.i = and i8 %y.i.i.i.i, 63
  %_34.i.i.i.i = zext nneg i8 %_35.i.i.i.i to i32
  %9 = or disjoint i32 %_33.i.i.i.i, %_34.i.i.i.i
  %_13.i.i.i.i = icmp samesign ugt i8 %x.i.i.i.i, -33
  br i1 %_13.i.i.i.i, label %bb6.i.i.i.i, label %bb5

bb3.i.i.i.i:                                      ; preds = %bb14.i.i.i.i
  %_7.i.i.i.i = zext nneg i8 %x.i.i.i.i to i32
  br label %bb5

bb6.i.i.i.i:                                      ; preds = %bb4.i.i.i.i
  %_6.i17.i.i.i.i = icmp ne ptr %_16.i12.i.i.i.i, %_22
  call void @llvm.assume(i1 %_6.i17.i.i.i.i)
  %_16.i19.i.i.i.i = getelementptr inbounds nuw i8, ptr %chars.sroa.0.1, i64 3
  %z.i.i.i.i = load i8, ptr %_16.i12.i.i.i.i, align 1, !noalias !28, !noundef !2
  %_38.i.i.i.i = shl nuw nsw i32 %_34.i.i.i.i, 6
  %_40.i.i.i.i = and i8 %z.i.i.i.i, 63
  %_39.i.i.i.i = zext nneg i8 %_40.i.i.i.i to i32
  %y_z.i.i.i.i = or disjoint i32 %_38.i.i.i.i, %_39.i.i.i.i
  %_20.i.i.i.i = shl nuw nsw i32 %init.i.i.i.i, 12
  %10 = or disjoint i32 %y_z.i.i.i.i, %_20.i.i.i.i
  %_21.i.i.i.i = icmp samesign ugt i8 %x.i.i.i.i, -17
  br i1 %_21.i.i.i.i, label %_RINvMNtCsjMrxcFdYDNN_4core6optionINtB3_6OptionIBw_cEE18get_or_insert_withNCNvMs3_NtNtNtB5_4iter8adapters8peekableINtB1h_8PeekableNtNtNtB5_3str4iter5CharsE4peek0ECs2f1hMIlW3Va_4heck.exit, label %bb5

_RINvMNtCsjMrxcFdYDNN_4core6optionINtB3_6OptionIBw_cEE18get_or_insert_withNCNvMs3_NtNtNtB5_4iter8adapters8peekableINtB1h_8PeekableNtNtNtB5_3str4iter5CharsE4peek0ECs2f1hMIlW3Va_4heck.exit: ; preds = %bb6.i.i.i.i
  %_6.i24.i.i.i.i = icmp ne ptr %_16.i19.i.i.i.i, %_22
  call void @llvm.assume(i1 %_6.i24.i.i.i.i)
  %_16.i26.i.i.i.i = getelementptr inbounds nuw i8, ptr %chars.sroa.0.1, i64 4
  %w.i.i.i.i = load i8, ptr %_16.i19.i.i.i.i, align 1, !noalias !28, !noundef !2
  %_26.i.i.i.i = shl nuw nsw i32 %init.i.i.i.i, 18
  %_25.i.i.i.i = and i32 %_26.i.i.i.i, 1835008
  %_43.i.i.i.i = shl nuw nsw i32 %y_z.i.i.i.i, 6
  %_45.i.i.i.i = and i8 %w.i.i.i.i, 63
  %_44.i.i.i.i = zext nneg i8 %_45.i.i.i.i to i32
  %_27.i.i.i.i = or disjoint i32 %_43.i.i.i.i, %_44.i.i.i.i
  %11 = or disjoint i32 %_27.i.i.i.i, %_25.i.i.i.i
  %.not12 = icmp eq i32 %11, 1114112
  br i1 %.not12, label %bb47, label %bb5

bb5:                                              ; preds = %bb4.i.i.i.i, %bb6.i.i.i.i, %bb3.i.i.i.i, %_RINvMNtCsjMrxcFdYDNN_4core6optionINtB3_6OptionIBw_cEE18get_or_insert_withNCNvMs3_NtNtNtB5_4iter8adapters8peekableINtB1h_8PeekableNtNtNtB5_3str4iter5CharsE4peek0ECs2f1hMIlW3Va_4heck.exit, %bb2
  %chars.sroa.17.1 = phi i32 [ %11, %_RINvMNtCsjMrxcFdYDNN_4core6optionINtB3_6OptionIBw_cEE18get_or_insert_withNCNvMs3_NtNtNtB5_4iter8adapters8peekableINtB1h_8PeekableNtNtNtB5_3str4iter5CharsE4peek0ECs2f1hMIlW3Va_4heck.exit ], [ 1114113, %bb2 ], [ %9, %bb4.i.i.i.i ], [ %10, %bb6.i.i.i.i ], [ %_7.i.i.i.i, %bb3.i.i.i.i ]
  %chars.sroa.0.2 = phi ptr [ %_16.i26.i.i.i.i, %_RINvMNtCsjMrxcFdYDNN_4core6optionINtB3_6OptionIBw_cEE18get_or_insert_withNCNvMs3_NtNtNtB5_4iter8adapters8peekableINtB1h_8PeekableNtNtNtB5_3str4iter5CharsE4peek0ECs2f1hMIlW3Va_4heck.exit ], [ %chars.sroa.0.1, %bb2 ], [ %_16.i12.i.i.i.i, %bb4.i.i.i.i ], [ %_16.i19.i.i.i.i, %bb6.i.i.i.i ], [ %_16.i.i.i.i.i, %bb3.i.i.i.i ]
  call void @llvm.lifetime.start.p0(i64 32, ptr nonnull %_13)
  call void @llvm.lifetime.start.p0(i64 12, ptr nonnull %_63)
; call core::unicode::unicode_data::conversions::to_lower
  call void @_RNvNtNtNtCsjMrxcFdYDNN_4core7unicode12unicode_data11conversions8to_lower(ptr noalias noundef nonnull sret([12 x i8]) align 4 captures(none) dereferenceable(12) %_63, i32 noundef %_5.sroa.0.0)
  %_3.i = load i32, ptr %0, align 4, !range !14, !alias.scope !38, !noalias !41, !noundef !2
  %12 = icmp eq i32 %_3.i, 0
  %_6.i13 = load i32, ptr %1, align 4, !range !14, !alias.scope !38, !noalias !41
  %13 = icmp eq i32 %_6.i13, 0
  %spec.select.i = select i1 %13, i64 1, i64 2
  %iter.sroa.4.0.i = select i1 %12, i64 %spec.select.i, i64 3
  call void @llvm.memcpy.p0.p0.i64(ptr noundef nonnull align 8 dereferenceable(12) %_62.sroa.5.0._13.sroa_idx, ptr noundef nonnull align 4 dereferenceable(12) %_63, i64 12, i1 false)
  call void @llvm.lifetime.end.p0(i64 12, ptr nonnull %_63)
  store i64 0, ptr %_13, align 8
  store i64 %iter.sroa.4.0.i, ptr %_62.sroa.4.0._13.sroa_idx, align 8
  call void @llvm.lifetime.start.p0(i64 16, ptr nonnull %args)
  store ptr %_13, ptr %args, align 8
  store ptr @_RNvXsB_NtCsjMrxcFdYDNN_4core4charNtB5_11ToLowercaseNtNtB7_3fmt7Display3fmt, ptr %_15.sroa.4.0..sroa_idx, align 8
; call core::fmt::write
  %14 = call noundef zeroext i1 @_RNvNtCsjMrxcFdYDNN_4core3fmt5write(ptr noundef nonnull align 1 %_75.0, ptr noalias noundef nonnull readonly align 8 captures(address, read_provenance) dereferenceable(48) %_75.1, ptr noundef nonnull @alloc_0c812808379efded5a4fb82d2790b556, ptr noundef nonnull %args)
  call void @llvm.lifetime.end.p0(i64 16, ptr nonnull %args)
  call void @llvm.lifetime.end.p0(i64 32, ptr nonnull %_13)
  br i1 %14, label %bb11, label %bb1.backedge

bb1.backedge:                                     ; preds = %bb5, %bb47
  %chars.sroa.17.0.be = phi i32 [ 1114112, %bb47 ], [ %chars.sroa.17.1, %bb5 ]
  %chars.sroa.0.0.be = phi ptr [ %chars.sroa.0.528, %bb47 ], [ %chars.sroa.0.2, %bb5 ]
  br label %bb1

bb47:                                             ; preds = %bb1.i, %_RINvMNtCsjMrxcFdYDNN_4core6optionINtB3_6OptionIBw_cEE18get_or_insert_withNCNvMs3_NtNtNtB5_4iter8adapters8peekableINtB1h_8PeekableNtNtNtB5_3str4iter5CharsE4peek0ECs2f1hMIlW3Va_4heck.exit
  %chars.sroa.0.528 = phi ptr [ %_16.i26.i.i.i.i, %_RINvMNtCsjMrxcFdYDNN_4core6optionINtB3_6OptionIBw_cEE18get_or_insert_withNCNvMs3_NtNtNtB5_4iter8adapters8peekableINtB1h_8PeekableNtNtNtB5_3str4iter5CharsE4peek0ECs2f1hMIlW3Va_4heck.exit ], [ %_22, %bb1.i ]
  %15 = load ptr, ptr %3, align 8, !invariant.load !2, !nonnull !2
  %16 = call noundef zeroext i1 %15(ptr noundef nonnull align 1 %_75.0, ptr noalias noundef nonnull readonly align 1 captures(address, read_provenance) @alloc_ce246300cd91ffc3b77a40cb1bee254d, i64 noundef 2) #20
  br i1 %16, label %bb11, label %bb1.backedge

bb11:                                             ; preds = %bb14, %bb47, %bb1, %bb5
  %_0.sroa.0.1.off0 = phi i1 [ true, %bb5 ], [ false, %bb14 ], [ true, %bb47 ], [ false, %bb1 ]
  ret i1 %_0.sroa.0.1.off0
}

; heck::uppercase
; Function Attrs: uwtable
define noundef zeroext i1 @_RNvCs2f1hMIlW3Va_4heck9uppercase(ptr noalias noundef nonnull readonly align 1 captures(address) %s.0, i64 noundef %s.1, ptr noalias noundef readonly align 8 captures(none) dereferenceable(24) %f) unnamed_addr #2 personality ptr @rust_eh_personality {
start:
  %_29 = alloca [12 x i8], align 4
  %args = alloca [16 x i8], align 8
  %_10 = alloca [32 x i8], align 8
  %_19 = getelementptr inbounds nuw i8, ptr %s.0, i64 %s.1
  %_6.i.i16.not = icmp samesign eq i64 %s.1, 0
  br i1 %_6.i.i16.not, label %bb5, label %bb14.i.lr.ph

bb14.i.lr.ph:                                     ; preds = %start
  %0 = getelementptr inbounds nuw i8, ptr %_29, i64 8
  %1 = getelementptr inbounds nuw i8, ptr %_29, i64 4
  %_28.sroa.4.0._10.sroa_idx = getelementptr inbounds nuw i8, ptr %_10, i64 8
  %_28.sroa.5.0._10.sroa_idx = getelementptr inbounds nuw i8, ptr %_10, i64 16
  %_12.sroa.4.0..sroa_idx = getelementptr inbounds nuw i8, ptr %args, i64 8
  %_41.0 = load ptr, ptr %f, align 8, !nonnull !2, !align !15
  %2 = getelementptr inbounds nuw i8, ptr %f, i64 8
  %_41.1 = load ptr, ptr %2, align 8, !nonnull !2, !align !16
  br label %bb14.i

bb14.i:                                           ; preds = %bb10, %bb14.i.lr.ph
  %iter.sroa.0.017 = phi ptr [ %s.0, %bb14.i.lr.ph ], [ %iter.sroa.0.1.ph, %bb10 ]
  %_16.i.i = getelementptr inbounds nuw i8, ptr %iter.sroa.0.017, i64 1
  %x.i = load i8, ptr %iter.sroa.0.017, align 1, !noalias !43, !noundef !2
  %_6.i = icmp sgt i8 %x.i, -1
  br i1 %_6.i, label %bb3.i, label %bb4.i

bb4.i:                                            ; preds = %bb14.i
  %_30.i = and i8 %x.i, 31
  %init.i = zext nneg i8 %_30.i to i32
  %_6.i10.i = icmp ne ptr %_16.i.i, %_19
  call void @llvm.assume(i1 %_6.i10.i)
  %_16.i12.i = getelementptr inbounds nuw i8, ptr %iter.sroa.0.017, i64 2
  %y.i = load i8, ptr %_16.i.i, align 1, !noalias !43, !noundef !2
  %_33.i = shl nuw nsw i32 %init.i, 6
  %_35.i = and i8 %y.i, 63
  %_34.i = zext nneg i8 %_35.i to i32
  %3 = or disjoint i32 %_33.i, %_34.i
  %_13.i = icmp samesign ugt i8 %x.i, -33
  br i1 %_13.i, label %bb6.i, label %bb10

bb3.i:                                            ; preds = %bb14.i
  %_7.i = zext nneg i8 %x.i to i32
  br label %bb10

bb6.i:                                            ; preds = %bb4.i
  %_6.i17.i = icmp ne ptr %_16.i12.i, %_19
  call void @llvm.assume(i1 %_6.i17.i)
  %_16.i19.i = getelementptr inbounds nuw i8, ptr %iter.sroa.0.017, i64 3
  %z.i = load i8, ptr %_16.i12.i, align 1, !noalias !43, !noundef !2
  %_38.i = shl nuw nsw i32 %_34.i, 6
  %_40.i = and i8 %z.i, 63
  %_39.i = zext nneg i8 %_40.i to i32
  %y_z.i = or disjoint i32 %_38.i, %_39.i
  %_20.i = shl nuw nsw i32 %init.i, 12
  %4 = or disjoint i32 %y_z.i, %_20.i
  %_21.i = icmp samesign ugt i8 %x.i, -17
  br i1 %_21.i, label %bb8.i, label %bb10

bb8.i:                                            ; preds = %bb6.i
  %_6.i24.i = icmp ne ptr %_16.i19.i, %_19
  call void @llvm.assume(i1 %_6.i24.i)
  %_16.i26.i = getelementptr inbounds nuw i8, ptr %iter.sroa.0.017, i64 4
  %w.i = load i8, ptr %_16.i19.i, align 1, !noalias !43, !noundef !2
  %_26.i = shl nuw nsw i32 %init.i, 18
  %_25.i = and i32 %_26.i, 1835008
  %_43.i = shl nuw nsw i32 %y_z.i, 6
  %_45.i = and i8 %w.i, 63
  %_44.i = zext nneg i8 %_45.i to i32
  %_27.i = or disjoint i32 %_43.i, %_44.i
  %5 = or disjoint i32 %_27.i, %_25.i
  br label %bb10

bb10:                                             ; preds = %bb3.i, %bb8.i, %bb6.i, %bb4.i
  %iter.sroa.0.1.ph = phi ptr [ %_16.i12.i, %bb4.i ], [ %_16.i19.i, %bb6.i ], [ %_16.i26.i, %bb8.i ], [ %_16.i.i, %bb3.i ]
  %_0.sroa.4.0.i.ph = phi i32 [ %3, %bb4.i ], [ %4, %bb6.i ], [ %5, %bb8.i ], [ %_7.i, %bb3.i ]
  %6 = icmp samesign ult i32 %_0.sroa.4.0.i.ph, 1114112
  call void @llvm.assume(i1 %6)
  call void @llvm.lifetime.start.p0(i64 32, ptr nonnull %_10)
  call void @llvm.lifetime.start.p0(i64 12, ptr nonnull %_29)
; call core::unicode::unicode_data::conversions::to_upper
  call void @_RNvNtNtNtCsjMrxcFdYDNN_4core7unicode12unicode_data11conversions8to_upper(ptr noalias noundef nonnull sret([12 x i8]) align 4 captures(none) dereferenceable(12) %_29, i32 noundef %_0.sroa.4.0.i.ph)
  %_3.i = load i32, ptr %0, align 4, !range !14, !alias.scope !46, !noalias !49, !noundef !2
  %7 = icmp eq i32 %_3.i, 0
  %_6.i8 = load i32, ptr %1, align 4, !range !14, !alias.scope !46, !noalias !49
  %8 = icmp eq i32 %_6.i8, 0
  %spec.select.i = select i1 %8, i64 1, i64 2
  %iter.sroa.4.0.i = select i1 %7, i64 %spec.select.i, i64 3
  call void @llvm.memcpy.p0.p0.i64(ptr noundef nonnull align 8 dereferenceable(12) %_28.sroa.5.0._10.sroa_idx, ptr noundef nonnull align 4 dereferenceable(12) %_29, i64 12, i1 false)
  call void @llvm.lifetime.end.p0(i64 12, ptr nonnull %_29)
  store i64 0, ptr %_10, align 8
  store i64 %iter.sroa.4.0.i, ptr %_28.sroa.4.0._10.sroa_idx, align 8
  call void @llvm.lifetime.start.p0(i64 16, ptr nonnull %args)
  store ptr %_10, ptr %args, align 8
  store ptr @_RNvXsB_NtCsjMrxcFdYDNN_4core4charNtB5_11ToLowercaseNtNtB7_3fmt7Display3fmt, ptr %_12.sroa.4.0..sroa_idx, align 8
; call core::fmt::write
  %9 = call noundef zeroext i1 @_RNvNtCsjMrxcFdYDNN_4core3fmt5write(ptr noundef nonnull align 1 %_41.0, ptr noalias noundef nonnull readonly align 8 captures(address, read_provenance) dereferenceable(48) %_41.1, ptr noundef nonnull @alloc_0c812808379efded5a4fb82d2790b556, ptr noundef nonnull %args)
  call void @llvm.lifetime.end.p0(i64 16, ptr nonnull %args)
  call void @llvm.lifetime.end.p0(i64 32, ptr nonnull %_10)
  %_6.i.i.not = icmp eq ptr %iter.sroa.0.1.ph, %_19
  %or.cond = select i1 %9, i1 true, i1 %_6.i.i.not
  br i1 %or.cond, label %bb5, label %bb14.i

bb5:                                              ; preds = %bb10, %start
  %_6.i.i15 = phi i1 [ false, %start ], [ %9, %bb10 ]
  ret i1 %_6.i.i15
}

; <alloc::raw_vec::RawVecInner>::finish_grow
; Function Attrs: cold nounwind uwtable
define internal fastcc void @_RNvMs4_NtCsdJPVW0sQgAG_5alloc7raw_vecNtB5_11RawVecInner11finish_growCs2f1hMIlW3Va_4heck(ptr dead_on_unwind noalias noundef nonnull writable writeonly align 8 captures(none) dereferenceable(24) initializes((0, 8)) %_0, i64 %self.0.val, ptr %self.8.val, i64 noundef %cap) unnamed_addr #3 {
start:
  %_23.i = icmp eq i64 %cap, 0
  br i1 %_23.i, label %bb14.thread, label %bb6.i

bb6.i:                                            ; preds = %start
  %or.cond.not = icmp sgt i64 %cap, 0
  br i1 %or.cond.not, label %bb14, label %bb11, !prof !51

bb14:                                             ; preds = %bb6.i
  %0 = icmp eq i64 %self.0.val, 0
  br i1 %0, label %bb4.i.i11, label %_RNvXs_NtCsdJPVW0sQgAG_5alloc5allocNtB4_6GlobalNtNtCsjMrxcFdYDNN_4core5alloc9Allocator4grow.exit

bb14.thread:                                      ; preds = %start
  %1 = icmp eq i64 %self.0.val, 0
  br i1 %1, label %bb9, label %_RNvXs_NtCsdJPVW0sQgAG_5alloc5allocNtB4_6GlobalNtNtCsjMrxcFdYDNN_4core5alloc9Allocator4grow.exit

_RNvXs_NtCsdJPVW0sQgAG_5alloc5allocNtB4_6GlobalNtNtCsjMrxcFdYDNN_4core5alloc9Allocator4grow.exit: ; preds = %bb14.thread, %bb14
  %2 = icmp ne ptr %self.8.val, null
  tail call void @llvm.assume(i1 %2)
  %cond.i.i = icmp uge i64 %cap, %self.0.val
  tail call void @llvm.assume(i1 %cond.i.i)
; call __rustc::__rust_realloc
  %raw_ptr.i.i = tail call noundef ptr @_RNvCsKhRCbHf33p_7___rustc14___rust_realloc(ptr noundef nonnull %self.8.val, i64 noundef %self.0.val, i64 noundef range(i64 1, -9223372036854775807) 1, i64 noundef %cap) #17
  br label %bb7

bb4.i.i11:                                        ; preds = %bb14
; call __rustc::__rust_no_alloc_shim_is_unstable_v2
  tail call void @_RNvCsKhRCbHf33p_7___rustc35___rust_no_alloc_shim_is_unstable_v2() #17
; call __rustc::__rust_alloc
  %3 = tail call noundef ptr @_RNvCsKhRCbHf33p_7___rustc12___rust_alloc(i64 noundef %cap, i64 noundef range(i64 1, -9223372036854775807) 1) #17
  br label %bb7

bb7:                                              ; preds = %bb4.i.i11, %_RNvXs_NtCsdJPVW0sQgAG_5alloc5allocNtB4_6GlobalNtNtCsjMrxcFdYDNN_4core5alloc9Allocator4grow.exit
  %raw_ptr.i.i.pn = phi ptr [ %raw_ptr.i.i, %_RNvXs_NtCsdJPVW0sQgAG_5alloc5allocNtB4_6GlobalNtNtCsjMrxcFdYDNN_4core5alloc9Allocator4grow.exit ], [ %3, %bb4.i.i11 ]
  %4 = icmp eq ptr %raw_ptr.i.i.pn, null
  br i1 %4, label %bb8, label %bb9

bb8:                                              ; preds = %bb7
  %5 = getelementptr inbounds nuw i8, ptr %_0, i64 8
  store i64 1, ptr %5, align 8
  br label %bb11

bb9:                                              ; preds = %bb14.thread, %bb7
  %raw_ptr.i.i.pn22 = phi ptr [ %raw_ptr.i.i.pn, %bb7 ], [ inttoptr (i64 1 to ptr), %bb14.thread ]
  %_27.sroa.7.01121 = phi i64 [ %cap, %bb7 ], [ 0, %bb14.thread ]
  %6 = getelementptr inbounds nuw i8, ptr %_0, i64 8
  store ptr %raw_ptr.i.i.pn22, ptr %6, align 8
  br label %bb11

bb11:                                             ; preds = %bb6.i, %bb9, %bb8
  %.sink23 = phi i64 [ 16, %bb9 ], [ 16, %bb8 ], [ 8, %bb6.i ]
  %_27.sroa.7.01121.sink = phi i64 [ %_27.sroa.7.01121, %bb9 ], [ %cap, %bb8 ], [ 0, %bb6.i ]
  %storemerge8 = phi i64 [ 0, %bb9 ], [ 1, %bb8 ], [ 1, %bb6.i ]
  %7 = getelementptr inbounds nuw i8, ptr %_0, i64 %.sink23
  store i64 %_27.sroa.7.01121.sink, ptr %7, align 8
  store i64 %storemerge8, ptr %_0, align 8
  ret void
}

; <str as heck::lower_camel::ToLowerCamelCase>::to_lower_camel_case
; Function Attrs: uwtable
define void @_RNvXNtCs2f1hMIlW3Va_4heck11lower_cameleNtB2_16ToLowerCamelCase19to_lower_camel_case(ptr dead_on_unwind noalias noundef writable writeonly sret([24 x i8]) align 8 captures(none) dereferenceable(24) %_0, ptr noalias noundef nonnull readonly align 1 captures(address, read_provenance) %self.0, i64 noundef %self.1) unnamed_addr #2 personality ptr @rust_eh_personality {
start:
  %e.i.i = alloca [0 x i8], align 1
  %_63.i = alloca [12 x i8], align 4
  %args.i8 = alloca [16 x i8], align 8
  %_13.i = alloca [32 x i8], align 8
  %_33.i = alloca [12 x i8], align 8
  %args.i = alloca [16 x i8], align 8
  %_11.i = alloca [32 x i8], align 8
  %formatter.i = alloca [24 x i8], align 8
  %buf.i = alloca [24 x i8], align 8
  call void @llvm.lifetime.start.p0(i64 24, ptr nonnull %buf.i), !noalias !52
  store i64 0, ptr %buf.i, align 8, !noalias !52
  %_10.sroa.4.0.buf.sroa_idx.i = getelementptr inbounds nuw i8, ptr %buf.i, i64 8
  store ptr inttoptr (i64 1 to ptr), ptr %_10.sroa.4.0.buf.sroa_idx.i, align 8, !noalias !52
  %_10.sroa.5.0.buf.sroa_idx.i = getelementptr inbounds nuw i8, ptr %buf.i, i64 16
  store i64 0, ptr %_10.sroa.5.0.buf.sroa_idx.i, align 8, !noalias !52
  call void @llvm.lifetime.start.p0(i64 24, ptr nonnull %formatter.i), !noalias !52
  %0 = getelementptr inbounds nuw i8, ptr %formatter.i, i64 16
  store i32 1610612768, ptr %0, align 8, !noalias !52
  %options.sroa.4.0..sroa_idx.i = getelementptr inbounds nuw i8, ptr %formatter.i, i64 20
  store i16 0, ptr %options.sroa.4.0..sroa_idx.i, align 4, !noalias !52
  %options.sroa.5.0..sroa_idx.i = getelementptr inbounds nuw i8, ptr %formatter.i, i64 22
  store i16 0, ptr %options.sroa.5.0..sroa_idx.i, align 2, !noalias !52
  store ptr %buf.i, ptr %formatter.i, align 8, !noalias !52
  %1 = getelementptr inbounds nuw i8, ptr %formatter.i, i64 8
  store ptr @vtable.1, ptr %1, align 8, !noalias !52
  %_7.i.i.i.i.i = getelementptr inbounds nuw i8, ptr %self.0, i64 %self.1
  %2 = getelementptr inbounds nuw i8, ptr %_33.i, i64 8
  %3 = getelementptr inbounds nuw i8, ptr %_33.i, i64 4
  %_32.sroa.4.0._11.sroa_idx.i = getelementptr inbounds nuw i8, ptr %_11.i, i64 8
  %_32.sroa.5.0._11.sroa_idx.i = getelementptr inbounds nuw i8, ptr %_11.i, i64 16
  %_13.sroa.4.0..sroa_idx.i = getelementptr inbounds nuw i8, ptr %args.i, i64 8
  %4 = getelementptr inbounds nuw i8, ptr %_63.i, i64 8
  %5 = getelementptr inbounds nuw i8, ptr %_63.i, i64 4
  %_62.sroa.4.0._13.sroa_idx.i = getelementptr inbounds nuw i8, ptr %_13.i, i64 8
  %_62.sroa.5.0._13.sroa_idx.i = getelementptr inbounds nuw i8, ptr %_13.i, i64 16
  %_15.sroa.4.0..sroa_idx.i = getelementptr inbounds nuw i8, ptr %args.i8, i64 8
  br label %bb2.i.i.i.i

bb2.i.i.i.i:                                      ; preds = %bb35.i.i.i, %start
  %iter.sroa.0.0165.i.i.i = phi i64 [ 0, %start ], [ %iter.sroa.0.1.ph.i.i.i, %bb35.i.i.i ]
  %char_indices.sroa.22.0164.i.i.i = phi i64 [ undef, %start ], [ %char_indices.sroa.22.2.i.i.i, %bb35.i.i.i ]
  %iter.sroa.1187.0163.i.i.i = phi ptr [ %self.0, %start ], [ %iter.sroa.1187.6.ph.i.i.i, %bb35.i.i.i ]
  %iter.sroa.17.0161.i.i.i = phi i64 [ 0, %start ], [ %iter.sroa.17.5.ph.i.i.i, %bb35.i.i.i ]
  %.promoted155160.off0.i.i.i = phi i1 [ true, %start ], [ %.promoted153.off0.i.i.i, %bb35.i.i.i ]
  %_6.i.i.i.i15.i.i.i.i.i.i = icmp eq ptr %iter.sroa.1187.0163.i.i.i, %_7.i.i.i.i.i
  br i1 %_6.i.i.i.i15.i.i.i.i.i.i, label %bb3.i.i.i, label %bb14.i.i.i.i.i.i.i.i.i

bb14.i.i.i.i.i.i.i.i.i:                           ; preds = %bb2.i.i.i.i, %bb5.i.i.i.i.i.i
  %6 = phi i64 [ %iter.sroa.17.2.i.i.i, %bb5.i.i.i.i.i.i ], [ %iter.sroa.17.0161.i.i.i, %bb2.i.i.i.i ]
  %_16.i26.i.i.i1216.i.i.i.i.i.i = phi ptr [ %iter.sroa.1187.3.i.i.i, %bb5.i.i.i.i.i.i ], [ %iter.sroa.1187.0163.i.i.i, %bb2.i.i.i.i ]
  %7 = ptrtoint ptr %_16.i26.i.i.i1216.i.i.i.i.i.i to i64
  %_16.i.i.i.i.i.i.i.i.i.i = getelementptr inbounds nuw i8, ptr %_16.i26.i.i.i1216.i.i.i.i.i.i, i64 1
  %x.i.i.i.i.i.i.i.i.i = load i8, ptr %_16.i26.i.i.i1216.i.i.i.i.i.i, align 1, !alias.scope !55, !noalias !58, !noundef !2
  %_6.i.i.i.i.i.i.i.i.i = icmp sgt i8 %x.i.i.i.i.i.i.i.i.i, -1
  br i1 %_6.i.i.i.i.i.i.i.i.i, label %bb3.thread.i.i.i.i.i.i.i, label %bb4.i.i.i.i.i.i.i.i.i

bb4.i.i.i.i.i.i.i.i.i:                            ; preds = %bb14.i.i.i.i.i.i.i.i.i
  %_30.i.i.i.i.i.i.i.i.i = and i8 %x.i.i.i.i.i.i.i.i.i, 31
  %init.i.i.i.i.i.i.i.i.i = zext nneg i8 %_30.i.i.i.i.i.i.i.i.i to i32
  %_6.i10.i.i.i.i.i.i.i.i.i = icmp ne ptr %_16.i.i.i.i.i.i.i.i.i.i, %_7.i.i.i.i.i
  call void @llvm.assume(i1 %_6.i10.i.i.i.i.i.i.i.i.i)
  %_16.i12.i.i.i.i.i.i.i.i.i = getelementptr inbounds nuw i8, ptr %_16.i26.i.i.i1216.i.i.i.i.i.i, i64 2
  %y.i.i.i.i.i.i.i.i.i = load i8, ptr %_16.i.i.i.i.i.i.i.i.i.i, align 1, !alias.scope !55, !noalias !58, !noundef !2
  %_33.i.i.i.i.i.i.i.i.i = shl nuw nsw i32 %init.i.i.i.i.i.i.i.i.i, 6
  %_35.i.i.i.i.i.i.i.i.i = and i8 %y.i.i.i.i.i.i.i.i.i, 63
  %_34.i.i.i.i.i.i.i.i.i = zext nneg i8 %_35.i.i.i.i.i.i.i.i.i to i32
  %8 = or disjoint i32 %_33.i.i.i.i.i.i.i.i.i, %_34.i.i.i.i.i.i.i.i.i
  %_13.i.i.i.i.i.i.i.i.i = icmp samesign ugt i8 %x.i.i.i.i.i.i.i.i.i, -33
  br i1 %_13.i.i.i.i.i.i.i.i.i, label %bb6.i.i.i.i.i.i.i.i.i, label %bb3.i.i.i.i.i.i.i

bb3.thread.i.i.i.i.i.i.i:                         ; preds = %bb14.i.i.i.i.i.i.i.i.i
  %_7.i.i.i.i.i.i.i.i.i = zext nneg i8 %x.i.i.i.i.i.i.i.i.i to i32
  %9 = add i64 %6, 1
  br label %bb1.i.i.i.i.i.i.i.i.i.i

bb6.i.i.i.i.i.i.i.i.i:                            ; preds = %bb4.i.i.i.i.i.i.i.i.i
  %_6.i17.i.i.i.i.i.i.i.i.i = icmp ne ptr %_16.i12.i.i.i.i.i.i.i.i.i, %_7.i.i.i.i.i
  call void @llvm.assume(i1 %_6.i17.i.i.i.i.i.i.i.i.i)
  %_16.i19.i.i.i.i.i.i.i.i.i = getelementptr inbounds nuw i8, ptr %_16.i26.i.i.i1216.i.i.i.i.i.i, i64 3
  %z.i.i.i.i.i.i.i.i.i = load i8, ptr %_16.i12.i.i.i.i.i.i.i.i.i, align 1, !alias.scope !55, !noalias !58, !noundef !2
  %_38.i.i.i.i.i.i.i.i.i = shl nuw nsw i32 %_34.i.i.i.i.i.i.i.i.i, 6
  %_40.i.i.i.i.i.i.i.i.i = and i8 %z.i.i.i.i.i.i.i.i.i, 63
  %_39.i.i.i.i.i.i.i.i.i = zext nneg i8 %_40.i.i.i.i.i.i.i.i.i to i32
  %y_z.i.i.i.i.i.i.i.i.i = or disjoint i32 %_38.i.i.i.i.i.i.i.i.i, %_39.i.i.i.i.i.i.i.i.i
  %_20.i.i.i.i.i.i.i.i.i = shl nuw nsw i32 %init.i.i.i.i.i.i.i.i.i, 12
  %10 = or disjoint i32 %y_z.i.i.i.i.i.i.i.i.i, %_20.i.i.i.i.i.i.i.i.i
  %_21.i.i.i.i.i.i.i.i.i = icmp samesign ugt i8 %x.i.i.i.i.i.i.i.i.i, -17
  br i1 %_21.i.i.i.i.i.i.i.i.i, label %bb8.i.i.i.i.i.i.i.i.i, label %bb3.i.i.i.i.i.i.i

bb8.i.i.i.i.i.i.i.i.i:                            ; preds = %bb6.i.i.i.i.i.i.i.i.i
  %_6.i24.i.i.i.i.i.i.i.i.i = icmp ne ptr %_16.i19.i.i.i.i.i.i.i.i.i, %_7.i.i.i.i.i
  call void @llvm.assume(i1 %_6.i24.i.i.i.i.i.i.i.i.i)
  %_16.i26.i.i.i.i.i.i.i.i.i = getelementptr inbounds nuw i8, ptr %_16.i26.i.i.i1216.i.i.i.i.i.i, i64 4
  %w.i.i.i.i.i.i.i.i.i = load i8, ptr %_16.i19.i.i.i.i.i.i.i.i.i, align 1, !alias.scope !55, !noalias !58, !noundef !2
  %_26.i.i.i.i.i.i.i.i.i = shl nuw nsw i32 %init.i.i.i.i.i.i.i.i.i, 18
  %_25.i.i.i.i.i.i.i.i.i = and i32 %_26.i.i.i.i.i.i.i.i.i, 1835008
  %_43.i.i.i.i.i.i.i.i.i = shl nuw nsw i32 %y_z.i.i.i.i.i.i.i.i.i, 6
  %_45.i.i.i.i.i.i.i.i.i = and i8 %w.i.i.i.i.i.i.i.i.i, 63
  %_44.i.i.i.i.i.i.i.i.i = zext nneg i8 %_45.i.i.i.i.i.i.i.i.i to i32
  %_27.i.i.i.i.i.i.i.i.i = or disjoint i32 %_43.i.i.i.i.i.i.i.i.i, %_44.i.i.i.i.i.i.i.i.i
  %11 = or disjoint i32 %_27.i.i.i.i.i.i.i.i.i, %_25.i.i.i.i.i.i.i.i.i
  br label %bb3.i.i.i.i.i.i.i

bb3.i.i.i.i.i.i.i:                                ; preds = %bb8.i.i.i.i.i.i.i.i.i, %bb6.i.i.i.i.i.i.i.i.i, %bb4.i.i.i.i.i.i.i.i.i
  %iter.sroa.1187.1.i.i.i = phi ptr [ %_16.i26.i.i.i.i.i.i.i.i.i, %bb8.i.i.i.i.i.i.i.i.i ], [ %_16.i19.i.i.i.i.i.i.i.i.i, %bb6.i.i.i.i.i.i.i.i.i ], [ %_16.i12.i.i.i.i.i.i.i.i.i, %bb4.i.i.i.i.i.i.i.i.i ]
  %_0.sroa.4.0.i.ph.i.i.i.i.i.i.i.i = phi i32 [ %11, %bb8.i.i.i.i.i.i.i.i.i ], [ %10, %bb6.i.i.i.i.i.i.i.i.i ], [ %8, %bb4.i.i.i.i.i.i.i.i.i ]
  %12 = icmp samesign ult i32 %_0.sroa.4.0.i.ph.i.i.i.i.i.i.i.i, 1114112
  call void @llvm.assume(i1 %12)
  %13 = ptrtoint ptr %iter.sroa.1187.1.i.i.i to i64
  %_10.i.i.i.i.i.i.i.i = sub i64 %13, %7
  %14 = add i64 %_10.i.i.i.i.i.i.i.i, %6
  %_2.i.i.i.i.i.i.i.i.i.i = icmp samesign ult i32 %_0.sroa.4.0.i.ph.i.i.i.i.i.i.i.i, 128
  br i1 %_2.i.i.i.i.i.i.i.i.i.i, label %bb1.i.i.i.i.i.i.i.i.i.i, label %bb2.i.i.i.i.i.i.i.i.i.i

bb2.i.i.i.i.i.i.i.i.i.i:                          ; preds = %bb3.i.i.i.i.i.i.i
  %_15.i.i.i.i.i.i.i.i.i.i = icmp samesign ugt i32 %_0.sroa.4.0.i.ph.i.i.i.i.i.i.i.i, 169
  br i1 %_15.i.i.i.i.i.i.i.i.i.i, label %bb16.i.i.i.i.i.i.i.i.i.i, label %bb3.i.i.i

bb1.i.i.i.i.i.i.i.i.i.i:                          ; preds = %bb3.i.i.i.i.i.i.i, %bb3.thread.i.i.i.i.i.i.i
  %iter.sroa.17.4.i.i.i = phi i64 [ %9, %bb3.thread.i.i.i.i.i.i.i ], [ %14, %bb3.i.i.i.i.i.i.i ]
  %_16.i26.i.i.i14.i.i.i.i.i.i = phi ptr [ %_16.i.i.i.i.i.i.i.i.i.i, %bb3.thread.i.i.i.i.i.i.i ], [ %iter.sroa.1187.1.i.i.i, %bb3.i.i.i.i.i.i.i ]
  %_0.sroa.4.0.i.ph.i19.i.i.i.i.i.i.i = phi i32 [ %_7.i.i.i.i.i.i.i.i.i, %bb3.thread.i.i.i.i.i.i.i ], [ %_0.sroa.4.0.i.ph.i.i.i.i.i.i.i.i, %bb3.i.i.i.i.i.i.i ]
  %15 = add nsw i32 %_0.sroa.4.0.i.ph.i19.i.i.i.i.i.i.i, -48
  %_9.sroa.0.0.off0.i.i.i.i.i.i.i.i.i.i = icmp ult i32 %15, 10
  %16 = and i32 %_0.sroa.4.0.i.ph.i19.i.i.i.i.i.i.i, 95
  %17 = add nsw i32 %16, -65
  %18 = icmp ult i32 %17, 26
  %19 = or i1 %_9.sroa.0.0.off0.i.i.i.i.i.i.i.i.i.i, %18
  br i1 %19, label %bb5.i.i.i.i.i.i, label %bb3.i.i.i

bb16.i.i.i.i.i.i.i.i.i.i:                         ; preds = %bb2.i.i.i.i.i.i.i.i.i.i
; invoke core::unicode::unicode_data::alphabetic::lookup_slow
  %_5.i.i.i.i.i.i.i.i.i2.i = invoke noundef zeroext i1 @_RNvNtNtNtCsjMrxcFdYDNN_4core7unicode12unicode_data10alphabetic11lookup_slow(i32 noundef range(i32 0, 1114112) %_0.sroa.4.0.i.ph.i.i.i.i.i.i.i.i) #21
          to label %_5.i.i.i.i.i.i.i.i.i.noexc.i unwind label %cleanup.loopexit.split-lp.loopexit.i, !noalias !52

_5.i.i.i.i.i.i.i.i.i.noexc.i:                     ; preds = %bb16.i.i.i.i.i.i.i.i.i.i
  br i1 %_5.i.i.i.i.i.i.i.i.i2.i, label %bb5.i.i.i.i.i.i, label %bb4.i.i.i.i.i.i.i.i.i.i

bb4.i.i.i.i.i.i.i.i.i.i:                          ; preds = %_5.i.i.i.i.i.i.i.i.i.noexc.i
  %_17.i.i.i.i.i.i.i.i.i.i = icmp samesign ugt i32 %_0.sroa.4.0.i.ph.i.i.i.i.i.i.i.i, 177
  br i1 %_17.i.i.i.i.i.i.i.i.i.i, label %_RNvXs3_NtNtCsjMrxcFdYDNN_4core3str7patternNCINvCs2f1hMIlW3Va_4heck9transformNCNvXs_NtBJ_11lower_camelINtB1j_16AsLowerCamelCaseReENtNtB9_3fmt7Display3fmt0NCB1e_s_0E0NtB5_11MultiCharEq7matchesBJ_.exit.i.i.i.i.i.i.i, label %bb3.i.i.i

_RNvXs3_NtNtCsjMrxcFdYDNN_4core3str7patternNCINvCs2f1hMIlW3Va_4heck9transformNCNvXs_NtBJ_11lower_camelINtB1j_16AsLowerCamelCaseReENtNtB9_3fmt7Display3fmt0NCB1e_s_0E0NtB5_11MultiCharEq7matchesBJ_.exit.i.i.i.i.i.i.i: ; preds = %bb4.i.i.i.i.i.i.i.i.i.i
; invoke core::unicode::unicode_data::n::lookup_slow
  %20 = invoke noundef zeroext i1 @_RNvNtNtNtCsjMrxcFdYDNN_4core7unicode12unicode_data1n11lookup_slow(i32 noundef range(i32 0, 1114112) %_0.sroa.4.0.i.ph.i.i.i.i.i.i.i.i) #21
          to label %.noexc.i unwind label %cleanup.loopexit.split-lp.loopexit.i, !noalias !52

.noexc.i:                                         ; preds = %_RNvXs3_NtNtCsjMrxcFdYDNN_4core3str7patternNCINvCs2f1hMIlW3Va_4heck9transformNCNvXs_NtBJ_11lower_camelINtB1j_16AsLowerCamelCaseReENtNtB9_3fmt7Display3fmt0NCB1e_s_0E0NtB5_11MultiCharEq7matchesBJ_.exit.i.i.i.i.i.i.i
  br i1 %20, label %bb5.i.i.i.i.i.i, label %bb3.i.i.i

bb5.i.i.i.i.i.i:                                  ; preds = %.noexc.i, %_5.i.i.i.i.i.i.i.i.i.noexc.i, %bb1.i.i.i.i.i.i.i.i.i.i
  %iter.sroa.17.2.i.i.i = phi i64 [ %iter.sroa.17.4.i.i.i, %bb1.i.i.i.i.i.i.i.i.i.i ], [ %14, %_5.i.i.i.i.i.i.i.i.i.noexc.i ], [ %14, %.noexc.i ]
  %iter.sroa.1187.3.i.i.i = phi ptr [ %_16.i26.i.i.i14.i.i.i.i.i.i, %bb1.i.i.i.i.i.i.i.i.i.i ], [ %iter.sroa.1187.1.i.i.i, %_5.i.i.i.i.i.i.i.i.i.noexc.i ], [ %iter.sroa.1187.1.i.i.i, %.noexc.i ]
  %_6.i.i.i.i.i.i.i.i.i.i = icmp eq ptr %iter.sroa.1187.3.i.i.i, %_7.i.i.i.i.i
  br i1 %_6.i.i.i.i.i.i.i.i.i.i, label %bb3.i.i.i, label %bb14.i.i.i.i.i.i.i.i.i

bb3.i.i.i:                                        ; preds = %bb5.i.i.i.i.i.i, %.noexc.i, %bb4.i.i.i.i.i.i.i.i.i.i, %bb1.i.i.i.i.i.i.i.i.i.i, %bb2.i.i.i.i.i.i.i.i.i.i, %bb2.i.i.i.i
  %iter.sroa.17.5.ph.i.i.i = phi i64 [ %iter.sroa.17.0161.i.i.i, %bb2.i.i.i.i ], [ %iter.sroa.17.2.i.i.i, %bb5.i.i.i.i.i.i ], [ %14, %bb2.i.i.i.i.i.i.i.i.i.i ], [ %14, %bb4.i.i.i.i.i.i.i.i.i.i ], [ %14, %.noexc.i ], [ %iter.sroa.17.4.i.i.i, %bb1.i.i.i.i.i.i.i.i.i.i ]
  %iter.sroa.22.1.ph.off0.i.i.i = phi i1 [ true, %bb2.i.i.i.i ], [ true, %bb5.i.i.i.i.i.i ], [ false, %bb2.i.i.i.i.i.i.i.i.i.i ], [ false, %bb4.i.i.i.i.i.i.i.i.i.i ], [ false, %.noexc.i ], [ false, %bb1.i.i.i.i.i.i.i.i.i.i ]
  %iter.sroa.1187.6.ph.i.i.i = phi ptr [ %iter.sroa.1187.0163.i.i.i, %bb2.i.i.i.i ], [ %iter.sroa.1187.3.i.i.i, %bb5.i.i.i.i.i.i ], [ %iter.sroa.1187.1.i.i.i, %bb2.i.i.i.i.i.i.i.i.i.i ], [ %iter.sroa.1187.1.i.i.i, %bb4.i.i.i.i.i.i.i.i.i.i ], [ %iter.sroa.1187.1.i.i.i, %.noexc.i ], [ %_16.i26.i.i.i14.i.i.i.i.i.i, %bb1.i.i.i.i.i.i.i.i.i.i ]
  %iter.sroa.0.1.ph.i.i.i = phi i64 [ %iter.sroa.0.0165.i.i.i, %bb2.i.i.i.i ], [ %iter.sroa.0.0165.i.i.i, %bb5.i.i.i.i.i.i ], [ %14, %bb2.i.i.i.i.i.i.i.i.i.i ], [ %14, %bb4.i.i.i.i.i.i.i.i.i.i ], [ %14, %.noexc.i ], [ %iter.sroa.17.4.i.i.i, %bb1.i.i.i.i.i.i.i.i.i.i ]
  %s.1.pn.i.i.i = phi i64 [ %self.1, %bb2.i.i.i.i ], [ %self.1, %bb5.i.i.i.i.i.i ], [ %6, %bb2.i.i.i.i.i.i.i.i.i.i ], [ %6, %bb4.i.i.i.i.i.i.i.i.i.i ], [ %6, %.noexc.i ], [ %6, %bb1.i.i.i.i.i.i.i.i.i.i ]
  %_0.sroa.0.1.i.ph.i.i.i = getelementptr inbounds nuw i8, ptr %self.0, i64 %iter.sroa.0.0165.i.i.i
  %_0.sroa.4.1.i.ph.i.i.i = sub nuw i64 %s.1.pn.i.i.i, %iter.sroa.0.0165.i.i.i
  %_69.i.i.i = getelementptr inbounds nuw i8, ptr %self.0, i64 %s.1.pn.i.i.i
  br label %bb5.i.i.i

bb5.i.i.i:                                        ; preds = %bb5.i.i.i.backedge, %bb3.i.i.i
  %.promoted154.off0.i.i.i = phi i1 [ %.promoted155160.off0.i.i.i, %bb3.i.i.i ], [ %.promoted154.off0.i.i.i.be, %bb5.i.i.i.backedge ]
  %.off0.i.i.i = phi i1 [ %.promoted155160.off0.i.i.i, %bb3.i.i.i ], [ %.off0.i.i.i.be, %bb5.i.i.i.backedge ]
  %char_indices.sroa.0.0.i.i.i = phi ptr [ %_0.sroa.0.1.i.ph.i.i.i, %bb3.i.i.i ], [ %char_indices.sroa.0.4.i.i.i, %bb5.i.i.i.backedge ]
  %char_indices.sroa.17.0.i.i.i = phi i64 [ 0, %bb3.i.i.i ], [ %32, %bb5.i.i.i.backedge ]
  %char_indices.sroa.22.1.i.i.i = phi i64 [ %char_indices.sroa.22.0164.i.i.i, %bb3.i.i.i ], [ %char_indices.sroa.17.1232.i.i.i, %bb5.i.i.i.backedge ]
  %char_indices.sroa.25.0.i.i.i = phi i32 [ 1114113, %bb3.i.i.i ], [ %_0.sroa.4.0.i.ph.i.i.i.i.i.i, %bb5.i.i.i.backedge ]
  %init.sroa.0.0.i.i.i = phi i64 [ 0, %bb3.i.i.i ], [ %init.sroa.0.0.i.i.i.be, %bb5.i.i.i.backedge ]
  %mode.sroa.0.0.i.i.i = phi i8 [ 0, %bb3.i.i.i ], [ %mode.sroa.0.0.i.i.i.be, %bb5.i.i.i.backedge ]
  %cond.i.i = icmp eq i32 %char_indices.sroa.25.0.i.i.i, 1114113
  %21 = ptrtoint ptr %char_indices.sroa.0.0.i.i.i to i64
  br i1 %cond.i.i, label %bb47.i.i.i, label %bb1.i.i.i.i

bb47.i.i.i:                                       ; preds = %bb5.i.i.i
  %_6.i.i.i.i.i.i = icmp eq ptr %char_indices.sroa.0.0.i.i.i, %_69.i.i.i
  br i1 %_6.i.i.i.i.i.i, label %bb35.i.i.i, label %bb14.i.i.i.i.i

bb14.i.i.i.i.i:                                   ; preds = %bb47.i.i.i
  %_16.i.i.i.i.i.i = getelementptr inbounds nuw i8, ptr %char_indices.sroa.0.0.i.i.i, i64 1
  %x.i.i.i.i.i = load i8, ptr %char_indices.sroa.0.0.i.i.i, align 1, !alias.scope !55, !noalias !78, !noundef !2
  %_6.i.i.i.i.i = icmp sgt i8 %x.i.i.i.i.i, -1
  br i1 %_6.i.i.i.i.i, label %bb3.i.i.i.i.i, label %bb4.i.i.i.i.i

bb4.i.i.i.i.i:                                    ; preds = %bb14.i.i.i.i.i
  %_30.i.i.i.i.i = and i8 %x.i.i.i.i.i, 31
  %init.i.i.i.i.i = zext nneg i8 %_30.i.i.i.i.i to i32
  %_6.i10.i.i.i.i.i = icmp ne ptr %_16.i.i.i.i.i.i, %_69.i.i.i
  call void @llvm.assume(i1 %_6.i10.i.i.i.i.i)
  %_16.i12.i.i.i.i.i = getelementptr inbounds nuw i8, ptr %char_indices.sroa.0.0.i.i.i, i64 2
  %y.i.i.i.i.i = load i8, ptr %_16.i.i.i.i.i.i, align 1, !alias.scope !55, !noalias !78, !noundef !2
  %_33.i.i.i.i.i = shl nuw nsw i32 %init.i.i.i.i.i, 6
  %_35.i.i.i.i.i = and i8 %y.i.i.i.i.i, 63
  %_34.i.i.i.i.i = zext nneg i8 %_35.i.i.i.i.i to i32
  %22 = or disjoint i32 %_33.i.i.i.i.i, %_34.i.i.i.i.i
  %_13.i.i.i.i.i = icmp samesign ugt i8 %x.i.i.i.i.i, -33
  br i1 %_13.i.i.i.i.i, label %bb6.i.i.i.i.i, label %bb50.thread225.i.i.i

bb3.i.i.i.i.i:                                    ; preds = %bb14.i.i.i.i.i
  %_7.i.i39.i.i.i = zext nneg i8 %x.i.i.i.i.i to i32
  br label %bb50.thread225.i.i.i

bb6.i.i.i.i.i:                                    ; preds = %bb4.i.i.i.i.i
  %_6.i17.i.i.i.i.i = icmp ne ptr %_16.i12.i.i.i.i.i, %_69.i.i.i
  call void @llvm.assume(i1 %_6.i17.i.i.i.i.i)
  %_16.i19.i.i.i.i.i = getelementptr inbounds nuw i8, ptr %char_indices.sroa.0.0.i.i.i, i64 3
  %z.i.i.i.i.i = load i8, ptr %_16.i12.i.i.i.i.i, align 1, !alias.scope !55, !noalias !78, !noundef !2
  %_38.i.i.i.i.i = shl nuw nsw i32 %_34.i.i.i.i.i, 6
  %_40.i.i.i.i.i = and i8 %z.i.i.i.i.i, 63
  %_39.i.i.i.i.i = zext nneg i8 %_40.i.i.i.i.i to i32
  %y_z.i.i.i.i.i = or disjoint i32 %_38.i.i.i.i.i, %_39.i.i.i.i.i
  %_20.i.i.i.i.i = shl nuw nsw i32 %init.i.i.i.i.i, 12
  %23 = or disjoint i32 %y_z.i.i.i.i.i, %_20.i.i.i.i.i
  %_21.i.i.i.i.i = icmp samesign ugt i8 %x.i.i.i.i.i, -17
  br i1 %_21.i.i.i.i.i, label %bb8.i.i.i.i.i, label %bb50.thread225.i.i.i

bb8.i.i.i.i.i:                                    ; preds = %bb6.i.i.i.i.i
  %_6.i24.i.i.i.i.i = icmp ne ptr %_16.i19.i.i.i.i.i, %_69.i.i.i
  call void @llvm.assume(i1 %_6.i24.i.i.i.i.i)
  %_16.i26.i.i.i.i.i = getelementptr inbounds nuw i8, ptr %char_indices.sroa.0.0.i.i.i, i64 4
  %w.i.i.i.i.i = load i8, ptr %_16.i19.i.i.i.i.i, align 1, !alias.scope !55, !noalias !78, !noundef !2
  %_26.i.i.i.i.i = shl nuw nsw i32 %init.i.i.i.i.i, 18
  %_25.i.i.i.i.i = and i32 %_26.i.i.i.i.i, 1835008
  %_43.i.i.i.i.i = shl nuw nsw i32 %y_z.i.i.i.i.i, 6
  %_45.i.i.i.i.i = and i8 %w.i.i.i.i.i, 63
  %_44.i.i.i.i.i = zext nneg i8 %_45.i.i.i.i.i to i32
  %_27.i.i.i.i.i = or disjoint i32 %_43.i.i.i.i.i, %_44.i.i.i.i.i
  %24 = or disjoint i32 %_27.i.i.i.i.i, %_25.i.i.i.i.i
  br label %bb50.thread225.i.i.i

bb50.thread225.i.i.i:                             ; preds = %bb8.i.i.i.i.i, %bb6.i.i.i.i.i, %bb3.i.i.i.i.i, %bb4.i.i.i.i.i
  %char_indices.sroa.0.2.i.i.i = phi ptr [ %_16.i.i.i.i.i.i, %bb3.i.i.i.i.i ], [ %_16.i26.i.i.i.i.i, %bb8.i.i.i.i.i ], [ %_16.i19.i.i.i.i.i, %bb6.i.i.i.i.i ], [ %_16.i12.i.i.i.i.i, %bb4.i.i.i.i.i ]
  %_0.sroa.4.0.i.ph.i.i.i.i = phi i32 [ %_7.i.i39.i.i.i, %bb3.i.i.i.i.i ], [ %24, %bb8.i.i.i.i.i ], [ %23, %bb6.i.i.i.i.i ], [ %22, %bb4.i.i.i.i.i ]
  %25 = ptrtoint ptr %char_indices.sroa.0.2.i.i.i to i64
  %_10.i.i.i.i = sub i64 %char_indices.sroa.17.0.i.i.i, %21
  %26 = add i64 %_10.i.i.i.i, %25
  br label %bb1.i.i.i.i

bb1.i.i.i.i:                                      ; preds = %bb50.thread225.i.i.i, %bb5.i.i.i
  %.pre-phi.i.i = phi i64 [ %25, %bb50.thread225.i.i.i ], [ %21, %bb5.i.i.i ]
  %_15.sroa.8.0234.i.i.i = phi i32 [ %_0.sroa.4.0.i.ph.i.i.i.i, %bb50.thread225.i.i.i ], [ %char_indices.sroa.25.0.i.i.i, %bb5.i.i.i ]
  %_15.sroa.0.0233.i.i.i = phi i64 [ %char_indices.sroa.17.0.i.i.i, %bb50.thread225.i.i.i ], [ %char_indices.sroa.22.1.i.i.i, %bb5.i.i.i ]
  %char_indices.sroa.17.1232.i.i.i = phi i64 [ %26, %bb50.thread225.i.i.i ], [ %char_indices.sroa.17.0.i.i.i, %bb5.i.i.i ]
  %char_indices.sroa.0.1231.i.i.i = phi ptr [ %char_indices.sroa.0.2.i.i.i, %bb50.thread225.i.i.i ], [ %char_indices.sroa.0.0.i.i.i, %bb5.i.i.i ]
  %_6.i.i.i.i.i.i.i.i = icmp eq ptr %char_indices.sroa.0.1231.i.i.i, %_69.i.i.i
  br i1 %_6.i.i.i.i.i.i.i.i, label %bb33.i.i.i, label %bb14.i.i.i.i.i.i.i

bb14.i.i.i.i.i.i.i:                               ; preds = %bb1.i.i.i.i
  %_16.i.i.i.i.i.i.i.i = getelementptr inbounds nuw i8, ptr %char_indices.sroa.0.1231.i.i.i, i64 1
  %x.i.i.i.i.i.i.i = load i8, ptr %char_indices.sroa.0.1231.i.i.i, align 1, !alias.scope !55, !noalias !83, !noundef !2
  %_6.i.i.i.i.i.i.i = icmp sgt i8 %x.i.i.i.i.i.i.i, -1
  br i1 %_6.i.i.i.i.i.i.i, label %bb3.i.i.i.i40.i.i.i, label %bb4.i.i.i.i.i.i.i

bb4.i.i.i.i.i.i.i:                                ; preds = %bb14.i.i.i.i.i.i.i
  %_30.i.i.i.i.i.i.i = and i8 %x.i.i.i.i.i.i.i, 31
  %init.i.i.i.i.i.i.i = zext nneg i8 %_30.i.i.i.i.i.i.i to i32
  %_6.i10.i.i.i.i.i.i.i = icmp ne ptr %_16.i.i.i.i.i.i.i.i, %_69.i.i.i
  call void @llvm.assume(i1 %_6.i10.i.i.i.i.i.i.i)
  %_16.i12.i.i.i.i.i.i.i = getelementptr inbounds nuw i8, ptr %char_indices.sroa.0.1231.i.i.i, i64 2
  %y.i.i.i.i.i.i.i = load i8, ptr %_16.i.i.i.i.i.i.i.i, align 1, !alias.scope !55, !noalias !83, !noundef !2
  %_33.i.i.i.i.i.i.i = shl nuw nsw i32 %init.i.i.i.i.i.i.i, 6
  %_35.i.i.i.i.i.i.i = and i8 %y.i.i.i.i.i.i.i, 63
  %_34.i.i.i.i.i.i.i = zext nneg i8 %_35.i.i.i.i.i.i.i to i32
  %27 = or disjoint i32 %_33.i.i.i.i.i.i.i, %_34.i.i.i.i.i.i.i
  %_13.i.i.i.i.i.i.i = icmp samesign ugt i8 %x.i.i.i.i.i.i.i, -33
  br i1 %_13.i.i.i.i.i.i.i, label %bb6.i.i.i.i.i.i.i, label %bb53.i.i.i

bb3.i.i.i.i40.i.i.i:                              ; preds = %bb14.i.i.i.i.i.i.i
  %_7.i.i.i.i.i.i.i = zext nneg i8 %x.i.i.i.i.i.i.i to i32
  br label %bb53.i.i.i

bb6.i.i.i.i.i.i.i:                                ; preds = %bb4.i.i.i.i.i.i.i
  %_6.i17.i.i.i.i.i.i.i = icmp ne ptr %_16.i12.i.i.i.i.i.i.i, %_69.i.i.i
  call void @llvm.assume(i1 %_6.i17.i.i.i.i.i.i.i)
  %_16.i19.i.i.i.i.i.i.i = getelementptr inbounds nuw i8, ptr %char_indices.sroa.0.1231.i.i.i, i64 3
  %z.i.i.i.i.i.i.i = load i8, ptr %_16.i12.i.i.i.i.i.i.i, align 1, !alias.scope !55, !noalias !83, !noundef !2
  %_38.i.i.i.i.i.i.i = shl nuw nsw i32 %_34.i.i.i.i.i.i.i, 6
  %_40.i.i.i.i.i.i.i = and i8 %z.i.i.i.i.i.i.i, 63
  %_39.i.i.i.i.i.i.i = zext nneg i8 %_40.i.i.i.i.i.i.i to i32
  %y_z.i.i.i.i.i.i.i = or disjoint i32 %_38.i.i.i.i.i.i.i, %_39.i.i.i.i.i.i.i
  %_20.i.i.i.i.i.i.i = shl nuw nsw i32 %init.i.i.i.i.i.i.i, 12
  %28 = or disjoint i32 %y_z.i.i.i.i.i.i.i, %_20.i.i.i.i.i.i.i
  %_21.i.i.i.i.i.i.i = icmp samesign ugt i8 %x.i.i.i.i.i.i.i, -17
  br i1 %_21.i.i.i.i.i.i.i, label %bb8.i.i.i.i.i.i.i, label %bb53.i.i.i

bb8.i.i.i.i.i.i.i:                                ; preds = %bb6.i.i.i.i.i.i.i
  %_6.i24.i.i.i.i.i.i.i = icmp ne ptr %_16.i19.i.i.i.i.i.i.i, %_69.i.i.i
  call void @llvm.assume(i1 %_6.i24.i.i.i.i.i.i.i)
  %_16.i26.i.i.i.i.i.i.i = getelementptr inbounds nuw i8, ptr %char_indices.sroa.0.1231.i.i.i, i64 4
  %w.i.i.i.i.i.i.i = load i8, ptr %_16.i19.i.i.i.i.i.i.i, align 1, !alias.scope !55, !noalias !83, !noundef !2
  %_26.i.i.i.i.i.i.i = shl nuw nsw i32 %init.i.i.i.i.i.i.i, 18
  %_25.i.i.i.i.i.i.i = and i32 %_26.i.i.i.i.i.i.i, 1835008
  %_43.i.i.i.i.i.i.i = shl nuw nsw i32 %y_z.i.i.i.i.i.i.i, 6
  %_45.i.i.i.i.i.i.i = and i8 %w.i.i.i.i.i.i.i, 63
  %_44.i.i.i.i.i.i.i = zext nneg i8 %_45.i.i.i.i.i.i.i to i32
  %_27.i.i.i.i.i.i.i = or disjoint i32 %_43.i.i.i.i.i.i.i, %_44.i.i.i.i.i.i.i
  %29 = or disjoint i32 %_27.i.i.i.i.i.i.i, %_25.i.i.i.i.i.i.i
  br label %bb53.i.i.i

bb35.i.i.i:                                       ; preds = %bb47.i.i.i, %.noexc4.i, %.noexc3.i
  %.promoted153.off0.i.i.i = phi i1 [ false, %.noexc4.i ], [ false, %.noexc3.i ], [ %.promoted154.off0.i.i.i, %bb47.i.i.i ]
  %char_indices.sroa.22.2.i.i.i = phi i64 [ undef, %.noexc4.i ], [ undef, %.noexc3.i ], [ %char_indices.sroa.22.1.i.i.i, %bb47.i.i.i ]
  br i1 %iter.sroa.22.1.ph.off0.i.i.i, label %_RNvXsC_NtCsdJPVW0sQgAG_5alloc6stringINtNtCs2f1hMIlW3Va_4heck11lower_camel16AsLowerCamelCaseReENtB5_12SpecToString14spec_to_stringBD_.exit, label %bb2.i.i.i.i

bb53.i.i.i:                                       ; preds = %bb8.i.i.i.i.i.i.i, %bb6.i.i.i.i.i.i.i, %bb3.i.i.i.i40.i.i.i, %bb4.i.i.i.i.i.i.i
  %char_indices.sroa.0.4.i.i.i = phi ptr [ %_16.i.i.i.i.i.i.i.i, %bb3.i.i.i.i40.i.i.i ], [ %_16.i26.i.i.i.i.i.i.i, %bb8.i.i.i.i.i.i.i ], [ %_16.i19.i.i.i.i.i.i.i, %bb6.i.i.i.i.i.i.i ], [ %_16.i12.i.i.i.i.i.i.i, %bb4.i.i.i.i.i.i.i ]
  %_0.sroa.4.0.i.ph.i.i.i.i.i.i = phi i32 [ %_7.i.i.i.i.i.i.i, %bb3.i.i.i.i40.i.i.i ], [ %29, %bb8.i.i.i.i.i.i.i ], [ %28, %bb6.i.i.i.i.i.i.i ], [ %27, %bb4.i.i.i.i.i.i.i ]
  %30 = icmp samesign ult i32 %_0.sroa.4.0.i.ph.i.i.i.i.i.i, 1114112
  call void @llvm.assume(i1 %30)
  %31 = ptrtoint ptr %char_indices.sroa.0.4.i.i.i to i64
  %_10.i.i.i.i.i.i = sub i64 %char_indices.sroa.17.1232.i.i.i, %.pre-phi.i.i
  %32 = add i64 %_10.i.i.i.i.i.i, %31
  %33 = add nsw i32 %_15.sroa.8.0234.i.i.i, -97
  %or.cond.i.i.i = icmp ult i32 %33, 26
  br i1 %or.cond.i.i.i, label %bb11.i.i.i, label %bb54.i.i.i

bb33.i.i.i:                                       ; preds = %bb1.i.i.i.i
  %34 = icmp eq i64 %init.sroa.0.0.i.i.i, 0
  br i1 %34, label %_RNvXs9_NtNtCsjMrxcFdYDNN_4core3str6traitsINtNtNtB9_3ops5range9RangeFromjEINtNtNtB9_5slice5index10SliceIndexeE3get.exit.i.i.i, label %bb5.i.i.i.i

bb5.i.i.i.i:                                      ; preds = %bb33.i.i.i
  %_8.not.i.i.i.i = icmp ult i64 %init.sroa.0.0.i.i.i, %_0.sroa.4.1.i.ph.i.i.i
  br i1 %_8.not.i.i.i.i, label %bb9.i.i.i.i, label %bb6.i.i.i.i

bb6.i.i.i.i:                                      ; preds = %bb5.i.i.i.i
  %35 = icmp eq i64 %init.sroa.0.0.i.i.i, %_0.sroa.4.1.i.ph.i.i.i
  br i1 %35, label %_RNvXs9_NtNtCsjMrxcFdYDNN_4core3str6traitsINtNtNtB9_3ops5range9RangeFromjEINtNtNtB9_5slice5index10SliceIndexeE3get.exit.i.i.i, label %bb101.i.i.invoke.i

bb9.i.i.i.i:                                      ; preds = %bb5.i.i.i.i
  %36 = getelementptr inbounds nuw i8, ptr %_0.sroa.0.1.i.ph.i.i.i, i64 %init.sroa.0.0.i.i.i
  %self1.i.i.i.i = load i8, ptr %36, align 1, !alias.scope !93, !noalias !96, !noundef !2
  %37 = icmp sgt i8 %self1.i.i.i.i, -65
  br i1 %37, label %_RNvXs9_NtNtCsjMrxcFdYDNN_4core3str6traitsINtNtNtB9_3ops5range9RangeFromjEINtNtNtB9_5slice5index10SliceIndexeE3get.exit.i.i.i, label %bb101.i.i.invoke.i

_RNvXs9_NtNtCsjMrxcFdYDNN_4core3str6traitsINtNtNtB9_3ops5range9RangeFromjEINtNtNtB9_5slice5index10SliceIndexeE3get.exit.i.i.i: ; preds = %bb9.i.i.i.i, %bb6.i.i.i.i, %bb33.i.i.i
  %new_len.i43.i.i.i = sub nuw i64 %_0.sroa.4.1.i.ph.i.i.i, %init.sroa.0.0.i.i.i
  %data.i44.i.i.i = getelementptr inbounds nuw i8, ptr %_0.sroa.0.1.i.ph.i.i.i, i64 %init.sroa.0.0.i.i.i
  br i1 %.promoted154.off0.i.i.i, label %bb1.i47.i.i.i, label %_RNCNvXs_NtCs2f1hMIlW3Va_4heck11lower_camelINtB6_16AsLowerCamelCaseReENtNtCsjMrxcFdYDNN_4core3fmt7Display3fmt0B8_.exit.i.i.i

bb1.i47.i.i.i:                                    ; preds = %_RNvXs9_NtNtCsjMrxcFdYDNN_4core3str6traitsINtNtNtB9_3ops5range9RangeFromjEINtNtNtB9_5slice5index10SliceIndexeE3get.exit.i.i.i
; invoke heck::lowercase
  %38 = invoke noundef zeroext i1 @_RNvCs2f1hMIlW3Va_4heck9lowercase(ptr noalias noundef nonnull readonly align 1 captures(address, read_provenance) %data.i44.i.i.i, i64 noundef %new_len.i43.i.i.i, ptr noalias noundef nonnull readonly align 8 dereferenceable(24) %formatter.i)
          to label %.noexc3.i unwind label %cleanup.loopexit.split-lp.loopexit.split-lp.loopexit.i, !noalias !52

.noexc3.i:                                        ; preds = %bb1.i47.i.i.i
  br i1 %38, label %bb2.i.i, label %bb35.i.i.i, !prof !97

_RNCNvXs_NtCs2f1hMIlW3Va_4heck11lower_camelINtB6_16AsLowerCamelCaseReENtNtCsjMrxcFdYDNN_4core3fmt7Display3fmt0B8_.exit.i.i.i: ; preds = %_RNvXs9_NtNtCsjMrxcFdYDNN_4core3str6traitsINtNtNtB9_3ops5range9RangeFromjEINtNtNtB9_5slice5index10SliceIndexeE3get.exit.i.i.i
; invoke heck::capitalize
  %39 = invoke noundef zeroext i1 @_RNvCs2f1hMIlW3Va_4heck10capitalize(ptr noalias noundef nonnull readonly align 1 captures(address, read_provenance) %data.i44.i.i.i, i64 noundef %new_len.i43.i.i.i, ptr noalias noundef nonnull readonly align 8 dereferenceable(24) %formatter.i)
          to label %.noexc4.i unwind label %cleanup.loopexit.split-lp.loopexit.split-lp.loopexit.i, !noalias !52

.noexc4.i:                                        ; preds = %_RNCNvXs_NtCs2f1hMIlW3Va_4heck11lower_camelINtB6_16AsLowerCamelCaseReENtNtCsjMrxcFdYDNN_4core3fmt7Display3fmt0B8_.exit.i.i.i
  br i1 %39, label %bb2.i.i, label %bb35.i.i.i, !prof !97

bb101.i.i.invoke.i:                               ; preds = %bb9.i.i.i.i, %bb6.i.i.i.i, %bb19.i76.i.i.i, %bb16.i72.i.i.i, %bb13.i78.i.i.i, %bb10.i65.i.i.i, %bb15.i.i.i, %bb19.i.i.i.i, %bb16.i.i.i.i, %bb13.i.i.i.i, %bb10.i.i.i.i, %bb24.i.i.i
  %40 = phi i64 [ %_15.sroa.0.0233.i.i.i, %bb19.i.i.i.i ], [ %_15.sroa.0.0233.i.i.i, %bb16.i.i.i.i ], [ %_15.sroa.0.0233.i.i.i, %bb13.i.i.i.i ], [ %_15.sroa.0.0233.i.i.i, %bb10.i.i.i.i ], [ %_15.sroa.0.0233.i.i.i, %bb24.i.i.i ], [ %char_indices.sroa.17.1232.i.i.i, %bb19.i76.i.i.i ], [ %char_indices.sroa.17.1232.i.i.i, %bb16.i72.i.i.i ], [ %char_indices.sroa.17.1232.i.i.i, %bb13.i78.i.i.i ], [ %char_indices.sroa.17.1232.i.i.i, %bb10.i65.i.i.i ], [ %char_indices.sroa.17.1232.i.i.i, %bb15.i.i.i ], [ %_0.sroa.4.1.i.ph.i.i.i, %bb6.i.i.i.i ], [ %_0.sroa.4.1.i.ph.i.i.i, %bb9.i.i.i.i ]
  %41 = phi ptr [ @alloc_308f8938e9762d461fc13622ca97483f, %bb19.i.i.i.i ], [ @alloc_308f8938e9762d461fc13622ca97483f, %bb16.i.i.i.i ], [ @alloc_308f8938e9762d461fc13622ca97483f, %bb13.i.i.i.i ], [ @alloc_308f8938e9762d461fc13622ca97483f, %bb10.i.i.i.i ], [ @alloc_308f8938e9762d461fc13622ca97483f, %bb24.i.i.i ], [ @alloc_a50a5070980a36c272121b09121457de, %bb19.i76.i.i.i ], [ @alloc_a50a5070980a36c272121b09121457de, %bb16.i72.i.i.i ], [ @alloc_a50a5070980a36c272121b09121457de, %bb13.i78.i.i.i ], [ @alloc_a50a5070980a36c272121b09121457de, %bb10.i65.i.i.i ], [ @alloc_a50a5070980a36c272121b09121457de, %bb15.i.i.i ], [ @alloc_13b4bf5d328eab9b8df3f7027955d33b, %bb6.i.i.i.i ], [ @alloc_13b4bf5d328eab9b8df3f7027955d33b, %bb9.i.i.i.i ]
; invoke core::str::slice_error_fail
  invoke void @_RNvNtCsjMrxcFdYDNN_4core3str16slice_error_fail(ptr noalias noundef nonnull readonly align 1 captures(address, read_provenance) %_0.sroa.0.1.i.ph.i.i.i, i64 noundef %_0.sroa.4.1.i.ph.i.i.i, i64 noundef %init.sroa.0.0.i.i.i, i64 noundef %40, ptr noalias noundef nonnull readonly align 8 captures(address, read_provenance) dereferenceable(24) %41) #18
          to label %bb101.i.i.cont.i unwind label %cleanup.loopexit.split-lp.loopexit.split-lp.loopexit.split-lp.i, !noalias !52

bb101.i.i.cont.i:                                 ; preds = %bb101.i.i.invoke.i
  unreachable

bb54.i.i.i:                                       ; preds = %bb53.i.i.i
  %_84.i.i.i = icmp samesign ugt i32 %_15.sroa.8.0234.i.i.i, 127
  br i1 %_84.i.i.i, label %bb57.i.i.i, label %bb8.i.i.i

bb57.i.i.i:                                       ; preds = %bb54.i.i.i
; invoke core::unicode::unicode_data::lowercase::lookup
  %_23.i.i6.i = invoke noundef zeroext i1 @_RNvNtNtNtCsjMrxcFdYDNN_4core7unicode12unicode_data9lowercase6lookup(i32 noundef %_15.sroa.8.0234.i.i.i)
          to label %_23.i.i.noexc.i unwind label %cleanup.loopexit.i.loopexit.split-lp.loopexit, !noalias !52

_23.i.i.noexc.i:                                  ; preds = %bb57.i.i.i
  br i1 %_23.i.i6.i, label %bb11.i.i.i, label %bb63.i.i.i

bb8.i.i.i:                                        ; preds = %bb54.i.i.i
  %42 = add nsw i32 %_15.sroa.8.0234.i.i.i, -65
  %or.cond1.i.i.i = icmp ult i32 %42, 26
  br i1 %or.cond1.i.i.i, label %bb17.i.i.i, label %bb10.i.i.i

bb63.i.i.i:                                       ; preds = %_23.i.i.noexc.i
; invoke core::unicode::unicode_data::uppercase::lookup
  %_24.i.i7.i = invoke noundef zeroext i1 @_RNvNtNtNtCsjMrxcFdYDNN_4core7unicode12unicode_data9uppercase6lookup(i32 noundef %_15.sroa.8.0234.i.i.i)
          to label %_24.i.i.noexc.i unwind label %cleanup.loopexit.i.loopexit.split-lp.loopexit, !noalias !52

_24.i.i.noexc.i:                                  ; preds = %bb63.i.i.i
  br i1 %_24.i.i7.i, label %bb17.i.i.i, label %bb10.i.i.i

bb10.i.i.i:                                       ; preds = %_24.i.i.noexc.i, %bb8.i.i.i
  %_25.i.i.i = icmp eq i8 %mode.sroa.0.0.i.i.i, 1
  br i1 %_25.i.i.i, label %bb11.i.i.i, label %bb17.i.i.i

bb17.i.i.i:                                       ; preds = %_26.i.i.noexc.i, %bb66.i.i.i, %bb10.i.i.i, %_24.i.i.noexc.i, %bb8.i.i.i
  %next_mode.sroa.0.0.i.i.i = phi i8 [ 1, %_26.i.i.noexc.i ], [ 1, %bb66.i.i.i ], [ %mode.sroa.0.0.i.i.i, %bb10.i.i.i ], [ 2, %bb8.i.i.i ], [ 2, %_24.i.i.noexc.i ]
  %43 = icmp eq i8 %mode.sroa.0.0.i.i.i, 2
  br i1 %43, label %bb18.i.i.i, label %bb5.i.i.i.backedge

bb11.i.i.i:                                       ; preds = %bb10.i.i.i, %_23.i.i.noexc.i, %bb53.i.i.i
  %44 = add nsw i32 %_0.sroa.4.0.i.ph.i.i.i.i.i.i, -65
  %or.cond2.i.i.i = icmp ult i32 %44, 26
  br i1 %or.cond2.i.i.i, label %bb15.i.i.i, label %bb66.i.i.i

bb66.i.i.i:                                       ; preds = %bb11.i.i.i
  %_91.i.i.i = icmp samesign ugt i32 %_0.sroa.4.0.i.ph.i.i.i.i.i.i, 127
  br i1 %_91.i.i.i, label %bb69.i.i.i, label %bb17.i.i.i

bb69.i.i.i:                                       ; preds = %bb66.i.i.i
; invoke core::unicode::unicode_data::uppercase::lookup
  %_26.i.i8.i = invoke noundef zeroext i1 @_RNvNtNtNtCsjMrxcFdYDNN_4core7unicode12unicode_data9uppercase6lookup(i32 noundef %_0.sroa.4.0.i.ph.i.i.i.i.i.i)
          to label %_26.i.i.noexc.i unwind label %cleanup.loopexit.i.loopexit.split-lp.loopexit, !noalias !52

_26.i.i.noexc.i:                                  ; preds = %bb69.i.i.i
  br i1 %_26.i.i8.i, label %bb15.i.i.i, label %bb17.i.i.i

bb18.i.i.i:                                       ; preds = %bb17.i.i.i
  %45 = add nsw i32 %_15.sroa.8.0234.i.i.i, -65
  %or.cond3.i.i.i = icmp ult i32 %45, 26
  br i1 %or.cond3.i.i.i, label %bb19.i.i.i, label %bb79.i.i.i

bb79.i.i.i:                                       ; preds = %bb18.i.i.i
  %_100.i.i.i = icmp samesign ugt i32 %_15.sroa.8.0234.i.i.i, 127
  br i1 %_100.i.i.i, label %bb82.i.i.i, label %bb5.i.i.i.backedge

bb82.i.i.i:                                       ; preds = %bb79.i.i.i
; invoke core::unicode::unicode_data::uppercase::lookup
  %_35.i.i9.i = invoke noundef zeroext i1 @_RNvNtNtNtCsjMrxcFdYDNN_4core7unicode12unicode_data9uppercase6lookup(i32 noundef %_15.sroa.8.0234.i.i.i)
          to label %_35.i.i.noexc.i unwind label %cleanup.loopexit.i.loopexit.split-lp.loopexit, !noalias !52

_35.i.i.noexc.i:                                  ; preds = %bb82.i.i.i
  br i1 %_35.i.i9.i, label %bb19.i.i.i, label %bb5.i.i.i.backedge

bb19.i.i.i:                                       ; preds = %_35.i.i.noexc.i, %bb18.i.i.i
  %46 = add nsw i32 %_0.sroa.4.0.i.ph.i.i.i.i.i.i, -97
  %or.cond4.i.i.i = icmp ult i32 %46, 26
  br i1 %or.cond4.i.i.i, label %bb24.i.i.i, label %bb85.i.i.i

bb85.i.i.i:                                       ; preds = %bb19.i.i.i
  %_103.i.i.i = icmp samesign ugt i32 %_0.sroa.4.0.i.ph.i.i.i.i.i.i, 127
  br i1 %_103.i.i.i, label %bb88.i.i.i, label %bb5.i.i.i.backedge

bb88.i.i.i:                                       ; preds = %bb85.i.i.i
; invoke core::unicode::unicode_data::lowercase::lookup
  %_36.i.i10.i = invoke noundef zeroext i1 @_RNvNtNtNtCsjMrxcFdYDNN_4core7unicode12unicode_data9lowercase6lookup(i32 noundef %_0.sroa.4.0.i.ph.i.i.i.i.i.i)
          to label %_36.i.i.noexc.i unwind label %cleanup.loopexit.i.loopexit.split-lp.loopexit, !noalias !52

_36.i.i.noexc.i:                                  ; preds = %bb88.i.i.i
  br i1 %_36.i.i10.i, label %bb24.i.i.i, label %bb5.i.i.i.backedge

bb24.i.i.i:                                       ; preds = %_36.i.i.noexc.i, %bb19.i.i.i
  %_3.not.i.i.i.i = icmp ugt i64 %init.sroa.0.0.i.i.i, %_15.sroa.0.0233.i.i.i
  br i1 %_3.not.i.i.i.i, label %bb101.i.i.invoke.i, label %bb1.i48.i.i.i

bb1.i48.i.i.i:                                    ; preds = %bb24.i.i.i
  %47 = icmp eq i64 %init.sroa.0.0.i.i.i, 0
  br i1 %47, label %bb2.i53.i.i.i, label %bb9.i49.i.i.i

bb9.i49.i.i.i:                                    ; preds = %bb1.i48.i.i.i
  %_11.not.i.i.i.i = icmp ult i64 %init.sroa.0.0.i.i.i, %_0.sroa.4.1.i.ph.i.i.i
  br i1 %_11.not.i.i.i.i, label %bb13.i.i.i.i, label %bb10.i.i.i.i

bb2.i53.i.i.i:                                    ; preds = %bb13.i.i.i.i, %bb10.i.i.i.i, %bb1.i48.i.i.i
  %48 = icmp eq i64 %_15.sroa.0.0233.i.i.i, 0
  br i1 %48, label %_RNvXs5_NtNtCsjMrxcFdYDNN_4core3str6traitsINtNtNtB9_3ops5range5RangejEINtNtNtB9_5slice5index10SliceIndexeE3get.exit.i.i.i, label %bb15.i.i.i.i

bb10.i.i.i.i:                                     ; preds = %bb9.i49.i.i.i
  %49 = icmp eq i64 %init.sroa.0.0.i.i.i, %_0.sroa.4.1.i.ph.i.i.i
  br i1 %49, label %bb2.i53.i.i.i, label %bb101.i.i.invoke.i

bb13.i.i.i.i:                                     ; preds = %bb9.i49.i.i.i
  %50 = getelementptr inbounds nuw i8, ptr %_0.sroa.0.1.i.ph.i.i.i, i64 %init.sroa.0.0.i.i.i
  %self.i.i.i.i = load i8, ptr %50, align 1, !alias.scope !98, !noalias !96, !noundef !2
  %51 = icmp sgt i8 %self.i.i.i.i, -65
  br i1 %51, label %bb2.i53.i.i.i, label %bb101.i.i.invoke.i

bb15.i.i.i.i:                                     ; preds = %bb2.i53.i.i.i
  %_17.not.i.i.i.i = icmp ult i64 %_15.sroa.0.0233.i.i.i, %_0.sroa.4.1.i.ph.i.i.i
  br i1 %_17.not.i.i.i.i, label %bb19.i.i.i.i, label %bb16.i.i.i.i

bb16.i.i.i.i:                                     ; preds = %bb15.i.i.i.i
  %52 = icmp eq i64 %_15.sroa.0.0233.i.i.i, %_0.sroa.4.1.i.ph.i.i.i
  br i1 %52, label %_RNvXs5_NtNtCsjMrxcFdYDNN_4core3str6traitsINtNtNtB9_3ops5range5RangejEINtNtNtB9_5slice5index10SliceIndexeE3get.exit.i.i.i, label %bb101.i.i.invoke.i

bb19.i.i.i.i:                                     ; preds = %bb15.i.i.i.i
  %53 = getelementptr inbounds nuw i8, ptr %_0.sroa.0.1.i.ph.i.i.i, i64 %_15.sroa.0.0233.i.i.i
  %self2.i.i.i.i = load i8, ptr %53, align 1, !alias.scope !98, !noalias !96, !noundef !2
  %54 = icmp sgt i8 %self2.i.i.i.i, -65
  br i1 %54, label %_RNvXs5_NtNtCsjMrxcFdYDNN_4core3str6traitsINtNtNtB9_3ops5range5RangejEINtNtNtB9_5slice5index10SliceIndexeE3get.exit.i.i.i, label %bb101.i.i.invoke.i

_RNvXs5_NtNtCsjMrxcFdYDNN_4core3str6traitsINtNtNtB9_3ops5range5RangejEINtNtNtB9_5slice5index10SliceIndexeE3get.exit.i.i.i: ; preds = %bb19.i.i.i.i, %bb16.i.i.i.i, %bb2.i53.i.i.i
  %new_len.i54.i.i.i = sub nuw i64 %_15.sroa.0.0233.i.i.i, %init.sroa.0.0.i.i.i
  %data.i55.i.i.i = getelementptr inbounds nuw i8, ptr %_0.sroa.0.1.i.ph.i.i.i, i64 %init.sroa.0.0.i.i.i
  br i1 %.off0.i.i.i, label %bb1.i59.i.i.i, label %_RNCNvXs_NtCs2f1hMIlW3Va_4heck11lower_camelINtB6_16AsLowerCamelCaseReENtNtCsjMrxcFdYDNN_4core3fmt7Display3fmt0B8_.exit60.i.i.i

bb1.i59.i.i.i:                                    ; preds = %_RNvXs5_NtNtCsjMrxcFdYDNN_4core3str6traitsINtNtNtB9_3ops5range5RangejEINtNtNtB9_5slice5index10SliceIndexeE3get.exit.i.i.i
; invoke heck::lowercase
  %55 = invoke noundef zeroext i1 @_RNvCs2f1hMIlW3Va_4heck9lowercase(ptr noalias noundef nonnull readonly align 1 captures(address, read_provenance) %data.i55.i.i.i, i64 noundef %new_len.i54.i.i.i, ptr noalias noundef nonnull readonly align 8 dereferenceable(24) %formatter.i)
          to label %.noexc11.i unwind label %cleanup.loopexit.i.loopexit.split-lp.loopexit, !noalias !52

.noexc11.i:                                       ; preds = %bb1.i59.i.i.i
  br i1 %55, label %bb2.i.i, label %bb5.i.i.i.backedge, !prof !97

_RNCNvXs_NtCs2f1hMIlW3Va_4heck11lower_camelINtB6_16AsLowerCamelCaseReENtNtCsjMrxcFdYDNN_4core3fmt7Display3fmt0B8_.exit60.i.i.i: ; preds = %_RNvXs5_NtNtCsjMrxcFdYDNN_4core3str6traitsINtNtNtB9_3ops5range5RangejEINtNtNtB9_5slice5index10SliceIndexeE3get.exit.i.i.i
; invoke heck::capitalize
  %56 = invoke noundef zeroext i1 @_RNvCs2f1hMIlW3Va_4heck10capitalize(ptr noalias noundef nonnull readonly align 1 captures(address, read_provenance) %data.i55.i.i.i, i64 noundef %new_len.i54.i.i.i, ptr noalias noundef nonnull readonly align 8 dereferenceable(24) %formatter.i)
          to label %.noexc12.i unwind label %cleanup.loopexit.i.loopexit.split-lp.loopexit, !noalias !52

.noexc12.i:                                       ; preds = %_RNCNvXs_NtCs2f1hMIlW3Va_4heck11lower_camelINtB6_16AsLowerCamelCaseReENtNtCsjMrxcFdYDNN_4core3fmt7Display3fmt0B8_.exit60.i.i.i
  br i1 %56, label %bb2.i.i, label %bb5.i.i.i.backedge, !prof !97

bb15.i.i.i:                                       ; preds = %_26.i.i.noexc.i, %bb11.i.i.i
  %_3.not.i61.i.i.i = icmp ugt i64 %init.sroa.0.0.i.i.i, %char_indices.sroa.17.1232.i.i.i
  br i1 %_3.not.i61.i.i.i, label %bb101.i.i.invoke.i, label %bb1.i62.i.i.i

bb1.i62.i.i.i:                                    ; preds = %bb15.i.i.i
  %57 = icmp eq i64 %init.sroa.0.0.i.i.i, 0
  br i1 %57, label %bb2.i69.i.i.i, label %bb9.i63.i.i.i

bb9.i63.i.i.i:                                    ; preds = %bb1.i62.i.i.i
  %_11.not.i64.i.i.i = icmp ult i64 %init.sroa.0.0.i.i.i, %_0.sroa.4.1.i.ph.i.i.i
  br i1 %_11.not.i64.i.i.i, label %bb13.i78.i.i.i, label %bb10.i65.i.i.i

bb2.i69.i.i.i:                                    ; preds = %bb13.i78.i.i.i, %bb10.i65.i.i.i, %bb1.i62.i.i.i
  %58 = icmp eq i64 %char_indices.sroa.17.1232.i.i.i, 0
  br i1 %58, label %_RNvXs5_NtNtCsjMrxcFdYDNN_4core3str6traitsINtNtNtB9_3ops5range5RangejEINtNtNtB9_5slice5index10SliceIndexeE3get.exit80.i.i.i, label %bb15.i70.i.i.i

bb10.i65.i.i.i:                                   ; preds = %bb9.i63.i.i.i
  %59 = icmp eq i64 %init.sroa.0.0.i.i.i, %_0.sroa.4.1.i.ph.i.i.i
  br i1 %59, label %bb2.i69.i.i.i, label %bb101.i.i.invoke.i

bb13.i78.i.i.i:                                   ; preds = %bb9.i63.i.i.i
  %60 = getelementptr inbounds nuw i8, ptr %_0.sroa.0.1.i.ph.i.i.i, i64 %init.sroa.0.0.i.i.i
  %self.i79.i.i.i = load i8, ptr %60, align 1, !alias.scope !101, !noalias !96, !noundef !2
  %61 = icmp sgt i8 %self.i79.i.i.i, -65
  br i1 %61, label %bb2.i69.i.i.i, label %bb101.i.i.invoke.i

bb15.i70.i.i.i:                                   ; preds = %bb2.i69.i.i.i
  %_17.not.i71.i.i.i = icmp ult i64 %char_indices.sroa.17.1232.i.i.i, %_0.sroa.4.1.i.ph.i.i.i
  br i1 %_17.not.i71.i.i.i, label %bb19.i76.i.i.i, label %bb16.i72.i.i.i

bb16.i72.i.i.i:                                   ; preds = %bb15.i70.i.i.i
  %62 = icmp eq i64 %char_indices.sroa.17.1232.i.i.i, %_0.sroa.4.1.i.ph.i.i.i
  br i1 %62, label %_RNvXs5_NtNtCsjMrxcFdYDNN_4core3str6traitsINtNtNtB9_3ops5range5RangejEINtNtNtB9_5slice5index10SliceIndexeE3get.exit80.i.i.i, label %bb101.i.i.invoke.i

bb19.i76.i.i.i:                                   ; preds = %bb15.i70.i.i.i
  %63 = getelementptr inbounds nuw i8, ptr %_0.sroa.0.1.i.ph.i.i.i, i64 %char_indices.sroa.17.1232.i.i.i
  %self2.i77.i.i.i = load i8, ptr %63, align 1, !alias.scope !101, !noalias !96, !noundef !2
  %64 = icmp sgt i8 %self2.i77.i.i.i, -65
  br i1 %64, label %_RNvXs5_NtNtCsjMrxcFdYDNN_4core3str6traitsINtNtNtB9_3ops5range5RangejEINtNtNtB9_5slice5index10SliceIndexeE3get.exit80.i.i.i, label %bb101.i.i.invoke.i

_RNvXs5_NtNtCsjMrxcFdYDNN_4core3str6traitsINtNtNtB9_3ops5range5RangejEINtNtNtB9_5slice5index10SliceIndexeE3get.exit80.i.i.i: ; preds = %bb19.i76.i.i.i, %bb16.i72.i.i.i, %bb2.i69.i.i.i
  %new_len.i74.i.i.i = sub nuw i64 %char_indices.sroa.17.1232.i.i.i, %init.sroa.0.0.i.i.i
  %data.i75.i.i.i = getelementptr inbounds nuw i8, ptr %_0.sroa.0.1.i.ph.i.i.i, i64 %init.sroa.0.0.i.i.i
  br i1 %.off0.i.i.i, label %bb1.i84.i.i.i, label %_RNCNvXs_NtCs2f1hMIlW3Va_4heck11lower_camelINtB6_16AsLowerCamelCaseReENtNtCsjMrxcFdYDNN_4core3fmt7Display3fmt0B8_.exit85.i.i.i

bb1.i84.i.i.i:                                    ; preds = %_RNvXs5_NtNtCsjMrxcFdYDNN_4core3str6traitsINtNtNtB9_3ops5range5RangejEINtNtNtB9_5slice5index10SliceIndexeE3get.exit80.i.i.i
  call void @llvm.experimental.noalias.scope.decl(metadata !104)
  %_22.i = getelementptr inbounds nuw i8, ptr %_0.sroa.0.1.i.ph.i.i.i, i64 %char_indices.sroa.17.1232.i.i.i
  br label %bb1.i

bb1.i:                                            ; preds = %bb1.i.backedge, %bb1.i84.i.i.i
  %chars.sroa.17.0.i = phi i32 [ 1114113, %bb1.i84.i.i.i ], [ %chars.sroa.17.0.i.be, %bb1.i.backedge ]
  %chars.sroa.0.0.i = phi ptr [ %data.i75.i.i.i, %bb1.i84.i.i.i ], [ %chars.sroa.0.0.i.be, %bb1.i.backedge ]
  switch i32 %chars.sroa.17.0.i, label %bb2.i13 [
    i32 1114113, label %bb14.i
    i32 1114112, label %bb5.i.i.i.backedge
  ]

bb14.i:                                           ; preds = %bb1.i
  %_6.i.i.i11 = icmp eq ptr %chars.sroa.0.0.i, %_22.i
  br i1 %_6.i.i.i11, label %bb5.i.i.i.backedge, label %bb14.i.i

bb14.i.i:                                         ; preds = %bb14.i
  %_16.i.i.i = getelementptr inbounds nuw i8, ptr %chars.sroa.0.0.i, i64 1
  %x.i.i = load i8, ptr %chars.sroa.0.0.i, align 1, !alias.scope !104, !noalias !107, !noundef !2
  %_6.i.i12 = icmp sgt i8 %x.i.i, -1
  br i1 %_6.i.i12, label %bb3.i.i, label %bb4.i.i

bb4.i.i:                                          ; preds = %bb14.i.i
  %_30.i.i = and i8 %x.i.i, 31
  %init.i.i = zext nneg i8 %_30.i.i to i32
  %_6.i10.i.i = icmp ne ptr %_16.i.i.i, %_22.i
  call void @llvm.assume(i1 %_6.i10.i.i), !noalias !52
  %_16.i12.i.i = getelementptr inbounds nuw i8, ptr %chars.sroa.0.0.i, i64 2
  %y.i.i = load i8, ptr %_16.i.i.i, align 1, !alias.scope !104, !noalias !107, !noundef !2
  %_33.i.i = shl nuw nsw i32 %init.i.i, 6
  %_35.i.i = and i8 %y.i.i, 63
  %_34.i.i = zext nneg i8 %_35.i.i to i32
  %65 = or disjoint i32 %_33.i.i, %_34.i.i
  %_13.i.i = icmp samesign ugt i8 %x.i.i, -33
  br i1 %_13.i.i, label %bb6.i.i52, label %bb18.i

bb3.i.i:                                          ; preds = %bb14.i.i
  %_7.i.i = zext nneg i8 %x.i.i to i32
  br label %bb18.i

bb6.i.i52:                                        ; preds = %bb4.i.i
  %_6.i17.i.i = icmp ne ptr %_16.i12.i.i, %_22.i
  call void @llvm.assume(i1 %_6.i17.i.i), !noalias !52
  %_16.i19.i.i = getelementptr inbounds nuw i8, ptr %chars.sroa.0.0.i, i64 3
  %z.i.i = load i8, ptr %_16.i12.i.i, align 1, !alias.scope !104, !noalias !107, !noundef !2
  %_38.i.i = shl nuw nsw i32 %_34.i.i, 6
  %_40.i.i = and i8 %z.i.i, 63
  %_39.i.i = zext nneg i8 %_40.i.i to i32
  %y_z.i.i = or disjoint i32 %_38.i.i, %_39.i.i
  %_20.i.i = shl nuw nsw i32 %init.i.i, 12
  %66 = or disjoint i32 %y_z.i.i, %_20.i.i
  %_21.i.i = icmp samesign ugt i8 %x.i.i, -17
  br i1 %_21.i.i, label %bb8.i.i, label %bb18.i

bb8.i.i:                                          ; preds = %bb6.i.i52
  %_6.i24.i.i = icmp ne ptr %_16.i19.i.i, %_22.i
  call void @llvm.assume(i1 %_6.i24.i.i), !noalias !52
  %_16.i26.i.i = getelementptr inbounds nuw i8, ptr %chars.sroa.0.0.i, i64 4
  %w.i.i = load i8, ptr %_16.i19.i.i, align 1, !alias.scope !104, !noalias !107, !noundef !2
  %_26.i.i = shl nuw nsw i32 %init.i.i, 18
  %_25.i.i = and i32 %_26.i.i, 1835008
  %_43.i.i = shl nuw nsw i32 %y_z.i.i, 6
  %_45.i.i = and i8 %w.i.i, 63
  %_44.i.i = zext nneg i8 %_45.i.i to i32
  %_27.i.i = or disjoint i32 %_43.i.i, %_44.i.i
  %67 = or disjoint i32 %_27.i.i, %_25.i.i
  br label %bb18.i

bb18.i:                                           ; preds = %bb8.i.i, %bb6.i.i52, %bb3.i.i, %bb4.i.i
  %chars.sroa.0.4.ph.i = phi ptr [ %_16.i12.i.i, %bb4.i.i ], [ %_16.i19.i.i, %bb6.i.i52 ], [ %_16.i26.i.i, %bb8.i.i ], [ %_16.i.i.i, %bb3.i.i ]
  %_0.sroa.4.0.i.ph.i = phi i32 [ %65, %bb4.i.i ], [ %66, %bb6.i.i52 ], [ %67, %bb8.i.i ], [ %_7.i.i, %bb3.i.i ]
  %68 = icmp samesign ult i32 %_0.sroa.4.0.i.ph.i, 1114112
  call void @llvm.assume(i1 %68), !noalias !52
  br label %bb2.i13

bb2.i13:                                          ; preds = %bb18.i, %bb1.i
  %chars.sroa.0.1.i = phi ptr [ %chars.sroa.0.0.i, %bb1.i ], [ %chars.sroa.0.4.ph.i, %bb18.i ]
  %_5.sroa.0.0.i = phi i32 [ %chars.sroa.17.0.i, %bb1.i ], [ %_0.sroa.4.0.i.ph.i, %bb18.i ]
  %69 = icmp eq i32 %_5.sroa.0.0.i, 931
  br i1 %69, label %bb1.i.i, label %bb5.i

bb1.i.i:                                          ; preds = %bb2.i13
  %_6.i.i.not.i.i.i.i = icmp eq ptr %chars.sroa.0.1.i, %_22.i
  br i1 %_6.i.i.not.i.i.i.i, label %bb47.i, label %bb14.i.i.i.i.i17

bb14.i.i.i.i.i17:                                 ; preds = %bb1.i.i
  %_16.i.i.i.i.i.i18 = getelementptr inbounds nuw i8, ptr %chars.sroa.0.1.i, i64 1
  %x.i.i.i.i.i19 = load i8, ptr %chars.sroa.0.1.i, align 1, !alias.scope !104, !noalias !111, !noundef !2
  %_6.i.i.i.i.i20 = icmp sgt i8 %x.i.i.i.i.i19, -1
  br i1 %_6.i.i.i.i.i20, label %bb3.i.i.i.i.i50, label %bb4.i.i.i.i.i21

bb4.i.i.i.i.i21:                                  ; preds = %bb14.i.i.i.i.i17
  %_30.i.i.i.i.i22 = and i8 %x.i.i.i.i.i19, 31
  %init.i.i.i.i.i23 = zext nneg i8 %_30.i.i.i.i.i22 to i32
  %_6.i10.i.i.i.i.i24 = icmp ne ptr %_16.i.i.i.i.i.i18, %_22.i
  call void @llvm.assume(i1 %_6.i10.i.i.i.i.i24), !noalias !52
  %_16.i12.i.i.i.i.i25 = getelementptr inbounds nuw i8, ptr %chars.sroa.0.1.i, i64 2
  %y.i.i.i.i.i26 = load i8, ptr %_16.i.i.i.i.i.i18, align 1, !alias.scope !104, !noalias !111, !noundef !2
  %_33.i.i.i.i.i27 = shl nuw nsw i32 %init.i.i.i.i.i23, 6
  %_35.i.i.i.i.i28 = and i8 %y.i.i.i.i.i26, 63
  %_34.i.i.i.i.i29 = zext nneg i8 %_35.i.i.i.i.i28 to i32
  %70 = or disjoint i32 %_33.i.i.i.i.i27, %_34.i.i.i.i.i29
  %_13.i.i.i.i.i30 = icmp samesign ugt i8 %x.i.i.i.i.i19, -33
  br i1 %_13.i.i.i.i.i30, label %bb6.i.i.i.i.i31, label %bb5.i

bb3.i.i.i.i.i50:                                  ; preds = %bb14.i.i.i.i.i17
  %_7.i.i.i.i.i51 = zext nneg i8 %x.i.i.i.i.i19 to i32
  br label %bb5.i

bb6.i.i.i.i.i31:                                  ; preds = %bb4.i.i.i.i.i21
  %_6.i17.i.i.i.i.i32 = icmp ne ptr %_16.i12.i.i.i.i.i25, %_22.i
  call void @llvm.assume(i1 %_6.i17.i.i.i.i.i32), !noalias !52
  %_16.i19.i.i.i.i.i33 = getelementptr inbounds nuw i8, ptr %chars.sroa.0.1.i, i64 3
  %z.i.i.i.i.i34 = load i8, ptr %_16.i12.i.i.i.i.i25, align 1, !alias.scope !104, !noalias !111, !noundef !2
  %_38.i.i.i.i.i35 = shl nuw nsw i32 %_34.i.i.i.i.i29, 6
  %_40.i.i.i.i.i36 = and i8 %z.i.i.i.i.i34, 63
  %_39.i.i.i.i.i37 = zext nneg i8 %_40.i.i.i.i.i36 to i32
  %y_z.i.i.i.i.i38 = or disjoint i32 %_38.i.i.i.i.i35, %_39.i.i.i.i.i37
  %_20.i.i.i.i.i39 = shl nuw nsw i32 %init.i.i.i.i.i23, 12
  %71 = or disjoint i32 %y_z.i.i.i.i.i38, %_20.i.i.i.i.i39
  %_21.i.i.i.i.i40 = icmp samesign ugt i8 %x.i.i.i.i.i19, -17
  br i1 %_21.i.i.i.i.i40, label %_RINvMNtCsjMrxcFdYDNN_4core6optionINtB3_6OptionIBw_cEE18get_or_insert_withNCNvMs3_NtNtNtB5_4iter8adapters8peekableINtB1h_8PeekableNtNtNtB5_3str4iter5CharsE4peek0ECs2f1hMIlW3Va_4heck.exit.i, label %bb5.i

_RINvMNtCsjMrxcFdYDNN_4core6optionINtB3_6OptionIBw_cEE18get_or_insert_withNCNvMs3_NtNtNtB5_4iter8adapters8peekableINtB1h_8PeekableNtNtNtB5_3str4iter5CharsE4peek0ECs2f1hMIlW3Va_4heck.exit.i: ; preds = %bb6.i.i.i.i.i31
  %_6.i24.i.i.i.i.i41 = icmp ne ptr %_16.i19.i.i.i.i.i33, %_22.i
  call void @llvm.assume(i1 %_6.i24.i.i.i.i.i41), !noalias !52
  %_16.i26.i.i.i.i.i42 = getelementptr inbounds nuw i8, ptr %chars.sroa.0.1.i, i64 4
  %w.i.i.i.i.i43 = load i8, ptr %_16.i19.i.i.i.i.i33, align 1, !alias.scope !104, !noalias !111, !noundef !2
  %_26.i.i.i.i.i44 = shl nuw nsw i32 %init.i.i.i.i.i23, 18
  %_25.i.i.i.i.i45 = and i32 %_26.i.i.i.i.i44, 1835008
  %_43.i.i.i.i.i46 = shl nuw nsw i32 %y_z.i.i.i.i.i38, 6
  %_45.i.i.i.i.i47 = and i8 %w.i.i.i.i.i43, 63
  %_44.i.i.i.i.i48 = zext nneg i8 %_45.i.i.i.i.i47 to i32
  %_27.i.i.i.i.i49 = or disjoint i32 %_43.i.i.i.i.i46, %_44.i.i.i.i.i48
  %72 = or disjoint i32 %_27.i.i.i.i.i49, %_25.i.i.i.i.i45
  %.not12.i = icmp eq i32 %72, 1114112
  br i1 %.not12.i, label %bb47.i, label %bb5.i

bb5.i:                                            ; preds = %_RINvMNtCsjMrxcFdYDNN_4core6optionINtB3_6OptionIBw_cEE18get_or_insert_withNCNvMs3_NtNtNtB5_4iter8adapters8peekableINtB1h_8PeekableNtNtNtB5_3str4iter5CharsE4peek0ECs2f1hMIlW3Va_4heck.exit.i, %bb6.i.i.i.i.i31, %bb3.i.i.i.i.i50, %bb4.i.i.i.i.i21, %bb2.i13
  %chars.sroa.17.1.i = phi i32 [ %72, %_RINvMNtCsjMrxcFdYDNN_4core6optionINtB3_6OptionIBw_cEE18get_or_insert_withNCNvMs3_NtNtNtB5_4iter8adapters8peekableINtB1h_8PeekableNtNtNtB5_3str4iter5CharsE4peek0ECs2f1hMIlW3Va_4heck.exit.i ], [ 1114113, %bb2.i13 ], [ %70, %bb4.i.i.i.i.i21 ], [ %71, %bb6.i.i.i.i.i31 ], [ %_7.i.i.i.i.i51, %bb3.i.i.i.i.i50 ]
  %chars.sroa.0.2.i = phi ptr [ %_16.i26.i.i.i.i.i42, %_RINvMNtCsjMrxcFdYDNN_4core6optionINtB3_6OptionIBw_cEE18get_or_insert_withNCNvMs3_NtNtNtB5_4iter8adapters8peekableINtB1h_8PeekableNtNtNtB5_3str4iter5CharsE4peek0ECs2f1hMIlW3Va_4heck.exit.i ], [ %chars.sroa.0.1.i, %bb2.i13 ], [ %_16.i12.i.i.i.i.i25, %bb4.i.i.i.i.i21 ], [ %_16.i19.i.i.i.i.i33, %bb6.i.i.i.i.i31 ], [ %_16.i.i.i.i.i.i18, %bb3.i.i.i.i.i50 ]
  call void @llvm.lifetime.start.p0(i64 32, ptr nonnull %_13.i), !noalias !121
  call void @llvm.lifetime.start.p0(i64 12, ptr nonnull %_63.i), !noalias !121
; invoke core::unicode::unicode_data::conversions::to_lower
  invoke void @_RNvNtNtNtCsjMrxcFdYDNN_4core7unicode12unicode_data11conversions8to_lower(ptr noalias noundef nonnull sret([12 x i8]) align 4 captures(none) dereferenceable(12) %_63.i, i32 noundef %_5.sroa.0.0.i)
          to label %.noexc53 unwind label %cleanup.loopexit.i.loopexit

.noexc53:                                         ; preds = %bb5.i
  %_3.i.i14 = load i32, ptr %4, align 4, !range !14, !alias.scope !122, !noalias !125, !noundef !2
  %73 = icmp eq i32 %_3.i.i14, 0
  %_6.i13.i = load i32, ptr %5, align 4, !range !14, !alias.scope !122, !noalias !125
  %74 = icmp eq i32 %_6.i13.i, 0
  %spec.select.i.i15 = select i1 %74, i64 1, i64 2
  %iter.sroa.4.0.i.i16 = select i1 %73, i64 %spec.select.i.i15, i64 3
  call void @llvm.memcpy.p0.p0.i64(ptr noundef nonnull align 8 dereferenceable(12) %_62.sroa.5.0._13.sroa_idx.i, ptr noundef nonnull align 4 dereferenceable(12) %_63.i, i64 12, i1 false), !noalias !121
  call void @llvm.lifetime.end.p0(i64 12, ptr nonnull %_63.i), !noalias !121
  store i64 0, ptr %_13.i, align 8, !noalias !121
  store i64 %iter.sroa.4.0.i.i16, ptr %_62.sroa.4.0._13.sroa_idx.i, align 8, !noalias !121
  call void @llvm.lifetime.start.p0(i64 16, ptr nonnull %args.i8), !noalias !121
  store ptr %_13.i, ptr %args.i8, align 8, !noalias !121
  store ptr @_RNvXsB_NtCsjMrxcFdYDNN_4core4charNtB5_11ToLowercaseNtNtB7_3fmt7Display3fmt, ptr %_15.sroa.4.0..sroa_idx.i, align 8, !noalias !121
; invoke core::fmt::write
  %75 = invoke noundef zeroext i1 @_RNvNtCsjMrxcFdYDNN_4core3fmt5write(ptr noundef nonnull align 1 %buf.i, ptr noalias noundef nonnull readonly align 8 captures(address, read_provenance) dereferenceable(48) @vtable.1, ptr noundef nonnull @alloc_0c812808379efded5a4fb82d2790b556, ptr noundef nonnull %args.i8)
          to label %.noexc54 unwind label %cleanup.loopexit.i.loopexit

.noexc54:                                         ; preds = %.noexc53
  call void @llvm.lifetime.end.p0(i64 16, ptr nonnull %args.i8), !noalias !121
  call void @llvm.lifetime.end.p0(i64 32, ptr nonnull %_13.i), !noalias !121
  br i1 %75, label %bb2.i.i, label %bb1.i.backedge, !prof !97

bb47.i:                                           ; preds = %_RINvMNtCsjMrxcFdYDNN_4core6optionINtB3_6OptionIBw_cEE18get_or_insert_withNCNvMs3_NtNtNtB5_4iter8adapters8peekableINtB1h_8PeekableNtNtNtB5_3str4iter5CharsE4peek0ECs2f1hMIlW3Va_4heck.exit.i, %bb1.i.i
  %chars.sroa.0.528.i = phi ptr [ %_16.i26.i.i.i.i.i42, %_RINvMNtCsjMrxcFdYDNN_4core6optionINtB3_6OptionIBw_cEE18get_or_insert_withNCNvMs3_NtNtNtB5_4iter8adapters8peekableINtB1h_8PeekableNtNtNtB5_3str4iter5CharsE4peek0ECs2f1hMIlW3Va_4heck.exit.i ], [ %_22.i, %bb1.i.i ]
  call void @llvm.experimental.noalias.scope.decl(metadata !127)
  call void @llvm.experimental.noalias.scope.decl(metadata !130)
  call void @llvm.experimental.noalias.scope.decl(metadata !133)
  %len.i.i.i.i = load i64, ptr %_10.sroa.5.0.buf.sroa_idx.i, align 8, !alias.scope !136, !noalias !139, !noundef !2
  %self2.i.i.i.i241 = load i64, ptr %buf.i, align 8, !range !6, !alias.scope !136, !noalias !139, !noundef !2
  %_9.i.i.i.i = sub i64 %self2.i.i.i.i241, %len.i.i.i.i
  %_7.i.i.i.i = icmp ult i64 %_9.i.i.i.i, 2
  br i1 %_7.i.i.i.i, label %bb1.i.i.i.i242, label %.noexc55, !prof !142

bb1.i.i.i.i242:                                   ; preds = %bb47.i
; invoke <alloc::raw_vec::RawVecInner<_>>::reserve::do_reserve_and_handle::<alloc::alloc::Global>
  invoke fastcc void @_RINvNvMs2_NtCsdJPVW0sQgAG_5alloc7raw_vecINtB8_11RawVecInnerpE7reserve21do_reserve_and_handleNtNtBa_5alloc6GlobalECs2f1hMIlW3Va_4heck(ptr noalias noundef nonnull align 8 dereferenceable(24) %buf.i, i64 noundef %len.i.i.i.i, i64 noundef 2)
          to label %.noexc243 unwind label %cleanup.loopexit.i.loopexit

.noexc243:                                        ; preds = %bb1.i.i.i.i242
  %len.pre.i.i.i = load i64, ptr %_10.sroa.5.0.buf.sroa_idx.i, align 8, !alias.scope !143, !noalias !139
  br label %.noexc55

.noexc55:                                         ; preds = %.noexc243, %bb47.i
  %len.i.i.i = phi i64 [ %len.i.i.i.i, %bb47.i ], [ %len.pre.i.i.i, %.noexc243 ]
  %_9.i.i.i = icmp sgt i64 %len.i.i.i, -1
  call void @llvm.assume(i1 %_9.i.i.i)
  %_10.i.i.i = load ptr, ptr %_10.sroa.4.0.buf.sroa_idx.i, align 8, !alias.scope !143, !noalias !139, !nonnull !2, !noundef !2
  %dst.i.i.i = getelementptr inbounds nuw i8, ptr %_10.i.i.i, i64 %len.i.i.i
  store i16 -32049, ptr %dst.i.i.i, align 1, !noalias !143
  %76 = add nuw i64 %len.i.i.i, 2
  store i64 %76, ptr %_10.sroa.5.0.buf.sroa_idx.i, align 8, !alias.scope !143, !noalias !139
  br label %bb1.i.backedge

bb1.i.backedge:                                   ; preds = %.noexc55, %.noexc54
  %chars.sroa.17.0.i.be = phi i32 [ 1114112, %.noexc55 ], [ %chars.sroa.17.1.i, %.noexc54 ]
  %chars.sroa.0.0.i.be = phi ptr [ %chars.sroa.0.528.i, %.noexc55 ], [ %chars.sroa.0.2.i, %.noexc54 ]
  br label %bb1.i

_RNCNvXs_NtCs2f1hMIlW3Va_4heck11lower_camelINtB6_16AsLowerCamelCaseReENtNtCsjMrxcFdYDNN_4core3fmt7Display3fmt0B8_.exit85.i.i.i: ; preds = %_RNvXs5_NtNtCsjMrxcFdYDNN_4core3str6traitsINtNtNtB9_3ops5range5RangejEINtNtNtB9_5slice5index10SliceIndexeE3get.exit80.i.i.i
  call void @llvm.experimental.noalias.scope.decl(metadata !144)
  call void @llvm.lifetime.start.p0(i64 12, ptr nonnull %_33.i)
  %_28.i = getelementptr inbounds nuw i8, ptr %_0.sroa.0.1.i.ph.i.i.i, i64 %char_indices.sroa.17.1232.i.i.i
  %77 = ptrtoint ptr %data.i75.i.i.i to i64
  %_6.i.i.i.i = icmp eq i64 %char_indices.sroa.17.1232.i.i.i, %init.sroa.0.0.i.i.i
  br i1 %_6.i.i.i.i, label %.noexc15.i.thread, label %bb14.i.i.i

bb14.i.i.i:                                       ; preds = %_RNCNvXs_NtCs2f1hMIlW3Va_4heck11lower_camelINtB6_16AsLowerCamelCaseReENtNtCsjMrxcFdYDNN_4core3fmt7Display3fmt0B8_.exit85.i.i.i
  %_16.i.i.i.i = getelementptr inbounds nuw i8, ptr %data.i75.i.i.i, i64 1
  %x.i.i.i = load i8, ptr %data.i75.i.i.i, align 1, !alias.scope !144, !noalias !147, !noundef !2
  %_6.i.i.i = icmp sgt i8 %x.i.i.i, -1
  br i1 %_6.i.i.i, label %bb3.i.i.i4, label %bb4.i.i.i

bb4.i.i.i:                                        ; preds = %bb14.i.i.i
  %_30.i.i.i = and i8 %x.i.i.i, 31
  %init.i.i.i = zext nneg i8 %_30.i.i.i to i32
  %_6.i10.i.i.i = icmp samesign ne i64 %new_len.i74.i.i.i, 1
  call void @llvm.assume(i1 %_6.i10.i.i.i), !noalias !52
  %_16.i12.i.i.i = getelementptr inbounds nuw i8, ptr %data.i75.i.i.i, i64 2
  %y.i.i.i = load i8, ptr %_16.i.i.i.i, align 1, !alias.scope !144, !noalias !147, !noundef !2
  %_33.i.i.i = shl nuw nsw i32 %init.i.i.i, 6
  %_35.i.i.i = and i8 %y.i.i.i, 63
  %_34.i.i.i = zext nneg i8 %_35.i.i.i to i32
  %78 = or disjoint i32 %_33.i.i.i, %_34.i.i.i
  %_13.i.i.i = icmp samesign ugt i8 %x.i.i.i, -33
  br i1 %_13.i.i.i, label %bb6.i.i.i, label %bb2.i

bb3.i.i.i4:                                       ; preds = %bb14.i.i.i
  %_7.i.i.i = zext nneg i8 %x.i.i.i to i32
  br label %bb2.i

bb6.i.i.i:                                        ; preds = %bb4.i.i.i
  %_6.i17.i.i.i = icmp samesign ne i64 %new_len.i74.i.i.i, 2
  call void @llvm.assume(i1 %_6.i17.i.i.i), !noalias !52
  %_16.i19.i.i.i = getelementptr inbounds nuw i8, ptr %data.i75.i.i.i, i64 3
  %z.i.i.i = load i8, ptr %_16.i12.i.i.i, align 1, !alias.scope !144, !noalias !147, !noundef !2
  %_38.i.i.i = shl nuw nsw i32 %_34.i.i.i, 6
  %_40.i.i.i = and i8 %z.i.i.i, 63
  %_39.i.i.i = zext nneg i8 %_40.i.i.i to i32
  %y_z.i.i.i = or disjoint i32 %_38.i.i.i, %_39.i.i.i
  %_20.i.i.i = shl nuw nsw i32 %init.i.i.i, 12
  %79 = or disjoint i32 %y_z.i.i.i, %_20.i.i.i
  %_21.i.i.i = icmp samesign ugt i8 %x.i.i.i, -17
  br i1 %_21.i.i.i, label %bb8.i.i.i2, label %bb2.i

bb8.i.i.i2:                                       ; preds = %bb6.i.i.i
  %_6.i24.i.i.i = icmp samesign ne i64 %new_len.i74.i.i.i, 3
  call void @llvm.assume(i1 %_6.i24.i.i.i), !noalias !52
  %_16.i26.i.i.i = getelementptr inbounds nuw i8, ptr %data.i75.i.i.i, i64 4
  %w.i.i.i = load i8, ptr %_16.i19.i.i.i, align 1, !alias.scope !144, !noalias !147, !noundef !2
  %_26.i.i.i = shl nuw nsw i32 %init.i.i.i, 18
  %_25.i.i.i3 = and i32 %_26.i.i.i, 1835008
  %_43.i.i.i = shl nuw nsw i32 %y_z.i.i.i, 6
  %_45.i.i.i = and i8 %w.i.i.i, 63
  %_44.i.i.i = zext nneg i8 %_45.i.i.i to i32
  %_27.i.i.i = or disjoint i32 %_43.i.i.i, %_44.i.i.i
  %80 = or disjoint i32 %_27.i.i.i, %_25.i.i.i3
  br label %bb2.i

bb2.i:                                            ; preds = %bb8.i.i.i2, %bb6.i.i.i, %bb3.i.i.i4, %bb4.i.i.i
  %char_indices.sroa.0.0.i = phi ptr [ %_16.i.i.i.i, %bb3.i.i.i4 ], [ %_16.i26.i.i.i, %bb8.i.i.i2 ], [ %_16.i19.i.i.i, %bb6.i.i.i ], [ %_16.i12.i.i.i, %bb4.i.i.i ]
  %_0.sroa.4.0.i.ph.i.i = phi i32 [ %_7.i.i.i, %bb3.i.i.i4 ], [ %80, %bb8.i.i.i2 ], [ %79, %bb6.i.i.i ], [ %78, %bb4.i.i.i ]
  %81 = icmp samesign ult i32 %_0.sroa.4.0.i.ph.i.i, 1114112
  call void @llvm.assume(i1 %81), !noalias !52
  %82 = ptrtoint ptr %char_indices.sroa.0.0.i to i64
  %83 = sub i64 %82, %77
  call void @llvm.lifetime.start.p0(i64 32, ptr nonnull %_11.i), !noalias !153
; invoke core::unicode::unicode_data::conversions::to_upper
  invoke void @_RNvNtNtNtCsjMrxcFdYDNN_4core7unicode12unicode_data11conversions8to_upper(ptr noalias noundef nonnull sret([12 x i8]) align 4 captures(none) dereferenceable(12) %_33.i, i32 noundef %_0.sroa.4.0.i.ph.i.i)
          to label %.noexc unwind label %cleanup.loopexit.i.loopexit.split-lp.loopexit

.noexc:                                           ; preds = %bb2.i
  %_3.i.i = load i32, ptr %2, align 8, !range !14, !noalias !153, !noundef !2
  %84 = icmp eq i32 %_3.i.i, 0
  %_6.i.i = load i32, ptr %3, align 4, !range !14, !noalias !153
  %85 = icmp eq i32 %_6.i.i, 0
  %spec.select.i.i = select i1 %85, i64 1, i64 2
  %iter.sroa.4.0.i.i = select i1 %84, i64 %spec.select.i.i, i64 3
  store i64 0, ptr %_11.i, align 8, !noalias !153
  store i64 %iter.sroa.4.0.i.i, ptr %_32.sroa.4.0._11.sroa_idx.i, align 8, !noalias !153
  call void @llvm.memcpy.p0.p0.i64(ptr noundef nonnull align 8 dereferenceable(12) %_32.sroa.5.0._11.sroa_idx.i, ptr noundef nonnull align 8 dereferenceable(12) %_33.i, i64 12, i1 false), !noalias !153
  call void @llvm.lifetime.start.p0(i64 16, ptr nonnull %args.i), !noalias !153
  store ptr %_11.i, ptr %args.i, align 8, !noalias !153
  store ptr @_RNvXsB_NtCsjMrxcFdYDNN_4core4charNtB5_11ToLowercaseNtNtB7_3fmt7Display3fmt, ptr %_13.sroa.4.0..sroa_idx.i, align 8, !noalias !153
; invoke core::fmt::write
  %86 = invoke noundef zeroext i1 @_RNvNtCsjMrxcFdYDNN_4core3fmt5write(ptr noundef nonnull align 1 %buf.i, ptr noalias noundef nonnull readonly align 8 captures(address, read_provenance) dereferenceable(48) @vtable.1, ptr noundef nonnull @alloc_0c812808379efded5a4fb82d2790b556, ptr noundef nonnull %args.i)
          to label %.noexc5 unwind label %cleanup.loopexit.i.loopexit.split-lp.loopexit

.noexc5:                                          ; preds = %.noexc
  call void @llvm.lifetime.end.p0(i64 16, ptr nonnull %args.i), !noalias !153
  call void @llvm.lifetime.end.p0(i64 32, ptr nonnull %_11.i), !noalias !153
  br i1 %86, label %.noexc15.i, label %bb23.i

bb23.i:                                           ; preds = %.noexc5
  %_6.i.i.i14.i = icmp eq ptr %char_indices.sroa.0.0.i, %_28.i
  br i1 %_6.i.i.i14.i, label %.noexc15.i.thread, label %bb14.i.i15.i

bb14.i.i15.i:                                     ; preds = %bb23.i
  %x.i.i17.i = load i8, ptr %char_indices.sroa.0.0.i, align 1, !alias.scope !144, !noalias !154, !noundef !2
  %_6.i.i18.i = icmp sgt i8 %x.i.i17.i, -1
  br i1 %_6.i.i18.i, label %bb3.i.i56.i, label %bb4.i.i19.i

bb4.i.i19.i:                                      ; preds = %bb14.i.i15.i
  %_16.i.i.i16.i = getelementptr inbounds nuw i8, ptr %char_indices.sroa.0.0.i, i64 1
  %_30.i.i20.i = and i8 %x.i.i17.i, 31
  %init.i.i21.i = zext nneg i8 %_30.i.i20.i to i32
  %_6.i10.i.i22.i = icmp ne ptr %_16.i.i.i16.i, %_28.i
  call void @llvm.assume(i1 %_6.i10.i.i22.i), !noalias !52
  %y.i.i24.i = load i8, ptr %_16.i.i.i16.i, align 1, !alias.scope !144, !noalias !154, !noundef !2
  %_33.i.i25.i = shl nuw nsw i32 %init.i.i21.i, 6
  %_35.i.i26.i = and i8 %y.i.i24.i, 63
  %_34.i.i27.i = zext nneg i8 %_35.i.i26.i to i32
  %87 = or disjoint i32 %_33.i.i25.i, %_34.i.i27.i
  %_13.i.i28.i = icmp samesign ugt i8 %x.i.i17.i, -33
  br i1 %_13.i.i28.i, label %bb6.i.i36.i, label %bb6.i

bb3.i.i56.i:                                      ; preds = %bb14.i.i15.i
  %_7.i.i57.i = zext nneg i8 %x.i.i17.i to i32
  br label %bb6.i

bb6.i.i36.i:                                      ; preds = %bb4.i.i19.i
  %_16.i12.i.i23.i = getelementptr inbounds nuw i8, ptr %char_indices.sroa.0.0.i, i64 2
  %_6.i17.i.i37.i = icmp ne ptr %_16.i12.i.i23.i, %_28.i
  call void @llvm.assume(i1 %_6.i17.i.i37.i), !noalias !52
  %z.i.i39.i = load i8, ptr %_16.i12.i.i23.i, align 1, !alias.scope !144, !noalias !154, !noundef !2
  %_38.i.i40.i = shl nuw nsw i32 %_34.i.i27.i, 6
  %_40.i.i41.i = and i8 %z.i.i39.i, 63
  %_39.i.i42.i = zext nneg i8 %_40.i.i41.i to i32
  %y_z.i.i43.i = or disjoint i32 %_38.i.i40.i, %_39.i.i42.i
  %_20.i.i44.i = shl nuw nsw i32 %init.i.i21.i, 12
  %88 = or disjoint i32 %y_z.i.i43.i, %_20.i.i44.i
  %_21.i.i45.i = icmp samesign ugt i8 %x.i.i17.i, -17
  br i1 %_21.i.i45.i, label %bb8.i.i46.i, label %bb6.i

bb8.i.i46.i:                                      ; preds = %bb6.i.i36.i
  %_16.i19.i.i38.i = getelementptr inbounds nuw i8, ptr %char_indices.sroa.0.0.i, i64 3
  %_6.i24.i.i47.i = icmp ne ptr %_16.i19.i.i38.i, %_28.i
  call void @llvm.assume(i1 %_6.i24.i.i47.i), !noalias !52
  %w.i.i49.i = load i8, ptr %_16.i19.i.i38.i, align 1, !alias.scope !144, !noalias !154, !noundef !2
  %_26.i.i50.i = shl nuw nsw i32 %init.i.i21.i, 18
  %_25.i.i51.i = and i32 %_26.i.i50.i, 1835008
  %_43.i.i52.i = shl nuw nsw i32 %y_z.i.i43.i, 6
  %_45.i.i53.i = and i8 %w.i.i49.i, 63
  %_44.i.i54.i = zext nneg i8 %_45.i.i53.i to i32
  %_27.i.i55.i = or disjoint i32 %_43.i.i52.i, %_44.i.i54.i
  %89 = or disjoint i32 %_27.i.i55.i, %_25.i.i51.i
  br label %bb6.i

bb6.i:                                            ; preds = %bb8.i.i46.i, %bb6.i.i36.i, %bb3.i.i56.i, %bb4.i.i19.i
  %_0.sroa.4.0.i.ph.i31.i = phi i32 [ %87, %bb4.i.i19.i ], [ %88, %bb6.i.i36.i ], [ %89, %bb8.i.i46.i ], [ %_7.i.i57.i, %bb3.i.i56.i ]
  %90 = icmp samesign ult i32 %_0.sroa.4.0.i.ph.i31.i, 1114112
  call void @llvm.assume(i1 %90), !noalias !52
  %_8.not.i.i = icmp ult i64 %83, %new_len.i74.i.i.i
  br i1 %_8.not.i.i, label %bb9.i.i, label %bb6.i.i

bb6.i.i:                                          ; preds = %bb6.i
  %91 = icmp eq i64 %83, %new_len.i74.i.i.i
  br i1 %91, label %bb26.i, label %bb25.i

bb9.i.i:                                          ; preds = %bb6.i
  %92 = getelementptr inbounds nuw i8, ptr %data.i75.i.i.i, i64 %83
  %self1.i.i = load i8, ptr %92, align 1, !alias.scope !159, !noalias !162, !noundef !2
  %93 = icmp sgt i8 %self1.i.i, -65
  br i1 %93, label %bb26.i, label %bb25.i

bb26.i:                                           ; preds = %bb9.i.i, %bb6.i.i
  %new_len.i.i = sub nuw i64 %new_len.i74.i.i.i, %83
  %data.i.i = getelementptr inbounds nuw i8, ptr %data.i75.i.i.i, i64 %83
; invoke heck::lowercase
  %_19.i6 = invoke noundef zeroext i1 @_RNvCs2f1hMIlW3Va_4heck9lowercase(ptr noalias noundef nonnull readonly align 1 captures(address, read_provenance) %data.i.i, i64 noundef %new_len.i.i, ptr noalias noundef nonnull readonly align 8 dereferenceable(24) %formatter.i)
          to label %_19.i.noexc unwind label %cleanup.loopexit.i.loopexit.split-lp.loopexit

_19.i.noexc:                                      ; preds = %bb26.i
  br i1 %_19.i6, label %.noexc15.i, label %.noexc15.i.thread

bb25.i:                                           ; preds = %bb9.i.i, %bb6.i.i
; invoke core::str::slice_error_fail
  invoke void @_RNvNtCsjMrxcFdYDNN_4core3str16slice_error_fail(ptr noalias noundef nonnull readonly align 1 captures(address, read_provenance) %data.i75.i.i.i, i64 noundef %new_len.i74.i.i.i, i64 noundef %83, i64 noundef %new_len.i74.i.i.i, ptr noalias noundef readonly align 8 captures(address, read_provenance) dereferenceable(24) @alloc_4e2f5c99210b7b3b4346cc992c5fffc9) #19
          to label %.noexc7 unwind label %cleanup.loopexit.i.loopexit.split-lp.loopexit.split-lp

.noexc7:                                          ; preds = %bb25.i
  unreachable

.noexc15.i.thread:                                ; preds = %_19.i.noexc, %_RNCNvXs_NtCs2f1hMIlW3Va_4heck11lower_camelINtB6_16AsLowerCamelCaseReENtNtCsjMrxcFdYDNN_4core3fmt7Display3fmt0B8_.exit85.i.i.i, %bb23.i
  call void @llvm.lifetime.end.p0(i64 12, ptr nonnull %_33.i)
  br label %bb5.i.i.i.backedge

bb5.i.i.i.backedge:                               ; preds = %bb14.i, %bb1.i, %.noexc15.i.thread, %.noexc12.i, %.noexc11.i, %_36.i.i.noexc.i, %bb85.i.i.i, %_35.i.i.noexc.i, %bb79.i.i.i, %bb17.i.i.i
  %.promoted154.off0.i.i.i.be = phi i1 [ %.promoted154.off0.i.i.i, %bb85.i.i.i ], [ %.promoted154.off0.i.i.i, %bb79.i.i.i ], [ %.promoted154.off0.i.i.i, %bb17.i.i.i ], [ %.promoted154.off0.i.i.i, %_36.i.i.noexc.i ], [ %.promoted154.off0.i.i.i, %_35.i.i.noexc.i ], [ %.promoted154.off0.i.i.i, %.noexc12.i ], [ false, %.noexc11.i ], [ %.promoted154.off0.i.i.i, %.noexc15.i.thread ], [ false, %bb1.i ], [ false, %bb14.i ]
  %.off0.i.i.i.be = phi i1 [ %.off0.i.i.i, %bb85.i.i.i ], [ %.off0.i.i.i, %bb79.i.i.i ], [ %.off0.i.i.i, %bb17.i.i.i ], [ %.off0.i.i.i, %_36.i.i.noexc.i ], [ %.off0.i.i.i, %_35.i.i.noexc.i ], [ false, %.noexc12.i ], [ false, %.noexc11.i ], [ false, %.noexc15.i.thread ], [ false, %bb1.i ], [ false, %bb14.i ]
  %init.sroa.0.0.i.i.i.be = phi i64 [ %init.sroa.0.0.i.i.i, %bb85.i.i.i ], [ %init.sroa.0.0.i.i.i, %bb79.i.i.i ], [ %init.sroa.0.0.i.i.i, %bb17.i.i.i ], [ %init.sroa.0.0.i.i.i, %_36.i.i.noexc.i ], [ %init.sroa.0.0.i.i.i, %_35.i.i.noexc.i ], [ %_15.sroa.0.0233.i.i.i, %.noexc12.i ], [ %_15.sroa.0.0233.i.i.i, %.noexc11.i ], [ %char_indices.sroa.17.1232.i.i.i, %.noexc15.i.thread ], [ %char_indices.sroa.17.1232.i.i.i, %bb1.i ], [ %char_indices.sroa.17.1232.i.i.i, %bb14.i ]
  %mode.sroa.0.0.i.i.i.be = phi i8 [ %next_mode.sroa.0.0.i.i.i, %bb85.i.i.i ], [ %next_mode.sroa.0.0.i.i.i, %bb79.i.i.i ], [ %next_mode.sroa.0.0.i.i.i, %bb17.i.i.i ], [ %next_mode.sroa.0.0.i.i.i, %_36.i.i.noexc.i ], [ %next_mode.sroa.0.0.i.i.i, %_35.i.i.noexc.i ], [ 0, %.noexc12.i ], [ 0, %.noexc11.i ], [ 0, %.noexc15.i.thread ], [ 0, %bb1.i ], [ 0, %bb14.i ]
  br label %bb5.i.i.i

.noexc15.i:                                       ; preds = %.noexc5, %_19.i.noexc
  call void @llvm.lifetime.end.p0(i64 12, ptr nonnull %_33.i)
  br label %bb2.i.i

cleanup.loopexit.i.loopexit:                      ; preds = %bb1.i.i.i.i242, %bb5.i, %.noexc53
  %lpad.loopexit = landingpad { ptr, i32 }
          cleanup
  br label %cleanup.i

cleanup.loopexit.i.loopexit.split-lp.loopexit:    ; preds = %bb26.i, %.noexc, %bb2.i, %_RNCNvXs_NtCs2f1hMIlW3Va_4heck11lower_camelINtB6_16AsLowerCamelCaseReENtNtCsjMrxcFdYDNN_4core3fmt7Display3fmt0B8_.exit60.i.i.i, %bb1.i59.i.i.i, %bb88.i.i.i, %bb82.i.i.i, %bb69.i.i.i, %bb63.i.i.i, %bb57.i.i.i
  %lpad.loopexit58 = landingpad { ptr, i32 }
          cleanup
  br label %cleanup.i

cleanup.loopexit.i.loopexit.split-lp.loopexit.split-lp: ; preds = %bb25.i
  %lpad.loopexit.split-lp59 = landingpad { ptr, i32 }
          cleanup
  br label %cleanup.i

cleanup.loopexit.split-lp.loopexit.i:             ; preds = %_RNvXs3_NtNtCsjMrxcFdYDNN_4core3str7patternNCINvCs2f1hMIlW3Va_4heck9transformNCNvXs_NtBJ_11lower_camelINtB1j_16AsLowerCamelCaseReENtNtB9_3fmt7Display3fmt0NCB1e_s_0E0NtB5_11MultiCharEq7matchesBJ_.exit.i.i.i.i.i.i.i, %bb16.i.i.i.i.i.i.i.i.i.i
  %lpad.loopexit2.i = landingpad { ptr, i32 }
          cleanup
  br label %cleanup.i

cleanup.loopexit.split-lp.loopexit.split-lp.loopexit.i: ; preds = %_RNCNvXs_NtCs2f1hMIlW3Va_4heck11lower_camelINtB6_16AsLowerCamelCaseReENtNtCsjMrxcFdYDNN_4core3fmt7Display3fmt0B8_.exit.i.i.i, %bb1.i47.i.i.i
  %lpad.loopexit5.i = landingpad { ptr, i32 }
          cleanup
  br label %cleanup.i

cleanup.loopexit.split-lp.loopexit.split-lp.loopexit.split-lp.i: ; preds = %bb2.i.i, %bb101.i.i.invoke.i
  %lpad.loopexit.split-lp.i = landingpad { ptr, i32 }
          cleanup
  br label %cleanup.i

cleanup.i:                                        ; preds = %cleanup.loopexit.i.loopexit, %cleanup.loopexit.i.loopexit.split-lp.loopexit.split-lp, %cleanup.loopexit.i.loopexit.split-lp.loopexit, %cleanup.loopexit.split-lp.loopexit.split-lp.loopexit.split-lp.i, %cleanup.loopexit.split-lp.loopexit.split-lp.loopexit.i, %cleanup.loopexit.split-lp.loopexit.i
  %lpad.phi.i = phi { ptr, i32 } [ %lpad.loopexit2.i, %cleanup.loopexit.split-lp.loopexit.i ], [ %lpad.loopexit5.i, %cleanup.loopexit.split-lp.loopexit.split-lp.loopexit.i ], [ %lpad.loopexit.split-lp.i, %cleanup.loopexit.split-lp.loopexit.split-lp.loopexit.split-lp.i ], [ %lpad.loopexit, %cleanup.loopexit.i.loopexit ], [ %lpad.loopexit58, %cleanup.loopexit.i.loopexit.split-lp.loopexit ], [ %lpad.loopexit.split-lp59, %cleanup.loopexit.i.loopexit.split-lp.loopexit.split-lp ]
  call void @llvm.experimental.noalias.scope.decl(metadata !163)
  %_1.val.i.i = load i64, ptr %buf.i, align 8, !alias.scope !163, !noalias !52
  %94 = icmp eq i64 %_1.val.i.i, 0
  br i1 %94, label %bb4.i, label %_RNvXs_NtCsdJPVW0sQgAG_5alloc5allocNtB4_6GlobalNtNtCsjMrxcFdYDNN_4core5alloc9Allocator10deallocate.exit.i.i.i4.i.i.i

_RNvXs_NtCsdJPVW0sQgAG_5alloc5allocNtB4_6GlobalNtNtCsjMrxcFdYDNN_4core5alloc9Allocator10deallocate.exit.i.i.i4.i.i.i: ; preds = %cleanup.i
  %_1.val1.i.i = load ptr, ptr %_10.sroa.4.0.buf.sroa_idx.i, align 8, !alias.scope !163, !noalias !52, !nonnull !2, !noundef !2
; call __rustc::__rust_dealloc
  call void @_RNvCsKhRCbHf33p_7___rustc14___rust_dealloc(ptr noundef nonnull %_1.val1.i.i, i64 noundef %_1.val.i.i, i64 noundef range(i64 1, -9223372036854775807) 1) #17, !noalias !166
  br label %bb4.i

bb2.i.i:                                          ; preds = %.noexc4.i, %.noexc3.i, %.noexc12.i, %.noexc11.i, %.noexc54, %.noexc15.i
  call void @llvm.lifetime.start.p0(i64 0, ptr nonnull %e.i.i), !noalias !52
; invoke core::result::unwrap_failed
  invoke void @_RNvNtCsjMrxcFdYDNN_4core6result13unwrap_failed(ptr noalias noundef nonnull readonly align 1 captures(address, read_provenance) @alloc_cc656815297f75969399c3f4b1ad3de4, i64 noundef 55, ptr noundef nonnull align 1 %e.i.i, ptr noalias noundef readonly align 8 captures(address, read_provenance) dereferenceable(32) @vtable.0, ptr noalias noundef readonly align 8 captures(address, read_provenance) dereferenceable(24) @alloc_f3c70bf9d2724ff8f638341943ddf3c8) #18
          to label %.noexc17.i unwind label %cleanup.loopexit.split-lp.loopexit.split-lp.loopexit.split-lp.i, !noalias !52

.noexc17.i:                                       ; preds = %bb2.i.i
  unreachable

bb4.i:                                            ; preds = %_RNvXs_NtCsdJPVW0sQgAG_5alloc5allocNtB4_6GlobalNtNtCsjMrxcFdYDNN_4core5alloc9Allocator10deallocate.exit.i.i.i4.i.i.i, %cleanup.i
  resume { ptr, i32 } %lpad.phi.i

_RNvXsC_NtCsdJPVW0sQgAG_5alloc6stringINtNtCs2f1hMIlW3Va_4heck11lower_camel16AsLowerCamelCaseReENtB5_12SpecToString14spec_to_stringBD_.exit: ; preds = %bb35.i.i.i
  call void @llvm.memcpy.p0.p0.i64(ptr noundef nonnull align 8 dereferenceable(24) %_0, ptr noundef nonnull align 8 dereferenceable(24) %buf.i, i64 24, i1 false)
  call void @llvm.lifetime.end.p0(i64 24, ptr nonnull %formatter.i), !noalias !52
  call void @llvm.lifetime.end.p0(i64 24, ptr nonnull %buf.i), !noalias !52
  ret void
}

; <str as heck::upper_camel::ToUpperCamelCase>::to_upper_camel_case
; Function Attrs: uwtable
define void @_RNvXNtCs2f1hMIlW3Va_4heck11upper_cameleNtB2_16ToUpperCamelCase19to_upper_camel_case(ptr dead_on_unwind noalias noundef writable writeonly sret([24 x i8]) align 8 captures(none) dereferenceable(24) %_0, ptr noalias noundef nonnull readonly align 1 captures(address, read_provenance) %self.0, i64 noundef %self.1) unnamed_addr #2 personality ptr @rust_eh_personality {
start:
  %e.i.i = alloca [0 x i8], align 1
  %_33.i = alloca [12 x i8], align 8
  %args.i = alloca [16 x i8], align 8
  %_11.i = alloca [32 x i8], align 8
  %formatter.i = alloca [24 x i8], align 8
  %buf.i = alloca [24 x i8], align 8
  call void @llvm.lifetime.start.p0(i64 24, ptr nonnull %buf.i), !noalias !167
  store i64 0, ptr %buf.i, align 8, !noalias !167
  %_10.sroa.4.0.buf.sroa_idx.i = getelementptr inbounds nuw i8, ptr %buf.i, i64 8
  store ptr inttoptr (i64 1 to ptr), ptr %_10.sroa.4.0.buf.sroa_idx.i, align 8, !noalias !167
  %_10.sroa.5.0.buf.sroa_idx.i = getelementptr inbounds nuw i8, ptr %buf.i, i64 16
  store i64 0, ptr %_10.sroa.5.0.buf.sroa_idx.i, align 8, !noalias !167
  call void @llvm.lifetime.start.p0(i64 24, ptr nonnull %formatter.i), !noalias !167
  %0 = getelementptr inbounds nuw i8, ptr %formatter.i, i64 16
  store i32 1610612768, ptr %0, align 8, !noalias !167
  %options.sroa.4.0..sroa_idx.i = getelementptr inbounds nuw i8, ptr %formatter.i, i64 20
  store i16 0, ptr %options.sroa.4.0..sroa_idx.i, align 4, !noalias !167
  %options.sroa.5.0..sroa_idx.i = getelementptr inbounds nuw i8, ptr %formatter.i, i64 22
  store i16 0, ptr %options.sroa.5.0..sroa_idx.i, align 2, !noalias !167
  store ptr %buf.i, ptr %formatter.i, align 8, !noalias !167
  %1 = getelementptr inbounds nuw i8, ptr %formatter.i, i64 8
  store ptr @vtable.1, ptr %1, align 8, !noalias !167
  %_7.i.i.i.i.i = getelementptr inbounds nuw i8, ptr %self.0, i64 %self.1
  %2 = getelementptr inbounds nuw i8, ptr %_33.i, i64 8
  %3 = getelementptr inbounds nuw i8, ptr %_33.i, i64 4
  %_32.sroa.4.0._11.sroa_idx.i = getelementptr inbounds nuw i8, ptr %_11.i, i64 8
  %_32.sroa.5.0._11.sroa_idx.i = getelementptr inbounds nuw i8, ptr %_11.i, i64 16
  %_13.sroa.4.0..sroa_idx.i = getelementptr inbounds nuw i8, ptr %args.i, i64 8
  br label %bb2.i.i.i.i

bb2.i.i.i.i:                                      ; preds = %bb35.i.i.i, %start
  %iter.sroa.0.0142.i.i.i = phi i64 [ 0, %start ], [ %iter.sroa.0.1.ph.i.i.i, %bb35.i.i.i ]
  %char_indices.sroa.22.0141.i.i.i = phi i64 [ undef, %start ], [ %char_indices.sroa.22.2.i.i.i, %bb35.i.i.i ]
  %iter.sroa.1174.0140.i.i.i = phi ptr [ %self.0, %start ], [ %iter.sroa.1174.6.ph.i.i.i, %bb35.i.i.i ]
  %iter.sroa.17.0139.i.i.i = phi i64 [ 0, %start ], [ %iter.sroa.17.5.ph.i.i.i, %bb35.i.i.i ]
  %_6.i.i.i.i15.i.i.i.i.i.i = icmp eq ptr %iter.sroa.1174.0140.i.i.i, %_7.i.i.i.i.i
  br i1 %_6.i.i.i.i15.i.i.i.i.i.i, label %bb3.i.i.i, label %bb14.i.i.i.i.i.i.i.i.i

bb14.i.i.i.i.i.i.i.i.i:                           ; preds = %bb2.i.i.i.i, %bb5.i.i.i.i.i.i
  %4 = phi i64 [ %iter.sroa.17.2.i.i.i, %bb5.i.i.i.i.i.i ], [ %iter.sroa.17.0139.i.i.i, %bb2.i.i.i.i ]
  %_16.i26.i.i.i1216.i.i.i.i.i.i = phi ptr [ %iter.sroa.1174.3.i.i.i, %bb5.i.i.i.i.i.i ], [ %iter.sroa.1174.0140.i.i.i, %bb2.i.i.i.i ]
  %5 = ptrtoint ptr %_16.i26.i.i.i1216.i.i.i.i.i.i to i64
  %_16.i.i.i.i.i.i.i.i.i.i = getelementptr inbounds nuw i8, ptr %_16.i26.i.i.i1216.i.i.i.i.i.i, i64 1
  %x.i.i.i.i.i.i.i.i.i = load i8, ptr %_16.i26.i.i.i1216.i.i.i.i.i.i, align 1, !alias.scope !170, !noalias !173, !noundef !2
  %_6.i.i.i.i.i.i.i.i.i = icmp sgt i8 %x.i.i.i.i.i.i.i.i.i, -1
  br i1 %_6.i.i.i.i.i.i.i.i.i, label %bb3.thread.i.i.i.i.i.i.i, label %bb4.i.i.i.i.i.i.i.i.i

bb4.i.i.i.i.i.i.i.i.i:                            ; preds = %bb14.i.i.i.i.i.i.i.i.i
  %_30.i.i.i.i.i.i.i.i.i = and i8 %x.i.i.i.i.i.i.i.i.i, 31
  %init.i.i.i.i.i.i.i.i.i = zext nneg i8 %_30.i.i.i.i.i.i.i.i.i to i32
  %_6.i10.i.i.i.i.i.i.i.i.i = icmp ne ptr %_16.i.i.i.i.i.i.i.i.i.i, %_7.i.i.i.i.i
  call void @llvm.assume(i1 %_6.i10.i.i.i.i.i.i.i.i.i)
  %_16.i12.i.i.i.i.i.i.i.i.i = getelementptr inbounds nuw i8, ptr %_16.i26.i.i.i1216.i.i.i.i.i.i, i64 2
  %y.i.i.i.i.i.i.i.i.i = load i8, ptr %_16.i.i.i.i.i.i.i.i.i.i, align 1, !alias.scope !170, !noalias !173, !noundef !2
  %_33.i.i.i.i.i.i.i.i.i = shl nuw nsw i32 %init.i.i.i.i.i.i.i.i.i, 6
  %_35.i.i.i.i.i.i.i.i.i = and i8 %y.i.i.i.i.i.i.i.i.i, 63
  %_34.i.i.i.i.i.i.i.i.i = zext nneg i8 %_35.i.i.i.i.i.i.i.i.i to i32
  %6 = or disjoint i32 %_33.i.i.i.i.i.i.i.i.i, %_34.i.i.i.i.i.i.i.i.i
  %_13.i.i.i.i.i.i.i.i.i = icmp samesign ugt i8 %x.i.i.i.i.i.i.i.i.i, -33
  br i1 %_13.i.i.i.i.i.i.i.i.i, label %bb6.i.i.i.i.i.i.i.i.i, label %bb3.i.i.i.i.i.i.i

bb3.thread.i.i.i.i.i.i.i:                         ; preds = %bb14.i.i.i.i.i.i.i.i.i
  %_7.i.i.i.i.i.i.i.i.i = zext nneg i8 %x.i.i.i.i.i.i.i.i.i to i32
  %7 = add i64 %4, 1
  br label %bb1.i.i.i.i.i.i.i.i.i.i

bb6.i.i.i.i.i.i.i.i.i:                            ; preds = %bb4.i.i.i.i.i.i.i.i.i
  %_6.i17.i.i.i.i.i.i.i.i.i = icmp ne ptr %_16.i12.i.i.i.i.i.i.i.i.i, %_7.i.i.i.i.i
  call void @llvm.assume(i1 %_6.i17.i.i.i.i.i.i.i.i.i)
  %_16.i19.i.i.i.i.i.i.i.i.i = getelementptr inbounds nuw i8, ptr %_16.i26.i.i.i1216.i.i.i.i.i.i, i64 3
  %z.i.i.i.i.i.i.i.i.i = load i8, ptr %_16.i12.i.i.i.i.i.i.i.i.i, align 1, !alias.scope !170, !noalias !173, !noundef !2
  %_38.i.i.i.i.i.i.i.i.i = shl nuw nsw i32 %_34.i.i.i.i.i.i.i.i.i, 6
  %_40.i.i.i.i.i.i.i.i.i = and i8 %z.i.i.i.i.i.i.i.i.i, 63
  %_39.i.i.i.i.i.i.i.i.i = zext nneg i8 %_40.i.i.i.i.i.i.i.i.i to i32
  %y_z.i.i.i.i.i.i.i.i.i = or disjoint i32 %_38.i.i.i.i.i.i.i.i.i, %_39.i.i.i.i.i.i.i.i.i
  %_20.i.i.i.i.i.i.i.i.i = shl nuw nsw i32 %init.i.i.i.i.i.i.i.i.i, 12
  %8 = or disjoint i32 %y_z.i.i.i.i.i.i.i.i.i, %_20.i.i.i.i.i.i.i.i.i
  %_21.i.i.i.i.i.i.i.i.i = icmp samesign ugt i8 %x.i.i.i.i.i.i.i.i.i, -17
  br i1 %_21.i.i.i.i.i.i.i.i.i, label %bb8.i.i.i.i.i.i.i.i.i, label %bb3.i.i.i.i.i.i.i

bb8.i.i.i.i.i.i.i.i.i:                            ; preds = %bb6.i.i.i.i.i.i.i.i.i
  %_6.i24.i.i.i.i.i.i.i.i.i = icmp ne ptr %_16.i19.i.i.i.i.i.i.i.i.i, %_7.i.i.i.i.i
  call void @llvm.assume(i1 %_6.i24.i.i.i.i.i.i.i.i.i)
  %_16.i26.i.i.i.i.i.i.i.i.i = getelementptr inbounds nuw i8, ptr %_16.i26.i.i.i1216.i.i.i.i.i.i, i64 4
  %w.i.i.i.i.i.i.i.i.i = load i8, ptr %_16.i19.i.i.i.i.i.i.i.i.i, align 1, !alias.scope !170, !noalias !173, !noundef !2
  %_26.i.i.i.i.i.i.i.i.i = shl nuw nsw i32 %init.i.i.i.i.i.i.i.i.i, 18
  %_25.i.i.i.i.i.i.i.i.i = and i32 %_26.i.i.i.i.i.i.i.i.i, 1835008
  %_43.i.i.i.i.i.i.i.i.i = shl nuw nsw i32 %y_z.i.i.i.i.i.i.i.i.i, 6
  %_45.i.i.i.i.i.i.i.i.i = and i8 %w.i.i.i.i.i.i.i.i.i, 63
  %_44.i.i.i.i.i.i.i.i.i = zext nneg i8 %_45.i.i.i.i.i.i.i.i.i to i32
  %_27.i.i.i.i.i.i.i.i.i = or disjoint i32 %_43.i.i.i.i.i.i.i.i.i, %_44.i.i.i.i.i.i.i.i.i
  %9 = or disjoint i32 %_27.i.i.i.i.i.i.i.i.i, %_25.i.i.i.i.i.i.i.i.i
  br label %bb3.i.i.i.i.i.i.i

bb3.i.i.i.i.i.i.i:                                ; preds = %bb8.i.i.i.i.i.i.i.i.i, %bb6.i.i.i.i.i.i.i.i.i, %bb4.i.i.i.i.i.i.i.i.i
  %iter.sroa.1174.1.i.i.i = phi ptr [ %_16.i26.i.i.i.i.i.i.i.i.i, %bb8.i.i.i.i.i.i.i.i.i ], [ %_16.i19.i.i.i.i.i.i.i.i.i, %bb6.i.i.i.i.i.i.i.i.i ], [ %_16.i12.i.i.i.i.i.i.i.i.i, %bb4.i.i.i.i.i.i.i.i.i ]
  %_0.sroa.4.0.i.ph.i.i.i.i.i.i.i.i = phi i32 [ %9, %bb8.i.i.i.i.i.i.i.i.i ], [ %8, %bb6.i.i.i.i.i.i.i.i.i ], [ %6, %bb4.i.i.i.i.i.i.i.i.i ]
  %10 = icmp samesign ult i32 %_0.sroa.4.0.i.ph.i.i.i.i.i.i.i.i, 1114112
  call void @llvm.assume(i1 %10)
  %11 = ptrtoint ptr %iter.sroa.1174.1.i.i.i to i64
  %_10.i.i.i.i.i.i.i.i = sub i64 %11, %5
  %12 = add i64 %_10.i.i.i.i.i.i.i.i, %4
  %_2.i.i.i.i.i.i.i.i.i.i = icmp samesign ult i32 %_0.sroa.4.0.i.ph.i.i.i.i.i.i.i.i, 128
  br i1 %_2.i.i.i.i.i.i.i.i.i.i, label %bb1.i.i.i.i.i.i.i.i.i.i, label %bb2.i.i.i.i.i.i.i.i.i.i

bb2.i.i.i.i.i.i.i.i.i.i:                          ; preds = %bb3.i.i.i.i.i.i.i
  %_15.i.i.i.i.i.i.i.i.i.i = icmp samesign ugt i32 %_0.sroa.4.0.i.ph.i.i.i.i.i.i.i.i, 169
  br i1 %_15.i.i.i.i.i.i.i.i.i.i, label %bb16.i.i.i.i.i.i.i.i.i.i, label %bb3.i.i.i

bb1.i.i.i.i.i.i.i.i.i.i:                          ; preds = %bb3.i.i.i.i.i.i.i, %bb3.thread.i.i.i.i.i.i.i
  %iter.sroa.17.4.i.i.i = phi i64 [ %7, %bb3.thread.i.i.i.i.i.i.i ], [ %12, %bb3.i.i.i.i.i.i.i ]
  %_16.i26.i.i.i14.i.i.i.i.i.i = phi ptr [ %_16.i.i.i.i.i.i.i.i.i.i, %bb3.thread.i.i.i.i.i.i.i ], [ %iter.sroa.1174.1.i.i.i, %bb3.i.i.i.i.i.i.i ]
  %_0.sroa.4.0.i.ph.i19.i.i.i.i.i.i.i = phi i32 [ %_7.i.i.i.i.i.i.i.i.i, %bb3.thread.i.i.i.i.i.i.i ], [ %_0.sroa.4.0.i.ph.i.i.i.i.i.i.i.i, %bb3.i.i.i.i.i.i.i ]
  %13 = add nsw i32 %_0.sroa.4.0.i.ph.i19.i.i.i.i.i.i.i, -48
  %_9.sroa.0.0.off0.i.i.i.i.i.i.i.i.i.i = icmp ult i32 %13, 10
  %14 = and i32 %_0.sroa.4.0.i.ph.i19.i.i.i.i.i.i.i, 95
  %15 = add nsw i32 %14, -65
  %16 = icmp ult i32 %15, 26
  %17 = or i1 %_9.sroa.0.0.off0.i.i.i.i.i.i.i.i.i.i, %16
  br i1 %17, label %bb5.i.i.i.i.i.i, label %bb3.i.i.i

bb16.i.i.i.i.i.i.i.i.i.i:                         ; preds = %bb2.i.i.i.i.i.i.i.i.i.i
; invoke core::unicode::unicode_data::alphabetic::lookup_slow
  %_5.i.i.i.i.i.i.i.i.i2.i = invoke noundef zeroext i1 @_RNvNtNtNtCsjMrxcFdYDNN_4core7unicode12unicode_data10alphabetic11lookup_slow(i32 noundef range(i32 0, 1114112) %_0.sroa.4.0.i.ph.i.i.i.i.i.i.i.i) #21
          to label %_5.i.i.i.i.i.i.i.i.i.noexc.i unwind label %cleanup.loopexit.split-lp.loopexit.i, !noalias !167

_5.i.i.i.i.i.i.i.i.i.noexc.i:                     ; preds = %bb16.i.i.i.i.i.i.i.i.i.i
  br i1 %_5.i.i.i.i.i.i.i.i.i2.i, label %bb5.i.i.i.i.i.i, label %bb4.i.i.i.i.i.i.i.i.i.i

bb4.i.i.i.i.i.i.i.i.i.i:                          ; preds = %_5.i.i.i.i.i.i.i.i.i.noexc.i
  %_17.i.i.i.i.i.i.i.i.i.i = icmp samesign ugt i32 %_0.sroa.4.0.i.ph.i.i.i.i.i.i.i.i, 177
  br i1 %_17.i.i.i.i.i.i.i.i.i.i, label %_RNvXs3_NtNtCsjMrxcFdYDNN_4core3str7patternNCINvCs2f1hMIlW3Va_4heck9transformNvBJ_10capitalizeNCNvXs0_NtBJ_11upper_camelINtB1B_16AsUpperCamelCaseReENtNtB9_3fmt7Display3fmt0E0NtB5_11MultiCharEq7matchesBJ_.exit.i.i.i.i.i.i.i, label %bb3.i.i.i

_RNvXs3_NtNtCsjMrxcFdYDNN_4core3str7patternNCINvCs2f1hMIlW3Va_4heck9transformNvBJ_10capitalizeNCNvXs0_NtBJ_11upper_camelINtB1B_16AsUpperCamelCaseReENtNtB9_3fmt7Display3fmt0E0NtB5_11MultiCharEq7matchesBJ_.exit.i.i.i.i.i.i.i: ; preds = %bb4.i.i.i.i.i.i.i.i.i.i
; invoke core::unicode::unicode_data::n::lookup_slow
  %18 = invoke noundef zeroext i1 @_RNvNtNtNtCsjMrxcFdYDNN_4core7unicode12unicode_data1n11lookup_slow(i32 noundef range(i32 0, 1114112) %_0.sroa.4.0.i.ph.i.i.i.i.i.i.i.i) #21
          to label %.noexc.i unwind label %cleanup.loopexit.split-lp.loopexit.i, !noalias !167

.noexc.i:                                         ; preds = %_RNvXs3_NtNtCsjMrxcFdYDNN_4core3str7patternNCINvCs2f1hMIlW3Va_4heck9transformNvBJ_10capitalizeNCNvXs0_NtBJ_11upper_camelINtB1B_16AsUpperCamelCaseReENtNtB9_3fmt7Display3fmt0E0NtB5_11MultiCharEq7matchesBJ_.exit.i.i.i.i.i.i.i
  br i1 %18, label %bb5.i.i.i.i.i.i, label %bb3.i.i.i

bb5.i.i.i.i.i.i:                                  ; preds = %.noexc.i, %_5.i.i.i.i.i.i.i.i.i.noexc.i, %bb1.i.i.i.i.i.i.i.i.i.i
  %iter.sroa.17.2.i.i.i = phi i64 [ %iter.sroa.17.4.i.i.i, %bb1.i.i.i.i.i.i.i.i.i.i ], [ %12, %_5.i.i.i.i.i.i.i.i.i.noexc.i ], [ %12, %.noexc.i ]
  %iter.sroa.1174.3.i.i.i = phi ptr [ %_16.i26.i.i.i14.i.i.i.i.i.i, %bb1.i.i.i.i.i.i.i.i.i.i ], [ %iter.sroa.1174.1.i.i.i, %_5.i.i.i.i.i.i.i.i.i.noexc.i ], [ %iter.sroa.1174.1.i.i.i, %.noexc.i ]
  %_6.i.i.i.i.i.i.i.i.i.i = icmp eq ptr %iter.sroa.1174.3.i.i.i, %_7.i.i.i.i.i
  br i1 %_6.i.i.i.i.i.i.i.i.i.i, label %bb3.i.i.i, label %bb14.i.i.i.i.i.i.i.i.i

bb3.i.i.i:                                        ; preds = %bb5.i.i.i.i.i.i, %.noexc.i, %bb4.i.i.i.i.i.i.i.i.i.i, %bb1.i.i.i.i.i.i.i.i.i.i, %bb2.i.i.i.i.i.i.i.i.i.i, %bb2.i.i.i.i
  %iter.sroa.22.1.ph.off0.i.i.i = phi i1 [ true, %bb2.i.i.i.i ], [ false, %.noexc.i ], [ false, %bb4.i.i.i.i.i.i.i.i.i.i ], [ false, %bb1.i.i.i.i.i.i.i.i.i.i ], [ false, %bb2.i.i.i.i.i.i.i.i.i.i ], [ true, %bb5.i.i.i.i.i.i ]
  %iter.sroa.17.5.ph.i.i.i = phi i64 [ %iter.sroa.17.0139.i.i.i, %bb2.i.i.i.i ], [ %12, %.noexc.i ], [ %12, %bb4.i.i.i.i.i.i.i.i.i.i ], [ %iter.sroa.17.4.i.i.i, %bb1.i.i.i.i.i.i.i.i.i.i ], [ %12, %bb2.i.i.i.i.i.i.i.i.i.i ], [ %iter.sroa.17.2.i.i.i, %bb5.i.i.i.i.i.i ]
  %iter.sroa.1174.6.ph.i.i.i = phi ptr [ %iter.sroa.1174.0140.i.i.i, %bb2.i.i.i.i ], [ %iter.sroa.1174.1.i.i.i, %.noexc.i ], [ %iter.sroa.1174.1.i.i.i, %bb4.i.i.i.i.i.i.i.i.i.i ], [ %_16.i26.i.i.i14.i.i.i.i.i.i, %bb1.i.i.i.i.i.i.i.i.i.i ], [ %iter.sroa.1174.1.i.i.i, %bb2.i.i.i.i.i.i.i.i.i.i ], [ %iter.sroa.1174.3.i.i.i, %bb5.i.i.i.i.i.i ]
  %iter.sroa.0.1.ph.i.i.i = phi i64 [ %iter.sroa.0.0142.i.i.i, %bb2.i.i.i.i ], [ %12, %.noexc.i ], [ %12, %bb4.i.i.i.i.i.i.i.i.i.i ], [ %iter.sroa.17.4.i.i.i, %bb1.i.i.i.i.i.i.i.i.i.i ], [ %12, %bb2.i.i.i.i.i.i.i.i.i.i ], [ %iter.sroa.0.0142.i.i.i, %bb5.i.i.i.i.i.i ]
  %s.1.pn.i.i.i = phi i64 [ %self.1, %bb2.i.i.i.i ], [ %4, %.noexc.i ], [ %4, %bb4.i.i.i.i.i.i.i.i.i.i ], [ %4, %bb1.i.i.i.i.i.i.i.i.i.i ], [ %4, %bb2.i.i.i.i.i.i.i.i.i.i ], [ %self.1, %bb5.i.i.i.i.i.i ]
  %_0.sroa.0.1.i.ph.i.i.i = getelementptr inbounds nuw i8, ptr %self.0, i64 %iter.sroa.0.0142.i.i.i
  %_0.sroa.4.1.i.ph.i.i.i = sub nuw i64 %s.1.pn.i.i.i, %iter.sroa.0.0142.i.i.i
  %_69.i.i.i = getelementptr inbounds nuw i8, ptr %self.0, i64 %s.1.pn.i.i.i
  br label %bb5.i.i.i.outer

bb5.i.i.i.outer:                                  ; preds = %bb5.i.i.i.outer.backedge, %bb3.i.i.i
  %char_indices.sroa.0.0.i.i.i.ph = phi ptr [ %_0.sroa.0.1.i.ph.i.i.i, %bb3.i.i.i ], [ %char_indices.sroa.0.4.i.i.i, %bb5.i.i.i.outer.backedge ]
  %char_indices.sroa.17.0.i.i.i.ph = phi i64 [ 0, %bb3.i.i.i ], [ %30, %bb5.i.i.i.outer.backedge ]
  %char_indices.sroa.22.1.i.i.i.ph = phi i64 [ %char_indices.sroa.22.0141.i.i.i, %bb3.i.i.i ], [ %char_indices.sroa.17.1182.i.i.i, %bb5.i.i.i.outer.backedge ]
  %char_indices.sroa.25.0.i.i.i.ph = phi i32 [ 1114113, %bb3.i.i.i ], [ %_0.sroa.4.0.i.ph.i.i.i.i.i.i, %bb5.i.i.i.outer.backedge ]
  %init.sroa.0.0.i.i.i.ph = phi i64 [ 0, %bb3.i.i.i ], [ %init.sroa.0.0.i.i.i.ph.be, %bb5.i.i.i.outer.backedge ]
  br label %bb5.i.i.i

bb5.i.i.i:                                        ; preds = %bb5.i.i.i.backedge, %bb5.i.i.i.outer
  %char_indices.sroa.0.0.i.i.i = phi ptr [ %char_indices.sroa.0.0.i.i.i.ph, %bb5.i.i.i.outer ], [ %char_indices.sroa.0.4.i.i.i, %bb5.i.i.i.backedge ]
  %char_indices.sroa.17.0.i.i.i = phi i64 [ %char_indices.sroa.17.0.i.i.i.ph, %bb5.i.i.i.outer ], [ %30, %bb5.i.i.i.backedge ]
  %char_indices.sroa.22.1.i.i.i = phi i64 [ %char_indices.sroa.22.1.i.i.i.ph, %bb5.i.i.i.outer ], [ %char_indices.sroa.17.1182.i.i.i, %bb5.i.i.i.backedge ]
  %char_indices.sroa.25.0.i.i.i = phi i32 [ %char_indices.sroa.25.0.i.i.i.ph, %bb5.i.i.i.outer ], [ %_0.sroa.4.0.i.ph.i.i.i.i.i.i, %bb5.i.i.i.backedge ]
  %mode.sroa.0.0.i.i.i = phi i8 [ 0, %bb5.i.i.i.outer ], [ %next_mode.sroa.0.0.i.i.i, %bb5.i.i.i.backedge ]
  %cond.i.i = icmp eq i32 %char_indices.sroa.25.0.i.i.i, 1114113
  %19 = ptrtoint ptr %char_indices.sroa.0.0.i.i.i to i64
  br i1 %cond.i.i, label %bb47.i.i.i, label %bb1.i.i.i.i

bb47.i.i.i:                                       ; preds = %bb5.i.i.i
  %_6.i.i.i.i.i.i = icmp eq ptr %char_indices.sroa.0.0.i.i.i, %_69.i.i.i
  br i1 %_6.i.i.i.i.i.i, label %bb35.i.i.i, label %bb14.i.i.i.i.i

bb14.i.i.i.i.i:                                   ; preds = %bb47.i.i.i
  %_16.i.i.i.i.i.i = getelementptr inbounds nuw i8, ptr %char_indices.sroa.0.0.i.i.i, i64 1
  %x.i.i.i.i.i = load i8, ptr %char_indices.sroa.0.0.i.i.i, align 1, !alias.scope !170, !noalias !192, !noundef !2
  %_6.i.i.i.i.i = icmp sgt i8 %x.i.i.i.i.i, -1
  br i1 %_6.i.i.i.i.i, label %bb3.i.i.i.i.i, label %bb4.i.i.i.i.i

bb4.i.i.i.i.i:                                    ; preds = %bb14.i.i.i.i.i
  %_30.i.i.i.i.i = and i8 %x.i.i.i.i.i, 31
  %init.i.i.i.i.i = zext nneg i8 %_30.i.i.i.i.i to i32
  %_6.i10.i.i.i.i.i = icmp ne ptr %_16.i.i.i.i.i.i, %_69.i.i.i
  call void @llvm.assume(i1 %_6.i10.i.i.i.i.i)
  %_16.i12.i.i.i.i.i = getelementptr inbounds nuw i8, ptr %char_indices.sroa.0.0.i.i.i, i64 2
  %y.i.i.i.i.i = load i8, ptr %_16.i.i.i.i.i.i, align 1, !alias.scope !170, !noalias !192, !noundef !2
  %_33.i.i.i.i.i = shl nuw nsw i32 %init.i.i.i.i.i, 6
  %_35.i.i.i.i.i = and i8 %y.i.i.i.i.i, 63
  %_34.i.i.i.i.i = zext nneg i8 %_35.i.i.i.i.i to i32
  %20 = or disjoint i32 %_33.i.i.i.i.i, %_34.i.i.i.i.i
  %_13.i.i.i.i.i = icmp samesign ugt i8 %x.i.i.i.i.i, -33
  br i1 %_13.i.i.i.i.i, label %bb6.i.i.i.i.i, label %bb50.thread175.i.i.i

bb3.i.i.i.i.i:                                    ; preds = %bb14.i.i.i.i.i
  %_7.i.i37.i.i.i = zext nneg i8 %x.i.i.i.i.i to i32
  br label %bb50.thread175.i.i.i

bb6.i.i.i.i.i:                                    ; preds = %bb4.i.i.i.i.i
  %_6.i17.i.i.i.i.i = icmp ne ptr %_16.i12.i.i.i.i.i, %_69.i.i.i
  call void @llvm.assume(i1 %_6.i17.i.i.i.i.i)
  %_16.i19.i.i.i.i.i = getelementptr inbounds nuw i8, ptr %char_indices.sroa.0.0.i.i.i, i64 3
  %z.i.i.i.i.i = load i8, ptr %_16.i12.i.i.i.i.i, align 1, !alias.scope !170, !noalias !192, !noundef !2
  %_38.i.i.i.i.i = shl nuw nsw i32 %_34.i.i.i.i.i, 6
  %_40.i.i.i.i.i = and i8 %z.i.i.i.i.i, 63
  %_39.i.i.i.i.i = zext nneg i8 %_40.i.i.i.i.i to i32
  %y_z.i.i.i.i.i = or disjoint i32 %_38.i.i.i.i.i, %_39.i.i.i.i.i
  %_20.i.i.i.i.i = shl nuw nsw i32 %init.i.i.i.i.i, 12
  %21 = or disjoint i32 %y_z.i.i.i.i.i, %_20.i.i.i.i.i
  %_21.i.i.i.i.i = icmp samesign ugt i8 %x.i.i.i.i.i, -17
  br i1 %_21.i.i.i.i.i, label %bb8.i.i.i.i.i, label %bb50.thread175.i.i.i

bb8.i.i.i.i.i:                                    ; preds = %bb6.i.i.i.i.i
  %_6.i24.i.i.i.i.i = icmp ne ptr %_16.i19.i.i.i.i.i, %_69.i.i.i
  call void @llvm.assume(i1 %_6.i24.i.i.i.i.i)
  %_16.i26.i.i.i.i.i = getelementptr inbounds nuw i8, ptr %char_indices.sroa.0.0.i.i.i, i64 4
  %w.i.i.i.i.i = load i8, ptr %_16.i19.i.i.i.i.i, align 1, !alias.scope !170, !noalias !192, !noundef !2
  %_26.i.i.i.i.i = shl nuw nsw i32 %init.i.i.i.i.i, 18
  %_25.i.i.i.i.i = and i32 %_26.i.i.i.i.i, 1835008
  %_43.i.i.i.i.i = shl nuw nsw i32 %y_z.i.i.i.i.i, 6
  %_45.i.i.i.i.i = and i8 %w.i.i.i.i.i, 63
  %_44.i.i.i.i.i = zext nneg i8 %_45.i.i.i.i.i to i32
  %_27.i.i.i.i.i = or disjoint i32 %_43.i.i.i.i.i, %_44.i.i.i.i.i
  %22 = or disjoint i32 %_27.i.i.i.i.i, %_25.i.i.i.i.i
  br label %bb50.thread175.i.i.i

bb50.thread175.i.i.i:                             ; preds = %bb8.i.i.i.i.i, %bb6.i.i.i.i.i, %bb3.i.i.i.i.i, %bb4.i.i.i.i.i
  %char_indices.sroa.0.2.i.i.i = phi ptr [ %_16.i.i.i.i.i.i, %bb3.i.i.i.i.i ], [ %_16.i26.i.i.i.i.i, %bb8.i.i.i.i.i ], [ %_16.i19.i.i.i.i.i, %bb6.i.i.i.i.i ], [ %_16.i12.i.i.i.i.i, %bb4.i.i.i.i.i ]
  %_0.sroa.4.0.i.ph.i.i.i.i = phi i32 [ %_7.i.i37.i.i.i, %bb3.i.i.i.i.i ], [ %22, %bb8.i.i.i.i.i ], [ %21, %bb6.i.i.i.i.i ], [ %20, %bb4.i.i.i.i.i ]
  %23 = ptrtoint ptr %char_indices.sroa.0.2.i.i.i to i64
  %_10.i.i.i.i = sub i64 %char_indices.sroa.17.0.i.i.i, %19
  %24 = add i64 %_10.i.i.i.i, %23
  br label %bb1.i.i.i.i

bb1.i.i.i.i:                                      ; preds = %bb50.thread175.i.i.i, %bb5.i.i.i
  %.pre-phi.i.i = phi i64 [ %23, %bb50.thread175.i.i.i ], [ %19, %bb5.i.i.i ]
  %_15.sroa.8.0184.i.i.i = phi i32 [ %_0.sroa.4.0.i.ph.i.i.i.i, %bb50.thread175.i.i.i ], [ %char_indices.sroa.25.0.i.i.i, %bb5.i.i.i ]
  %_15.sroa.0.0183.i.i.i = phi i64 [ %char_indices.sroa.17.0.i.i.i, %bb50.thread175.i.i.i ], [ %char_indices.sroa.22.1.i.i.i, %bb5.i.i.i ]
  %char_indices.sroa.17.1182.i.i.i = phi i64 [ %24, %bb50.thread175.i.i.i ], [ %char_indices.sroa.17.0.i.i.i, %bb5.i.i.i ]
  %char_indices.sroa.0.1181.i.i.i = phi ptr [ %char_indices.sroa.0.2.i.i.i, %bb50.thread175.i.i.i ], [ %char_indices.sroa.0.0.i.i.i, %bb5.i.i.i ]
  %_6.i.i.i.i.i.i.i.i = icmp eq ptr %char_indices.sroa.0.1181.i.i.i, %_69.i.i.i
  br i1 %_6.i.i.i.i.i.i.i.i, label %bb33.i.i.i, label %bb14.i.i.i.i.i.i.i

bb14.i.i.i.i.i.i.i:                               ; preds = %bb1.i.i.i.i
  %_16.i.i.i.i.i.i.i.i = getelementptr inbounds nuw i8, ptr %char_indices.sroa.0.1181.i.i.i, i64 1
  %x.i.i.i.i.i.i.i = load i8, ptr %char_indices.sroa.0.1181.i.i.i, align 1, !alias.scope !170, !noalias !197, !noundef !2
  %_6.i.i.i.i.i.i.i = icmp sgt i8 %x.i.i.i.i.i.i.i, -1
  br i1 %_6.i.i.i.i.i.i.i, label %bb3.i.i.i.i38.i.i.i, label %bb4.i.i.i.i.i.i.i

bb4.i.i.i.i.i.i.i:                                ; preds = %bb14.i.i.i.i.i.i.i
  %_30.i.i.i.i.i.i.i = and i8 %x.i.i.i.i.i.i.i, 31
  %init.i.i.i.i.i.i.i = zext nneg i8 %_30.i.i.i.i.i.i.i to i32
  %_6.i10.i.i.i.i.i.i.i = icmp ne ptr %_16.i.i.i.i.i.i.i.i, %_69.i.i.i
  call void @llvm.assume(i1 %_6.i10.i.i.i.i.i.i.i)
  %_16.i12.i.i.i.i.i.i.i = getelementptr inbounds nuw i8, ptr %char_indices.sroa.0.1181.i.i.i, i64 2
  %y.i.i.i.i.i.i.i = load i8, ptr %_16.i.i.i.i.i.i.i.i, align 1, !alias.scope !170, !noalias !197, !noundef !2
  %_33.i.i.i.i.i.i.i = shl nuw nsw i32 %init.i.i.i.i.i.i.i, 6
  %_35.i.i.i.i.i.i.i = and i8 %y.i.i.i.i.i.i.i, 63
  %_34.i.i.i.i.i.i.i = zext nneg i8 %_35.i.i.i.i.i.i.i to i32
  %25 = or disjoint i32 %_33.i.i.i.i.i.i.i, %_34.i.i.i.i.i.i.i
  %_13.i.i.i.i.i.i.i = icmp samesign ugt i8 %x.i.i.i.i.i.i.i, -33
  br i1 %_13.i.i.i.i.i.i.i, label %bb6.i.i.i.i.i.i.i, label %bb53.i.i.i

bb3.i.i.i.i38.i.i.i:                              ; preds = %bb14.i.i.i.i.i.i.i
  %_7.i.i.i.i.i.i.i = zext nneg i8 %x.i.i.i.i.i.i.i to i32
  br label %bb53.i.i.i

bb6.i.i.i.i.i.i.i:                                ; preds = %bb4.i.i.i.i.i.i.i
  %_6.i17.i.i.i.i.i.i.i = icmp ne ptr %_16.i12.i.i.i.i.i.i.i, %_69.i.i.i
  call void @llvm.assume(i1 %_6.i17.i.i.i.i.i.i.i)
  %_16.i19.i.i.i.i.i.i.i = getelementptr inbounds nuw i8, ptr %char_indices.sroa.0.1181.i.i.i, i64 3
  %z.i.i.i.i.i.i.i = load i8, ptr %_16.i12.i.i.i.i.i.i.i, align 1, !alias.scope !170, !noalias !197, !noundef !2
  %_38.i.i.i.i.i.i.i = shl nuw nsw i32 %_34.i.i.i.i.i.i.i, 6
  %_40.i.i.i.i.i.i.i = and i8 %z.i.i.i.i.i.i.i, 63
  %_39.i.i.i.i.i.i.i = zext nneg i8 %_40.i.i.i.i.i.i.i to i32
  %y_z.i.i.i.i.i.i.i = or disjoint i32 %_38.i.i.i.i.i.i.i, %_39.i.i.i.i.i.i.i
  %_20.i.i.i.i.i.i.i = shl nuw nsw i32 %init.i.i.i.i.i.i.i, 12
  %26 = or disjoint i32 %y_z.i.i.i.i.i.i.i, %_20.i.i.i.i.i.i.i
  %_21.i.i.i.i.i.i.i = icmp samesign ugt i8 %x.i.i.i.i.i.i.i, -17
  br i1 %_21.i.i.i.i.i.i.i, label %bb8.i.i.i.i.i.i.i, label %bb53.i.i.i

bb8.i.i.i.i.i.i.i:                                ; preds = %bb6.i.i.i.i.i.i.i
  %_6.i24.i.i.i.i.i.i.i = icmp ne ptr %_16.i19.i.i.i.i.i.i.i, %_69.i.i.i
  call void @llvm.assume(i1 %_6.i24.i.i.i.i.i.i.i)
  %_16.i26.i.i.i.i.i.i.i = getelementptr inbounds nuw i8, ptr %char_indices.sroa.0.1181.i.i.i, i64 4
  %w.i.i.i.i.i.i.i = load i8, ptr %_16.i19.i.i.i.i.i.i.i, align 1, !alias.scope !170, !noalias !197, !noundef !2
  %_26.i.i.i.i.i.i.i = shl nuw nsw i32 %init.i.i.i.i.i.i.i, 18
  %_25.i.i.i.i.i.i.i = and i32 %_26.i.i.i.i.i.i.i, 1835008
  %_43.i.i.i.i.i.i.i = shl nuw nsw i32 %y_z.i.i.i.i.i.i.i, 6
  %_45.i.i.i.i.i.i.i = and i8 %w.i.i.i.i.i.i.i, 63
  %_44.i.i.i.i.i.i.i = zext nneg i8 %_45.i.i.i.i.i.i.i to i32
  %_27.i.i.i.i.i.i.i = or disjoint i32 %_43.i.i.i.i.i.i.i, %_44.i.i.i.i.i.i.i
  %27 = or disjoint i32 %_27.i.i.i.i.i.i.i, %_25.i.i.i.i.i.i.i
  br label %bb53.i.i.i

bb35.i.i.i:                                       ; preds = %bb47.i.i.i, %_0.i.i.i.noexc.i
  %char_indices.sroa.22.2.i.i.i = phi i64 [ undef, %_0.i.i.i.noexc.i ], [ %char_indices.sroa.22.1.i.i.i, %bb47.i.i.i ]
  br i1 %iter.sroa.22.1.ph.off0.i.i.i, label %_RNvXsC_NtCsdJPVW0sQgAG_5alloc6stringINtNtCs2f1hMIlW3Va_4heck11upper_camel16AsUpperCamelCaseReENtB5_12SpecToString14spec_to_stringBD_.exit, label %bb2.i.i.i.i

bb53.i.i.i:                                       ; preds = %bb8.i.i.i.i.i.i.i, %bb6.i.i.i.i.i.i.i, %bb3.i.i.i.i38.i.i.i, %bb4.i.i.i.i.i.i.i
  %char_indices.sroa.0.4.i.i.i = phi ptr [ %_16.i.i.i.i.i.i.i.i, %bb3.i.i.i.i38.i.i.i ], [ %_16.i26.i.i.i.i.i.i.i, %bb8.i.i.i.i.i.i.i ], [ %_16.i19.i.i.i.i.i.i.i, %bb6.i.i.i.i.i.i.i ], [ %_16.i12.i.i.i.i.i.i.i, %bb4.i.i.i.i.i.i.i ]
  %_0.sroa.4.0.i.ph.i.i.i.i.i.i = phi i32 [ %_7.i.i.i.i.i.i.i, %bb3.i.i.i.i38.i.i.i ], [ %27, %bb8.i.i.i.i.i.i.i ], [ %26, %bb6.i.i.i.i.i.i.i ], [ %25, %bb4.i.i.i.i.i.i.i ]
  %28 = icmp samesign ult i32 %_0.sroa.4.0.i.ph.i.i.i.i.i.i, 1114112
  call void @llvm.assume(i1 %28)
  %29 = ptrtoint ptr %char_indices.sroa.0.4.i.i.i to i64
  %_10.i.i.i.i.i.i = sub i64 %char_indices.sroa.17.1182.i.i.i, %.pre-phi.i.i
  %30 = add i64 %_10.i.i.i.i.i.i, %29
  %31 = add nsw i32 %_15.sroa.8.0184.i.i.i, -97
  %or.cond.i.i.i = icmp ult i32 %31, 26
  br i1 %or.cond.i.i.i, label %bb11.i.i.i, label %bb54.i.i.i

bb33.i.i.i:                                       ; preds = %bb1.i.i.i.i
  %32 = icmp eq i64 %init.sroa.0.0.i.i.i.ph, 0
  br i1 %32, label %bb102.i.i.i, label %bb5.i.i.i.i

bb5.i.i.i.i:                                      ; preds = %bb33.i.i.i
  %_8.not.i.i.i.i = icmp ult i64 %init.sroa.0.0.i.i.i.ph, %_0.sroa.4.1.i.ph.i.i.i
  br i1 %_8.not.i.i.i.i, label %bb9.i.i.i.i, label %bb6.i.i.i.i

bb6.i.i.i.i:                                      ; preds = %bb5.i.i.i.i
  %33 = icmp eq i64 %init.sroa.0.0.i.i.i.ph, %_0.sroa.4.1.i.ph.i.i.i
  br i1 %33, label %bb102.i.i.i, label %bb101.i.i.invoke.i

bb9.i.i.i.i:                                      ; preds = %bb5.i.i.i.i
  %34 = getelementptr inbounds nuw i8, ptr %_0.sroa.0.1.i.ph.i.i.i, i64 %init.sroa.0.0.i.i.i.ph
  %self1.i.i.i.i = load i8, ptr %34, align 1, !alias.scope !207, !noalias !210, !noundef !2
  %35 = icmp sgt i8 %self1.i.i.i.i, -65
  br i1 %35, label %bb102.i.i.i, label %bb101.i.i.invoke.i

bb102.i.i.i:                                      ; preds = %bb9.i.i.i.i, %bb6.i.i.i.i, %bb33.i.i.i
  %data.i42.i.i.i = getelementptr inbounds nuw i8, ptr %_0.sroa.0.1.i.ph.i.i.i, i64 %init.sroa.0.0.i.i.i.ph
  %new_len.i41.i.i.i = sub nuw i64 %_0.sroa.4.1.i.ph.i.i.i, %init.sroa.0.0.i.i.i.ph
; invoke heck::capitalize
  %_0.i.i.i3.i = invoke noundef zeroext i1 @_RNvCs2f1hMIlW3Va_4heck10capitalize(ptr noalias noundef nonnull readonly align 1 captures(address, read_provenance) %data.i42.i.i.i, i64 noundef %new_len.i41.i.i.i, ptr noalias noundef nonnull readonly align 8 dereferenceable(24) %formatter.i)
          to label %_0.i.i.i.noexc.i unwind label %cleanup.loopexit.split-lp.loopexit.split-lp.loopexit.i, !noalias !167

_0.i.i.i.noexc.i:                                 ; preds = %bb102.i.i.i
  br i1 %_0.i.i.i3.i, label %bb2.i.i, label %bb35.i.i.i, !prof !97

bb101.i.i.invoke.i:                               ; preds = %bb9.i.i.i.i, %bb6.i.i.i.i, %bb19.i67.i.i.i, %bb16.i63.i.i.i, %bb13.i69.i.i.i, %bb10.i56.i.i.i, %bb15.i.i.i, %bb19.i.i.i.i, %bb16.i.i.i.i, %bb13.i.i.i.i, %bb10.i.i.i.i, %bb24.i.i.i
  %36 = phi i64 [ %char_indices.sroa.17.1182.i.i.i, %bb15.i.i.i ], [ %char_indices.sroa.17.1182.i.i.i, %bb10.i56.i.i.i ], [ %char_indices.sroa.17.1182.i.i.i, %bb13.i69.i.i.i ], [ %char_indices.sroa.17.1182.i.i.i, %bb16.i63.i.i.i ], [ %char_indices.sroa.17.1182.i.i.i, %bb19.i67.i.i.i ], [ %_15.sroa.0.0183.i.i.i, %bb24.i.i.i ], [ %_15.sroa.0.0183.i.i.i, %bb10.i.i.i.i ], [ %_15.sroa.0.0183.i.i.i, %bb13.i.i.i.i ], [ %_15.sroa.0.0183.i.i.i, %bb16.i.i.i.i ], [ %_15.sroa.0.0183.i.i.i, %bb19.i.i.i.i ], [ %_0.sroa.4.1.i.ph.i.i.i, %bb6.i.i.i.i ], [ %_0.sroa.4.1.i.ph.i.i.i, %bb9.i.i.i.i ]
  %37 = phi ptr [ @alloc_a50a5070980a36c272121b09121457de, %bb15.i.i.i ], [ @alloc_a50a5070980a36c272121b09121457de, %bb10.i56.i.i.i ], [ @alloc_a50a5070980a36c272121b09121457de, %bb13.i69.i.i.i ], [ @alloc_a50a5070980a36c272121b09121457de, %bb16.i63.i.i.i ], [ @alloc_a50a5070980a36c272121b09121457de, %bb19.i67.i.i.i ], [ @alloc_308f8938e9762d461fc13622ca97483f, %bb24.i.i.i ], [ @alloc_308f8938e9762d461fc13622ca97483f, %bb10.i.i.i.i ], [ @alloc_308f8938e9762d461fc13622ca97483f, %bb13.i.i.i.i ], [ @alloc_308f8938e9762d461fc13622ca97483f, %bb16.i.i.i.i ], [ @alloc_308f8938e9762d461fc13622ca97483f, %bb19.i.i.i.i ], [ @alloc_13b4bf5d328eab9b8df3f7027955d33b, %bb6.i.i.i.i ], [ @alloc_13b4bf5d328eab9b8df3f7027955d33b, %bb9.i.i.i.i ]
; invoke core::str::slice_error_fail
  invoke void @_RNvNtCsjMrxcFdYDNN_4core3str16slice_error_fail(ptr noalias noundef nonnull readonly align 1 captures(address, read_provenance) %_0.sroa.0.1.i.ph.i.i.i, i64 noundef %_0.sroa.4.1.i.ph.i.i.i, i64 noundef %init.sroa.0.0.i.i.i.ph, i64 noundef %36, ptr noalias noundef nonnull readonly align 8 captures(address, read_provenance) dereferenceable(24) %37) #18
          to label %bb101.i.i.cont.i unwind label %cleanup.loopexit.split-lp.loopexit.split-lp.loopexit.split-lp.i, !noalias !167

bb101.i.i.cont.i:                                 ; preds = %bb101.i.i.invoke.i
  unreachable

bb54.i.i.i:                                       ; preds = %bb53.i.i.i
  %_84.i.i.i = icmp samesign ugt i32 %_15.sroa.8.0184.i.i.i, 127
  br i1 %_84.i.i.i, label %bb57.i.i.i, label %bb8.i.i.i

bb57.i.i.i:                                       ; preds = %bb54.i.i.i
; invoke core::unicode::unicode_data::lowercase::lookup
  %_23.i.i5.i = invoke noundef zeroext i1 @_RNvNtNtNtCsjMrxcFdYDNN_4core7unicode12unicode_data9lowercase6lookup(i32 noundef %_15.sroa.8.0184.i.i.i)
          to label %_23.i.i.noexc.i unwind label %cleanup.loopexit.i.loopexit.loopexit, !noalias !167

_23.i.i.noexc.i:                                  ; preds = %bb57.i.i.i
  br i1 %_23.i.i5.i, label %bb11.i.i.i, label %bb63.i.i.i

bb8.i.i.i:                                        ; preds = %bb54.i.i.i
  %38 = add nsw i32 %_15.sroa.8.0184.i.i.i, -65
  %or.cond1.i.i.i = icmp ult i32 %38, 26
  br i1 %or.cond1.i.i.i, label %bb17.i.i.i, label %bb10.i.i.i

bb63.i.i.i:                                       ; preds = %_23.i.i.noexc.i
; invoke core::unicode::unicode_data::uppercase::lookup
  %_24.i.i6.i = invoke noundef zeroext i1 @_RNvNtNtNtCsjMrxcFdYDNN_4core7unicode12unicode_data9uppercase6lookup(i32 noundef %_15.sroa.8.0184.i.i.i)
          to label %_24.i.i.noexc.i unwind label %cleanup.loopexit.i.loopexit.loopexit, !noalias !167

_24.i.i.noexc.i:                                  ; preds = %bb63.i.i.i
  br i1 %_24.i.i6.i, label %bb17.i.i.i, label %bb10.i.i.i

bb10.i.i.i:                                       ; preds = %_24.i.i.noexc.i, %bb8.i.i.i
  %_25.i.i.i = icmp eq i8 %mode.sroa.0.0.i.i.i, 1
  br i1 %_25.i.i.i, label %bb11.i.i.i, label %bb17.i.i.i

bb17.i.i.i:                                       ; preds = %_26.i.i.noexc.i, %bb66.i.i.i, %bb10.i.i.i, %_24.i.i.noexc.i, %bb8.i.i.i
  %next_mode.sroa.0.0.i.i.i = phi i8 [ 1, %_26.i.i.noexc.i ], [ 1, %bb66.i.i.i ], [ %mode.sroa.0.0.i.i.i, %bb10.i.i.i ], [ 2, %bb8.i.i.i ], [ 2, %_24.i.i.noexc.i ]
  %39 = icmp eq i8 %mode.sroa.0.0.i.i.i, 2
  br i1 %39, label %bb18.i.i.i, label %bb5.i.i.i.backedge

bb11.i.i.i:                                       ; preds = %bb10.i.i.i, %_23.i.i.noexc.i, %bb53.i.i.i
  %40 = add nsw i32 %_0.sroa.4.0.i.ph.i.i.i.i.i.i, -65
  %or.cond2.i.i.i = icmp ult i32 %40, 26
  br i1 %or.cond2.i.i.i, label %bb15.i.i.i, label %bb66.i.i.i

bb66.i.i.i:                                       ; preds = %bb11.i.i.i
  %_91.i.i.i = icmp samesign ugt i32 %_0.sroa.4.0.i.ph.i.i.i.i.i.i, 127
  br i1 %_91.i.i.i, label %bb69.i.i.i, label %bb17.i.i.i

bb69.i.i.i:                                       ; preds = %bb66.i.i.i
; invoke core::unicode::unicode_data::uppercase::lookup
  %_26.i.i7.i = invoke noundef zeroext i1 @_RNvNtNtNtCsjMrxcFdYDNN_4core7unicode12unicode_data9uppercase6lookup(i32 noundef %_0.sroa.4.0.i.ph.i.i.i.i.i.i)
          to label %_26.i.i.noexc.i unwind label %cleanup.loopexit.i.loopexit.loopexit, !noalias !167

_26.i.i.noexc.i:                                  ; preds = %bb69.i.i.i
  br i1 %_26.i.i7.i, label %bb15.i.i.i, label %bb17.i.i.i

bb18.i.i.i:                                       ; preds = %bb17.i.i.i
  %41 = add nsw i32 %_15.sroa.8.0184.i.i.i, -65
  %or.cond3.i.i.i = icmp ult i32 %41, 26
  br i1 %or.cond3.i.i.i, label %bb19.i.i.i, label %bb79.i.i.i

bb79.i.i.i:                                       ; preds = %bb18.i.i.i
  %_100.i.i.i = icmp samesign ugt i32 %_15.sroa.8.0184.i.i.i, 127
  br i1 %_100.i.i.i, label %bb82.i.i.i, label %bb5.i.i.i.backedge

bb82.i.i.i:                                       ; preds = %bb79.i.i.i
; invoke core::unicode::unicode_data::uppercase::lookup
  %_35.i.i8.i = invoke noundef zeroext i1 @_RNvNtNtNtCsjMrxcFdYDNN_4core7unicode12unicode_data9uppercase6lookup(i32 noundef %_15.sroa.8.0184.i.i.i)
          to label %_35.i.i.noexc.i unwind label %cleanup.loopexit.i.loopexit.loopexit, !noalias !167

_35.i.i.noexc.i:                                  ; preds = %bb82.i.i.i
  br i1 %_35.i.i8.i, label %bb19.i.i.i, label %bb5.i.i.i.backedge

bb19.i.i.i:                                       ; preds = %_35.i.i.noexc.i, %bb18.i.i.i
  %42 = add nsw i32 %_0.sroa.4.0.i.ph.i.i.i.i.i.i, -97
  %or.cond4.i.i.i = icmp ult i32 %42, 26
  br i1 %or.cond4.i.i.i, label %bb24.i.i.i, label %bb85.i.i.i

bb85.i.i.i:                                       ; preds = %bb19.i.i.i
  %_103.i.i.i = icmp samesign ugt i32 %_0.sroa.4.0.i.ph.i.i.i.i.i.i, 127
  br i1 %_103.i.i.i, label %bb88.i.i.i, label %bb5.i.i.i.backedge

bb88.i.i.i:                                       ; preds = %bb85.i.i.i
; invoke core::unicode::unicode_data::lowercase::lookup
  %_36.i.i9.i = invoke noundef zeroext i1 @_RNvNtNtNtCsjMrxcFdYDNN_4core7unicode12unicode_data9lowercase6lookup(i32 noundef %_0.sroa.4.0.i.ph.i.i.i.i.i.i)
          to label %_36.i.i.noexc.i unwind label %cleanup.loopexit.i.loopexit.loopexit, !noalias !167

_36.i.i.noexc.i:                                  ; preds = %bb88.i.i.i
  br i1 %_36.i.i9.i, label %bb24.i.i.i, label %bb5.i.i.i.backedge

bb5.i.i.i.backedge:                               ; preds = %_36.i.i.noexc.i, %bb85.i.i.i, %_35.i.i.noexc.i, %bb79.i.i.i, %bb17.i.i.i
  br label %bb5.i.i.i

bb24.i.i.i:                                       ; preds = %_36.i.i.noexc.i, %bb19.i.i.i
  %_3.not.i.i.i.i = icmp ugt i64 %init.sroa.0.0.i.i.i.ph, %_15.sroa.0.0183.i.i.i
  br i1 %_3.not.i.i.i.i, label %bb101.i.i.invoke.i, label %bb1.i43.i.i.i

bb1.i43.i.i.i:                                    ; preds = %bb24.i.i.i
  %43 = icmp eq i64 %init.sroa.0.0.i.i.i.ph, 0
  br i1 %43, label %bb2.i48.i.i.i, label %bb9.i44.i.i.i

bb9.i44.i.i.i:                                    ; preds = %bb1.i43.i.i.i
  %_11.not.i.i.i.i = icmp ult i64 %init.sroa.0.0.i.i.i.ph, %_0.sroa.4.1.i.ph.i.i.i
  br i1 %_11.not.i.i.i.i, label %bb13.i.i.i.i, label %bb10.i.i.i.i

bb2.i48.i.i.i:                                    ; preds = %bb13.i.i.i.i, %bb10.i.i.i.i, %bb1.i43.i.i.i
  %44 = icmp eq i64 %_15.sroa.0.0183.i.i.i, 0
  br i1 %44, label %bb95.i.i.i, label %bb15.i.i.i.i

bb10.i.i.i.i:                                     ; preds = %bb9.i44.i.i.i
  %45 = icmp eq i64 %init.sroa.0.0.i.i.i.ph, %_0.sroa.4.1.i.ph.i.i.i
  br i1 %45, label %bb2.i48.i.i.i, label %bb101.i.i.invoke.i

bb13.i.i.i.i:                                     ; preds = %bb9.i44.i.i.i
  %46 = getelementptr inbounds nuw i8, ptr %_0.sroa.0.1.i.ph.i.i.i, i64 %init.sroa.0.0.i.i.i.ph
  %self.i.i.i.i = load i8, ptr %46, align 1, !alias.scope !211, !noalias !210, !noundef !2
  %47 = icmp sgt i8 %self.i.i.i.i, -65
  br i1 %47, label %bb2.i48.i.i.i, label %bb101.i.i.invoke.i

bb15.i.i.i.i:                                     ; preds = %bb2.i48.i.i.i
  %_17.not.i.i.i.i = icmp ult i64 %_15.sroa.0.0183.i.i.i, %_0.sroa.4.1.i.ph.i.i.i
  br i1 %_17.not.i.i.i.i, label %bb19.i.i.i.i, label %bb16.i.i.i.i

bb16.i.i.i.i:                                     ; preds = %bb15.i.i.i.i
  %48 = icmp eq i64 %_15.sroa.0.0183.i.i.i, %_0.sroa.4.1.i.ph.i.i.i
  br i1 %48, label %bb95.i.i.i, label %bb101.i.i.invoke.i

bb19.i.i.i.i:                                     ; preds = %bb15.i.i.i.i
  %49 = getelementptr inbounds nuw i8, ptr %_0.sroa.0.1.i.ph.i.i.i, i64 %_15.sroa.0.0183.i.i.i
  %self2.i.i.i.i = load i8, ptr %49, align 1, !alias.scope !211, !noalias !210, !noundef !2
  %50 = icmp sgt i8 %self2.i.i.i.i, -65
  br i1 %50, label %bb95.i.i.i, label %bb101.i.i.invoke.i

bb95.i.i.i:                                       ; preds = %bb19.i.i.i.i, %bb16.i.i.i.i, %bb2.i48.i.i.i
  %data.i50.i.i.i = getelementptr inbounds nuw i8, ptr %_0.sroa.0.1.i.ph.i.i.i, i64 %init.sroa.0.0.i.i.i.ph
  %new_len.i49.i.i.i = sub nuw i64 %_15.sroa.0.0183.i.i.i, %init.sroa.0.0.i.i.i.ph
; invoke heck::capitalize
  %_0.i51.i.i10.i = invoke noundef zeroext i1 @_RNvCs2f1hMIlW3Va_4heck10capitalize(ptr noalias noundef nonnull readonly align 1 captures(address, read_provenance) %data.i50.i.i.i, i64 noundef %new_len.i49.i.i.i, ptr noalias noundef nonnull readonly align 8 dereferenceable(24) %formatter.i)
          to label %_0.i51.i.i.noexc.i unwind label %cleanup.loopexit.i.loopexit.loopexit.split-lp, !noalias !167

_0.i51.i.i.noexc.i:                               ; preds = %bb95.i.i.i
  br i1 %_0.i51.i.i10.i, label %bb2.i.i, label %bb5.i.i.i.outer.backedge, !prof !97

bb15.i.i.i:                                       ; preds = %_26.i.i.noexc.i, %bb11.i.i.i
  %_3.not.i52.i.i.i = icmp ugt i64 %init.sroa.0.0.i.i.i.ph, %char_indices.sroa.17.1182.i.i.i
  br i1 %_3.not.i52.i.i.i, label %bb101.i.i.invoke.i, label %bb1.i53.i.i.i

bb1.i53.i.i.i:                                    ; preds = %bb15.i.i.i
  %51 = icmp eq i64 %init.sroa.0.0.i.i.i.ph, 0
  br i1 %51, label %bb2.i60.i.i.i, label %bb9.i54.i.i.i

bb9.i54.i.i.i:                                    ; preds = %bb1.i53.i.i.i
  %_11.not.i55.i.i.i = icmp ult i64 %init.sroa.0.0.i.i.i.ph, %_0.sroa.4.1.i.ph.i.i.i
  br i1 %_11.not.i55.i.i.i, label %bb13.i69.i.i.i, label %bb10.i56.i.i.i

bb2.i60.i.i.i:                                    ; preds = %bb13.i69.i.i.i, %bb10.i56.i.i.i, %bb1.i53.i.i.i
  %52 = icmp eq i64 %char_indices.sroa.17.1182.i.i.i, 0
  br i1 %52, label %bb76.i.i.i, label %bb15.i61.i.i.i

bb10.i56.i.i.i:                                   ; preds = %bb9.i54.i.i.i
  %53 = icmp eq i64 %init.sroa.0.0.i.i.i.ph, %_0.sroa.4.1.i.ph.i.i.i
  br i1 %53, label %bb2.i60.i.i.i, label %bb101.i.i.invoke.i

bb13.i69.i.i.i:                                   ; preds = %bb9.i54.i.i.i
  %54 = getelementptr inbounds nuw i8, ptr %_0.sroa.0.1.i.ph.i.i.i, i64 %init.sroa.0.0.i.i.i.ph
  %self.i70.i.i.i = load i8, ptr %54, align 1, !alias.scope !214, !noalias !210, !noundef !2
  %55 = icmp sgt i8 %self.i70.i.i.i, -65
  br i1 %55, label %bb2.i60.i.i.i, label %bb101.i.i.invoke.i

bb15.i61.i.i.i:                                   ; preds = %bb2.i60.i.i.i
  %_17.not.i62.i.i.i = icmp ult i64 %char_indices.sroa.17.1182.i.i.i, %_0.sroa.4.1.i.ph.i.i.i
  br i1 %_17.not.i62.i.i.i, label %bb19.i67.i.i.i, label %bb16.i63.i.i.i

bb16.i63.i.i.i:                                   ; preds = %bb15.i61.i.i.i
  %56 = icmp eq i64 %char_indices.sroa.17.1182.i.i.i, %_0.sroa.4.1.i.ph.i.i.i
  br i1 %56, label %bb76.i.i.i, label %bb101.i.i.invoke.i

bb19.i67.i.i.i:                                   ; preds = %bb15.i61.i.i.i
  %57 = getelementptr inbounds nuw i8, ptr %_0.sroa.0.1.i.ph.i.i.i, i64 %char_indices.sroa.17.1182.i.i.i
  %self2.i68.i.i.i = load i8, ptr %57, align 1, !alias.scope !214, !noalias !210, !noundef !2
  %58 = icmp sgt i8 %self2.i68.i.i.i, -65
  br i1 %58, label %bb76.i.i.i, label %bb101.i.i.invoke.i

bb76.i.i.i:                                       ; preds = %bb19.i67.i.i.i, %bb16.i63.i.i.i, %bb2.i60.i.i.i
  %data.i66.i.i.i = getelementptr inbounds nuw i8, ptr %_0.sroa.0.1.i.ph.i.i.i, i64 %init.sroa.0.0.i.i.i.ph
  %new_len.i65.i.i.i = sub nuw i64 %char_indices.sroa.17.1182.i.i.i, %init.sroa.0.0.i.i.i.ph
  call void @llvm.experimental.noalias.scope.decl(metadata !217)
  call void @llvm.lifetime.start.p0(i64 12, ptr nonnull %_33.i)
  %_28.i = getelementptr inbounds nuw i8, ptr %_0.sroa.0.1.i.ph.i.i.i, i64 %char_indices.sroa.17.1182.i.i.i
  %59 = ptrtoint ptr %data.i66.i.i.i to i64
  %_6.i.i.i.i = icmp eq i64 %char_indices.sroa.17.1182.i.i.i, %init.sroa.0.0.i.i.i.ph
  br i1 %_6.i.i.i.i, label %_0.i72.i.i.noexc.i.thread, label %bb14.i.i.i

bb14.i.i.i:                                       ; preds = %bb76.i.i.i
  %_16.i.i.i.i = getelementptr inbounds nuw i8, ptr %data.i66.i.i.i, i64 1
  %x.i.i.i = load i8, ptr %data.i66.i.i.i, align 1, !alias.scope !217, !noalias !220, !noundef !2
  %_6.i.i.i = icmp sgt i8 %x.i.i.i, -1
  br i1 %_6.i.i.i, label %bb3.i.i.i4, label %bb4.i.i.i

bb4.i.i.i:                                        ; preds = %bb14.i.i.i
  %_30.i.i.i = and i8 %x.i.i.i, 31
  %init.i.i.i = zext nneg i8 %_30.i.i.i to i32
  %_6.i10.i.i.i = icmp samesign ne i64 %new_len.i65.i.i.i, 1
  call void @llvm.assume(i1 %_6.i10.i.i.i), !noalias !167
  %_16.i12.i.i.i = getelementptr inbounds nuw i8, ptr %data.i66.i.i.i, i64 2
  %y.i.i.i = load i8, ptr %_16.i.i.i.i, align 1, !alias.scope !217, !noalias !220, !noundef !2
  %_33.i.i.i = shl nuw nsw i32 %init.i.i.i, 6
  %_35.i.i.i = and i8 %y.i.i.i, 63
  %_34.i.i.i = zext nneg i8 %_35.i.i.i to i32
  %60 = or disjoint i32 %_33.i.i.i, %_34.i.i.i
  %_13.i.i.i = icmp samesign ugt i8 %x.i.i.i, -33
  br i1 %_13.i.i.i, label %bb6.i.i.i, label %bb2.i

bb3.i.i.i4:                                       ; preds = %bb14.i.i.i
  %_7.i.i.i = zext nneg i8 %x.i.i.i to i32
  br label %bb2.i

bb6.i.i.i:                                        ; preds = %bb4.i.i.i
  %_6.i17.i.i.i = icmp samesign ne i64 %new_len.i65.i.i.i, 2
  call void @llvm.assume(i1 %_6.i17.i.i.i), !noalias !167
  %_16.i19.i.i.i = getelementptr inbounds nuw i8, ptr %data.i66.i.i.i, i64 3
  %z.i.i.i = load i8, ptr %_16.i12.i.i.i, align 1, !alias.scope !217, !noalias !220, !noundef !2
  %_38.i.i.i = shl nuw nsw i32 %_34.i.i.i, 6
  %_40.i.i.i = and i8 %z.i.i.i, 63
  %_39.i.i.i = zext nneg i8 %_40.i.i.i to i32
  %y_z.i.i.i = or disjoint i32 %_38.i.i.i, %_39.i.i.i
  %_20.i.i.i = shl nuw nsw i32 %init.i.i.i, 12
  %61 = or disjoint i32 %y_z.i.i.i, %_20.i.i.i
  %_21.i.i.i = icmp samesign ugt i8 %x.i.i.i, -17
  br i1 %_21.i.i.i, label %bb8.i.i.i2, label %bb2.i

bb8.i.i.i2:                                       ; preds = %bb6.i.i.i
  %_6.i24.i.i.i = icmp samesign ne i64 %new_len.i65.i.i.i, 3
  call void @llvm.assume(i1 %_6.i24.i.i.i), !noalias !167
  %_16.i26.i.i.i = getelementptr inbounds nuw i8, ptr %data.i66.i.i.i, i64 4
  %w.i.i.i = load i8, ptr %_16.i19.i.i.i, align 1, !alias.scope !217, !noalias !220, !noundef !2
  %_26.i.i.i = shl nuw nsw i32 %init.i.i.i, 18
  %_25.i.i.i3 = and i32 %_26.i.i.i, 1835008
  %_43.i.i.i = shl nuw nsw i32 %y_z.i.i.i, 6
  %_45.i.i.i = and i8 %w.i.i.i, 63
  %_44.i.i.i = zext nneg i8 %_45.i.i.i to i32
  %_27.i.i.i = or disjoint i32 %_43.i.i.i, %_44.i.i.i
  %62 = or disjoint i32 %_27.i.i.i, %_25.i.i.i3
  br label %bb2.i

bb2.i:                                            ; preds = %bb8.i.i.i2, %bb6.i.i.i, %bb3.i.i.i4, %bb4.i.i.i
  %char_indices.sroa.0.0.i = phi ptr [ %_16.i.i.i.i, %bb3.i.i.i4 ], [ %_16.i26.i.i.i, %bb8.i.i.i2 ], [ %_16.i19.i.i.i, %bb6.i.i.i ], [ %_16.i12.i.i.i, %bb4.i.i.i ]
  %_0.sroa.4.0.i.ph.i.i = phi i32 [ %_7.i.i.i, %bb3.i.i.i4 ], [ %62, %bb8.i.i.i2 ], [ %61, %bb6.i.i.i ], [ %60, %bb4.i.i.i ]
  %63 = icmp samesign ult i32 %_0.sroa.4.0.i.ph.i.i, 1114112
  call void @llvm.assume(i1 %63), !noalias !167
  %64 = ptrtoint ptr %char_indices.sroa.0.0.i to i64
  %65 = sub i64 %64, %59
  call void @llvm.lifetime.start.p0(i64 32, ptr nonnull %_11.i), !noalias !226
; invoke core::unicode::unicode_data::conversions::to_upper
  invoke void @_RNvNtNtNtCsjMrxcFdYDNN_4core7unicode12unicode_data11conversions8to_upper(ptr noalias noundef nonnull sret([12 x i8]) align 4 captures(none) dereferenceable(12) %_33.i, i32 noundef %_0.sroa.4.0.i.ph.i.i)
          to label %.noexc unwind label %cleanup.loopexit.i.loopexit.loopexit.split-lp

.noexc:                                           ; preds = %bb2.i
  %_3.i.i = load i32, ptr %2, align 8, !range !14, !noalias !226, !noundef !2
  %66 = icmp eq i32 %_3.i.i, 0
  %_6.i.i = load i32, ptr %3, align 4, !range !14, !noalias !226
  %67 = icmp eq i32 %_6.i.i, 0
  %spec.select.i.i = select i1 %67, i64 1, i64 2
  %iter.sroa.4.0.i.i = select i1 %66, i64 %spec.select.i.i, i64 3
  store i64 0, ptr %_11.i, align 8, !noalias !226
  store i64 %iter.sroa.4.0.i.i, ptr %_32.sroa.4.0._11.sroa_idx.i, align 8, !noalias !226
  call void @llvm.memcpy.p0.p0.i64(ptr noundef nonnull align 8 dereferenceable(12) %_32.sroa.5.0._11.sroa_idx.i, ptr noundef nonnull align 8 dereferenceable(12) %_33.i, i64 12, i1 false), !noalias !226
  call void @llvm.lifetime.start.p0(i64 16, ptr nonnull %args.i), !noalias !226
  store ptr %_11.i, ptr %args.i, align 8, !noalias !226
  store ptr @_RNvXsB_NtCsjMrxcFdYDNN_4core4charNtB5_11ToLowercaseNtNtB7_3fmt7Display3fmt, ptr %_13.sroa.4.0..sroa_idx.i, align 8, !noalias !226
; invoke core::fmt::write
  %68 = invoke noundef zeroext i1 @_RNvNtCsjMrxcFdYDNN_4core3fmt5write(ptr noundef nonnull align 1 %buf.i, ptr noalias noundef nonnull readonly align 8 captures(address, read_provenance) dereferenceable(48) @vtable.1, ptr noundef nonnull @alloc_0c812808379efded5a4fb82d2790b556, ptr noundef nonnull %args.i)
          to label %.noexc5 unwind label %cleanup.loopexit.i.loopexit.loopexit.split-lp

.noexc5:                                          ; preds = %.noexc
  call void @llvm.lifetime.end.p0(i64 16, ptr nonnull %args.i), !noalias !226
  call void @llvm.lifetime.end.p0(i64 32, ptr nonnull %_11.i), !noalias !226
  br i1 %68, label %_0.i72.i.i.noexc.i, label %bb23.i

bb23.i:                                           ; preds = %.noexc5
  %_6.i.i.i14.i = icmp eq ptr %char_indices.sroa.0.0.i, %_28.i
  br i1 %_6.i.i.i14.i, label %_0.i72.i.i.noexc.i.thread, label %bb14.i.i15.i

bb14.i.i15.i:                                     ; preds = %bb23.i
  %x.i.i17.i = load i8, ptr %char_indices.sroa.0.0.i, align 1, !alias.scope !217, !noalias !227, !noundef !2
  %_6.i.i18.i = icmp sgt i8 %x.i.i17.i, -1
  br i1 %_6.i.i18.i, label %bb3.i.i56.i, label %bb4.i.i19.i

bb4.i.i19.i:                                      ; preds = %bb14.i.i15.i
  %_16.i.i.i16.i = getelementptr inbounds nuw i8, ptr %char_indices.sroa.0.0.i, i64 1
  %_30.i.i20.i = and i8 %x.i.i17.i, 31
  %init.i.i21.i = zext nneg i8 %_30.i.i20.i to i32
  %_6.i10.i.i22.i = icmp ne ptr %_16.i.i.i16.i, %_28.i
  call void @llvm.assume(i1 %_6.i10.i.i22.i), !noalias !167
  %y.i.i24.i = load i8, ptr %_16.i.i.i16.i, align 1, !alias.scope !217, !noalias !227, !noundef !2
  %_33.i.i25.i = shl nuw nsw i32 %init.i.i21.i, 6
  %_35.i.i26.i = and i8 %y.i.i24.i, 63
  %_34.i.i27.i = zext nneg i8 %_35.i.i26.i to i32
  %69 = or disjoint i32 %_33.i.i25.i, %_34.i.i27.i
  %_13.i.i28.i = icmp samesign ugt i8 %x.i.i17.i, -33
  br i1 %_13.i.i28.i, label %bb6.i.i36.i, label %bb6.i

bb3.i.i56.i:                                      ; preds = %bb14.i.i15.i
  %_7.i.i57.i = zext nneg i8 %x.i.i17.i to i32
  br label %bb6.i

bb6.i.i36.i:                                      ; preds = %bb4.i.i19.i
  %_16.i12.i.i23.i = getelementptr inbounds nuw i8, ptr %char_indices.sroa.0.0.i, i64 2
  %_6.i17.i.i37.i = icmp ne ptr %_16.i12.i.i23.i, %_28.i
  call void @llvm.assume(i1 %_6.i17.i.i37.i), !noalias !167
  %z.i.i39.i = load i8, ptr %_16.i12.i.i23.i, align 1, !alias.scope !217, !noalias !227, !noundef !2
  %_38.i.i40.i = shl nuw nsw i32 %_34.i.i27.i, 6
  %_40.i.i41.i = and i8 %z.i.i39.i, 63
  %_39.i.i42.i = zext nneg i8 %_40.i.i41.i to i32
  %y_z.i.i43.i = or disjoint i32 %_38.i.i40.i, %_39.i.i42.i
  %_20.i.i44.i = shl nuw nsw i32 %init.i.i21.i, 12
  %70 = or disjoint i32 %y_z.i.i43.i, %_20.i.i44.i
  %_21.i.i45.i = icmp samesign ugt i8 %x.i.i17.i, -17
  br i1 %_21.i.i45.i, label %bb8.i.i46.i, label %bb6.i

bb8.i.i46.i:                                      ; preds = %bb6.i.i36.i
  %_16.i19.i.i38.i = getelementptr inbounds nuw i8, ptr %char_indices.sroa.0.0.i, i64 3
  %_6.i24.i.i47.i = icmp ne ptr %_16.i19.i.i38.i, %_28.i
  call void @llvm.assume(i1 %_6.i24.i.i47.i), !noalias !167
  %w.i.i49.i = load i8, ptr %_16.i19.i.i38.i, align 1, !alias.scope !217, !noalias !227, !noundef !2
  %_26.i.i50.i = shl nuw nsw i32 %init.i.i21.i, 18
  %_25.i.i51.i = and i32 %_26.i.i50.i, 1835008
  %_43.i.i52.i = shl nuw nsw i32 %y_z.i.i43.i, 6
  %_45.i.i53.i = and i8 %w.i.i49.i, 63
  %_44.i.i54.i = zext nneg i8 %_45.i.i53.i to i32
  %_27.i.i55.i = or disjoint i32 %_43.i.i52.i, %_44.i.i54.i
  %71 = or disjoint i32 %_27.i.i55.i, %_25.i.i51.i
  br label %bb6.i

bb6.i:                                            ; preds = %bb8.i.i46.i, %bb6.i.i36.i, %bb3.i.i56.i, %bb4.i.i19.i
  %_0.sroa.4.0.i.ph.i31.i = phi i32 [ %69, %bb4.i.i19.i ], [ %70, %bb6.i.i36.i ], [ %71, %bb8.i.i46.i ], [ %_7.i.i57.i, %bb3.i.i56.i ]
  %72 = icmp samesign ult i32 %_0.sroa.4.0.i.ph.i31.i, 1114112
  call void @llvm.assume(i1 %72), !noalias !167
  %_8.not.i.i = icmp ult i64 %65, %new_len.i65.i.i.i
  br i1 %_8.not.i.i, label %bb9.i.i, label %bb6.i.i

bb6.i.i:                                          ; preds = %bb6.i
  %73 = icmp eq i64 %65, %new_len.i65.i.i.i
  br i1 %73, label %bb26.i, label %bb25.i

bb9.i.i:                                          ; preds = %bb6.i
  %74 = getelementptr inbounds nuw i8, ptr %data.i66.i.i.i, i64 %65
  %self1.i.i = load i8, ptr %74, align 1, !alias.scope !232, !noalias !235, !noundef !2
  %75 = icmp sgt i8 %self1.i.i, -65
  br i1 %75, label %bb26.i, label %bb25.i

bb26.i:                                           ; preds = %bb9.i.i, %bb6.i.i
  %new_len.i.i = sub nuw i64 %new_len.i65.i.i.i, %65
  %data.i.i = getelementptr inbounds nuw i8, ptr %data.i66.i.i.i, i64 %65
; invoke heck::lowercase
  %_19.i6 = invoke noundef zeroext i1 @_RNvCs2f1hMIlW3Va_4heck9lowercase(ptr noalias noundef nonnull readonly align 1 captures(address, read_provenance) %data.i.i, i64 noundef %new_len.i.i, ptr noalias noundef nonnull readonly align 8 dereferenceable(24) %formatter.i)
          to label %_19.i.noexc unwind label %cleanup.loopexit.i.loopexit.loopexit.split-lp

_19.i.noexc:                                      ; preds = %bb26.i
  br i1 %_19.i6, label %_0.i72.i.i.noexc.i, label %_0.i72.i.i.noexc.i.thread

bb25.i:                                           ; preds = %bb9.i.i, %bb6.i.i
; invoke core::str::slice_error_fail
  invoke void @_RNvNtCsjMrxcFdYDNN_4core3str16slice_error_fail(ptr noalias noundef nonnull readonly align 1 captures(address, read_provenance) %data.i66.i.i.i, i64 noundef %new_len.i65.i.i.i, i64 noundef %65, i64 noundef %new_len.i65.i.i.i, ptr noalias noundef readonly align 8 captures(address, read_provenance) dereferenceable(24) @alloc_4e2f5c99210b7b3b4346cc992c5fffc9) #19
          to label %.noexc7 unwind label %cleanup.loopexit.i.loopexit.split-lp

.noexc7:                                          ; preds = %bb25.i
  unreachable

_0.i72.i.i.noexc.i.thread:                        ; preds = %_19.i.noexc, %bb76.i.i.i, %bb23.i
  call void @llvm.lifetime.end.p0(i64 12, ptr nonnull %_33.i)
  br label %bb5.i.i.i.outer.backedge

bb5.i.i.i.outer.backedge:                         ; preds = %_0.i72.i.i.noexc.i.thread, %_0.i51.i.i.noexc.i
  %init.sroa.0.0.i.i.i.ph.be = phi i64 [ %_15.sroa.0.0183.i.i.i, %_0.i51.i.i.noexc.i ], [ %char_indices.sroa.17.1182.i.i.i, %_0.i72.i.i.noexc.i.thread ]
  br label %bb5.i.i.i.outer

_0.i72.i.i.noexc.i:                               ; preds = %.noexc5, %_19.i.noexc
  call void @llvm.lifetime.end.p0(i64 12, ptr nonnull %_33.i)
  br label %bb2.i.i

cleanup.loopexit.i.loopexit.loopexit:             ; preds = %bb88.i.i.i, %bb82.i.i.i, %bb69.i.i.i, %bb63.i.i.i, %bb57.i.i.i
  %lpad.loopexit166 = landingpad { ptr, i32 }
          cleanup
  br label %cleanup.i

cleanup.loopexit.i.loopexit.loopexit.split-lp:    ; preds = %bb26.i, %.noexc, %bb2.i, %bb95.i.i.i
  %lpad.loopexit.split-lp167 = landingpad { ptr, i32 }
          cleanup
  br label %cleanup.i

cleanup.loopexit.i.loopexit.split-lp:             ; preds = %bb25.i
  %lpad.loopexit.split-lp = landingpad { ptr, i32 }
          cleanup
  br label %cleanup.i

cleanup.loopexit.split-lp.loopexit.i:             ; preds = %_RNvXs3_NtNtCsjMrxcFdYDNN_4core3str7patternNCINvCs2f1hMIlW3Va_4heck9transformNvBJ_10capitalizeNCNvXs0_NtBJ_11upper_camelINtB1B_16AsUpperCamelCaseReENtNtB9_3fmt7Display3fmt0E0NtB5_11MultiCharEq7matchesBJ_.exit.i.i.i.i.i.i.i, %bb16.i.i.i.i.i.i.i.i.i.i
  %lpad.loopexit2.i = landingpad { ptr, i32 }
          cleanup
  br label %cleanup.i

cleanup.loopexit.split-lp.loopexit.split-lp.loopexit.i: ; preds = %bb102.i.i.i
  %lpad.loopexit5.i = landingpad { ptr, i32 }
          cleanup
  br label %cleanup.i

cleanup.loopexit.split-lp.loopexit.split-lp.loopexit.split-lp.i: ; preds = %bb2.i.i, %bb101.i.i.invoke.i
  %lpad.loopexit.split-lp.i = landingpad { ptr, i32 }
          cleanup
  br label %cleanup.i

cleanup.i:                                        ; preds = %cleanup.loopexit.i.loopexit.loopexit, %cleanup.loopexit.i.loopexit.loopexit.split-lp, %cleanup.loopexit.i.loopexit.split-lp, %cleanup.loopexit.split-lp.loopexit.split-lp.loopexit.split-lp.i, %cleanup.loopexit.split-lp.loopexit.split-lp.loopexit.i, %cleanup.loopexit.split-lp.loopexit.i
  %lpad.phi.i = phi { ptr, i32 } [ %lpad.loopexit2.i, %cleanup.loopexit.split-lp.loopexit.i ], [ %lpad.loopexit5.i, %cleanup.loopexit.split-lp.loopexit.split-lp.loopexit.i ], [ %lpad.loopexit.split-lp.i, %cleanup.loopexit.split-lp.loopexit.split-lp.loopexit.split-lp.i ], [ %lpad.loopexit.split-lp, %cleanup.loopexit.i.loopexit.split-lp ], [ %lpad.loopexit166, %cleanup.loopexit.i.loopexit.loopexit ], [ %lpad.loopexit.split-lp167, %cleanup.loopexit.i.loopexit.loopexit.split-lp ]
  call void @llvm.experimental.noalias.scope.decl(metadata !236)
  %_1.val.i.i = load i64, ptr %buf.i, align 8, !alias.scope !236, !noalias !167
  %76 = icmp eq i64 %_1.val.i.i, 0
  br i1 %76, label %bb4.i, label %_RNvXs_NtCsdJPVW0sQgAG_5alloc5allocNtB4_6GlobalNtNtCsjMrxcFdYDNN_4core5alloc9Allocator10deallocate.exit.i.i.i4.i.i.i

_RNvXs_NtCsdJPVW0sQgAG_5alloc5allocNtB4_6GlobalNtNtCsjMrxcFdYDNN_4core5alloc9Allocator10deallocate.exit.i.i.i4.i.i.i: ; preds = %cleanup.i
  %_1.val1.i.i = load ptr, ptr %_10.sroa.4.0.buf.sroa_idx.i, align 8, !alias.scope !236, !noalias !167, !nonnull !2, !noundef !2
; call __rustc::__rust_dealloc
  call void @_RNvCsKhRCbHf33p_7___rustc14___rust_dealloc(ptr noundef nonnull %_1.val1.i.i, i64 noundef %_1.val.i.i, i64 noundef range(i64 1, -9223372036854775807) 1) #17, !noalias !239
  br label %bb4.i

bb2.i.i:                                          ; preds = %_0.i.i.i.noexc.i, %_0.i51.i.i.noexc.i, %_0.i72.i.i.noexc.i
  call void @llvm.lifetime.start.p0(i64 0, ptr nonnull %e.i.i), !noalias !167
; invoke core::result::unwrap_failed
  invoke void @_RNvNtCsjMrxcFdYDNN_4core6result13unwrap_failed(ptr noalias noundef nonnull readonly align 1 captures(address, read_provenance) @alloc_cc656815297f75969399c3f4b1ad3de4, i64 noundef 55, ptr noundef nonnull align 1 %e.i.i, ptr noalias noundef readonly align 8 captures(address, read_provenance) dereferenceable(32) @vtable.0, ptr noalias noundef readonly align 8 captures(address, read_provenance) dereferenceable(24) @alloc_f3c70bf9d2724ff8f638341943ddf3c8) #18
          to label %.noexc14.i unwind label %cleanup.loopexit.split-lp.loopexit.split-lp.loopexit.split-lp.i, !noalias !167

.noexc14.i:                                       ; preds = %bb2.i.i
  unreachable

bb4.i:                                            ; preds = %_RNvXs_NtCsdJPVW0sQgAG_5alloc5allocNtB4_6GlobalNtNtCsjMrxcFdYDNN_4core5alloc9Allocator10deallocate.exit.i.i.i4.i.i.i, %cleanup.i
  resume { ptr, i32 } %lpad.phi.i

_RNvXsC_NtCsdJPVW0sQgAG_5alloc6stringINtNtCs2f1hMIlW3Va_4heck11upper_camel16AsUpperCamelCaseReENtB5_12SpecToString14spec_to_stringBD_.exit: ; preds = %bb35.i.i.i
  call void @llvm.memcpy.p0.p0.i64(ptr noundef nonnull align 8 dereferenceable(24) %_0, ptr noundef nonnull align 8 dereferenceable(24) %buf.i, i64 24, i1 false)
  call void @llvm.lifetime.end.p0(i64 24, ptr nonnull %formatter.i), !noalias !167
  call void @llvm.lifetime.end.p0(i64 24, ptr nonnull %buf.i), !noalias !167
  ret void
}

; <str as heck::shouty_kebab::ToShoutyKebabCase>::to_shouty_kebab_case
; Function Attrs: uwtable
define void @_RNvXNtCs2f1hMIlW3Va_4heck12shouty_kebabeNtB2_17ToShoutyKebabCase20to_shouty_kebab_case(ptr dead_on_unwind noalias noundef writable writeonly sret([24 x i8]) align 8 captures(none) dereferenceable(24) %_0, ptr noalias noundef nonnull readonly align 1 captures(address, read_provenance) %self.0, i64 noundef %self.1) unnamed_addr #2 personality ptr @rust_eh_personality {
start:
  %e.i.i = alloca [0 x i8], align 1
  %_29.i.i = alloca [12 x i8], align 4
  %args.i.i = alloca [16 x i8], align 8
  %_10.i.i = alloca [32 x i8], align 8
  %formatter.i = alloca [24 x i8], align 8
  %buf.i = alloca [24 x i8], align 8
  call void @llvm.lifetime.start.p0(i64 24, ptr nonnull %buf.i), !noalias !240
  store i64 0, ptr %buf.i, align 8, !noalias !240
  %_10.sroa.4.0.buf.sroa_idx.i = getelementptr inbounds nuw i8, ptr %buf.i, i64 8
  store ptr inttoptr (i64 1 to ptr), ptr %_10.sroa.4.0.buf.sroa_idx.i, align 8, !noalias !240
  %_10.sroa.5.0.buf.sroa_idx.i = getelementptr inbounds nuw i8, ptr %buf.i, i64 16
  store i64 0, ptr %_10.sroa.5.0.buf.sroa_idx.i, align 8, !noalias !240
  call void @llvm.lifetime.start.p0(i64 24, ptr nonnull %formatter.i), !noalias !240
  %0 = getelementptr inbounds nuw i8, ptr %formatter.i, i64 16
  store i32 1610612768, ptr %0, align 8, !noalias !240
  %options.sroa.4.0..sroa_idx.i = getelementptr inbounds nuw i8, ptr %formatter.i, i64 20
  store i16 0, ptr %options.sroa.4.0..sroa_idx.i, align 4, !noalias !240
  %options.sroa.5.0..sroa_idx.i = getelementptr inbounds nuw i8, ptr %formatter.i, i64 22
  store i16 0, ptr %options.sroa.5.0..sroa_idx.i, align 2, !noalias !240
  store ptr %buf.i, ptr %formatter.i, align 8, !noalias !240
  %1 = getelementptr inbounds nuw i8, ptr %formatter.i, i64 8
  store ptr @vtable.1, ptr %1, align 8, !noalias !240
  %_7.i.i.i.i.i = getelementptr inbounds nuw i8, ptr %self.0, i64 %self.1
  %2 = getelementptr inbounds nuw i8, ptr %_29.i.i, i64 8
  %3 = getelementptr inbounds nuw i8, ptr %_29.i.i, i64 4
  %_28.sroa.4.0._10.sroa_idx.i.i = getelementptr inbounds nuw i8, ptr %_10.i.i, i64 8
  %_28.sroa.5.0._10.sroa_idx.i.i = getelementptr inbounds nuw i8, ptr %_10.i.i, i64 16
  %_12.sroa.4.0..sroa_idx.i.i = getelementptr inbounds nuw i8, ptr %args.i.i, i64 8
  br label %bb2.i.i.i.i

bb2.i.i.i.i:                                      ; preds = %bb35.i.i.i, %start
  %first_word.sroa.0.0.off0153.i.i.i = phi i1 [ true, %start ], [ %first_word.sroa.0.2.off0.i.i.i, %bb35.i.i.i ]
  %iter.sroa.0.0151.i.i.i = phi i64 [ 0, %start ], [ %iter.sroa.0.1.ph.i.i.i, %bb35.i.i.i ]
  %char_indices.sroa.22.0150.i.i.i = phi i64 [ undef, %start ], [ %char_indices.sroa.22.2.i.i.i, %bb35.i.i.i ]
  %iter.sroa.1179.0149.i.i.i = phi ptr [ %self.0, %start ], [ %iter.sroa.1179.6.ph.i.i.i, %bb35.i.i.i ]
  %iter.sroa.17.0148.i.i.i = phi i64 [ 0, %start ], [ %iter.sroa.17.5.ph.i.i.i, %bb35.i.i.i ]
  %_6.i.i.i.i15.i.i.i.i.i.i = icmp eq ptr %iter.sroa.1179.0149.i.i.i, %_7.i.i.i.i.i
  br i1 %_6.i.i.i.i15.i.i.i.i.i.i, label %bb3.i.i.i, label %bb14.i.i.i.i.i.i.i.i.i

bb14.i.i.i.i.i.i.i.i.i:                           ; preds = %bb2.i.i.i.i, %bb5.i.i.i.i.i.i
  %4 = phi i64 [ %iter.sroa.17.2.i.i.i, %bb5.i.i.i.i.i.i ], [ %iter.sroa.17.0148.i.i.i, %bb2.i.i.i.i ]
  %_16.i26.i.i.i1216.i.i.i.i.i.i = phi ptr [ %iter.sroa.1179.3.i.i.i, %bb5.i.i.i.i.i.i ], [ %iter.sroa.1179.0149.i.i.i, %bb2.i.i.i.i ]
  %5 = ptrtoint ptr %_16.i26.i.i.i1216.i.i.i.i.i.i to i64
  %_16.i.i.i.i.i.i.i.i.i.i = getelementptr inbounds nuw i8, ptr %_16.i26.i.i.i1216.i.i.i.i.i.i, i64 1
  %x.i.i.i.i.i.i.i.i.i = load i8, ptr %_16.i26.i.i.i1216.i.i.i.i.i.i, align 1, !alias.scope !243, !noalias !246, !noundef !2
  %_6.i.i.i.i.i.i.i.i.i = icmp sgt i8 %x.i.i.i.i.i.i.i.i.i, -1
  br i1 %_6.i.i.i.i.i.i.i.i.i, label %bb3.thread.i.i.i.i.i.i.i, label %bb4.i.i.i.i.i.i.i.i.i

bb4.i.i.i.i.i.i.i.i.i:                            ; preds = %bb14.i.i.i.i.i.i.i.i.i
  %_30.i.i.i.i.i.i.i.i.i = and i8 %x.i.i.i.i.i.i.i.i.i, 31
  %init.i.i.i.i.i.i.i.i.i = zext nneg i8 %_30.i.i.i.i.i.i.i.i.i to i32
  %_6.i10.i.i.i.i.i.i.i.i.i = icmp ne ptr %_16.i.i.i.i.i.i.i.i.i.i, %_7.i.i.i.i.i
  call void @llvm.assume(i1 %_6.i10.i.i.i.i.i.i.i.i.i)
  %_16.i12.i.i.i.i.i.i.i.i.i = getelementptr inbounds nuw i8, ptr %_16.i26.i.i.i1216.i.i.i.i.i.i, i64 2
  %y.i.i.i.i.i.i.i.i.i = load i8, ptr %_16.i.i.i.i.i.i.i.i.i.i, align 1, !alias.scope !243, !noalias !246, !noundef !2
  %_33.i.i.i.i.i.i.i.i.i = shl nuw nsw i32 %init.i.i.i.i.i.i.i.i.i, 6
  %_35.i.i.i.i.i.i.i.i.i = and i8 %y.i.i.i.i.i.i.i.i.i, 63
  %_34.i.i.i.i.i.i.i.i.i = zext nneg i8 %_35.i.i.i.i.i.i.i.i.i to i32
  %6 = or disjoint i32 %_33.i.i.i.i.i.i.i.i.i, %_34.i.i.i.i.i.i.i.i.i
  %_13.i.i.i.i.i.i.i.i.i = icmp samesign ugt i8 %x.i.i.i.i.i.i.i.i.i, -33
  br i1 %_13.i.i.i.i.i.i.i.i.i, label %bb6.i.i.i.i.i.i.i.i.i, label %bb3.i.i.i.i.i.i.i

bb3.thread.i.i.i.i.i.i.i:                         ; preds = %bb14.i.i.i.i.i.i.i.i.i
  %_7.i.i.i.i.i.i.i.i.i = zext nneg i8 %x.i.i.i.i.i.i.i.i.i to i32
  %7 = add i64 %4, 1
  br label %bb1.i.i.i.i.i.i.i.i.i.i

bb6.i.i.i.i.i.i.i.i.i:                            ; preds = %bb4.i.i.i.i.i.i.i.i.i
  %_6.i17.i.i.i.i.i.i.i.i.i = icmp ne ptr %_16.i12.i.i.i.i.i.i.i.i.i, %_7.i.i.i.i.i
  call void @llvm.assume(i1 %_6.i17.i.i.i.i.i.i.i.i.i)
  %_16.i19.i.i.i.i.i.i.i.i.i = getelementptr inbounds nuw i8, ptr %_16.i26.i.i.i1216.i.i.i.i.i.i, i64 3
  %z.i.i.i.i.i.i.i.i.i = load i8, ptr %_16.i12.i.i.i.i.i.i.i.i.i, align 1, !alias.scope !243, !noalias !246, !noundef !2
  %_38.i.i.i.i.i.i.i.i.i = shl nuw nsw i32 %_34.i.i.i.i.i.i.i.i.i, 6
  %_40.i.i.i.i.i.i.i.i.i = and i8 %z.i.i.i.i.i.i.i.i.i, 63
  %_39.i.i.i.i.i.i.i.i.i = zext nneg i8 %_40.i.i.i.i.i.i.i.i.i to i32
  %y_z.i.i.i.i.i.i.i.i.i = or disjoint i32 %_38.i.i.i.i.i.i.i.i.i, %_39.i.i.i.i.i.i.i.i.i
  %_20.i.i.i.i.i.i.i.i.i = shl nuw nsw i32 %init.i.i.i.i.i.i.i.i.i, 12
  %8 = or disjoint i32 %y_z.i.i.i.i.i.i.i.i.i, %_20.i.i.i.i.i.i.i.i.i
  %_21.i.i.i.i.i.i.i.i.i = icmp samesign ugt i8 %x.i.i.i.i.i.i.i.i.i, -17
  br i1 %_21.i.i.i.i.i.i.i.i.i, label %bb8.i.i.i.i.i.i.i.i.i, label %bb3.i.i.i.i.i.i.i

bb8.i.i.i.i.i.i.i.i.i:                            ; preds = %bb6.i.i.i.i.i.i.i.i.i
  %_6.i24.i.i.i.i.i.i.i.i.i = icmp ne ptr %_16.i19.i.i.i.i.i.i.i.i.i, %_7.i.i.i.i.i
  call void @llvm.assume(i1 %_6.i24.i.i.i.i.i.i.i.i.i)
  %_16.i26.i.i.i.i.i.i.i.i.i = getelementptr inbounds nuw i8, ptr %_16.i26.i.i.i1216.i.i.i.i.i.i, i64 4
  %w.i.i.i.i.i.i.i.i.i = load i8, ptr %_16.i19.i.i.i.i.i.i.i.i.i, align 1, !alias.scope !243, !noalias !246, !noundef !2
  %_26.i.i.i.i.i.i.i.i.i = shl nuw nsw i32 %init.i.i.i.i.i.i.i.i.i, 18
  %_25.i.i.i.i.i.i.i.i.i = and i32 %_26.i.i.i.i.i.i.i.i.i, 1835008
  %_43.i.i.i.i.i.i.i.i.i = shl nuw nsw i32 %y_z.i.i.i.i.i.i.i.i.i, 6
  %_45.i.i.i.i.i.i.i.i.i = and i8 %w.i.i.i.i.i.i.i.i.i, 63
  %_44.i.i.i.i.i.i.i.i.i = zext nneg i8 %_45.i.i.i.i.i.i.i.i.i to i32
  %_27.i.i.i.i.i.i.i.i.i = or disjoint i32 %_43.i.i.i.i.i.i.i.i.i, %_44.i.i.i.i.i.i.i.i.i
  %9 = or disjoint i32 %_27.i.i.i.i.i.i.i.i.i, %_25.i.i.i.i.i.i.i.i.i
  br label %bb3.i.i.i.i.i.i.i

bb3.i.i.i.i.i.i.i:                                ; preds = %bb8.i.i.i.i.i.i.i.i.i, %bb6.i.i.i.i.i.i.i.i.i, %bb4.i.i.i.i.i.i.i.i.i
  %iter.sroa.1179.1.i.i.i = phi ptr [ %_16.i26.i.i.i.i.i.i.i.i.i, %bb8.i.i.i.i.i.i.i.i.i ], [ %_16.i19.i.i.i.i.i.i.i.i.i, %bb6.i.i.i.i.i.i.i.i.i ], [ %_16.i12.i.i.i.i.i.i.i.i.i, %bb4.i.i.i.i.i.i.i.i.i ]
  %_0.sroa.4.0.i.ph.i.i.i.i.i.i.i.i = phi i32 [ %9, %bb8.i.i.i.i.i.i.i.i.i ], [ %8, %bb6.i.i.i.i.i.i.i.i.i ], [ %6, %bb4.i.i.i.i.i.i.i.i.i ]
  %10 = icmp samesign ult i32 %_0.sroa.4.0.i.ph.i.i.i.i.i.i.i.i, 1114112
  call void @llvm.assume(i1 %10)
  %11 = ptrtoint ptr %iter.sroa.1179.1.i.i.i to i64
  %_10.i.i.i.i.i.i.i.i = sub i64 %11, %5
  %12 = add i64 %_10.i.i.i.i.i.i.i.i, %4
  %_2.i.i.i.i.i.i.i.i.i.i = icmp samesign ult i32 %_0.sroa.4.0.i.ph.i.i.i.i.i.i.i.i, 128
  br i1 %_2.i.i.i.i.i.i.i.i.i.i, label %bb1.i.i.i.i.i.i.i.i.i.i, label %bb2.i.i.i.i.i.i.i.i.i.i

bb2.i.i.i.i.i.i.i.i.i.i:                          ; preds = %bb3.i.i.i.i.i.i.i
  %_15.i.i.i.i.i.i.i.i.i.i = icmp samesign ugt i32 %_0.sroa.4.0.i.ph.i.i.i.i.i.i.i.i, 169
  br i1 %_15.i.i.i.i.i.i.i.i.i.i, label %bb16.i.i.i.i.i.i.i.i.i.i, label %bb3.i.i.i

bb1.i.i.i.i.i.i.i.i.i.i:                          ; preds = %bb3.i.i.i.i.i.i.i, %bb3.thread.i.i.i.i.i.i.i
  %iter.sroa.17.4.i.i.i = phi i64 [ %7, %bb3.thread.i.i.i.i.i.i.i ], [ %12, %bb3.i.i.i.i.i.i.i ]
  %_16.i26.i.i.i14.i.i.i.i.i.i = phi ptr [ %_16.i.i.i.i.i.i.i.i.i.i, %bb3.thread.i.i.i.i.i.i.i ], [ %iter.sroa.1179.1.i.i.i, %bb3.i.i.i.i.i.i.i ]
  %_0.sroa.4.0.i.ph.i19.i.i.i.i.i.i.i = phi i32 [ %_7.i.i.i.i.i.i.i.i.i, %bb3.thread.i.i.i.i.i.i.i ], [ %_0.sroa.4.0.i.ph.i.i.i.i.i.i.i.i, %bb3.i.i.i.i.i.i.i ]
  %13 = add nsw i32 %_0.sroa.4.0.i.ph.i19.i.i.i.i.i.i.i, -48
  %_9.sroa.0.0.off0.i.i.i.i.i.i.i.i.i.i = icmp ult i32 %13, 10
  %14 = and i32 %_0.sroa.4.0.i.ph.i19.i.i.i.i.i.i.i, 95
  %15 = add nsw i32 %14, -65
  %16 = icmp ult i32 %15, 26
  %17 = or i1 %_9.sroa.0.0.off0.i.i.i.i.i.i.i.i.i.i, %16
  br i1 %17, label %bb5.i.i.i.i.i.i, label %bb3.i.i.i

bb16.i.i.i.i.i.i.i.i.i.i:                         ; preds = %bb2.i.i.i.i.i.i.i.i.i.i
; invoke core::unicode::unicode_data::alphabetic::lookup_slow
  %_5.i.i.i.i.i.i.i.i.i2.i = invoke noundef zeroext i1 @_RNvNtNtNtCsjMrxcFdYDNN_4core7unicode12unicode_data10alphabetic11lookup_slow(i32 noundef range(i32 0, 1114112) %_0.sroa.4.0.i.ph.i.i.i.i.i.i.i.i) #21
          to label %_5.i.i.i.i.i.i.i.i.i.noexc.i unwind label %cleanup.loopexit.split-lp.loopexit.i, !noalias !240

_5.i.i.i.i.i.i.i.i.i.noexc.i:                     ; preds = %bb16.i.i.i.i.i.i.i.i.i.i
  br i1 %_5.i.i.i.i.i.i.i.i.i2.i, label %bb5.i.i.i.i.i.i, label %bb4.i.i.i.i.i.i.i.i.i.i

bb4.i.i.i.i.i.i.i.i.i.i:                          ; preds = %_5.i.i.i.i.i.i.i.i.i.noexc.i
  %_17.i.i.i.i.i.i.i.i.i.i = icmp samesign ugt i32 %_0.sroa.4.0.i.ph.i.i.i.i.i.i.i.i, 177
  br i1 %_17.i.i.i.i.i.i.i.i.i.i, label %_RNvXs3_NtNtCsjMrxcFdYDNN_4core3str7patternNCINvCs2f1hMIlW3Va_4heck9transformNvBJ_9uppercaseNCNvXs_NtBJ_12shouty_kebabINtB1y_17AsShoutyKebabCaseReENtNtB9_3fmt7Display3fmt0E0NtB5_11MultiCharEq7matchesBJ_.exit.i.i.i.i.i.i.i, label %bb3.i.i.i

_RNvXs3_NtNtCsjMrxcFdYDNN_4core3str7patternNCINvCs2f1hMIlW3Va_4heck9transformNvBJ_9uppercaseNCNvXs_NtBJ_12shouty_kebabINtB1y_17AsShoutyKebabCaseReENtNtB9_3fmt7Display3fmt0E0NtB5_11MultiCharEq7matchesBJ_.exit.i.i.i.i.i.i.i: ; preds = %bb4.i.i.i.i.i.i.i.i.i.i
; invoke core::unicode::unicode_data::n::lookup_slow
  %18 = invoke noundef zeroext i1 @_RNvNtNtNtCsjMrxcFdYDNN_4core7unicode12unicode_data1n11lookup_slow(i32 noundef range(i32 0, 1114112) %_0.sroa.4.0.i.ph.i.i.i.i.i.i.i.i) #21
          to label %.noexc.i unwind label %cleanup.loopexit.split-lp.loopexit.i, !noalias !240

.noexc.i:                                         ; preds = %_RNvXs3_NtNtCsjMrxcFdYDNN_4core3str7patternNCINvCs2f1hMIlW3Va_4heck9transformNvBJ_9uppercaseNCNvXs_NtBJ_12shouty_kebabINtB1y_17AsShoutyKebabCaseReENtNtB9_3fmt7Display3fmt0E0NtB5_11MultiCharEq7matchesBJ_.exit.i.i.i.i.i.i.i
  br i1 %18, label %bb5.i.i.i.i.i.i, label %bb3.i.i.i

bb5.i.i.i.i.i.i:                                  ; preds = %.noexc.i, %_5.i.i.i.i.i.i.i.i.i.noexc.i, %bb1.i.i.i.i.i.i.i.i.i.i
  %iter.sroa.17.2.i.i.i = phi i64 [ %iter.sroa.17.4.i.i.i, %bb1.i.i.i.i.i.i.i.i.i.i ], [ %12, %_5.i.i.i.i.i.i.i.i.i.noexc.i ], [ %12, %.noexc.i ]
  %iter.sroa.1179.3.i.i.i = phi ptr [ %_16.i26.i.i.i14.i.i.i.i.i.i, %bb1.i.i.i.i.i.i.i.i.i.i ], [ %iter.sroa.1179.1.i.i.i, %_5.i.i.i.i.i.i.i.i.i.noexc.i ], [ %iter.sroa.1179.1.i.i.i, %.noexc.i ]
  %_6.i.i.i.i.i.i.i.i.i.i = icmp eq ptr %iter.sroa.1179.3.i.i.i, %_7.i.i.i.i.i
  br i1 %_6.i.i.i.i.i.i.i.i.i.i, label %bb3.i.i.i, label %bb14.i.i.i.i.i.i.i.i.i

bb3.i.i.i:                                        ; preds = %bb5.i.i.i.i.i.i, %.noexc.i, %bb4.i.i.i.i.i.i.i.i.i.i, %bb1.i.i.i.i.i.i.i.i.i.i, %bb2.i.i.i.i.i.i.i.i.i.i, %bb2.i.i.i.i
  %iter.sroa.22.1.ph.off0.i.i.i = phi i1 [ true, %bb2.i.i.i.i ], [ true, %bb5.i.i.i.i.i.i ], [ false, %bb2.i.i.i.i.i.i.i.i.i.i ], [ false, %bb1.i.i.i.i.i.i.i.i.i.i ], [ false, %bb4.i.i.i.i.i.i.i.i.i.i ], [ false, %.noexc.i ]
  %iter.sroa.17.5.ph.i.i.i = phi i64 [ %iter.sroa.17.0148.i.i.i, %bb2.i.i.i.i ], [ %iter.sroa.17.2.i.i.i, %bb5.i.i.i.i.i.i ], [ %12, %bb2.i.i.i.i.i.i.i.i.i.i ], [ %iter.sroa.17.4.i.i.i, %bb1.i.i.i.i.i.i.i.i.i.i ], [ %12, %bb4.i.i.i.i.i.i.i.i.i.i ], [ %12, %.noexc.i ]
  %iter.sroa.1179.6.ph.i.i.i = phi ptr [ %iter.sroa.1179.0149.i.i.i, %bb2.i.i.i.i ], [ %iter.sroa.1179.3.i.i.i, %bb5.i.i.i.i.i.i ], [ %iter.sroa.1179.1.i.i.i, %bb2.i.i.i.i.i.i.i.i.i.i ], [ %_16.i26.i.i.i14.i.i.i.i.i.i, %bb1.i.i.i.i.i.i.i.i.i.i ], [ %iter.sroa.1179.1.i.i.i, %bb4.i.i.i.i.i.i.i.i.i.i ], [ %iter.sroa.1179.1.i.i.i, %.noexc.i ]
  %iter.sroa.0.1.ph.i.i.i = phi i64 [ %iter.sroa.0.0151.i.i.i, %bb2.i.i.i.i ], [ %iter.sroa.0.0151.i.i.i, %bb5.i.i.i.i.i.i ], [ %12, %bb2.i.i.i.i.i.i.i.i.i.i ], [ %iter.sroa.17.4.i.i.i, %bb1.i.i.i.i.i.i.i.i.i.i ], [ %12, %bb4.i.i.i.i.i.i.i.i.i.i ], [ %12, %.noexc.i ]
  %s.1.pn.i.i.i = phi i64 [ %self.1, %bb2.i.i.i.i ], [ %self.1, %bb5.i.i.i.i.i.i ], [ %4, %bb2.i.i.i.i.i.i.i.i.i.i ], [ %4, %bb1.i.i.i.i.i.i.i.i.i.i ], [ %4, %bb4.i.i.i.i.i.i.i.i.i.i ], [ %4, %.noexc.i ]
  %_0.sroa.0.1.i.ph.i.i.i = getelementptr inbounds nuw i8, ptr %self.0, i64 %iter.sroa.0.0151.i.i.i
  %_0.sroa.4.1.i.ph.i.i.i = sub nuw i64 %s.1.pn.i.i.i, %iter.sroa.0.0151.i.i.i
  %_69.i.i.i = getelementptr inbounds nuw i8, ptr %self.0, i64 %s.1.pn.i.i.i
  br label %bb5.i.i.i

bb5.i.i.i:                                        ; preds = %bb5.i.i.i.backedge, %bb3.i.i.i
  %char_indices.sroa.0.0.i.i.i = phi ptr [ %_0.sroa.0.1.i.ph.i.i.i, %bb3.i.i.i ], [ %char_indices.sroa.0.4.i.i.i, %bb5.i.i.i.backedge ]
  %char_indices.sroa.17.0.i.i.i = phi i64 [ 0, %bb3.i.i.i ], [ %30, %bb5.i.i.i.backedge ]
  %char_indices.sroa.22.1.i.i.i = phi i64 [ %char_indices.sroa.22.0150.i.i.i, %bb3.i.i.i ], [ %char_indices.sroa.17.1196.i.i.i, %bb5.i.i.i.backedge ]
  %char_indices.sroa.25.0.i.i.i = phi i32 [ 1114113, %bb3.i.i.i ], [ %_0.sroa.4.0.i.ph.i.i.i.i.i.i, %bb5.i.i.i.backedge ]
  %init.sroa.0.0.i.i.i = phi i64 [ 0, %bb3.i.i.i ], [ %init.sroa.0.0.i.i.i.be, %bb5.i.i.i.backedge ]
  %mode.sroa.0.0.i.i.i = phi i8 [ 0, %bb3.i.i.i ], [ %mode.sroa.0.0.i.i.i.be, %bb5.i.i.i.backedge ]
  %first_word.sroa.0.1.off0.i.i.i = phi i1 [ %first_word.sroa.0.0.off0153.i.i.i, %bb3.i.i.i ], [ %first_word.sroa.0.1.off0.i.i.i.be, %bb5.i.i.i.backedge ]
  %cond.i.i = icmp eq i32 %char_indices.sroa.25.0.i.i.i, 1114113
  %19 = ptrtoint ptr %char_indices.sroa.0.0.i.i.i to i64
  br i1 %cond.i.i, label %bb47.i.i.i, label %bb1.i.i.i.i

bb47.i.i.i:                                       ; preds = %bb5.i.i.i
  %_6.i.i.i.i.i.i = icmp eq ptr %char_indices.sroa.0.0.i.i.i, %_69.i.i.i
  br i1 %_6.i.i.i.i.i.i, label %bb35.i.i.i, label %bb14.i.i.i.i.i

bb14.i.i.i.i.i:                                   ; preds = %bb47.i.i.i
  %_16.i.i.i.i.i.i = getelementptr inbounds nuw i8, ptr %char_indices.sroa.0.0.i.i.i, i64 1
  %x.i.i.i.i.i = load i8, ptr %char_indices.sroa.0.0.i.i.i, align 1, !alias.scope !243, !noalias !265, !noundef !2
  %_6.i.i.i.i.i = icmp sgt i8 %x.i.i.i.i.i, -1
  br i1 %_6.i.i.i.i.i, label %bb3.i.i.i.i.i, label %bb4.i.i.i.i.i

bb4.i.i.i.i.i:                                    ; preds = %bb14.i.i.i.i.i
  %_30.i.i.i.i.i = and i8 %x.i.i.i.i.i, 31
  %init.i.i.i.i.i = zext nneg i8 %_30.i.i.i.i.i to i32
  %_6.i10.i.i.i.i.i = icmp ne ptr %_16.i.i.i.i.i.i, %_69.i.i.i
  call void @llvm.assume(i1 %_6.i10.i.i.i.i.i)
  %_16.i12.i.i.i.i.i = getelementptr inbounds nuw i8, ptr %char_indices.sroa.0.0.i.i.i, i64 2
  %y.i.i.i.i.i = load i8, ptr %_16.i.i.i.i.i.i, align 1, !alias.scope !243, !noalias !265, !noundef !2
  %_33.i.i.i.i.i = shl nuw nsw i32 %init.i.i.i.i.i, 6
  %_35.i.i.i.i.i = and i8 %y.i.i.i.i.i, 63
  %_34.i.i.i.i.i = zext nneg i8 %_35.i.i.i.i.i to i32
  %20 = or disjoint i32 %_33.i.i.i.i.i, %_34.i.i.i.i.i
  %_13.i.i.i.i.i = icmp samesign ugt i8 %x.i.i.i.i.i, -33
  br i1 %_13.i.i.i.i.i, label %bb6.i.i.i.i.i, label %bb50.thread189.i.i.i

bb3.i.i.i.i.i:                                    ; preds = %bb14.i.i.i.i.i
  %_7.i.i42.i.i.i = zext nneg i8 %x.i.i.i.i.i to i32
  br label %bb50.thread189.i.i.i

bb6.i.i.i.i.i:                                    ; preds = %bb4.i.i.i.i.i
  %_6.i17.i.i.i.i.i = icmp ne ptr %_16.i12.i.i.i.i.i, %_69.i.i.i
  call void @llvm.assume(i1 %_6.i17.i.i.i.i.i)
  %_16.i19.i.i.i.i.i = getelementptr inbounds nuw i8, ptr %char_indices.sroa.0.0.i.i.i, i64 3
  %z.i.i.i.i.i = load i8, ptr %_16.i12.i.i.i.i.i, align 1, !alias.scope !243, !noalias !265, !noundef !2
  %_38.i.i.i.i.i = shl nuw nsw i32 %_34.i.i.i.i.i, 6
  %_40.i.i.i.i.i = and i8 %z.i.i.i.i.i, 63
  %_39.i.i.i.i.i = zext nneg i8 %_40.i.i.i.i.i to i32
  %y_z.i.i.i.i.i = or disjoint i32 %_38.i.i.i.i.i, %_39.i.i.i.i.i
  %_20.i.i.i.i.i = shl nuw nsw i32 %init.i.i.i.i.i, 12
  %21 = or disjoint i32 %y_z.i.i.i.i.i, %_20.i.i.i.i.i
  %_21.i.i.i.i.i = icmp samesign ugt i8 %x.i.i.i.i.i, -17
  br i1 %_21.i.i.i.i.i, label %bb8.i.i.i.i.i, label %bb50.thread189.i.i.i

bb8.i.i.i.i.i:                                    ; preds = %bb6.i.i.i.i.i
  %_6.i24.i.i.i.i.i = icmp ne ptr %_16.i19.i.i.i.i.i, %_69.i.i.i
  call void @llvm.assume(i1 %_6.i24.i.i.i.i.i)
  %_16.i26.i.i.i.i.i = getelementptr inbounds nuw i8, ptr %char_indices.sroa.0.0.i.i.i, i64 4
  %w.i.i.i.i.i = load i8, ptr %_16.i19.i.i.i.i.i, align 1, !alias.scope !243, !noalias !265, !noundef !2
  %_26.i.i.i.i.i = shl nuw nsw i32 %init.i.i.i.i.i, 18
  %_25.i.i.i.i.i = and i32 %_26.i.i.i.i.i, 1835008
  %_43.i.i.i.i.i = shl nuw nsw i32 %y_z.i.i.i.i.i, 6
  %_45.i.i.i.i.i = and i8 %w.i.i.i.i.i, 63
  %_44.i.i.i.i.i = zext nneg i8 %_45.i.i.i.i.i to i32
  %_27.i.i.i.i.i = or disjoint i32 %_43.i.i.i.i.i, %_44.i.i.i.i.i
  %22 = or disjoint i32 %_27.i.i.i.i.i, %_25.i.i.i.i.i
  br label %bb50.thread189.i.i.i

bb50.thread189.i.i.i:                             ; preds = %bb8.i.i.i.i.i, %bb6.i.i.i.i.i, %bb3.i.i.i.i.i, %bb4.i.i.i.i.i
  %char_indices.sroa.0.2.i.i.i = phi ptr [ %_16.i.i.i.i.i.i, %bb3.i.i.i.i.i ], [ %_16.i26.i.i.i.i.i, %bb8.i.i.i.i.i ], [ %_16.i19.i.i.i.i.i, %bb6.i.i.i.i.i ], [ %_16.i12.i.i.i.i.i, %bb4.i.i.i.i.i ]
  %_0.sroa.4.0.i.ph.i.i.i.i = phi i32 [ %_7.i.i42.i.i.i, %bb3.i.i.i.i.i ], [ %22, %bb8.i.i.i.i.i ], [ %21, %bb6.i.i.i.i.i ], [ %20, %bb4.i.i.i.i.i ]
  %23 = ptrtoint ptr %char_indices.sroa.0.2.i.i.i to i64
  %_10.i.i.i.i = sub i64 %char_indices.sroa.17.0.i.i.i, %19
  %24 = add i64 %_10.i.i.i.i, %23
  br label %bb1.i.i.i.i

bb1.i.i.i.i:                                      ; preds = %bb50.thread189.i.i.i, %bb5.i.i.i
  %.pre-phi.i.i = phi i64 [ %23, %bb50.thread189.i.i.i ], [ %19, %bb5.i.i.i ]
  %_15.sroa.8.0198.i.i.i = phi i32 [ %_0.sroa.4.0.i.ph.i.i.i.i, %bb50.thread189.i.i.i ], [ %char_indices.sroa.25.0.i.i.i, %bb5.i.i.i ]
  %_15.sroa.0.0197.i.i.i = phi i64 [ %char_indices.sroa.17.0.i.i.i, %bb50.thread189.i.i.i ], [ %char_indices.sroa.22.1.i.i.i, %bb5.i.i.i ]
  %char_indices.sroa.17.1196.i.i.i = phi i64 [ %24, %bb50.thread189.i.i.i ], [ %char_indices.sroa.17.0.i.i.i, %bb5.i.i.i ]
  %char_indices.sroa.0.1195.i.i.i = phi ptr [ %char_indices.sroa.0.2.i.i.i, %bb50.thread189.i.i.i ], [ %char_indices.sroa.0.0.i.i.i, %bb5.i.i.i ]
  %_6.i.i.i.i.i.i.i.i = icmp eq ptr %char_indices.sroa.0.1195.i.i.i, %_69.i.i.i
  br i1 %_6.i.i.i.i.i.i.i.i, label %bb52.i.i.i, label %bb14.i.i.i.i.i.i.i

bb14.i.i.i.i.i.i.i:                               ; preds = %bb1.i.i.i.i
  %_16.i.i.i.i.i.i.i.i = getelementptr inbounds nuw i8, ptr %char_indices.sroa.0.1195.i.i.i, i64 1
  %x.i.i.i.i.i.i.i = load i8, ptr %char_indices.sroa.0.1195.i.i.i, align 1, !alias.scope !243, !noalias !270, !noundef !2
  %_6.i.i.i.i.i.i.i = icmp sgt i8 %x.i.i.i.i.i.i.i, -1
  br i1 %_6.i.i.i.i.i.i.i, label %bb3.i.i.i.i43.i.i.i, label %bb4.i.i.i.i.i.i.i

bb4.i.i.i.i.i.i.i:                                ; preds = %bb14.i.i.i.i.i.i.i
  %_30.i.i.i.i.i.i.i = and i8 %x.i.i.i.i.i.i.i, 31
  %init.i.i.i.i.i.i.i = zext nneg i8 %_30.i.i.i.i.i.i.i to i32
  %_6.i10.i.i.i.i.i.i.i = icmp ne ptr %_16.i.i.i.i.i.i.i.i, %_69.i.i.i
  call void @llvm.assume(i1 %_6.i10.i.i.i.i.i.i.i)
  %_16.i12.i.i.i.i.i.i.i = getelementptr inbounds nuw i8, ptr %char_indices.sroa.0.1195.i.i.i, i64 2
  %y.i.i.i.i.i.i.i = load i8, ptr %_16.i.i.i.i.i.i.i.i, align 1, !alias.scope !243, !noalias !270, !noundef !2
  %_33.i.i.i.i.i.i.i = shl nuw nsw i32 %init.i.i.i.i.i.i.i, 6
  %_35.i.i.i.i.i.i.i = and i8 %y.i.i.i.i.i.i.i, 63
  %_34.i.i.i.i.i.i.i = zext nneg i8 %_35.i.i.i.i.i.i.i to i32
  %25 = or disjoint i32 %_33.i.i.i.i.i.i.i, %_34.i.i.i.i.i.i.i
  %_13.i.i.i.i.i.i.i = icmp samesign ugt i8 %x.i.i.i.i.i.i.i, -33
  br i1 %_13.i.i.i.i.i.i.i, label %bb6.i.i.i.i.i.i.i, label %bb53.i.i.i

bb3.i.i.i.i43.i.i.i:                              ; preds = %bb14.i.i.i.i.i.i.i
  %_7.i.i.i.i.i.i.i = zext nneg i8 %x.i.i.i.i.i.i.i to i32
  br label %bb53.i.i.i

bb6.i.i.i.i.i.i.i:                                ; preds = %bb4.i.i.i.i.i.i.i
  %_6.i17.i.i.i.i.i.i.i = icmp ne ptr %_16.i12.i.i.i.i.i.i.i, %_69.i.i.i
  call void @llvm.assume(i1 %_6.i17.i.i.i.i.i.i.i)
  %_16.i19.i.i.i.i.i.i.i = getelementptr inbounds nuw i8, ptr %char_indices.sroa.0.1195.i.i.i, i64 3
  %z.i.i.i.i.i.i.i = load i8, ptr %_16.i12.i.i.i.i.i.i.i, align 1, !alias.scope !243, !noalias !270, !noundef !2
  %_38.i.i.i.i.i.i.i = shl nuw nsw i32 %_34.i.i.i.i.i.i.i, 6
  %_40.i.i.i.i.i.i.i = and i8 %z.i.i.i.i.i.i.i, 63
  %_39.i.i.i.i.i.i.i = zext nneg i8 %_40.i.i.i.i.i.i.i to i32
  %y_z.i.i.i.i.i.i.i = or disjoint i32 %_38.i.i.i.i.i.i.i, %_39.i.i.i.i.i.i.i
  %_20.i.i.i.i.i.i.i = shl nuw nsw i32 %init.i.i.i.i.i.i.i, 12
  %26 = or disjoint i32 %y_z.i.i.i.i.i.i.i, %_20.i.i.i.i.i.i.i
  %_21.i.i.i.i.i.i.i = icmp samesign ugt i8 %x.i.i.i.i.i.i.i, -17
  br i1 %_21.i.i.i.i.i.i.i, label %bb8.i.i.i.i.i.i.i, label %bb53.i.i.i

bb8.i.i.i.i.i.i.i:                                ; preds = %bb6.i.i.i.i.i.i.i
  %_6.i24.i.i.i.i.i.i.i = icmp ne ptr %_16.i19.i.i.i.i.i.i.i, %_69.i.i.i
  call void @llvm.assume(i1 %_6.i24.i.i.i.i.i.i.i)
  %_16.i26.i.i.i.i.i.i.i = getelementptr inbounds nuw i8, ptr %char_indices.sroa.0.1195.i.i.i, i64 4
  %w.i.i.i.i.i.i.i = load i8, ptr %_16.i19.i.i.i.i.i.i.i, align 1, !alias.scope !243, !noalias !270, !noundef !2
  %_26.i.i.i.i.i.i.i = shl nuw nsw i32 %init.i.i.i.i.i.i.i, 18
  %_25.i.i.i.i.i.i.i = and i32 %_26.i.i.i.i.i.i.i, 1835008
  %_43.i.i.i.i.i.i.i = shl nuw nsw i32 %y_z.i.i.i.i.i.i.i, 6
  %_45.i.i.i.i.i.i.i = and i8 %w.i.i.i.i.i.i.i, 63
  %_44.i.i.i.i.i.i.i = zext nneg i8 %_45.i.i.i.i.i.i.i to i32
  %_27.i.i.i.i.i.i.i = or disjoint i32 %_43.i.i.i.i.i.i.i, %_44.i.i.i.i.i.i.i
  %27 = or disjoint i32 %_27.i.i.i.i.i.i.i, %_25.i.i.i.i.i.i.i
  br label %bb53.i.i.i

bb35.i.i.i:                                       ; preds = %bb47.i.i.i, %_0.i.i.i.noexc.i
  %char_indices.sroa.22.2.i.i.i = phi i64 [ undef, %_0.i.i.i.noexc.i ], [ %char_indices.sroa.22.1.i.i.i, %bb47.i.i.i ]
  %first_word.sroa.0.2.off0.i.i.i = phi i1 [ false, %_0.i.i.i.noexc.i ], [ %first_word.sroa.0.1.off0.i.i.i, %bb47.i.i.i ]
  br i1 %iter.sroa.22.1.ph.off0.i.i.i, label %_RNvXsC_NtCsdJPVW0sQgAG_5alloc6stringINtNtCs2f1hMIlW3Va_4heck12shouty_kebab17AsShoutyKebabCaseReENtB5_12SpecToString14spec_to_stringBD_.exit, label %bb2.i.i.i.i

bb53.i.i.i:                                       ; preds = %bb8.i.i.i.i.i.i.i, %bb6.i.i.i.i.i.i.i, %bb3.i.i.i.i43.i.i.i, %bb4.i.i.i.i.i.i.i
  %char_indices.sroa.0.4.i.i.i = phi ptr [ %_16.i.i.i.i.i.i.i.i, %bb3.i.i.i.i43.i.i.i ], [ %_16.i26.i.i.i.i.i.i.i, %bb8.i.i.i.i.i.i.i ], [ %_16.i19.i.i.i.i.i.i.i, %bb6.i.i.i.i.i.i.i ], [ %_16.i12.i.i.i.i.i.i.i, %bb4.i.i.i.i.i.i.i ]
  %_0.sroa.4.0.i.ph.i.i.i.i.i.i = phi i32 [ %_7.i.i.i.i.i.i.i, %bb3.i.i.i.i43.i.i.i ], [ %27, %bb8.i.i.i.i.i.i.i ], [ %26, %bb6.i.i.i.i.i.i.i ], [ %25, %bb4.i.i.i.i.i.i.i ]
  %28 = icmp samesign ult i32 %_0.sroa.4.0.i.ph.i.i.i.i.i.i, 1114112
  call void @llvm.assume(i1 %28)
  %29 = ptrtoint ptr %char_indices.sroa.0.4.i.i.i to i64
  %_10.i.i.i.i.i.i = sub i64 %char_indices.sroa.17.1196.i.i.i, %.pre-phi.i.i
  %30 = add i64 %_10.i.i.i.i.i.i, %29
  %31 = add nsw i32 %_15.sroa.8.0198.i.i.i, -97
  %or.cond.i.i.i = icmp ult i32 %31, 26
  br i1 %or.cond.i.i.i, label %bb11.i.i.i, label %bb54.i.i.i

bb52.i.i.i:                                       ; preds = %bb1.i.i.i.i
  br i1 %first_word.sroa.0.1.off0.i.i.i, label %bb33.i.i.i, label %bb30.i.i.i

bb30.i.i.i:                                       ; preds = %bb52.i.i.i
  call void @llvm.experimental.noalias.scope.decl(metadata !280)
  call void @llvm.experimental.noalias.scope.decl(metadata !283)
  call void @llvm.experimental.noalias.scope.decl(metadata !286)
  %len.i.i.i.i.i = load i64, ptr %_10.sroa.5.0.buf.sroa_idx.i, align 8, !alias.scope !289, !noalias !292, !noundef !2
  %self2.i.i.i.i.i = load i64, ptr %buf.i, align 8, !range !6, !alias.scope !289, !noalias !292, !noundef !2
  %_7.i.i.i.i127.i = icmp eq i64 %self2.i.i.i.i.i, %len.i.i.i.i.i
  br i1 %_7.i.i.i.i127.i, label %bb1.i.i.i.i.i, label %.noexc3.i, !prof !142

bb1.i.i.i.i.i:                                    ; preds = %bb30.i.i.i
; invoke <alloc::raw_vec::RawVecInner<_>>::reserve::do_reserve_and_handle::<alloc::alloc::Global>
  invoke fastcc void @_RINvNvMs2_NtCsdJPVW0sQgAG_5alloc7raw_vecINtB8_11RawVecInnerpE7reserve21do_reserve_and_handleNtNtBa_5alloc6GlobalECs2f1hMIlW3Va_4heck(ptr noalias noundef nonnull align 8 dereferenceable(24) %buf.i, i64 noundef %len.i.i.i.i.i, i64 noundef 1)
          to label %.noexc129.i unwind label %cleanup.loopexit.split-lp.loopexit.split-lp.loopexit.i

.noexc129.i:                                      ; preds = %bb1.i.i.i.i.i
  %len.pre.i.i.i.i = load i64, ptr %_10.sroa.5.0.buf.sroa_idx.i, align 8, !alias.scope !295, !noalias !292
  br label %.noexc3.i

.noexc3.i:                                        ; preds = %.noexc129.i, %bb30.i.i.i
  %len.i.i.i.i = phi i64 [ %len.i.i.i.i.i, %bb30.i.i.i ], [ %len.pre.i.i.i.i, %.noexc129.i ]
  %_9.i.i.i.i = icmp sgt i64 %len.i.i.i.i, -1
  call void @llvm.assume(i1 %_9.i.i.i.i)
  %_10.i.i.i128.i = load ptr, ptr %_10.sroa.4.0.buf.sroa_idx.i, align 8, !alias.scope !295, !noalias !292, !nonnull !2, !noundef !2
  %dst.i.i.i.i = getelementptr inbounds nuw i8, ptr %_10.i.i.i128.i, i64 %len.i.i.i.i
  store i8 45, ptr %dst.i.i.i.i, align 1, !noalias !296
  %32 = add nuw i64 %len.i.i.i.i, 1
  store i64 %32, ptr %_10.sroa.5.0.buf.sroa_idx.i, align 8, !alias.scope !295, !noalias !292
  br label %bb33.i.i.i

bb33.i.i.i:                                       ; preds = %.noexc3.i, %bb52.i.i.i
  %33 = icmp eq i64 %init.sroa.0.0.i.i.i, 0
  br i1 %33, label %bb102.i.i.i, label %bb5.i.i.i.i

bb5.i.i.i.i:                                      ; preds = %bb33.i.i.i
  %_8.not.i.i.i.i = icmp ult i64 %init.sroa.0.0.i.i.i, %_0.sroa.4.1.i.ph.i.i.i
  br i1 %_8.not.i.i.i.i, label %bb9.i.i.i.i, label %bb6.i.i.i.i

bb6.i.i.i.i:                                      ; preds = %bb5.i.i.i.i
  %34 = icmp eq i64 %init.sroa.0.0.i.i.i, %_0.sroa.4.1.i.ph.i.i.i
  br i1 %34, label %bb102.i.i.i, label %bb101.i.i.invoke.i

bb9.i.i.i.i:                                      ; preds = %bb5.i.i.i.i
  %35 = getelementptr inbounds nuw i8, ptr %_0.sroa.0.1.i.ph.i.i.i, i64 %init.sroa.0.0.i.i.i
  %self1.i.i.i.i = load i8, ptr %35, align 1, !alias.scope !297, !noalias !300, !noundef !2
  %36 = icmp sgt i8 %self1.i.i.i.i, -65
  br i1 %36, label %bb102.i.i.i, label %bb101.i.i.invoke.i

bb102.i.i.i:                                      ; preds = %bb9.i.i.i.i, %bb6.i.i.i.i, %bb33.i.i.i
  %data.i47.i.i.i = getelementptr inbounds nuw i8, ptr %_0.sroa.0.1.i.ph.i.i.i, i64 %init.sroa.0.0.i.i.i
  %new_len.i46.i.i.i = sub nuw i64 %_0.sroa.4.1.i.ph.i.i.i, %init.sroa.0.0.i.i.i
; invoke heck::uppercase
  %_0.i.i.i4.i = invoke noundef zeroext i1 @_RNvCs2f1hMIlW3Va_4heck9uppercase(ptr noalias noundef nonnull readonly align 1 captures(address, read_provenance) %data.i47.i.i.i, i64 noundef %new_len.i46.i.i.i, ptr noalias noundef nonnull readonly align 8 dereferenceable(24) %formatter.i)
          to label %_0.i.i.i.noexc.i unwind label %cleanup.loopexit.split-lp.loopexit.split-lp.loopexit.i, !noalias !240

_0.i.i.i.noexc.i:                                 ; preds = %bb102.i.i.i
  br i1 %_0.i.i.i4.i, label %bb2.i.i, label %bb35.i.i.i, !prof !97

bb101.i.i.invoke.i:                               ; preds = %bb9.i.i.i.i, %bb6.i.i.i.i, %bb19.i72.i.i.i, %bb16.i68.i.i.i, %bb13.i74.i.i.i, %bb10.i61.i.i.i, %bb15.i.i.i, %bb19.i.i.i.i, %bb16.i.i.i.i, %bb13.i.i.i.i, %bb10.i.i.i.i, %bb24.i.i.i
  %37 = phi i64 [ %_15.sroa.0.0197.i.i.i, %bb19.i.i.i.i ], [ %_15.sroa.0.0197.i.i.i, %bb16.i.i.i.i ], [ %_15.sroa.0.0197.i.i.i, %bb13.i.i.i.i ], [ %_15.sroa.0.0197.i.i.i, %bb10.i.i.i.i ], [ %_15.sroa.0.0197.i.i.i, %bb24.i.i.i ], [ %char_indices.sroa.17.1196.i.i.i, %bb19.i72.i.i.i ], [ %char_indices.sroa.17.1196.i.i.i, %bb16.i68.i.i.i ], [ %char_indices.sroa.17.1196.i.i.i, %bb13.i74.i.i.i ], [ %char_indices.sroa.17.1196.i.i.i, %bb10.i61.i.i.i ], [ %char_indices.sroa.17.1196.i.i.i, %bb15.i.i.i ], [ %_0.sroa.4.1.i.ph.i.i.i, %bb6.i.i.i.i ], [ %_0.sroa.4.1.i.ph.i.i.i, %bb9.i.i.i.i ]
  %38 = phi ptr [ @alloc_308f8938e9762d461fc13622ca97483f, %bb19.i.i.i.i ], [ @alloc_308f8938e9762d461fc13622ca97483f, %bb16.i.i.i.i ], [ @alloc_308f8938e9762d461fc13622ca97483f, %bb13.i.i.i.i ], [ @alloc_308f8938e9762d461fc13622ca97483f, %bb10.i.i.i.i ], [ @alloc_308f8938e9762d461fc13622ca97483f, %bb24.i.i.i ], [ @alloc_a50a5070980a36c272121b09121457de, %bb19.i72.i.i.i ], [ @alloc_a50a5070980a36c272121b09121457de, %bb16.i68.i.i.i ], [ @alloc_a50a5070980a36c272121b09121457de, %bb13.i74.i.i.i ], [ @alloc_a50a5070980a36c272121b09121457de, %bb10.i61.i.i.i ], [ @alloc_a50a5070980a36c272121b09121457de, %bb15.i.i.i ], [ @alloc_13b4bf5d328eab9b8df3f7027955d33b, %bb6.i.i.i.i ], [ @alloc_13b4bf5d328eab9b8df3f7027955d33b, %bb9.i.i.i.i ]
; invoke core::str::slice_error_fail
  invoke void @_RNvNtCsjMrxcFdYDNN_4core3str16slice_error_fail(ptr noalias noundef nonnull readonly align 1 captures(address, read_provenance) %_0.sroa.0.1.i.ph.i.i.i, i64 noundef %_0.sroa.4.1.i.ph.i.i.i, i64 noundef %init.sroa.0.0.i.i.i, i64 noundef %37, ptr noalias noundef nonnull readonly align 8 captures(address, read_provenance) dereferenceable(24) %38) #18
          to label %bb101.i.i.cont.i unwind label %cleanup.loopexit.split-lp.loopexit.split-lp.loopexit.split-lp.i, !noalias !240

bb101.i.i.cont.i:                                 ; preds = %bb101.i.i.invoke.i
  unreachable

bb54.i.i.i:                                       ; preds = %bb53.i.i.i
  %_84.i.i.i = icmp samesign ugt i32 %_15.sroa.8.0198.i.i.i, 127
  br i1 %_84.i.i.i, label %bb57.i.i.i, label %bb8.i.i.i

bb57.i.i.i:                                       ; preds = %bb54.i.i.i
; invoke core::unicode::unicode_data::lowercase::lookup
  %_23.i.i6.i = invoke noundef zeroext i1 @_RNvNtNtNtCsjMrxcFdYDNN_4core7unicode12unicode_data9lowercase6lookup(i32 noundef %_15.sroa.8.0198.i.i.i)
          to label %_23.i.i.noexc.i unwind label %cleanup.loopexit.loopexit.split-lp.i, !noalias !240

_23.i.i.noexc.i:                                  ; preds = %bb57.i.i.i
  br i1 %_23.i.i6.i, label %bb11.i.i.i, label %bb63.i.i.i

bb8.i.i.i:                                        ; preds = %bb54.i.i.i
  %39 = add nsw i32 %_15.sroa.8.0198.i.i.i, -65
  %or.cond1.i.i.i = icmp ult i32 %39, 26
  br i1 %or.cond1.i.i.i, label %bb17.i.i.i, label %bb10.i.i.i

bb63.i.i.i:                                       ; preds = %_23.i.i.noexc.i
; invoke core::unicode::unicode_data::uppercase::lookup
  %_24.i.i7.i = invoke noundef zeroext i1 @_RNvNtNtNtCsjMrxcFdYDNN_4core7unicode12unicode_data9uppercase6lookup(i32 noundef %_15.sroa.8.0198.i.i.i)
          to label %_24.i.i.noexc.i unwind label %cleanup.loopexit.loopexit.split-lp.i, !noalias !240

_24.i.i.noexc.i:                                  ; preds = %bb63.i.i.i
  br i1 %_24.i.i7.i, label %bb17.i.i.i, label %bb10.i.i.i

bb10.i.i.i:                                       ; preds = %_24.i.i.noexc.i, %bb8.i.i.i
  %_25.i.i.i = icmp eq i8 %mode.sroa.0.0.i.i.i, 1
  br i1 %_25.i.i.i, label %bb11.i.i.i, label %bb17.i.i.i

bb17.i.i.i:                                       ; preds = %_26.i.i.noexc.i, %bb66.i.i.i, %bb10.i.i.i, %_24.i.i.noexc.i, %bb8.i.i.i
  %next_mode.sroa.0.0.i.i.i = phi i8 [ 1, %_26.i.i.noexc.i ], [ 1, %bb66.i.i.i ], [ %mode.sroa.0.0.i.i.i, %bb10.i.i.i ], [ 2, %bb8.i.i.i ], [ 2, %_24.i.i.noexc.i ]
  %40 = icmp eq i8 %mode.sroa.0.0.i.i.i, 2
  br i1 %40, label %bb18.i.i.i, label %bb5.i.i.i.backedge

bb11.i.i.i:                                       ; preds = %bb10.i.i.i, %_23.i.i.noexc.i, %bb53.i.i.i
  %41 = add nsw i32 %_0.sroa.4.0.i.ph.i.i.i.i.i.i, -65
  %or.cond2.i.i.i = icmp ult i32 %41, 26
  br i1 %or.cond2.i.i.i, label %bb12.i.i.i, label %bb66.i.i.i

bb66.i.i.i:                                       ; preds = %bb11.i.i.i
  %_91.i.i.i = icmp samesign ugt i32 %_0.sroa.4.0.i.ph.i.i.i.i.i.i, 127
  br i1 %_91.i.i.i, label %bb69.i.i.i, label %bb17.i.i.i

bb69.i.i.i:                                       ; preds = %bb66.i.i.i
; invoke core::unicode::unicode_data::uppercase::lookup
  %_26.i.i8.i = invoke noundef zeroext i1 @_RNvNtNtNtCsjMrxcFdYDNN_4core7unicode12unicode_data9uppercase6lookup(i32 noundef %_0.sroa.4.0.i.ph.i.i.i.i.i.i)
          to label %_26.i.i.noexc.i unwind label %cleanup.loopexit.loopexit.split-lp.i, !noalias !240

_26.i.i.noexc.i:                                  ; preds = %bb69.i.i.i
  br i1 %_26.i.i8.i, label %bb12.i.i.i, label %bb17.i.i.i

bb12.i.i.i:                                       ; preds = %_26.i.i.noexc.i, %bb11.i.i.i
  br i1 %first_word.sroa.0.1.off0.i.i.i, label %bb15.i.i.i, label %bb13.i.i.i

bb18.i.i.i:                                       ; preds = %bb17.i.i.i
  %42 = add nsw i32 %_15.sroa.8.0198.i.i.i, -65
  %or.cond3.i.i.i = icmp ult i32 %42, 26
  br i1 %or.cond3.i.i.i, label %bb19.i.i.i, label %bb79.i.i.i

bb79.i.i.i:                                       ; preds = %bb18.i.i.i
  %_100.i.i.i = icmp samesign ugt i32 %_15.sroa.8.0198.i.i.i, 127
  br i1 %_100.i.i.i, label %bb82.i.i.i, label %bb5.i.i.i.backedge

bb82.i.i.i:                                       ; preds = %bb79.i.i.i
; invoke core::unicode::unicode_data::uppercase::lookup
  %_35.i.i9.i = invoke noundef zeroext i1 @_RNvNtNtNtCsjMrxcFdYDNN_4core7unicode12unicode_data9uppercase6lookup(i32 noundef %_15.sroa.8.0198.i.i.i)
          to label %_35.i.i.noexc.i unwind label %cleanup.loopexit.loopexit.split-lp.i, !noalias !240

_35.i.i.noexc.i:                                  ; preds = %bb82.i.i.i
  br i1 %_35.i.i9.i, label %bb19.i.i.i, label %bb5.i.i.i.backedge

bb19.i.i.i:                                       ; preds = %_35.i.i.noexc.i, %bb18.i.i.i
  %43 = add nsw i32 %_0.sroa.4.0.i.ph.i.i.i.i.i.i, -97
  %or.cond4.i.i.i = icmp ult i32 %43, 26
  br i1 %or.cond4.i.i.i, label %bb20.i.i.i, label %bb85.i.i.i

bb85.i.i.i:                                       ; preds = %bb19.i.i.i
  %_103.i.i.i = icmp samesign ugt i32 %_0.sroa.4.0.i.ph.i.i.i.i.i.i, 127
  br i1 %_103.i.i.i, label %bb88.i.i.i, label %bb5.i.i.i.backedge

bb88.i.i.i:                                       ; preds = %bb85.i.i.i
; invoke core::unicode::unicode_data::lowercase::lookup
  %_36.i.i10.i = invoke noundef zeroext i1 @_RNvNtNtNtCsjMrxcFdYDNN_4core7unicode12unicode_data9lowercase6lookup(i32 noundef %_0.sroa.4.0.i.ph.i.i.i.i.i.i)
          to label %_36.i.i.noexc.i unwind label %cleanup.loopexit.loopexit.split-lp.i, !noalias !240

_36.i.i.noexc.i:                                  ; preds = %bb88.i.i.i
  br i1 %_36.i.i10.i, label %bb20.i.i.i, label %bb5.i.i.i.backedge

bb20.i.i.i:                                       ; preds = %_36.i.i.noexc.i, %bb19.i.i.i
  br i1 %first_word.sroa.0.1.off0.i.i.i, label %bb24.i.i.i, label %bb21.i.i.i

bb21.i.i.i:                                       ; preds = %bb20.i.i.i
  call void @llvm.experimental.noalias.scope.decl(metadata !301)
  call void @llvm.experimental.noalias.scope.decl(metadata !304)
  call void @llvm.experimental.noalias.scope.decl(metadata !307)
  %len.i.i.i.i130.i = load i64, ptr %_10.sroa.5.0.buf.sroa_idx.i, align 8, !alias.scope !310, !noalias !313, !noundef !2
  %self2.i.i.i.i131.i = load i64, ptr %buf.i, align 8, !range !6, !alias.scope !310, !noalias !313, !noundef !2
  %_7.i.i.i.i133.i = icmp eq i64 %self2.i.i.i.i131.i, %len.i.i.i.i130.i
  br i1 %_7.i.i.i.i133.i, label %bb1.i.i.i.i138.i, label %.noexc11.i, !prof !142

bb1.i.i.i.i138.i:                                 ; preds = %bb21.i.i.i
; invoke <alloc::raw_vec::RawVecInner<_>>::reserve::do_reserve_and_handle::<alloc::alloc::Global>
  invoke fastcc void @_RINvNvMs2_NtCsdJPVW0sQgAG_5alloc7raw_vecINtB8_11RawVecInnerpE7reserve21do_reserve_and_handleNtNtBa_5alloc6GlobalECs2f1hMIlW3Va_4heck(ptr noalias noundef nonnull align 8 dereferenceable(24) %buf.i, i64 noundef %len.i.i.i.i130.i, i64 noundef 1)
          to label %.noexc140.i unwind label %cleanup.loopexit.loopexit.split-lp.i

.noexc140.i:                                      ; preds = %bb1.i.i.i.i138.i
  %len.pre.i.i.i139.i = load i64, ptr %_10.sroa.5.0.buf.sroa_idx.i, align 8, !alias.scope !316, !noalias !313
  br label %.noexc11.i

.noexc11.i:                                       ; preds = %.noexc140.i, %bb21.i.i.i
  %len.i.i.i134.i = phi i64 [ %len.i.i.i.i130.i, %bb21.i.i.i ], [ %len.pre.i.i.i139.i, %.noexc140.i ]
  %_9.i.i.i135.i = icmp sgt i64 %len.i.i.i134.i, -1
  call void @llvm.assume(i1 %_9.i.i.i135.i)
  %_10.i.i.i136.i = load ptr, ptr %_10.sroa.4.0.buf.sroa_idx.i, align 8, !alias.scope !316, !noalias !313, !nonnull !2, !noundef !2
  %dst.i.i.i137.i = getelementptr inbounds nuw i8, ptr %_10.i.i.i136.i, i64 %len.i.i.i134.i
  store i8 45, ptr %dst.i.i.i137.i, align 1, !noalias !317
  %44 = add nuw i64 %len.i.i.i134.i, 1
  store i64 %44, ptr %_10.sroa.5.0.buf.sroa_idx.i, align 8, !alias.scope !316, !noalias !313
  br label %bb24.i.i.i

bb24.i.i.i:                                       ; preds = %.noexc11.i, %bb20.i.i.i
  %_3.not.i.i.i.i = icmp ugt i64 %init.sroa.0.0.i.i.i, %_15.sroa.0.0197.i.i.i
  br i1 %_3.not.i.i.i.i, label %bb101.i.i.invoke.i, label %bb1.i48.i.i.i

bb1.i48.i.i.i:                                    ; preds = %bb24.i.i.i
  %45 = icmp eq i64 %init.sroa.0.0.i.i.i, 0
  br i1 %45, label %bb2.i53.i.i.i, label %bb9.i49.i.i.i

bb9.i49.i.i.i:                                    ; preds = %bb1.i48.i.i.i
  %_11.not.i.i.i.i = icmp ult i64 %init.sroa.0.0.i.i.i, %_0.sroa.4.1.i.ph.i.i.i
  br i1 %_11.not.i.i.i.i, label %bb13.i.i.i.i, label %bb10.i.i.i.i

bb2.i53.i.i.i:                                    ; preds = %bb13.i.i.i.i, %bb10.i.i.i.i, %bb1.i48.i.i.i
  %46 = icmp eq i64 %_15.sroa.0.0197.i.i.i, 0
  br i1 %46, label %bb95.i.i.i, label %bb15.i.i.i.i

bb10.i.i.i.i:                                     ; preds = %bb9.i49.i.i.i
  %47 = icmp eq i64 %init.sroa.0.0.i.i.i, %_0.sroa.4.1.i.ph.i.i.i
  br i1 %47, label %bb2.i53.i.i.i, label %bb101.i.i.invoke.i

bb13.i.i.i.i:                                     ; preds = %bb9.i49.i.i.i
  %48 = getelementptr inbounds nuw i8, ptr %_0.sroa.0.1.i.ph.i.i.i, i64 %init.sroa.0.0.i.i.i
  %self.i.i.i.i = load i8, ptr %48, align 1, !alias.scope !318, !noalias !300, !noundef !2
  %49 = icmp sgt i8 %self.i.i.i.i, -65
  br i1 %49, label %bb2.i53.i.i.i, label %bb101.i.i.invoke.i

bb15.i.i.i.i:                                     ; preds = %bb2.i53.i.i.i
  %_17.not.i.i.i.i = icmp ult i64 %_15.sroa.0.0197.i.i.i, %_0.sroa.4.1.i.ph.i.i.i
  br i1 %_17.not.i.i.i.i, label %bb19.i.i.i.i, label %bb16.i.i.i.i

bb16.i.i.i.i:                                     ; preds = %bb15.i.i.i.i
  %50 = icmp eq i64 %_15.sroa.0.0197.i.i.i, %_0.sroa.4.1.i.ph.i.i.i
  br i1 %50, label %bb95.i.i.i, label %bb101.i.i.invoke.i

bb19.i.i.i.i:                                     ; preds = %bb15.i.i.i.i
  %51 = getelementptr inbounds nuw i8, ptr %_0.sroa.0.1.i.ph.i.i.i, i64 %_15.sroa.0.0197.i.i.i
  %self2.i.i.i.i = load i8, ptr %51, align 1, !alias.scope !318, !noalias !300, !noundef !2
  %52 = icmp sgt i8 %self2.i.i.i.i, -65
  br i1 %52, label %bb95.i.i.i, label %bb101.i.i.invoke.i

bb95.i.i.i:                                       ; preds = %bb19.i.i.i.i, %bb16.i.i.i.i, %bb2.i53.i.i.i
  %data.i55.i.i.i = getelementptr inbounds nuw i8, ptr %_0.sroa.0.1.i.ph.i.i.i, i64 %init.sroa.0.0.i.i.i
  %new_len.i54.i.i.i = sub nuw i64 %_15.sroa.0.0197.i.i.i, %init.sroa.0.0.i.i.i
; invoke heck::uppercase
  %_0.i56.i.i12.i = invoke noundef zeroext i1 @_RNvCs2f1hMIlW3Va_4heck9uppercase(ptr noalias noundef nonnull readonly align 1 captures(address, read_provenance) %data.i55.i.i.i, i64 noundef %new_len.i54.i.i.i, ptr noalias noundef nonnull readonly align 8 dereferenceable(24) %formatter.i)
          to label %_0.i56.i.i.noexc.i unwind label %cleanup.loopexit.loopexit.split-lp.i, !noalias !240

_0.i56.i.i.noexc.i:                               ; preds = %bb95.i.i.i
  br i1 %_0.i56.i.i12.i, label %bb2.i.i, label %bb5.i.i.i.backedge, !prof !97

bb13.i.i.i:                                       ; preds = %bb12.i.i.i
  call void @llvm.experimental.noalias.scope.decl(metadata !321)
  call void @llvm.experimental.noalias.scope.decl(metadata !324)
  call void @llvm.experimental.noalias.scope.decl(metadata !327)
  %len.i.i.i.i142.i = load i64, ptr %_10.sroa.5.0.buf.sroa_idx.i, align 8, !alias.scope !330, !noalias !333, !noundef !2
  %self2.i.i.i.i143.i = load i64, ptr %buf.i, align 8, !range !6, !alias.scope !330, !noalias !333, !noundef !2
  %_7.i.i.i.i145.i = icmp eq i64 %self2.i.i.i.i143.i, %len.i.i.i.i142.i
  br i1 %_7.i.i.i.i145.i, label %bb1.i.i.i.i150.i, label %.noexc14.i, !prof !142

bb1.i.i.i.i150.i:                                 ; preds = %bb13.i.i.i
; invoke <alloc::raw_vec::RawVecInner<_>>::reserve::do_reserve_and_handle::<alloc::alloc::Global>
  invoke fastcc void @_RINvNvMs2_NtCsdJPVW0sQgAG_5alloc7raw_vecINtB8_11RawVecInnerpE7reserve21do_reserve_and_handleNtNtBa_5alloc6GlobalECs2f1hMIlW3Va_4heck(ptr noalias noundef nonnull align 8 dereferenceable(24) %buf.i, i64 noundef %len.i.i.i.i142.i, i64 noundef 1)
          to label %.noexc152.i unwind label %cleanup.loopexit.loopexit.split-lp.i

.noexc152.i:                                      ; preds = %bb1.i.i.i.i150.i
  %len.pre.i.i.i151.i = load i64, ptr %_10.sroa.5.0.buf.sroa_idx.i, align 8, !alias.scope !336, !noalias !333
  br label %.noexc14.i

.noexc14.i:                                       ; preds = %.noexc152.i, %bb13.i.i.i
  %len.i.i.i146.i = phi i64 [ %len.i.i.i.i142.i, %bb13.i.i.i ], [ %len.pre.i.i.i151.i, %.noexc152.i ]
  %_9.i.i.i147.i = icmp sgt i64 %len.i.i.i146.i, -1
  call void @llvm.assume(i1 %_9.i.i.i147.i)
  %_10.i.i.i148.i = load ptr, ptr %_10.sroa.4.0.buf.sroa_idx.i, align 8, !alias.scope !336, !noalias !333, !nonnull !2, !noundef !2
  %dst.i.i.i149.i = getelementptr inbounds nuw i8, ptr %_10.i.i.i148.i, i64 %len.i.i.i146.i
  store i8 45, ptr %dst.i.i.i149.i, align 1, !noalias !337
  %53 = add nuw i64 %len.i.i.i146.i, 1
  store i64 %53, ptr %_10.sroa.5.0.buf.sroa_idx.i, align 8, !alias.scope !336, !noalias !333
  br label %bb15.i.i.i

bb15.i.i.i:                                       ; preds = %.noexc14.i, %bb12.i.i.i
  %_3.not.i57.i.i.i = icmp ugt i64 %init.sroa.0.0.i.i.i, %char_indices.sroa.17.1196.i.i.i
  br i1 %_3.not.i57.i.i.i, label %bb101.i.i.invoke.i, label %bb1.i58.i.i.i

bb1.i58.i.i.i:                                    ; preds = %bb15.i.i.i
  %54 = icmp eq i64 %init.sroa.0.0.i.i.i, 0
  br i1 %54, label %bb2.i65.i.i.i, label %bb9.i59.i.i.i

bb9.i59.i.i.i:                                    ; preds = %bb1.i58.i.i.i
  %_11.not.i60.i.i.i = icmp ult i64 %init.sroa.0.0.i.i.i, %_0.sroa.4.1.i.ph.i.i.i
  br i1 %_11.not.i60.i.i.i, label %bb13.i74.i.i.i, label %bb10.i61.i.i.i

bb2.i65.i.i.i:                                    ; preds = %bb13.i74.i.i.i, %bb10.i61.i.i.i, %bb1.i58.i.i.i
  %55 = icmp eq i64 %char_indices.sroa.17.1196.i.i.i, 0
  br i1 %55, label %bb76.i.i.i, label %bb15.i66.i.i.i

bb10.i61.i.i.i:                                   ; preds = %bb9.i59.i.i.i
  %56 = icmp eq i64 %init.sroa.0.0.i.i.i, %_0.sroa.4.1.i.ph.i.i.i
  br i1 %56, label %bb2.i65.i.i.i, label %bb101.i.i.invoke.i

bb13.i74.i.i.i:                                   ; preds = %bb9.i59.i.i.i
  %57 = getelementptr inbounds nuw i8, ptr %_0.sroa.0.1.i.ph.i.i.i, i64 %init.sroa.0.0.i.i.i
  %self.i75.i.i.i = load i8, ptr %57, align 1, !alias.scope !338, !noalias !300, !noundef !2
  %58 = icmp sgt i8 %self.i75.i.i.i, -65
  br i1 %58, label %bb2.i65.i.i.i, label %bb101.i.i.invoke.i

bb15.i66.i.i.i:                                   ; preds = %bb2.i65.i.i.i
  %_17.not.i67.i.i.i = icmp ult i64 %char_indices.sroa.17.1196.i.i.i, %_0.sroa.4.1.i.ph.i.i.i
  br i1 %_17.not.i67.i.i.i, label %bb19.i72.i.i.i, label %bb16.i68.i.i.i

bb16.i68.i.i.i:                                   ; preds = %bb15.i66.i.i.i
  %59 = icmp eq i64 %char_indices.sroa.17.1196.i.i.i, %_0.sroa.4.1.i.ph.i.i.i
  br i1 %59, label %bb76.i.i.i, label %bb101.i.i.invoke.i

bb19.i72.i.i.i:                                   ; preds = %bb15.i66.i.i.i
  %60 = getelementptr inbounds nuw i8, ptr %_0.sroa.0.1.i.ph.i.i.i, i64 %char_indices.sroa.17.1196.i.i.i
  %self2.i73.i.i.i = load i8, ptr %60, align 1, !alias.scope !338, !noalias !300, !noundef !2
  %61 = icmp sgt i8 %self2.i73.i.i.i, -65
  br i1 %61, label %bb76.i.i.i, label %bb101.i.i.invoke.i

bb76.i.i.i:                                       ; preds = %bb19.i72.i.i.i, %bb16.i68.i.i.i, %bb2.i65.i.i.i
  call void @llvm.experimental.noalias.scope.decl(metadata !341)
  %_19.i.i = getelementptr inbounds nuw i8, ptr %_0.sroa.0.1.i.ph.i.i.i, i64 %char_indices.sroa.17.1196.i.i.i
  %_6.i.i16.not.i.i = icmp eq i64 %char_indices.sroa.17.1196.i.i.i, %init.sroa.0.0.i.i.i
  br i1 %_6.i.i16.not.i.i, label %bb5.i.i.i.backedge, label %bb14.i.lr.ph.i.i

bb5.i.i.i.backedge:                               ; preds = %bb19.i.i, %bb76.i.i.i, %_0.i56.i.i.noexc.i, %_36.i.i.noexc.i, %bb85.i.i.i, %_35.i.i.noexc.i, %bb79.i.i.i, %bb17.i.i.i
  %init.sroa.0.0.i.i.i.be = phi i64 [ %init.sroa.0.0.i.i.i, %bb76.i.i.i ], [ %_15.sroa.0.0197.i.i.i, %_0.i56.i.i.noexc.i ], [ %init.sroa.0.0.i.i.i, %_36.i.i.noexc.i ], [ %init.sroa.0.0.i.i.i, %bb85.i.i.i ], [ %init.sroa.0.0.i.i.i, %_35.i.i.noexc.i ], [ %init.sroa.0.0.i.i.i, %bb79.i.i.i ], [ %init.sroa.0.0.i.i.i, %bb17.i.i.i ], [ %char_indices.sroa.17.1196.i.i.i, %bb19.i.i ]
  %mode.sroa.0.0.i.i.i.be = phi i8 [ 0, %bb76.i.i.i ], [ 0, %_0.i56.i.i.noexc.i ], [ %next_mode.sroa.0.0.i.i.i, %_36.i.i.noexc.i ], [ %next_mode.sroa.0.0.i.i.i, %bb85.i.i.i ], [ %next_mode.sroa.0.0.i.i.i, %_35.i.i.noexc.i ], [ %next_mode.sroa.0.0.i.i.i, %bb79.i.i.i ], [ %next_mode.sroa.0.0.i.i.i, %bb17.i.i.i ], [ 0, %bb19.i.i ]
  %first_word.sroa.0.1.off0.i.i.i.be = phi i1 [ false, %bb76.i.i.i ], [ false, %_0.i56.i.i.noexc.i ], [ %first_word.sroa.0.1.off0.i.i.i, %_36.i.i.noexc.i ], [ %first_word.sroa.0.1.off0.i.i.i, %bb85.i.i.i ], [ %first_word.sroa.0.1.off0.i.i.i, %_35.i.i.noexc.i ], [ %first_word.sroa.0.1.off0.i.i.i, %bb79.i.i.i ], [ %first_word.sroa.0.1.off0.i.i.i, %bb17.i.i.i ], [ false, %bb19.i.i ]
  br label %bb5.i.i.i

bb14.i.lr.ph.i.i:                                 ; preds = %bb76.i.i.i
  %data.i71.i.i.i = getelementptr inbounds nuw i8, ptr %_0.sroa.0.1.i.ph.i.i.i, i64 %init.sroa.0.0.i.i.i
  br label %bb14.i.i.i

bb14.i.i.i:                                       ; preds = %bb19.i.i, %bb14.i.lr.ph.i.i
  %iter.sroa.0.017.i.i = phi ptr [ %data.i71.i.i.i, %bb14.i.lr.ph.i.i ], [ %iter.sroa.0.1.ph.i.i, %bb19.i.i ]
  %_16.i.i.i.i = getelementptr inbounds nuw i8, ptr %iter.sroa.0.017.i.i, i64 1
  %x.i.i.i = load i8, ptr %iter.sroa.0.017.i.i, align 1, !alias.scope !341, !noalias !344, !noundef !2
  %_6.i.i.i = icmp sgt i8 %x.i.i.i, -1
  br i1 %_6.i.i.i, label %bb3.i.i156.i, label %bb4.i.i.i

bb4.i.i.i:                                        ; preds = %bb14.i.i.i
  %_30.i.i.i = and i8 %x.i.i.i, 31
  %init.i.i.i = zext nneg i8 %_30.i.i.i to i32
  %_6.i10.i.i.i = icmp ne ptr %_16.i.i.i.i, %_19.i.i
  call void @llvm.assume(i1 %_6.i10.i.i.i)
  %_16.i12.i.i.i = getelementptr inbounds nuw i8, ptr %iter.sroa.0.017.i.i, i64 2
  %y.i.i.i = load i8, ptr %_16.i.i.i.i, align 1, !alias.scope !341, !noalias !344, !noundef !2
  %_33.i.i.i = shl nuw nsw i32 %init.i.i.i, 6
  %_35.i.i.i = and i8 %y.i.i.i, 63
  %_34.i.i.i = zext nneg i8 %_35.i.i.i to i32
  %62 = or disjoint i32 %_33.i.i.i, %_34.i.i.i
  %_13.i.i.i = icmp samesign ugt i8 %x.i.i.i, -33
  br i1 %_13.i.i.i, label %bb6.i.i.i, label %bb10.i.i

bb3.i.i156.i:                                     ; preds = %bb14.i.i.i
  %_7.i.i.i = zext nneg i8 %x.i.i.i to i32
  br label %bb10.i.i

bb6.i.i.i:                                        ; preds = %bb4.i.i.i
  %_6.i17.i.i.i = icmp ne ptr %_16.i12.i.i.i, %_19.i.i
  call void @llvm.assume(i1 %_6.i17.i.i.i)
  %_16.i19.i.i.i = getelementptr inbounds nuw i8, ptr %iter.sroa.0.017.i.i, i64 3
  %z.i.i.i = load i8, ptr %_16.i12.i.i.i, align 1, !alias.scope !341, !noalias !344, !noundef !2
  %_38.i.i.i = shl nuw nsw i32 %_34.i.i.i, 6
  %_40.i.i.i = and i8 %z.i.i.i, 63
  %_39.i.i.i = zext nneg i8 %_40.i.i.i to i32
  %y_z.i.i.i = or disjoint i32 %_38.i.i.i, %_39.i.i.i
  %_20.i.i.i = shl nuw nsw i32 %init.i.i.i, 12
  %63 = or disjoint i32 %y_z.i.i.i, %_20.i.i.i
  %_21.i.i.i = icmp samesign ugt i8 %x.i.i.i, -17
  br i1 %_21.i.i.i, label %bb8.i.i154.i, label %bb10.i.i

bb8.i.i154.i:                                     ; preds = %bb6.i.i.i
  %_6.i24.i.i.i = icmp ne ptr %_16.i19.i.i.i, %_19.i.i
  call void @llvm.assume(i1 %_6.i24.i.i.i)
  %_16.i26.i.i.i = getelementptr inbounds nuw i8, ptr %iter.sroa.0.017.i.i, i64 4
  %w.i.i.i = load i8, ptr %_16.i19.i.i.i, align 1, !alias.scope !341, !noalias !344, !noundef !2
  %_26.i.i.i = shl nuw nsw i32 %init.i.i.i, 18
  %_25.i.i155.i = and i32 %_26.i.i.i, 1835008
  %_43.i.i.i = shl nuw nsw i32 %y_z.i.i.i, 6
  %_45.i.i.i = and i8 %w.i.i.i, 63
  %_44.i.i.i = zext nneg i8 %_45.i.i.i to i32
  %_27.i.i.i = or disjoint i32 %_43.i.i.i, %_44.i.i.i
  %64 = or disjoint i32 %_27.i.i.i, %_25.i.i155.i
  br label %bb10.i.i

bb10.i.i:                                         ; preds = %bb8.i.i154.i, %bb6.i.i.i, %bb3.i.i156.i, %bb4.i.i.i
  %iter.sroa.0.1.ph.i.i = phi ptr [ %_16.i12.i.i.i, %bb4.i.i.i ], [ %_16.i19.i.i.i, %bb6.i.i.i ], [ %_16.i26.i.i.i, %bb8.i.i154.i ], [ %_16.i.i.i.i, %bb3.i.i156.i ]
  %_0.sroa.4.0.i.ph.i.i = phi i32 [ %62, %bb4.i.i.i ], [ %63, %bb6.i.i.i ], [ %64, %bb8.i.i154.i ], [ %_7.i.i.i, %bb3.i.i156.i ]
  %65 = icmp samesign ult i32 %_0.sroa.4.0.i.ph.i.i, 1114112
  call void @llvm.assume(i1 %65)
  call void @llvm.lifetime.start.p0(i64 32, ptr nonnull %_10.i.i), !noalias !348
  call void @llvm.lifetime.start.p0(i64 12, ptr nonnull %_29.i.i), !noalias !348
; invoke core::unicode::unicode_data::conversions::to_upper
  invoke void @_RNvNtNtNtCsjMrxcFdYDNN_4core7unicode12unicode_data11conversions8to_upper(ptr noalias noundef nonnull sret([12 x i8]) align 4 captures(none) dereferenceable(12) %_29.i.i, i32 noundef %_0.sroa.4.0.i.ph.i.i)
          to label %.noexc157.i unwind label %cleanup.loopexit.loopexit.i, !noalias !240

.noexc157.i:                                      ; preds = %bb10.i.i
  %_3.i.i.i = load i32, ptr %2, align 4, !range !14, !alias.scope !349, !noalias !352, !noundef !2
  %66 = icmp eq i32 %_3.i.i.i, 0
  %_6.i8.i.i = load i32, ptr %3, align 4, !range !14, !alias.scope !349, !noalias !352
  %67 = icmp eq i32 %_6.i8.i.i, 0
  %spec.select.i.i.i = select i1 %67, i64 1, i64 2
  %iter.sroa.4.0.i.i.i = select i1 %66, i64 %spec.select.i.i.i, i64 3
  call void @llvm.memcpy.p0.p0.i64(ptr noundef nonnull align 8 dereferenceable(12) %_28.sroa.5.0._10.sroa_idx.i.i, ptr noundef nonnull align 4 dereferenceable(12) %_29.i.i, i64 12, i1 false), !noalias !348
  call void @llvm.lifetime.end.p0(i64 12, ptr nonnull %_29.i.i), !noalias !348
  store i64 0, ptr %_10.i.i, align 8, !noalias !348
  store i64 %iter.sroa.4.0.i.i.i, ptr %_28.sroa.4.0._10.sroa_idx.i.i, align 8, !noalias !348
  call void @llvm.lifetime.start.p0(i64 16, ptr nonnull %args.i.i), !noalias !348
  store ptr %_10.i.i, ptr %args.i.i, align 8, !noalias !348
  store ptr @_RNvXsB_NtCsjMrxcFdYDNN_4core4charNtB5_11ToLowercaseNtNtB7_3fmt7Display3fmt, ptr %_12.sroa.4.0..sroa_idx.i.i, align 8, !noalias !348
; invoke core::fmt::write
  %68 = invoke noundef zeroext i1 @_RNvNtCsjMrxcFdYDNN_4core3fmt5write(ptr noundef nonnull align 1 %buf.i, ptr noalias noundef nonnull readonly align 8 captures(address, read_provenance) dereferenceable(48) @vtable.1, ptr noundef nonnull @alloc_0c812808379efded5a4fb82d2790b556, ptr noundef nonnull %args.i.i)
          to label %.noexc158.i unwind label %cleanup.loopexit.loopexit.i, !noalias !240

.noexc158.i:                                      ; preds = %.noexc157.i
  call void @llvm.lifetime.end.p0(i64 16, ptr nonnull %args.i.i), !noalias !348
  call void @llvm.lifetime.end.p0(i64 32, ptr nonnull %_10.i.i), !noalias !348
  br i1 %68, label %bb2.i.i, label %bb19.i.i, !prof !97

bb19.i.i:                                         ; preds = %.noexc158.i
  %_6.i.i.not.i.i = icmp eq ptr %iter.sroa.0.1.ph.i.i, %_19.i.i
  br i1 %_6.i.i.not.i.i, label %bb5.i.i.i.backedge, label %bb14.i.i.i

cleanup.loopexit.loopexit.i:                      ; preds = %.noexc157.i, %bb10.i.i
  %lpad.loopexit160.i = landingpad { ptr, i32 }
          cleanup
  br label %cleanup.i

cleanup.loopexit.loopexit.split-lp.i:             ; preds = %bb1.i.i.i.i138.i, %bb1.i.i.i.i150.i, %bb95.i.i.i, %bb88.i.i.i, %bb82.i.i.i, %bb69.i.i.i, %bb63.i.i.i, %bb57.i.i.i
  %lpad.loopexit.split-lp161.i = landingpad { ptr, i32 }
          cleanup
  br label %cleanup.i

cleanup.loopexit.split-lp.loopexit.i:             ; preds = %_RNvXs3_NtNtCsjMrxcFdYDNN_4core3str7patternNCINvCs2f1hMIlW3Va_4heck9transformNvBJ_9uppercaseNCNvXs_NtBJ_12shouty_kebabINtB1y_17AsShoutyKebabCaseReENtNtB9_3fmt7Display3fmt0E0NtB5_11MultiCharEq7matchesBJ_.exit.i.i.i.i.i.i.i, %bb16.i.i.i.i.i.i.i.i.i.i
  %lpad.loopexit2.i = landingpad { ptr, i32 }
          cleanup
  br label %cleanup.i

cleanup.loopexit.split-lp.loopexit.split-lp.loopexit.i: ; preds = %bb1.i.i.i.i.i, %bb102.i.i.i
  %lpad.loopexit5.i = landingpad { ptr, i32 }
          cleanup
  br label %cleanup.i

cleanup.loopexit.split-lp.loopexit.split-lp.loopexit.split-lp.i: ; preds = %bb2.i.i, %bb101.i.i.invoke.i
  %lpad.loopexit.split-lp.i = landingpad { ptr, i32 }
          cleanup
  br label %cleanup.i

cleanup.i:                                        ; preds = %cleanup.loopexit.split-lp.loopexit.split-lp.loopexit.split-lp.i, %cleanup.loopexit.split-lp.loopexit.split-lp.loopexit.i, %cleanup.loopexit.split-lp.loopexit.i, %cleanup.loopexit.loopexit.split-lp.i, %cleanup.loopexit.loopexit.i
  %lpad.phi.i = phi { ptr, i32 } [ %lpad.loopexit2.i, %cleanup.loopexit.split-lp.loopexit.i ], [ %lpad.loopexit5.i, %cleanup.loopexit.split-lp.loopexit.split-lp.loopexit.i ], [ %lpad.loopexit.split-lp.i, %cleanup.loopexit.split-lp.loopexit.split-lp.loopexit.split-lp.i ], [ %lpad.loopexit160.i, %cleanup.loopexit.loopexit.i ], [ %lpad.loopexit.split-lp161.i, %cleanup.loopexit.loopexit.split-lp.i ]
  call void @llvm.experimental.noalias.scope.decl(metadata !354)
  %_1.val.i.i = load i64, ptr %buf.i, align 8, !alias.scope !354, !noalias !240
  %69 = icmp eq i64 %_1.val.i.i, 0
  br i1 %69, label %bb4.i, label %_RNvXs_NtCsdJPVW0sQgAG_5alloc5allocNtB4_6GlobalNtNtCsjMrxcFdYDNN_4core5alloc9Allocator10deallocate.exit.i.i.i4.i.i.i

_RNvXs_NtCsdJPVW0sQgAG_5alloc5allocNtB4_6GlobalNtNtCsjMrxcFdYDNN_4core5alloc9Allocator10deallocate.exit.i.i.i4.i.i.i: ; preds = %cleanup.i
  %_1.val1.i.i = load ptr, ptr %_10.sroa.4.0.buf.sroa_idx.i, align 8, !alias.scope !354, !noalias !240, !nonnull !2, !noundef !2
; call __rustc::__rust_dealloc
  call void @_RNvCsKhRCbHf33p_7___rustc14___rust_dealloc(ptr noundef nonnull %_1.val1.i.i, i64 noundef %_1.val.i.i, i64 noundef range(i64 1, -9223372036854775807) 1) #17, !noalias !357
  br label %bb4.i

bb2.i.i:                                          ; preds = %_0.i.i.i.noexc.i, %_0.i56.i.i.noexc.i, %.noexc158.i
  call void @llvm.lifetime.start.p0(i64 0, ptr nonnull %e.i.i), !noalias !240
; invoke core::result::unwrap_failed
  invoke void @_RNvNtCsjMrxcFdYDNN_4core6result13unwrap_failed(ptr noalias noundef nonnull readonly align 1 captures(address, read_provenance) @alloc_cc656815297f75969399c3f4b1ad3de4, i64 noundef 55, ptr noundef nonnull align 1 %e.i.i, ptr noalias noundef readonly align 8 captures(address, read_provenance) dereferenceable(32) @vtable.0, ptr noalias noundef readonly align 8 captures(address, read_provenance) dereferenceable(24) @alloc_f3c70bf9d2724ff8f638341943ddf3c8) #18
          to label %.noexc17.i unwind label %cleanup.loopexit.split-lp.loopexit.split-lp.loopexit.split-lp.i, !noalias !240

.noexc17.i:                                       ; preds = %bb2.i.i
  unreachable

bb4.i:                                            ; preds = %_RNvXs_NtCsdJPVW0sQgAG_5alloc5allocNtB4_6GlobalNtNtCsjMrxcFdYDNN_4core5alloc9Allocator10deallocate.exit.i.i.i4.i.i.i, %cleanup.i
  resume { ptr, i32 } %lpad.phi.i

_RNvXsC_NtCsdJPVW0sQgAG_5alloc6stringINtNtCs2f1hMIlW3Va_4heck12shouty_kebab17AsShoutyKebabCaseReENtB5_12SpecToString14spec_to_stringBD_.exit: ; preds = %bb35.i.i.i
  call void @llvm.memcpy.p0.p0.i64(ptr noundef nonnull align 8 dereferenceable(24) %_0, ptr noundef nonnull align 8 dereferenceable(24) %buf.i, i64 24, i1 false)
  call void @llvm.lifetime.end.p0(i64 24, ptr nonnull %formatter.i), !noalias !240
  call void @llvm.lifetime.end.p0(i64 24, ptr nonnull %buf.i), !noalias !240
  ret void
}

; <str as heck::kebab::ToKebabCase>::to_kebab_case
; Function Attrs: uwtable
define void @_RNvXNtCs2f1hMIlW3Va_4heck5kebabeNtB2_11ToKebabCase13to_kebab_case(ptr dead_on_unwind noalias noundef writable writeonly sret([24 x i8]) align 8 captures(none) dereferenceable(24) %_0, ptr noalias noundef nonnull readonly align 1 captures(address, read_provenance) %self.0, i64 noundef %self.1) unnamed_addr #2 personality ptr @rust_eh_personality {
start:
  %e.i.i = alloca [0 x i8], align 1
  %_63.i.i = alloca [12 x i8], align 4
  %args.i.i = alloca [16 x i8], align 8
  %_13.i.i = alloca [32 x i8], align 8
  %formatter.i = alloca [24 x i8], align 8
  %buf.i = alloca [24 x i8], align 8
  call void @llvm.lifetime.start.p0(i64 24, ptr nonnull %buf.i), !noalias !358
  store i64 0, ptr %buf.i, align 8, !noalias !358
  %_10.sroa.4.0.buf.sroa_idx.i = getelementptr inbounds nuw i8, ptr %buf.i, i64 8
  store ptr inttoptr (i64 1 to ptr), ptr %_10.sroa.4.0.buf.sroa_idx.i, align 8, !noalias !358
  %_10.sroa.5.0.buf.sroa_idx.i = getelementptr inbounds nuw i8, ptr %buf.i, i64 16
  store i64 0, ptr %_10.sroa.5.0.buf.sroa_idx.i, align 8, !noalias !358
  call void @llvm.lifetime.start.p0(i64 24, ptr nonnull %formatter.i), !noalias !358
  %0 = getelementptr inbounds nuw i8, ptr %formatter.i, i64 16
  store i32 1610612768, ptr %0, align 8, !noalias !358
  %options.sroa.4.0..sroa_idx.i = getelementptr inbounds nuw i8, ptr %formatter.i, i64 20
  store i16 0, ptr %options.sroa.4.0..sroa_idx.i, align 4, !noalias !358
  %options.sroa.5.0..sroa_idx.i = getelementptr inbounds nuw i8, ptr %formatter.i, i64 22
  store i16 0, ptr %options.sroa.5.0..sroa_idx.i, align 2, !noalias !358
  store ptr %buf.i, ptr %formatter.i, align 8, !noalias !358
  %1 = getelementptr inbounds nuw i8, ptr %formatter.i, i64 8
  store ptr @vtable.1, ptr %1, align 8, !noalias !358
  %_7.i.i.i.i.i = getelementptr inbounds nuw i8, ptr %self.0, i64 %self.1
  %2 = getelementptr inbounds nuw i8, ptr %_63.i.i, i64 8
  %3 = getelementptr inbounds nuw i8, ptr %_63.i.i, i64 4
  %_62.sroa.4.0._13.sroa_idx.i.i = getelementptr inbounds nuw i8, ptr %_13.i.i, i64 8
  %_62.sroa.5.0._13.sroa_idx.i.i = getelementptr inbounds nuw i8, ptr %_13.i.i, i64 16
  %_15.sroa.4.0..sroa_idx.i.i = getelementptr inbounds nuw i8, ptr %args.i.i, i64 8
  br label %bb2.i.i.i.i

bb2.i.i.i.i:                                      ; preds = %bb35.i.i.i, %start
  %first_word.sroa.0.0.off0153.i.i.i = phi i1 [ true, %start ], [ %first_word.sroa.0.2.off0.i.i.i, %bb35.i.i.i ]
  %iter.sroa.0.0151.i.i.i = phi i64 [ 0, %start ], [ %iter.sroa.0.1.ph.i.i.i, %bb35.i.i.i ]
  %char_indices.sroa.22.0150.i.i.i = phi i64 [ undef, %start ], [ %char_indices.sroa.22.2.i.i.i, %bb35.i.i.i ]
  %iter.sroa.1179.0149.i.i.i = phi ptr [ %self.0, %start ], [ %iter.sroa.1179.6.ph.i.i.i, %bb35.i.i.i ]
  %iter.sroa.17.0148.i.i.i = phi i64 [ 0, %start ], [ %iter.sroa.17.5.ph.i.i.i, %bb35.i.i.i ]
  %_6.i.i.i.i15.i.i.i.i.i.i = icmp eq ptr %iter.sroa.1179.0149.i.i.i, %_7.i.i.i.i.i
  br i1 %_6.i.i.i.i15.i.i.i.i.i.i, label %bb3.i.i.i, label %bb14.i.i.i.i.i.i.i.i.i

bb14.i.i.i.i.i.i.i.i.i:                           ; preds = %bb2.i.i.i.i, %bb5.i.i.i.i.i.i
  %4 = phi i64 [ %iter.sroa.17.2.i.i.i, %bb5.i.i.i.i.i.i ], [ %iter.sroa.17.0148.i.i.i, %bb2.i.i.i.i ]
  %_16.i26.i.i.i1216.i.i.i.i.i.i = phi ptr [ %iter.sroa.1179.3.i.i.i, %bb5.i.i.i.i.i.i ], [ %iter.sroa.1179.0149.i.i.i, %bb2.i.i.i.i ]
  %5 = ptrtoint ptr %_16.i26.i.i.i1216.i.i.i.i.i.i to i64
  %_16.i.i.i.i.i.i.i.i.i.i = getelementptr inbounds nuw i8, ptr %_16.i26.i.i.i1216.i.i.i.i.i.i, i64 1
  %x.i.i.i.i.i.i.i.i.i = load i8, ptr %_16.i26.i.i.i1216.i.i.i.i.i.i, align 1, !alias.scope !361, !noalias !364, !noundef !2
  %_6.i.i.i.i.i.i.i.i.i = icmp sgt i8 %x.i.i.i.i.i.i.i.i.i, -1
  br i1 %_6.i.i.i.i.i.i.i.i.i, label %bb3.thread.i.i.i.i.i.i.i, label %bb4.i.i.i.i.i.i.i.i.i

bb4.i.i.i.i.i.i.i.i.i:                            ; preds = %bb14.i.i.i.i.i.i.i.i.i
  %_30.i.i.i.i.i.i.i.i.i = and i8 %x.i.i.i.i.i.i.i.i.i, 31
  %init.i.i.i.i.i.i.i.i.i = zext nneg i8 %_30.i.i.i.i.i.i.i.i.i to i32
  %_6.i10.i.i.i.i.i.i.i.i.i = icmp ne ptr %_16.i.i.i.i.i.i.i.i.i.i, %_7.i.i.i.i.i
  call void @llvm.assume(i1 %_6.i10.i.i.i.i.i.i.i.i.i)
  %_16.i12.i.i.i.i.i.i.i.i.i = getelementptr inbounds nuw i8, ptr %_16.i26.i.i.i1216.i.i.i.i.i.i, i64 2
  %y.i.i.i.i.i.i.i.i.i = load i8, ptr %_16.i.i.i.i.i.i.i.i.i.i, align 1, !alias.scope !361, !noalias !364, !noundef !2
  %_33.i.i.i.i.i.i.i.i.i = shl nuw nsw i32 %init.i.i.i.i.i.i.i.i.i, 6
  %_35.i.i.i.i.i.i.i.i.i = and i8 %y.i.i.i.i.i.i.i.i.i, 63
  %_34.i.i.i.i.i.i.i.i.i = zext nneg i8 %_35.i.i.i.i.i.i.i.i.i to i32
  %6 = or disjoint i32 %_33.i.i.i.i.i.i.i.i.i, %_34.i.i.i.i.i.i.i.i.i
  %_13.i.i.i.i.i.i.i.i.i = icmp samesign ugt i8 %x.i.i.i.i.i.i.i.i.i, -33
  br i1 %_13.i.i.i.i.i.i.i.i.i, label %bb6.i.i.i.i.i.i.i.i.i, label %bb3.i.i.i.i.i.i.i

bb3.thread.i.i.i.i.i.i.i:                         ; preds = %bb14.i.i.i.i.i.i.i.i.i
  %_7.i.i.i.i.i.i.i.i.i = zext nneg i8 %x.i.i.i.i.i.i.i.i.i to i32
  %7 = add i64 %4, 1
  br label %bb1.i.i.i.i.i.i.i.i.i.i

bb6.i.i.i.i.i.i.i.i.i:                            ; preds = %bb4.i.i.i.i.i.i.i.i.i
  %_6.i17.i.i.i.i.i.i.i.i.i = icmp ne ptr %_16.i12.i.i.i.i.i.i.i.i.i, %_7.i.i.i.i.i
  call void @llvm.assume(i1 %_6.i17.i.i.i.i.i.i.i.i.i)
  %_16.i19.i.i.i.i.i.i.i.i.i = getelementptr inbounds nuw i8, ptr %_16.i26.i.i.i1216.i.i.i.i.i.i, i64 3
  %z.i.i.i.i.i.i.i.i.i = load i8, ptr %_16.i12.i.i.i.i.i.i.i.i.i, align 1, !alias.scope !361, !noalias !364, !noundef !2
  %_38.i.i.i.i.i.i.i.i.i = shl nuw nsw i32 %_34.i.i.i.i.i.i.i.i.i, 6
  %_40.i.i.i.i.i.i.i.i.i = and i8 %z.i.i.i.i.i.i.i.i.i, 63
  %_39.i.i.i.i.i.i.i.i.i = zext nneg i8 %_40.i.i.i.i.i.i.i.i.i to i32
  %y_z.i.i.i.i.i.i.i.i.i = or disjoint i32 %_38.i.i.i.i.i.i.i.i.i, %_39.i.i.i.i.i.i.i.i.i
  %_20.i.i.i.i.i.i.i.i.i = shl nuw nsw i32 %init.i.i.i.i.i.i.i.i.i, 12
  %8 = or disjoint i32 %y_z.i.i.i.i.i.i.i.i.i, %_20.i.i.i.i.i.i.i.i.i
  %_21.i.i.i.i.i.i.i.i.i = icmp samesign ugt i8 %x.i.i.i.i.i.i.i.i.i, -17
  br i1 %_21.i.i.i.i.i.i.i.i.i, label %bb8.i.i.i.i.i.i.i.i.i, label %bb3.i.i.i.i.i.i.i

bb8.i.i.i.i.i.i.i.i.i:                            ; preds = %bb6.i.i.i.i.i.i.i.i.i
  %_6.i24.i.i.i.i.i.i.i.i.i = icmp ne ptr %_16.i19.i.i.i.i.i.i.i.i.i, %_7.i.i.i.i.i
  call void @llvm.assume(i1 %_6.i24.i.i.i.i.i.i.i.i.i)
  %_16.i26.i.i.i.i.i.i.i.i.i = getelementptr inbounds nuw i8, ptr %_16.i26.i.i.i1216.i.i.i.i.i.i, i64 4
  %w.i.i.i.i.i.i.i.i.i = load i8, ptr %_16.i19.i.i.i.i.i.i.i.i.i, align 1, !alias.scope !361, !noalias !364, !noundef !2
  %_26.i.i.i.i.i.i.i.i.i = shl nuw nsw i32 %init.i.i.i.i.i.i.i.i.i, 18
  %_25.i.i.i.i.i.i.i.i.i = and i32 %_26.i.i.i.i.i.i.i.i.i, 1835008
  %_43.i.i.i.i.i.i.i.i.i = shl nuw nsw i32 %y_z.i.i.i.i.i.i.i.i.i, 6
  %_45.i.i.i.i.i.i.i.i.i = and i8 %w.i.i.i.i.i.i.i.i.i, 63
  %_44.i.i.i.i.i.i.i.i.i = zext nneg i8 %_45.i.i.i.i.i.i.i.i.i to i32
  %_27.i.i.i.i.i.i.i.i.i = or disjoint i32 %_43.i.i.i.i.i.i.i.i.i, %_44.i.i.i.i.i.i.i.i.i
  %9 = or disjoint i32 %_27.i.i.i.i.i.i.i.i.i, %_25.i.i.i.i.i.i.i.i.i
  br label %bb3.i.i.i.i.i.i.i

bb3.i.i.i.i.i.i.i:                                ; preds = %bb8.i.i.i.i.i.i.i.i.i, %bb6.i.i.i.i.i.i.i.i.i, %bb4.i.i.i.i.i.i.i.i.i
  %iter.sroa.1179.1.i.i.i = phi ptr [ %_16.i26.i.i.i.i.i.i.i.i.i, %bb8.i.i.i.i.i.i.i.i.i ], [ %_16.i19.i.i.i.i.i.i.i.i.i, %bb6.i.i.i.i.i.i.i.i.i ], [ %_16.i12.i.i.i.i.i.i.i.i.i, %bb4.i.i.i.i.i.i.i.i.i ]
  %_0.sroa.4.0.i.ph.i.i.i.i.i.i.i.i = phi i32 [ %9, %bb8.i.i.i.i.i.i.i.i.i ], [ %8, %bb6.i.i.i.i.i.i.i.i.i ], [ %6, %bb4.i.i.i.i.i.i.i.i.i ]
  %10 = icmp samesign ult i32 %_0.sroa.4.0.i.ph.i.i.i.i.i.i.i.i, 1114112
  call void @llvm.assume(i1 %10)
  %11 = ptrtoint ptr %iter.sroa.1179.1.i.i.i to i64
  %_10.i.i.i.i.i.i.i.i = sub i64 %11, %5
  %12 = add i64 %_10.i.i.i.i.i.i.i.i, %4
  %_2.i.i.i.i.i.i.i.i.i.i = icmp samesign ult i32 %_0.sroa.4.0.i.ph.i.i.i.i.i.i.i.i, 128
  br i1 %_2.i.i.i.i.i.i.i.i.i.i, label %bb1.i.i.i.i.i.i.i.i.i.i, label %bb2.i.i.i.i.i.i.i.i.i.i

bb2.i.i.i.i.i.i.i.i.i.i:                          ; preds = %bb3.i.i.i.i.i.i.i
  %_15.i.i.i.i.i.i.i.i.i.i = icmp samesign ugt i32 %_0.sroa.4.0.i.ph.i.i.i.i.i.i.i.i, 169
  br i1 %_15.i.i.i.i.i.i.i.i.i.i, label %bb16.i.i.i.i.i.i.i.i.i.i, label %bb3.i.i.i

bb1.i.i.i.i.i.i.i.i.i.i:                          ; preds = %bb3.i.i.i.i.i.i.i, %bb3.thread.i.i.i.i.i.i.i
  %iter.sroa.17.4.i.i.i = phi i64 [ %7, %bb3.thread.i.i.i.i.i.i.i ], [ %12, %bb3.i.i.i.i.i.i.i ]
  %_16.i26.i.i.i14.i.i.i.i.i.i = phi ptr [ %_16.i.i.i.i.i.i.i.i.i.i, %bb3.thread.i.i.i.i.i.i.i ], [ %iter.sroa.1179.1.i.i.i, %bb3.i.i.i.i.i.i.i ]
  %_0.sroa.4.0.i.ph.i19.i.i.i.i.i.i.i = phi i32 [ %_7.i.i.i.i.i.i.i.i.i, %bb3.thread.i.i.i.i.i.i.i ], [ %_0.sroa.4.0.i.ph.i.i.i.i.i.i.i.i, %bb3.i.i.i.i.i.i.i ]
  %13 = add nsw i32 %_0.sroa.4.0.i.ph.i19.i.i.i.i.i.i.i, -48
  %_9.sroa.0.0.off0.i.i.i.i.i.i.i.i.i.i = icmp ult i32 %13, 10
  %14 = and i32 %_0.sroa.4.0.i.ph.i19.i.i.i.i.i.i.i, 95
  %15 = add nsw i32 %14, -65
  %16 = icmp ult i32 %15, 26
  %17 = or i1 %_9.sroa.0.0.off0.i.i.i.i.i.i.i.i.i.i, %16
  br i1 %17, label %bb5.i.i.i.i.i.i, label %bb3.i.i.i

bb16.i.i.i.i.i.i.i.i.i.i:                         ; preds = %bb2.i.i.i.i.i.i.i.i.i.i
; invoke core::unicode::unicode_data::alphabetic::lookup_slow
  %_5.i.i.i.i.i.i.i.i.i2.i = invoke noundef zeroext i1 @_RNvNtNtNtCsjMrxcFdYDNN_4core7unicode12unicode_data10alphabetic11lookup_slow(i32 noundef range(i32 0, 1114112) %_0.sroa.4.0.i.ph.i.i.i.i.i.i.i.i) #21
          to label %_5.i.i.i.i.i.i.i.i.i.noexc.i unwind label %cleanup.loopexit.split-lp.loopexit.i, !noalias !358

_5.i.i.i.i.i.i.i.i.i.noexc.i:                     ; preds = %bb16.i.i.i.i.i.i.i.i.i.i
  br i1 %_5.i.i.i.i.i.i.i.i.i2.i, label %bb5.i.i.i.i.i.i, label %bb4.i.i.i.i.i.i.i.i.i.i

bb4.i.i.i.i.i.i.i.i.i.i:                          ; preds = %_5.i.i.i.i.i.i.i.i.i.noexc.i
  %_17.i.i.i.i.i.i.i.i.i.i = icmp samesign ugt i32 %_0.sroa.4.0.i.ph.i.i.i.i.i.i.i.i, 177
  br i1 %_17.i.i.i.i.i.i.i.i.i.i, label %_RNvXs3_NtNtCsjMrxcFdYDNN_4core3str7patternNCINvCs2f1hMIlW3Va_4heck9transformNvBJ_9lowercaseNCNvXs_NtBJ_5kebabINtB1y_11AsKebabCaseReENtNtB9_3fmt7Display3fmt0E0NtB5_11MultiCharEq7matchesBJ_.exit.i.i.i.i.i.i.i, label %bb3.i.i.i

_RNvXs3_NtNtCsjMrxcFdYDNN_4core3str7patternNCINvCs2f1hMIlW3Va_4heck9transformNvBJ_9lowercaseNCNvXs_NtBJ_5kebabINtB1y_11AsKebabCaseReENtNtB9_3fmt7Display3fmt0E0NtB5_11MultiCharEq7matchesBJ_.exit.i.i.i.i.i.i.i: ; preds = %bb4.i.i.i.i.i.i.i.i.i.i
; invoke core::unicode::unicode_data::n::lookup_slow
  %18 = invoke noundef zeroext i1 @_RNvNtNtNtCsjMrxcFdYDNN_4core7unicode12unicode_data1n11lookup_slow(i32 noundef range(i32 0, 1114112) %_0.sroa.4.0.i.ph.i.i.i.i.i.i.i.i) #21
          to label %.noexc.i unwind label %cleanup.loopexit.split-lp.loopexit.i, !noalias !358

.noexc.i:                                         ; preds = %_RNvXs3_NtNtCsjMrxcFdYDNN_4core3str7patternNCINvCs2f1hMIlW3Va_4heck9transformNvBJ_9lowercaseNCNvXs_NtBJ_5kebabINtB1y_11AsKebabCaseReENtNtB9_3fmt7Display3fmt0E0NtB5_11MultiCharEq7matchesBJ_.exit.i.i.i.i.i.i.i
  br i1 %18, label %bb5.i.i.i.i.i.i, label %bb3.i.i.i

bb5.i.i.i.i.i.i:                                  ; preds = %.noexc.i, %_5.i.i.i.i.i.i.i.i.i.noexc.i, %bb1.i.i.i.i.i.i.i.i.i.i
  %iter.sroa.17.2.i.i.i = phi i64 [ %iter.sroa.17.4.i.i.i, %bb1.i.i.i.i.i.i.i.i.i.i ], [ %12, %_5.i.i.i.i.i.i.i.i.i.noexc.i ], [ %12, %.noexc.i ]
  %iter.sroa.1179.3.i.i.i = phi ptr [ %_16.i26.i.i.i14.i.i.i.i.i.i, %bb1.i.i.i.i.i.i.i.i.i.i ], [ %iter.sroa.1179.1.i.i.i, %_5.i.i.i.i.i.i.i.i.i.noexc.i ], [ %iter.sroa.1179.1.i.i.i, %.noexc.i ]
  %_6.i.i.i.i.i.i.i.i.i.i = icmp eq ptr %iter.sroa.1179.3.i.i.i, %_7.i.i.i.i.i
  br i1 %_6.i.i.i.i.i.i.i.i.i.i, label %bb3.i.i.i, label %bb14.i.i.i.i.i.i.i.i.i

bb3.i.i.i:                                        ; preds = %bb5.i.i.i.i.i.i, %.noexc.i, %bb4.i.i.i.i.i.i.i.i.i.i, %bb1.i.i.i.i.i.i.i.i.i.i, %bb2.i.i.i.i.i.i.i.i.i.i, %bb2.i.i.i.i
  %iter.sroa.22.1.ph.off0.i.i.i = phi i1 [ true, %bb2.i.i.i.i ], [ false, %.noexc.i ], [ false, %bb4.i.i.i.i.i.i.i.i.i.i ], [ false, %bb1.i.i.i.i.i.i.i.i.i.i ], [ false, %bb2.i.i.i.i.i.i.i.i.i.i ], [ true, %bb5.i.i.i.i.i.i ]
  %iter.sroa.17.5.ph.i.i.i = phi i64 [ %iter.sroa.17.0148.i.i.i, %bb2.i.i.i.i ], [ %12, %.noexc.i ], [ %12, %bb4.i.i.i.i.i.i.i.i.i.i ], [ %iter.sroa.17.4.i.i.i, %bb1.i.i.i.i.i.i.i.i.i.i ], [ %12, %bb2.i.i.i.i.i.i.i.i.i.i ], [ %iter.sroa.17.2.i.i.i, %bb5.i.i.i.i.i.i ]
  %iter.sroa.1179.6.ph.i.i.i = phi ptr [ %iter.sroa.1179.0149.i.i.i, %bb2.i.i.i.i ], [ %iter.sroa.1179.1.i.i.i, %.noexc.i ], [ %iter.sroa.1179.1.i.i.i, %bb4.i.i.i.i.i.i.i.i.i.i ], [ %_16.i26.i.i.i14.i.i.i.i.i.i, %bb1.i.i.i.i.i.i.i.i.i.i ], [ %iter.sroa.1179.1.i.i.i, %bb2.i.i.i.i.i.i.i.i.i.i ], [ %iter.sroa.1179.3.i.i.i, %bb5.i.i.i.i.i.i ]
  %iter.sroa.0.1.ph.i.i.i = phi i64 [ %iter.sroa.0.0151.i.i.i, %bb2.i.i.i.i ], [ %12, %.noexc.i ], [ %12, %bb4.i.i.i.i.i.i.i.i.i.i ], [ %iter.sroa.17.4.i.i.i, %bb1.i.i.i.i.i.i.i.i.i.i ], [ %12, %bb2.i.i.i.i.i.i.i.i.i.i ], [ %iter.sroa.0.0151.i.i.i, %bb5.i.i.i.i.i.i ]
  %s.1.pn.i.i.i = phi i64 [ %self.1, %bb2.i.i.i.i ], [ %4, %.noexc.i ], [ %4, %bb4.i.i.i.i.i.i.i.i.i.i ], [ %4, %bb1.i.i.i.i.i.i.i.i.i.i ], [ %4, %bb2.i.i.i.i.i.i.i.i.i.i ], [ %self.1, %bb5.i.i.i.i.i.i ]
  %_0.sroa.0.1.i.ph.i.i.i = getelementptr inbounds nuw i8, ptr %self.0, i64 %iter.sroa.0.0151.i.i.i
  %_0.sroa.4.1.i.ph.i.i.i = sub nuw i64 %s.1.pn.i.i.i, %iter.sroa.0.0151.i.i.i
  %_69.i.i.i = getelementptr inbounds nuw i8, ptr %self.0, i64 %s.1.pn.i.i.i
  br label %bb5.i.i.i.outer

bb5.i.i.i.outer:                                  ; preds = %bb5.i.i.i.outer.backedge, %bb3.i.i.i
  %char_indices.sroa.0.0.i.i.i.ph = phi ptr [ %_0.sroa.0.1.i.ph.i.i.i, %bb3.i.i.i ], [ %char_indices.sroa.0.4.i.i.i, %bb5.i.i.i.outer.backedge ]
  %char_indices.sroa.17.0.i.i.i.ph = phi i64 [ 0, %bb3.i.i.i ], [ %30, %bb5.i.i.i.outer.backedge ]
  %char_indices.sroa.22.1.i.i.i.ph = phi i64 [ %char_indices.sroa.22.0150.i.i.i, %bb3.i.i.i ], [ %char_indices.sroa.17.1196.i.i.i, %bb5.i.i.i.outer.backedge ]
  %char_indices.sroa.25.0.i.i.i.ph = phi i32 [ 1114113, %bb3.i.i.i ], [ %_0.sroa.4.0.i.ph.i.i.i.i.i.i, %bb5.i.i.i.outer.backedge ]
  %init.sroa.0.0.i.i.i.ph = phi i64 [ 0, %bb3.i.i.i ], [ %init.sroa.0.0.i.i.i.ph.be, %bb5.i.i.i.outer.backedge ]
  %first_word.sroa.0.1.off0.i.i.i.ph = phi i1 [ %first_word.sroa.0.0.off0153.i.i.i, %bb3.i.i.i ], [ false, %bb5.i.i.i.outer.backedge ]
  br label %bb5.i.i.i

bb5.i.i.i:                                        ; preds = %bb5.i.i.i.backedge, %bb5.i.i.i.outer
  %char_indices.sroa.0.0.i.i.i = phi ptr [ %char_indices.sroa.0.0.i.i.i.ph, %bb5.i.i.i.outer ], [ %char_indices.sroa.0.4.i.i.i, %bb5.i.i.i.backedge ]
  %char_indices.sroa.17.0.i.i.i = phi i64 [ %char_indices.sroa.17.0.i.i.i.ph, %bb5.i.i.i.outer ], [ %30, %bb5.i.i.i.backedge ]
  %char_indices.sroa.22.1.i.i.i = phi i64 [ %char_indices.sroa.22.1.i.i.i.ph, %bb5.i.i.i.outer ], [ %char_indices.sroa.17.1196.i.i.i, %bb5.i.i.i.backedge ]
  %char_indices.sroa.25.0.i.i.i = phi i32 [ %char_indices.sroa.25.0.i.i.i.ph, %bb5.i.i.i.outer ], [ %_0.sroa.4.0.i.ph.i.i.i.i.i.i, %bb5.i.i.i.backedge ]
  %mode.sroa.0.0.i.i.i = phi i8 [ 0, %bb5.i.i.i.outer ], [ %next_mode.sroa.0.0.i.i.i, %bb5.i.i.i.backedge ]
  %cond.i.i = icmp eq i32 %char_indices.sroa.25.0.i.i.i, 1114113
  %19 = ptrtoint ptr %char_indices.sroa.0.0.i.i.i to i64
  br i1 %cond.i.i, label %bb47.i.i.i, label %bb1.i.i.i.i

bb47.i.i.i:                                       ; preds = %bb5.i.i.i
  %_6.i.i.i.i.i.i = icmp eq ptr %char_indices.sroa.0.0.i.i.i, %_69.i.i.i
  br i1 %_6.i.i.i.i.i.i, label %bb35.i.i.i, label %bb14.i.i.i.i.i

bb14.i.i.i.i.i:                                   ; preds = %bb47.i.i.i
  %_16.i.i.i.i.i.i = getelementptr inbounds nuw i8, ptr %char_indices.sroa.0.0.i.i.i, i64 1
  %x.i.i.i.i.i = load i8, ptr %char_indices.sroa.0.0.i.i.i, align 1, !alias.scope !361, !noalias !383, !noundef !2
  %_6.i.i.i.i.i = icmp sgt i8 %x.i.i.i.i.i, -1
  br i1 %_6.i.i.i.i.i, label %bb3.i.i.i.i.i, label %bb4.i.i.i.i.i

bb4.i.i.i.i.i:                                    ; preds = %bb14.i.i.i.i.i
  %_30.i.i.i.i.i = and i8 %x.i.i.i.i.i, 31
  %init.i.i.i.i.i = zext nneg i8 %_30.i.i.i.i.i to i32
  %_6.i10.i.i.i.i.i = icmp ne ptr %_16.i.i.i.i.i.i, %_69.i.i.i
  call void @llvm.assume(i1 %_6.i10.i.i.i.i.i)
  %_16.i12.i.i.i.i.i = getelementptr inbounds nuw i8, ptr %char_indices.sroa.0.0.i.i.i, i64 2
  %y.i.i.i.i.i = load i8, ptr %_16.i.i.i.i.i.i, align 1, !alias.scope !361, !noalias !383, !noundef !2
  %_33.i.i.i.i.i = shl nuw nsw i32 %init.i.i.i.i.i, 6
  %_35.i.i.i.i.i = and i8 %y.i.i.i.i.i, 63
  %_34.i.i.i.i.i = zext nneg i8 %_35.i.i.i.i.i to i32
  %20 = or disjoint i32 %_33.i.i.i.i.i, %_34.i.i.i.i.i
  %_13.i.i.i.i.i = icmp samesign ugt i8 %x.i.i.i.i.i, -33
  br i1 %_13.i.i.i.i.i, label %bb6.i.i.i.i.i, label %bb50.thread189.i.i.i

bb3.i.i.i.i.i:                                    ; preds = %bb14.i.i.i.i.i
  %_7.i.i42.i.i.i = zext nneg i8 %x.i.i.i.i.i to i32
  br label %bb50.thread189.i.i.i

bb6.i.i.i.i.i:                                    ; preds = %bb4.i.i.i.i.i
  %_6.i17.i.i.i.i.i = icmp ne ptr %_16.i12.i.i.i.i.i, %_69.i.i.i
  call void @llvm.assume(i1 %_6.i17.i.i.i.i.i)
  %_16.i19.i.i.i.i.i = getelementptr inbounds nuw i8, ptr %char_indices.sroa.0.0.i.i.i, i64 3
  %z.i.i.i.i.i = load i8, ptr %_16.i12.i.i.i.i.i, align 1, !alias.scope !361, !noalias !383, !noundef !2
  %_38.i.i.i.i.i = shl nuw nsw i32 %_34.i.i.i.i.i, 6
  %_40.i.i.i.i.i = and i8 %z.i.i.i.i.i, 63
  %_39.i.i.i.i.i = zext nneg i8 %_40.i.i.i.i.i to i32
  %y_z.i.i.i.i.i = or disjoint i32 %_38.i.i.i.i.i, %_39.i.i.i.i.i
  %_20.i.i.i.i.i = shl nuw nsw i32 %init.i.i.i.i.i, 12
  %21 = or disjoint i32 %y_z.i.i.i.i.i, %_20.i.i.i.i.i
  %_21.i.i.i.i.i = icmp samesign ugt i8 %x.i.i.i.i.i, -17
  br i1 %_21.i.i.i.i.i, label %bb8.i.i.i.i.i, label %bb50.thread189.i.i.i

bb8.i.i.i.i.i:                                    ; preds = %bb6.i.i.i.i.i
  %_6.i24.i.i.i.i.i = icmp ne ptr %_16.i19.i.i.i.i.i, %_69.i.i.i
  call void @llvm.assume(i1 %_6.i24.i.i.i.i.i)
  %_16.i26.i.i.i.i.i = getelementptr inbounds nuw i8, ptr %char_indices.sroa.0.0.i.i.i, i64 4
  %w.i.i.i.i.i = load i8, ptr %_16.i19.i.i.i.i.i, align 1, !alias.scope !361, !noalias !383, !noundef !2
  %_26.i.i.i.i.i = shl nuw nsw i32 %init.i.i.i.i.i, 18
  %_25.i.i.i.i.i = and i32 %_26.i.i.i.i.i, 1835008
  %_43.i.i.i.i.i = shl nuw nsw i32 %y_z.i.i.i.i.i, 6
  %_45.i.i.i.i.i = and i8 %w.i.i.i.i.i, 63
  %_44.i.i.i.i.i = zext nneg i8 %_45.i.i.i.i.i to i32
  %_27.i.i.i.i.i = or disjoint i32 %_43.i.i.i.i.i, %_44.i.i.i.i.i
  %22 = or disjoint i32 %_27.i.i.i.i.i, %_25.i.i.i.i.i
  br label %bb50.thread189.i.i.i

bb50.thread189.i.i.i:                             ; preds = %bb8.i.i.i.i.i, %bb6.i.i.i.i.i, %bb3.i.i.i.i.i, %bb4.i.i.i.i.i
  %char_indices.sroa.0.2.i.i.i = phi ptr [ %_16.i.i.i.i.i.i, %bb3.i.i.i.i.i ], [ %_16.i26.i.i.i.i.i, %bb8.i.i.i.i.i ], [ %_16.i19.i.i.i.i.i, %bb6.i.i.i.i.i ], [ %_16.i12.i.i.i.i.i, %bb4.i.i.i.i.i ]
  %_0.sroa.4.0.i.ph.i.i.i.i = phi i32 [ %_7.i.i42.i.i.i, %bb3.i.i.i.i.i ], [ %22, %bb8.i.i.i.i.i ], [ %21, %bb6.i.i.i.i.i ], [ %20, %bb4.i.i.i.i.i ]
  %23 = ptrtoint ptr %char_indices.sroa.0.2.i.i.i to i64
  %_10.i.i.i.i = sub i64 %char_indices.sroa.17.0.i.i.i, %19
  %24 = add i64 %_10.i.i.i.i, %23
  br label %bb1.i.i.i.i

bb1.i.i.i.i:                                      ; preds = %bb50.thread189.i.i.i, %bb5.i.i.i
  %.pre-phi.i.i = phi i64 [ %23, %bb50.thread189.i.i.i ], [ %19, %bb5.i.i.i ]
  %_15.sroa.8.0198.i.i.i = phi i32 [ %_0.sroa.4.0.i.ph.i.i.i.i, %bb50.thread189.i.i.i ], [ %char_indices.sroa.25.0.i.i.i, %bb5.i.i.i ]
  %_15.sroa.0.0197.i.i.i = phi i64 [ %char_indices.sroa.17.0.i.i.i, %bb50.thread189.i.i.i ], [ %char_indices.sroa.22.1.i.i.i, %bb5.i.i.i ]
  %char_indices.sroa.17.1196.i.i.i = phi i64 [ %24, %bb50.thread189.i.i.i ], [ %char_indices.sroa.17.0.i.i.i, %bb5.i.i.i ]
  %char_indices.sroa.0.1195.i.i.i = phi ptr [ %char_indices.sroa.0.2.i.i.i, %bb50.thread189.i.i.i ], [ %char_indices.sroa.0.0.i.i.i, %bb5.i.i.i ]
  %_6.i.i.i.i.i.i.i.i = icmp eq ptr %char_indices.sroa.0.1195.i.i.i, %_69.i.i.i
  br i1 %_6.i.i.i.i.i.i.i.i, label %bb52.i.i.i, label %bb14.i.i.i.i.i.i.i

bb14.i.i.i.i.i.i.i:                               ; preds = %bb1.i.i.i.i
  %_16.i.i.i.i.i.i.i.i = getelementptr inbounds nuw i8, ptr %char_indices.sroa.0.1195.i.i.i, i64 1
  %x.i.i.i.i.i.i.i = load i8, ptr %char_indices.sroa.0.1195.i.i.i, align 1, !alias.scope !361, !noalias !388, !noundef !2
  %_6.i.i.i.i.i.i.i = icmp sgt i8 %x.i.i.i.i.i.i.i, -1
  br i1 %_6.i.i.i.i.i.i.i, label %bb3.i.i.i.i43.i.i.i, label %bb4.i.i.i.i.i.i.i

bb4.i.i.i.i.i.i.i:                                ; preds = %bb14.i.i.i.i.i.i.i
  %_30.i.i.i.i.i.i.i = and i8 %x.i.i.i.i.i.i.i, 31
  %init.i.i.i.i.i.i.i = zext nneg i8 %_30.i.i.i.i.i.i.i to i32
  %_6.i10.i.i.i.i.i.i.i = icmp ne ptr %_16.i.i.i.i.i.i.i.i, %_69.i.i.i
  call void @llvm.assume(i1 %_6.i10.i.i.i.i.i.i.i)
  %_16.i12.i.i.i.i.i.i.i = getelementptr inbounds nuw i8, ptr %char_indices.sroa.0.1195.i.i.i, i64 2
  %y.i.i.i.i.i.i.i = load i8, ptr %_16.i.i.i.i.i.i.i.i, align 1, !alias.scope !361, !noalias !388, !noundef !2
  %_33.i.i.i.i.i.i.i = shl nuw nsw i32 %init.i.i.i.i.i.i.i, 6
  %_35.i.i.i.i.i.i.i = and i8 %y.i.i.i.i.i.i.i, 63
  %_34.i.i.i.i.i.i.i = zext nneg i8 %_35.i.i.i.i.i.i.i to i32
  %25 = or disjoint i32 %_33.i.i.i.i.i.i.i, %_34.i.i.i.i.i.i.i
  %_13.i.i.i.i.i.i.i = icmp samesign ugt i8 %x.i.i.i.i.i.i.i, -33
  br i1 %_13.i.i.i.i.i.i.i, label %bb6.i.i.i.i.i.i.i, label %bb53.i.i.i

bb3.i.i.i.i43.i.i.i:                              ; preds = %bb14.i.i.i.i.i.i.i
  %_7.i.i.i.i.i.i.i = zext nneg i8 %x.i.i.i.i.i.i.i to i32
  br label %bb53.i.i.i

bb6.i.i.i.i.i.i.i:                                ; preds = %bb4.i.i.i.i.i.i.i
  %_6.i17.i.i.i.i.i.i.i = icmp ne ptr %_16.i12.i.i.i.i.i.i.i, %_69.i.i.i
  call void @llvm.assume(i1 %_6.i17.i.i.i.i.i.i.i)
  %_16.i19.i.i.i.i.i.i.i = getelementptr inbounds nuw i8, ptr %char_indices.sroa.0.1195.i.i.i, i64 3
