; ModuleID = 'indicatif.f6c65ee467000866-cgu.0'
source_filename = "indicatif.f6c65ee467000866-cgu.0"
target datalayout = "e-m:o-p270:32:32-p271:32:32-p272:64:64-i64:64-i128:128-n32:64-S128-Fn32"
target triple = "arm64-apple-macosx11.0.0"

%"core::sync::atomic::AtomicUsize" = type { i64 }
%"std::sys::thread_local::native::lazy::Storage<core::cell::Cell<(u64, u64)>, !>" = type { %"core::cell::UnsafeCell<core::mem::maybe_uninit::MaybeUninit<core::cell::Cell<(u64, u64)>>>", i8, [7 x i8] }
%"core::cell::UnsafeCell<core::mem::maybe_uninit::MaybeUninit<core::cell::Cell<(u64, u64)>>>" = type { %"core::mem::maybe_uninit::MaybeUninit<core::cell::Cell<(u64, u64)>>" }
%"core::mem::maybe_uninit::MaybeUninit<core::cell::Cell<(u64, u64)>>" = type { [2 x i64] }
%"once_cell::sync::Lazy<core::sync::atomic::AtomicBool>" = type { %"once_cell::sync::OnceCell<core::sync::atomic::AtomicBool>", ptr }
%"once_cell::sync::OnceCell<core::sync::atomic::AtomicBool>" = type { %"once_cell::imp::OnceCell<core::sync::atomic::AtomicBool>" }
%"once_cell::imp::OnceCell<core::sync::atomic::AtomicBool>" = type { %"core::sync::atomic::AtomicPtr<once_cell::imp::Waiter>", %"core::cell::UnsafeCell<core::option::Option<core::sync::atomic::AtomicBool>>", [6 x i8] }
%"core::sync::atomic::AtomicPtr<once_cell::imp::Waiter>" = type { ptr }
%"core::cell::UnsafeCell<core::option::Option<core::sync::atomic::AtomicBool>>" = type { %"core::option::Option<core::sync::atomic::AtomicBool>" }
%"core::option::Option<core::sync::atomic::AtomicBool>" = type { i8, [1 x i8] }
%"unicode_width::tables::Align128<[u8; 256]>" = type { [256 x i8] }
%"unicode_width::tables::Align64<[[u8; 64]; 20]>" = type { [20 x [64 x i8]] }
%"unicode_width::tables::Align32<[[u8; 32]; 186]>" = type { [186 x [32 x i8]] }
%"unicode_width::tables::Align128<[[u8; 128]; 7]>" = type { [7 x [128 x i8]] }
%"multi::MultiStateMember" = type { %"core::option::Option<draw_target::DrawState>", i8, [7 x i8] }
%"core::option::Option<draw_target::DrawState>" = type { i64, [3 x i64] }
%"draw_target::LineType" = type { i64, [3 x i64] }
%"alloc::boxed::Box<dyn core::ops::function::FnOnce() + core::marker::Send>" = type { %"core::ptr::unique::Unique<dyn core::ops::function::FnOnce() + core::marker::Send>", %"alloc::alloc::Global" }
%"core::ptr::unique::Unique<dyn core::ops::function::FnOnce() + core::marker::Send>" = type { %"core::ptr::non_null::NonNull<dyn core::ops::function::FnOnce() + core::marker::Send>", %"core::marker::PhantomData<dyn core::ops::function::FnOnce() + core::marker::Send>" }
%"core::ptr::non_null::NonNull<dyn core::ops::function::FnOnce() + core::marker::Send>" = type { { ptr, ptr } }
%"core::marker::PhantomData<dyn core::ops::function::FnOnce() + core::marker::Send>" = type {}
%"alloc::alloc::Global" = type {}
%"alloc::boxed::Box<str>" = type { %"core::ptr::unique::Unique<str>", %"alloc::alloc::Global" }
%"core::ptr::unique::Unique<str>" = type { %"core::ptr::non_null::NonNull<str>", %"core::marker::PhantomData<str>" }
%"core::ptr::non_null::NonNull<str>" = type { { ptr, i64 } }
%"core::marker::PhantomData<str>" = type {}
%"style::TemplatePart" = type { i64, [11 x i64] }
%"alloc::boxed::Box<dyn style::ProgressTracker>" = type { %"core::ptr::unique::Unique<dyn style::ProgressTracker>", %"alloc::alloc::Global" }
%"core::ptr::unique::Unique<dyn style::ProgressTracker>" = type { %"core::ptr::non_null::NonNull<dyn style::ProgressTracker>", %"core::marker::PhantomData<dyn style::ProgressTracker>" }
%"core::ptr::non_null::NonNull<dyn style::ProgressTracker>" = type { { ptr, ptr } }
%"core::marker::PhantomData<dyn style::ProgressTracker>" = type {}
%"core::mem::maybe_uninit::MaybeUninit<style::TemplatePart>" = type { [12 x i64] }
%"core::time::Duration" = type { i64, i32, [1 x i32] }
%"core::mem::maybe_uninit::MaybeUninit<alloc::boxed::Box<str>>" = type { [2 x i64] }

@vtable.0 = private unnamed_addr constant <{ [24 x i8], ptr, ptr }> <{ [24 x i8] c"\00\00\00\00\00\00\00\00\08\00\00\00\00\00\00\00\08\00\00\00\00\00\00\00", ptr @_RNSNvYNCINvMs0_NtNtCs5sEH5CPMdak_3std4sync4onceNtBd_4Once15call_once_forceNCINvMNtBf_9once_lockINtB1g_8OnceLockNtNtCsdJPVW0sQgAG_5alloc6string6StringE10initializeNCINvB1f_11get_or_initNCNvB1f_10try_insert0E0zE0E0INtNtNtCsjMrxcFdYDNN_4core3ops8function6FnOnceTRNtBd_9OnceStateEE9call_once6vtableCslbzLHi4tcfW_9indicatif, ptr @_RNCINvMs0_NtNtCs5sEH5CPMdak_3std4sync4onceNtB8_4Once15call_once_forceNCINvMNtBa_9once_lockINtB1b_8OnceLockNtNtCsdJPVW0sQgAG_5alloc6string6StringE10initializeNCINvB1a_11get_or_initNCNvB1a_10try_insert0E0zE0E0CslbzLHi4tcfW_9indicatif }>, align 8
@alloc_8abc8245dd622154cb39537f390f45d3 = private unnamed_addr constant [117 x i8] c"/Users/hongyaotang/.rustup/toolchains/nightly-aarch64-apple-darwin/lib/rustlib/src/rust/library/std/src/sync/once.rs\00", align 1
@alloc_8378aaebaad91fef47ffcd13bea9f999 = private unnamed_addr constant <{ ptr, [16 x i8] }> <{ ptr @alloc_8abc8245dd622154cb39537f390f45d3, [16 x i8] c"t\00\00\00\00\00\00\00\DB\00\00\00\14\00\00\00" }>, align 8
@vtable.1 = private unnamed_addr constant <{ [24 x i8], ptr, ptr }> <{ [24 x i8] c"\00\00\00\00\00\00\00\00\08\00\00\00\00\00\00\00\08\00\00\00\00\00\00\00", ptr @_RNSNvYNCINvMs0_NtNtCs5sEH5CPMdak_3std4sync4onceNtBd_4Once15call_once_forceNCINvMNtBf_9once_lockINtB1g_8OnceLockNtNtCsdJPVW0sQgAG_5alloc6string6StringE10initializeNCINvB1f_11get_or_initNCNvMs1_NtCslbzLHi4tcfW_9indicatif5stateNtB34_17TabExpandedString8expanded0E0zE0E0INtNtNtCsjMrxcFdYDNN_4core3ops8function6FnOnceTRNtBd_9OnceStateEE9call_once6vtableB36_, ptr @_RNCINvMs0_NtNtCs5sEH5CPMdak_3std4sync4onceNtB8_4Once15call_once_forceNCINvMNtBa_9once_lockINtB1b_8OnceLockNtNtCsdJPVW0sQgAG_5alloc6string6StringE10initializeNCINvB1a_11get_or_initNCNvMs1_NtCslbzLHi4tcfW_9indicatif5stateNtB2Z_17TabExpandedString8expanded0E0zE0E0B31_ }>, align 8
@alloc_a500d906b91607583596fa15e63c2ada = private unnamed_addr constant [40 x i8] c"internal error: entered unreachable code", align 1
@vtable.2 = private unnamed_addr constant <{ [24 x i8], ptr, ptr }> <{ [24 x i8] c"\00\00\00\00\00\00\00\00\18\00\00\00\00\00\00\00\08\00\00\00\00\00\00\00", ptr @_RNSNvYNCINvMs2_NtCsdBIbacKQwMq_9once_cell3impINtBd_8OnceCellNtNtNtCsjMrxcFdYDNN_4core4sync6atomic10AtomicBoolE10initializeNCINvMs4_NtBf_4syncINtB25_8OnceCellBW_E11get_or_initNCNvMs9_B25_INtB25_4LazyBW_E5force0E0NtNvMs4_B25_IB2g_pE11get_or_init4VoidE0INtNtNtB12_3ops8function6FnOnceuE9call_once6vtableCslbzLHi4tcfW_9indicatif, ptr @_RNCINvMs2_NtCsdBIbacKQwMq_9once_cell3impINtB8_8OnceCellNtNtNtCsjMrxcFdYDNN_4core4sync6atomic10AtomicBoolE10initializeNCINvMs4_NtBa_4syncINtB20_8OnceCellBR_E11get_or_initNCNvMs9_B20_INtB20_4LazyBR_E5force0E0NtNvMs4_B20_IB2b_pE11get_or_init4VoidE0CslbzLHi4tcfW_9indicatif }>, align 8
@vtable.3 = private unnamed_addr constant <{ [24 x i8], ptr }> <{ [24 x i8] c"\00\00\00\00\00\00\00\00\08\00\00\00\00\00\00\00\08\00\00\00\00\00\00\00", ptr @_RNvXs1g_NtCsjMrxcFdYDNN_4core3fmtRNtNtCslbzLHi4tcfW_9indicatif11draw_target8LineTypeNtB6_5Debug3fmtBA_ }>, align 8
@_RNvNtNtCs5sEH5CPMdak_3std9panicking11panic_count18GLOBAL_PANIC_COUNT = external local_unnamed_addr global %"core::sync::atomic::AtomicUsize"
@alloc_faf2ef348569f98b52b07497c1b04c5d = private unnamed_addr constant [1 x i8] c"\0D", align 1
@alloc_c7af9477d1c45d5fab7b9a71c57c1627 = private unnamed_addr constant [109 x i8] c"/Users/hongyaotang/.cargo/registry/src/index.crates.io-1949cf8c6b5b557f/indicatif-0.17.11/src/draw_target.rs\00", align 1
@alloc_a51357dfbcca0800220965a98e80088f = private unnamed_addr constant [132 x i8] c"/Users/hongyaotang/.rustup/toolchains/nightly-aarch64-apple-darwin/lib/rustlib/src/rust/library/alloc/src/collections/btree/node.rs\00", align 1
@alloc_36e9d3034d1040a1b97b71beadbdf183 = private unnamed_addr constant <{ ptr, [16 x i8] }> <{ ptr @alloc_a51357dfbcca0800220965a98e80088f, [16 x i8] c"\83\00\00\00\00\00\00\00\F0\00\00\00M\00\00\00" }>, align 8
@alloc_69009fdc319497586282719e739ab5f8 = private unnamed_addr constant [136 x i8] c"/Users/hongyaotang/.rustup/toolchains/nightly-aarch64-apple-darwin/lib/rustlib/src/rust/library/alloc/src/collections/btree/navigate.rs\00", align 1
@alloc_1df1e5171bffdf21494df69d159bd444 = private unnamed_addr constant <{ ptr, [16 x i8] }> <{ ptr @alloc_69009fdc319497586282719e739ab5f8, [16 x i8] c"\87\00\00\00\00\00\00\00\C6\00\00\00'\00\00\00" }>, align 8
@alloc_7fe94be2e120ffbd80c490b1b3c481ee = private unnamed_addr constant [120 x i8] c"/Users/hongyaotang/.rustup/toolchains/nightly-aarch64-apple-darwin/lib/rustlib/src/rust/library/core/src/str/pattern.rs\00", align 1
@alloc_2bd3b8890b9559f1d5fa47166d6aa71d = private unnamed_addr constant [114 x i8] c"/Users/hongyaotang/.rustup/toolchains/nightly-aarch64-apple-darwin/lib/rustlib/src/rust/library/std/src/io/mod.rs\00", align 1
@vtable.6 = private unnamed_addr constant <{ ptr, [16 x i8], ptr }> <{ ptr @_RINvNtCsjMrxcFdYDNN_4core3ptr13drop_in_placeNCINvNtNtCs5sEH5CPMdak_3std6thread9lifecycle15spawn_uncheckedNCNvMs2_NtCslbzLHi4tcfW_9indicatif12progress_barNtB1N_6Ticker3new0uEs_0EB1P_, [16 x i8] c"H\00\00\00\00\00\00\00\08\00\00\00\00\00\00\00", ptr @_RNSNvYNCINvNtNtCs5sEH5CPMdak_3std6thread9lifecycle15spawn_uncheckedNCNvMs2_NtCslbzLHi4tcfW_9indicatif12progress_barNtB1b_6Ticker3new0uEs_0INtNtNtCsjMrxcFdYDNN_4core3ops8function6FnOnceuE9call_once6vtableB1d_ }>, align 8
@alloc_8dfeaade7298613f26ebcfeb7055dbe5 = private unnamed_addr constant [131 x i8] c"/Users/hongyaotang/.rustup/toolchains/nightly-aarch64-apple-darwin/lib/rustlib/src/rust/library/alloc/src/collections/btree/map.rs\00", align 1
@alloc_9920eb3a27b68c744924927868123423 = private unnamed_addr constant <{ ptr, [16 x i8] }> <{ ptr @alloc_8dfeaade7298613f26ebcfeb7055dbe5, [16 x i8] c"\82\00\00\00\00\00\00\00\0D\01\00\00?\00\00\00" }>, align 8
@alloc_c1513513ba26124585e53db500fc2ad9 = private unnamed_addr constant <{ ptr, [16 x i8] }> <{ ptr @alloc_8abc8245dd622154cb39537f390f45d3, [16 x i8] c"t\00\00\00\00\00\00\00\DB\00\00\001\00\00\00" }>, align 8
@alloc_93816f04728d387347072ad30618ff9c = private unnamed_addr constant <{ ptr, [16 x i8] }> <{ ptr @alloc_69009fdc319497586282719e739ab5f8, [16 x i8] c"\87\00\00\00\00\00\00\00X\02\00\000\00\00\00" }>, align 8
@_RNvNCNvNtNtCs5sEH5CPMdak_3std6thread9lifecycle15spawn_unchecked03MIN = external local_unnamed_addr global %"core::sync::atomic::AtomicUsize"
@alloc_7a0078e56453c84a4274ce689b2bb39a = private unnamed_addr constant [14 x i8] c"RUST_MIN_STACK", align 1
@_RNvNCNKNvNvMNtNtCs5sEH5CPMdak_3std4hash6randomNtBa_11RandomState3new4KEYS0s_023___RUST_STD_INTERNAL_VAL = external thread_local local_unnamed_addr global %"std::sys::thread_local::native::lazy::Storage<core::cell::Cell<(u64, u64)>, !>"
@alloc_dba4c8e7ebbc445b04f2c4f157ff0b67 = private unnamed_addr constant [122 x i8] c"/Users/hongyaotang/.rustup/toolchains/nightly-aarch64-apple-darwin/lib/rustlib/src/rust/library/std/src/sync/once_lock.rs\00", align 1
@alloc_a1f9f4dc46cc1ae55813b3da4e21d1b5 = private unnamed_addr constant <{ ptr, [16 x i8] }> <{ ptr @alloc_dba4c8e7ebbc445b04f2c4f157ff0b67, [16 x i8] c"y\00\00\00\00\00\00\00\18\01\00\004\00\00\00" }>, align 8
@anon.b48e250911114c815fdbc18e136165bc.0 = private unnamed_addr constant [64 x i8] c"\A7\AB\AA2\00\00\00\00\00\00\00\00\00\00\00\00\00\00\00\00\00\00\00\00\00\00\00\00\00\00\00\00\00\00\00\00\00\00\00\00\00\00\00\00\00\00\00\00\00\00\00\00\00\00\00\00\00\00\00\00\00\00\00\00", align 8
@alloc_e7155f9cf10893ab2e58393a6c5d3d17 = private unnamed_addr constant [42 x i8] c"Lazy instance has previously been poisoned", align 1
@alloc_0053238bfbdeff72e0f2b9d2c395c6d1 = private unnamed_addr constant [100 x i8] c"/Users/hongyaotang/.cargo/registry/src/index.crates.io-1949cf8c6b5b557f/once_cell-1.21.3/src/lib.rs\00", align 1
@alloc_eec1c8cb3b998e18d2d0c722906f9c5d = private unnamed_addr constant <{ ptr, [16 x i8] }> <{ ptr @alloc_0053238bfbdeff72e0f2b9d2c395c6d1, [16 x i8] c"c\00\00\00\00\00\00\00\1F\05\00\00\19\00\00\00" }>, align 8
@alloc_f275f8d8f51fe62f3d798719d7f71a9d = private unnamed_addr constant <{ ptr, [16 x i8] }> <{ ptr @alloc_69009fdc319497586282719e739ab5f8, [16 x i8] c"\87\00\00\00\00\00\00\00\16\02\00\00/\00\00\00" }>, align 8
@alloc_ec624e15d9bb3661aa139091e904c05f = private unnamed_addr constant [45 x i8] c"got passed un-equal width progress characters", align 1
@alloc_55fbcf8ac9456b120dcf1a5f4eb0c4ed = private unnamed_addr constant [103 x i8] c"/Users/hongyaotang/.cargo/registry/src/index.crates.io-1949cf8c6b5b557f/indicatif-0.17.11/src/style.rs\00", align 1
@alloc_cdecc9e327ad7f63aeb3b0d98aa4af15 = private unnamed_addr constant <{ ptr, [16 x i8] }> <{ ptr @alloc_55fbcf8ac9456b120dcf1a5f4eb0c4ed, [16 x i8] c"f\00\00\00\00\00\00\00=\00\00\00\1E\00\00\00" }>, align 8
@_RNvNtCsC3JuwEIQwb_7console5utils13STDOUT_COLORS = external global %"once_cell::sync::Lazy<core::sync::atomic::AtomicBool>"
@_RNvNtCsC3JuwEIQwb_7console5utils13STDERR_COLORS = external global %"once_cell::sync::Lazy<core::sync::atomic::AtomicBool>"
@alloc_e3f63dfc5120ca765fd660f70b4607f2 = private unnamed_addr constant [113 x i8] c"/Users/hongyaotang/.rustup/toolchains/nightly-aarch64-apple-darwin/lib/rustlib/src/rust/library/core/src/time.rs\00", align 1
@alloc_374c9df73b8540d3e9b0cfbfed1be08c = private unnamed_addr constant [25 x i8] c"overflow in Duration::new", align 1
@alloc_5d41db16abbc0ee739b4ec995c8bb437 = private unnamed_addr constant <{ ptr, [16 x i8] }> <{ ptr @alloc_e3f63dfc5120ca765fd660f70b4607f2, [16 x i8] c"p\00\00\00\00\00\00\00\C9\00\00\00\12\00\00\00" }>, align 8
@vtable.7 = private unnamed_addr constant <{ ptr, [16 x i8], ptr }> <{ ptr @_RINvNtCsjMrxcFdYDNN_4core3ptr13drop_in_placeNtNtNtCs5sEH5CPMdak_3std2io5error5ErrorECslbzLHi4tcfW_9indicatif, [16 x i8] c"\08\00\00\00\00\00\00\00\08\00\00\00\00\00\00\00", ptr @_RNvXNtNtCs5sEH5CPMdak_3std2io5errorNtB2_5ErrorNtNtCsjMrxcFdYDNN_4core3fmt5Debug3fmt }>, align 8
@vtable.8 = private unnamed_addr constant <{ ptr, [16 x i8], ptr }> <{ ptr @_RINvNtCsjMrxcFdYDNN_4core3ptr13drop_in_placeINtNtNtCs5sEH5CPMdak_3std4sync6poison11PoisonErrorINtNtBJ_5mutex10MutexGuardINtNtB4_6option6OptionNtNtCslbzLHi4tcfW_9indicatif12progress_bar6TickerEEEEB2k_, [16 x i8] c"\10\00\00\00\00\00\00\00\08\00\00\00\00\00\00\00", ptr @_RNvXs_NtNtCs5sEH5CPMdak_3std4sync6poisonINtB4_11PoisonErrorINtNtB4_5mutex10MutexGuardINtNtCsjMrxcFdYDNN_4core6option6OptionNtNtCslbzLHi4tcfW_9indicatif12progress_bar6TickerEEENtNtB1q_3fmt5Debug3fmtB21_ }>, align 8
@alloc_00ae4b301f7fab8ac9617c03fcbd7274 = private unnamed_addr constant [43 x i8] c"called `Result::unwrap()` on an `Err` value", align 1
@vtable.9 = private unnamed_addr constant <{ ptr, [16 x i8], ptr }> <{ ptr @_RINvNtCsjMrxcFdYDNN_4core3ptr13drop_in_placeINtNtNtCs5sEH5CPMdak_3std4sync6poison11PoisonErrorINtNtBJ_5mutex10MutexGuardINtNtB4_6option6OptionNtNtCslbzLHi4tcfW_9indicatif12progress_bar6TickerEEEEB2k_, [16 x i8] c"\10\00\00\00\00\00\00\00\08\00\00\00\00\00\00\00", ptr @_RNvXs_NtNtCs5sEH5CPMdak_3std4sync6poisonINtB4_11PoisonErrorINtNtB4_5mutex10MutexGuardINtNtCsjMrxcFdYDNN_4core6option6OptionNtNtCslbzLHi4tcfW_9indicatif12progress_bar6TickerEEENtNtB1q_3fmt5Debug3fmtB21_ }>, align 8
@vtable.a = private unnamed_addr constant <{ ptr, [16 x i8], ptr }> <{ ptr @_RINvNtCsjMrxcFdYDNN_4core3ptr13drop_in_placeINtNtNtCs5sEH5CPMdak_3std4sync6poison11PoisonErrorINtNtBJ_5mutex10MutexGuardINtNtB4_6option6OptionNtNtCslbzLHi4tcfW_9indicatif12progress_bar6TickerEEEEB2k_, [16 x i8] c"\10\00\00\00\00\00\00\00\08\00\00\00\00\00\00\00", ptr @_RNvXs_NtNtCs5sEH5CPMdak_3std4sync6poisonINtB4_11PoisonErrorINtNtB4_5mutex10MutexGuardINtNtCsjMrxcFdYDNN_4core6option6OptionNtNtCslbzLHi4tcfW_9indicatif12progress_bar6TickerEEENtNtB1q_3fmt5Debug3fmtB21_ }>, align 8
@vtable.b = private unnamed_addr constant <{ ptr, [16 x i8], ptr }> <{ ptr @_RINvNtCsjMrxcFdYDNN_4core3ptr13drop_in_placeINtNtNtCs5sEH5CPMdak_3std4sync6poison11PoisonErrorINtNtBJ_6rwlock15RwLockReadGuardNtNtCslbzLHi4tcfW_9indicatif5multi10MultiStateEEEB24_, [16 x i8] c"\10\00\00\00\00\00\00\00\08\00\00\00\00\00\00\00", ptr @_RNvXs_NtNtCs5sEH5CPMdak_3std4sync6poisonINtB4_11PoisonErrorINtNtB4_5mutex10MutexGuardINtNtCsjMrxcFdYDNN_4core6option6OptionNtNtCslbzLHi4tcfW_9indicatif12progress_bar6TickerEEENtNtB1q_3fmt5Debug3fmtB21_ }>, align 8
@vtable.c = private unnamed_addr constant <{ ptr, [16 x i8], ptr }> <{ ptr @_RINvNtCsjMrxcFdYDNN_4core3ptr13drop_in_placeINtNtNtCs5sEH5CPMdak_3std4sync6poison11PoisonErrorINtNtBJ_6rwlock16RwLockWriteGuardNtNtCslbzLHi4tcfW_9indicatif5multi10MultiStateEEEB25_, [16 x i8] c"\10\00\00\00\00\00\00\00\08\00\00\00\00\00\00\00", ptr @_RNvXs_NtNtCs5sEH5CPMdak_3std4sync6poisonINtB4_11PoisonErrorINtNtB4_5mutex10MutexGuardINtNtCsjMrxcFdYDNN_4core6option6OptionNtNtCslbzLHi4tcfW_9indicatif12progress_bar6TickerEEENtNtB1q_3fmt5Debug3fmtB21_ }>, align 8
@vtable.d = private unnamed_addr constant <{ [24 x i8], ptr }> <{ [24 x i8] c"\00\00\00\00\00\00\00\00\08\00\00\00\00\00\00\00\04\00\00\00\00\00\00\00", ptr @_RNvXsf_NtCslbzLHi4tcfW_9indicatif5styleNtB5_13TemplateErrorNtNtCsjMrxcFdYDNN_4core3fmt5Debug3fmt }>, align 8
@vtable.e = private unnamed_addr constant <{ ptr, [16 x i8], ptr }> <{ ptr @_RINvNtCsjMrxcFdYDNN_4core3ptr13drop_in_placeINtNtNtCs5sEH5CPMdak_3std4sync6poison11PoisonErrorTINtNtBJ_5mutex10MutexGuardbENtBL_17WaitTimeoutResultEEECslbzLHi4tcfW_9indicatif, [16 x i8] c"\18\00\00\00\00\00\00\00\08\00\00\00\00\00\00\00", ptr @_RNvXs_NtNtCs5sEH5CPMdak_3std4sync6poisonINtB4_11PoisonErrorINtNtB4_5mutex10MutexGuardINtNtCsjMrxcFdYDNN_4core6option6OptionNtNtCslbzLHi4tcfW_9indicatif12progress_bar6TickerEEENtNtB1q_3fmt5Debug3fmtB21_ }>, align 8
@vtable.g = private unnamed_addr constant <{ [24 x i8], ptr }> <{ [24 x i8] c"\00\00\00\00\00\00\00\00\01\00\00\00\00\00\00\00\01\00\00\00\00\00\00\00", ptr @_RNvXsc_NtNtCsjMrxcFdYDNN_4core3num5errorNtB5_13ParseIntErrorNtNtB9_3fmt5Debug3fmt }>, align 8
@vtable.h = private unnamed_addr constant <{ [24 x i8], ptr }> <{ [24 x i8] c"\00\00\00\00\00\00\00\00\00\00\00\00\00\00\00\00\01\00\00\00\00\00\00\00", ptr @_RNvXsK_NtCsjMrxcFdYDNN_4core3fmtNtB5_5ErrorNtB5_5Debug3fmt }>, align 8
@alloc_dd377d12c3d3861be877a1911800c87e = private unnamed_addr constant <{ ptr, [16 x i8] }> <{ ptr @alloc_c7af9477d1c45d5fab7b9a71c57c1627, [16 x i8] c"l\00\00\00\00\00\00\00\D4\00\00\00+\00\00\00" }>, align 8
@alloc_04c7cd2f2f794852c38c09205de90ac8 = private unnamed_addr constant <{ ptr, [16 x i8] }> <{ ptr @alloc_c7af9477d1c45d5fab7b9a71c57c1627, [16 x i8] c"l\00\00\00\00\00\00\00\91\00\00\00\1B\00\00\00" }>, align 8
@alloc_b84acd537a99c8ed9fd0c11b2f08c618 = private unnamed_addr constant <{ ptr, [16 x i8] }> <{ ptr @alloc_c7af9477d1c45d5fab7b9a71c57c1627, [16 x i8] c"l\00\00\00\00\00\00\00\87\00\00\00A\00\00\00" }>, align 8
@alloc_5b313c0a412662ed451d0a4dcc2032ec = private unnamed_addr constant <{ ptr, [16 x i8] }> <{ ptr @alloc_c7af9477d1c45d5fab7b9a71c57c1627, [16 x i8] c"l\00\00\00\00\00\00\00\B5\00\00\00+\00\00\00" }>, align 8
@alloc_c8eb3b51cb7e52d55d129ec8bf09196f = private unnamed_addr constant <{ ptr, [16 x i8] }> <{ ptr @alloc_c7af9477d1c45d5fab7b9a71c57c1627, [16 x i8] c"l\00\00\00\00\00\00\00~\00\00\00A\00\00\00" }>, align 8
@alloc_b81325ec27e255fb7932c427b9ea38b8 = private unnamed_addr constant <{ ptr, [16 x i8] }> <{ ptr @alloc_55fbcf8ac9456b120dcf1a5f4eb0c4ed, [16 x i8] c"f\00\00\00\00\00\00\00\BA\00\00\00\15\00\00\00" }>, align 8
@alloc_be726558f7d6a1cb12fd4f7043f019f0 = private unnamed_addr constant <{ ptr, [16 x i8] }> <{ ptr @alloc_55fbcf8ac9456b120dcf1a5f4eb0c4ed, [16 x i8] c"f\00\00\00\00\00\00\00\D7\00\00\00&\00\00\00" }>, align 8
@alloc_77b12eda9e569c34c66a409613d0a574 = private unnamed_addr constant [30 x i8] c"at least 2 tick chars required", align 1
@alloc_4465885667aeb3e6162c7fda27052455 = private unnamed_addr constant <{ ptr, [16 x i8] }> <{ ptr @alloc_55fbcf8ac9456b120dcf1a5f4eb0c4ed, [16 x i8] c"f\00\00\00\00\00\00\00s\00\00\00\09\00\00\00" }>, align 8
@alloc_21c8a19ec47abcc32c3581dbc4354ca1 = private unnamed_addr constant [22 x i8] c"{wide_bar} {pos}/{len}", align 1
@alloc_9805e3773c76a7ef163c33664adb1099 = private unnamed_addr constant <{ ptr, [16 x i8] }> <{ ptr @alloc_55fbcf8ac9456b120dcf1a5f4eb0c4ed, [16 x i8] c"f\00\00\00\00\00\00\00G\00\00\00@\00\00\00" }>, align 8
@vtable.i = private unnamed_addr constant <{ ptr, [16 x i8], ptr, ptr, ptr }> <{ ptr @_RINvNtCsjMrxcFdYDNN_4core3ptr13drop_in_placeNtNtCsdJPVW0sQgAG_5alloc6string6StringECslbzLHi4tcfW_9indicatif, [16 x i8] c"\18\00\00\00\00\00\00\00\08\00\00\00\00\00\00\00", ptr @_RNvXsZ_NtCsdJPVW0sQgAG_5alloc6stringNtB5_6StringNtNtCsjMrxcFdYDNN_4core3fmt5Write9write_str, ptr @_RNvXsZ_NtCsdJPVW0sQgAG_5alloc6stringNtB5_6StringNtNtCsjMrxcFdYDNN_4core3fmt5Write10write_char, ptr @_RNvYNtNtCsdJPVW0sQgAG_5alloc6string6StringNtNtCsjMrxcFdYDNN_4core3fmt5Write9write_fmtCslbzLHi4tcfW_9indicatif }>, align 8
@vtable.j = private unnamed_addr constant <{ [24 x i8], ptr, ptr, ptr }> <{ [24 x i8] c"\00\00\00\00\00\00\00\00\18\00\00\00\00\00\00\00\08\00\00\00\00\00\00\00", ptr @_RNvXs_NtCslbzLHi4tcfW_9indicatif5styleNtB4_11TabRewriterNtNtCsjMrxcFdYDNN_4core3fmt5Write9write_str, ptr @_RNvYNtNtCslbzLHi4tcfW_9indicatif5style11TabRewriterNtNtCsjMrxcFdYDNN_4core3fmt5Write10write_charB6_, ptr @_RNvYNtNtCslbzLHi4tcfW_9indicatif5style11TabRewriterNtNtCsjMrxcFdYDNN_4core3fmt5Write9write_fmtB6_ }>, align 8
@alloc_5988d067bf3dec2a5ea2bd312cd868b5 = private unnamed_addr constant [8 x i8] c"wide_bar", align 1
@alloc_bf1555592984a04d9a426688eeb24044 = private unnamed_addr constant [3 x i8] c"bar", align 1
@alloc_0983fe7c050e71756c583d1e972dc601 = private unnamed_addr constant [7 x i8] c"spinner", align 1
@alloc_f8a8a72ca610c4a29538d53197e663be = private unnamed_addr constant [8 x i8] c"wide_msg", align 1
@alloc_bcc4210d92c5b54289a0a0a04dded9e6 = private unnamed_addr constant [3 x i8] c"msg", align 1
@alloc_7647ce2fb76d894745405d00ae662085 = private unnamed_addr constant [6 x i8] c"prefix", align 1
@alloc_d7ff26a801da6a280bf93dc4f310431a = private unnamed_addr constant [3 x i8] c"pos", align 1
@alloc_d25ba7764127b7a9c323f97cfdd09b01 = private unnamed_addr constant [9 x i8] c"human_pos", align 1
@alloc_3b441766bdfc10e2187de45744124408 = private unnamed_addr constant [3 x i8] c"len", align 1
@alloc_5d0d2b57939de4bdbb0acf3fef9409cf = private unnamed_addr constant [9 x i8] c"human_len", align 1
@alloc_994f764095e2bcf5ec22bdb23590f98b = private unnamed_addr constant [7 x i8] c"percent", align 1
@alloc_9287c471ae0b5b0e72f4ea0f9966b4ec = private unnamed_addr constant [15 x i8] c"percent_precise", align 1
@alloc_acd17181645badf5a723ed34c9d31625 = private unnamed_addr constant [5 x i8] c"bytes", align 1
@alloc_7113e47f973476336c6d65039523889d = private unnamed_addr constant [11 x i8] c"total_bytes", align 1
@alloc_821a21615127254ccfbae23a062b11cf = private unnamed_addr constant [13 x i8] c"decimal_bytes", align 1
@alloc_e930492f16a46e04e94a7df8aaa1ec36 = private unnamed_addr constant [19 x i8] c"decimal_total_bytes", align 1
@alloc_566a9f35cfafa7e7aacb0448f428e7d4 = private unnamed_addr constant [12 x i8] c"binary_bytes", align 1
@alloc_9b7fb6d37fe7aeb11efd0f13cb197bab = private unnamed_addr constant [18 x i8] c"binary_total_bytes", align 1
@alloc_449a70bd5040b44f151fd62011ed15b8 = private unnamed_addr constant [15 x i8] c"elapsed_precise", align 1
@alloc_7d2875d9854c8567e56fee7b40055ba8 = private unnamed_addr constant [7 x i8] c"elapsed", align 1
@alloc_28fcffb1dcc1a28ff2362fd060818ee3 = private unnamed_addr constant [7 x i8] c"per_sec", align 1
@alloc_f49083ea24bd30f0522f17dfd6945cc7 = private unnamed_addr constant [13 x i8] c"bytes_per_sec", align 1
@alloc_0740093eb97dab077b9f5b0696777b0b = private unnamed_addr constant [21 x i8] c"decimal_bytes_per_sec", align 1
@alloc_6cc7781e15f07c92a411a57d6fb96e40 = private unnamed_addr constant [20 x i8] c"binary_bytes_per_sec", align 1
@alloc_4a511196734291411544c229403b55a1 = private unnamed_addr constant [11 x i8] c"eta_precise", align 1
@alloc_ab64d7f4a0d50b526d94c56c95e05fbe = private unnamed_addr constant [3 x i8] c"eta", align 1
@alloc_a7224a1986beaf97634393e53275379e = private unnamed_addr constant [16 x i8] c"duration_precise", align 1
@alloc_3ff26a0d12fff6d61d760b1df5664365 = private unnamed_addr constant [8 x i8] c"duration", align 1
@alloc_03d888f790d731389faeb4d23ee0d95c = private unnamed_addr constant [6 x i8] c"\C1 \00\80`\00", align 1
@alloc_63e2ee6ea9bc57a166c746a1dc3256a5 = private unnamed_addr constant <{ ptr, [16 x i8] }> <{ ptr @alloc_55fbcf8ac9456b120dcf1a5f4eb0c4ed, [16 x i8] c"f\00\00\00\00\00\00\00T\01\00\00\22\00\00\00" }>, align 8
@alloc_0c812808379efded5a4fb82d2790b556 = private unnamed_addr constant [2 x i8] c"\C0\00", align 1
@alloc_5fd9996d04f58452bf56187a27af8d6a = private unnamed_addr constant <{ ptr, [16 x i8] }> <{ ptr @alloc_55fbcf8ac9456b120dcf1a5f4eb0c4ed, [16 x i8] c"f\00\00\00\00\00\00\00Q\01\00\00\22\00\00\00" }>, align 8
@alloc_de20aad230098ace5506ab4400b39210 = private unnamed_addr constant <{ ptr, [16 x i8] }> <{ ptr @alloc_55fbcf8ac9456b120dcf1a5f4eb0c4ed, [16 x i8] c"f\00\00\00\00\00\00\00N\01\00\00\22\00\00\00" }>, align 8
@alloc_b9798deeb2e54cec5eb06270147d3046 = private unnamed_addr constant <{ ptr, [16 x i8] }> <{ ptr @alloc_55fbcf8ac9456b120dcf1a5f4eb0c4ed, [16 x i8] c"f\00\00\00\00\00\00\00K\01\00\00\22\00\00\00" }>, align 8
@alloc_281a36fbbb38e4d6bf69c083110a6a4a = private unnamed_addr constant [5 x i8] c"\C0\02/s\00", align 1
@alloc_d7cdf1092fcc40d5cead1ba144fbc0c7 = private unnamed_addr constant <{ ptr, [16 x i8] }> <{ ptr @alloc_55fbcf8ac9456b120dcf1a5f4eb0c4ed, [16 x i8] c"f\00\00\00\00\00\00\00H\01\00\00\22\00\00\00" }>, align 8
@alloc_235d20ec32738d4703af97bd3f13fb0a = private unnamed_addr constant <{ ptr, [16 x i8] }> <{ ptr @alloc_55fbcf8ac9456b120dcf1a5f4eb0c4ed, [16 x i8] c"f\00\00\00\00\00\00\00B\01\00\00\22\00\00\00" }>, align 8
@alloc_21827cf3100eb9792083406accd46ee6 = private unnamed_addr constant <{ ptr, [16 x i8] }> <{ ptr @alloc_55fbcf8ac9456b120dcf1a5f4eb0c4ed, [16 x i8] c"f\00\00\00\00\00\00\00<\01\00\00\22\00\00\00" }>, align 8
@alloc_423c70141d342575405619a31451a71d = private unnamed_addr constant <{ ptr, [16 x i8] }> <{ ptr @alloc_55fbcf8ac9456b120dcf1a5f4eb0c4ed, [16 x i8] c"f\00\00\00\00\00\00\009\01\00\00\22\00\00\00" }>, align 8
@alloc_42b3acb4e51e3220f2b7748d4bfa8ef8 = private unnamed_addr constant <{ ptr, [16 x i8] }> <{ ptr @alloc_55fbcf8ac9456b120dcf1a5f4eb0c4ed, [16 x i8] c"f\00\00\00\00\00\00\006\01\00\00\22\00\00\00" }>, align 8
@alloc_b482b018ae0582c7da4ed432df2fd621 = private unnamed_addr constant <{ ptr, [16 x i8] }> <{ ptr @alloc_55fbcf8ac9456b120dcf1a5f4eb0c4ed, [16 x i8] c"f\00\00\00\00\00\00\003\01\00\00\22\00\00\00" }>, align 8
@alloc_0b3433ba613596acaef2bd7068f3b802 = private unnamed_addr constant <{ ptr, [16 x i8] }> <{ ptr @alloc_55fbcf8ac9456b120dcf1a5f4eb0c4ed, [16 x i8] c"f\00\00\00\00\00\00\00/\01\00\00U\00\00\00" }>, align 8
@alloc_2edc86c46fff35d86ec159c038f310bd = private unnamed_addr constant <{ ptr, [16 x i8] }> <{ ptr @alloc_55fbcf8ac9456b120dcf1a5f4eb0c4ed, [16 x i8] c"f\00\00\00\00\00\00\00,\01\00\00U\00\00\00" }>, align 8
@alloc_02f72eb787100c792df5eebc1a70c00f = private unnamed_addr constant <{ ptr, [16 x i8] }> <{ ptr @alloc_55fbcf8ac9456b120dcf1a5f4eb0c4ed, [16 x i8] c"f\00\00\00\00\00\00\00*\01\00\00\22\00\00\00" }>, align 8
@alloc_85c92e50c60cd8f4bf0f1ca7cebbf541 = private unnamed_addr constant <{ ptr, [16 x i8] }> <{ ptr @alloc_55fbcf8ac9456b120dcf1a5f4eb0c4ed, [16 x i8] c"f\00\00\00\00\00\00\00'\01\00\00\22\00\00\00" }>, align 8
@alloc_c25b09dcf50bcc77ec0894df0dfdf0db = private unnamed_addr constant <{ ptr, [16 x i8] }> <{ ptr @alloc_55fbcf8ac9456b120dcf1a5f4eb0c4ed, [16 x i8] c"f\00\00\00\00\00\00\00#\01\00\00T\00\00\00" }>, align 8
@alloc_44f52967d9a922fda85396cb5b1de698 = private unnamed_addr constant <{ ptr, [16 x i8] }> <{ ptr @alloc_55fbcf8ac9456b120dcf1a5f4eb0c4ed, [16 x i8] c"f\00\00\00\00\00\00\00!\01\00\00[\00\00\00" }>, align 8
@alloc_8dbff4336d2de8ff12209a50b365d192 = private unnamed_addr constant [8 x i8] c"\E5 \00\00p\01\00\00", align 1
@alloc_1b20b35534b0375958e183d3b3f0dba7 = private unnamed_addr constant <{ ptr, [16 x i8] }> <{ ptr @alloc_55fbcf8ac9456b120dcf1a5f4eb0c4ed, [16 x i8] c"f\00\00\00\00\00\00\00 \01\00\00\22\00\00\00" }>, align 8
@alloc_1bb9e78d3079c87ed30306f741fde5cc = private unnamed_addr constant <{ ptr, [16 x i8] }> <{ ptr @alloc_55fbcf8ac9456b120dcf1a5f4eb0c4ed, [16 x i8] c"f\00\00\00\00\00\00\00\1D\01\00\00\22\00\00\00" }>, align 8
@alloc_2146de3e4303d5abb564250eaecbb5a1 = private unnamed_addr constant <{ ptr, [16 x i8] }> <{ ptr @alloc_55fbcf8ac9456b120dcf1a5f4eb0c4ed, [16 x i8] c"f\00\00\00\00\00\00\00\19\01\00\00T\00\00\00" }>, align 8
@alloc_5a46c18c42d697cd6e9116cf81bb16cb = private unnamed_addr constant <{ ptr, [16 x i8] }> <{ ptr @alloc_55fbcf8ac9456b120dcf1a5f4eb0c4ed, [16 x i8] c"f\00\00\00\00\00\00\00\17\01\00\00K\00\00\00" }>, align 8
@alloc_97f905df68eb5f923e0bc1e0a6d6b541 = private unnamed_addr constant <{ ptr, [16 x i8] }> <{ ptr @alloc_55fbcf8ac9456b120dcf1a5f4eb0c4ed, [16 x i8] c"f\00\00\00\00\00\00\00\15\01\00\00T\00\00\00" }>, align 8
@alloc_0f15c1f706158589f929638d68e8703f = private unnamed_addr constant <{ ptr, [16 x i8] }> <{ ptr @alloc_55fbcf8ac9456b120dcf1a5f4eb0c4ed, [16 x i8] c"f\00\00\00\00\00\00\00\13\01\00\00K\00\00\00" }>, align 8
@alloc_4afccc13dc71bda0c642da70048a08a9 = private unnamed_addr constant <{ ptr, [16 x i8] }> <{ ptr @alloc_55fbcf8ac9456b120dcf1a5f4eb0c4ed, [16 x i8] c"f\00\00\00\00\00\00\00\0B\01\00\00\22\00\00\00" }>, align 8
@alloc_1651b67c5509585e0842ab4a8945dd4d = private unnamed_addr constant <{ ptr, [16 x i8] }> <{ ptr @alloc_55fbcf8ac9456b120dcf1a5f4eb0c4ed, [16 x i8] c"f\00\00\00\00\00\00\00i\01\00\00\\\00\00\00" }>, align 8
@alloc_c4d3c4bee8c0dd13d13f4ba4d4793ee0 = private unnamed_addr constant <{ ptr, [16 x i8] }> <{ ptr @alloc_55fbcf8ac9456b120dcf1a5f4eb0c4ed, [16 x i8] c"f\00\00\00\00\00\00\00e\01\00\00Q\00\00\00" }>, align 8
@alloc_f14ce0b8ebff0aa7d77ae28c879c9455 = private unnamed_addr constant <{ ptr, [16 x i8] }> <{ ptr @alloc_55fbcf8ac9456b120dcf1a5f4eb0c4ed, [16 x i8] c"f\00\00\00\00\00\00\00d\01\00\00&\00\00\00" }>, align 8
@alloc_a6b25cda02389ed580dba64b980052e1 = private unnamed_addr constant [32 x i8] c"at least 2 tick strings required", align 1
@alloc_397f293c0aaa98df5db2342a596fd02a = private unnamed_addr constant <{ ptr, [16 x i8] }> <{ ptr @alloc_55fbcf8ac9456b120dcf1a5f4eb0c4ed, [16 x i8] c"f\00\00\00\00\00\00\00\82\00\00\00\09\00\00\00" }>, align 8
@alloc_8cc8564d929bc54644a3208d35715946 = private unnamed_addr constant [34 x i8] c"at least 2 progress chars required", align 1
@alloc_1f9d114ff52fcf7333967dc614bd85b4 = private unnamed_addr constant <{ ptr, [16 x i8] }> <{ ptr @alloc_55fbcf8ac9456b120dcf1a5f4eb0c4ed, [16 x i8] c"f\00\00\00\00\00\00\00\91\00\00\00\09\00\00\00" }>, align 8
@alloc_c559dfd7264b6398dd4d38350b16a88d = private unnamed_addr constant [15 x i8] c"{spinner} {msg}", align 1
@alloc_ea59cf18226d97d9706817bdd9fc0ca8 = private unnamed_addr constant <{ ptr, [16 x i8] }> <{ ptr @alloc_55fbcf8ac9456b120dcf1a5f4eb0c4ed, [16 x i8] c"f\00\00\00\00\00\00\00L\00\00\009\00\00\00" }>, align 8
@alloc_21952c3116a0dc1a7d37079a63a044b6 = private unnamed_addr constant <{ ptr, [16 x i8] }> <{ ptr @alloc_55fbcf8ac9456b120dcf1a5f4eb0c4ed, [16 x i8] c"f\00\00\00\00\00\00\00\B0\00\00\00\1C\00\00\00" }>, align 8
@alloc_c857f9d851800efaec7face54aac9663 = private unnamed_addr constant <{ ptr, [16 x i8] }> <{ ptr @alloc_55fbcf8ac9456b120dcf1a5f4eb0c4ed, [16 x i8] c"f\00\00\00\00\00\00\00\B0\00\00\00\1B\00\00\00" }>, align 8
@alloc_137947bb33d73ed7b1be00439ec8e203 = private unnamed_addr constant <{ ptr, [16 x i8] }> <{ ptr @alloc_55fbcf8ac9456b120dcf1a5f4eb0c4ed, [16 x i8] c"f\00\00\00\00\00\00\00\B5\00\00\00\1B\00\00\00" }>, align 8
@alloc_6b1f1a3a12e4b77d92f362c7fbc1a5f1 = private unnamed_addr constant [6 x i8] c"\E2\96\88\E2\96\91", align 1
@alloc_e2409e80ab7bb9b509a71f35e5c17fd5 = private unnamed_addr constant [88 x i8] c"\E2\A0\81\E2\A0\81\E2\A0\89\E2\A0\99\E2\A0\9A\E2\A0\92\E2\A0\82\E2\A0\82\E2\A0\92\E2\A0\B2\E2\A0\B4\E2\A0\A4\E2\A0\84\E2\A0\84\E2\A0\A4\E2\A0\A0\E2\A0\A0\E2\A0\A4\E2\A0\A6\E2\A0\96\E2\A0\92\E2\A0\90\E2\A0\90\E2\A0\92\E2\A0\93\E2\A0\8B\E2\A0\89\E2\A0\88\E2\A0\88 ", align 1
@alloc_a48736f782ce01888cde2ce41f6badc9 = private unnamed_addr constant [8 x i8] c"\FF\FF\FF\FF\FF\FF\FF\FF", align 8
@anon.b48e250911114c815fdbc18e136165bc.1 = private unnamed_addr constant <{ ptr, [24 x i8] }> <{ ptr @alloc_a48736f782ce01888cde2ce41f6badc9, [24 x i8] zeroinitializer }>, align 8
@alloc_a931397211c33a1c8fe0d17838460834 = private unnamed_addr constant [60 x i8] c"internal error: entered unreachable code: invalid Once state", align 1
@alloc_24b637cd9133284607a5bf8acdb509dc = private unnamed_addr constant [127 x i8] c"/Users/hongyaotang/.rustup/toolchains/nightly-aarch64-apple-darwin/lib/rustlib/src/rust/library/std/src/sys/sync/once/queue.rs\00", align 1
@alloc_74802a7f2e82cc98725e50da6efeabcf = private unnamed_addr constant <{ ptr, [16 x i8] }> <{ ptr @alloc_24b637cd9133284607a5bf8acdb509dc, [16 x i8] c"~\00\00\00\00\00\00\00\8B\00\00\00\12\00\00\00" }>, align 8
@alloc_ebce78bfc7982f2b9c86211de4c108d4 = private unnamed_addr constant [103 x i8] c"/Users/hongyaotang/.cargo/registry/src/index.crates.io-1949cf8c6b5b557f/indicatif-0.17.11/src/multi.rs\00", align 1
@alloc_d8b37874e228286d2b9550d41b78a921 = private unnamed_addr constant <{ ptr, [16 x i8] }> <{ ptr @alloc_ebce78bfc7982f2b9c86211de4c108d4, [16 x i8] c"f\00\00\00\00\00\00\00x\01\00\000\00\00\00" }>, align 8
@alloc_4cb591636dd8ce5b3b6fe87068f939c9 = private unnamed_addr constant <{ ptr, [16 x i8] }> <{ ptr @alloc_ebce78bfc7982f2b9c86211de4c108d4, [16 x i8] c"f\00\00\00\00\00\00\00\C6\01\00\00\15\00\00\00" }>, align 8
@alloc_c7d11479feeb9124c28b2cb9143046e0 = private unnamed_addr constant [26 x i8] c"Draw state is inconsistent", align 1
@alloc_ab77e4560aa3b77c43436bf0fe784795 = private unnamed_addr constant <{ ptr, [16 x i8] }> <{ ptr @alloc_ebce78bfc7982f2b9c86211de4c108d4, [16 x i8] c"f\00\00\00\00\00\00\00\CA\01\00\00\09\00\00\00" }>, align 8
@alloc_e6f8ae4373a1da763ed067248b4f24d3 = private unnamed_addr constant <{ ptr, [16 x i8] }> <{ ptr @alloc_ebce78bfc7982f2b9c86211de4c108d4, [16 x i8] c"f\00\00\00\00\00\00\00\F2\00\00\00'\00\00\00" }>, align 8
@alloc_c7b8ba9d75edc3edafb346f57beac6b1 = private unnamed_addr constant <{ ptr, [16 x i8] }> <{ ptr @alloc_ebce78bfc7982f2b9c86211de4c108d4, [16 x i8] c"f\00\00\00\00\00\00\00\F6\00\00\004\00\00\00" }>, align 8
@alloc_c9251fbb35f88a8ed8fc5d221d35eda1 = private unnamed_addr constant <{ ptr, [16 x i8] }> <{ ptr @alloc_ebce78bfc7982f2b9c86211de4c108d4, [16 x i8] c"f\00\00\00\00\00\00\00&\01\00\00'\00\00\00" }>, align 8
@alloc_3cfc2ed544d3db7da29df82c519cc3e4 = private unnamed_addr constant <{ ptr, [16 x i8] }> <{ ptr @alloc_ebce78bfc7982f2b9c86211de4c108d4, [16 x i8] c"f\00\00\00\00\00\00\00T\01\00\00'\00\00\00" }>, align 8
@alloc_394ed5615fbd799411c18482e15b11d6 = private unnamed_addr constant <{ ptr, [16 x i8] }> <{ ptr @alloc_ebce78bfc7982f2b9c86211de4c108d4, [16 x i8] c"f\00\00\00\00\00\00\00\91\01\00\00\19\00\00\00" }>, align 8
@alloc_2ac3ddb96d00a41bc8d9e6323b21ddf8 = private unnamed_addr constant <{ ptr, [16 x i8] }> <{ ptr @alloc_ebce78bfc7982f2b9c86211de4c108d4, [16 x i8] c"f\00\00\00\00\00\00\00\A3\01\00\00N\00\00\00" }>, align 8
@alloc_fcbe7444f30a7de6b4a181e749ab317a = private unnamed_addr constant <{ ptr, [16 x i8] }> <{ ptr @alloc_ebce78bfc7982f2b9c86211de4c108d4, [16 x i8] c"f\00\00\00\00\00\00\00\A7\01\00\00O\00\00\00" }>, align 8
@alloc_7e5c02b0f9cbcf6b033bc9a0403af98a = private unnamed_addr constant <{ ptr, [16 x i8] }> <{ ptr @alloc_ebce78bfc7982f2b9c86211de4c108d4, [16 x i8] c"f\00\00\00\00\00\00\00\AC\01\00\00\09\00\00\00" }>, align 8
@alloc_9c5ef154df20d94762ee32cb4043b59e = private unnamed_addr constant <{ ptr, [16 x i8] }> <{ ptr @alloc_55fbcf8ac9456b120dcf1a5f4eb0c4ed, [16 x i8] c"f\00\00\00\00\00\00\00\C4\01\00\00\12\00\00\00" }>, align 8
@alloc_0d567a1d08eb036e38ca1240e4017323 = private unnamed_addr constant <{ ptr, [16 x i8] }> <{ ptr @alloc_55fbcf8ac9456b120dcf1a5f4eb0c4ed, [16 x i8] c"f\00\00\00\00\00\00\007\02\00\003\00\00\00" }>, align 8
@alloc_987f9181f01088182face37be6d0a1cd = private unnamed_addr constant [41 x i8] c"threads should not terminate unexpectedly", align 1
@alloc_e4a4c7ab2a84631064eeba9731d6c5e7 = private unnamed_addr constant [124 x i8] c"/Users/hongyaotang/.rustup/toolchains/nightly-aarch64-apple-darwin/lib/rustlib/src/rust/library/std/src/thread/lifecycle.rs\00", align 1
@alloc_035a6180f472923bf7e531205400ca65 = private unnamed_addr constant <{ ptr, [16 x i8] }> <{ ptr @alloc_e4a4c7ab2a84631064eeba9731d6c5e7, [16 x i8] c"{\00\00\00\00\00\00\00\F7\00\00\00\0E\00\00\00" }>, align 8
@alloc_e499f761d142367f68692f2ae4265f07 = private unnamed_addr constant <{ ptr, [16 x i8] }> <{ ptr @alloc_e4a4c7ab2a84631064eeba9731d6c5e7, [16 x i8] c"{\00\00\00\00\00\00\00\FB\00\00\00\0E\00\00\00" }>, align 8
@alloc_e3605bf48dd8479a638909176cc37fce = private unnamed_addr constant [22 x i8] c"failed to spawn thread", align 1
@alloc_462c6b29492aaf4f33910e22e55f64e8 = private unnamed_addr constant [124 x i8] c"/Users/hongyaotang/.rustup/toolchains/nightly-aarch64-apple-darwin/lib/rustlib/src/rust/library/std/src/thread/functions.rs\00", align 1
@alloc_b51cc9eab80b589e134064899a7881c3 = private unnamed_addr constant <{ ptr, [16 x i8] }> <{ ptr @alloc_462c6b29492aaf4f33910e22e55f64e8, [16 x i8] c"{\00\00\00\00\00\00\00\83\00\00\00\1D\00\00\00" }>, align 8
@alloc_492603b33d844163a21c8439355ff430 = private unnamed_addr constant [110 x i8] c"/Users/hongyaotang/.cargo/registry/src/index.crates.io-1949cf8c6b5b557f/indicatif-0.17.11/src/progress_bar.rs\00", align 1
@alloc_b7adc2e59ab481a50d93f6af128497df = private unnamed_addr constant <{ ptr, [16 x i8] }> <{ ptr @alloc_492603b33d844163a21c8439355ff430, [16 x i8] c"m\00\00\00\00\00\00\00\B6\02\00\00!\00\00\00" }>, align 8
@alloc_43bc6422b8692ffded5d397bdca9975c = private unnamed_addr constant <{ ptr, [16 x i8] }> <{ ptr @alloc_492603b33d844163a21c8439355ff430, [16 x i8] c"m\00\00\00\00\00\00\00\C6\02\00\00(\00\00\00" }>, align 8
@alloc_74220f801d86ab9f0bd01fbb53a9b8f0 = private unnamed_addr constant <{ ptr, [16 x i8] }> <{ ptr @alloc_492603b33d844163a21c8439355ff430, [16 x i8] c"m\00\00\00\00\00\00\00\D4\02\00\00<\00\00\00" }>, align 8
@alloc_638a366ff8ef32079a5beea1debfdb62 = private unnamed_addr constant <{ ptr, [16 x i8] }> <{ ptr @alloc_492603b33d844163a21c8439355ff430, [16 x i8] c"m\00\00\00\00\00\00\00\D7\02\00\00\12\00\00\00" }>, align 8
@alloc_a70627e10e3d9dce4804c07c447e7f39 = private unnamed_addr constant <{ ptr, [16 x i8] }> <{ ptr @alloc_c7af9477d1c45d5fab7b9a71c57c1627, [16 x i8] c"l\00\00\00\00\00\00\00\B4\01\00\00\17\00\00\00" }>, align 8
@alloc_39f7307e57f4dca7dc7a640782f25c99 = private unnamed_addr constant <{ ptr, [16 x i8] }> <{ ptr @alloc_c7af9477d1c45d5fab7b9a71c57c1627, [16 x i8] c"l\00\00\00\00\00\00\00\CB\01\00\00\0D\00\00\00" }>, align 8
@alloc_be76bfb1bc90cf17c68c238965a242cf = private unnamed_addr constant <{ ptr, [16 x i8] }> <{ ptr @alloc_c7af9477d1c45d5fab7b9a71c57c1627, [16 x i8] c"l\00\00\00\00\00\00\00\D6\01\00\00\0E\00\00\00" }>, align 8
@alloc_f9551694ea507c6c00437c9c4cf7acd3 = private unnamed_addr constant <{ ptr, [16 x i8] }> <{ ptr @alloc_492603b33d844163a21c8439355ff430, [16 x i8] c"m\00\00\00\00\00\00\00o\02\00\00\1B\00\00\00" }>, align 8
@alloc_f250c6e367babaef07b1b6d6884a3f0b = private unnamed_addr constant <{ ptr, [16 x i8] }> <{ ptr @alloc_492603b33d844163a21c8439355ff430, [16 x i8] c"m\00\00\00\00\00\00\00\E0\00\00\00\1F\00\00\00" }>, align 8
@alloc_8a5919f1a2aef66a159f5a85196f4c28 = private unnamed_addr constant <{ ptr, [16 x i8] }> <{ ptr @alloc_492603b33d844163a21c8439355ff430, [16 x i8] c"m\00\00\00\00\00\00\00\7F\00\00\00J\00\00\00" }>, align 8
@alloc_ec1a28bd9029cd4ba282b57c5c44a6f3 = private unnamed_addr constant <{ ptr, [16 x i8] }> <{ ptr @alloc_492603b33d844163a21c8439355ff430, [16 x i8] c"m\00\00\00\00\00\00\00\A7\00\00\00*\00\00\00" }>, align 8
@alloc_b75fde64908131ca2c72738b520f08bd = private unnamed_addr constant <{ ptr, [16 x i8] }> <{ ptr @alloc_492603b33d844163a21c8439355ff430, [16 x i8] c"m\00\00\00\00\00\00\00\CF\00\00\003\00\00\00" }>, align 8
@alloc_768313af905bd62e6c09290c77c55d5f = private unnamed_addr constant <{ ptr, [16 x i8] }> <{ ptr @alloc_ebce78bfc7982f2b9c86211de4c108d4, [16 x i8] c"f\00\00\00\00\00\00\00\A6\00\00\00,\00\00\00" }>, align 8
@alloc_fb5e8501af57eca73df22cdde5cfc64c = private unnamed_addr constant <{ ptr, [16 x i8] }> <{ ptr @alloc_ebce78bfc7982f2b9c86211de4c108d4, [16 x i8] c"f\00\00\00\00\00\00\00\8D\00\00\00>\00\00\00" }>, align 8
@alloc_f7ee9b4ee08dec65eb25457ee7ec673a = private unnamed_addr constant <{ ptr, [16 x i8] }> <{ ptr @alloc_ebce78bfc7982f2b9c86211de4c108d4, [16 x i8] c"f\00\00\00\00\00\00\00\81\00\00\00@\00\00\00" }>, align 8
@alloc_fb45698f54e86d090e92450c231c5a9b = private unnamed_addr constant <{ ptr, [16 x i8] }> <{ ptr @alloc_ebce78bfc7982f2b9c86211de4c108d4, [16 x i8] c"f\00\00\00\00\00\00\00G\00\00\00\1C\00\00\00" }>, align 8
@alloc_708be572d0d1de35fe468ff0d544a9e6 = private unnamed_addr constant <{ ptr, [16 x i8] }> <{ ptr @alloc_ebce78bfc7982f2b9c86211de4c108d4, [16 x i8] c"f\00\00\00\00\00\00\004\00\00\00,\00\00\00" }>, align 8
@alloc_b1f4dfae09025381f845092e74b884ef = private unnamed_addr constant <{ ptr, [16 x i8] }> <{ ptr @alloc_ebce78bfc7982f2b9c86211de4c108d4, [16 x i8] c"f\00\00\00\00\00\00\00@\00\00\00\0E\00\00\00" }>, align 8
@alloc_e1569f4da8ed00a64810a7c386795dc0 = private unnamed_addr constant <{ ptr, [16 x i8] }> <{ ptr @alloc_ebce78bfc7982f2b9c86211de4c108d4, [16 x i8] c"f\00\00\00\00\00\00\00\C6\00\00\00\1C\00\00\00" }>, align 8
@alloc_af81d374c77f3925da26c088836bba73 = private unnamed_addr constant [49 x i8] c"assertion failed: Arc::ptr_eq(&self.state, state)", align 1
@alloc_e054a811c246c52705d34279a968cd5d = private unnamed_addr constant <{ ptr, [16 x i8] }> <{ ptr @alloc_ebce78bfc7982f2b9c86211de4c108d4, [16 x i8] c"f\00\00\00\00\00\00\00\9B\00\00\00\11\00\00\00" }>, align 8
@alloc_06a450770865f2c0bace955a1383ff68 = private unnamed_addr constant <{ ptr, [16 x i8] }> <{ ptr @alloc_ebce78bfc7982f2b9c86211de4c108d4, [16 x i8] c"f\00\00\00\00\00\00\00\A2\00\00\00\1C\00\00\00" }>, align 8
@alloc_67c6c0ff70eae688c4d5d05167e1d745 = private unnamed_addr constant <{ ptr, [16 x i8] }> <{ ptr @alloc_ebce78bfc7982f2b9c86211de4c108d4, [16 x i8] c"f\00\00\00\00\00\00\00\CA\00\00\00\1B\00\00\00" }>, align 8
@alloc_9bc96f7544a2a4e30fc9ca495ef8a128 = private unnamed_addr constant [20 x i8] c"Arc counter overflow", align 1
@alloc_096bc13c2081c59e2b3fed1cfbfaafd2 = private unnamed_addr constant <{ ptr, [8 x i8] }> <{ ptr @alloc_9bc96f7544a2a4e30fc9ca495ef8a128, [8 x i8] c"\14\00\00\00\00\00\00\00" }>, align 8
@alloc_de6108075f40490fc4da5a2ffa6ad09d = private unnamed_addr constant [114 x i8] c"/Users/hongyaotang/.rustup/toolchains/nightly-aarch64-apple-darwin/lib/rustlib/src/rust/library/alloc/src/sync.rs\00", align 1
@alloc_1e4df7fe1da766d4c5a85f1b5bc25619 = private unnamed_addr constant <{ ptr, [16 x i8] }> <{ ptr @alloc_de6108075f40490fc4da5a2ffa6ad09d, [16 x i8] c"q\00\00\00\00\00\00\00\8A\07\00\00\0D\00\00\00" }>, align 8
@alloc_28a6f5a8b41cb4108dcfc604f25e6395 = private unnamed_addr constant [32 x i8] c"assertion failed: idx < CAPACITY", align 1
@alloc_50679f783fca94dab7457816f752eff0 = private unnamed_addr constant [48 x i8] c"assertion failed: edge.height == self.height - 1", align 1
@alloc_6f083584960555ed8732225b7b53e5b1 = private unnamed_addr constant <{ ptr, [16 x i8] }> <{ ptr @alloc_a51357dfbcca0800220965a98e80088f, [16 x i8] c"\83\00\00\00\00\00\00\00\B6\02\00\00\09\00\00\00" }>, align 8
@alloc_d09bc18f447a67e05c9e1db80f527998 = private unnamed_addr constant <{ ptr, [16 x i8] }> <{ ptr @alloc_a51357dfbcca0800220965a98e80088f, [16 x i8] c"\83\00\00\00\00\00\00\00\BA\02\00\00\09\00\00\00" }>, align 8
@_RNvNtCsDJOD2kcAir_13unicode_width6tables10WIDTH_ROOT = external local_unnamed_addr global %"unicode_width::tables::Align128<[u8; 256]>"
@alloc_aaca2516fbe9b04517984be67db863ea = private unnamed_addr constant [106 x i8] c"/Users/hongyaotang/.cargo/registry/src/index.crates.io-1949cf8c6b5b557f/unicode-width-0.2.2/src/tables.rs\00", align 1
@_RNvNtCsDJOD2kcAir_13unicode_width6tables12WIDTH_MIDDLE = external local_unnamed_addr global %"unicode_width::tables::Align64<[[u8; 64]; 20]>"
@alloc_3c235b06addb9c2230a3beb294b85791 = private unnamed_addr constant <{ ptr, [16 x i8] }> <{ ptr @alloc_aaca2516fbe9b04517984be67db863ea, [16 x i8] c"i\00\00\00\00\00\00\00\B8\00\00\00\15\00\00\00" }>, align 8
@_RNvNtCsDJOD2kcAir_13unicode_width6tables12WIDTH_LEAVES = external local_unnamed_addr global %"unicode_width::tables::Align32<[[u8; 32]; 186]>"
@alloc_54facc433374646a466a7fffff6dc929 = private unnamed_addr constant <{ ptr, [16 x i8] }> <{ ptr @alloc_aaca2516fbe9b04517984be67db863ea, [16 x i8] c"i\00\00\00\00\00\00\00\BE\00\00\00\19\00\00\00" }>, align 8
@_RNvNtCsDJOD2kcAir_13unicode_width6tables21EMOJI_MODIFIER_LEAF_0 = external local_unnamed_addr global [2 x { i8, i8 }]
@_RNvNtCsDJOD2kcAir_13unicode_width6tables21EMOJI_MODIFIER_LEAF_1 = external local_unnamed_addr global [1 x { i8, i8 }]
@_RNvNtCsDJOD2kcAir_13unicode_width6tables21EMOJI_MODIFIER_LEAF_2 = external local_unnamed_addr global [4 x { i8, i8 }]
@_RNvNtCsDJOD2kcAir_13unicode_width6tables21EMOJI_MODIFIER_LEAF_3 = external local_unnamed_addr global [9 x { i8, i8 }]
@_RNvNtCsDJOD2kcAir_13unicode_width6tables21EMOJI_MODIFIER_LEAF_4 = external local_unnamed_addr global [4 x { i8, i8 }]
@_RNvNtCsDJOD2kcAir_13unicode_width6tables21EMOJI_MODIFIER_LEAF_5 = external local_unnamed_addr global [6 x { i8, i8 }]
@_RNvNtCsDJOD2kcAir_13unicode_width6tables21EMOJI_MODIFIER_LEAF_6 = external local_unnamed_addr global [12 x { i8, i8 }]
@_RNvNtCsDJOD2kcAir_13unicode_width6tables21EMOJI_MODIFIER_LEAF_7 = external local_unnamed_addr global [2 x { i8, i8 }]
@_RNvNtCsDJOD2kcAir_13unicode_width6tables25EMOJI_PRESENTATION_LEAVES = external local_unnamed_addr global %"unicode_width::tables::Align128<[[u8; 128]; 7]>"
@_RNvNtCsDJOD2kcAir_13unicode_width6tables24TEXT_PRESENTATION_LEAF_0 = external local_unnamed_addr global [4 x { i8, i8 }]
@_RNvNtCsDJOD2kcAir_13unicode_width6tables24TEXT_PRESENTATION_LEAF_1 = external local_unnamed_addr global [1 x { i8, i8 }]
@_RNvNtCsDJOD2kcAir_13unicode_width6tables24TEXT_PRESENTATION_LEAF_2 = external local_unnamed_addr global [15 x { i8, i8 }]
@_RNvNtCsDJOD2kcAir_13unicode_width6tables24TEXT_PRESENTATION_LEAF_3 = external local_unnamed_addr global [10 x { i8, i8 }]
@_RNvNtCsDJOD2kcAir_13unicode_width6tables24TEXT_PRESENTATION_LEAF_4 = external local_unnamed_addr global [3 x { i8, i8 }]
@_RNvNtCsDJOD2kcAir_13unicode_width6tables24TEXT_PRESENTATION_LEAF_5 = external local_unnamed_addr global [1 x { i8, i8 }]
@_RNvNtCsDJOD2kcAir_13unicode_width6tables24TEXT_PRESENTATION_LEAF_6 = external local_unnamed_addr global [13 x { i8, i8 }]
@_RNvNtCsDJOD2kcAir_13unicode_width6tables24TEXT_PRESENTATION_LEAF_7 = external local_unnamed_addr global [22 x { i8, i8 }]
@_RNvNtCsDJOD2kcAir_13unicode_width6tables24TEXT_PRESENTATION_LEAF_8 = external local_unnamed_addr global [4 x { i8, i8 }]
@_RNvNtCsDJOD2kcAir_13unicode_width6tables24TEXT_PRESENTATION_LEAF_9 = external local_unnamed_addr global [10 x { i8, i8 }]
@alloc_d0b4db09a35ea0701822ebcd186dd812 = private unnamed_addr constant <{ ptr, [16 x i8] }> <{ ptr @alloc_55fbcf8ac9456b120dcf1a5f4eb0c4ed, [16 x i8] c"f\00\00\00\00\00\00\00A\00\00\00\0A\00\00\00" }>, align 8
@_RNvNtNtNtCsjMrxcFdYDNN_4core7unicode12unicode_data11white_space14WHITESPACE_MAP = external local_unnamed_addr global [256 x i8]
@alloc_830e6569558ed0cfb79c9d3f08261fe5 = private unnamed_addr constant <{ ptr, [16 x i8] }> <{ ptr @alloc_de6108075f40490fc4da5a2ffa6ad09d, [16 x i8] c"q\00\00\00\00\00\00\00\BD\0C\00\00\0D\00\00\00" }>, align 8
@alloc_a5b6349fce113838d6b46a094de71e57 = private unnamed_addr constant [11 x i8] c"ProgressBar", align 1
@alloc_d7808a85406f241fef33d55b2ae3b307 = private unnamed_addr constant [26 x i8] c"\C3 \00\00i\02\00\01:\C3 \00\00i\02\00\01:\C3 \00\00i\02\00\00", align 1
@alloc_d3203e34918c9ae4326a395eecad93fd = private unnamed_addr constant [30 x i8] c"\C0\02d \C3 \00\00i\02\00\01:\C3 \00\00i\02\00\01:\C3 \00\00i\02\00\00", align 1
@alloc_34a907ce632321878f08de7a619b60ed = private unnamed_addr constant [5 x i8] c"\0D\1B[2K", align 1
@alloc_56fd39bff4f044c53778959352b36998 = private unnamed_addr constant [9 x i8] c"\C1 \00\00p\02 B\00", align 1
@alloc_929ffe9507015029ad232a13b06d178f = private unnamed_addr constant [13 x i8] c"\C5 \00\00p\02\00\01 \C0\01B\00", align 1
@alloc_58f213f5b48e0bea76ba0b429606a6b5 = private unnamed_addr constant [62 x i8] c"fatal runtime error: thread result panicked on drop, aborting\0A", align 1
@alloc_f76271a55007614a7471083fc8ebfa2f = private unnamed_addr constant <{ ptr, [16 x i8] }> <{ ptr @alloc_8dfeaade7298613f26ebcfeb7055dbe5, [16 x i8] c"\82\00\00\00\00\00\00\002\01\00\00.\00\00\00" }>, align 8
@alloc_dce058004aa4d491cf8dd98370a1c570 = private unnamed_addr constant [17 x i8] c"MultiStateElement", align 1
@vtable.k = private unnamed_addr constant <{ ptr, [16 x i8], ptr }> <{ ptr @_RINvNtCsjMrxcFdYDNN_4core3ptr13drop_in_placeINtNtB4_6option6OptionNtNtCslbzLHi4tcfW_9indicatif11draw_target9DrawStateEEB16_, [16 x i8] c" \00\00\00\00\00\00\00\08\00\00\00\00\00\00\00", ptr @_RNvXsR_NtCsjMrxcFdYDNN_4core6optionINtB5_6OptionNtNtCslbzLHi4tcfW_9indicatif11draw_target9DrawStateENtNtB7_3fmt5Debug3fmtBO_ }>, align 8
@alloc_af0bbc933b69e606affbe4190097c887 = private unnamed_addr constant [10 x i8] c"draw_state", align 1
@vtable.l = private unnamed_addr constant <{ [24 x i8], ptr }> <{ [24 x i8] c"\00\00\00\00\00\00\00\00\01\00\00\00\00\00\00\00\01\00\00\00\00\00\00\00", ptr @_RNvXsf_NtCsjMrxcFdYDNN_4core3fmtbNtB5_5Debug3fmt }>, align 8
@alloc_48cf2ee597013acee95bc84a98632b01 = private unnamed_addr constant [9 x i8] c"is_zombie", align 1
@alloc_fa05c2a948b2ab513644c7afc8a5b09f = private unnamed_addr constant [51 x i8] c"$TemplateError: unexpected character \C0\0A in state \C0\00", align 1
@alloc_2fd813bb1a5cea6e36b65f66e5cf25a5 = private unnamed_addr constant <{ ptr, [16 x i8] }> <{ ptr @alloc_55fbcf8ac9456b120dcf1a5f4eb0c4ed, [16 x i8] c"f\00\00\00\00\00\00\00\A0\02\00\00\1A\00\00\00" }>, align 8
@alloc_84f1802d816719097f439959eeec7b5e = private unnamed_addr constant <{ ptr, [16 x i8] }> <{ ptr @alloc_55fbcf8ac9456b120dcf1a5f4eb0c4ed, [16 x i8] c"f\00\00\00\00\00\00\00\9D\02\00\00\1A\00\00\00" }>, align 8
@alloc_4461e158e90ab2519858aa25810a5ead = private unnamed_addr constant [8 x i8] c"\C5 \00\00p\04\00\00", align 1
@alloc_8fe48bc875817d3facda42b99dbcede1 = private unnamed_addr constant <{ ptr, [16 x i8] }> <{ ptr @alloc_dba4c8e7ebbc445b04f2c4f157ff0b67, [16 x i8] c"y\00\00\00\00\00\00\00y\02\00\00\1B\00\00\00" }>, align 8
@alloc_75d083ff01bf4266da3a9367050a2b90 = private unnamed_addr constant [3 x i8] c"Top", align 1
@alloc_26299a2af7104742c3e3d0ad39d3f1bd = private unnamed_addr constant [6 x i8] c"Bottom", align 1
@alloc_9ef1b9afc2b45867e144db2d60fe9bad = private unnamed_addr constant [12 x i8] c"\07\1B[38;5;\C0\01m\00", align 1
@alloc_1a8889687ef22d7df33c19fac0de8dea = private unnamed_addr constant [7 x i8] c"\02\1B[\C0\01m\00", align 1
@alloc_d5aa142996870c26dc6e12a0446318a7 = private unnamed_addr constant [12 x i8] c"\07\1B[48;5;\C0\01m\00", align 1
@alloc_1eac0480e2e48185d4ca9bc483cda2f2 = private unnamed_addr constant [4 x i8] c"\1B[0m", align 1
@alloc_cc656815297f75969399c3f4b1ad3de4 = private unnamed_addr constant [55 x i8] c"a Display implementation returned an error unexpectedly", align 1
@alloc_82687d2573a6ed8a4d1fcf733f159466 = private unnamed_addr constant [116 x i8] c"/Users/hongyaotang/.rustup/toolchains/nightly-aarch64-apple-darwin/lib/rustlib/src/rust/library/alloc/src/string.rs\00", align 1
@alloc_f3c70bf9d2724ff8f638341943ddf3c8 = private unnamed_addr constant <{ ptr, [16 x i8] }> <{ ptr @alloc_82687d2573a6ed8a4d1fcf733f159466, [16 x i8] c"s\00\00\00\00\00\00\00f\0B\00\00\0E\00\00\00" }>, align 8
@alloc_99ac8a81a24cac863217ce4a5cbfabea = private unnamed_addr constant [5 x i8] c"Error", align 1
@alloc_37d2e53432a03a1f90b3e7253015eaf9 = private unnamed_addr constant [4 x i8] c"None", align 1
@vtable.n = private unnamed_addr constant <{ [24 x i8], ptr }> <{ [24 x i8] c"\00\00\00\00\00\00\00\00\08\00\00\00\00\00\00\00\08\00\00\00\00\00\00\00", ptr @_RNvXs1g_NtCsjMrxcFdYDNN_4core3fmtRNtNtCslbzLHi4tcfW_9indicatif11draw_target9DrawStateNtB6_5Debug3fmtBA_ }>, align 8
@alloc_9535bf4c204f3eb9b19ec2c83e446e52 = private unnamed_addr constant [4 x i8] c"Some", align 1
@alloc_40806b5f0106ee1d77ab3ea48316e691 = private unnamed_addr constant [4 x i8] c"year", align 1
@alloc_cd51bc84b49b21a3fdb2800731f25c21 = private unnamed_addr constant [1 x i8] c"y", align 1
@alloc_4f3f2893fbbbd9119637d3664e8fced9 = private unnamed_addr constant [4 x i8] c"week", align 1
@alloc_91e924fd2a69c8524f72852661c5910c = private unnamed_addr constant [1 x i8] c"w", align 1
@alloc_84302d2bc1c6d8fb145dbb4384a6bd54 = private unnamed_addr constant [3 x i8] c"day", align 1
@alloc_4a951866226d2517b8b8298a1effacd7 = private unnamed_addr constant [1 x i8] c"d", align 1
@alloc_89695f174daf08626e6fa0909bf51903 = private unnamed_addr constant [4 x i8] c"hour", align 1
@alloc_d22b16ed1fc9d86532371a89eda619b7 = private unnamed_addr constant [1 x i8] c"h", align 1
@alloc_d87608201815ec2e3766d07a306c038b = private unnamed_addr constant [6 x i8] c"minute", align 1
@alloc_db17741ad3337aa0400b53159a3d2f13 = private unnamed_addr constant [1 x i8] c"m", align 1
@alloc_114ee15010692784d7aa12af2dd225dd = private unnamed_addr constant [6 x i8] c"second", align 1
@alloc_d6367663d649a4d41011b0328bb6ee95 = private unnamed_addr constant [1 x i8] c"s", align 1
@alloc_25b8463ba9862f324a9a5badd252a3f6 = private unnamed_addr constant <{ [12 x i8], [4 x i8], ptr, [8 x i8], ptr, [20 x i8], [4 x i8], ptr, [8 x i8], ptr, [20 x i8], [4 x i8], ptr, [8 x i8], ptr, [20 x i8], [4 x i8], ptr, [8 x i8], ptr, [20 x i8], [4 x i8], ptr, [8 x i8], ptr, [20 x i8], [4 x i8], ptr, [8 x i8], ptr, [8 x i8] }> <{ [12 x i8] c"\803\E1\01\00\00\00\00\00\00\00\00", [4 x i8] undef, ptr @alloc_40806b5f0106ee1d77ab3ea48316e691, [8 x i8] c"\04\00\00\00\00\00\00\00", ptr @alloc_cd51bc84b49b21a3fdb2800731f25c21, [20 x i8] c"\01\00\00\00\00\00\00\00\80:\09\00\00\00\00\00\00\00\00\00", [4 x i8] undef, ptr @alloc_4f3f2893fbbbd9119637d3664e8fced9, [8 x i8] c"\04\00\00\00\00\00\00\00", ptr @alloc_91e924fd2a69c8524f72852661c5910c, [20 x i8] c"\01\00\00\00\00\00\00\00\80Q\01\00\00\00\00\00\00\00\00\00", [4 x i8] undef, ptr @alloc_84302d2bc1c6d8fb145dbb4384a6bd54, [8 x i8] c"\03\00\00\00\00\00\00\00", ptr @alloc_4a951866226d2517b8b8298a1effacd7, [20 x i8] c"\01\00\00\00\00\00\00\00\10\0E\00\00\00\00\00\00\00\00\00\00", [4 x i8] undef, ptr @alloc_89695f174daf08626e6fa0909bf51903, [8 x i8] c"\04\00\00\00\00\00\00\00", ptr @alloc_d22b16ed1fc9d86532371a89eda619b7, [20 x i8] c"\01\00\00\00\00\00\00\00<\00\00\00\00\00\00\00\00\00\00\00", [4 x i8] undef, ptr @alloc_d87608201815ec2e3766d07a306c038b, [8 x i8] c"\06\00\00\00\00\00\00\00", ptr @alloc_db17741ad3337aa0400b53159a3d2f13, [20 x i8] c"\01\00\00\00\00\00\00\00\01\00\00\00\00\00\00\00\00\00\00\00", [4 x i8] undef, ptr @alloc_114ee15010692784d7aa12af2dd225dd, [8 x i8] c"\06\00\00\00\00\00\00\00", ptr @alloc_d6367663d649a4d41011b0328bb6ee95, [8 x i8] c"\01\00\00\00\00\00\00\00" }>, align 8
@alloc_49a5e592853623655d9fc64c5a3cdd52 = private unnamed_addr constant [104 x i8] c"/Users/hongyaotang/.cargo/registry/src/index.crates.io-1949cf8c6b5b557f/indicatif-0.17.11/src/format.rs\00", align 1
@alloc_830d8a7ce80e2e7f05fa6e4643272e13 = private unnamed_addr constant [30 x i8] c"overflow when adding durations", align 1
@alloc_601158571f7795811e5ec79dba49e2b0 = private unnamed_addr constant <{ ptr, [16 x i8] }> <{ ptr @alloc_e3f63dfc5120ca765fd660f70b4607f2, [16 x i8] c"p\00\00\00\00\00\00\00\9F\04\00\00\1F\00\00\00" }>, align 8
@alloc_3b0cb5e3f801e561793769bb12b9e0c7 = private unnamed_addr constant <{ ptr, [16 x i8] }> <{ ptr @alloc_49a5e592853623655d9fc64c5a3cdd52, [16 x i8] c"g\00\00\00\00\00\00\00v\00\00\00!\00\00\00" }>, align 8
@alloc_150cf9fb508c258c80b6a996910db8f9 = private unnamed_addr constant [5 x i8] c"\C0\01 \C0\00", align 1
@alloc_23aceb0278fa2f1ab4821f736ef6351f = private unnamed_addr constant [7 x i8] c"\C0\01 \C0\01s\00", align 1
@alloc_981055920b6c6d61caeffdf36eeb06f6 = private unnamed_addr constant [3 x i8] c"\C0\C0\00", align 1
@alloc_8e2410b80645266732854088d21653bc = private unnamed_addr constant [11 x i8] c"PoisonError", align 1
@alloc_e52d3af24e8037dfb4f35693fba7d9f6 = private unnamed_addr constant <{ ptr, [16 x i8] }> <{ ptr @alloc_7fe94be2e120ffbd80c490b1b3c481ee, [16 x i8] c"w\00\00\00\00\00\00\00\CD\01\00\007\00\00\00" }>, align 8
@vtable.o = private unnamed_addr constant <{ [24 x i8], ptr }> <{ [24 x i8] c"\00\00\00\00\00\00\00\00\08\00\00\00\00\00\00\00\08\00\00\00\00\00\00\00", ptr @_RNvXs1g_NtCsjMrxcFdYDNN_4core3fmtRNtNtNtB8_3num5error12IntErrorKindNtB6_5Debug3fmtCslbzLHi4tcfW_9indicatif }>, align 8
@alloc_f62df14955f7d78bca139b0a7668683d = private unnamed_addr constant [13 x i8] c"ParseIntError", align 1
@alloc_a5d866b1768ad3f826bccdb004a1a8ae = private unnamed_addr constant [4 x i8] c"kind", align 1
@vtable.p = private unnamed_addr constant <{ [24 x i8], ptr }> <{ [24 x i8] c"\00\00\00\00\00\00\00\00\01\00\00\00\00\00\00\00\01\00\00\00\00\00\00\00", ptr @_RNvXso_NtCslbzLHi4tcfW_9indicatif5styleNtB5_5StateNtNtCsjMrxcFdYDNN_4core3fmt5Debug3fmt }>, align 8
@vtable.q = private unnamed_addr constant <{ [24 x i8], ptr }> <{ [24 x i8] c"\00\00\00\00\00\00\00\00\08\00\00\00\00\00\00\00\08\00\00\00\00\00\00\00", ptr @_RNvXs1g_NtCsjMrxcFdYDNN_4core3fmtRcNtB6_5Debug3fmtCslbzLHi4tcfW_9indicatif }>, align 8
@alloc_9f2fa27de5475d5139425b40cf344001 = private unnamed_addr constant [13 x i8] c"TemplateError", align 1
@alloc_53dc2ae8bb09ccd50a261f689b87edcd = private unnamed_addr constant [5 x i8] c"state", align 1
@alloc_33c023552cda4833100c88f89869fb29 = private unnamed_addr constant [4 x i8] c"next", align 1
@alloc_59ba7b9f7211443cd55a366616eef46a = private unnamed_addr constant [5 x i8] c"Empty", align 1
@alloc_00315c78e51d29fe6b3102a4c1ecf6ef = private unnamed_addr constant [12 x i8] c"InvalidDigit", align 1
@alloc_bd3a3f3879e0d5f64554753e977f58d4 = private unnamed_addr constant [11 x i8] c"PosOverflow", align 1
@alloc_0964bb2a4870637395c77a018495bd5c = private unnamed_addr constant [11 x i8] c"NegOverflow", align 1
@alloc_6566120a3a17f930e960a0863fcbd591 = private unnamed_addr constant [4 x i8] c"Zero", align 1
@vtable.r = private unnamed_addr constant <{ ptr, [16 x i8], ptr }> <{ ptr @_RINvNtCsjMrxcFdYDNN_4core3ptr13drop_in_placeINtNtCsdJPVW0sQgAG_5alloc3vec3VecNtNtCslbzLHi4tcfW_9indicatif11draw_target8LineTypeEEB1h_, [16 x i8] c"\18\00\00\00\00\00\00\00\08\00\00\00\00\00\00\00", ptr @_RNvXsq_NtCsdJPVW0sQgAG_5alloc3vecINtB5_3VecNtNtCslbzLHi4tcfW_9indicatif11draw_target8LineTypeENtNtCsjMrxcFdYDNN_4core3fmt5Debug3fmtBJ_ }>, align 8
@vtable.s = private unnamed_addr constant <{ [24 x i8], ptr }> <{ [24 x i8] c"\00\00\00\00\00\00\00\00\08\00\00\00\00\00\00\00\08\00\00\00\00\00\00\00", ptr @_RNvXs1g_NtCsjMrxcFdYDNN_4core3fmtRNtNtCslbzLHi4tcfW_9indicatif5multi22MultiProgressAlignmentNtB6_5Debug3fmtBA_ }>, align 8
@alloc_2fe3fb1c974fd5e742dfe8c7b8f1a65a = private unnamed_addr constant [9 x i8] c"DrawState", align 1
@alloc_7d0a47a38f134a5c09ef084689eb7509 = private unnamed_addr constant [5 x i8] c"lines", align 1
@alloc_a0abc4f1ee9911e56d33b9110a3958f5 = private unnamed_addr constant [11 x i8] c"move_cursor", align 1
@alloc_6b1bab0fc30a841a0c0de90d0055d178 = private unnamed_addr constant [9 x i8] c"alignment", align 1
@alloc_33ac9531a9c2c24dc222b4b41e31ecf8 = private unnamed_addr constant [7 x i8] c"Literal", align 1
@alloc_ed6ec4a9a8ce475618e68e068cc143dd = private unnamed_addr constant [9 x i8] c"MaybeOpen", align 1
@alloc_adc0e3c2c5ac8c215f1af0c0789b28ce = private unnamed_addr constant [11 x i8] c"DoubleClose", align 1
@alloc_da9739b0547482ed3f74525793b633d3 = private unnamed_addr constant [3 x i8] c"Key", align 1
@alloc_52bcbcb910414da1691d923a1dc38444 = private unnamed_addr constant [5 x i8] c"Align", align 1
@alloc_2348769bb00eef7e7d610b386558569d = private unnamed_addr constant [5 x i8] c"Width", align 1
@alloc_4d531d797a9f855bc7d014eafc31c6e6 = private unnamed_addr constant [10 x i8] c"FirstStyle", align 1
@alloc_cc11c33d60481fdad74b4d292a9b2495 = private unnamed_addr constant [8 x i8] c"AltStyle", align 1
@vtable.t = private unnamed_addr constant <{ [24 x i8], ptr }> <{ [24 x i8] c"\00\00\00\00\00\00\00\00\08\00\00\00\00\00\00\00\08\00\00\00\00\00\00\00", ptr @_RNvXs1g_NtCsjMrxcFdYDNN_4core3fmtRNtNtCsdJPVW0sQgAG_5alloc6string6StringNtB6_5Debug3fmtCslbzLHi4tcfW_9indicatif }>, align 8
@alloc_02568eb96046fc0ace425bb2cb61fd98 = private unnamed_addr constant [4 x i8] c"Text", align 1
@alloc_48f53d1e68769184db55612e60f6d966 = private unnamed_addr constant [3 x i8] c"Bar", align 1
@alloc_8d68fcbc011419193bd208f22e2789d1 = private unnamed_addr constant [28 x i8] c"failed to write whole buffer", align 1
@alloc_0c6bd0c1dc63d8d7fb1eb0c800f5dec2 = private unnamed_addr constant <{ ptr, [9 x i8], [7 x i8] }> <{ ptr @alloc_8d68fcbc011419193bd208f22e2789d1, [9 x i8] c"\1C\00\00\00\00\00\00\00\17", [7 x i8] undef }>, align 8
@alloc_79593743b3b0920a7b2e6e6acc5dadf0 = private unnamed_addr constant <{ ptr, [16 x i8] }> <{ ptr @alloc_2bd3b8890b9559f1d5fa47166d6aa71d, [16 x i8] c"q\00\00\00\00\00\00\00Y\07\00\00$\00\00\00" }>, align 8
@switch.table._RNvNtCslbzLHi4tcfW_9indicatif5style5width = private unnamed_addr constant [7 x i16] [i16 0, i16 poison, i16 poison, i16 poison, i16 33, i16 32, i16 0], align 2
@switch.table._RNvXs1g_NtCsjMrxcFdYDNN_4core3fmtRNtNtNtB8_3num5error12IntErrorKindNtB6_5Debug3fmtCslbzLHi4tcfW_9indicatif = private unnamed_addr constant [5 x i64] [i64 5, i64 12, i64 11, i64 11, i64 4], align 8
@switch.table._RNvXs1g_NtCsjMrxcFdYDNN_4core3fmtRNtNtNtB8_3num5error12IntErrorKindNtB6_5Debug3fmtCslbzLHi4tcfW_9indicatif.260 = private unnamed_addr constant [5 x ptr] [ptr @alloc_59ba7b9f7211443cd55a366616eef46a, ptr @alloc_00315c78e51d29fe6b3102a4c1ecf6ef, ptr @alloc_bd3a3f3879e0d5f64554753e977f58d4, ptr @alloc_0964bb2a4870637395c77a018495bd5c, ptr @alloc_6566120a3a17f930e960a0863fcbd591], align 8
@switch.table._RNvXso_NtCslbzLHi4tcfW_9indicatif5styleNtB5_5StateNtNtCsjMrxcFdYDNN_4core3fmt5Debug3fmt = private unnamed_addr constant [8 x i64] [i64 7, i64 9, i64 11, i64 3, i64 5, i64 5, i64 10, i64 8], align 8
@switch.table._RNvXso_NtCslbzLHi4tcfW_9indicatif5styleNtB5_5StateNtNtCsjMrxcFdYDNN_4core3fmt5Debug3fmt.261 = private unnamed_addr constant [8 x ptr] [ptr @alloc_33ac9531a9c2c24dc222b4b41e31ecf8, ptr @alloc_ed6ec4a9a8ce475618e68e068cc143dd, ptr @alloc_adc0e3c2c5ac8c215f1af0c0789b28ce, ptr @alloc_da9739b0547482ed3f74525793b633d3, ptr @alloc_52bcbcb910414da1691d923a1dc38444, ptr @alloc_2348769bb00eef7e7d610b386558569d, ptr @alloc_4d531d797a9f855bc7d014eafc31c6e6, ptr @alloc_cc11c33d60481fdad74b4d292a9b2495], align 8

@_RNvXs2_NtCslbzLHi4tcfW_9indicatif6formatNtB5_11BinaryBytesNtNtCsjMrxcFdYDNN_4core3fmt7Display3fmt = unnamed_addr alias i1 (ptr, ptr), ptr @_RNvXs0_NtCslbzLHi4tcfW_9indicatif6formatNtB5_10HumanBytesNtNtCsjMrxcFdYDNN_4core3fmt7Display3fmt

; <std::sync::once_lock::OnceLock<alloc::string::String>>::initialize::<<std::sync::once_lock::OnceLock<alloc::string::String>>::get_or_init<<std::sync::once_lock::OnceLock<alloc::string::String>>::try_insert::{closure#0}>::{closure#0}, !>
; Function Attrs: cold minsize optsize uwtable
define internal fastcc void @_RINvMNtNtCs5sEH5CPMdak_3std4sync9once_lockINtB3_8OnceLockNtNtCsdJPVW0sQgAG_5alloc6string6StringE10initializeNCINvB2_11get_or_initNCNvB2_10try_insert0E0zECslbzLHi4tcfW_9indicatif(ptr noundef nonnull align 8 %self, ptr noalias noundef nonnull align 8 dereferenceable(24) %f) unnamed_addr #0 personality ptr @rust_eh_personality {
start:
  %res = alloca [0 x i8], align 1
  %_11.i = alloca [8 x i8], align 8
  %f1.i = alloca [24 x i8], align 8
  %0 = load atomic ptr, ptr %self acquire, align 8, !noalias !2
  %_3.i = icmp eq ptr %0, null
  br i1 %_3.i, label %_RINvMs0_NtNtCs5sEH5CPMdak_3std4sync4onceNtB6_4Once15call_once_forceNCINvMNtB8_9once_lockINtB19_8OnceLockNtNtCsdJPVW0sQgAG_5alloc6string6StringE10initializeNCINvB18_11get_or_initNCNvB18_10try_insert0E0zE0ECslbzLHi4tcfW_9indicatif.exit, label %bb2.i, !prof !5

bb2.i:                                            ; preds = %start
  %slot = getelementptr inbounds nuw i8, ptr %self, i64 8
  call void @llvm.lifetime.start.p0(i64 24, ptr nonnull %f1.i), !noalias !2
  store ptr %f, ptr %f1.i, align 8
  %_7.sroa.4.0.f1.i.sroa_idx = getelementptr inbounds nuw i8, ptr %f1.i, i64 8
  store ptr %slot, ptr %_7.sroa.4.0.f1.i.sroa_idx, align 8
  %_7.sroa.5.0.f1.i.sroa_idx = getelementptr inbounds nuw i8, ptr %f1.i, i64 16
  store ptr %res, ptr %_7.sroa.5.0.f1.i.sroa_idx, align 8
  call void @llvm.lifetime.start.p0(i64 8, ptr nonnull %_11.i), !noalias !2
  store ptr %f1.i, ptr %_11.i, align 8, !noalias !2
; call <std::sys::sync::once::queue::Once>::call
  call void @_RNvMNtNtNtNtCs5sEH5CPMdak_3std3sys4sync4once5queueNtB2_4Once4call(ptr noundef nonnull align 8 %self, i1 noundef zeroext true, ptr noundef nonnull align 1 %_11.i, ptr noalias noundef readonly align 8 captures(address, read_provenance) dereferenceable(40) @vtable.0, ptr noalias noundef readonly align 8 captures(address, read_provenance) dereferenceable(24) @alloc_8378aaebaad91fef47ffcd13bea9f999), !noalias !2
  call void @llvm.lifetime.end.p0(i64 8, ptr nonnull %_11.i), !noalias !2
  call void @llvm.lifetime.end.p0(i64 24, ptr nonnull %f1.i), !noalias !2
  br label %_RINvMs0_NtNtCs5sEH5CPMdak_3std4sync4onceNtB6_4Once15call_once_forceNCINvMNtB8_9once_lockINtB19_8OnceLockNtNtCsdJPVW0sQgAG_5alloc6string6StringE10initializeNCINvB18_11get_or_initNCNvB18_10try_insert0E0zE0ECslbzLHi4tcfW_9indicatif.exit

_RINvMs0_NtNtCs5sEH5CPMdak_3std4sync4onceNtB6_4Once15call_once_forceNCINvMNtB8_9once_lockINtB19_8OnceLockNtNtCsdJPVW0sQgAG_5alloc6string6StringE10initializeNCINvB18_11get_or_initNCNvB18_10try_insert0E0zE0ECslbzLHi4tcfW_9indicatif.exit: ; preds = %start, %bb2.i
  ret void
}

; <std::sync::once_lock::OnceLock<alloc::string::String>>::initialize::<<std::sync::once_lock::OnceLock<alloc::string::String>>::get_or_init<<indicatif::state::TabExpandedString>::expanded::{closure#0}>::{closure#0}, !>
; Function Attrs: cold minsize optsize uwtable
define internal fastcc void @_RINvMNtNtCs5sEH5CPMdak_3std4sync9once_lockINtB3_8OnceLockNtNtCsdJPVW0sQgAG_5alloc6string6StringE10initializeNCINvB2_11get_or_initNCNvMs1_NtCslbzLHi4tcfW_9indicatif5stateNtB2b_17TabExpandedString8expanded0E0zEB2d_(ptr noundef nonnull align 8 %self, ptr noalias noundef nonnull readonly align 8 captures(address, read_provenance) dereferenceable(24) %f.0, ptr noalias noundef nonnull readonly align 8 captures(address, read_provenance) dereferenceable(8) %f.1) unnamed_addr #0 personality ptr @rust_eh_personality {
start:
  %res = alloca [0 x i8], align 1
  %_11.i = alloca [8 x i8], align 8
  %f1.i = alloca [32 x i8], align 8
  %0 = load atomic ptr, ptr %self acquire, align 8, !noalias !6
  %_3.i = icmp eq ptr %0, null
  br i1 %_3.i, label %_RINvMs0_NtNtCs5sEH5CPMdak_3std4sync4onceNtB6_4Once15call_once_forceNCINvMNtB8_9once_lockINtB19_8OnceLockNtNtCsdJPVW0sQgAG_5alloc6string6StringE10initializeNCINvB18_11get_or_initNCNvMs1_NtCslbzLHi4tcfW_9indicatif5stateNtB2X_17TabExpandedString8expanded0E0zE0EB2Z_.exit, label %bb2.i, !prof !5

bb2.i:                                            ; preds = %start
  %slot = getelementptr inbounds nuw i8, ptr %self, i64 8
  call void @llvm.lifetime.start.p0(i64 32, ptr nonnull %f1.i), !noalias !6
  store ptr %f.0, ptr %f1.i, align 8
  %_7.sroa.4.0.f1.i.sroa_idx = getelementptr inbounds nuw i8, ptr %f1.i, i64 8
  store ptr %f.1, ptr %_7.sroa.4.0.f1.i.sroa_idx, align 8
  %_7.sroa.5.0.f1.i.sroa_idx = getelementptr inbounds nuw i8, ptr %f1.i, i64 16
  store ptr %slot, ptr %_7.sroa.5.0.f1.i.sroa_idx, align 8
  %_7.sroa.6.0.f1.i.sroa_idx = getelementptr inbounds nuw i8, ptr %f1.i, i64 24
  store ptr %res, ptr %_7.sroa.6.0.f1.i.sroa_idx, align 8
  call void @llvm.lifetime.start.p0(i64 8, ptr nonnull %_11.i), !noalias !6
  store ptr %f1.i, ptr %_11.i, align 8, !noalias !6
; call <std::sys::sync::once::queue::Once>::call
  call void @_RNvMNtNtNtNtCs5sEH5CPMdak_3std3sys4sync4once5queueNtB2_4Once4call(ptr noundef nonnull align 8 %self, i1 noundef zeroext true, ptr noundef nonnull align 1 %_11.i, ptr noalias noundef readonly align 8 captures(address, read_provenance) dereferenceable(40) @vtable.1, ptr noalias noundef readonly align 8 captures(address, read_provenance) dereferenceable(24) @alloc_8378aaebaad91fef47ffcd13bea9f999), !noalias !6
  call void @llvm.lifetime.end.p0(i64 8, ptr nonnull %_11.i), !noalias !6
  call void @llvm.lifetime.end.p0(i64 32, ptr nonnull %f1.i), !noalias !6
  br label %_RINvMs0_NtNtCs5sEH5CPMdak_3std4sync4onceNtB6_4Once15call_once_forceNCINvMNtB8_9once_lockINtB19_8OnceLockNtNtCsdJPVW0sQgAG_5alloc6string6StringE10initializeNCINvB18_11get_or_initNCNvMs1_NtCslbzLHi4tcfW_9indicatif5stateNtB2X_17TabExpandedString8expanded0E0zE0EB2Z_.exit

_RINvMs0_NtNtCs5sEH5CPMdak_3std4sync4onceNtB6_4Once15call_once_forceNCINvMNtB8_9once_lockINtB19_8OnceLockNtNtCsdJPVW0sQgAG_5alloc6string6StringE10initializeNCINvB18_11get_or_initNCNvMs1_NtCslbzLHi4tcfW_9indicatif5stateNtB2X_17TabExpandedString8expanded0E0zE0EB2Z_.exit: ; preds = %start, %bb2.i
  ret void
}

; <std::sys::sync::once_box::OnceBox<std::sys::pal::unix::sync::mutex::Mutex>>::initialize::<<std::sys::sync::mutex::pthread::Mutex>::get::{closure#0}>
; Function Attrs: cold uwtable
define internal fastcc noundef nonnull align 8 ptr @_RINvMNtNtNtCs5sEH5CPMdak_3std3sys4sync8once_boxINtB3_7OnceBoxNtNtNtNtNtB7_3pal4unix4sync5mutex5MutexE10initializeNCNvMNtNtB5_5mutex7pthreadNtB1S_5Mutex3get0ECslbzLHi4tcfW_9indicatif(ptr noundef nonnull align 8 captures(none) %self) unnamed_addr #1 personality ptr @rust_eh_personality {
start:
  %x.i = alloca [64 x i8], align 8
  call void @llvm.lifetime.start.p0(i64 64, ptr nonnull %x.i)
  call void @llvm.memcpy.p0.p0.i64(ptr noundef nonnull align 8 dereferenceable(64) %x.i, ptr noundef nonnull align 8 dereferenceable(64) @anon.b48e250911114c815fdbc18e136165bc.0, i64 64, i1 false)
; call __rustc::__rust_no_alloc_shim_is_unstable_v2
  tail call void @_RNvCsKhRCbHf33p_7___rustc35___rust_no_alloc_shim_is_unstable_v2() #30, !noalias !9
; call __rustc::__rust_alloc
  %0 = tail call noundef align 8 dereferenceable_or_null(64) ptr @_RNvCsKhRCbHf33p_7___rustc12___rust_alloc(i64 noundef 64, i64 noundef 8) #30, !noalias !9
  %1 = icmp eq ptr %0, null
  br i1 %1, label %bb2.i.i, label %_RNvMNtCsdJPVW0sQgAG_5alloc5boxedINtB2_3BoxNtNtNtNtNtNtCs5sEH5CPMdak_3std3sys3pal4unix4sync5mutex5MutexE3newCslbzLHi4tcfW_9indicatif.exit.i, !prof !12

bb2.i.i:                                          ; preds = %start
; invoke alloc::alloc::handle_alloc_error
  invoke void @_RNvNtCsdJPVW0sQgAG_5alloc5alloc18handle_alloc_error(i64 noundef 8, i64 noundef 64) #31
          to label %.noexc.i unwind label %cleanup.i.i

.noexc.i:                                         ; preds = %bb2.i.i
  unreachable

cleanup.i.i:                                      ; preds = %bb2.i.i
  %2 = landingpad { ptr, i32 }
          cleanup
; invoke <std::sys::pal::unix::sync::mutex::Mutex as core::ops::drop::Drop>::drop
  invoke void @_RNvXs2_NtNtNtNtNtCs5sEH5CPMdak_3std3sys3pal4unix4sync5mutexNtB5_5MutexNtNtNtCsjMrxcFdYDNN_4core3ops4drop4Drop4drop(ptr noundef nonnull align 8 dereferenceable(64) %x.i)
          to label %common.resume unwind label %terminate.i.i

terminate.i.i:                                    ; preds = %cleanup.i.i
  %3 = landingpad { ptr, i32 }
          filter [0 x ptr] zeroinitializer
; call core::panicking::panic_in_cleanup
  call void @_RNvNtCsjMrxcFdYDNN_4core9panicking16panic_in_cleanup() #32
  unreachable

common.resume:                                    ; preds = %cleanup.i.i, %cleanup.i, %bb1.i
  %common.resume.op = phi { ptr, i32 } [ %9, %bb1.i ], [ %2, %cleanup.i.i ], [ %4, %cleanup.i ]
  resume { ptr, i32 } %common.resume.op

_RNvMNtCsdJPVW0sQgAG_5alloc5boxedINtB2_3BoxNtNtNtNtNtNtCs5sEH5CPMdak_3std3sys3pal4unix4sync5mutex5MutexE3newCslbzLHi4tcfW_9indicatif.exit.i: ; preds = %start
  tail call void @llvm.memcpy.p0.p0.i64(ptr noundef nonnull align 8 dereferenceable(64) %0, ptr noundef nonnull align 8 dereferenceable(64) @anon.b48e250911114c815fdbc18e136165bc.0, i64 64, i1 false)
  call void @llvm.lifetime.end.p0(i64 64, ptr nonnull %x.i)
; invoke <std::sys::pal::unix::sync::mutex::Mutex>::init
  invoke void @_RNvMNtNtNtNtNtCs5sEH5CPMdak_3std3sys3pal4unix4sync5mutexNtB2_5Mutex4init(ptr noundef nonnull align 8 %0)
          to label %_RNCNvMNtNtNtNtCs5sEH5CPMdak_3std3sys4sync5mutex7pthreadNtB4_5Mutex3get0CslbzLHi4tcfW_9indicatif.exit unwind label %cleanup.i

cleanup.i:                                        ; preds = %_RNvMNtCsdJPVW0sQgAG_5alloc5boxedINtB2_3BoxNtNtNtNtNtNtCs5sEH5CPMdak_3std3sys3pal4unix4sync5mutex5MutexE3newCslbzLHi4tcfW_9indicatif.exit.i
  %4 = landingpad { ptr, i32 }
          cleanup
; invoke core::ptr::drop_in_place::<core::pin::Pin<alloc::boxed::Box<std::sys::pal::unix::sync::mutex::Mutex>>>
  invoke fastcc void @_RINvNtCsjMrxcFdYDNN_4core3ptr13drop_in_placeINtNtB4_3pin3PinINtNtCsdJPVW0sQgAG_5alloc5boxed3BoxNtNtNtNtNtNtCs5sEH5CPMdak_3std3sys3pal4unix4sync5mutex5MutexEEECslbzLHi4tcfW_9indicatif(ptr %0) #33
          to label %common.resume unwind label %terminate.i

terminate.i:                                      ; preds = %cleanup.i
  %5 = landingpad { ptr, i32 }
          filter [0 x ptr] zeroinitializer
; call core::panicking::panic_in_cleanup
  tail call void @_RNvNtCsjMrxcFdYDNN_4core9panicking16panic_in_cleanup() #32
  unreachable

_RNCNvMNtNtNtNtCs5sEH5CPMdak_3std3sys4sync5mutex7pthreadNtB4_5Mutex3get0CslbzLHi4tcfW_9indicatif.exit: ; preds = %_RNvMNtCsdJPVW0sQgAG_5alloc5boxedINtB2_3BoxNtNtNtNtNtNtCs5sEH5CPMdak_3std3sys3pal4unix4sync5mutex5MutexE3newCslbzLHi4tcfW_9indicatif.exit.i
  %6 = cmpxchg ptr %self, ptr null, ptr %0 release acquire, align 8
  %7 = extractvalue { ptr, i1 } %6, 1
  %8 = extractvalue { ptr, i1 } %6, 0
  br i1 %7, label %bb5, label %bb3

bb3:                                              ; preds = %_RNCNvMNtNtNtNtCs5sEH5CPMdak_3std3sys4sync5mutex7pthreadNtB4_5Mutex3get0CslbzLHi4tcfW_9indicatif.exit
; invoke <std::sys::pal::unix::sync::mutex::Mutex as core::ops::drop::Drop>::drop
  invoke void @_RNvXs2_NtNtNtNtNtCs5sEH5CPMdak_3std3sys3pal4unix4sync5mutexNtB5_5MutexNtNtNtCsjMrxcFdYDNN_4core3ops4drop4Drop4drop(ptr noundef nonnull align 8 %0)
          to label %_RINvNtCsjMrxcFdYDNN_4core3ptr13drop_in_placeINtNtCsdJPVW0sQgAG_5alloc5boxed3BoxNtNtNtNtNtNtCs5sEH5CPMdak_3std3sys3pal4unix4sync5mutex5MutexEECslbzLHi4tcfW_9indicatif.exit unwind label %bb1.i

bb1.i:                                            ; preds = %bb3
  %9 = landingpad { ptr, i32 }
          cleanup
; call __rustc::__rust_dealloc
  tail call void @_RNvCsKhRCbHf33p_7___rustc14___rust_dealloc(ptr noundef nonnull %0, i64 noundef 64, i64 noundef 8) #30
  br label %common.resume

_RINvNtCsjMrxcFdYDNN_4core3ptr13drop_in_placeINtNtCsdJPVW0sQgAG_5alloc5boxed3BoxNtNtNtNtNtNtCs5sEH5CPMdak_3std3sys3pal4unix4sync5mutex5MutexEECslbzLHi4tcfW_9indicatif.exit: ; preds = %bb3
; call __rustc::__rust_dealloc
  tail call void @_RNvCsKhRCbHf33p_7___rustc14___rust_dealloc(ptr noundef nonnull %0, i64 noundef 64, i64 noundef 8) #30
  br label %bb5

bb5:                                              ; preds = %_RNCNvMNtNtNtNtCs5sEH5CPMdak_3std3sys4sync5mutex7pthreadNtB4_5Mutex3get0CslbzLHi4tcfW_9indicatif.exit, %_RINvNtCsjMrxcFdYDNN_4core3ptr13drop_in_placeINtNtCsdJPVW0sQgAG_5alloc5boxed3BoxNtNtNtNtNtNtCs5sEH5CPMdak_3std3sys3pal4unix4sync5mutex5MutexEECslbzLHi4tcfW_9indicatif.exit
  %_0.sroa.0.0 = phi ptr [ %8, %_RINvNtCsjMrxcFdYDNN_4core3ptr13drop_in_placeINtNtCsdJPVW0sQgAG_5alloc5boxed3BoxNtNtNtNtNtNtCs5sEH5CPMdak_3std3sys3pal4unix4sync5mutex5MutexEECslbzLHi4tcfW_9indicatif.exit ], [ %0, %_RNCNvMNtNtNtNtCs5sEH5CPMdak_3std3sys4sync5mutex7pthreadNtB4_5Mutex3get0CslbzLHi4tcfW_9indicatif.exit ]
  %10 = icmp ne ptr %_0.sroa.0.0, null
  tail call void @llvm.assume(i1 %10)
  ret ptr %_0.sroa.0.0
}

; <once_cell::imp::OnceCell<core::sync::atomic::AtomicBool>>::initialize::<<once_cell::sync::OnceCell<core::sync::atomic::AtomicBool>>::get_or_init<<once_cell::sync::Lazy<core::sync::atomic::AtomicBool>>::force::{closure#0}>::{closure#0}, <once_cell::sync::OnceCell<_>>::get_or_init::Void>
; Function Attrs: cold uwtable
define internal fastcc void @_RINvMs2_NtCsdBIbacKQwMq_9once_cell3impINtB6_8OnceCellNtNtNtCsjMrxcFdYDNN_4core4sync6atomic10AtomicBoolE10initializeNCINvMs4_NtB8_4syncINtB1Y_8OnceCellBP_E11get_or_initNCNvMs9_B1Y_INtB1Y_4LazyBP_E5force0E0NtNvMs4_B1Y_IB29_pE11get_or_init4VoidECslbzLHi4tcfW_9indicatif(ptr noundef nonnull align 8 %self, ptr noundef nonnull align 8 %f) unnamed_addr #1 personality ptr @rust_eh_personality {
start:
  %res = alloca [0 x i8], align 1
  %_11 = alloca [24 x i8], align 8
  %slot = alloca [8 x i8], align 8
  %f1 = alloca [8 x i8], align 8
  call void @llvm.lifetime.start.p0(i64 8, ptr nonnull %f1)
  store ptr %f, ptr %f1, align 8
  call void @llvm.lifetime.start.p0(i64 8, ptr nonnull %slot)
  %_15 = getelementptr inbounds nuw i8, ptr %self, i64 8
  store ptr %_15, ptr %slot, align 8
  call void @llvm.lifetime.start.p0(i64 24, ptr nonnull %_11)
  store ptr %f1, ptr %_11, align 8
  %0 = getelementptr inbounds nuw i8, ptr %_11, i64 8
  store ptr %slot, ptr %0, align 8
  %1 = getelementptr inbounds nuw i8, ptr %_11, i64 16
  store ptr %res, ptr %1, align 8
; call once_cell::imp::initialize_or_wait
  call void @_RNvNtCsdBIbacKQwMq_9once_cell3imp18initialize_or_wait(ptr noundef nonnull align 8 %self, ptr noundef nonnull align 1 %_11, ptr nonnull @vtable.2)
  call void @llvm.lifetime.end.p0(i64 24, ptr nonnull %_11)
  call void @llvm.lifetime.end.p0(i64 8, ptr nonnull %slot)
  call void @llvm.lifetime.end.p0(i64 8, ptr nonnull %f1)
  ret void
}

; <str>::replace::<char>
; Function Attrs: inlinehint uwtable
define internal fastcc void @_RINvMs3_NtCsdJPVW0sQgAG_5alloc3stre7replacecECslbzLHi4tcfW_9indicatif(ptr dead_on_unwind noalias noundef nonnull writable writeonly align 8 captures(none) dereferenceable(24) %_0, ptr noalias noundef nonnull readonly align 1 captures(address, read_provenance) %self.0, i64 noundef %self.1, i32 noundef range(i32 0, 10) %0, ptr noalias noundef nonnull readonly align 1 captures(none) %to.0, i64 noundef %to.1) unnamed_addr #2 personality ptr @rust_eh_personality {
bb58:
  %self5 = alloca [24 x i8], align 8
  %iter = alloca [48 x i8], align 8
  %result = alloca [24 x i8], align 8
  %b = trunc nuw nsw i32 %0 to i8
  %1 = icmp eq i64 %to.1, 1
  br i1 %1, label %bb7, label %bb19

bb7:                                              ; preds = %bb58
  %2 = load i8, ptr %to.0, align 1, !noundef !13
  %_23.i.i.i.i = icmp samesign eq i64 %self.1, 0
  br i1 %_23.i.i.i.i, label %_RNvXs_NtNtCsdJPVW0sQgAG_5alloc3vec21spec_from_iter_nestedINtB6_3VechEINtB4_18SpecFromIterNestedhINtNtNtNtCsjMrxcFdYDNN_4core4iter8adapters3map3MapINtNtNtB1F_5slice4iter4IterhENCNvNtB8_3str13replace_ascii0EE9from_iterCslbzLHi4tcfW_9indicatif.exit, label %bb6.i.i.i.i

bb6.i.i.i.i:                                      ; preds = %bb7
  %or.cond.not.i = icmp sgt i64 %self.1, 0
  br i1 %or.cond.not.i, label %_RNvXs_NtCsdJPVW0sQgAG_5alloc5allocNtB4_6GlobalNtNtCsjMrxcFdYDNN_4core5alloc9Allocator8allocate.exit.i.i.i, label %bb3.i.i, !prof !14

_RNvXs_NtCsdJPVW0sQgAG_5alloc5allocNtB4_6GlobalNtNtCsjMrxcFdYDNN_4core5alloc9Allocator8allocate.exit.i.i.i: ; preds = %bb6.i.i.i.i
; call __rustc::__rust_no_alloc_shim_is_unstable_v2
  tail call void @_RNvCsKhRCbHf33p_7___rustc35___rust_no_alloc_shim_is_unstable_v2() #30, !noalias !15
; call __rustc::__rust_alloc
  %3 = tail call noundef ptr @_RNvCsKhRCbHf33p_7___rustc12___rust_alloc(i64 noundef %self.1, i64 noundef range(i64 1, 9) 1) #30, !noalias !15
  %4 = icmp eq ptr %3, null
  br i1 %4, label %bb3.i.i, label %iter.check

iter.check:                                       ; preds = %_RNvXs_NtCsdJPVW0sQgAG_5alloc5allocNtB4_6GlobalNtNtCsjMrxcFdYDNN_4core5alloc9Allocator8allocate.exit.i.i.i
  %min.iters.check = icmp ult i64 %self.1, 8
  br i1 %min.iters.check, label %bb9.i.i.i.i.i.i.preheader, label %vector.main.loop.iter.check

bb9.i.i.i.i.i.i.preheader:                        ; preds = %vec.epilog.iter.check, %vec.epilog.middle.block, %iter.check
  %.ph = phi i64 [ 0, %iter.check ], [ %n.vec, %vec.epilog.iter.check ], [ %n.vec82, %vec.epilog.middle.block ]
  br label %bb9.i.i.i.i.i.i

vector.main.loop.iter.check:                      ; preds = %iter.check
  %min.iters.check75 = icmp ult i64 %self.1, 64
  br i1 %min.iters.check75, label %vec.epilog.ph, label %vector.ph

vector.ph:                                        ; preds = %vector.main.loop.iter.check
  %n.vec = and i64 %self.1, 9223372036854775744
  %broadcast.splatinsert = insertelement <16 x i8> poison, i8 %b, i64 0
  %broadcast.splat = shufflevector <16 x i8> %broadcast.splatinsert, <16 x i8> poison, <16 x i32> zeroinitializer
  %broadcast.splatinsert76 = insertelement <16 x i8> poison, i8 %2, i64 0
  %broadcast.splat77 = shufflevector <16 x i8> %broadcast.splatinsert76, <16 x i8> poison, <16 x i32> zeroinitializer
  br label %vector.body

vector.body:                                      ; preds = %vector.body, %vector.ph
  %index = phi i64 [ 0, %vector.ph ], [ %index.next, %vector.body ]
  %5 = getelementptr inbounds nuw i8, ptr %self.0, i64 %index
  %6 = getelementptr inbounds nuw i8, ptr %5, i64 16
  %7 = getelementptr inbounds nuw i8, ptr %5, i64 32
  %8 = getelementptr inbounds nuw i8, ptr %5, i64 48
  %wide.load = load <16 x i8>, ptr %5, align 1, !noalias !21
  %wide.load78 = load <16 x i8>, ptr %6, align 1, !noalias !21
  %wide.load79 = load <16 x i8>, ptr %7, align 1, !noalias !21
  %wide.load80 = load <16 x i8>, ptr %8, align 1, !noalias !21
  %9 = icmp eq <16 x i8> %wide.load, %broadcast.splat
  %10 = icmp eq <16 x i8> %wide.load78, %broadcast.splat
  %11 = icmp eq <16 x i8> %wide.load79, %broadcast.splat
  %12 = icmp eq <16 x i8> %wide.load80, %broadcast.splat
  %13 = select <16 x i1> %9, <16 x i8> %broadcast.splat77, <16 x i8> %wide.load
  %14 = select <16 x i1> %10, <16 x i8> %broadcast.splat77, <16 x i8> %wide.load78
  %15 = select <16 x i1> %11, <16 x i8> %broadcast.splat77, <16 x i8> %wide.load79
  %16 = select <16 x i1> %12, <16 x i8> %broadcast.splat77, <16 x i8> %wide.load80
  %17 = getelementptr inbounds nuw i8, ptr %3, i64 %index
  %18 = getelementptr inbounds nuw i8, ptr %17, i64 16
  %19 = getelementptr inbounds nuw i8, ptr %17, i64 32
  %20 = getelementptr inbounds nuw i8, ptr %17, i64 48
  store <16 x i8> %13, ptr %17, align 1, !noalias !36
  store <16 x i8> %14, ptr %18, align 1, !noalias !36
  store <16 x i8> %15, ptr %19, align 1, !noalias !36
  store <16 x i8> %16, ptr %20, align 1, !noalias !36
  %index.next = add nuw i64 %index, 64
  %21 = icmp eq i64 %index.next, %n.vec
  br i1 %21, label %middle.block, label %vector.body, !llvm.loop !43

middle.block:                                     ; preds = %vector.body
  %cmp.n = icmp eq i64 %self.1, %n.vec
  br i1 %cmp.n, label %_RNvXs_NtNtCsdJPVW0sQgAG_5alloc3vec21spec_from_iter_nestedINtB6_3VechEINtB4_18SpecFromIterNestedhINtNtNtNtCsjMrxcFdYDNN_4core4iter8adapters3map3MapINtNtNtB1F_5slice4iter4IterhENCNvNtB8_3str13replace_ascii0EE9from_iterCslbzLHi4tcfW_9indicatif.exit, label %vec.epilog.iter.check

vec.epilog.iter.check:                            ; preds = %middle.block
  %n.vec.remaining = and i64 %self.1, 56
  %min.epilog.iters.check = icmp eq i64 %n.vec.remaining, 0
  br i1 %min.epilog.iters.check, label %bb9.i.i.i.i.i.i.preheader, label %vec.epilog.ph

vec.epilog.ph:                                    ; preds = %vec.epilog.iter.check, %vector.main.loop.iter.check
  %vec.epilog.resume.val = phi i64 [ %n.vec, %vec.epilog.iter.check ], [ 0, %vector.main.loop.iter.check ]
  %n.vec82 = and i64 %self.1, 9223372036854775800
  %broadcast.splatinsert83 = insertelement <8 x i8> poison, i8 %b, i64 0
  %broadcast.splat84 = shufflevector <8 x i8> %broadcast.splatinsert83, <8 x i8> poison, <8 x i32> zeroinitializer
  %broadcast.splatinsert85 = insertelement <8 x i8> poison, i8 %2, i64 0
  %broadcast.splat86 = shufflevector <8 x i8> %broadcast.splatinsert85, <8 x i8> poison, <8 x i32> zeroinitializer
  br label %vec.epilog.vector.body

vec.epilog.vector.body:                           ; preds = %vec.epilog.vector.body, %vec.epilog.ph
  %index87 = phi i64 [ %vec.epilog.resume.val, %vec.epilog.ph ], [ %index.next89, %vec.epilog.vector.body ]
  %22 = getelementptr inbounds nuw i8, ptr %self.0, i64 %index87
  %wide.load88 = load <8 x i8>, ptr %22, align 1, !noalias !21
  %23 = icmp eq <8 x i8> %wide.load88, %broadcast.splat84
  %24 = select <8 x i1> %23, <8 x i8> %broadcast.splat86, <8 x i8> %wide.load88
  %25 = getelementptr inbounds nuw i8, ptr %3, i64 %index87
  store <8 x i8> %24, ptr %25, align 1, !noalias !36
  %index.next89 = add nuw i64 %index87, 8
  %26 = icmp eq i64 %index.next89, %n.vec82
  br i1 %26, label %vec.epilog.middle.block, label %vec.epilog.vector.body, !llvm.loop !46

vec.epilog.middle.block:                          ; preds = %vec.epilog.vector.body
  %cmp.n90 = icmp eq i64 %self.1, %n.vec82
  br i1 %cmp.n90, label %_RNvXs_NtNtCsdJPVW0sQgAG_5alloc3vec21spec_from_iter_nestedINtB6_3VechEINtB4_18SpecFromIterNestedhINtNtNtNtCsjMrxcFdYDNN_4core4iter8adapters3map3MapINtNtNtB1F_5slice4iter4IterhENCNvNtB8_3str13replace_ascii0EE9from_iterCslbzLHi4tcfW_9indicatif.exit, label %bb9.i.i.i.i.i.i.preheader

bb3.i.i:                                          ; preds = %_RNvXs_NtCsdJPVW0sQgAG_5alloc5allocNtB4_6GlobalNtNtCsjMrxcFdYDNN_4core5alloc9Allocator8allocate.exit.i.i.i, %bb6.i.i.i.i
  %_4.sroa.4.0.ph.i.i = phi i64 [ 1, %_RNvXs_NtCsdJPVW0sQgAG_5alloc5allocNtB4_6GlobalNtNtCsjMrxcFdYDNN_4core5alloc9Allocator8allocate.exit.i.i.i ], [ 0, %bb6.i.i.i.i ]
; call alloc::raw_vec::handle_error
  tail call void @_RNvNtCsdJPVW0sQgAG_5alloc7raw_vec12handle_error(i64 noundef %_4.sroa.4.0.ph.i.i, i64 %self.1) #31, !noalias !47
  unreachable

bb9.i.i.i.i.i.i:                                  ; preds = %bb9.i.i.i.i.i.i.preheader, %bb9.i.i.i.i.i.i
  %27 = phi i64 [ %28, %bb9.i.i.i.i.i.i ], [ %.ph, %bb9.i.i.i.i.i.i.preheader ]
  %_46.i.i.i.i.i.i = getelementptr inbounds nuw i8, ptr %self.0, i64 %27
  %_46.val.i.i.i.i.i.i = load i8, ptr %_46.i.i.i.i.i.i, align 1, !noalias !21, !noundef !13
  %_3.i.i.i.i.i.i.i.i = icmp eq i8 %_46.val.i.i.i.i.i.i, %b
  %spec.select = select i1 %_3.i.i.i.i.i.i.i.i, i8 %2, i8 %_46.val.i.i.i.i.i.i
  %_3.i.i.i.i.i.i.i.i.i = getelementptr inbounds nuw i8, ptr %3, i64 %27
  store i8 %spec.select, ptr %_3.i.i.i.i.i.i.i.i.i, align 1, !noalias !36
  %28 = add nuw nsw i64 %27, 1
  %_28.i.i.i.i.i.i = icmp eq i64 %28, %self.1
  br i1 %_28.i.i.i.i.i.i, label %_RNvXs_NtNtCsdJPVW0sQgAG_5alloc3vec21spec_from_iter_nestedINtB6_3VechEINtB4_18SpecFromIterNestedhINtNtNtNtCsjMrxcFdYDNN_4core4iter8adapters3map3MapINtNtNtB1F_5slice4iter4IterhENCNvNtB8_3str13replace_ascii0EE9from_iterCslbzLHi4tcfW_9indicatif.exit, label %bb9.i.i.i.i.i.i, !llvm.loop !48

_RNvXs_NtNtCsdJPVW0sQgAG_5alloc3vec21spec_from_iter_nestedINtB6_3VechEINtB4_18SpecFromIterNestedhINtNtNtNtCsjMrxcFdYDNN_4core4iter8adapters3map3MapINtNtNtB1F_5slice4iter4IterhENCNvNtB8_3str13replace_ascii0EE9from_iterCslbzLHi4tcfW_9indicatif.exit: ; preds = %bb9.i.i.i.i.i.i, %middle.block, %vec.epilog.middle.block, %bb7
  %_4.sroa.10.0.i10.i = phi ptr [ inttoptr (i64 1 to ptr), %bb7 ], [ %3, %vec.epilog.middle.block ], [ %3, %middle.block ], [ %3, %bb9.i.i.i.i.i.i ]
  store i64 %self.1, ptr %_0, align 8
  %result3.sroa.4.0._0.sroa_idx = getelementptr inbounds nuw i8, ptr %_0, i64 8
  store ptr %_4.sroa.10.0.i10.i, ptr %result3.sroa.4.0._0.sroa_idx, align 8
  %result3.sroa.5.0._0.sroa_idx = getelementptr inbounds nuw i8, ptr %_0, i64 16
  store i64 %self.1, ptr %result3.sroa.5.0._0.sroa_idx, align 8
  br label %bb23

bb23:                                             ; preds = %bb55, %_RNvXs_NtNtCsdJPVW0sQgAG_5alloc3vec21spec_from_iter_nestedINtB6_3VechEINtB4_18SpecFromIterNestedhINtNtNtNtCsjMrxcFdYDNN_4core4iter8adapters3map3MapINtNtNtB1F_5slice4iter4IterhENCNvNtB8_3str13replace_ascii0EE9from_iterCslbzLHi4tcfW_9indicatif.exit
  ret void

bb19:                                             ; preds = %bb58
  %_32.not = icmp eq i64 %to.1, 0
  %.self.1 = select i1 %_32.not, i64 0, i64 %self.1
  call void @llvm.lifetime.start.p0(i64 24, ptr nonnull %result)
  %_23.i.i.i = icmp eq i64 %.self.1, 0
  br i1 %_23.i.i.i, label %bb40, label %bb6.i.i.i

bb6.i.i.i:                                        ; preds = %bb19
  %or.cond.not = icmp sgt i64 %.self.1, 0
  br i1 %or.cond.not, label %_RNvXs_NtCsdJPVW0sQgAG_5alloc5allocNtB4_6GlobalNtNtCsjMrxcFdYDNN_4core5alloc9Allocator8allocate.exit.i.i, label %bb3.i, !prof !14

_RNvXs_NtCsdJPVW0sQgAG_5alloc5allocNtB4_6GlobalNtNtCsjMrxcFdYDNN_4core5alloc9Allocator8allocate.exit.i.i: ; preds = %bb6.i.i.i
; call __rustc::__rust_no_alloc_shim_is_unstable_v2
  tail call void @_RNvCsKhRCbHf33p_7___rustc35___rust_no_alloc_shim_is_unstable_v2() #30, !noalias !49
; call __rustc::__rust_alloc
  %29 = tail call noundef ptr @_RNvCsKhRCbHf33p_7___rustc12___rust_alloc(i64 noundef %.self.1, i64 noundef range(i64 1, 9) 1) #30, !noalias !49
  %30 = icmp eq ptr %29, null
  br i1 %30, label %bb3.i, label %bb40

bb3.i:                                            ; preds = %_RNvXs_NtCsdJPVW0sQgAG_5alloc5allocNtB4_6GlobalNtNtCsjMrxcFdYDNN_4core5alloc9Allocator8allocate.exit.i.i, %bb6.i.i.i
  %_4.sroa.4.0.ph.i = phi i64 [ 1, %_RNvXs_NtCsdJPVW0sQgAG_5alloc5allocNtB4_6GlobalNtNtCsjMrxcFdYDNN_4core5alloc9Allocator8allocate.exit.i.i ], [ 0, %bb6.i.i.i ]
; call alloc::raw_vec::handle_error
  tail call void @_RNvNtCsdJPVW0sQgAG_5alloc7raw_vec12handle_error(i64 noundef %_4.sroa.4.0.ph.i, i64 %.self.1) #31
  unreachable

bb25:                                             ; preds = %cleanup10, %cleanup9
  %.pn = phi { ptr, i32 } [ %35, %cleanup10 ], [ %32, %cleanup9 ]
  tail call void @llvm.experimental.noalias.scope.decl(metadata !52)
  %_1.val.i = load i64, ptr %result, align 8, !alias.scope !52
  %31 = icmp eq i64 %_1.val.i, 0
  br i1 %31, label %bb26, label %bb2.i.i.i4.i.i

bb2.i.i.i4.i.i:                                   ; preds = %bb25
  %_1.val1.i = load ptr, ptr %_94.sroa.4.0.result.sroa_idx, align 8, !alias.scope !52, !nonnull !13, !noundef !13
; call __rustc::__rust_dealloc
  tail call void @_RNvCsKhRCbHf33p_7___rustc14___rust_dealloc(ptr noundef nonnull %_1.val1.i, i64 noundef %_1.val.i, i64 noundef range(i64 1, -9223372036854775807) 1) #30, !noalias !52
  br label %bb26

cleanup9:                                         ; preds = %bb1.i.i
  %32 = landingpad { ptr, i32 }
          cleanup
  br label %bb25

bb40:                                             ; preds = %_RNvXs_NtCsdJPVW0sQgAG_5alloc5allocNtB4_6GlobalNtNtCsjMrxcFdYDNN_4core5alloc9Allocator8allocate.exit.i.i, %bb19
  %_4.sroa.10.0.i = phi ptr [ inttoptr (i64 1 to ptr), %bb19 ], [ %29, %_RNvXs_NtCsdJPVW0sQgAG_5alloc5allocNtB4_6GlobalNtNtCsjMrxcFdYDNN_4core5alloc9Allocator8allocate.exit.i.i ]
  store i64 %.self.1, ptr %result, align 8
  %_94.sroa.4.0.result.sroa_idx = getelementptr inbounds nuw i8, ptr %result, i64 8
  store ptr %_4.sroa.10.0.i, ptr %_94.sroa.4.0.result.sroa_idx, align 8
  %_94.sroa.5.0.result.sroa_idx = getelementptr inbounds nuw i8, ptr %result, i64 16
  store i64 0, ptr %_94.sroa.5.0.result.sroa_idx, align 8
  call void @llvm.lifetime.start.p0(i64 48, ptr nonnull %iter)
  store ptr %self.0, ptr %iter, align 8
  %self2.sroa.2.0.iter.sroa_idx = getelementptr inbounds nuw i8, ptr %iter, i64 8
  store i64 %self.1, ptr %self2.sroa.2.0.iter.sroa_idx, align 8
  %self2.sroa.3.0.iter.sroa_idx = getelementptr inbounds nuw i8, ptr %iter, i64 16
  store i64 0, ptr %self2.sroa.3.0.iter.sroa_idx, align 8
  %self2.sroa.4.0.iter.sroa_idx = getelementptr inbounds nuw i8, ptr %iter, i64 24
  store i64 %self.1, ptr %self2.sroa.4.0.iter.sroa_idx, align 8
  %self2.sroa.5.0.iter.sroa_idx = getelementptr inbounds nuw i8, ptr %iter, i64 32
  store i32 %0, ptr %self2.sroa.5.0.iter.sroa_idx, align 8
  %self2.sroa.6.0.iter.sroa_idx = getelementptr inbounds nuw i8, ptr %iter, i64 36
  store i32 %0, ptr %self2.sroa.6.0.iter.sroa_idx, align 4
  %self2.sroa.7.0.iter.sroa_idx = getelementptr inbounds nuw i8, ptr %iter, i64 40
  store i8 1, ptr %self2.sroa.7.0.iter.sroa_idx, align 8
  %33 = getelementptr inbounds nuw i8, ptr %self5, i64 8
  %34 = getelementptr inbounds nuw i8, ptr %self5, i64 16
  br label %bb20

bb20:                                             ; preds = %bb50, %bb40
  %_10.i4967 = phi ptr [ %_4.sroa.10.0.i, %bb40 ], [ %_10.i49, %bb50 ]
  %len.i.i31 = phi i64 [ 0, %bb40 ], [ %39, %bb50 ]
  %last_end.sroa.0.0 = phi i64 [ 0, %bb40 ], [ %x.1, %bb50 ]
  call void @llvm.lifetime.start.p0(i64 24, ptr nonnull %self5)
; invoke <core::str::pattern::CharSearcher as core::str::pattern::Searcher>::next_match
  invoke fastcc void @_RNvXs_NtNtCsjMrxcFdYDNN_4core3str7patternNtB4_12CharSearcherNtB4_8Searcher10next_match(ptr noalias noundef align 8 captures(none) dereferenceable(24) %self5, ptr noalias noundef align 8 dereferenceable(48) %iter)
          to label %bb41 unwind label %cleanup10

cleanup10:                                        ; preds = %bb1.i.i51, %bb1.i.i39, %bb20
  %35 = landingpad { ptr, i32 }
          cleanup
  br label %bb25

bb41:                                             ; preds = %bb20
  %_104 = load i64, ptr %self5, align 8, !range !55, !noundef !13
  %36 = trunc nuw i64 %_104 to i1
  br i1 %36, label %bb49, label %bb56

bb56:                                             ; preds = %bb41
  call void @llvm.lifetime.end.p0(i64 24, ptr nonnull %self5)
  call void @llvm.lifetime.end.p0(i64 48, ptr nonnull %iter)
  %data = getelementptr inbounds nuw i8, ptr %self.0, i64 %last_end.sroa.0.0
  %gepdiff = sub nuw nsw i64 %self.1, %last_end.sroa.0.0
  tail call void @llvm.experimental.noalias.scope.decl(metadata !56)
  %self2.i.i = load i64, ptr %result, align 8, !range !59, !alias.scope !60, !noundef !13
  %_9.i.i = sub i64 %self2.i.i, %len.i.i31
  %_7.i.i = icmp ugt i64 %gepdiff, %_9.i.i
  br i1 %_7.i.i, label %bb1.i.i, label %bb55, !prof !12

bb1.i.i:                                          ; preds = %bb56
; invoke <alloc::raw_vec::RawVecInner<_>>::reserve::do_reserve_and_handle::<alloc::alloc::Global>
  invoke fastcc void @_RINvNvMs2_NtCsdJPVW0sQgAG_5alloc7raw_vecINtB8_11RawVecInnerpE7reserve21do_reserve_and_handleNtNtBa_5alloc6GlobalECslbzLHi4tcfW_9indicatif(ptr noalias noundef nonnull align 8 dereferenceable(24) %result, i64 noundef %len.i.i31, i64 noundef %gepdiff, i64 noundef 1, i64 noundef 1)
          to label %.noexc unwind label %cleanup9

.noexc:                                           ; preds = %bb1.i.i
  %len.pre.i = load i64, ptr %_94.sroa.5.0.result.sroa_idx, align 8, !alias.scope !56
  %_10.i.pre = load ptr, ptr %_94.sroa.4.0.result.sroa_idx, align 8, !alias.scope !56
  br label %bb55

bb55:                                             ; preds = %.noexc, %bb56
  %_10.i = phi ptr [ %_10.i4967, %bb56 ], [ %_10.i.pre, %.noexc ]
  %len.i = phi i64 [ %len.i.i31, %bb56 ], [ %len.pre.i, %.noexc ]
  %_9.i = icmp sgt i64 %len.i, -1
  tail call void @llvm.assume(i1 %_9.i)
  %dst.i = getelementptr inbounds nuw i8, ptr %_10.i, i64 %len.i
  tail call void @llvm.memcpy.p0.p0.i64(ptr nonnull align 1 %dst.i, ptr nonnull readonly align 1 %data, i64 %gepdiff, i1 false), !noalias !56
  %37 = add i64 %len.i, %gepdiff
  store i64 %37, ptr %_94.sroa.5.0.result.sroa_idx, align 8, !alias.scope !56
  call void @llvm.memcpy.p0.p0.i64(ptr noundef nonnull align 8 dereferenceable(24) %_0, ptr noundef nonnull align 8 dereferenceable(24) %result, i64 24, i1 false)
  call void @llvm.lifetime.end.p0(i64 24, ptr nonnull %result)
  br label %bb23

bb49:                                             ; preds = %bb41
  %x.0 = load i64, ptr %33, align 8, !noundef !13
  %x.1 = load i64, ptr %34, align 8, !noundef !13
  call void @llvm.lifetime.end.p0(i64 24, ptr nonnull %self5)
  %data13 = getelementptr inbounds nuw i8, ptr %self.0, i64 %last_end.sroa.0.0
  %gepdiff58 = sub nuw nsw i64 %x.0, %last_end.sroa.0.0
  tail call void @llvm.experimental.noalias.scope.decl(metadata !63)
  %self2.i.i32 = load i64, ptr %result, align 8, !range !59, !alias.scope !66, !noundef !13
  %_9.i.i33 = sub i64 %self2.i.i32, %len.i.i31
  %_7.i.i34 = icmp ugt i64 %gepdiff58, %_9.i.i33
  br i1 %_7.i.i34, label %bb1.i.i39, label %bb51, !prof !12

bb1.i.i39:                                        ; preds = %bb49
; invoke <alloc::raw_vec::RawVecInner<_>>::reserve::do_reserve_and_handle::<alloc::alloc::Global>
  invoke fastcc void @_RINvNvMs2_NtCsdJPVW0sQgAG_5alloc7raw_vecINtB8_11RawVecInnerpE7reserve21do_reserve_and_handleNtNtBa_5alloc6GlobalECslbzLHi4tcfW_9indicatif(ptr noalias noundef nonnull align 8 dereferenceable(24) %result, i64 noundef %len.i.i31, i64 noundef %gepdiff58, i64 noundef 1, i64 noundef 1)
          to label %.noexc41 unwind label %cleanup10

.noexc41:                                         ; preds = %bb1.i.i39
  %len.pre.i40 = load i64, ptr %_94.sroa.5.0.result.sroa_idx, align 8, !alias.scope !63
  %_10.i37.pre = load ptr, ptr %_94.sroa.4.0.result.sroa_idx, align 8, !alias.scope !63
  %self2.i.i44.pre = load i64, ptr %result, align 8, !range !59, !alias.scope !69
  br label %bb51

bb51:                                             ; preds = %bb49, %.noexc41
  %_10.i4966 = phi ptr [ %_10.i4967, %bb49 ], [ %_10.i37.pre, %.noexc41 ]
  %self2.i.i44 = phi i64 [ %self2.i.i32, %bb49 ], [ %self2.i.i44.pre, %.noexc41 ]
  %len.i35 = phi i64 [ %len.i.i31, %bb49 ], [ %len.pre.i40, %.noexc41 ]
  %_9.i36 = icmp sgt i64 %len.i35, -1
  tail call void @llvm.assume(i1 %_9.i36)
  %dst.i38 = getelementptr inbounds nuw i8, ptr %_10.i4966, i64 %len.i35
  tail call void @llvm.memcpy.p0.p0.i64(ptr nonnull align 1 %dst.i38, ptr nonnull readonly align 1 %data13, i64 %gepdiff58, i1 false), !noalias !63
  %38 = add i64 %len.i35, %gepdiff58
  store i64 %38, ptr %_94.sroa.5.0.result.sroa_idx, align 8, !alias.scope !63
  tail call void @llvm.experimental.noalias.scope.decl(metadata !74)
  %_9.i.i45 = sub i64 %self2.i.i44, %38
  %_7.i.i46 = icmp ugt i64 %to.1, %_9.i.i45
  br i1 %_7.i.i46, label %bb1.i.i51, label %bb50, !prof !12

bb1.i.i51:                                        ; preds = %bb51
; invoke <alloc::raw_vec::RawVecInner<_>>::reserve::do_reserve_and_handle::<alloc::alloc::Global>
  invoke fastcc void @_RINvNvMs2_NtCsdJPVW0sQgAG_5alloc7raw_vecINtB8_11RawVecInnerpE7reserve21do_reserve_and_handleNtNtBa_5alloc6GlobalECslbzLHi4tcfW_9indicatif(ptr noalias noundef nonnull align 8 dereferenceable(24) %result, i64 noundef %38, i64 noundef %to.1, i64 noundef 1, i64 noundef 1)
          to label %.noexc53 unwind label %cleanup10

.noexc53:                                         ; preds = %bb1.i.i51
  %len.pre.i52 = load i64, ptr %_94.sroa.5.0.result.sroa_idx, align 8, !alias.scope !74
  %_10.i49.pre = load ptr, ptr %_94.sroa.4.0.result.sroa_idx, align 8, !alias.scope !74
  br label %bb50

bb50:                                             ; preds = %.noexc53, %bb51
  %_10.i49 = phi ptr [ %_10.i4966, %bb51 ], [ %_10.i49.pre, %.noexc53 ]
  %len.i47 = phi i64 [ %38, %bb51 ], [ %len.pre.i52, %.noexc53 ]
  %_9.i48 = icmp sgt i64 %len.i47, -1
  tail call void @llvm.assume(i1 %_9.i48)
  %dst.i50 = getelementptr inbounds nuw i8, ptr %_10.i49, i64 %len.i47
  tail call void @llvm.memcpy.p0.p0.i64(ptr nonnull align 1 %dst.i50, ptr nonnull readonly align 1 %to.0, i64 %to.1, i1 false), !noalias !74
  %39 = add i64 %len.i47, %to.1
  store i64 %39, ptr %_94.sroa.5.0.result.sroa_idx, align 8, !alias.scope !74
  br label %bb20

bb26:                                             ; preds = %bb2.i.i.i4.i.i, %bb25
  resume { ptr, i32 } %.pn
}

; core::ptr::drop_in_place::<core::pin::Pin<alloc::boxed::Box<std::sys::pal::unix::sync::mutex::Mutex>>>
; Function Attrs: uwtable
define internal fastcc void @_RINvNtCsjMrxcFdYDNN_4core3ptr13drop_in_placeINtNtB4_3pin3PinINtNtCsdJPVW0sQgAG_5alloc5boxed3BoxNtNtNtNtNtNtCs5sEH5CPMdak_3std3sys3pal4unix4sync5mutex5MutexEEECslbzLHi4tcfW_9indicatif(ptr nonnull %_1.0.val) unnamed_addr #3 personality ptr @rust_eh_personality {
start:
; invoke <std::sys::pal::unix::sync::mutex::Mutex as core::ops::drop::Drop>::drop
  invoke void @_RNvXs2_NtNtNtNtNtCs5sEH5CPMdak_3std3sys3pal4unix4sync5mutexNtB5_5MutexNtNtNtCsjMrxcFdYDNN_4core3ops4drop4Drop4drop(ptr noundef nonnull align 8 %_1.0.val)
          to label %_RINvNtCsjMrxcFdYDNN_4core3ptr13drop_in_placeINtNtCsdJPVW0sQgAG_5alloc5boxed3BoxNtNtNtNtNtNtCs5sEH5CPMdak_3std3sys3pal4unix4sync5mutex5MutexEECslbzLHi4tcfW_9indicatif.exit unwind label %bb1.i

bb1.i:                                            ; preds = %start
  %0 = landingpad { ptr, i32 }
          cleanup
; call __rustc::__rust_dealloc
  tail call void @_RNvCsKhRCbHf33p_7___rustc14___rust_dealloc(ptr noundef nonnull %_1.0.val, i64 noundef 64, i64 noundef 8) #30
  resume { ptr, i32 } %0

_RINvNtCsjMrxcFdYDNN_4core3ptr13drop_in_placeINtNtCsdJPVW0sQgAG_5alloc5boxed3BoxNtNtNtNtNtNtCs5sEH5CPMdak_3std3sys3pal4unix4sync5mutex5MutexEECslbzLHi4tcfW_9indicatif.exit: ; preds = %start
; call __rustc::__rust_dealloc
  tail call void @_RNvCsKhRCbHf33p_7___rustc14___rust_dealloc(ptr noundef nonnull %_1.0.val, i64 noundef 64, i64 noundef 8) #30
  ret void
}

; core::ptr::drop_in_place::<core::cell::UnsafeCell<core::option::Option<core::result::Result<(), alloc::boxed::Box<dyn core::any::Any + core::marker::Send>>>>>
; Function Attrs: uwtable
define internal fastcc void @_RINvNtCsjMrxcFdYDNN_4core3ptr13drop_in_placeINtNtB4_4cell10UnsafeCellINtNtB4_6option6OptionINtNtB4_6result6ResultuINtNtCsdJPVW0sQgAG_5alloc5boxed3BoxDNtNtB4_3any3AnyNtNtB4_6marker4SendEL_EEEEECslbzLHi4tcfW_9indicatif(ptr noalias noundef nonnull readonly align 8 captures(none) dereferenceable(24) %_1) unnamed_addr #3 personality ptr @rust_eh_personality {
start:
  tail call void @llvm.experimental.noalias.scope.decl(metadata !75)
  %_2.i = load i64, ptr %_1, align 8, !range !55, !alias.scope !75, !noundef !13
  %0 = icmp eq i64 %_2.i, 0
  br i1 %0, label %_RINvNtCsjMrxcFdYDNN_4core3ptr13drop_in_placeINtNtB4_6option6OptionINtNtB4_6result6ResultuINtNtCsdJPVW0sQgAG_5alloc5boxed3BoxDNtNtB4_3any3AnyNtNtB4_6marker4SendEL_EEEECslbzLHi4tcfW_9indicatif.exit, label %bb2.i

bb2.i:                                            ; preds = %start
  %1 = getelementptr inbounds nuw i8, ptr %_1, i64 8
  %.val.i = load ptr, ptr %1, align 8, !alias.scope !75, !align !78, !noundef !13
  %2 = getelementptr inbounds nuw i8, ptr %_1, i64 16
  %.val1.i = load ptr, ptr %2, align 8, !alias.scope !75
  %3 = icmp eq ptr %.val.i, null
  br i1 %3, label %_RINvNtCsjMrxcFdYDNN_4core3ptr13drop_in_placeINtNtB4_6option6OptionINtNtB4_6result6ResultuINtNtCsdJPVW0sQgAG_5alloc5boxed3BoxDNtNtB4_3any3AnyNtNtB4_6marker4SendEL_EEEECslbzLHi4tcfW_9indicatif.exit, label %bb2.i.i

bb2.i.i:                                          ; preds = %bb2.i
  %4 = icmp ne ptr %.val1.i, null
  tail call void @llvm.assume(i1 %4)
  %5 = load ptr, ptr %.val1.i, align 8, !invariant.load !13, !noalias !75
  %.not.i.i.i = icmp eq ptr %5, null
  br i1 %.not.i.i.i, label %bb3.i.i.i, label %is_not_null.i.i.i

is_not_null.i.i.i:                                ; preds = %bb2.i.i
  invoke void %5(ptr noundef nonnull %.val.i)
          to label %bb3.i.i.i unwind label %cleanup.i.i.i, !noalias !75

bb3.i.i.i:                                        ; preds = %is_not_null.i.i.i, %bb2.i.i
  %6 = getelementptr inbounds nuw i8, ptr %.val1.i, i64 8
  %7 = load i64, ptr %6, align 8, !range !59, !invariant.load !13, !noalias !75
  %8 = getelementptr inbounds nuw i8, ptr %.val1.i, i64 16
  %9 = load i64, ptr %8, align 8, !range !79, !invariant.load !13, !noalias !75
  %10 = add i64 %9, -1
  %11 = icmp sgt i64 %10, -1
  tail call void @llvm.assume(i1 %11)
  %12 = icmp eq i64 %7, 0
  br i1 %12, label %_RINvNtCsjMrxcFdYDNN_4core3ptr13drop_in_placeINtNtB4_6option6OptionINtNtB4_6result6ResultuINtNtCsdJPVW0sQgAG_5alloc5boxed3BoxDNtNtB4_3any3AnyNtNtB4_6marker4SendEL_EEEECslbzLHi4tcfW_9indicatif.exit, label %_RNvXs_NtCsdJPVW0sQgAG_5alloc5allocNtB4_6GlobalNtNtCsjMrxcFdYDNN_4core5alloc9Allocator10deallocate.exit.i.i.i.i

_RNvXs_NtCsdJPVW0sQgAG_5alloc5allocNtB4_6GlobalNtNtCsjMrxcFdYDNN_4core5alloc9Allocator10deallocate.exit.i.i.i.i: ; preds = %bb3.i.i.i
; call __rustc::__rust_dealloc
  tail call void @_RNvCsKhRCbHf33p_7___rustc14___rust_dealloc(ptr noundef nonnull %.val.i, i64 noundef %7, i64 noundef range(i64 1, -9223372036854775807) %9) #30, !noalias !75
  br label %_RINvNtCsjMrxcFdYDNN_4core3ptr13drop_in_placeINtNtB4_6option6OptionINtNtB4_6result6ResultuINtNtCsdJPVW0sQgAG_5alloc5boxed3BoxDNtNtB4_3any3AnyNtNtB4_6marker4SendEL_EEEECslbzLHi4tcfW_9indicatif.exit

cleanup.i.i.i:                                    ; preds = %is_not_null.i.i.i
  %13 = landingpad { ptr, i32 }
          cleanup
  %14 = getelementptr inbounds nuw i8, ptr %.val1.i, i64 8
  %15 = load i64, ptr %14, align 8, !range !59, !invariant.load !13, !noalias !75
  %16 = getelementptr inbounds nuw i8, ptr %.val1.i, i64 16
  %17 = load i64, ptr %16, align 8, !range !79, !invariant.load !13, !noalias !75
  %18 = add i64 %17, -1
  %19 = icmp sgt i64 %18, -1
  tail call void @llvm.assume(i1 %19)
  %20 = icmp eq i64 %15, 0
  br i1 %20, label %bb1.i.i.i, label %_RNvXs_NtCsdJPVW0sQgAG_5alloc5allocNtB4_6GlobalNtNtCsjMrxcFdYDNN_4core5alloc9Allocator10deallocate.exit.i4.i.i.i

_RNvXs_NtCsdJPVW0sQgAG_5alloc5allocNtB4_6GlobalNtNtCsjMrxcFdYDNN_4core5alloc9Allocator10deallocate.exit.i4.i.i.i: ; preds = %cleanup.i.i.i
; call __rustc::__rust_dealloc
  tail call void @_RNvCsKhRCbHf33p_7___rustc14___rust_dealloc(ptr noundef nonnull %.val.i, i64 noundef %15, i64 noundef range(i64 1, -9223372036854775807) %17) #30, !noalias !75
  br label %bb1.i.i.i

bb1.i.i.i:                                        ; preds = %_RNvXs_NtCsdJPVW0sQgAG_5alloc5allocNtB4_6GlobalNtNtCsjMrxcFdYDNN_4core5alloc9Allocator10deallocate.exit.i4.i.i.i, %cleanup.i.i.i
  resume { ptr, i32 } %13

_RINvNtCsjMrxcFdYDNN_4core3ptr13drop_in_placeINtNtB4_6option6OptionINtNtB4_6result6ResultuINtNtCsdJPVW0sQgAG_5alloc5boxed3BoxDNtNtB4_3any3AnyNtNtB4_6marker4SendEL_EEEECslbzLHi4tcfW_9indicatif.exit: ; preds = %start, %bb2.i, %bb3.i.i.i, %_RNvXs_NtCsdJPVW0sQgAG_5alloc5allocNtB4_6GlobalNtNtCsjMrxcFdYDNN_4core5alloc9Allocator10deallocate.exit.i.i.i.i
  ret void
}

; core::ptr::drop_in_place::<core::cell::UnsafeCell<indicatif::multi::MultiState>>
; Function Attrs: uwtable
define internal fastcc void @_RINvNtCsjMrxcFdYDNN_4core3ptr13drop_in_placeINtNtB4_4cell10UnsafeCellNtNtCslbzLHi4tcfW_9indicatif5multi10MultiStateEEB19_(ptr noalias noundef nonnull align 8 dereferenceable(200) %_1) unnamed_addr #3 personality ptr @rust_eh_personality {
start:
  tail call void @llvm.experimental.noalias.scope.decl(metadata !80)
  %0 = getelementptr inbounds nuw i8, ptr %_1, i64 88
  tail call void @llvm.experimental.noalias.scope.decl(metadata !83)
  %1 = getelementptr inbounds nuw i8, ptr %_1, i64 96
  %_1.val.i15 = load ptr, ptr %1, align 8, !alias.scope !83, !nonnull !13, !noundef !13
  %2 = getelementptr inbounds nuw i8, ptr %_1, i64 104
  %_1.val1.i16 = load i64, ptr %2, align 8, !alias.scope !83, !noundef !13
  tail call void @llvm.experimental.noalias.scope.decl(metadata !86)
  %_76.i.i.i17 = icmp eq i64 %_1.val1.i16, 0
  br i1 %_76.i.i.i17, label %bb4.i22, label %bb5.i.i.i18

bb5.i.i.i18:                                      ; preds = %start, %_RINvNtCsjMrxcFdYDNN_4core3ptr13drop_in_placeNtNtCslbzLHi4tcfW_9indicatif5multi16MultiStateMemberEBK_.exit.i.i.i
  %_3.sroa.0.07.i.i.i19 = phi i64 [ %3, %_RINvNtCsjMrxcFdYDNN_4core3ptr13drop_in_placeNtNtCslbzLHi4tcfW_9indicatif5multi16MultiStateMemberEBK_.exit.i.i.i ], [ 0, %start ]
  %_6.i.i.i20 = getelementptr inbounds nuw %"multi::MultiStateMember", ptr %_1.val.i15, i64 %_3.sroa.0.07.i.i.i19
  %3 = add nuw i64 %_3.sroa.0.07.i.i.i19, 1
  tail call void @llvm.experimental.noalias.scope.decl(metadata !89)
  tail call void @llvm.experimental.noalias.scope.decl(metadata !92)
  %4 = load i64, ptr %_6.i.i.i20, align 8, !range !95, !alias.scope !96, !noalias !83, !noundef !13
  %5 = icmp eq i64 %4, -9223372036854775808
  br i1 %5, label %_RINvNtCsjMrxcFdYDNN_4core3ptr13drop_in_placeNtNtCslbzLHi4tcfW_9indicatif5multi16MultiStateMemberEBK_.exit.i.i.i, label %bb2.i.i.i.i.i

bb2.i.i.i.i.i:                                    ; preds = %bb5.i.i.i18
  tail call void @llvm.experimental.noalias.scope.decl(metadata !97)
  tail call void @llvm.experimental.noalias.scope.decl(metadata !100)
  %6 = getelementptr inbounds nuw i8, ptr %_6.i.i.i20, i64 8
  %_1.val.i.i.i.i.i.i.i = load ptr, ptr %6, align 8, !alias.scope !103, !noalias !83, !nonnull !13, !noundef !13
  %7 = getelementptr inbounds nuw i8, ptr %_6.i.i.i20, i64 16
  %_1.val1.i.i.i.i.i.i.i = load i64, ptr %7, align 8, !alias.scope !103, !noalias !83, !noundef !13
  tail call void @llvm.experimental.noalias.scope.decl(metadata !104)
  %_76.i.i.i.i.i.i.i.i.i = icmp eq i64 %_1.val1.i.i.i.i.i.i.i, 0
  br i1 %_76.i.i.i.i.i.i.i.i.i, label %bb4.i.i.i.i.i.i.i, label %bb5.i.i.i.i.i.i.i.i.i

bb5.i.i.i.i.i.i.i.i.i:                            ; preds = %bb2.i.i.i.i.i, %_RINvNtCsjMrxcFdYDNN_4core3ptr13drop_in_placeNtNtCslbzLHi4tcfW_9indicatif11draw_target8LineTypeEBK_.exit.i.i.i.i.i.i.i.i.i
  %_3.sroa.0.07.i.i.i.i.i.i.i.i.i = phi i64 [ %8, %_RINvNtCsjMrxcFdYDNN_4core3ptr13drop_in_placeNtNtCslbzLHi4tcfW_9indicatif11draw_target8LineTypeEBK_.exit.i.i.i.i.i.i.i.i.i ], [ 0, %bb2.i.i.i.i.i ]
  %_6.i.i.i.i.i.i.i.i.i = getelementptr inbounds nuw %"draw_target::LineType", ptr %_1.val.i.i.i.i.i.i.i, i64 %_3.sroa.0.07.i.i.i.i.i.i.i.i.i
  %8 = add nuw i64 %_3.sroa.0.07.i.i.i.i.i.i.i.i.i, 1
  tail call void @llvm.experimental.noalias.scope.decl(metadata !107)
  %_2.i.i.i.i.i.i.i.i.i.i = load i64, ptr %_6.i.i.i.i.i.i.i.i.i, align 8, !range !110, !alias.scope !111, !noalias !112, !noundef !13
  switch i64 %_2.i.i.i.i.i.i.i.i.i.i, label %_RINvNtCsjMrxcFdYDNN_4core3ptr13drop_in_placeNtNtCslbzLHi4tcfW_9indicatif11draw_target8LineTypeEBK_.exit.i.i.i.i.i.i.i.i.i [
    i64 0, label %bb2.i.i.i.i.i.i.i.i.i.i
    i64 1, label %bb3.i.i.i.i.i.i.i.i.i.i
  ]

bb1.sink.split.i.i.i.i.i.i.i.i.i.i:               ; preds = %bb3.i.i.i.i.i.i.i.i.i.i, %bb2.i.i.i.i.i.i.i.i.i.i
  %_1.val.i1.sink.i.i.i.i.i.i.i.i.i.i = phi i64 [ %_1.val.i.i.i.i.i.i.i.i.i.i.i, %bb2.i.i.i.i.i.i.i.i.i.i ], [ %_1.val.i1.i.i.i.i.i.i.i.i.i.i, %bb3.i.i.i.i.i.i.i.i.i.i ]
  %9 = getelementptr inbounds nuw i8, ptr %_6.i.i.i.i.i.i.i.i.i, i64 16
  %_1.val1.i3.i.i.i.i.i.i.i.i.i.i = load ptr, ptr %9, align 8, !alias.scope !111, !noalias !112, !nonnull !13, !noundef !13
; call __rustc::__rust_dealloc
  tail call void @_RNvCsKhRCbHf33p_7___rustc14___rust_dealloc(ptr noundef nonnull %_1.val1.i3.i.i.i.i.i.i.i.i.i.i, i64 noundef %_1.val.i1.sink.i.i.i.i.i.i.i.i.i.i, i64 noundef range(i64 1, -9223372036854775807) 1) #30, !noalias !113
  br label %_RINvNtCsjMrxcFdYDNN_4core3ptr13drop_in_placeNtNtCslbzLHi4tcfW_9indicatif11draw_target8LineTypeEBK_.exit.i.i.i.i.i.i.i.i.i

bb2.i.i.i.i.i.i.i.i.i.i:                          ; preds = %bb5.i.i.i.i.i.i.i.i.i
  %10 = getelementptr inbounds nuw i8, ptr %_6.i.i.i.i.i.i.i.i.i, i64 8
  %_1.val.i.i.i.i.i.i.i.i.i.i.i = load i64, ptr %10, align 8, !alias.scope !114, !noalias !112
  %11 = icmp eq i64 %_1.val.i.i.i.i.i.i.i.i.i.i.i, 0
  br i1 %11, label %_RINvNtCsjMrxcFdYDNN_4core3ptr13drop_in_placeNtNtCslbzLHi4tcfW_9indicatif11draw_target8LineTypeEBK_.exit.i.i.i.i.i.i.i.i.i, label %bb1.sink.split.i.i.i.i.i.i.i.i.i.i

bb3.i.i.i.i.i.i.i.i.i.i:                          ; preds = %bb5.i.i.i.i.i.i.i.i.i
  %12 = getelementptr inbounds nuw i8, ptr %_6.i.i.i.i.i.i.i.i.i, i64 8
  %_1.val.i1.i.i.i.i.i.i.i.i.i.i = load i64, ptr %12, align 8, !alias.scope !117, !noalias !112
  %13 = icmp eq i64 %_1.val.i1.i.i.i.i.i.i.i.i.i.i, 0
  br i1 %13, label %_RINvNtCsjMrxcFdYDNN_4core3ptr13drop_in_placeNtNtCslbzLHi4tcfW_9indicatif11draw_target8LineTypeEBK_.exit.i.i.i.i.i.i.i.i.i, label %bb1.sink.split.i.i.i.i.i.i.i.i.i.i

_RINvNtCsjMrxcFdYDNN_4core3ptr13drop_in_placeNtNtCslbzLHi4tcfW_9indicatif11draw_target8LineTypeEBK_.exit.i.i.i.i.i.i.i.i.i: ; preds = %bb3.i.i.i.i.i.i.i.i.i.i, %bb2.i.i.i.i.i.i.i.i.i.i, %bb1.sink.split.i.i.i.i.i.i.i.i.i.i, %bb5.i.i.i.i.i.i.i.i.i
  %_7.i.i.i.i.i.i.i.i.i = icmp eq i64 %8, %_1.val1.i.i.i.i.i.i.i
  br i1 %_7.i.i.i.i.i.i.i.i.i, label %bb4.i.i.i.i.i.i.i, label %bb5.i.i.i.i.i.i.i.i.i

bb4.i.i.i.i.i.i.i:                                ; preds = %_RINvNtCsjMrxcFdYDNN_4core3ptr13drop_in_placeNtNtCslbzLHi4tcfW_9indicatif11draw_target8LineTypeEBK_.exit.i.i.i.i.i.i.i.i.i, %bb2.i.i.i.i.i
  %14 = icmp eq i64 %4, 0
  br i1 %14, label %_RINvNtCsjMrxcFdYDNN_4core3ptr13drop_in_placeNtNtCslbzLHi4tcfW_9indicatif5multi16MultiStateMemberEBK_.exit.i.i.i, label %bb2.i.i.i7.i.i.i.i.i.i.i

bb2.i.i.i7.i.i.i.i.i.i.i:                         ; preds = %bb4.i.i.i.i.i.i.i
  %alloc_size.i.i.i.i8.i.i.i.i.i.i.i = shl nuw i64 %4, 5
; call __rustc::__rust_dealloc
  tail call void @_RNvCsKhRCbHf33p_7___rustc14___rust_dealloc(ptr noundef nonnull %_1.val.i.i.i.i.i.i.i, i64 noundef %alloc_size.i.i.i.i8.i.i.i.i.i.i.i, i64 noundef range(i64 1, -9223372036854775807) 8) #30, !noalias !112
  br label %_RINvNtCsjMrxcFdYDNN_4core3ptr13drop_in_placeNtNtCslbzLHi4tcfW_9indicatif5multi16MultiStateMemberEBK_.exit.i.i.i

_RINvNtCsjMrxcFdYDNN_4core3ptr13drop_in_placeNtNtCslbzLHi4tcfW_9indicatif5multi16MultiStateMemberEBK_.exit.i.i.i: ; preds = %bb2.i.i.i7.i.i.i.i.i.i.i, %bb4.i.i.i.i.i.i.i, %bb5.i.i.i18
  %_7.i.i.i21 = icmp eq i64 %3, %_1.val1.i16
  br i1 %_7.i.i.i21, label %bb4.i22, label %bb5.i.i.i18

bb4.i22:                                          ; preds = %_RINvNtCsjMrxcFdYDNN_4core3ptr13drop_in_placeNtNtCslbzLHi4tcfW_9indicatif5multi16MultiStateMemberEBK_.exit.i.i.i, %start
  %_1.val4.i23 = load i64, ptr %0, align 8, !range !59, !alias.scope !83, !noundef !13
  %15 = icmp eq i64 %_1.val4.i23, 0
  br i1 %15, label %bb10.i, label %bb2.i.i.i6.i

bb2.i.i.i6.i:                                     ; preds = %bb4.i22
  %alloc_size.i.i.i.i7.i = mul nuw i64 %_1.val4.i23, 40
; call __rustc::__rust_dealloc
  tail call void @_RNvCsKhRCbHf33p_7___rustc14___rust_dealloc(ptr noundef nonnull %_1.val.i15, i64 noundef %alloc_size.i.i.i.i7.i, i64 noundef range(i64 1, -9223372036854775807) 8) #30, !noalias !83
  br label %bb10.i

bb10.i:                                           ; preds = %bb2.i.i.i6.i, %bb4.i22
  %16 = getelementptr inbounds nuw i8, ptr %_1, i64 112
  %.val14.i = load i64, ptr %16, align 8, !alias.scope !80
  %17 = icmp eq i64 %.val14.i, 0
  br i1 %17, label %bb9.i, label %bb2.i.i.i4.i8

bb2.i.i.i4.i8:                                    ; preds = %bb10.i
  %18 = getelementptr inbounds nuw i8, ptr %_1, i64 120
  %.val15.i = load ptr, ptr %18, align 8, !alias.scope !80, !nonnull !13, !noundef !13
  %alloc_size.i.i.i.i5.i9 = shl nuw i64 %.val14.i, 3
; call __rustc::__rust_dealloc
  tail call void @_RNvCsKhRCbHf33p_7___rustc14___rust_dealloc(ptr noundef nonnull %.val15.i, i64 noundef %alloc_size.i.i.i.i5.i9, i64 noundef range(i64 1, -9223372036854775807) 8) #30, !noalias !80
  br label %bb9.i

bb9.i:                                            ; preds = %bb2.i.i.i4.i8, %bb10.i
  %19 = getelementptr inbounds nuw i8, ptr %_1, i64 136
  %.val12.i = load i64, ptr %19, align 8, !alias.scope !80
  %20 = icmp eq i64 %.val12.i, 0
  br i1 %20, label %bb8.i, label %bb2.i.i.i4.i

bb2.i.i.i4.i:                                     ; preds = %bb9.i
  %21 = getelementptr inbounds nuw i8, ptr %_1, i64 144
  %.val13.i = load ptr, ptr %21, align 8, !alias.scope !80, !nonnull !13, !noundef !13
  %alloc_size.i.i.i.i5.i = shl nuw i64 %.val12.i, 3
; call __rustc::__rust_dealloc
  tail call void @_RNvCsKhRCbHf33p_7___rustc14___rust_dealloc(ptr noundef nonnull %.val13.i, i64 noundef %alloc_size.i.i.i.i5.i, i64 noundef range(i64 1, -9223372036854775807) 8) #30, !noalias !80
  br label %bb8.i

bb8.i:                                            ; preds = %bb2.i.i.i4.i, %bb9.i
; invoke core::ptr::drop_in_place::<indicatif::draw_target::ProgressDrawTarget>
  invoke fastcc void @_RINvNtCsjMrxcFdYDNN_4core3ptr13drop_in_placeNtNtCslbzLHi4tcfW_9indicatif11draw_target18ProgressDrawTargetEBK_(ptr noalias noundef nonnull align 8 dereferenceable(200) %_1)
          to label %_RINvNtCsjMrxcFdYDNN_4core3ptr13drop_in_placeNtNtCslbzLHi4tcfW_9indicatif5multi10MultiStateEBK_.exit unwind label %cleanup3.i

cleanup3.i:                                       ; preds = %bb8.i
  %22 = landingpad { ptr, i32 }
          cleanup
  %23 = getelementptr inbounds nuw i8, ptr %_1, i64 160
; call core::ptr::drop_in_place::<alloc::vec::Vec<indicatif::draw_target::LineType>>
  tail call void @_RINvNtCsjMrxcFdYDNN_4core3ptr13drop_in_placeINtNtCsdJPVW0sQgAG_5alloc3vec3VecNtNtCslbzLHi4tcfW_9indicatif11draw_target8LineTypeEEB1h_(ptr noalias noundef nonnull align 8 dereferenceable(24) %23) #33
  resume { ptr, i32 } %22

_RINvNtCsjMrxcFdYDNN_4core3ptr13drop_in_placeNtNtCslbzLHi4tcfW_9indicatif5multi10MultiStateEBK_.exit: ; preds = %bb8.i
  %24 = getelementptr inbounds nuw i8, ptr %_1, i64 160
  tail call void @llvm.experimental.noalias.scope.decl(metadata !120)
  %25 = getelementptr inbounds nuw i8, ptr %_1, i64 168
  %_1.val.i = load ptr, ptr %25, align 8, !alias.scope !120, !nonnull !13, !noundef !13
  %26 = getelementptr inbounds nuw i8, ptr %_1, i64 176
  %_1.val1.i = load i64, ptr %26, align 8, !alias.scope !120, !noundef !13
  tail call void @llvm.experimental.noalias.scope.decl(metadata !123)
  %_76.i.i.i = icmp eq i64 %_1.val1.i, 0
  br i1 %_76.i.i.i, label %bb4.i1, label %bb5.i.i.i

bb5.i.i.i:                                        ; preds = %_RINvNtCsjMrxcFdYDNN_4core3ptr13drop_in_placeNtNtCslbzLHi4tcfW_9indicatif5multi10MultiStateEBK_.exit, %_RINvNtCsjMrxcFdYDNN_4core3ptr13drop_in_placeNtNtCslbzLHi4tcfW_9indicatif11draw_target8LineTypeEBK_.exit.i.i.i
  %_3.sroa.0.07.i.i.i = phi i64 [ %27, %_RINvNtCsjMrxcFdYDNN_4core3ptr13drop_in_placeNtNtCslbzLHi4tcfW_9indicatif11draw_target8LineTypeEBK_.exit.i.i.i ], [ 0, %_RINvNtCsjMrxcFdYDNN_4core3ptr13drop_in_placeNtNtCslbzLHi4tcfW_9indicatif5multi10MultiStateEBK_.exit ]
  %_6.i.i.i = getelementptr inbounds nuw %"draw_target::LineType", ptr %_1.val.i, i64 %_3.sroa.0.07.i.i.i
  %27 = add nuw i64 %_3.sroa.0.07.i.i.i, 1
  tail call void @llvm.experimental.noalias.scope.decl(metadata !126)
  %_2.i.i.i.i = load i64, ptr %_6.i.i.i, align 8, !range !110, !alias.scope !129, !noalias !120, !noundef !13
  switch i64 %_2.i.i.i.i, label %_RINvNtCsjMrxcFdYDNN_4core3ptr13drop_in_placeNtNtCslbzLHi4tcfW_9indicatif11draw_target8LineTypeEBK_.exit.i.i.i [
    i64 0, label %bb2.i.i.i.i
    i64 1, label %bb3.i.i.i.i
  ]

bb1.sink.split.i.i.i.i:                           ; preds = %bb3.i.i.i.i, %bb2.i.i.i.i
  %_1.val.i1.sink.i.i.i.i = phi i64 [ %_1.val.i.i.i.i.i, %bb2.i.i.i.i ], [ %_1.val.i1.i.i.i.i, %bb3.i.i.i.i ]
  %28 = getelementptr inbounds nuw i8, ptr %_6.i.i.i, i64 16
  %_1.val1.i3.i.i.i.i = load ptr, ptr %28, align 8, !alias.scope !129, !noalias !120, !nonnull !13, !noundef !13
; call __rustc::__rust_dealloc
  tail call void @_RNvCsKhRCbHf33p_7___rustc14___rust_dealloc(ptr noundef nonnull %_1.val1.i3.i.i.i.i, i64 noundef %_1.val.i1.sink.i.i.i.i, i64 noundef range(i64 1, -9223372036854775807) 1) #30, !noalias !130
  br label %_RINvNtCsjMrxcFdYDNN_4core3ptr13drop_in_placeNtNtCslbzLHi4tcfW_9indicatif11draw_target8LineTypeEBK_.exit.i.i.i

bb2.i.i.i.i:                                      ; preds = %bb5.i.i.i
  %29 = getelementptr inbounds nuw i8, ptr %_6.i.i.i, i64 8
  %_1.val.i.i.i.i.i = load i64, ptr %29, align 8, !alias.scope !131, !noalias !120
  %30 = icmp eq i64 %_1.val.i.i.i.i.i, 0
  br i1 %30, label %_RINvNtCsjMrxcFdYDNN_4core3ptr13drop_in_placeNtNtCslbzLHi4tcfW_9indicatif11draw_target8LineTypeEBK_.exit.i.i.i, label %bb1.sink.split.i.i.i.i

bb3.i.i.i.i:                                      ; preds = %bb5.i.i.i
  %31 = getelementptr inbounds nuw i8, ptr %_6.i.i.i, i64 8
  %_1.val.i1.i.i.i.i = load i64, ptr %31, align 8, !alias.scope !134, !noalias !120
  %32 = icmp eq i64 %_1.val.i1.i.i.i.i, 0
  br i1 %32, label %_RINvNtCsjMrxcFdYDNN_4core3ptr13drop_in_placeNtNtCslbzLHi4tcfW_9indicatif11draw_target8LineTypeEBK_.exit.i.i.i, label %bb1.sink.split.i.i.i.i

_RINvNtCsjMrxcFdYDNN_4core3ptr13drop_in_placeNtNtCslbzLHi4tcfW_9indicatif11draw_target8LineTypeEBK_.exit.i.i.i: ; preds = %bb3.i.i.i.i, %bb2.i.i.i.i, %bb1.sink.split.i.i.i.i, %bb5.i.i.i
  %_7.i.i.i = icmp eq i64 %27, %_1.val1.i
  br i1 %_7.i.i.i, label %bb4.i1, label %bb5.i.i.i

bb4.i1:                                           ; preds = %_RINvNtCsjMrxcFdYDNN_4core3ptr13drop_in_placeNtNtCslbzLHi4tcfW_9indicatif11draw_target8LineTypeEBK_.exit.i.i.i, %_RINvNtCsjMrxcFdYDNN_4core3ptr13drop_in_placeNtNtCslbzLHi4tcfW_9indicatif5multi10MultiStateEBK_.exit
  %_1.val4.i = load i64, ptr %24, align 8, !range !59, !alias.scope !120, !noundef !13
  %33 = icmp eq i64 %_1.val4.i, 0
  br i1 %33, label %_RINvNtCsjMrxcFdYDNN_4core3ptr13drop_in_placeINtNtCsdJPVW0sQgAG_5alloc3vec3VecNtNtCslbzLHi4tcfW_9indicatif11draw_target8LineTypeEEB1h_.exit, label %bb2.i.i.i7.i

bb2.i.i.i7.i:                                     ; preds = %bb4.i1
  %alloc_size.i.i.i.i8.i = shl nuw i64 %_1.val4.i, 5
; call __rustc::__rust_dealloc
  tail call void @_RNvCsKhRCbHf33p_7___rustc14___rust_dealloc(ptr noundef nonnull %_1.val.i, i64 noundef %alloc_size.i.i.i.i8.i, i64 noundef range(i64 1, -9223372036854775807) 8) #30, !noalias !120
  br label %_RINvNtCsjMrxcFdYDNN_4core3ptr13drop_in_placeINtNtCsdJPVW0sQgAG_5alloc3vec3VecNtNtCslbzLHi4tcfW_9indicatif11draw_target8LineTypeEEB1h_.exit

_RINvNtCsjMrxcFdYDNN_4core3ptr13drop_in_placeINtNtCsdJPVW0sQgAG_5alloc3vec3VecNtNtCslbzLHi4tcfW_9indicatif11draw_target8LineTypeEEB1h_.exit: ; preds = %bb4.i1, %bb2.i.i.i7.i
  ret void
}

; core::ptr::drop_in_place::<core::cell::UnsafeCell<indicatif::state::BarState>>
; Function Attrs: uwtable
define internal fastcc void @_RINvNtCsjMrxcFdYDNN_4core3ptr13drop_in_placeINtNtB4_4cell10UnsafeCellNtNtCslbzLHi4tcfW_9indicatif5state8BarStateEEB19_(ptr noalias noundef nonnull align 8 dereferenceable(504) %_1) unnamed_addr #3 personality ptr @rust_eh_personality {
start:
  %_6.i.i = alloca [32 x i8], align 8
  tail call void @llvm.experimental.noalias.scope.decl(metadata !137)
  tail call void @llvm.experimental.noalias.scope.decl(metadata !140)
  %0 = getelementptr inbounds nuw i8, ptr %_1, i64 232
  %1 = load i8, ptr %0, align 8, !range !143, !alias.scope !144, !noundef !13
  %switch.i.i = icmp eq i8 %1, 0
  br i1 %switch.i.i, label %bb10.i.i, label %bb6.i.i

bb10.i.i:                                         ; preds = %start
; invoke <std::time::Instant>::now
  %2 = invoke { i64, i32 } @_RNvMNtCs5sEH5CPMdak_3std4timeNtB2_7Instant3now()
          to label %.noexc.i unwind label %cleanup.i, !noalias !137

.noexc.i:                                         ; preds = %bb10.i.i
  call void @llvm.lifetime.start.p0(i64 32, ptr nonnull %_6.i.i), !noalias !144
  %_7.i.i = getelementptr inbounds nuw i8, ptr %_1, i64 328
; invoke <indicatif::state::ProgressFinish as core::clone::Clone>::clone
  invoke fastcc void @_RNvXsb_NtCslbzLHi4tcfW_9indicatif5stateNtB5_14ProgressFinishNtNtCsjMrxcFdYDNN_4core5clone5Clone5clone(ptr noalias noundef align 8 captures(none) dereferenceable(32) %_6.i.i, ptr noalias noundef readonly align 8 captures(address, read_provenance) dereferenceable(32) %_7.i.i) #34
          to label %.noexc9.i unwind label %cleanup.i

.noexc9.i:                                        ; preds = %.noexc.i
  %_5.1.i.i = extractvalue { i64, i32 } %2, 1
  %_5.0.i.i = extractvalue { i64, i32 } %2, 0
; invoke <indicatif::state::BarState>::finish_using_style
  invoke void @_RNvMNtCslbzLHi4tcfW_9indicatif5stateNtB2_8BarState18finish_using_style(ptr noalias noundef nonnull align 8 dereferenceable(504) %_1, i64 noundef %_5.0.i.i, i32 noundef %_5.1.i.i, ptr noalias noundef nonnull readonly align 8 captures(none) dereferenceable(32) %_6.i.i)
          to label %.noexc10.i unwind label %cleanup.i

.noexc10.i:                                       ; preds = %.noexc9.i
  call void @llvm.lifetime.end.p0(i64 32, ptr nonnull %_6.i.i), !noalias !144
  br label %bb6.i.i

bb6.i.i:                                          ; preds = %.noexc10.i, %start
  %_3.i.i = getelementptr inbounds nuw i8, ptr %_1, i64 240
; invoke <indicatif::draw_target::ProgressDrawTarget>::mark_zombie
  invoke fastcc void @_RNvMNtCslbzLHi4tcfW_9indicatif11draw_targetNtB2_18ProgressDrawTarget11mark_zombie(ptr noalias noundef readonly align 8 captures(address, read_provenance) dereferenceable(88) %_3.i.i)
          to label %bb10.i unwind label %cleanup.i

cleanup.i:                                        ; preds = %bb6.i.i, %.noexc9.i, %.noexc.i, %bb10.i.i
  %3 = landingpad { ptr, i32 }
          cleanup
  %4 = getelementptr inbounds nuw i8, ptr %_1, i64 240
; invoke core::ptr::drop_in_place::<indicatif::draw_target::ProgressDrawTarget>
  invoke fastcc void @_RINvNtCsjMrxcFdYDNN_4core3ptr13drop_in_placeNtNtCslbzLHi4tcfW_9indicatif11draw_target18ProgressDrawTargetEBK_(ptr noalias noundef align 8 dereferenceable(88) %4) #33
          to label %bb5.i unwind label %terminate.i

bb10.i:                                           ; preds = %bb6.i.i
; invoke core::ptr::drop_in_place::<indicatif::draw_target::ProgressDrawTarget>
  invoke fastcc void @_RINvNtCsjMrxcFdYDNN_4core3ptr13drop_in_placeNtNtCslbzLHi4tcfW_9indicatif11draw_target18ProgressDrawTargetEBK_(ptr noalias noundef align 8 dereferenceable(88) %_3.i.i)
          to label %bb9.i unwind label %cleanup1.i

bb5.i:                                            ; preds = %cleanup1.i, %cleanup.i
  %.pn.i = phi { ptr, i32 } [ %7, %cleanup1.i ], [ %3, %cleanup.i ]
  %5 = getelementptr inbounds nuw i8, ptr %_1, i64 328
; call core::ptr::drop_in_place::<indicatif::state::ProgressFinish>
  tail call fastcc void @_RINvNtCsjMrxcFdYDNN_4core3ptr13drop_in_placeNtNtCslbzLHi4tcfW_9indicatif5state14ProgressFinishEBK_(ptr noalias noundef align 8 dereferenceable(32) %5) #33
  %6 = getelementptr inbounds nuw i8, ptr %_1, i64 360
; invoke core::ptr::drop_in_place::<indicatif::style::ProgressStyle>
  invoke fastcc void @_RINvNtCsjMrxcFdYDNN_4core3ptr13drop_in_placeNtNtCslbzLHi4tcfW_9indicatif5style13ProgressStyleEBK_(ptr noalias noundef align 8 dereferenceable(136) %6) #33
          to label %bb3.i unwind label %terminate.i

cleanup1.i:                                       ; preds = %bb10.i
  %7 = landingpad { ptr, i32 }
          cleanup
  br label %bb5.i

bb9.i:                                            ; preds = %bb10.i
  %8 = getelementptr inbounds nuw i8, ptr %_1, i64 328
  tail call void @llvm.experimental.noalias.scope.decl(metadata !145)
  %_2.i.i = load i64, ptr %8, align 8, !range !148, !alias.scope !149, !noundef !13
  switch i64 %_2.i.i, label %bb3.i.i [
    i64 0, label %bb8.i
    i64 1, label %bb2.i.i
    i64 2, label %bb8.i
    i64 3, label %bb8.i
  ]

bb3.i.i:                                          ; preds = %bb9.i
  %9 = getelementptr inbounds nuw i8, ptr %_1, i64 336
  %.val.i.i = load i64, ptr %9, align 8, !range !95, !alias.scope !149, !noundef !13
  switch i64 %.val.i.i, label %bb1.sink.split.i.i [
    i64 -9223372036854775808, label %bb8.i
    i64 0, label %bb8.i
  ]

bb1.sink.split.i.i:                               ; preds = %bb2.i.i, %bb3.i.i
  %.val2.sink.i.i = phi i64 [ %.val2.i.i, %bb2.i.i ], [ %.val.i.i, %bb3.i.i ]
  %10 = getelementptr inbounds nuw i8, ptr %_1, i64 344
  %.val3.i.i = load ptr, ptr %10, align 8, !alias.scope !149, !nonnull !13, !noundef !13
; call __rustc::__rust_dealloc
  tail call void @_RNvCsKhRCbHf33p_7___rustc14___rust_dealloc(ptr noundef nonnull %.val3.i.i, i64 noundef %.val2.sink.i.i, i64 noundef range(i64 1, -9223372036854775807) 1) #30, !noalias !145
  br label %bb8.i

bb2.i.i:                                          ; preds = %bb9.i
  %11 = getelementptr inbounds nuw i8, ptr %_1, i64 336
  %.val2.i.i = load i64, ptr %11, align 8, !range !95, !alias.scope !149, !noundef !13
  switch i64 %.val2.i.i, label %bb1.sink.split.i.i [
    i64 -9223372036854775808, label %bb8.i
    i64 0, label %bb8.i
  ]

bb8.i:                                            ; preds = %bb2.i.i, %bb2.i.i, %bb1.sink.split.i.i, %bb3.i.i, %bb3.i.i, %bb9.i, %bb9.i, %bb9.i
  %12 = getelementptr inbounds nuw i8, ptr %_1, i64 360
; invoke core::ptr::drop_in_place::<indicatif::style::ProgressStyle>
  invoke fastcc void @_RINvNtCsjMrxcFdYDNN_4core3ptr13drop_in_placeNtNtCslbzLHi4tcfW_9indicatif5style13ProgressStyleEBK_(ptr noalias noundef align 8 dereferenceable(136) %12)
          to label %_RINvNtCsjMrxcFdYDNN_4core3ptr13drop_in_placeNtNtCslbzLHi4tcfW_9indicatif5state8BarStateEBK_.exit unwind label %cleanup3.i

bb3.i:                                            ; preds = %cleanup3.i, %bb5.i
  %.pn7.i = phi { ptr, i32 } [ %13, %cleanup3.i ], [ %.pn.i, %bb5.i ]
; invoke core::ptr::drop_in_place::<indicatif::state::ProgressState>
  invoke fastcc void @_RINvNtCsjMrxcFdYDNN_4core3ptr13drop_in_placeNtNtCslbzLHi4tcfW_9indicatif5state13ProgressStateEBK_(ptr noalias noundef nonnull align 8 dereferenceable(504) %_1) #33
          to label %bb1.i unwind label %terminate.i

cleanup3.i:                                       ; preds = %bb8.i
  %13 = landingpad { ptr, i32 }
          cleanup
  br label %bb3.i

terminate.i:                                      ; preds = %bb3.i, %bb5.i, %cleanup.i
  %14 = landingpad { ptr, i32 }
          filter [0 x ptr] zeroinitializer
; call core::panicking::panic_in_cleanup
  tail call void @_RNvNtCsjMrxcFdYDNN_4core9panicking16panic_in_cleanup() #32
  unreachable

bb1.i:                                            ; preds = %bb3.i
  resume { ptr, i32 } %.pn7.i

_RINvNtCsjMrxcFdYDNN_4core3ptr13drop_in_placeNtNtCslbzLHi4tcfW_9indicatif5state8BarStateEBK_.exit: ; preds = %bb8.i
; call core::ptr::drop_in_place::<indicatif::state::ProgressState>
  tail call fastcc void @_RINvNtCsjMrxcFdYDNN_4core3ptr13drop_in_placeNtNtCslbzLHi4tcfW_9indicatif5state13ProgressStateEBK_(ptr noalias noundef nonnull align 8 dereferenceable(504) %_1)
  ret void
}

; core::ptr::drop_in_place::<core::option::Option<alloc::vec::Vec<indicatif::draw_target::LineType>>>
; Function Attrs: nounwind uwtable
define internal fastcc void @_RINvNtCsjMrxcFdYDNN_4core3ptr13drop_in_placeINtNtB4_6option6OptionINtNtCsdJPVW0sQgAG_5alloc3vec3VecNtNtCslbzLHi4tcfW_9indicatif11draw_target8LineTypeEEEB1D_(ptr noalias noundef nonnull readonly align 8 captures(none) dereferenceable(24) %_1) unnamed_addr #4 personality ptr @rust_eh_personality {
start:
  %0 = load i64, ptr %_1, align 8, !range !95, !noundef !13
  %1 = icmp eq i64 %0, -9223372036854775808
  br i1 %1, label %bb1, label %bb2

bb1:                                              ; preds = %bb2.i.i.i7.i, %bb4.i, %start
  ret void

bb2:                                              ; preds = %start
  tail call void @llvm.experimental.noalias.scope.decl(metadata !150)
  %2 = getelementptr inbounds nuw i8, ptr %_1, i64 8
  %_1.val.i = load ptr, ptr %2, align 8, !alias.scope !150, !nonnull !13, !noundef !13
  %3 = getelementptr inbounds nuw i8, ptr %_1, i64 16
  %_1.val1.i = load i64, ptr %3, align 8, !alias.scope !150, !noundef !13
  tail call void @llvm.experimental.noalias.scope.decl(metadata !153)
  %_76.i.i.i = icmp eq i64 %_1.val1.i, 0
  br i1 %_76.i.i.i, label %bb4.i, label %bb5.i.i.i

bb5.i.i.i:                                        ; preds = %bb2, %_RINvNtCsjMrxcFdYDNN_4core3ptr13drop_in_placeNtNtCslbzLHi4tcfW_9indicatif11draw_target8LineTypeEBK_.exit.i.i.i
  %_3.sroa.0.07.i.i.i = phi i64 [ %4, %_RINvNtCsjMrxcFdYDNN_4core3ptr13drop_in_placeNtNtCslbzLHi4tcfW_9indicatif11draw_target8LineTypeEBK_.exit.i.i.i ], [ 0, %bb2 ]
  %_6.i.i.i = getelementptr inbounds nuw %"draw_target::LineType", ptr %_1.val.i, i64 %_3.sroa.0.07.i.i.i
  %4 = add nuw i64 %_3.sroa.0.07.i.i.i, 1
  tail call void @llvm.experimental.noalias.scope.decl(metadata !156)
  %_2.i.i.i.i = load i64, ptr %_6.i.i.i, align 8, !range !110, !alias.scope !159, !noalias !150, !noundef !13
  switch i64 %_2.i.i.i.i, label %_RINvNtCsjMrxcFdYDNN_4core3ptr13drop_in_placeNtNtCslbzLHi4tcfW_9indicatif11draw_target8LineTypeEBK_.exit.i.i.i [
    i64 0, label %bb2.i.i.i.i
    i64 1, label %bb3.i.i.i.i
  ]

bb1.sink.split.i.i.i.i:                           ; preds = %bb3.i.i.i.i, %bb2.i.i.i.i
  %_1.val.i1.sink.i.i.i.i = phi i64 [ %_1.val.i.i.i.i.i, %bb2.i.i.i.i ], [ %_1.val.i1.i.i.i.i, %bb3.i.i.i.i ]
  %5 = getelementptr inbounds nuw i8, ptr %_6.i.i.i, i64 16
  %_1.val1.i3.i.i.i.i = load ptr, ptr %5, align 8, !alias.scope !159, !noalias !150, !nonnull !13, !noundef !13
; call __rustc::__rust_dealloc
  tail call void @_RNvCsKhRCbHf33p_7___rustc14___rust_dealloc(ptr noundef nonnull %_1.val1.i3.i.i.i.i, i64 noundef %_1.val.i1.sink.i.i.i.i, i64 noundef range(i64 1, -9223372036854775807) 1) #30, !noalias !160
  br label %_RINvNtCsjMrxcFdYDNN_4core3ptr13drop_in_placeNtNtCslbzLHi4tcfW_9indicatif11draw_target8LineTypeEBK_.exit.i.i.i

bb2.i.i.i.i:                                      ; preds = %bb5.i.i.i
  %6 = getelementptr inbounds nuw i8, ptr %_6.i.i.i, i64 8
  %_1.val.i.i.i.i.i = load i64, ptr %6, align 8, !alias.scope !161, !noalias !150
  %7 = icmp eq i64 %_1.val.i.i.i.i.i, 0
  br i1 %7, label %_RINvNtCsjMrxcFdYDNN_4core3ptr13drop_in_placeNtNtCslbzLHi4tcfW_9indicatif11draw_target8LineTypeEBK_.exit.i.i.i, label %bb1.sink.split.i.i.i.i

bb3.i.i.i.i:                                      ; preds = %bb5.i.i.i
  %8 = getelementptr inbounds nuw i8, ptr %_6.i.i.i, i64 8
  %_1.val.i1.i.i.i.i = load i64, ptr %8, align 8, !alias.scope !164, !noalias !150
  %9 = icmp eq i64 %_1.val.i1.i.i.i.i, 0
  br i1 %9, label %_RINvNtCsjMrxcFdYDNN_4core3ptr13drop_in_placeNtNtCslbzLHi4tcfW_9indicatif11draw_target8LineTypeEBK_.exit.i.i.i, label %bb1.sink.split.i.i.i.i

_RINvNtCsjMrxcFdYDNN_4core3ptr13drop_in_placeNtNtCslbzLHi4tcfW_9indicatif11draw_target8LineTypeEBK_.exit.i.i.i: ; preds = %bb3.i.i.i.i, %bb2.i.i.i.i, %bb1.sink.split.i.i.i.i, %bb5.i.i.i
  %_7.i.i.i = icmp eq i64 %4, %_1.val1.i
  br i1 %_7.i.i.i, label %bb4.i, label %bb5.i.i.i

bb4.i:                                            ; preds = %_RINvNtCsjMrxcFdYDNN_4core3ptr13drop_in_placeNtNtCslbzLHi4tcfW_9indicatif11draw_target8LineTypeEBK_.exit.i.i.i, %bb2
  %10 = icmp eq i64 %0, 0
  br i1 %10, label %bb1, label %bb2.i.i.i7.i

bb2.i.i.i7.i:                                     ; preds = %bb4.i
  %alloc_size.i.i.i.i8.i = shl nuw i64 %0, 5
; call __rustc::__rust_dealloc
  tail call void @_RNvCsKhRCbHf33p_7___rustc14___rust_dealloc(ptr noundef nonnull %_1.val.i, i64 noundef %alloc_size.i.i.i.i8.i, i64 noundef range(i64 1, -9223372036854775807) 8) #30, !noalias !150
  br label %bb1
}

; core::ptr::drop_in_place::<core::option::Option<std::thread::join_handle::JoinHandle<()>>>
; Function Attrs: uwtable
define internal fastcc void @_RINvNtCsjMrxcFdYDNN_4core3ptr13drop_in_placeINtNtB4_6option6OptionINtNtNtCs5sEH5CPMdak_3std6thread11join_handle10JoinHandleuEEECslbzLHi4tcfW_9indicatif(ptr noalias noundef nonnull align 8 dereferenceable(24) %_1) unnamed_addr #3 personality ptr @rust_eh_personality {
start:
  %0 = load ptr, ptr %_1, align 8, !noundef !13
  %1 = icmp eq ptr %0, null
  br i1 %1, label %bb1, label %bb2

bb1:                                              ; preds = %bb2.i.i9.i.i, %bb5.i.i, %start
  ret void

bb2:                                              ; preds = %start
  %2 = getelementptr inbounds nuw i8, ptr %_1, i64 16
; invoke <std::sys::thread::unix::Thread as core::ops::drop::Drop>::drop
  invoke void @_RNvXs1_NtNtNtCs5sEH5CPMdak_3std3sys6thread4unixNtB5_6ThreadNtNtNtCsjMrxcFdYDNN_4core3ops4drop4Drop4drop(ptr noalias noundef nonnull align 8 dereferenceable(8) %2)
          to label %bb6.i.i unwind label %cleanup.i.i

cleanup.i.i:                                      ; preds = %bb2
  %3 = landingpad { ptr, i32 }
          cleanup
  tail call void @llvm.experimental.noalias.scope.decl(metadata !167)
  tail call void @llvm.experimental.noalias.scope.decl(metadata !170)
  tail call void @llvm.experimental.noalias.scope.decl(metadata !173)
  tail call void @llvm.experimental.noalias.scope.decl(metadata !176)
  %_10.i.i.i.i.i.i = load ptr, ptr %_1, align 8, !alias.scope !179, !nonnull !13, !noundef !13
  %4 = atomicrmw sub ptr %_10.i.i.i.i.i.i, i64 1 release, align 8, !noalias !184
  %5 = icmp eq i64 %4, 1
  br i1 %5, label %bb2.i.i.i.i.i.i, label %bb3.i.i

bb2.i.i.i.i.i.i:                                  ; preds = %cleanup.i.i
  fence acquire
; invoke <alloc::sync::Arc<std::thread::thread::Inner, std::alloc::System>>::drop_slow
  invoke void @_RNvMsn_NtCsdJPVW0sQgAG_5alloc4syncINtB5_3ArcNtNtNtCs5sEH5CPMdak_3std6thread6thread5InnerNtNtBM_5alloc6SystemE9drop_slowBM_(ptr noalias noundef nonnull align 8 dereferenceable(24) %_1) #35
          to label %bb3.i.i unwind label %terminate.i.i

bb6.i.i:                                          ; preds = %bb2
  tail call void @llvm.experimental.noalias.scope.decl(metadata !185)
  tail call void @llvm.experimental.noalias.scope.decl(metadata !188)
  tail call void @llvm.experimental.noalias.scope.decl(metadata !191)
  tail call void @llvm.experimental.noalias.scope.decl(metadata !194)
  %_10.i.i.i.i3.i.i = load ptr, ptr %_1, align 8, !alias.scope !197, !nonnull !13, !noundef !13
  %6 = atomicrmw sub ptr %_10.i.i.i.i3.i.i, i64 1 release, align 8, !noalias !198
  %7 = icmp eq i64 %6, 1
  br i1 %7, label %bb2.i.i.i.i4.i.i, label %bb5.i.i

bb2.i.i.i.i4.i.i:                                 ; preds = %bb6.i.i
  fence acquire
; invoke <alloc::sync::Arc<std::thread::thread::Inner, std::alloc::System>>::drop_slow
  invoke void @_RNvMsn_NtCsdJPVW0sQgAG_5alloc4syncINtB5_3ArcNtNtNtCs5sEH5CPMdak_3std6thread6thread5InnerNtNtBM_5alloc6SystemE9drop_slowBM_(ptr noalias noundef nonnull align 8 dereferenceable(24) %_1) #35
          to label %bb5.i.i unwind label %cleanup1.i.i

bb3.i.i:                                          ; preds = %cleanup1.i.i, %bb2.i.i.i.i.i.i, %cleanup.i.i
  %.pn.i.i = phi { ptr, i32 } [ %11, %cleanup1.i.i ], [ %3, %bb2.i.i.i.i.i.i ], [ %3, %cleanup.i.i ]
  %8 = getelementptr inbounds nuw i8, ptr %_1, i64 8
  tail call void @llvm.experimental.noalias.scope.decl(metadata !199)
  tail call void @llvm.experimental.noalias.scope.decl(metadata !202)
  %_10.i.i.i.i = load ptr, ptr %8, align 8, !alias.scope !205, !nonnull !13, !noundef !13
  %9 = atomicrmw sub ptr %_10.i.i.i.i, i64 1 release, align 8, !noalias !206
  %10 = icmp eq i64 %9, 1
  br i1 %10, label %bb2.i.i.i.i, label %bb1.i.i

bb2.i.i.i.i:                                      ; preds = %bb3.i.i
  fence acquire
; invoke <alloc::sync::Arc<std::thread::lifecycle::Packet<()>>>::drop_slow
  invoke void @_RNvMsn_NtCsdJPVW0sQgAG_5alloc4syncINtB5_3ArcINtNtNtCs5sEH5CPMdak_3std6thread9lifecycle6PacketuEE9drop_slowCslbzLHi4tcfW_9indicatif(ptr noalias noundef nonnull readonly align 8 dereferenceable(8) %8) #35
          to label %bb1.i.i unwind label %terminate.i.i

cleanup1.i.i:                                     ; preds = %bb2.i.i.i.i4.i.i
  %11 = landingpad { ptr, i32 }
          cleanup
  br label %bb3.i.i

bb5.i.i:                                          ; preds = %bb2.i.i.i.i4.i.i, %bb6.i.i
  %12 = getelementptr inbounds nuw i8, ptr %_1, i64 8
  tail call void @llvm.experimental.noalias.scope.decl(metadata !207)
  tail call void @llvm.experimental.noalias.scope.decl(metadata !210)
  %_10.i.i8.i.i = load ptr, ptr %12, align 8, !alias.scope !213, !nonnull !13, !noundef !13
  %13 = atomicrmw sub ptr %_10.i.i8.i.i, i64 1 release, align 8, !noalias !214
  %14 = icmp eq i64 %13, 1
  br i1 %14, label %bb2.i.i9.i.i, label %bb1

bb2.i.i9.i.i:                                     ; preds = %bb5.i.i
  fence acquire
; call <alloc::sync::Arc<std::thread::lifecycle::Packet<()>>>::drop_slow
  tail call void @_RNvMsn_NtCsdJPVW0sQgAG_5alloc4syncINtB5_3ArcINtNtNtCs5sEH5CPMdak_3std6thread9lifecycle6PacketuEE9drop_slowCslbzLHi4tcfW_9indicatif(ptr noalias noundef nonnull readonly align 8 dereferenceable(8) %12) #35
  br label %bb1

terminate.i.i:                                    ; preds = %bb2.i.i.i.i, %bb2.i.i.i.i.i.i
  %15 = landingpad { ptr, i32 }
          filter [0 x ptr] zeroinitializer
; call core::panicking::panic_in_cleanup
  tail call void @_RNvNtCsjMrxcFdYDNN_4core9panicking16panic_in_cleanup() #32
  unreachable

bb1.i.i:                                          ; preds = %bb2.i.i.i.i, %bb3.i.i
  resume { ptr, i32 } %.pn.i.i
}

; core::ptr::drop_in_place::<core::option::Option<console::utils::Style>>
; Function Attrs: uwtable
define internal fastcc void @_RINvNtCsjMrxcFdYDNN_4core3ptr13drop_in_placeINtNtB4_6option6OptionNtNtCsC3JuwEIQwb_7console5utils5StyleEECslbzLHi4tcfW_9indicatif(ptr noalias noundef nonnull readonly align 8 captures(none) dereferenceable(32) %_1) unnamed_addr #3 personality ptr @rust_eh_personality {
start:
  %_2.i.i.i.i.i.i = alloca [24 x i8], align 8
  %_x.i.i.i.i = alloca [72 x i8], align 8
  %0 = getelementptr inbounds nuw i8, ptr %_1, i64 31
  %1 = load i8, ptr %0, align 1, !range !143, !noundef !13
  %2 = icmp eq i8 %1, 2
  br i1 %2, label %bb1, label %bb2

bb1:                                              ; preds = %_RINvNtCsjMrxcFdYDNN_4core3ptr13drop_in_placeNtNtCsC3JuwEIQwb_7console5utils5StyleECslbzLHi4tcfW_9indicatif.exit, %start
  ret void

bb2:                                              ; preds = %start
  tail call void @llvm.experimental.noalias.scope.decl(metadata !215)
  tail call void @llvm.experimental.noalias.scope.decl(metadata !218)
  tail call void @llvm.experimental.noalias.scope.decl(metadata !221)
  tail call void @llvm.experimental.noalias.scope.decl(metadata !224)
  call void @llvm.lifetime.start.p0(i64 72, ptr nonnull %_x.i.i.i.i), !noalias !227
  %self1.sroa.0.0.copyload.i.i.i.i = load ptr, ptr %_1, align 8, !alias.scope !227
  %.not.i.i.i.i = icmp eq ptr %self1.sroa.0.0.copyload.i.i.i.i, null
  br i1 %.not.i.i.i.i, label %bb3.i.i.i.i, label %bb1.i.i.i.i

bb1.i.i.i.i:                                      ; preds = %bb2
  %self1.sroa.5.0.self.sroa_idx.i.i.i.i = getelementptr inbounds nuw i8, ptr %_1, i64 16
  %self1.sroa.5.0.copyload.i.i.i.i = load i64, ptr %self1.sroa.5.0.self.sroa_idx.i.i.i.i, align 8, !alias.scope !227
  %self1.sroa.4.0.self.sroa_idx.i.i.i.i = getelementptr inbounds nuw i8, ptr %_1, i64 8
  %self1.sroa.4.0.copyload.i.i.i.i = load i64, ptr %self1.sroa.4.0.self.sroa_idx.i.i.i.i, align 8, !alias.scope !227
  %full_range.sroa.4.0._x.sroa_idx.i.i.i.i = getelementptr inbounds nuw i8, ptr %_x.i.i.i.i, i64 8
  store ptr null, ptr %full_range.sroa.4.0._x.sroa_idx.i.i.i.i, align 8, !noalias !227
  %full_range.sroa.4.sroa.4.0.full_range.sroa.4.0._x.sroa_idx.sroa_idx.i.i.i.i = getelementptr inbounds nuw i8, ptr %_x.i.i.i.i, i64 16
  store ptr %self1.sroa.0.0.copyload.i.i.i.i, ptr %full_range.sroa.4.sroa.4.0.full_range.sroa.4.0._x.sroa_idx.sroa_idx.i.i.i.i, align 8, !noalias !227
  %full_range.sroa.4.sroa.5.0.full_range.sroa.4.0._x.sroa_idx.sroa_idx.i.i.i.i = getelementptr inbounds nuw i8, ptr %_x.i.i.i.i, i64 24
  store i64 %self1.sroa.4.0.copyload.i.i.i.i, ptr %full_range.sroa.4.sroa.5.0.full_range.sroa.4.0._x.sroa_idx.sroa_idx.i.i.i.i, align 8, !noalias !227
  %full_range.sroa.6.0._x.sroa_idx.i.i.i.i = getelementptr inbounds nuw i8, ptr %_x.i.i.i.i, i64 40
  store ptr null, ptr %full_range.sroa.6.0._x.sroa_idx.i.i.i.i, align 8, !noalias !227
  %full_range.sroa.6.sroa.4.0.full_range.sroa.6.0._x.sroa_idx.sroa_idx.i.i.i.i = getelementptr inbounds nuw i8, ptr %_x.i.i.i.i, i64 48
  store ptr %self1.sroa.0.0.copyload.i.i.i.i, ptr %full_range.sroa.6.sroa.4.0.full_range.sroa.6.0._x.sroa_idx.sroa_idx.i.i.i.i, align 8, !noalias !227
  %full_range.sroa.6.sroa.5.0.full_range.sroa.6.0._x.sroa_idx.sroa_idx.i.i.i.i = getelementptr inbounds nuw i8, ptr %_x.i.i.i.i, i64 56
  store i64 %self1.sroa.4.0.copyload.i.i.i.i, ptr %full_range.sroa.6.sroa.5.0.full_range.sroa.6.0._x.sroa_idx.sroa_idx.i.i.i.i, align 8, !noalias !227
  br label %bb3.i.i.i.i

bb3.i.i.i.i:                                      ; preds = %bb1.i.i.i.i, %bb2
  %.sink9.i.i.i.i = phi i64 [ 1, %bb1.i.i.i.i ], [ 0, %bb2 ]
  %self1.sroa.5.0.copyload.sink.i.i.i.i = phi i64 [ %self1.sroa.5.0.copyload.i.i.i.i, %bb1.i.i.i.i ], [ 0, %bb2 ]
  store i64 %.sink9.i.i.i.i, ptr %_x.i.i.i.i, align 8, !noalias !227
  %3 = getelementptr inbounds nuw i8, ptr %_x.i.i.i.i, i64 32
  store i64 %.sink9.i.i.i.i, ptr %3, align 8, !noalias !227
  %4 = getelementptr inbounds nuw i8, ptr %_x.i.i.i.i, i64 64
  store i64 %self1.sroa.5.0.copyload.sink.i.i.i.i, ptr %4, align 8, !noalias !227
  call void @llvm.lifetime.start.p0(i64 24, ptr nonnull %_2.i.i.i.i.i.i), !noalias !228
; call <alloc::collections::btree::map::IntoIter<console::utils::Attribute, alloc::collections::btree::set_val::SetValZST>>::dying_next
  call fastcc void @_RNvMsz_NtNtNtCsdJPVW0sQgAG_5alloc11collections5btree3mapINtB5_8IntoIterNtNtCsC3JuwEIQwb_7console5utils9AttributeNtNtB7_7set_val9SetValZSTE10dying_nextCslbzLHi4tcfW_9indicatif(ptr noalias noundef align 8 captures(none) dereferenceable(24) %_2.i.i.i.i.i.i, ptr noalias noundef nonnull align 8 dereferenceable(72) %_x.i.i.i.i), !noalias !227
  %5 = load ptr, ptr %_2.i.i.i.i.i.i, align 8, !noalias !228, !noundef !13
  %.not1.i.i.i.i.i.i = icmp eq ptr %5, null
  br i1 %.not1.i.i.i.i.i.i, label %_RINvNtCsjMrxcFdYDNN_4core3ptr13drop_in_placeNtNtCsC3JuwEIQwb_7console5utils5StyleECslbzLHi4tcfW_9indicatif.exit, label %bb4.i.i.i.i.i.i

bb4.i.i.i.i.i.i:                                  ; preds = %bb3.i.i.i.i, %bb4.i.i.i.i.i.i
  call void @llvm.lifetime.end.p0(i64 24, ptr nonnull %_2.i.i.i.i.i.i), !noalias !228
  call void @llvm.lifetime.start.p0(i64 24, ptr nonnull %_2.i.i.i.i.i.i), !noalias !228
; call <alloc::collections::btree::map::IntoIter<console::utils::Attribute, alloc::collections::btree::set_val::SetValZST>>::dying_next
  call fastcc void @_RNvMsz_NtNtNtCsdJPVW0sQgAG_5alloc11collections5btree3mapINtB5_8IntoIterNtNtCsC3JuwEIQwb_7console5utils9AttributeNtNtB7_7set_val9SetValZSTE10dying_nextCslbzLHi4tcfW_9indicatif(ptr noalias noundef align 8 captures(none) dereferenceable(24) %_2.i.i.i.i.i.i, ptr noalias noundef nonnull align 8 dereferenceable(72) %_x.i.i.i.i), !noalias !227
  %6 = load ptr, ptr %_2.i.i.i.i.i.i, align 8, !noalias !228, !noundef !13
  %.not.i.i.i.i.i.i = icmp eq ptr %6, null
  br i1 %.not.i.i.i.i.i.i, label %_RINvNtCsjMrxcFdYDNN_4core3ptr13drop_in_placeNtNtCsC3JuwEIQwb_7console5utils5StyleECslbzLHi4tcfW_9indicatif.exit, label %bb4.i.i.i.i.i.i

_RINvNtCsjMrxcFdYDNN_4core3ptr13drop_in_placeNtNtCsC3JuwEIQwb_7console5utils5StyleECslbzLHi4tcfW_9indicatif.exit: ; preds = %bb4.i.i.i.i.i.i, %bb3.i.i.i.i
  call void @llvm.lifetime.end.p0(i64 24, ptr nonnull %_2.i.i.i.i.i.i), !noalias !228
  call void @llvm.lifetime.end.p0(i64 72, ptr nonnull %_x.i.i.i.i), !noalias !227
  br label %bb1
}

; core::ptr::drop_in_place::<core::option::Option<indicatif::draw_target::DrawState>>
; Function Attrs: nounwind uwtable
define internal void @_RINvNtCsjMrxcFdYDNN_4core3ptr13drop_in_placeINtNtB4_6option6OptionNtNtCslbzLHi4tcfW_9indicatif11draw_target9DrawStateEEB16_(ptr noalias noundef readonly align 8 captures(none) dereferenceable(32) %_1) unnamed_addr #4 personality ptr @rust_eh_personality {
start:
  %0 = load i64, ptr %_1, align 8, !range !95, !noundef !13
  %1 = icmp eq i64 %0, -9223372036854775808
  br i1 %1, label %bb1, label %bb2

bb1:                                              ; preds = %bb2.i.i.i7.i.i, %bb4.i.i, %start
  ret void

bb2:                                              ; preds = %start
  tail call void @llvm.experimental.noalias.scope.decl(metadata !233)
  tail call void @llvm.experimental.noalias.scope.decl(metadata !236)
  %2 = getelementptr inbounds nuw i8, ptr %_1, i64 8
  %_1.val.i.i = load ptr, ptr %2, align 8, !alias.scope !239, !nonnull !13, !noundef !13
  %3 = getelementptr inbounds nuw i8, ptr %_1, i64 16
  %_1.val1.i.i = load i64, ptr %3, align 8, !alias.scope !239, !noundef !13
  tail call void @llvm.experimental.noalias.scope.decl(metadata !240)
  %_76.i.i.i.i = icmp eq i64 %_1.val1.i.i, 0
  br i1 %_76.i.i.i.i, label %bb4.i.i, label %bb5.i.i.i.i

bb5.i.i.i.i:                                      ; preds = %bb2, %_RINvNtCsjMrxcFdYDNN_4core3ptr13drop_in_placeNtNtCslbzLHi4tcfW_9indicatif11draw_target8LineTypeEBK_.exit.i.i.i.i
  %_3.sroa.0.07.i.i.i.i = phi i64 [ %4, %_RINvNtCsjMrxcFdYDNN_4core3ptr13drop_in_placeNtNtCslbzLHi4tcfW_9indicatif11draw_target8LineTypeEBK_.exit.i.i.i.i ], [ 0, %bb2 ]
  %_6.i.i.i.i = getelementptr inbounds nuw %"draw_target::LineType", ptr %_1.val.i.i, i64 %_3.sroa.0.07.i.i.i.i
  %4 = add nuw i64 %_3.sroa.0.07.i.i.i.i, 1
  tail call void @llvm.experimental.noalias.scope.decl(metadata !243)
  %_2.i.i.i.i.i = load i64, ptr %_6.i.i.i.i, align 8, !range !110, !alias.scope !246, !noalias !239, !noundef !13
  switch i64 %_2.i.i.i.i.i, label %_RINvNtCsjMrxcFdYDNN_4core3ptr13drop_in_placeNtNtCslbzLHi4tcfW_9indicatif11draw_target8LineTypeEBK_.exit.i.i.i.i [
    i64 0, label %bb2.i.i.i.i.i
    i64 1, label %bb3.i.i.i.i.i
  ]

bb1.sink.split.i.i.i.i.i:                         ; preds = %bb3.i.i.i.i.i, %bb2.i.i.i.i.i
  %_1.val.i1.sink.i.i.i.i.i = phi i64 [ %_1.val.i.i.i.i.i.i, %bb2.i.i.i.i.i ], [ %_1.val.i1.i.i.i.i.i, %bb3.i.i.i.i.i ]
  %5 = getelementptr inbounds nuw i8, ptr %_6.i.i.i.i, i64 16
  %_1.val1.i3.i.i.i.i.i = load ptr, ptr %5, align 8, !alias.scope !246, !noalias !239, !nonnull !13, !noundef !13
; call __rustc::__rust_dealloc
  tail call void @_RNvCsKhRCbHf33p_7___rustc14___rust_dealloc(ptr noundef nonnull %_1.val1.i3.i.i.i.i.i, i64 noundef %_1.val.i1.sink.i.i.i.i.i, i64 noundef range(i64 1, -9223372036854775807) 1) #30, !noalias !247
  br label %_RINvNtCsjMrxcFdYDNN_4core3ptr13drop_in_placeNtNtCslbzLHi4tcfW_9indicatif11draw_target8LineTypeEBK_.exit.i.i.i.i

bb2.i.i.i.i.i:                                    ; preds = %bb5.i.i.i.i
  %6 = getelementptr inbounds nuw i8, ptr %_6.i.i.i.i, i64 8
  %_1.val.i.i.i.i.i.i = load i64, ptr %6, align 8, !alias.scope !248, !noalias !239
  %7 = icmp eq i64 %_1.val.i.i.i.i.i.i, 0
  br i1 %7, label %_RINvNtCsjMrxcFdYDNN_4core3ptr13drop_in_placeNtNtCslbzLHi4tcfW_9indicatif11draw_target8LineTypeEBK_.exit.i.i.i.i, label %bb1.sink.split.i.i.i.i.i

bb3.i.i.i.i.i:                                    ; preds = %bb5.i.i.i.i
  %8 = getelementptr inbounds nuw i8, ptr %_6.i.i.i.i, i64 8
  %_1.val.i1.i.i.i.i.i = load i64, ptr %8, align 8, !alias.scope !251, !noalias !239
  %9 = icmp eq i64 %_1.val.i1.i.i.i.i.i, 0
  br i1 %9, label %_RINvNtCsjMrxcFdYDNN_4core3ptr13drop_in_placeNtNtCslbzLHi4tcfW_9indicatif11draw_target8LineTypeEBK_.exit.i.i.i.i, label %bb1.sink.split.i.i.i.i.i

_RINvNtCsjMrxcFdYDNN_4core3ptr13drop_in_placeNtNtCslbzLHi4tcfW_9indicatif11draw_target8LineTypeEBK_.exit.i.i.i.i: ; preds = %bb3.i.i.i.i.i, %bb2.i.i.i.i.i, %bb1.sink.split.i.i.i.i.i, %bb5.i.i.i.i
  %_7.i.i.i.i = icmp eq i64 %4, %_1.val1.i.i
  br i1 %_7.i.i.i.i, label %bb4.i.i, label %bb5.i.i.i.i

bb4.i.i:                                          ; preds = %_RINvNtCsjMrxcFdYDNN_4core3ptr13drop_in_placeNtNtCslbzLHi4tcfW_9indicatif11draw_target8LineTypeEBK_.exit.i.i.i.i, %bb2
  %10 = icmp eq i64 %0, 0
  br i1 %10, label %bb1, label %bb2.i.i.i7.i.i

bb2.i.i.i7.i.i:                                   ; preds = %bb4.i.i
  %alloc_size.i.i.i.i8.i.i = shl nuw i64 %0, 5
; call __rustc::__rust_dealloc
  tail call void @_RNvCsKhRCbHf33p_7___rustc14___rust_dealloc(ptr noundef nonnull %_1.val.i.i, i64 noundef %alloc_size.i.i.i.i8.i.i, i64 noundef range(i64 1, -9223372036854775807) 8) #30, !noalias !239
  br label %bb1
}

; core::ptr::drop_in_place::<core::option::Option<indicatif::progress_bar::Ticker>>
; Function Attrs: uwtable
define internal fastcc void @_RINvNtCsjMrxcFdYDNN_4core3ptr13drop_in_placeINtNtB4_6option6OptionNtNtCslbzLHi4tcfW_9indicatif12progress_bar6TickerEEB16_(ptr noalias noundef nonnull align 8 dereferenceable(32) %_1) unnamed_addr #3 personality ptr @rust_eh_personality {
start:
  %0 = load ptr, ptr %_1, align 8, !noundef !13
  %1 = icmp eq ptr %0, null
  br i1 %1, label %bb1, label %bb2

bb1:                                              ; preds = %_RINvNtCsjMrxcFdYDNN_4core3ptr13drop_in_placeNtNtCslbzLHi4tcfW_9indicatif12progress_bar6TickerEBK_.exit, %start
  ret void

bb2:                                              ; preds = %start
  tail call void @llvm.experimental.noalias.scope.decl(metadata !254)
; invoke <indicatif::progress_bar::Ticker as core::ops::drop::Drop>::drop
  invoke void @_RNvXs1_NtCslbzLHi4tcfW_9indicatif12progress_barNtB5_6TickerNtNtNtCsjMrxcFdYDNN_4core3ops4drop4Drop4drop(ptr noalias noundef nonnull align 8 dereferenceable(32) %_1)
          to label %bb6.i unwind label %cleanup.i

cleanup.i:                                        ; preds = %bb2
  %2 = landingpad { ptr, i32 }
          cleanup
  tail call void @llvm.experimental.noalias.scope.decl(metadata !257)
  tail call void @llvm.experimental.noalias.scope.decl(metadata !260)
  %_10.i.i.i = load ptr, ptr %_1, align 8, !alias.scope !263, !nonnull !13, !noundef !13
  %3 = atomicrmw sub ptr %_10.i.i.i, i64 1 release, align 8, !noalias !263
  %4 = icmp eq i64 %3, 1
  br i1 %4, label %bb2.i.i.i, label %bb3.i

bb2.i.i.i:                                        ; preds = %cleanup.i
  fence acquire
; invoke <alloc::sync::Arc<(std::sync::poison::mutex::Mutex<bool>, std::sync::poison::condvar::Condvar)>>::drop_slow
  invoke void @_RNvMsn_NtCsdJPVW0sQgAG_5alloc4syncINtB5_3ArcTINtNtNtNtCs5sEH5CPMdak_3std4sync6poison5mutex5MutexbENtNtBM_7condvar7CondvarEE9drop_slowCslbzLHi4tcfW_9indicatif(ptr noalias noundef nonnull readonly align 8 dereferenceable(32) %_1) #35
          to label %bb3.i unwind label %terminate.i

bb6.i:                                            ; preds = %bb2
  tail call void @llvm.experimental.noalias.scope.decl(metadata !264)
  tail call void @llvm.experimental.noalias.scope.decl(metadata !267)
  %_10.i.i3.i = load ptr, ptr %_1, align 8, !alias.scope !270, !nonnull !13, !noundef !13
  %5 = atomicrmw sub ptr %_10.i.i3.i, i64 1 release, align 8, !noalias !270
  %6 = icmp eq i64 %5, 1
  br i1 %6, label %bb2.i.i4.i, label %_RINvNtCsjMrxcFdYDNN_4core3ptr13drop_in_placeNtNtCslbzLHi4tcfW_9indicatif12progress_bar6TickerEBK_.exit

bb2.i.i4.i:                                       ; preds = %bb6.i
  fence acquire
; invoke <alloc::sync::Arc<(std::sync::poison::mutex::Mutex<bool>, std::sync::poison::condvar::Condvar)>>::drop_slow
  invoke void @_RNvMsn_NtCsdJPVW0sQgAG_5alloc4syncINtB5_3ArcTINtNtNtNtCs5sEH5CPMdak_3std4sync6poison5mutex5MutexbENtNtBM_7condvar7CondvarEE9drop_slowCslbzLHi4tcfW_9indicatif(ptr noalias noundef nonnull readonly align 8 dereferenceable(32) %_1) #35
          to label %_RINvNtCsjMrxcFdYDNN_4core3ptr13drop_in_placeNtNtCslbzLHi4tcfW_9indicatif12progress_bar6TickerEBK_.exit unwind label %cleanup1.i

bb3.i:                                            ; preds = %cleanup1.i, %bb2.i.i.i, %cleanup.i
  %.pn.i = phi { ptr, i32 } [ %8, %cleanup1.i ], [ %2, %bb2.i.i.i ], [ %2, %cleanup.i ]
  %7 = getelementptr inbounds nuw i8, ptr %_1, i64 8
; invoke core::ptr::drop_in_place::<core::option::Option<std::thread::join_handle::JoinHandle<()>>>
  invoke fastcc void @_RINvNtCsjMrxcFdYDNN_4core3ptr13drop_in_placeINtNtB4_6option6OptionINtNtNtCs5sEH5CPMdak_3std6thread11join_handle10JoinHandleuEEECslbzLHi4tcfW_9indicatif(ptr noalias noundef align 8 dereferenceable(24) %7) #33
          to label %bb1.i unwind label %terminate.i

cleanup1.i:                                       ; preds = %bb2.i.i4.i
  %8 = landingpad { ptr, i32 }
          cleanup
  br label %bb3.i

terminate.i:                                      ; preds = %bb3.i, %bb2.i.i.i
  %9 = landingpad { ptr, i32 }
          filter [0 x ptr] zeroinitializer
; call core::panicking::panic_in_cleanup
  tail call void @_RNvNtCsjMrxcFdYDNN_4core9panicking16panic_in_cleanup() #32
  unreachable

bb1.i:                                            ; preds = %bb3.i
  resume { ptr, i32 } %.pn.i

_RINvNtCsjMrxcFdYDNN_4core3ptr13drop_in_placeNtNtCslbzLHi4tcfW_9indicatif12progress_bar6TickerEBK_.exit: ; preds = %bb6.i, %bb2.i.i4.i
  %10 = getelementptr inbounds nuw i8, ptr %_1, i64 8
; call core::ptr::drop_in_place::<core::option::Option<std::thread::join_handle::JoinHandle<()>>>
  tail call fastcc void @_RINvNtCsjMrxcFdYDNN_4core3ptr13drop_in_placeINtNtB4_6option6OptionINtNtNtCs5sEH5CPMdak_3std6thread11join_handle10JoinHandleuEEECslbzLHi4tcfW_9indicatif(ptr noalias noundef align 8 dereferenceable(24) %10)
  br label %bb1
}

; core::ptr::drop_in_place::<core::result::Result<(), alloc::boxed::Box<dyn core::any::Any + core::marker::Send>>>
; Function Attrs: uwtable
define internal fastcc void @_RINvNtCsjMrxcFdYDNN_4core3ptr13drop_in_placeINtNtB4_6result6ResultuINtNtCsdJPVW0sQgAG_5alloc5boxed3BoxDNtNtB4_3any3AnyNtNtB4_6marker4SendEL_EEECslbzLHi4tcfW_9indicatif(ptr %_1.0.val, ptr readonly captures(address_is_null) %_1.8.val) unnamed_addr #3 personality ptr @rust_eh_personality {
start:
  %0 = icmp eq ptr %_1.0.val, null
  br i1 %0, label %bb1, label %bb2

bb1:                                              ; preds = %_RNvXs_NtCsdJPVW0sQgAG_5alloc5allocNtB4_6GlobalNtNtCsjMrxcFdYDNN_4core5alloc9Allocator10deallocate.exit.i.i, %bb3.i, %start
  ret void

bb2:                                              ; preds = %start
  %1 = icmp ne ptr %_1.8.val, null
  tail call void @llvm.assume(i1 %1)
  %2 = load ptr, ptr %_1.8.val, align 8, !invariant.load !13
  %.not.i = icmp eq ptr %2, null
  br i1 %.not.i, label %bb3.i, label %is_not_null.i

is_not_null.i:                                    ; preds = %bb2
  invoke void %2(ptr noundef nonnull %_1.0.val)
          to label %bb3.i unwind label %cleanup.i

bb3.i:                                            ; preds = %is_not_null.i, %bb2
  %3 = getelementptr inbounds nuw i8, ptr %_1.8.val, i64 8
  %4 = load i64, ptr %3, align 8, !range !59, !invariant.load !13
  %5 = getelementptr inbounds nuw i8, ptr %_1.8.val, i64 16
  %6 = load i64, ptr %5, align 8, !range !79, !invariant.load !13
  %7 = add i64 %6, -1
  %8 = icmp sgt i64 %7, -1
  tail call void @llvm.assume(i1 %8)
  %9 = icmp eq i64 %4, 0
  br i1 %9, label %bb1, label %_RNvXs_NtCsdJPVW0sQgAG_5alloc5allocNtB4_6GlobalNtNtCsjMrxcFdYDNN_4core5alloc9Allocator10deallocate.exit.i.i

_RNvXs_NtCsdJPVW0sQgAG_5alloc5allocNtB4_6GlobalNtNtCsjMrxcFdYDNN_4core5alloc9Allocator10deallocate.exit.i.i: ; preds = %bb3.i
; call __rustc::__rust_dealloc
  tail call void @_RNvCsKhRCbHf33p_7___rustc14___rust_dealloc(ptr noundef nonnull %_1.0.val, i64 noundef %4, i64 noundef range(i64 1, -9223372036854775807) %6) #30
  br label %bb1

cleanup.i:                                        ; preds = %is_not_null.i
  %10 = landingpad { ptr, i32 }
          cleanup
  %11 = getelementptr inbounds nuw i8, ptr %_1.8.val, i64 8
  %12 = load i64, ptr %11, align 8, !range !59, !invariant.load !13
  %13 = getelementptr inbounds nuw i8, ptr %_1.8.val, i64 16
  %14 = load i64, ptr %13, align 8, !range !79, !invariant.load !13
  %15 = add i64 %14, -1
  %16 = icmp sgt i64 %15, -1
  tail call void @llvm.assume(i1 %16)
  %17 = icmp eq i64 %12, 0
  br i1 %17, label %bb1.i, label %_RNvXs_NtCsdJPVW0sQgAG_5alloc5allocNtB4_6GlobalNtNtCsjMrxcFdYDNN_4core5alloc9Allocator10deallocate.exit.i4.i

_RNvXs_NtCsdJPVW0sQgAG_5alloc5allocNtB4_6GlobalNtNtCsjMrxcFdYDNN_4core5alloc9Allocator10deallocate.exit.i4.i: ; preds = %cleanup.i
; call __rustc::__rust_dealloc
  tail call void @_RNvCsKhRCbHf33p_7___rustc14___rust_dealloc(ptr noundef nonnull %_1.0.val, i64 noundef %12, i64 noundef range(i64 1, -9223372036854775807) %14) #30
  br label %bb1.i

bb1.i:                                            ; preds = %_RNvXs_NtCsdJPVW0sQgAG_5alloc5allocNtB4_6GlobalNtNtCsjMrxcFdYDNN_4core5alloc9Allocator10deallocate.exit.i4.i, %cleanup.i
  resume { ptr, i32 } %10
}

; core::ptr::drop_in_place::<console::utils::StyledObject<indicatif::style::PaddedStringDisplay>>
; Function Attrs: uwtable
define internal fastcc void @_RINvNtCsjMrxcFdYDNN_4core3ptr13drop_in_placeINtNtCsC3JuwEIQwb_7console5utils12StyledObjectNtNtCslbzLHi4tcfW_9indicatif5style19PaddedStringDisplayEEB1u_(ptr noalias noundef nonnull readonly align 8 captures(none) dereferenceable(64) %_1) unnamed_addr #3 personality ptr @rust_eh_personality {
start:
  %_2.i.i.i.i.i.i = alloca [24 x i8], align 8
  %_x.i.i.i.i = alloca [72 x i8], align 8
  %0 = getelementptr inbounds nuw i8, ptr %_1, i64 32
  tail call void @llvm.experimental.noalias.scope.decl(metadata !271)
  tail call void @llvm.experimental.noalias.scope.decl(metadata !274)
  tail call void @llvm.experimental.noalias.scope.decl(metadata !277)
  tail call void @llvm.experimental.noalias.scope.decl(metadata !280)
  call void @llvm.lifetime.start.p0(i64 72, ptr nonnull %_x.i.i.i.i), !noalias !283
  %self1.sroa.0.0.copyload.i.i.i.i = load ptr, ptr %0, align 8, !alias.scope !283
  %.not.i.i.i.i = icmp eq ptr %self1.sroa.0.0.copyload.i.i.i.i, null
  br i1 %.not.i.i.i.i, label %bb3.i.i.i.i, label %bb1.i.i.i.i

bb1.i.i.i.i:                                      ; preds = %start
  %self1.sroa.5.0.self.sroa_idx.i.i.i.i = getelementptr inbounds nuw i8, ptr %_1, i64 48
  %self1.sroa.5.0.copyload.i.i.i.i = load i64, ptr %self1.sroa.5.0.self.sroa_idx.i.i.i.i, align 8, !alias.scope !283
  %self1.sroa.4.0.self.sroa_idx.i.i.i.i = getelementptr inbounds nuw i8, ptr %_1, i64 40
  %self1.sroa.4.0.copyload.i.i.i.i = load i64, ptr %self1.sroa.4.0.self.sroa_idx.i.i.i.i, align 8, !alias.scope !283
  %full_range.sroa.4.0._x.sroa_idx.i.i.i.i = getelementptr inbounds nuw i8, ptr %_x.i.i.i.i, i64 8
  store ptr null, ptr %full_range.sroa.4.0._x.sroa_idx.i.i.i.i, align 8, !noalias !283
  %full_range.sroa.4.sroa.4.0.full_range.sroa.4.0._x.sroa_idx.sroa_idx.i.i.i.i = getelementptr inbounds nuw i8, ptr %_x.i.i.i.i, i64 16
  store ptr %self1.sroa.0.0.copyload.i.i.i.i, ptr %full_range.sroa.4.sroa.4.0.full_range.sroa.4.0._x.sroa_idx.sroa_idx.i.i.i.i, align 8, !noalias !283
  %full_range.sroa.4.sroa.5.0.full_range.sroa.4.0._x.sroa_idx.sroa_idx.i.i.i.i = getelementptr inbounds nuw i8, ptr %_x.i.i.i.i, i64 24
  store i64 %self1.sroa.4.0.copyload.i.i.i.i, ptr %full_range.sroa.4.sroa.5.0.full_range.sroa.4.0._x.sroa_idx.sroa_idx.i.i.i.i, align 8, !noalias !283
  %full_range.sroa.6.0._x.sroa_idx.i.i.i.i = getelementptr inbounds nuw i8, ptr %_x.i.i.i.i, i64 40
  store ptr null, ptr %full_range.sroa.6.0._x.sroa_idx.i.i.i.i, align 8, !noalias !283
  %full_range.sroa.6.sroa.4.0.full_range.sroa.6.0._x.sroa_idx.sroa_idx.i.i.i.i = getelementptr inbounds nuw i8, ptr %_x.i.i.i.i, i64 48
  store ptr %self1.sroa.0.0.copyload.i.i.i.i, ptr %full_range.sroa.6.sroa.4.0.full_range.sroa.6.0._x.sroa_idx.sroa_idx.i.i.i.i, align 8, !noalias !283
  %full_range.sroa.6.sroa.5.0.full_range.sroa.6.0._x.sroa_idx.sroa_idx.i.i.i.i = getelementptr inbounds nuw i8, ptr %_x.i.i.i.i, i64 56
  store i64 %self1.sroa.4.0.copyload.i.i.i.i, ptr %full_range.sroa.6.sroa.5.0.full_range.sroa.6.0._x.sroa_idx.sroa_idx.i.i.i.i, align 8, !noalias !283
  br label %bb3.i.i.i.i

bb3.i.i.i.i:                                      ; preds = %bb1.i.i.i.i, %start
  %.sink9.i.i.i.i = phi i64 [ 1, %bb1.i.i.i.i ], [ 0, %start ]
  %self1.sroa.5.0.copyload.sink.i.i.i.i = phi i64 [ %self1.sroa.5.0.copyload.i.i.i.i, %bb1.i.i.i.i ], [ 0, %start ]
  store i64 %.sink9.i.i.i.i, ptr %_x.i.i.i.i, align 8, !noalias !283
  %1 = getelementptr inbounds nuw i8, ptr %_x.i.i.i.i, i64 32
  store i64 %.sink9.i.i.i.i, ptr %1, align 8, !noalias !283
  %2 = getelementptr inbounds nuw i8, ptr %_x.i.i.i.i, i64 64
  store i64 %self1.sroa.5.0.copyload.sink.i.i.i.i, ptr %2, align 8, !noalias !283
  call void @llvm.lifetime.start.p0(i64 24, ptr nonnull %_2.i.i.i.i.i.i), !noalias !284
; call <alloc::collections::btree::map::IntoIter<console::utils::Attribute, alloc::collections::btree::set_val::SetValZST>>::dying_next
  call fastcc void @_RNvMsz_NtNtNtCsdJPVW0sQgAG_5alloc11collections5btree3mapINtB5_8IntoIterNtNtCsC3JuwEIQwb_7console5utils9AttributeNtNtB7_7set_val9SetValZSTE10dying_nextCslbzLHi4tcfW_9indicatif(ptr noalias noundef align 8 captures(none) dereferenceable(24) %_2.i.i.i.i.i.i, ptr noalias noundef nonnull align 8 dereferenceable(72) %_x.i.i.i.i), !noalias !283
  %3 = load ptr, ptr %_2.i.i.i.i.i.i, align 8, !noalias !284, !noundef !13
  %.not1.i.i.i.i.i.i = icmp eq ptr %3, null
  br i1 %.not1.i.i.i.i.i.i, label %_RINvNtCsjMrxcFdYDNN_4core3ptr13drop_in_placeNtNtCsC3JuwEIQwb_7console5utils5StyleECslbzLHi4tcfW_9indicatif.exit, label %bb4.i.i.i.i.i.i

bb4.i.i.i.i.i.i:                                  ; preds = %bb3.i.i.i.i, %bb4.i.i.i.i.i.i
  call void @llvm.lifetime.end.p0(i64 24, ptr nonnull %_2.i.i.i.i.i.i), !noalias !284
  call void @llvm.lifetime.start.p0(i64 24, ptr nonnull %_2.i.i.i.i.i.i), !noalias !284
; call <alloc::collections::btree::map::IntoIter<console::utils::Attribute, alloc::collections::btree::set_val::SetValZST>>::dying_next
  call fastcc void @_RNvMsz_NtNtNtCsdJPVW0sQgAG_5alloc11collections5btree3mapINtB5_8IntoIterNtNtCsC3JuwEIQwb_7console5utils9AttributeNtNtB7_7set_val9SetValZSTE10dying_nextCslbzLHi4tcfW_9indicatif(ptr noalias noundef align 8 captures(none) dereferenceable(24) %_2.i.i.i.i.i.i, ptr noalias noundef nonnull align 8 dereferenceable(72) %_x.i.i.i.i), !noalias !283
  %4 = load ptr, ptr %_2.i.i.i.i.i.i, align 8, !noalias !284, !noundef !13
  %.not.i.i.i.i.i.i = icmp eq ptr %4, null
  br i1 %.not.i.i.i.i.i.i, label %_RINvNtCsjMrxcFdYDNN_4core3ptr13drop_in_placeNtNtCsC3JuwEIQwb_7console5utils5StyleECslbzLHi4tcfW_9indicatif.exit, label %bb4.i.i.i.i.i.i

_RINvNtCsjMrxcFdYDNN_4core3ptr13drop_in_placeNtNtCsC3JuwEIQwb_7console5utils5StyleECslbzLHi4tcfW_9indicatif.exit: ; preds = %bb4.i.i.i.i.i.i, %bb3.i.i.i.i
  call void @llvm.lifetime.end.p0(i64 24, ptr nonnull %_2.i.i.i.i.i.i), !noalias !284
  call void @llvm.lifetime.end.p0(i64 72, ptr nonnull %_x.i.i.i.i), !noalias !283
  ret void
}

; core::ptr::drop_in_place::<console::utils::StyledObject<&alloc::string::String>>
; Function Attrs: uwtable
define internal fastcc void @_RINvNtCsjMrxcFdYDNN_4core3ptr13drop_in_placeINtNtCsC3JuwEIQwb_7console5utils12StyledObjectRNtNtCsdJPVW0sQgAG_5alloc6string6StringEECslbzLHi4tcfW_9indicatif(ptr noalias noundef nonnull readonly align 8 captures(none) dereferenceable(40) %_1) unnamed_addr #3 personality ptr @rust_eh_personality {
start:
  %_2.i.i.i.i.i.i = alloca [24 x i8], align 8
  %_x.i.i.i.i = alloca [72 x i8], align 8
  %0 = getelementptr inbounds nuw i8, ptr %_1, i64 8
  tail call void @llvm.experimental.noalias.scope.decl(metadata !289)
  tail call void @llvm.experimental.noalias.scope.decl(metadata !292)
  tail call void @llvm.experimental.noalias.scope.decl(metadata !295)
  tail call void @llvm.experimental.noalias.scope.decl(metadata !298)
  call void @llvm.lifetime.start.p0(i64 72, ptr nonnull %_x.i.i.i.i), !noalias !301
  %self1.sroa.0.0.copyload.i.i.i.i = load ptr, ptr %0, align 8, !alias.scope !301
  %.not.i.i.i.i = icmp eq ptr %self1.sroa.0.0.copyload.i.i.i.i, null
  br i1 %.not.i.i.i.i, label %bb3.i.i.i.i, label %bb1.i.i.i.i

bb1.i.i.i.i:                                      ; preds = %start
  %self1.sroa.5.0.self.sroa_idx.i.i.i.i = getelementptr inbounds nuw i8, ptr %_1, i64 24
  %self1.sroa.5.0.copyload.i.i.i.i = load i64, ptr %self1.sroa.5.0.self.sroa_idx.i.i.i.i, align 8, !alias.scope !301
  %self1.sroa.4.0.self.sroa_idx.i.i.i.i = getelementptr inbounds nuw i8, ptr %_1, i64 16
  %self1.sroa.4.0.copyload.i.i.i.i = load i64, ptr %self1.sroa.4.0.self.sroa_idx.i.i.i.i, align 8, !alias.scope !301
  %full_range.sroa.4.0._x.sroa_idx.i.i.i.i = getelementptr inbounds nuw i8, ptr %_x.i.i.i.i, i64 8
  store ptr null, ptr %full_range.sroa.4.0._x.sroa_idx.i.i.i.i, align 8, !noalias !301
  %full_range.sroa.4.sroa.4.0.full_range.sroa.4.0._x.sroa_idx.sroa_idx.i.i.i.i = getelementptr inbounds nuw i8, ptr %_x.i.i.i.i, i64 16
  store ptr %self1.sroa.0.0.copyload.i.i.i.i, ptr %full_range.sroa.4.sroa.4.0.full_range.sroa.4.0._x.sroa_idx.sroa_idx.i.i.i.i, align 8, !noalias !301
  %full_range.sroa.4.sroa.5.0.full_range.sroa.4.0._x.sroa_idx.sroa_idx.i.i.i.i = getelementptr inbounds nuw i8, ptr %_x.i.i.i.i, i64 24
  store i64 %self1.sroa.4.0.copyload.i.i.i.i, ptr %full_range.sroa.4.sroa.5.0.full_range.sroa.4.0._x.sroa_idx.sroa_idx.i.i.i.i, align 8, !noalias !301
  %full_range.sroa.6.0._x.sroa_idx.i.i.i.i = getelementptr inbounds nuw i8, ptr %_x.i.i.i.i, i64 40
  store ptr null, ptr %full_range.sroa.6.0._x.sroa_idx.i.i.i.i, align 8, !noalias !301
  %full_range.sroa.6.sroa.4.0.full_range.sroa.6.0._x.sroa_idx.sroa_idx.i.i.i.i = getelementptr inbounds nuw i8, ptr %_x.i.i.i.i, i64 48
  store ptr %self1.sroa.0.0.copyload.i.i.i.i, ptr %full_range.sroa.6.sroa.4.0.full_range.sroa.6.0._x.sroa_idx.sroa_idx.i.i.i.i, align 8, !noalias !301
  %full_range.sroa.6.sroa.5.0.full_range.sroa.6.0._x.sroa_idx.sroa_idx.i.i.i.i = getelementptr inbounds nuw i8, ptr %_x.i.i.i.i, i64 56
  store i64 %self1.sroa.4.0.copyload.i.i.i.i, ptr %full_range.sroa.6.sroa.5.0.full_range.sroa.6.0._x.sroa_idx.sroa_idx.i.i.i.i, align 8, !noalias !301
  br label %bb3.i.i.i.i

bb3.i.i.i.i:                                      ; preds = %bb1.i.i.i.i, %start
  %.sink9.i.i.i.i = phi i64 [ 1, %bb1.i.i.i.i ], [ 0, %start ]
  %self1.sroa.5.0.copyload.sink.i.i.i.i = phi i64 [ %self1.sroa.5.0.copyload.i.i.i.i, %bb1.i.i.i.i ], [ 0, %start ]
  store i64 %.sink9.i.i.i.i, ptr %_x.i.i.i.i, align 8, !noalias !301
  %1 = getelementptr inbounds nuw i8, ptr %_x.i.i.i.i, i64 32
  store i64 %.sink9.i.i.i.i, ptr %1, align 8, !noalias !301
  %2 = getelementptr inbounds nuw i8, ptr %_x.i.i.i.i, i64 64
  store i64 %self1.sroa.5.0.copyload.sink.i.i.i.i, ptr %2, align 8, !noalias !301
  call void @llvm.lifetime.start.p0(i64 24, ptr nonnull %_2.i.i.i.i.i.i), !noalias !302
; call <alloc::collections::btree::map::IntoIter<console::utils::Attribute, alloc::collections::btree::set_val::SetValZST>>::dying_next
  call fastcc void @_RNvMsz_NtNtNtCsdJPVW0sQgAG_5alloc11collections5btree3mapINtB5_8IntoIterNtNtCsC3JuwEIQwb_7console5utils9AttributeNtNtB7_7set_val9SetValZSTE10dying_nextCslbzLHi4tcfW_9indicatif(ptr noalias noundef align 8 captures(none) dereferenceable(24) %_2.i.i.i.i.i.i, ptr noalias noundef nonnull align 8 dereferenceable(72) %_x.i.i.i.i), !noalias !301
  %3 = load ptr, ptr %_2.i.i.i.i.i.i, align 8, !noalias !302, !noundef !13
  %.not1.i.i.i.i.i.i = icmp eq ptr %3, null
  br i1 %.not1.i.i.i.i.i.i, label %_RINvNtCsjMrxcFdYDNN_4core3ptr13drop_in_placeNtNtCsC3JuwEIQwb_7console5utils5StyleECslbzLHi4tcfW_9indicatif.exit, label %bb4.i.i.i.i.i.i

bb4.i.i.i.i.i.i:                                  ; preds = %bb3.i.i.i.i, %bb4.i.i.i.i.i.i
  call void @llvm.lifetime.end.p0(i64 24, ptr nonnull %_2.i.i.i.i.i.i), !noalias !302
  call void @llvm.lifetime.start.p0(i64 24, ptr nonnull %_2.i.i.i.i.i.i), !noalias !302
; call <alloc::collections::btree::map::IntoIter<console::utils::Attribute, alloc::collections::btree::set_val::SetValZST>>::dying_next
  call fastcc void @_RNvMsz_NtNtNtCsdJPVW0sQgAG_5alloc11collections5btree3mapINtB5_8IntoIterNtNtCsC3JuwEIQwb_7console5utils9AttributeNtNtB7_7set_val9SetValZSTE10dying_nextCslbzLHi4tcfW_9indicatif(ptr noalias noundef align 8 captures(none) dereferenceable(24) %_2.i.i.i.i.i.i, ptr noalias noundef nonnull align 8 dereferenceable(72) %_x.i.i.i.i), !noalias !301
  %4 = load ptr, ptr %_2.i.i.i.i.i.i, align 8, !noalias !302, !noundef !13
  %.not.i.i.i.i.i.i = icmp eq ptr %4, null
  br i1 %.not.i.i.i.i.i.i, label %_RINvNtCsjMrxcFdYDNN_4core3ptr13drop_in_placeNtNtCsC3JuwEIQwb_7console5utils5StyleECslbzLHi4tcfW_9indicatif.exit, label %bb4.i.i.i.i.i.i

_RINvNtCsjMrxcFdYDNN_4core3ptr13drop_in_placeNtNtCsC3JuwEIQwb_7console5utils5StyleECslbzLHi4tcfW_9indicatif.exit: ; preds = %bb4.i.i.i.i.i.i, %bb3.i.i.i.i
  call void @llvm.lifetime.end.p0(i64 24, ptr nonnull %_2.i.i.i.i.i.i), !noalias !302
  call void @llvm.lifetime.end.p0(i64 72, ptr nonnull %_x.i.i.i.i), !noalias !301
  ret void
}

; core::ptr::drop_in_place::<alloc::vec::Vec<alloc::boxed::Box<dyn core::ops::function::FnOnce<(), Output = ()> + core::marker::Send>>>
; Function Attrs: uwtable
define internal fastcc void @_RINvNtCsjMrxcFdYDNN_4core3ptr13drop_in_placeINtNtCsdJPVW0sQgAG_5alloc3vec3VecINtNtBL_5boxed3BoxDINtNtNtB4_3ops8function6FnOnceuEp6OutputuNtNtB4_6marker4SendEL_EEECslbzLHi4tcfW_9indicatif(ptr noalias noundef nonnull readonly align 8 captures(none) dereferenceable(24) %_1) unnamed_addr #3 personality ptr @rust_eh_personality {
start:
  %0 = getelementptr inbounds nuw i8, ptr %_1, i64 8
  %_1.val = load ptr, ptr %0, align 8, !nonnull !13, !noundef !13
  %1 = getelementptr inbounds nuw i8, ptr %_1, i64 16
  %_1.val1 = load i64, ptr %1, align 8, !noundef !13
  tail call void @llvm.experimental.noalias.scope.decl(metadata !307)
  %_78.i.i = icmp eq i64 %_1.val1, 0
  br i1 %_78.i.i, label %bb4, label %bb5.i.i

bb5.i.i:                                          ; preds = %start, %_RINvNtCsjMrxcFdYDNN_4core3ptr13drop_in_placeINtNtCsdJPVW0sQgAG_5alloc5boxed3BoxDINtNtNtB4_3ops8function6FnOnceuEp6OutputuNtNtB4_6marker4SendEL_EECslbzLHi4tcfW_9indicatif.exit.i.i
  %_3.sroa.0.09.i.i = phi i64 [ %2, %_RINvNtCsjMrxcFdYDNN_4core3ptr13drop_in_placeINtNtCsdJPVW0sQgAG_5alloc5boxed3BoxDINtNtNtB4_3ops8function6FnOnceuEp6OutputuNtNtB4_6marker4SendEL_EECslbzLHi4tcfW_9indicatif.exit.i.i ], [ 0, %start ]
  %_6.i.i = getelementptr inbounds nuw %"alloc::boxed::Box<dyn core::ops::function::FnOnce() + core::marker::Send>", ptr %_1.val, i64 %_3.sroa.0.09.i.i
  %2 = add nuw i64 %_3.sroa.0.09.i.i, 1
  %_6.val.i.i = load ptr, ptr %_6.i.i, align 8, !alias.scope !307
  %3 = getelementptr i8, ptr %_6.i.i, i64 8
  %_6.val7.i.i = load ptr, ptr %3, align 8, !alias.scope !307, !nonnull !13, !align !310, !noundef !13
  %4 = load ptr, ptr %_6.val7.i.i, align 8, !invariant.load !13, !noalias !307
  %.not.i.i.i = icmp eq ptr %4, null
  br i1 %.not.i.i.i, label %bb3.i.i.i, label %is_not_null.i.i.i

is_not_null.i.i.i:                                ; preds = %bb5.i.i
  %5 = icmp ne ptr %_6.val.i.i, null
  tail call void @llvm.assume(i1 %5)
  invoke void %4(ptr noundef nonnull %_6.val.i.i)
          to label %bb3.i.i.i unwind label %cleanup.i.i.i, !noalias !307

bb3.i.i.i:                                        ; preds = %is_not_null.i.i.i, %bb5.i.i
  %6 = icmp ne ptr %_6.val.i.i, null
  tail call void @llvm.assume(i1 %6)
  %7 = getelementptr inbounds nuw i8, ptr %_6.val7.i.i, i64 8
  %8 = load i64, ptr %7, align 8, !range !59, !invariant.load !13, !noalias !307
  %9 = getelementptr inbounds nuw i8, ptr %_6.val7.i.i, i64 16
  %10 = load i64, ptr %9, align 8, !range !79, !invariant.load !13, !noalias !307
  %11 = add i64 %10, -1
  %12 = icmp sgt i64 %11, -1
  tail call void @llvm.assume(i1 %12)
  %13 = icmp eq i64 %8, 0
  br i1 %13, label %_RINvNtCsjMrxcFdYDNN_4core3ptr13drop_in_placeINtNtCsdJPVW0sQgAG_5alloc5boxed3BoxDINtNtNtB4_3ops8function6FnOnceuEp6OutputuNtNtB4_6marker4SendEL_EECslbzLHi4tcfW_9indicatif.exit.i.i, label %_RNvXs_NtCsdJPVW0sQgAG_5alloc5allocNtB4_6GlobalNtNtCsjMrxcFdYDNN_4core5alloc9Allocator10deallocate.exit.i.i.i.i

_RNvXs_NtCsdJPVW0sQgAG_5alloc5allocNtB4_6GlobalNtNtCsjMrxcFdYDNN_4core5alloc9Allocator10deallocate.exit.i.i.i.i: ; preds = %bb3.i.i.i
; call __rustc::__rust_dealloc
  tail call void @_RNvCsKhRCbHf33p_7___rustc14___rust_dealloc(ptr noundef nonnull %_6.val.i.i, i64 noundef %8, i64 noundef range(i64 1, -9223372036854775807) %10) #30, !noalias !307
  br label %_RINvNtCsjMrxcFdYDNN_4core3ptr13drop_in_placeINtNtCsdJPVW0sQgAG_5alloc5boxed3BoxDINtNtNtB4_3ops8function6FnOnceuEp6OutputuNtNtB4_6marker4SendEL_EECslbzLHi4tcfW_9indicatif.exit.i.i

cleanup.i.i.i:                                    ; preds = %is_not_null.i.i.i
  %14 = landingpad { ptr, i32 }
          cleanup
  %15 = getelementptr inbounds nuw i8, ptr %_6.val7.i.i, i64 8
  %16 = load i64, ptr %15, align 8, !range !59, !invariant.load !13, !noalias !307
  %17 = getelementptr inbounds nuw i8, ptr %_6.val7.i.i, i64 16
  %18 = load i64, ptr %17, align 8, !range !79, !invariant.load !13, !noalias !307
  %19 = add i64 %18, -1
  %20 = icmp sgt i64 %19, -1
  tail call void @llvm.assume(i1 %20)
  %21 = icmp eq i64 %16, 0
  br i1 %21, label %bb4.i.i.preheader, label %_RNvXs_NtCsdJPVW0sQgAG_5alloc5allocNtB4_6GlobalNtNtCsjMrxcFdYDNN_4core5alloc9Allocator10deallocate.exit.i4.i.i.i

bb4.i.i.preheader:                                ; preds = %_RNvXs_NtCsdJPVW0sQgAG_5alloc5allocNtB4_6GlobalNtNtCsjMrxcFdYDNN_4core5alloc9Allocator10deallocate.exit.i4.i.i.i, %cleanup.i.i.i
  br label %bb4.i.i

_RNvXs_NtCsdJPVW0sQgAG_5alloc5allocNtB4_6GlobalNtNtCsjMrxcFdYDNN_4core5alloc9Allocator10deallocate.exit.i4.i.i.i: ; preds = %cleanup.i.i.i
; call __rustc::__rust_dealloc
  tail call void @_RNvCsKhRCbHf33p_7___rustc14___rust_dealloc(ptr noundef nonnull %_6.val.i.i, i64 noundef %16, i64 noundef range(i64 1, -9223372036854775807) %18) #30, !noalias !307
  br label %bb4.i.i.preheader

_RINvNtCsjMrxcFdYDNN_4core3ptr13drop_in_placeINtNtCsdJPVW0sQgAG_5alloc5boxed3BoxDINtNtNtB4_3ops8function6FnOnceuEp6OutputuNtNtB4_6marker4SendEL_EECslbzLHi4tcfW_9indicatif.exit.i.i: ; preds = %_RNvXs_NtCsdJPVW0sQgAG_5alloc5allocNtB4_6GlobalNtNtCsjMrxcFdYDNN_4core5alloc9Allocator10deallocate.exit.i.i.i.i, %bb3.i.i.i
  %_7.i.i = icmp eq i64 %2, %_1.val1
  br i1 %_7.i.i, label %bb4, label %bb5.i.i

bb4.i.i:                                          ; preds = %bb4.i.i.preheader, %bb3.i.i
  %_3.sroa.0.1.i.i = phi i64 [ %22, %bb3.i.i ], [ %2, %bb4.i.i.preheader ]
  %_5.i.i = icmp eq i64 %_3.sroa.0.1.i.i, %_1.val1
  br i1 %_5.i.i, label %cleanup.body, label %bb3.i.i

bb3.i.i:                                          ; preds = %bb4.i.i
  %_4.i.i = getelementptr inbounds nuw %"alloc::boxed::Box<dyn core::ops::function::FnOnce() + core::marker::Send>", ptr %_1.val, i64 %_3.sroa.0.1.i.i
  %22 = add i64 %_3.sroa.0.1.i.i, 1
  %_4.val.i.i = load ptr, ptr %_4.i.i, align 8, !alias.scope !307
  %23 = getelementptr i8, ptr %_4.i.i, i64 8
  %_4.val6.i.i = load ptr, ptr %23, align 8, !alias.scope !307, !nonnull !13, !align !310, !noundef !13
; invoke core::ptr::drop_in_place::<alloc::boxed::Box<dyn core::ops::function::FnOnce<(), Output = ()> + core::marker::Send>>
  invoke fastcc void @_RINvNtCsjMrxcFdYDNN_4core3ptr13drop_in_placeINtNtCsdJPVW0sQgAG_5alloc5boxed3BoxDINtNtNtB4_3ops8function6FnOnceuEp6OutputuNtNtB4_6marker4SendEL_EECslbzLHi4tcfW_9indicatif(ptr %_4.val.i.i, ptr nonnull %_4.val6.i.i) #33
          to label %bb4.i.i unwind label %terminate.i.i, !noalias !307

terminate.i.i:                                    ; preds = %bb3.i.i
  %24 = landingpad { ptr, i32 }
          filter [0 x ptr] zeroinitializer
; call core::panicking::panic_in_cleanup
  tail call void @_RNvNtCsjMrxcFdYDNN_4core9panicking16panic_in_cleanup() #32, !noalias !307
  unreachable

cleanup.body:                                     ; preds = %bb4.i.i
  %_1.val2 = load i64, ptr %_1, align 8, !range !59, !noundef !13
  %25 = icmp eq i64 %_1.val2, 0
  br i1 %25, label %bb1, label %bb2.i.i.i

bb2.i.i.i:                                        ; preds = %cleanup.body
  %alloc_size.i.i.i.i = shl nuw i64 %_1.val2, 4
; call __rustc::__rust_dealloc
  tail call void @_RNvCsKhRCbHf33p_7___rustc14___rust_dealloc(ptr noundef nonnull %_1.val, i64 noundef %alloc_size.i.i.i.i, i64 noundef range(i64 1, -9223372036854775807) 8) #30
  br label %bb1

bb4:                                              ; preds = %_RINvNtCsjMrxcFdYDNN_4core3ptr13drop_in_placeINtNtCsdJPVW0sQgAG_5alloc5boxed3BoxDINtNtNtB4_3ops8function6FnOnceuEp6OutputuNtNtB4_6marker4SendEL_EECslbzLHi4tcfW_9indicatif.exit.i.i, %start
  %_1.val4 = load i64, ptr %_1, align 8, !range !59, !noundef !13
  %26 = icmp eq i64 %_1.val4, 0
  br i1 %26, label %_RINvNtCsjMrxcFdYDNN_4core3ptr13drop_in_placeINtNtCsdJPVW0sQgAG_5alloc7raw_vec6RawVecINtNtBL_5boxed3BoxDINtNtNtB4_3ops8function6FnOnceuEp6OutputuNtNtB4_6marker4SendEL_EEECslbzLHi4tcfW_9indicatif.exit8, label %bb2.i.i.i6

bb2.i.i.i6:                                       ; preds = %bb4
  %alloc_size.i.i.i.i7 = shl nuw i64 %_1.val4, 4
; call __rustc::__rust_dealloc
  tail call void @_RNvCsKhRCbHf33p_7___rustc14___rust_dealloc(ptr noundef nonnull %_1.val, i64 noundef %alloc_size.i.i.i.i7, i64 noundef range(i64 1, -9223372036854775807) 8) #30
  br label %_RINvNtCsjMrxcFdYDNN_4core3ptr13drop_in_placeINtNtCsdJPVW0sQgAG_5alloc7raw_vec6RawVecINtNtBL_5boxed3BoxDINtNtNtB4_3ops8function6FnOnceuEp6OutputuNtNtB4_6marker4SendEL_EEECslbzLHi4tcfW_9indicatif.exit8

_RINvNtCsjMrxcFdYDNN_4core3ptr13drop_in_placeINtNtCsdJPVW0sQgAG_5alloc7raw_vec6RawVecINtNtBL_5boxed3BoxDINtNtNtB4_3ops8function6FnOnceuEp6OutputuNtNtB4_6marker4SendEL_EEECslbzLHi4tcfW_9indicatif.exit8: ; preds = %bb4, %bb2.i.i.i6
  ret void

bb1:                                              ; preds = %bb2.i.i.i, %cleanup.body
  resume { ptr, i32 } %14
}

; core::ptr::drop_in_place::<alloc::vec::Vec<alloc::boxed::Box<str>>>
; Function Attrs: nounwind uwtable
define internal fastcc void @_RINvNtCsjMrxcFdYDNN_4core3ptr13drop_in_placeINtNtCsdJPVW0sQgAG_5alloc3vec3VecINtNtBL_5boxed3BoxeEEECslbzLHi4tcfW_9indicatif(ptr noalias noundef nonnull readonly align 8 captures(none) dereferenceable(24) %_1) unnamed_addr #4 personality ptr @rust_eh_personality {
start:
  %0 = getelementptr inbounds nuw i8, ptr %_1, i64 8
  %_1.val = load ptr, ptr %0, align 8, !nonnull !13, !noundef !13
  %1 = getelementptr inbounds nuw i8, ptr %_1, i64 16
  %_1.val1 = load i64, ptr %1, align 8, !noundef !13
  tail call void @llvm.experimental.noalias.scope.decl(metadata !311)
  %_710.i.i = icmp eq i64 %_1.val1, 0
  br i1 %_710.i.i, label %bb4, label %bb5.i.i

bb5.i.i:                                          ; preds = %start, %_RINvNtCsjMrxcFdYDNN_4core3ptr13drop_in_placeINtNtCsdJPVW0sQgAG_5alloc5boxed3BoxeEECslbzLHi4tcfW_9indicatif.exit.i.i
  %_3.sroa.0.011.i.i = phi i64 [ %2, %_RINvNtCsjMrxcFdYDNN_4core3ptr13drop_in_placeINtNtCsdJPVW0sQgAG_5alloc5boxed3BoxeEECslbzLHi4tcfW_9indicatif.exit.i.i ], [ 0, %start ]
  %_6.i.i = getelementptr inbounds nuw %"alloc::boxed::Box<str>", ptr %_1.val, i64 %_3.sroa.0.011.i.i
  %2 = add nuw i64 %_3.sroa.0.011.i.i, 1
  %3 = getelementptr i8, ptr %_6.i.i, i64 8
  %_6.val7.i.i = load i64, ptr %3, align 8, !alias.scope !311, !noundef !13
  %4 = icmp eq i64 %_6.val7.i.i, 0
  br i1 %4, label %_RINvNtCsjMrxcFdYDNN_4core3ptr13drop_in_placeINtNtCsdJPVW0sQgAG_5alloc5boxed3BoxeEECslbzLHi4tcfW_9indicatif.exit.i.i, label %_RNvXs_NtCsdJPVW0sQgAG_5alloc5allocNtB4_6GlobalNtNtCsjMrxcFdYDNN_4core5alloc9Allocator10deallocate.exit.i.i.i.i

_RNvXs_NtCsdJPVW0sQgAG_5alloc5allocNtB4_6GlobalNtNtCsjMrxcFdYDNN_4core5alloc9Allocator10deallocate.exit.i.i.i.i: ; preds = %bb5.i.i
  %_6.val.i.i = load ptr, ptr %_6.i.i, align 8, !alias.scope !311, !nonnull !13, !noundef !13
; call __rustc::__rust_dealloc
  tail call void @_RNvCsKhRCbHf33p_7___rustc14___rust_dealloc(ptr noundef nonnull %_6.val.i.i, i64 noundef %_6.val7.i.i, i64 noundef 1) #30, !noalias !311
  br label %_RINvNtCsjMrxcFdYDNN_4core3ptr13drop_in_placeINtNtCsdJPVW0sQgAG_5alloc5boxed3BoxeEECslbzLHi4tcfW_9indicatif.exit.i.i

_RINvNtCsjMrxcFdYDNN_4core3ptr13drop_in_placeINtNtCsdJPVW0sQgAG_5alloc5boxed3BoxeEECslbzLHi4tcfW_9indicatif.exit.i.i: ; preds = %_RNvXs_NtCsdJPVW0sQgAG_5alloc5allocNtB4_6GlobalNtNtCsjMrxcFdYDNN_4core5alloc9Allocator10deallocate.exit.i.i.i.i, %bb5.i.i
  %_7.i.i = icmp eq i64 %2, %_1.val1
  br i1 %_7.i.i, label %bb4, label %bb5.i.i

bb4:                                              ; preds = %_RINvNtCsjMrxcFdYDNN_4core3ptr13drop_in_placeINtNtCsdJPVW0sQgAG_5alloc5boxed3BoxeEECslbzLHi4tcfW_9indicatif.exit.i.i, %start
  %_1.val4 = load i64, ptr %_1, align 8, !range !59, !noundef !13
  %5 = icmp eq i64 %_1.val4, 0
  br i1 %5, label %_RINvNtCsjMrxcFdYDNN_4core3ptr13drop_in_placeINtNtCsdJPVW0sQgAG_5alloc7raw_vec6RawVecINtNtBL_5boxed3BoxeEEECslbzLHi4tcfW_9indicatif.exit8, label %bb2.i.i.i6

bb2.i.i.i6:                                       ; preds = %bb4
  %alloc_size.i.i.i.i7 = shl nuw i64 %_1.val4, 4
; call __rustc::__rust_dealloc
  tail call void @_RNvCsKhRCbHf33p_7___rustc14___rust_dealloc(ptr noundef nonnull %_1.val, i64 noundef %alloc_size.i.i.i.i7, i64 noundef range(i64 1, -9223372036854775807) 8) #30
  br label %_RINvNtCsjMrxcFdYDNN_4core3ptr13drop_in_placeINtNtCsdJPVW0sQgAG_5alloc7raw_vec6RawVecINtNtBL_5boxed3BoxeEEECslbzLHi4tcfW_9indicatif.exit8

_RINvNtCsjMrxcFdYDNN_4core3ptr13drop_in_placeINtNtCsdJPVW0sQgAG_5alloc7raw_vec6RawVecINtNtBL_5boxed3BoxeEEECslbzLHi4tcfW_9indicatif.exit8: ; preds = %bb4, %bb2.i.i.i6
  ret void
}

; core::ptr::drop_in_place::<alloc::vec::Vec<indicatif::draw_target::LineType>>
; Function Attrs: nounwind uwtable
define internal void @_RINvNtCsjMrxcFdYDNN_4core3ptr13drop_in_placeINtNtCsdJPVW0sQgAG_5alloc3vec3VecNtNtCslbzLHi4tcfW_9indicatif11draw_target8LineTypeEEB1h_(ptr noalias noundef readonly align 8 captures(none) dereferenceable(24) %_1) unnamed_addr #4 personality ptr @rust_eh_personality {
start:
  %0 = getelementptr inbounds nuw i8, ptr %_1, i64 8
  %_1.val = load ptr, ptr %0, align 8, !nonnull !13, !noundef !13
  %1 = getelementptr inbounds nuw i8, ptr %_1, i64 16
  %_1.val1 = load i64, ptr %1, align 8, !noundef !13
  tail call void @llvm.experimental.noalias.scope.decl(metadata !314)
  %_76.i.i = icmp eq i64 %_1.val1, 0
  br i1 %_76.i.i, label %bb4, label %bb5.i.i

bb5.i.i:                                          ; preds = %start, %_RINvNtCsjMrxcFdYDNN_4core3ptr13drop_in_placeNtNtCslbzLHi4tcfW_9indicatif11draw_target8LineTypeEBK_.exit.i.i
  %_3.sroa.0.07.i.i = phi i64 [ %2, %_RINvNtCsjMrxcFdYDNN_4core3ptr13drop_in_placeNtNtCslbzLHi4tcfW_9indicatif11draw_target8LineTypeEBK_.exit.i.i ], [ 0, %start ]
  %_6.i.i = getelementptr inbounds nuw %"draw_target::LineType", ptr %_1.val, i64 %_3.sroa.0.07.i.i
  %2 = add nuw i64 %_3.sroa.0.07.i.i, 1
  tail call void @llvm.experimental.noalias.scope.decl(metadata !317)
  %_2.i.i.i = load i64, ptr %_6.i.i, align 8, !range !110, !alias.scope !320, !noundef !13
  switch i64 %_2.i.i.i, label %_RINvNtCsjMrxcFdYDNN_4core3ptr13drop_in_placeNtNtCslbzLHi4tcfW_9indicatif11draw_target8LineTypeEBK_.exit.i.i [
    i64 0, label %bb2.i.i.i
    i64 1, label %bb3.i.i.i
  ]

bb1.sink.split.i.i.i:                             ; preds = %bb3.i.i.i, %bb2.i.i.i
  %_1.val.i1.sink.i.i.i = phi i64 [ %_1.val.i.i.i.i, %bb2.i.i.i ], [ %_1.val.i1.i.i.i, %bb3.i.i.i ]
  %3 = getelementptr inbounds nuw i8, ptr %_6.i.i, i64 16
  %_1.val1.i3.i.i.i = load ptr, ptr %3, align 8, !alias.scope !320, !nonnull !13, !noundef !13
; call __rustc::__rust_dealloc
  tail call void @_RNvCsKhRCbHf33p_7___rustc14___rust_dealloc(ptr noundef nonnull %_1.val1.i3.i.i.i, i64 noundef %_1.val.i1.sink.i.i.i, i64 noundef range(i64 1, -9223372036854775807) 1) #30, !noalias !320
  br label %_RINvNtCsjMrxcFdYDNN_4core3ptr13drop_in_placeNtNtCslbzLHi4tcfW_9indicatif11draw_target8LineTypeEBK_.exit.i.i

bb2.i.i.i:                                        ; preds = %bb5.i.i
  %4 = getelementptr inbounds nuw i8, ptr %_6.i.i, i64 8
  %_1.val.i.i.i.i = load i64, ptr %4, align 8, !alias.scope !321
  %5 = icmp eq i64 %_1.val.i.i.i.i, 0
  br i1 %5, label %_RINvNtCsjMrxcFdYDNN_4core3ptr13drop_in_placeNtNtCslbzLHi4tcfW_9indicatif11draw_target8LineTypeEBK_.exit.i.i, label %bb1.sink.split.i.i.i

bb3.i.i.i:                                        ; preds = %bb5.i.i
  %6 = getelementptr inbounds nuw i8, ptr %_6.i.i, i64 8
  %_1.val.i1.i.i.i = load i64, ptr %6, align 8, !alias.scope !324
  %7 = icmp eq i64 %_1.val.i1.i.i.i, 0
  br i1 %7, label %_RINvNtCsjMrxcFdYDNN_4core3ptr13drop_in_placeNtNtCslbzLHi4tcfW_9indicatif11draw_target8LineTypeEBK_.exit.i.i, label %bb1.sink.split.i.i.i

_RINvNtCsjMrxcFdYDNN_4core3ptr13drop_in_placeNtNtCslbzLHi4tcfW_9indicatif11draw_target8LineTypeEBK_.exit.i.i: ; preds = %bb3.i.i.i, %bb2.i.i.i, %bb1.sink.split.i.i.i, %bb5.i.i
  %_7.i.i = icmp eq i64 %2, %_1.val1
  br i1 %_7.i.i, label %bb4, label %bb5.i.i

bb4:                                              ; preds = %_RINvNtCsjMrxcFdYDNN_4core3ptr13drop_in_placeNtNtCslbzLHi4tcfW_9indicatif11draw_target8LineTypeEBK_.exit.i.i, %start
  %_1.val4 = load i64, ptr %_1, align 8, !range !59, !noundef !13
  %8 = icmp eq i64 %_1.val4, 0
  br i1 %8, label %_RINvNtCsjMrxcFdYDNN_4core3ptr13drop_in_placeINtNtCsdJPVW0sQgAG_5alloc7raw_vec6RawVecNtNtCslbzLHi4tcfW_9indicatif11draw_target8LineTypeEEB1o_.exit9, label %bb2.i.i.i7

bb2.i.i.i7:                                       ; preds = %bb4
  %alloc_size.i.i.i.i8 = shl nuw i64 %_1.val4, 5
; call __rustc::__rust_dealloc
  tail call void @_RNvCsKhRCbHf33p_7___rustc14___rust_dealloc(ptr noundef nonnull %_1.val, i64 noundef %alloc_size.i.i.i.i8, i64 noundef range(i64 1, -9223372036854775807) 8) #30
  br label %_RINvNtCsjMrxcFdYDNN_4core3ptr13drop_in_placeINtNtCsdJPVW0sQgAG_5alloc7raw_vec6RawVecNtNtCslbzLHi4tcfW_9indicatif11draw_target8LineTypeEEB1o_.exit9

_RINvNtCsjMrxcFdYDNN_4core3ptr13drop_in_placeINtNtCsdJPVW0sQgAG_5alloc7raw_vec6RawVecNtNtCslbzLHi4tcfW_9indicatif11draw_target8LineTypeEEB1o_.exit9: ; preds = %bb4, %bb2.i.i.i7
  ret void
}

; core::ptr::drop_in_place::<alloc::vec::Vec<indicatif::style::TemplatePart>>
; Function Attrs: uwtable
define internal fastcc void @_RINvNtCsjMrxcFdYDNN_4core3ptr13drop_in_placeINtNtCsdJPVW0sQgAG_5alloc3vec3VecNtNtCslbzLHi4tcfW_9indicatif5style12TemplatePartEEB1h_(ptr noalias noundef nonnull readonly align 8 captures(none) dereferenceable(24) %_1) unnamed_addr #3 personality ptr @rust_eh_personality {
start:
  %0 = getelementptr inbounds nuw i8, ptr %_1, i64 8
  %_1.val = load ptr, ptr %0, align 8, !nonnull !13, !noundef !13
  %1 = getelementptr inbounds nuw i8, ptr %_1, i64 16
  %_1.val1 = load i64, ptr %1, align 8, !noundef !13
  br label %bb6.i.i

bb6.i.i:                                          ; preds = %bb5.i.i, %start
  %_3.sroa.0.0.i.i = phi i64 [ 0, %start ], [ %2, %bb5.i.i ]
  %_7.i.i = icmp eq i64 %_3.sroa.0.0.i.i, %_1.val1
  br i1 %_7.i.i, label %bb4, label %bb5.i.i

bb5.i.i:                                          ; preds = %bb6.i.i
  %_6.i.i = getelementptr inbounds nuw %"style::TemplatePart", ptr %_1.val, i64 %_3.sroa.0.0.i.i
  %2 = add i64 %_3.sroa.0.0.i.i, 1
; invoke core::ptr::drop_in_place::<indicatif::style::TemplatePart>
  invoke fastcc void @_RINvNtCsjMrxcFdYDNN_4core3ptr13drop_in_placeNtNtCslbzLHi4tcfW_9indicatif5style12TemplatePartEBK_(ptr noalias noundef readonly align 8 dereferenceable(96) %_6.i.i)
          to label %bb6.i.i unwind label %cleanup.i.i

bb4.i.i:                                          ; preds = %bb3.i.i, %cleanup.i.i
  %_3.sroa.0.1.i.i = phi i64 [ %2, %cleanup.i.i ], [ %4, %bb3.i.i ]
  %_5.i.i = icmp eq i64 %_3.sroa.0.1.i.i, %_1.val1
  br i1 %_5.i.i, label %cleanup.body, label %bb3.i.i

cleanup.i.i:                                      ; preds = %bb5.i.i
  %3 = landingpad { ptr, i32 }
          cleanup
  br label %bb4.i.i

bb3.i.i:                                          ; preds = %bb4.i.i
  %_4.i.i = getelementptr inbounds nuw %"style::TemplatePart", ptr %_1.val, i64 %_3.sroa.0.1.i.i
  %4 = add i64 %_3.sroa.0.1.i.i, 1
; invoke core::ptr::drop_in_place::<indicatif::style::TemplatePart>
  invoke fastcc void @_RINvNtCsjMrxcFdYDNN_4core3ptr13drop_in_placeNtNtCslbzLHi4tcfW_9indicatif5style12TemplatePartEBK_(ptr noalias noundef readonly align 8 dereferenceable(96) %_4.i.i) #33
          to label %bb4.i.i unwind label %terminate.i.i

terminate.i.i:                                    ; preds = %bb3.i.i
  %5 = landingpad { ptr, i32 }
          filter [0 x ptr] zeroinitializer
; call core::panicking::panic_in_cleanup
  tail call void @_RNvNtCsjMrxcFdYDNN_4core9panicking16panic_in_cleanup() #32, !noalias !327
  unreachable

cleanup.body:                                     ; preds = %bb4.i.i
  %_1.val2 = load i64, ptr %_1, align 8, !range !59, !noundef !13
  %6 = icmp eq i64 %_1.val2, 0
  br i1 %6, label %bb1, label %bb2.i.i.i

bb2.i.i.i:                                        ; preds = %cleanup.body
  %alloc_size.i.i.i.i = mul nuw i64 %_1.val2, 96
; call __rustc::__rust_dealloc
  tail call void @_RNvCsKhRCbHf33p_7___rustc14___rust_dealloc(ptr noundef nonnull %_1.val, i64 noundef %alloc_size.i.i.i.i, i64 noundef range(i64 1, -9223372036854775807) 8) #30
  br label %bb1

bb4:                                              ; preds = %bb6.i.i
  %_1.val4 = load i64, ptr %_1, align 8, !range !59, !noundef !13
  %7 = icmp eq i64 %_1.val4, 0
  br i1 %7, label %_RINvNtCsjMrxcFdYDNN_4core3ptr13drop_in_placeINtNtCsdJPVW0sQgAG_5alloc7raw_vec6RawVecNtNtCslbzLHi4tcfW_9indicatif5style12TemplatePartEEB1o_.exit8, label %bb2.i.i.i6

bb2.i.i.i6:                                       ; preds = %bb4
  %alloc_size.i.i.i.i7 = mul nuw i64 %_1.val4, 96
; call __rustc::__rust_dealloc
  tail call void @_RNvCsKhRCbHf33p_7___rustc14___rust_dealloc(ptr noundef nonnull %_1.val, i64 noundef %alloc_size.i.i.i.i7, i64 noundef range(i64 1, -9223372036854775807) 8) #30
  br label %_RINvNtCsjMrxcFdYDNN_4core3ptr13drop_in_placeINtNtCsdJPVW0sQgAG_5alloc7raw_vec6RawVecNtNtCslbzLHi4tcfW_9indicatif5style12TemplatePartEEB1o_.exit8

_RINvNtCsjMrxcFdYDNN_4core3ptr13drop_in_placeINtNtCsdJPVW0sQgAG_5alloc7raw_vec6RawVecNtNtCslbzLHi4tcfW_9indicatif5style12TemplatePartEEB1o_.exit8: ; preds = %bb4, %bb2.i.i.i6
  ret void

bb1:                                              ; preds = %bb2.i.i.i, %cleanup.body
  resume { ptr, i32 } %3
}

; core::ptr::drop_in_place::<alloc::boxed::Box<dyn core::ops::function::FnOnce<(), Output = ()> + core::marker::Send>>
; Function Attrs: uwtable
define internal fastcc void @_RINvNtCsjMrxcFdYDNN_4core3ptr13drop_in_placeINtNtCsdJPVW0sQgAG_5alloc5boxed3BoxDINtNtNtB4_3ops8function6FnOnceuEp6OutputuNtNtB4_6marker4SendEL_EECslbzLHi4tcfW_9indicatif(ptr %_1.0.val, ptr readonly captures(address_is_null) %_1.8.val) unnamed_addr #3 personality ptr @rust_eh_personality {
start:
  %0 = icmp ne ptr %_1.8.val, null
  tail call void @llvm.assume(i1 %0)
  %1 = load ptr, ptr %_1.8.val, align 8, !invariant.load !13
  %.not = icmp eq ptr %1, null
  br i1 %.not, label %bb3, label %is_not_null

is_not_null:                                      ; preds = %start
  %2 = icmp ne ptr %_1.0.val, null
  tail call void @llvm.assume(i1 %2)
  invoke void %1(ptr noundef nonnull %_1.0.val)
          to label %bb3 unwind label %cleanup

bb3:                                              ; preds = %is_not_null, %start
  %3 = icmp ne ptr %_1.0.val, null
  tail call void @llvm.assume(i1 %3)
  %4 = getelementptr inbounds nuw i8, ptr %_1.8.val, i64 8
  %5 = load i64, ptr %4, align 8, !range !59, !invariant.load !13
  %6 = getelementptr inbounds nuw i8, ptr %_1.8.val, i64 16
  %7 = load i64, ptr %6, align 8, !range !79, !invariant.load !13
  %8 = add i64 %7, -1
  %9 = icmp sgt i64 %8, -1
  tail call void @llvm.assume(i1 %9)
  %10 = icmp eq i64 %5, 0
  br i1 %10, label %_RNvXs8_NtCsdJPVW0sQgAG_5alloc5boxedINtB5_3BoxDINtNtNtCsjMrxcFdYDNN_4core3ops8function6FnOnceuEp6OutputuNtNtBP_6marker4SendEL_ENtNtBN_4drop4Drop4dropCslbzLHi4tcfW_9indicatif.exit, label %_RNvXs_NtCsdJPVW0sQgAG_5alloc5allocNtB4_6GlobalNtNtCsjMrxcFdYDNN_4core5alloc9Allocator10deallocate.exit.i

_RNvXs_NtCsdJPVW0sQgAG_5alloc5allocNtB4_6GlobalNtNtCsjMrxcFdYDNN_4core5alloc9Allocator10deallocate.exit.i: ; preds = %bb3
; call __rustc::__rust_dealloc
  tail call void @_RNvCsKhRCbHf33p_7___rustc14___rust_dealloc(ptr noundef nonnull %_1.0.val, i64 noundef %5, i64 noundef range(i64 1, -9223372036854775807) %7) #30
  br label %_RNvXs8_NtCsdJPVW0sQgAG_5alloc5boxedINtB5_3BoxDINtNtNtCsjMrxcFdYDNN_4core3ops8function6FnOnceuEp6OutputuNtNtBP_6marker4SendEL_ENtNtBN_4drop4Drop4dropCslbzLHi4tcfW_9indicatif.exit

_RNvXs8_NtCsdJPVW0sQgAG_5alloc5boxedINtB5_3BoxDINtNtNtCsjMrxcFdYDNN_4core3ops8function6FnOnceuEp6OutputuNtNtBP_6marker4SendEL_ENtNtBN_4drop4Drop4dropCslbzLHi4tcfW_9indicatif.exit: ; preds = %bb3, %_RNvXs_NtCsdJPVW0sQgAG_5alloc5allocNtB4_6GlobalNtNtCsjMrxcFdYDNN_4core5alloc9Allocator10deallocate.exit.i
  ret void

cleanup:                                          ; preds = %is_not_null
  %11 = landingpad { ptr, i32 }
          cleanup
  %12 = getelementptr inbounds nuw i8, ptr %_1.8.val, i64 8
  %13 = load i64, ptr %12, align 8, !range !59, !invariant.load !13
  %14 = getelementptr inbounds nuw i8, ptr %_1.8.val, i64 16
  %15 = load i64, ptr %14, align 8, !range !79, !invariant.load !13
  %16 = add i64 %15, -1
  %17 = icmp sgt i64 %16, -1
  tail call void @llvm.assume(i1 %17)
  %18 = icmp eq i64 %13, 0
  br i1 %18, label %bb1, label %_RNvXs_NtCsdJPVW0sQgAG_5alloc5allocNtB4_6GlobalNtNtCsjMrxcFdYDNN_4core5alloc9Allocator10deallocate.exit.i4

_RNvXs_NtCsdJPVW0sQgAG_5alloc5allocNtB4_6GlobalNtNtCsjMrxcFdYDNN_4core5alloc9Allocator10deallocate.exit.i4: ; preds = %cleanup
; call __rustc::__rust_dealloc
  tail call void @_RNvCsKhRCbHf33p_7___rustc14___rust_dealloc(ptr noundef nonnull %_1.0.val, i64 noundef %13, i64 noundef range(i64 1, -9223372036854775807) %15) #30
  br label %bb1

bb1:                                              ; preds = %_RNvXs_NtCsdJPVW0sQgAG_5alloc5allocNtB4_6GlobalNtNtCsjMrxcFdYDNN_4core5alloc9Allocator10deallocate.exit.i4, %cleanup
  resume { ptr, i32 } %11
}

; core::ptr::drop_in_place::<hashbrown::scopeguard::ScopeGuard<(usize, &mut hashbrown::raw::RawTable<(&str, alloc::boxed::Box<dyn indicatif::style::ProgressTracker>)>), <hashbrown::raw::RawTable<(&str, alloc::boxed::Box<dyn indicatif::style::ProgressTracker>)>>::clone_from_impl::{closure#0}>>
; Function Attrs: uwtable
define internal fastcc void @_RINvNtCsjMrxcFdYDNN_4core3ptr13drop_in_placeINtNtCsh9QrOU9e3Ke_9hashbrown10scopeguard10ScopeGuardTjQINtNtBL_3raw8RawTableTReINtNtCsdJPVW0sQgAG_5alloc5boxed3BoxDNtNtCslbzLHi4tcfW_9indicatif5style15ProgressTrackerEL_EEEENCNvMse_B1D_B1A_15clone_from_impl0EEB2C_(i64 %_1.0.val, ptr readonly captures(address_is_null) %_1.8.val) unnamed_addr #3 personality ptr @rust_eh_personality {
start:
  %_131.not.i.i = icmp eq i64 %_1.0.val, 0
  br i1 %_131.not.i.i, label %_RNvXs1_NtCsh9QrOU9e3Ke_9hashbrown10scopeguardINtB5_10ScopeGuardTjQINtNtB7_3raw8RawTableTReINtNtCsdJPVW0sQgAG_5alloc5boxed3BoxDNtNtCslbzLHi4tcfW_9indicatif5style15ProgressTrackerEL_EEEENCNvMse_B15_B12_15clone_from_impl0ENtNtNtCsjMrxcFdYDNN_4core3ops4drop4Drop4dropB24_.exit, label %bb7.lr.ph.i.i

bb7.lr.ph.i.i:                                    ; preds = %start
  %0 = icmp ne ptr %_1.8.val, null
  tail call void @llvm.assume(i1 %0)
  br label %bb7.i.i

bb7.i.i:                                          ; preds = %bb5.i.i, %bb7.lr.ph.i.i
  %iter.sroa.0.02.i.i = phi i64 [ 0, %bb7.lr.ph.i.i ], [ %_17.i.i, %bb5.i.i ]
  %_17.i.i = add nuw i64 %iter.sroa.0.02.i.i, 1
  %_23.i.i = load ptr, ptr %_1.8.val, align 8, !nonnull !13, !noundef !13
  %_21.i.i = getelementptr inbounds nuw i8, ptr %_23.i.i, i64 %iter.sroa.0.02.i.i
  %_25.i.i = load i8, ptr %_21.i.i, align 1, !noundef !13
  %1 = icmp sgt i8 %_25.i.i, -1
  br i1 %1, label %bb3.i.i, label %bb5.i.i

bb3.i.i:                                          ; preds = %bb7.i.i
  %_36.i.i = sub nsw i64 0, %iter.sroa.0.02.i.i
  %2 = getelementptr inbounds { { ptr, i64 }, %"alloc::boxed::Box<dyn style::ProgressTracker>" }, ptr %_23.i.i, i64 %_36.i.i
  %3 = getelementptr i8, ptr %2, i64 -16
  %.val.i.i = load ptr, ptr %3, align 8
  %4 = getelementptr i8, ptr %2, i64 -8
  %.val4.i.i = load ptr, ptr %4, align 8, !nonnull !13, !align !310, !noundef !13
  %5 = load ptr, ptr %.val4.i.i, align 8, !invariant.load !13
  %.not.i.i.i.i = icmp eq ptr %5, null
  br i1 %.not.i.i.i.i, label %bb3.i.i.i.i, label %is_not_null.i.i.i.i

is_not_null.i.i.i.i:                              ; preds = %bb3.i.i
  %6 = icmp ne ptr %.val.i.i, null
  tail call void @llvm.assume(i1 %6)
  invoke void %5(ptr noundef nonnull %.val.i.i)
          to label %bb3.i.i.i.i unwind label %cleanup.i.i.i.i

bb3.i.i.i.i:                                      ; preds = %is_not_null.i.i.i.i, %bb3.i.i
  %7 = icmp ne ptr %.val.i.i, null
  tail call void @llvm.assume(i1 %7)
  %8 = getelementptr inbounds nuw i8, ptr %.val4.i.i, i64 8
  %9 = load i64, ptr %8, align 8, !range !59, !invariant.load !13
  %10 = getelementptr inbounds nuw i8, ptr %.val4.i.i, i64 16
  %11 = load i64, ptr %10, align 8, !range !79, !invariant.load !13
  %12 = add i64 %11, -1
  %13 = icmp sgt i64 %12, -1
  tail call void @llvm.assume(i1 %13)
  %14 = icmp eq i64 %9, 0
  br i1 %14, label %bb5.i.i, label %_RNvXs_NtCsdJPVW0sQgAG_5alloc5allocNtB4_6GlobalNtNtCsjMrxcFdYDNN_4core5alloc9Allocator10deallocate.exit.i.i.i.i.i

_RNvXs_NtCsdJPVW0sQgAG_5alloc5allocNtB4_6GlobalNtNtCsjMrxcFdYDNN_4core5alloc9Allocator10deallocate.exit.i.i.i.i.i: ; preds = %bb3.i.i.i.i
; call __rustc::__rust_dealloc
  tail call void @_RNvCsKhRCbHf33p_7___rustc14___rust_dealloc(ptr noundef nonnull %.val.i.i, i64 noundef %9, i64 noundef range(i64 1, -9223372036854775807) %11) #30
  br label %bb5.i.i

cleanup.i.i.i.i:                                  ; preds = %is_not_null.i.i.i.i
  %15 = landingpad { ptr, i32 }
          cleanup
  %16 = getelementptr inbounds nuw i8, ptr %.val4.i.i, i64 8
  %17 = load i64, ptr %16, align 8, !range !59, !invariant.load !13
  %18 = getelementptr inbounds nuw i8, ptr %.val4.i.i, i64 16
  %19 = load i64, ptr %18, align 8, !range !79, !invariant.load !13
  %20 = add i64 %19, -1
  %21 = icmp sgt i64 %20, -1
  tail call void @llvm.assume(i1 %21)
  %22 = icmp eq i64 %17, 0
  br i1 %22, label %bb1.i.i.i.i, label %_RNvXs_NtCsdJPVW0sQgAG_5alloc5allocNtB4_6GlobalNtNtCsjMrxcFdYDNN_4core5alloc9Allocator10deallocate.exit.i4.i.i.i.i

_RNvXs_NtCsdJPVW0sQgAG_5alloc5allocNtB4_6GlobalNtNtCsjMrxcFdYDNN_4core5alloc9Allocator10deallocate.exit.i4.i.i.i.i: ; preds = %cleanup.i.i.i.i
; call __rustc::__rust_dealloc
  tail call void @_RNvCsKhRCbHf33p_7___rustc14___rust_dealloc(ptr noundef nonnull %.val.i.i, i64 noundef %17, i64 noundef range(i64 1, -9223372036854775807) %19) #30
  br label %bb1.i.i.i.i

bb1.i.i.i.i:                                      ; preds = %_RNvXs_NtCsdJPVW0sQgAG_5alloc5allocNtB4_6GlobalNtNtCsjMrxcFdYDNN_4core5alloc9Allocator10deallocate.exit.i4.i.i.i.i, %cleanup.i.i.i.i
  resume { ptr, i32 } %15

bb5.i.i:                                          ; preds = %_RNvXs_NtCsdJPVW0sQgAG_5alloc5allocNtB4_6GlobalNtNtCsjMrxcFdYDNN_4core5alloc9Allocator10deallocate.exit.i.i.i.i.i, %bb3.i.i.i.i, %bb7.i.i
  %exitcond.not.i.i = icmp eq i64 %_17.i.i, %_1.0.val
  br i1 %exitcond.not.i.i, label %_RNvXs1_NtCsh9QrOU9e3Ke_9hashbrown10scopeguardINtB5_10ScopeGuardTjQINtNtB7_3raw8RawTableTReINtNtCsdJPVW0sQgAG_5alloc5boxed3BoxDNtNtCslbzLHi4tcfW_9indicatif5style15ProgressTrackerEL_EEEENCNvMse_B15_B12_15clone_from_impl0ENtNtNtCsjMrxcFdYDNN_4core3ops4drop4Drop4dropB24_.exit, label %bb7.i.i

_RNvXs1_NtCsh9QrOU9e3Ke_9hashbrown10scopeguardINtB5_10ScopeGuardTjQINtNtB7_3raw8RawTableTReINtNtCsdJPVW0sQgAG_5alloc5boxed3BoxDNtNtCslbzLHi4tcfW_9indicatif5style15ProgressTrackerEL_EEEENCNvMse_B15_B12_15clone_from_impl0ENtNtNtCsjMrxcFdYDNN_4core3ops4drop4Drop4dropB24_.exit: ; preds = %bb5.i.i, %start
  ret void
}

; core::ptr::drop_in_place::<hashbrown::raw::RawTable<(&str, alloc::boxed::Box<dyn indicatif::style::ProgressTracker>)>>
; Function Attrs: uwtable
define internal fastcc void @_RINvNtCsjMrxcFdYDNN_4core3ptr13drop_in_placeINtNtCsh9QrOU9e3Ke_9hashbrown3raw8RawTableTReINtNtCsdJPVW0sQgAG_5alloc5boxed3BoxDNtNtCslbzLHi4tcfW_9indicatif5style15ProgressTrackerEL_EEEEB23_(ptr noalias noundef nonnull readonly align 8 captures(none) dereferenceable(32) %_1) unnamed_addr #3 personality ptr @rust_eh_personality {
start:
  tail call void @llvm.experimental.noalias.scope.decl(metadata !330)
  tail call void @llvm.experimental.noalias.scope.decl(metadata !333)
  %0 = getelementptr inbounds nuw i8, ptr %_1, i64 8
  %_5.i.i = load i64, ptr %0, align 8, !alias.scope !336, !noundef !13
  %1 = icmp eq i64 %_5.i.i, 0
  br i1 %1, label %_RNvXsg_NtCsh9QrOU9e3Ke_9hashbrown3rawINtB5_8RawTableTReINtNtCsdJPVW0sQgAG_5alloc5boxed3BoxDNtNtCslbzLHi4tcfW_9indicatif5style15ProgressTrackerEL_EEENtNtNtCsjMrxcFdYDNN_4core3ops4drop4Drop4dropB1v_.exit, label %bb2.i.i

bb2.i.i:                                          ; preds = %start
  tail call void @llvm.experimental.noalias.scope.decl(metadata !337)
  %2 = getelementptr inbounds nuw i8, ptr %_1, i64 24
  %_2.i.i.i = load i64, ptr %2, align 8, !alias.scope !340, !noundef !13
  %3 = icmp eq i64 %_2.i.i.i, 0
  br i1 %3, label %_RINvMsa_NtCsh9QrOU9e3Ke_9hashbrown3rawNtB6_13RawTableInner13drop_elementsTReINtNtCsdJPVW0sQgAG_5alloc5boxed3BoxDNtNtCslbzLHi4tcfW_9indicatif5style15ProgressTrackerEL_EEEB1Q_.exit.i.i, label %bb2.i.i.i

bb2.i.i.i:                                        ; preds = %bb2.i.i
  %self3.i.i.i = load ptr, ptr %_1, align 8, !alias.scope !340, !nonnull !13, !noundef !13
  %tmp.sroa.0.0.copyload.i.i.i.i.i.i = load <8 x i8>, ptr %self3.i.i.i, align 1, !noalias !341
  %4 = icmp sgt <8 x i8> %tmp.sroa.0.0.copyload.i.i.i.i.i.i, splat (i8 -1)
  %5 = sext <8 x i1> %4 to <8 x i8>
  %6 = bitcast <8 x i8> %5 to i64
  %next_ctrl.i.i.i.i = getelementptr inbounds nuw i8, ptr %self3.i.i.i, i64 8
  %_21.i.i.i.i = and i64 %6, -9187201950435737472
  br label %bb14.i.i.i

bb14.i.i.i:                                       ; preds = %_RINvNtCsjMrxcFdYDNN_4core3ptr13drop_in_placeTReINtNtCsdJPVW0sQgAG_5alloc5boxed3BoxDNtNtCslbzLHi4tcfW_9indicatif5style15ProgressTrackerEL_EEEB1n_.exit.i.i.i, %bb2.i.i.i
  %iter.sroa.0.011.i.i.i = phi ptr [ %self3.i.i.i, %bb2.i.i.i ], [ %iter.sroa.0.1.i.i.i, %_RINvNtCsjMrxcFdYDNN_4core3ptr13drop_in_placeTReINtNtCsdJPVW0sQgAG_5alloc5boxed3BoxDNtNtCslbzLHi4tcfW_9indicatif5style15ProgressTrackerEL_EEEB1n_.exit.i.i.i ]
  %iter.sroa.6.010.i.i.i = phi i64 [ %_21.i.i.i.i, %bb2.i.i.i ], [ %_34.i.i.i.i, %_RINvNtCsjMrxcFdYDNN_4core3ptr13drop_in_placeTReINtNtCsdJPVW0sQgAG_5alloc5boxed3BoxDNtNtCslbzLHi4tcfW_9indicatif5style15ProgressTrackerEL_EEEB1n_.exit.i.i.i ]
  %iter.sroa.8.09.i.i.i = phi ptr [ %next_ctrl.i.i.i.i, %bb2.i.i.i ], [ %iter.sroa.8.1.i.i.i, %_RINvNtCsjMrxcFdYDNN_4core3ptr13drop_in_placeTReINtNtCsdJPVW0sQgAG_5alloc5boxed3BoxDNtNtCslbzLHi4tcfW_9indicatif5style15ProgressTrackerEL_EEEB1n_.exit.i.i.i ]
  %iter.sroa.106.08.i.i.i = phi i64 [ %_2.i.i.i, %bb2.i.i.i ], [ %15, %_RINvNtCsjMrxcFdYDNN_4core3ptr13drop_in_placeTReINtNtCsdJPVW0sQgAG_5alloc5boxed3BoxDNtNtCslbzLHi4tcfW_9indicatif5style15ProgressTrackerEL_EEEB1n_.exit.i.i.i ]
  %.not14.i.i.i.i = icmp eq i64 %iter.sroa.6.010.i.i.i, 0
  br i1 %.not14.i.i.i.i, label %bb10.i.i.i.i, label %_RINvMsi_NtCsh9QrOU9e3Ke_9hashbrown3rawINtB6_12RawIterRangeTReINtNtCsdJPVW0sQgAG_5alloc5boxed3BoxDNtNtCslbzLHi4tcfW_9indicatif5style15ProgressTrackerEL_EEE9next_implKb0_EB1B_.exit.i.i.i

bb10.i.i.i.i:                                     ; preds = %bb14.i.i.i, %bb10.i.i.i.i
  %_1717.i.i.i.i = phi ptr [ %_17.i.i.i.i, %bb10.i.i.i.i ], [ %iter.sroa.8.09.i.i.i, %bb14.i.i.i ]
  %7 = phi ptr [ %11, %bb10.i.i.i.i ], [ %iter.sroa.0.011.i.i.i, %bb14.i.i.i ]
  %tmp.sroa.0.0.copyload.i.i.i5.i.i.i = load <8 x i8>, ptr %_1717.i.i.i.i, align 1, !noalias !348
  %8 = icmp sgt <8 x i8> %tmp.sroa.0.0.copyload.i.i.i5.i.i.i, splat (i8 -1)
  %9 = sext <8 x i1> %8 to <8 x i8>
  %10 = bitcast <8 x i8> %9 to i64
  %_54.i.i.i.i = and i64 %10, -9187201950435737472
  %11 = getelementptr inbounds i8, ptr %7, i64 -256
  %_17.i.i.i.i = getelementptr inbounds nuw i8, ptr %_1717.i.i.i.i, i64 8
  %.not.i.i.i.i = icmp eq i64 %_54.i.i.i.i, 0
  br i1 %.not.i.i.i.i, label %bb10.i.i.i.i, label %_RINvMsi_NtCsh9QrOU9e3Ke_9hashbrown3rawINtB6_12RawIterRangeTReINtNtCsdJPVW0sQgAG_5alloc5boxed3BoxDNtNtCslbzLHi4tcfW_9indicatif5style15ProgressTrackerEL_EEE9next_implKb0_EB1B_.exit.i.i.i

_RINvMsi_NtCsh9QrOU9e3Ke_9hashbrown3rawINtB6_12RawIterRangeTReINtNtCsdJPVW0sQgAG_5alloc5boxed3BoxDNtNtCslbzLHi4tcfW_9indicatif5style15ProgressTrackerEL_EEE9next_implKb0_EB1B_.exit.i.i.i: ; preds = %bb10.i.i.i.i, %bb14.i.i.i
  %iter.sroa.8.1.i.i.i = phi ptr [ %iter.sroa.8.09.i.i.i, %bb14.i.i.i ], [ %_17.i.i.i.i, %bb10.i.i.i.i ]
  %iter.sroa.0.1.i.i.i = phi ptr [ %iter.sroa.0.011.i.i.i, %bb14.i.i.i ], [ %11, %bb10.i.i.i.i ]
  %self3.lcssa.i.i.i.i = phi i64 [ %iter.sroa.6.010.i.i.i, %bb14.i.i.i ], [ %_54.i.i.i.i, %bb10.i.i.i.i ]
  %12 = add i64 %self3.lcssa.i.i.i.i, -1
  %13 = tail call range(i64 0, 65) i64 @llvm.cttz.i64(i64 %self3.lcssa.i.i.i.i, i1 true)
  %_2411.i.i.i.i = lshr i64 %13, 3
  %_34.i.i.i.i = and i64 %12, %self3.lcssa.i.i.i.i
  %_46.i.i.i.i = sub nsw i64 0, %_2411.i.i.i.i
  %14 = getelementptr inbounds { { ptr, i64 }, %"alloc::boxed::Box<dyn style::ProgressTracker>" }, ptr %iter.sroa.0.1.i.i.i, i64 %_46.i.i.i.i
  %15 = add i64 %iter.sroa.106.08.i.i.i, -1
  %16 = getelementptr i8, ptr %14, i64 -16
  %.val.i.i.i = load ptr, ptr %16, align 8, !noalias !340
  %17 = getelementptr i8, ptr %14, i64 -8
  %.val4.i.i.i = load ptr, ptr %17, align 8, !noalias !340, !nonnull !13, !align !310, !noundef !13
  %18 = load ptr, ptr %.val4.i.i.i, align 8, !invariant.load !13, !noalias !340
  %.not.i.i.i.i.i = icmp eq ptr %18, null
  br i1 %.not.i.i.i.i.i, label %bb3.i.i.i.i.i, label %is_not_null.i.i.i.i.i

is_not_null.i.i.i.i.i:                            ; preds = %_RINvMsi_NtCsh9QrOU9e3Ke_9hashbrown3rawINtB6_12RawIterRangeTReINtNtCsdJPVW0sQgAG_5alloc5boxed3BoxDNtNtCslbzLHi4tcfW_9indicatif5style15ProgressTrackerEL_EEE9next_implKb0_EB1B_.exit.i.i.i
  %19 = icmp ne ptr %.val.i.i.i, null
  tail call void @llvm.assume(i1 %19)
  invoke void %18(ptr noundef nonnull %.val.i.i.i)
          to label %bb3.i.i.i.i.i unwind label %cleanup.i.i.i.i.i, !noalias !340

bb3.i.i.i.i.i:                                    ; preds = %is_not_null.i.i.i.i.i, %_RINvMsi_NtCsh9QrOU9e3Ke_9hashbrown3rawINtB6_12RawIterRangeTReINtNtCsdJPVW0sQgAG_5alloc5boxed3BoxDNtNtCslbzLHi4tcfW_9indicatif5style15ProgressTrackerEL_EEE9next_implKb0_EB1B_.exit.i.i.i
  %20 = icmp ne ptr %.val.i.i.i, null
  tail call void @llvm.assume(i1 %20)
  %21 = getelementptr inbounds nuw i8, ptr %.val4.i.i.i, i64 8
  %22 = load i64, ptr %21, align 8, !range !59, !invariant.load !13, !noalias !340
  %23 = getelementptr inbounds nuw i8, ptr %.val4.i.i.i, i64 16
  %24 = load i64, ptr %23, align 8, !range !79, !invariant.load !13, !noalias !340
  %25 = add i64 %24, -1
  %26 = icmp sgt i64 %25, -1
  tail call void @llvm.assume(i1 %26)
  %27 = icmp eq i64 %22, 0
  br i1 %27, label %_RINvNtCsjMrxcFdYDNN_4core3ptr13drop_in_placeTReINtNtCsdJPVW0sQgAG_5alloc5boxed3BoxDNtNtCslbzLHi4tcfW_9indicatif5style15ProgressTrackerEL_EEEB1n_.exit.i.i.i, label %_RNvXs_NtCsdJPVW0sQgAG_5alloc5allocNtB4_6GlobalNtNtCsjMrxcFdYDNN_4core5alloc9Allocator10deallocate.exit.i.i.i.i.i.i

_RNvXs_NtCsdJPVW0sQgAG_5alloc5allocNtB4_6GlobalNtNtCsjMrxcFdYDNN_4core5alloc9Allocator10deallocate.exit.i.i.i.i.i.i: ; preds = %bb3.i.i.i.i.i
; call __rustc::__rust_dealloc
  tail call void @_RNvCsKhRCbHf33p_7___rustc14___rust_dealloc(ptr noundef nonnull %.val.i.i.i, i64 noundef %22, i64 noundef range(i64 1, -9223372036854775807) %24) #30, !noalias !340
  br label %_RINvNtCsjMrxcFdYDNN_4core3ptr13drop_in_placeTReINtNtCsdJPVW0sQgAG_5alloc5boxed3BoxDNtNtCslbzLHi4tcfW_9indicatif5style15ProgressTrackerEL_EEEB1n_.exit.i.i.i

cleanup.i.i.i.i.i:                                ; preds = %is_not_null.i.i.i.i.i
  %28 = landingpad { ptr, i32 }
          cleanup
  %29 = getelementptr inbounds nuw i8, ptr %.val4.i.i.i, i64 8
  %30 = load i64, ptr %29, align 8, !range !59, !invariant.load !13, !noalias !340
  %31 = getelementptr inbounds nuw i8, ptr %.val4.i.i.i, i64 16
  %32 = load i64, ptr %31, align 8, !range !79, !invariant.load !13, !noalias !340
  %33 = add i64 %32, -1
  %34 = icmp sgt i64 %33, -1
  tail call void @llvm.assume(i1 %34)
  %35 = icmp eq i64 %30, 0
  br i1 %35, label %bb1.i.i.i.i.i, label %_RNvXs_NtCsdJPVW0sQgAG_5alloc5allocNtB4_6GlobalNtNtCsjMrxcFdYDNN_4core5alloc9Allocator10deallocate.exit.i4.i.i.i.i.i

_RNvXs_NtCsdJPVW0sQgAG_5alloc5allocNtB4_6GlobalNtNtCsjMrxcFdYDNN_4core5alloc9Allocator10deallocate.exit.i4.i.i.i.i.i: ; preds = %cleanup.i.i.i.i.i
; call __rustc::__rust_dealloc
  tail call void @_RNvCsKhRCbHf33p_7___rustc14___rust_dealloc(ptr noundef nonnull %.val.i.i.i, i64 noundef %30, i64 noundef range(i64 1, -9223372036854775807) %32) #30, !noalias !340
  br label %bb1.i.i.i.i.i

bb1.i.i.i.i.i:                                    ; preds = %_RNvXs_NtCsdJPVW0sQgAG_5alloc5allocNtB4_6GlobalNtNtCsjMrxcFdYDNN_4core5alloc9Allocator10deallocate.exit.i4.i.i.i.i.i, %cleanup.i.i.i.i.i
  resume { ptr, i32 } %28

_RINvNtCsjMrxcFdYDNN_4core3ptr13drop_in_placeTReINtNtCsdJPVW0sQgAG_5alloc5boxed3BoxDNtNtCslbzLHi4tcfW_9indicatif5style15ProgressTrackerEL_EEEB1n_.exit.i.i.i: ; preds = %_RNvXs_NtCsdJPVW0sQgAG_5alloc5allocNtB4_6GlobalNtNtCsjMrxcFdYDNN_4core5alloc9Allocator10deallocate.exit.i.i.i.i.i.i, %bb3.i.i.i.i.i
  %36 = icmp eq i64 %15, 0
  br i1 %36, label %_RINvMsa_NtCsh9QrOU9e3Ke_9hashbrown3rawNtB6_13RawTableInner13drop_elementsTReINtNtCsdJPVW0sQgAG_5alloc5boxed3BoxDNtNtCslbzLHi4tcfW_9indicatif5style15ProgressTrackerEL_EEEB1Q_.exit.i.i, label %bb14.i.i.i

_RINvMsa_NtCsh9QrOU9e3Ke_9hashbrown3rawNtB6_13RawTableInner13drop_elementsTReINtNtCsdJPVW0sQgAG_5alloc5boxed3BoxDNtNtCslbzLHi4tcfW_9indicatif5style15ProgressTrackerEL_EEEB1Q_.exit.i.i: ; preds = %_RINvNtCsjMrxcFdYDNN_4core3ptr13drop_in_placeTReINtNtCsdJPVW0sQgAG_5alloc5boxed3BoxDNtNtCslbzLHi4tcfW_9indicatif5style15ProgressTrackerEL_EEEB1n_.exit.i.i.i, %bb2.i.i
  %_9.i.i = shl i64 %_5.i.i, 5
  %_25.0.i.i.i = add i64 %_9.i.i, 32
  %rhs5.i.i.i = add i64 %_5.i.i, 9
  %_37.0.i.i.i = add i64 %rhs5.i.i.i, %_25.0.i.i.i
  %_37.1.i.i.i = icmp uge i64 %_37.0.i.i.i, %_25.0.i.i.i
  %_19.i.i.i = icmp ult i64 %_37.0.i.i.i, 9223372036854775801
  tail call void @llvm.assume(i1 %_37.1.i.i.i)
  tail call void @llvm.assume(i1 %_19.i.i.i)
  %37 = icmp eq i64 %_37.0.i.i.i, 0
  br i1 %37, label %_RNvXsg_NtCsh9QrOU9e3Ke_9hashbrown3rawINtB5_8RawTableTReINtNtCsdJPVW0sQgAG_5alloc5boxed3BoxDNtNtCslbzLHi4tcfW_9indicatif5style15ProgressTrackerEL_EEENtNtNtCsjMrxcFdYDNN_4core3ops4drop4Drop4dropB1v_.exit, label %bb1.i4.i.i

bb1.i4.i.i:                                       ; preds = %_RINvMsa_NtCsh9QrOU9e3Ke_9hashbrown3rawNtB6_13RawTableInner13drop_elementsTReINtNtCsdJPVW0sQgAG_5alloc5boxed3BoxDNtNtCslbzLHi4tcfW_9indicatif5style15ProgressTrackerEL_EEEB1Q_.exit.i.i
  %self1.i.i = load ptr, ptr %_1, align 8, !alias.scope !336, !nonnull !13, !noundef !13
  %_17.i.i = sub nuw nsw i64 -32, %_9.i.i
  %ptr.i.i = getelementptr inbounds i8, ptr %self1.i.i, i64 %_17.i.i
; call __rustc::__rust_dealloc
  tail call void @_RNvCsKhRCbHf33p_7___rustc14___rust_dealloc(ptr noundef nonnull %ptr.i.i, i64 noundef %_37.0.i.i.i, i64 noundef range(i64 1, -9223372036854775807) 8) #30, !noalias !336
  br label %_RNvXsg_NtCsh9QrOU9e3Ke_9hashbrown3rawINtB5_8RawTableTReINtNtCsdJPVW0sQgAG_5alloc5boxed3BoxDNtNtCslbzLHi4tcfW_9indicatif5style15ProgressTrackerEL_EEENtNtNtCsjMrxcFdYDNN_4core3ops4drop4Drop4dropB1v_.exit

_RNvXsg_NtCsh9QrOU9e3Ke_9hashbrown3rawINtB5_8RawTableTReINtNtCsdJPVW0sQgAG_5alloc5boxed3BoxDNtNtCslbzLHi4tcfW_9indicatif5style15ProgressTrackerEL_EEENtNtNtCsjMrxcFdYDNN_4core3ops4drop4Drop4dropB1v_.exit: ; preds = %start, %_RINvMsa_NtCsh9QrOU9e3Ke_9hashbrown3rawNtB6_13RawTableInner13drop_elementsTReINtNtCsdJPVW0sQgAG_5alloc5boxed3BoxDNtNtCslbzLHi4tcfW_9indicatif5style15ProgressTrackerEL_EEEB1Q_.exit.i.i, %bb1.i4.i.i
  ret void
}

; core::ptr::drop_in_place::<std::sync::poison::PoisonError<std::sync::poison::mutex::MutexGuard<core::option::Option<indicatif::progress_bar::Ticker>>>>
; Function Attrs: uwtable
define internal void @_RINvNtCsjMrxcFdYDNN_4core3ptr13drop_in_placeINtNtNtCs5sEH5CPMdak_3std4sync6poison11PoisonErrorINtNtBJ_5mutex10MutexGuardINtNtB4_6option6OptionNtNtCslbzLHi4tcfW_9indicatif12progress_bar6TickerEEEEB2k_(ptr noalias noundef readonly align 8 captures(none) dereferenceable(16) %_1) unnamed_addr #3 {
start:
  %_1.val = load ptr, ptr %_1, align 8, !nonnull !13, !align !310, !noundef !13
  %0 = getelementptr inbounds nuw i8, ptr %_1, i64 8
  %_1.val1 = load i8, ptr %0, align 8, !range !355, !noundef !13
  %_3.i.i = getelementptr inbounds nuw i8, ptr %_1.val, i64 8
  %_3.i.i.i = trunc nuw i8 %_1.val1 to i1
  br i1 %_3.i.i.i, label %_RINvNtCsjMrxcFdYDNN_4core3ptr13drop_in_placeINtNtNtNtCs5sEH5CPMdak_3std4sync6poison5mutex10MutexGuardINtNtB4_6option6OptionNtNtCslbzLHi4tcfW_9indicatif12progress_bar6TickerEEEB21_.exit, label %bb1.i.i.i

bb1.i.i.i:                                        ; preds = %start
  %1 = load atomic i64, ptr @_RNvNtNtCs5sEH5CPMdak_3std9panicking11panic_count18GLOBAL_PANIC_COUNT monotonic, align 8
  %_7.i.i.i = and i64 %1, 9223372036854775807
  %2 = icmp eq i64 %_7.i.i.i, 0
  br i1 %2, label %_RINvNtCsjMrxcFdYDNN_4core3ptr13drop_in_placeINtNtNtNtCs5sEH5CPMdak_3std4sync6poison5mutex10MutexGuardINtNtB4_6option6OptionNtNtCslbzLHi4tcfW_9indicatif12progress_bar6TickerEEEB21_.exit, label %bb6.i.i.i, !prof !5

bb6.i.i.i:                                        ; preds = %bb1.i.i.i
; call std::panicking::panic_count::is_zero_slow_path
  %_6.i.i.i = tail call noundef zeroext i1 @_RNvNtNtCs5sEH5CPMdak_3std9panicking11panic_count17is_zero_slow_path() #35
  br i1 %_6.i.i.i, label %_RINvNtCsjMrxcFdYDNN_4core3ptr13drop_in_placeINtNtNtNtCs5sEH5CPMdak_3std4sync6poison5mutex10MutexGuardINtNtB4_6option6OptionNtNtCslbzLHi4tcfW_9indicatif12progress_bar6TickerEEEB21_.exit, label %bb2.i.i.i

bb2.i.i.i:                                        ; preds = %bb6.i.i.i
  store atomic i8 1, ptr %_3.i.i monotonic, align 8
  br label %_RINvNtCsjMrxcFdYDNN_4core3ptr13drop_in_placeINtNtNtNtCs5sEH5CPMdak_3std4sync6poison5mutex10MutexGuardINtNtB4_6option6OptionNtNtCslbzLHi4tcfW_9indicatif12progress_bar6TickerEEEB21_.exit

_RINvNtCsjMrxcFdYDNN_4core3ptr13drop_in_placeINtNtNtNtCs5sEH5CPMdak_3std4sync6poison5mutex10MutexGuardINtNtB4_6option6OptionNtNtCslbzLHi4tcfW_9indicatif12progress_bar6TickerEEEB21_.exit: ; preds = %start, %bb1.i.i.i, %bb6.i.i.i, %bb2.i.i.i
  %3 = load atomic ptr, ptr %_1.val monotonic, align 8
; call <std::sys::pal::unix::sync::mutex::Mutex>::unlock
  tail call void @_RNvMNtNtNtNtNtCs5sEH5CPMdak_3std3sys3pal4unix4sync5mutexNtB2_5Mutex6unlock(ptr noundef nonnull align 8 %3)
  ret void
}

; core::ptr::drop_in_place::<std::sync::poison::PoisonError<std::sync::poison::rwlock::RwLockReadGuard<indicatif::multi::MultiState>>>
; Function Attrs: uwtable
define internal void @_RINvNtCsjMrxcFdYDNN_4core3ptr13drop_in_placeINtNtNtCs5sEH5CPMdak_3std4sync6poison11PoisonErrorINtNtBJ_6rwlock15RwLockReadGuardNtNtCslbzLHi4tcfW_9indicatif5multi10MultiStateEEEB24_(ptr noalias noundef readonly align 8 captures(none) dereferenceable(16) %_1) unnamed_addr #3 personality ptr @rust_eh_personality {
start:
  tail call void @llvm.experimental.noalias.scope.decl(metadata !356)
  tail call void @llvm.experimental.noalias.scope.decl(metadata !359)
  %0 = getelementptr inbounds nuw i8, ptr %_1, i64 8
  %self1.i.i = load ptr, ptr %0, align 8, !alias.scope !362, !nonnull !13, !align !310, !noundef !13
  %1 = load atomic ptr, ptr %self1.i.i acquire, align 8, !noalias !362
  br label %bb1.i.i.i

bb1.i.i.i:                                        ; preds = %bb3.i.i.i, %start
  %prev.sroa.0.0.i.i.i = phi ptr [ %1, %start ], [ %_8.sroa.0.0.i.i.i.i, %bb3.i.i.i ]
  %_4.i.i.i.i = ptrtoint ptr %prev.sroa.0.0.i.i.i to i64
  %_3.i.i.i.i = and i64 %_4.i.i.i.i, 2
  %2 = icmp eq i64 %_3.i.i.i.i, 0
  br i1 %2, label %_RNCNvMs1_NtNtNtNtCs5sEH5CPMdak_3std3sys4sync6rwlock5queueNtB7_6RwLock11read_unlock0CslbzLHi4tcfW_9indicatif.exit.thread.i.i.i, label %_RNCNvMs1_NtNtNtNtCs5sEH5CPMdak_3std3sys4sync6rwlock5queueNtB7_6RwLock11read_unlock0CslbzLHi4tcfW_9indicatif.exit.i.i.i

_RNCNvMs1_NtNtNtNtCs5sEH5CPMdak_3std3sys4sync6rwlock5queueNtB7_6RwLock11read_unlock0CslbzLHi4tcfW_9indicatif.exit.thread.i.i.i: ; preds = %bb1.i.i.i
  %count.i.i.i.i = add i64 %_4.i.i.i.i, -17
  %_7.not.i.i.i.i = icmp eq i64 %count.i.i.i.i, 0
  %addr.i.i.i.i = or i64 %count.i.i.i.i, 1
  %3 = inttoptr i64 %addr.i.i.i.i to ptr
  %_6.sroa.0.0.i.i.i.i = select i1 %_7.not.i.i.i.i, ptr null, ptr %3
  br label %bb3.i.i.i

_RNCNvMs1_NtNtNtNtCs5sEH5CPMdak_3std3sys4sync6rwlock5queueNtB7_6RwLock11read_unlock0CslbzLHi4tcfW_9indicatif.exit.i.i.i: ; preds = %bb1.i.i.i
  %_9.i.i.i.i = and i64 %_4.i.i.i.i, 8
  %.not.i.i.i.i = icmp eq i64 %_9.i.i.i.i, 0
  %4 = tail call nonnull align 2 ptr @llvm.ptrmask.p0.i64(ptr %prev.sroa.0.0.i.i.i, i64 -10)
  br i1 %.not.i.i.i.i, label %bb3.i.i, label %bb3.i.i.i, !prof !363

bb3.i.i.i:                                        ; preds = %_RNCNvMs1_NtNtNtNtCs5sEH5CPMdak_3std3sys4sync6rwlock5queueNtB7_6RwLock11read_unlock0CslbzLHi4tcfW_9indicatif.exit.i.i.i, %_RNCNvMs1_NtNtNtNtCs5sEH5CPMdak_3std3sys4sync6rwlock5queueNtB7_6RwLock11read_unlock0CslbzLHi4tcfW_9indicatif.exit.thread.i.i.i
  %_0.sroa.4.0.i7.i.i.i = phi ptr [ %_6.sroa.0.0.i.i.i.i, %_RNCNvMs1_NtNtNtNtCs5sEH5CPMdak_3std3sys4sync6rwlock5queueNtB7_6RwLock11read_unlock0CslbzLHi4tcfW_9indicatif.exit.thread.i.i.i ], [ %4, %_RNCNvMs1_NtNtNtNtCs5sEH5CPMdak_3std3sys4sync6rwlock5queueNtB7_6RwLock11read_unlock0CslbzLHi4tcfW_9indicatif.exit.i.i.i ]
  %5 = cmpxchg weak ptr %self1.i.i, ptr %prev.sroa.0.0.i.i.i, ptr %_0.sroa.4.0.i7.i.i.i release acquire, align 8, !noalias !362
  %_8.sroa.18.0.in.i.i.i.i = extractvalue { ptr, i1 } %5, 1
  %_8.sroa.0.0.i.i.i.i = extractvalue { ptr, i1 } %5, 0
  br i1 %_8.sroa.18.0.in.i.i.i.i, label %_RINvNtCsjMrxcFdYDNN_4core3ptr13drop_in_placeINtNtNtNtCs5sEH5CPMdak_3std4sync6poison6rwlock15RwLockReadGuardNtNtCslbzLHi4tcfW_9indicatif5multi10MultiStateEEB1L_.exit, label %bb1.i.i.i

bb3.i.i:                                          ; preds = %_RNCNvMs1_NtNtNtNtCs5sEH5CPMdak_3std3sys4sync6rwlock5queueNtB7_6RwLock11read_unlock0CslbzLHi4tcfW_9indicatif.exit.i.i.i
; call <std::sys::sync::rwlock::queue::RwLock>::read_unlock_contended
  tail call void @_RNvMs1_NtNtNtNtCs5sEH5CPMdak_3std3sys4sync6rwlock5queueNtB5_6RwLock21read_unlock_contended(ptr noundef nonnull align 8 %self1.i.i, ptr noundef %prev.sroa.0.0.i.i.i), !noalias !362
  br label %_RINvNtCsjMrxcFdYDNN_4core3ptr13drop_in_placeINtNtNtNtCs5sEH5CPMdak_3std4sync6poison6rwlock15RwLockReadGuardNtNtCslbzLHi4tcfW_9indicatif5multi10MultiStateEEB1L_.exit

_RINvNtCsjMrxcFdYDNN_4core3ptr13drop_in_placeINtNtNtNtCs5sEH5CPMdak_3std4sync6poison6rwlock15RwLockReadGuardNtNtCslbzLHi4tcfW_9indicatif5multi10MultiStateEEB1L_.exit: ; preds = %bb3.i.i.i, %bb3.i.i
  ret void
}

; core::ptr::drop_in_place::<std::sync::poison::PoisonError<std::sync::poison::rwlock::RwLockWriteGuard<indicatif::multi::MultiState>>>
; Function Attrs: uwtable
define internal void @_RINvNtCsjMrxcFdYDNN_4core3ptr13drop_in_placeINtNtNtCs5sEH5CPMdak_3std4sync6poison11PoisonErrorINtNtBJ_6rwlock16RwLockWriteGuardNtNtCslbzLHi4tcfW_9indicatif5multi10MultiStateEEEB25_(ptr noalias noundef readonly align 8 captures(none) dereferenceable(16) %_1) unnamed_addr #3 {
start:
  %_1.val = load ptr, ptr %_1, align 8, !nonnull !13, !align !310, !noundef !13
  %0 = getelementptr inbounds nuw i8, ptr %_1, i64 8
  %_1.val1 = load i8, ptr %0, align 8, !range !355, !noundef !13
  %_3.i.i = getelementptr inbounds nuw i8, ptr %_1.val, i64 8
  %_3.i.i.i = trunc nuw i8 %_1.val1 to i1
  br i1 %_3.i.i.i, label %_RNvMNtNtCs5sEH5CPMdak_3std4sync6poisonNtB2_4Flag4done.exit.i.i, label %bb1.i.i.i

bb1.i.i.i:                                        ; preds = %start
  %1 = load atomic i64, ptr @_RNvNtNtCs5sEH5CPMdak_3std9panicking11panic_count18GLOBAL_PANIC_COUNT monotonic, align 8
  %_7.i.i.i = and i64 %1, 9223372036854775807
  %2 = icmp eq i64 %_7.i.i.i, 0
  br i1 %2, label %_RNvMNtNtCs5sEH5CPMdak_3std4sync6poisonNtB2_4Flag4done.exit.i.i, label %bb6.i.i.i, !prof !5

bb6.i.i.i:                                        ; preds = %bb1.i.i.i
; call std::panicking::panic_count::is_zero_slow_path
  %_6.i.i.i = tail call noundef zeroext i1 @_RNvNtNtCs5sEH5CPMdak_3std9panicking11panic_count17is_zero_slow_path() #35
  br i1 %_6.i.i.i, label %_RNvMNtNtCs5sEH5CPMdak_3std4sync6poisonNtB2_4Flag4done.exit.i.i, label %bb2.i.i.i

bb2.i.i.i:                                        ; preds = %bb6.i.i.i
  store atomic i8 1, ptr %_3.i.i monotonic, align 8
  br label %_RNvMNtNtCs5sEH5CPMdak_3std4sync6poisonNtB2_4Flag4done.exit.i.i

_RNvMNtNtCs5sEH5CPMdak_3std4sync6poisonNtB2_4Flag4done.exit.i.i: ; preds = %bb2.i.i.i, %bb6.i.i.i, %bb1.i.i.i, %start
  %3 = cmpxchg ptr %_1.val, ptr inttoptr (i64 1 to ptr), ptr null release monotonic, align 8
  %4 = extractvalue { ptr, i1 } %3, 1
  br i1 %4, label %_RINvNtCsjMrxcFdYDNN_4core3ptr13drop_in_placeINtNtNtNtCs5sEH5CPMdak_3std4sync6poison6rwlock16RwLockWriteGuardNtNtCslbzLHi4tcfW_9indicatif5multi10MultiStateEEB1M_.exit, label %bb3.i.i, !prof !5

bb3.i.i:                                          ; preds = %_RNvMNtNtCs5sEH5CPMdak_3std4sync6poisonNtB2_4Flag4done.exit.i.i
  %5 = extractvalue { ptr, i1 } %3, 0
; call <std::sys::sync::rwlock::queue::RwLock>::unlock_contended
  tail call void @_RNvMs1_NtNtNtNtCs5sEH5CPMdak_3std3sys4sync6rwlock5queueNtB5_6RwLock16unlock_contended(ptr noundef nonnull align 8 %_1.val, ptr noundef %5)
  br label %_RINvNtCsjMrxcFdYDNN_4core3ptr13drop_in_placeINtNtNtNtCs5sEH5CPMdak_3std4sync6poison6rwlock16RwLockWriteGuardNtNtCslbzLHi4tcfW_9indicatif5multi10MultiStateEEB1M_.exit

_RINvNtCsjMrxcFdYDNN_4core3ptr13drop_in_placeINtNtNtNtCs5sEH5CPMdak_3std4sync6poison6rwlock16RwLockWriteGuardNtNtCslbzLHi4tcfW_9indicatif5multi10MultiStateEEB1M_.exit: ; preds = %_RNvMNtNtCs5sEH5CPMdak_3std4sync6poisonNtB2_4Flag4done.exit.i.i, %bb3.i.i
  ret void
}

; core::ptr::drop_in_place::<std::sync::poison::PoisonError<(std::sync::poison::mutex::MutexGuard<bool>, std::sync::WaitTimeoutResult)>>
; Function Attrs: uwtable
define internal void @_RINvNtCsjMrxcFdYDNN_4core3ptr13drop_in_placeINtNtNtCs5sEH5CPMdak_3std4sync6poison11PoisonErrorTINtNtBJ_5mutex10MutexGuardbENtBL_17WaitTimeoutResultEEECslbzLHi4tcfW_9indicatif(ptr noalias noundef readonly align 8 captures(none) dereferenceable(24) %_1) unnamed_addr #3 {
start:
  %_1.val = load ptr, ptr %_1, align 8, !nonnull !13, !align !310, !noundef !13
  %0 = getelementptr inbounds nuw i8, ptr %_1, i64 8
  %_1.val1 = load i8, ptr %0, align 8, !range !355, !noundef !13
  %_3.i.i.i = getelementptr inbounds nuw i8, ptr %_1.val, i64 8
  %_3.i.i.i.i = trunc nuw i8 %_1.val1 to i1
  br i1 %_3.i.i.i.i, label %_RINvNtCsjMrxcFdYDNN_4core3ptr13drop_in_placeTINtNtNtNtCs5sEH5CPMdak_3std4sync6poison5mutex10MutexGuardbENtBO_17WaitTimeoutResultEECslbzLHi4tcfW_9indicatif.exit, label %bb1.i.i.i.i

bb1.i.i.i.i:                                      ; preds = %start
  %1 = load atomic i64, ptr @_RNvNtNtCs5sEH5CPMdak_3std9panicking11panic_count18GLOBAL_PANIC_COUNT monotonic, align 8
  %_7.i.i.i.i = and i64 %1, 9223372036854775807
  %2 = icmp eq i64 %_7.i.i.i.i, 0
  br i1 %2, label %_RINvNtCsjMrxcFdYDNN_4core3ptr13drop_in_placeTINtNtNtNtCs5sEH5CPMdak_3std4sync6poison5mutex10MutexGuardbENtBO_17WaitTimeoutResultEECslbzLHi4tcfW_9indicatif.exit, label %bb6.i.i.i.i, !prof !5

bb6.i.i.i.i:                                      ; preds = %bb1.i.i.i.i
; call std::panicking::panic_count::is_zero_slow_path
  %_6.i.i.i.i = tail call noundef zeroext i1 @_RNvNtNtCs5sEH5CPMdak_3std9panicking11panic_count17is_zero_slow_path() #35
  br i1 %_6.i.i.i.i, label %_RINvNtCsjMrxcFdYDNN_4core3ptr13drop_in_placeTINtNtNtNtCs5sEH5CPMdak_3std4sync6poison5mutex10MutexGuardbENtBO_17WaitTimeoutResultEECslbzLHi4tcfW_9indicatif.exit, label %bb2.i.i.i.i

bb2.i.i.i.i:                                      ; preds = %bb6.i.i.i.i
  store atomic i8 1, ptr %_3.i.i.i monotonic, align 8
  br label %_RINvNtCsjMrxcFdYDNN_4core3ptr13drop_in_placeTINtNtNtNtCs5sEH5CPMdak_3std4sync6poison5mutex10MutexGuardbENtBO_17WaitTimeoutResultEECslbzLHi4tcfW_9indicatif.exit

_RINvNtCsjMrxcFdYDNN_4core3ptr13drop_in_placeTINtNtNtNtCs5sEH5CPMdak_3std4sync6poison5mutex10MutexGuardbENtBO_17WaitTimeoutResultEECslbzLHi4tcfW_9indicatif.exit: ; preds = %start, %bb1.i.i.i.i, %bb6.i.i.i.i, %bb2.i.i.i.i
  %3 = load atomic ptr, ptr %_1.val monotonic, align 8
; call <std::sys::pal::unix::sync::mutex::Mutex>::unlock
  tail call void @_RNvMNtNtNtNtNtCs5sEH5CPMdak_3std3sys3pal4unix4sync5mutexNtB2_5Mutex6unlock(ptr noundef nonnull align 8 %3)
  ret void
}

; core::ptr::drop_in_place::<std::sync::once_lock::OnceLock<alloc::string::String>>
; Function Attrs: uwtable
define internal fastcc void @_RINvNtCsjMrxcFdYDNN_4core3ptr13drop_in_placeINtNtNtCs5sEH5CPMdak_3std4sync9once_lock8OnceLockNtNtCsdJPVW0sQgAG_5alloc6string6StringEECslbzLHi4tcfW_9indicatif(ptr noalias noundef nonnull readonly align 8 captures(none) dereferenceable(32) %_1) unnamed_addr #3 personality ptr @rust_eh_personality {
start:
  tail call void @llvm.experimental.noalias.scope.decl(metadata !364)
  %self.val.i = load ptr, ptr %_1, align 8, !alias.scope !364, !noundef !13
  %_6.i.i = ptrtoint ptr %self.val.i to i64
  switch i64 %_6.i.i, label %bb1.i.i [
    i64 3, label %_RNvXs9_NtNtCs5sEH5CPMdak_3std4sync9once_lockINtB5_8OnceLockNtNtCsdJPVW0sQgAG_5alloc6string6StringENtNtNtCsjMrxcFdYDNN_4core3ops4drop4Drop4dropCslbzLHi4tcfW_9indicatif.exit
    i64 2, label %_RNvXs9_NtNtCs5sEH5CPMdak_3std4sync9once_lockINtB5_8OnceLockNtNtCsdJPVW0sQgAG_5alloc6string6StringENtNtNtCsjMrxcFdYDNN_4core3ops4drop4Drop4dropCslbzLHi4tcfW_9indicatif.exit
    i64 0, label %bb2.i
  ], !prof !367

bb1.i.i:                                          ; preds = %start
; call core::panicking::panic_fmt
  tail call void @_RNvNtCsjMrxcFdYDNN_4core9panicking9panic_fmt(ptr noundef nonnull @alloc_a931397211c33a1c8fe0d17838460834, ptr noundef nonnull inttoptr (i64 121 to ptr), ptr noalias noundef readonly align 8 captures(address, read_provenance) dereferenceable(24) @alloc_74802a7f2e82cc98725e50da6efeabcf) #36, !noalias !364
  unreachable

bb2.i:                                            ; preds = %start
  %_7.i = getelementptr inbounds nuw i8, ptr %_1, i64 8
  tail call void @llvm.experimental.noalias.scope.decl(metadata !368)
  %_1.val.i.i = load i64, ptr %_7.i, align 8, !alias.scope !371
  %0 = icmp eq i64 %_1.val.i.i, 0
  br i1 %0, label %_RNvXs9_NtNtCs5sEH5CPMdak_3std4sync9once_lockINtB5_8OnceLockNtNtCsdJPVW0sQgAG_5alloc6string6StringENtNtNtCsjMrxcFdYDNN_4core3ops4drop4Drop4dropCslbzLHi4tcfW_9indicatif.exit, label %bb2.i.i.i4.i.i.i

bb2.i.i.i4.i.i.i:                                 ; preds = %bb2.i
  %1 = getelementptr inbounds nuw i8, ptr %_1, i64 16
  %_1.val1.i.i = load ptr, ptr %1, align 8, !alias.scope !371, !nonnull !13, !noundef !13
; call __rustc::__rust_dealloc
  tail call void @_RNvCsKhRCbHf33p_7___rustc14___rust_dealloc(ptr noundef nonnull %_1.val1.i.i, i64 noundef %_1.val.i.i, i64 noundef range(i64 1, -9223372036854775807) 1) #30, !noalias !371
  br label %_RNvXs9_NtNtCs5sEH5CPMdak_3std4sync9once_lockINtB5_8OnceLockNtNtCsdJPVW0sQgAG_5alloc6string6StringENtNtNtCsjMrxcFdYDNN_4core3ops4drop4Drop4dropCslbzLHi4tcfW_9indicatif.exit

_RNvXs9_NtNtCs5sEH5CPMdak_3std4sync9once_lockINtB5_8OnceLockNtNtCsdJPVW0sQgAG_5alloc6string6StringENtNtNtCsjMrxcFdYDNN_4core3ops4drop4Drop4dropCslbzLHi4tcfW_9indicatif.exit: ; preds = %start, %start, %bb2.i, %bb2.i.i.i4.i.i.i
  ret void
}

; core::ptr::drop_in_place::<std::thread::lifecycle::Packet<()>>
; Function Attrs: uwtable
define internal fastcc void @_RINvNtCsjMrxcFdYDNN_4core3ptr13drop_in_placeINtNtNtCs5sEH5CPMdak_3std6thread9lifecycle6PacketuEECslbzLHi4tcfW_9indicatif(ptr noalias noundef nonnull align 8 captures(none) dereferenceable(32) %_1) unnamed_addr #3 personality ptr @rust_eh_personality {
start:
  %_11.i = alloca [0 x i8], align 1
  %_12.i = alloca [8 x i8], align 8
  tail call void @llvm.experimental.noalias.scope.decl(metadata !372)
  call void @llvm.lifetime.start.p0(i64 0, ptr nonnull %_11.i)
  %0 = getelementptr inbounds nuw i8, ptr %_1, i64 8
  %_5.i = load i64, ptr %0, align 8, !range !55, !alias.scope !372, !noundef !13
  %1 = trunc nuw i64 %_5.i to i1
  %2 = getelementptr inbounds nuw i8, ptr %_1, i64 16
  %3 = load ptr, ptr %2, align 8, !alias.scope !372, !align !78
  %4 = icmp ne ptr %3, null
  %unhandled_panic.sroa.0.0.off0.i = select i1 %1, i1 %4, i1 false
  tail call void @llvm.experimental.noalias.scope.decl(metadata !375)
  tail call void @llvm.experimental.noalias.scope.decl(metadata !378)
  tail call void @llvm.experimental.noalias.scope.decl(metadata !381)
  %5 = icmp eq i64 %_5.i, 0
  br i1 %5, label %bb17.thread.i, label %bb2.i.i.i.i.i.i

bb2.i.i.i.i.i.i:                                  ; preds = %start
  %6 = getelementptr inbounds nuw i8, ptr %_1, i64 24
  %.val1.i.i.i.i.i.i = load ptr, ptr %6, align 8, !alias.scope !384
  %7 = icmp eq ptr %3, null
  br i1 %7, label %bb17.thread.i, label %bb2.i.i.i.i.i.i.i

bb2.i.i.i.i.i.i.i:                                ; preds = %bb2.i.i.i.i.i.i
  %8 = icmp ne ptr %.val1.i.i.i.i.i.i, null
  tail call void @llvm.assume(i1 %8)
  %9 = load ptr, ptr %.val1.i.i.i.i.i.i, align 8, !invariant.load !13, !noalias !384
  %.not.i.i.i.i.i.i.i.i = icmp eq ptr %9, null
  br i1 %.not.i.i.i.i.i.i.i.i, label %bb3.i.i.i.i.i.i.i.i, label %is_not_null.i.i.i.i.i.i.i.i

is_not_null.i.i.i.i.i.i.i.i:                      ; preds = %bb2.i.i.i.i.i.i.i
  invoke void %9(ptr noundef nonnull %3)
          to label %bb3.i.i.i.i.i.i.i.i unwind label %cleanup.i.i.i.i.i.i.i.i, !noalias !384

bb3.i.i.i.i.i.i.i.i:                              ; preds = %is_not_null.i.i.i.i.i.i.i.i, %bb2.i.i.i.i.i.i.i
  %10 = getelementptr inbounds nuw i8, ptr %.val1.i.i.i.i.i.i, i64 8
  %11 = load i64, ptr %10, align 8, !range !59, !invariant.load !13, !noalias !384
  %12 = getelementptr inbounds nuw i8, ptr %.val1.i.i.i.i.i.i, i64 16
  %13 = load i64, ptr %12, align 8, !range !79, !invariant.load !13, !noalias !384
  %14 = add i64 %13, -1
  %15 = icmp sgt i64 %14, -1
  tail call void @llvm.assume(i1 %15)
  %16 = icmp eq i64 %11, 0
  br i1 %16, label %bb17.thread.i, label %_RNvXs_NtCsdJPVW0sQgAG_5alloc5allocNtB4_6GlobalNtNtCsjMrxcFdYDNN_4core5alloc9Allocator10deallocate.exit.i.i.i.i.i.i.i.i.i

_RNvXs_NtCsdJPVW0sQgAG_5alloc5allocNtB4_6GlobalNtNtCsjMrxcFdYDNN_4core5alloc9Allocator10deallocate.exit.i.i.i.i.i.i.i.i.i: ; preds = %bb3.i.i.i.i.i.i.i.i
; call __rustc::__rust_dealloc
  tail call void @_RNvCsKhRCbHf33p_7___rustc14___rust_dealloc(ptr noundef nonnull %3, i64 noundef %11, i64 noundef range(i64 1, -9223372036854775807) %13) #30, !noalias !384
  br label %bb17.thread.i

cleanup.i.i.i.i.i.i.i.i:                          ; preds = %is_not_null.i.i.i.i.i.i.i.i
  %17 = landingpad { ptr, i32 }
          cleanup
          catch ptr null
  %18 = getelementptr inbounds nuw i8, ptr %.val1.i.i.i.i.i.i, i64 8
  %19 = load i64, ptr %18, align 8, !range !59, !invariant.load !13, !noalias !384
  %20 = getelementptr inbounds nuw i8, ptr %.val1.i.i.i.i.i.i, i64 16
  %21 = load i64, ptr %20, align 8, !range !79, !invariant.load !13, !noalias !384
  %22 = add i64 %21, -1
  %23 = icmp sgt i64 %22, -1
  tail call void @llvm.assume(i1 %23)
  %24 = icmp eq i64 %19, 0
  br i1 %24, label %cleanup.body.i.i.i.i.i, label %_RNvXs_NtCsdJPVW0sQgAG_5alloc5allocNtB4_6GlobalNtNtCsjMrxcFdYDNN_4core5alloc9Allocator10deallocate.exit.i4.i.i.i.i.i.i.i.i

_RNvXs_NtCsdJPVW0sQgAG_5alloc5allocNtB4_6GlobalNtNtCsjMrxcFdYDNN_4core5alloc9Allocator10deallocate.exit.i4.i.i.i.i.i.i.i.i: ; preds = %cleanup.i.i.i.i.i.i.i.i
; call __rustc::__rust_dealloc
  tail call void @_RNvCsKhRCbHf33p_7___rustc14___rust_dealloc(ptr noundef nonnull %3, i64 noundef %19, i64 noundef range(i64 1, -9223372036854775807) %21) #30, !noalias !384
  br label %cleanup.body.i.i.i.i.i

cleanup.body.i.i.i.i.i:                           ; preds = %_RNvXs_NtCsdJPVW0sQgAG_5alloc5allocNtB4_6GlobalNtNtCsjMrxcFdYDNN_4core5alloc9Allocator10deallocate.exit.i4.i.i.i.i.i.i.i.i, %cleanup.i.i.i.i.i.i.i.i
  store i64 0, ptr %0, align 8, !alias.scope !385
  %25 = extractvalue { ptr, i32 } %17, 0
; invoke std::panicking::catch_unwind::cleanup
  %26 = invoke { ptr, ptr } @_RNvNvNtCs5sEH5CPMdak_3std9panicking12catch_unwind7cleanup(ptr noundef %25)
          to label %bb17.i unwind label %terminate.i.i, !noalias !372

terminate.i.i:                                    ; preds = %cleanup.body.i.i.i.i.i
  %27 = landingpad { ptr, i32 }
          filter [0 x ptr] zeroinitializer
; call core::panicking::panic_cannot_unwind
  tail call void @_RNvNtCsjMrxcFdYDNN_4core9panicking19panic_cannot_unwind() #32, !noalias !372
  unreachable

bb17.thread.i:                                    ; preds = %_RNvXs_NtCsdJPVW0sQgAG_5alloc5allocNtB4_6GlobalNtNtCsjMrxcFdYDNN_4core5alloc9Allocator10deallocate.exit.i.i.i.i.i.i.i.i.i, %bb3.i.i.i.i.i.i.i.i, %bb2.i.i.i.i.i.i, %start
  store i64 0, ptr %0, align 8, !alias.scope !385
  br label %_RINvNtCsjMrxcFdYDNN_4core3ptr13drop_in_placeINtNtB4_6result6ResultuINtNtCsdJPVW0sQgAG_5alloc5boxed3BoxDNtNtB4_3any3AnyNtNtB4_6marker4SendEL_EEECslbzLHi4tcfW_9indicatif.exit.i

bb17.i:                                           ; preds = %cleanup.body.i.i.i.i.i
  %obj.0.i.i = extractvalue { ptr, ptr } %26, 0
  %obj.1.i.i = extractvalue { ptr, ptr } %26, 1
  %28 = icmp ne ptr %obj.1.i.i, null
  tail call void @llvm.assume(i1 %28)
  %.not.i = icmp eq ptr %obj.0.i.i, null
  br i1 %.not.i, label %_RINvNtCsjMrxcFdYDNN_4core3ptr13drop_in_placeINtNtB4_6result6ResultuINtNtCsdJPVW0sQgAG_5alloc5boxed3BoxDNtNtB4_3any3AnyNtNtB4_6marker4SendEL_EEECslbzLHi4tcfW_9indicatif.exit.i, label %bb4.i

bb4.i:                                            ; preds = %bb17.i
  call void @llvm.lifetime.start.p0(i64 8, ptr nonnull %_12.i), !noalias !372
; invoke <std::sys::stdio::unix::Stderr as std::io::Write>::write_all
  %29 = invoke fastcc noundef ptr @_RNvYNtNtNtNtCs5sEH5CPMdak_3std3sys5stdio4unix6StderrNtNtBa_2io5Write9write_allCslbzLHi4tcfW_9indicatif(ptr noalias noundef nonnull align 1 %_11.i, ptr noalias noundef nonnull readonly align 1 captures(address, read_provenance) @alloc_58f213f5b48e0bea76ba0b429606a6b5, i64 noundef 62)
          to label %bb5.i unwind label %cleanup.i, !noalias !372

_RINvNtCsjMrxcFdYDNN_4core3ptr13drop_in_placeINtNtB4_6result6ResultuINtNtCsdJPVW0sQgAG_5alloc5boxed3BoxDNtNtB4_3any3AnyNtNtB4_6marker4SendEL_EEECslbzLHi4tcfW_9indicatif.exit.i: ; preds = %bb17.i, %bb17.thread.i
  %30 = load ptr, ptr %_1, align 8, !alias.scope !372, !noundef !13
  %.not2.i = icmp eq ptr %30, null
  br i1 %.not2.i, label %bb6.thread, label %bb9.i

bb6.thread:                                       ; preds = %_RINvNtCsjMrxcFdYDNN_4core3ptr13drop_in_placeINtNtB4_6result6ResultuINtNtCsdJPVW0sQgAG_5alloc5boxed3BoxDNtNtB4_3any3AnyNtNtB4_6marker4SendEL_EEECslbzLHi4tcfW_9indicatif.exit.i
  call void @llvm.lifetime.end.p0(i64 0, ptr nonnull %_11.i)
  br label %bb5

cleanup.i:                                        ; preds = %bb6.i, %bb2.i6.i, %bb4.i
  %31 = landingpad { ptr, i32 }
          cleanup
; invoke core::ptr::drop_in_place::<core::result::Result<(), alloc::boxed::Box<dyn core::any::Any + core::marker::Send>>>
  invoke fastcc void @_RINvNtCsjMrxcFdYDNN_4core3ptr13drop_in_placeINtNtB4_6result6ResultuINtNtCsdJPVW0sQgAG_5alloc5boxed3BoxDNtNtB4_3any3AnyNtNtB4_6marker4SendEL_EEECslbzLHi4tcfW_9indicatif(ptr nonnull %obj.0.i.i, ptr nonnull %obj.1.i.i) #33
          to label %cleanup.body unwind label %terminate.i, !noalias !372

bb5.i:                                            ; preds = %bb4.i
  store ptr %29, ptr %_12.i, align 8, !noalias !372
  %32 = icmp eq ptr %29, null
  br i1 %32, label %bb6.i, label %bb2.i6.i

bb2.i6.i:                                         ; preds = %bb5.i
; invoke core::ptr::drop_in_place::<std::io::error::Error>
  invoke void @_RINvNtCsjMrxcFdYDNN_4core3ptr13drop_in_placeNtNtNtCs5sEH5CPMdak_3std2io5error5ErrorECslbzLHi4tcfW_9indicatif(ptr noalias noundef nonnull readonly align 8 dereferenceable(8) %_12.i)
          to label %bb6.i unwind label %cleanup.i, !noalias !372

bb6.i:                                            ; preds = %bb2.i6.i, %bb5.i
  call void @llvm.lifetime.end.p0(i64 8, ptr nonnull %_12.i), !noalias !372
; invoke std::process::abort
  invoke void @_RNvNtCs5sEH5CPMdak_3std7process5abort() #31
          to label %unreachable.i unwind label %cleanup.i, !noalias !372

unreachable.i:                                    ; preds = %bb6.i
  unreachable

terminate.i:                                      ; preds = %cleanup.i
  %33 = landingpad { ptr, i32 }
          filter [0 x ptr] zeroinitializer
; call core::panicking::panic_in_cleanup
  call void @_RNvNtCsjMrxcFdYDNN_4core9panicking16panic_in_cleanup() #32, !noalias !372
  unreachable

bb9.i:                                            ; preds = %_RINvNtCsjMrxcFdYDNN_4core3ptr13drop_in_placeINtNtB4_6result6ResultuINtNtCsdJPVW0sQgAG_5alloc5boxed3BoxDNtNtB4_3any3AnyNtNtB4_6marker4SendEL_EEECslbzLHi4tcfW_9indicatif.exit.i
  %_19.i = getelementptr inbounds nuw i8, ptr %30, i64 16
; invoke <std::thread::scoped::ScopeData>::decrement_num_running_threads
  invoke void @_RNvMNtNtCs5sEH5CPMdak_3std6thread6scopedNtB2_9ScopeData29decrement_num_running_threads(ptr noundef nonnull align 8 %_19.i, i1 noundef zeroext %unhandled_panic.sroa.0.0.off0.i)
          to label %bb2.i4 unwind label %cleanup.body.thread

cleanup.body.thread:                              ; preds = %bb9.i
  %34 = landingpad { ptr, i32 }
          cleanup
  br label %bb2.i

cleanup.body:                                     ; preds = %cleanup.i
  %.pre = load ptr, ptr %_1, align 8, !alias.scope !386
  call void @llvm.experimental.noalias.scope.decl(metadata !386)
  %35 = icmp eq ptr %.pre, null
  br i1 %35, label %bb3, label %bb2.i

bb2.i:                                            ; preds = %cleanup.body.thread, %cleanup.body
  %eh.lpad-body10 = phi { ptr, i32 } [ %34, %cleanup.body.thread ], [ %31, %cleanup.body ]
  %36 = phi ptr [ %30, %cleanup.body.thread ], [ %.pre, %cleanup.body ]
  %37 = atomicrmw sub ptr %36, i64 1 release, align 8, !noalias !389
  %38 = icmp eq i64 %37, 1
  br i1 %38, label %bb2.i.i.i, label %bb3

bb2.i.i.i:                                        ; preds = %bb2.i
  fence acquire
; invoke <alloc::sync::Arc<std::thread::scoped::ScopeData>>::drop_slow
  invoke void @_RNvMsn_NtCsdJPVW0sQgAG_5alloc4syncINtB5_3ArcNtNtNtCs5sEH5CPMdak_3std6thread6scoped9ScopeDataE9drop_slowCslbzLHi4tcfW_9indicatif(ptr noalias noundef nonnull readonly align 8 dereferenceable(8) %_1) #35
          to label %bb3 unwind label %terminate

bb2.i4:                                           ; preds = %bb9.i
  call void @llvm.lifetime.end.p0(i64 0, ptr nonnull %_11.i)
  %39 = atomicrmw sub ptr %30, i64 1 release, align 8, !noalias !394
  %40 = icmp eq i64 %39, 1
  br i1 %40, label %bb2.i.i.i5, label %bb5

bb2.i.i.i5:                                       ; preds = %bb2.i4
  fence acquire
; invoke <alloc::sync::Arc<std::thread::scoped::ScopeData>>::drop_slow
  invoke void @_RNvMsn_NtCsdJPVW0sQgAG_5alloc4syncINtB5_3ArcNtNtNtCs5sEH5CPMdak_3std6thread6scoped9ScopeDataE9drop_slowCslbzLHi4tcfW_9indicatif(ptr noalias noundef nonnull readonly align 8 dereferenceable(8) %_1) #35
          to label %bb5 unwind label %cleanup1

bb3:                                              ; preds = %bb2.i, %cleanup.body, %bb2.i.i.i, %cleanup1
  %.pn = phi { ptr, i32 } [ %41, %cleanup1 ], [ %eh.lpad-body10, %bb2.i.i.i ], [ %31, %cleanup.body ], [ %eh.lpad-body10, %bb2.i ]
; invoke core::ptr::drop_in_place::<core::cell::UnsafeCell<core::option::Option<core::result::Result<(), alloc::boxed::Box<dyn core::any::Any + core::marker::Send>>>>>
  invoke fastcc void @_RINvNtCsjMrxcFdYDNN_4core3ptr13drop_in_placeINtNtB4_4cell10UnsafeCellINtNtB4_6option6OptionINtNtB4_6result6ResultuINtNtCsdJPVW0sQgAG_5alloc5boxed3BoxDNtNtB4_3any3AnyNtNtB4_6marker4SendEL_EEEEECslbzLHi4tcfW_9indicatif(ptr noalias noundef align 8 dereferenceable(24) %0) #33
          to label %common.resume unwind label %terminate

cleanup1:                                         ; preds = %bb2.i.i.i5
  %41 = landingpad { ptr, i32 }
          cleanup
  br label %bb3

bb5:                                              ; preds = %bb2.i4, %bb6.thread, %bb2.i.i.i5
  tail call void @llvm.experimental.noalias.scope.decl(metadata !401)
  tail call void @llvm.experimental.noalias.scope.decl(metadata !404)
  %_2.i.i = load i64, ptr %0, align 8, !range !55, !alias.scope !407, !noundef !13
  %42 = icmp eq i64 %_2.i.i, 0
  br i1 %42, label %_RINvNtCsjMrxcFdYDNN_4core3ptr13drop_in_placeINtNtB4_4cell10UnsafeCellINtNtB4_6option6OptionINtNtB4_6result6ResultuINtNtCsdJPVW0sQgAG_5alloc5boxed3BoxDNtNtB4_3any3AnyNtNtB4_6marker4SendEL_EEEEECslbzLHi4tcfW_9indicatif.exit, label %bb2.i.i

bb2.i.i:                                          ; preds = %bb5
  %.val.i.i = load ptr, ptr %2, align 8, !alias.scope !407, !align !78, !noundef !13
  %43 = getelementptr inbounds nuw i8, ptr %_1, i64 24
  %.val1.i.i = load ptr, ptr %43, align 8, !alias.scope !407
  %44 = icmp eq ptr %.val.i.i, null
  br i1 %44, label %_RINvNtCsjMrxcFdYDNN_4core3ptr13drop_in_placeINtNtB4_4cell10UnsafeCellINtNtB4_6option6OptionINtNtB4_6result6ResultuINtNtCsdJPVW0sQgAG_5alloc5boxed3BoxDNtNtB4_3any3AnyNtNtB4_6marker4SendEL_EEEEECslbzLHi4tcfW_9indicatif.exit, label %bb2.i.i.i8

bb2.i.i.i8:                                       ; preds = %bb2.i.i
  %45 = icmp ne ptr %.val1.i.i, null
  tail call void @llvm.assume(i1 %45)
  %46 = load ptr, ptr %.val1.i.i, align 8, !invariant.load !13, !noalias !407
  %.not.i.i.i.i = icmp eq ptr %46, null
  br i1 %.not.i.i.i.i, label %bb3.i.i.i.i, label %is_not_null.i.i.i.i

is_not_null.i.i.i.i:                              ; preds = %bb2.i.i.i8
  invoke void %46(ptr noundef nonnull %.val.i.i)
          to label %bb3.i.i.i.i unwind label %cleanup.i.i.i.i, !noalias !407

bb3.i.i.i.i:                                      ; preds = %is_not_null.i.i.i.i, %bb2.i.i.i8
  %47 = getelementptr inbounds nuw i8, ptr %.val1.i.i, i64 8
  %48 = load i64, ptr %47, align 8, !range !59, !invariant.load !13, !noalias !407
  %49 = getelementptr inbounds nuw i8, ptr %.val1.i.i, i64 16
  %50 = load i64, ptr %49, align 8, !range !79, !invariant.load !13, !noalias !407
  %51 = add i64 %50, -1
  %52 = icmp sgt i64 %51, -1
  tail call void @llvm.assume(i1 %52)
  %53 = icmp eq i64 %48, 0
  br i1 %53, label %_RINvNtCsjMrxcFdYDNN_4core3ptr13drop_in_placeINtNtB4_4cell10UnsafeCellINtNtB4_6option6OptionINtNtB4_6result6ResultuINtNtCsdJPVW0sQgAG_5alloc5boxed3BoxDNtNtB4_3any3AnyNtNtB4_6marker4SendEL_EEEEECslbzLHi4tcfW_9indicatif.exit, label %_RNvXs_NtCsdJPVW0sQgAG_5alloc5allocNtB4_6GlobalNtNtCsjMrxcFdYDNN_4core5alloc9Allocator10deallocate.exit.i.i.i.i.i

_RNvXs_NtCsdJPVW0sQgAG_5alloc5allocNtB4_6GlobalNtNtCsjMrxcFdYDNN_4core5alloc9Allocator10deallocate.exit.i.i.i.i.i: ; preds = %bb3.i.i.i.i
; call __rustc::__rust_dealloc
  tail call void @_RNvCsKhRCbHf33p_7___rustc14___rust_dealloc(ptr noundef nonnull %.val.i.i, i64 noundef %48, i64 noundef range(i64 1, -9223372036854775807) %50) #30, !noalias !407
  br label %_RINvNtCsjMrxcFdYDNN_4core3ptr13drop_in_placeINtNtB4_4cell10UnsafeCellINtNtB4_6option6OptionINtNtB4_6result6ResultuINtNtCsdJPVW0sQgAG_5alloc5boxed3BoxDNtNtB4_3any3AnyNtNtB4_6marker4SendEL_EEEEECslbzLHi4tcfW_9indicatif.exit

cleanup.i.i.i.i:                                  ; preds = %is_not_null.i.i.i.i
  %54 = landingpad { ptr, i32 }
          cleanup
  %55 = getelementptr inbounds nuw i8, ptr %.val1.i.i, i64 8
  %56 = load i64, ptr %55, align 8, !range !59, !invariant.load !13, !noalias !407
  %57 = getelementptr inbounds nuw i8, ptr %.val1.i.i, i64 16
  %58 = load i64, ptr %57, align 8, !range !79, !invariant.load !13, !noalias !407
  %59 = add i64 %58, -1
  %60 = icmp sgt i64 %59, -1
  tail call void @llvm.assume(i1 %60)
  %61 = icmp eq i64 %56, 0
  br i1 %61, label %common.resume, label %_RNvXs_NtCsdJPVW0sQgAG_5alloc5allocNtB4_6GlobalNtNtCsjMrxcFdYDNN_4core5alloc9Allocator10deallocate.exit.i4.i.i.i.i

_RNvXs_NtCsdJPVW0sQgAG_5alloc5allocNtB4_6GlobalNtNtCsjMrxcFdYDNN_4core5alloc9Allocator10deallocate.exit.i4.i.i.i.i: ; preds = %cleanup.i.i.i.i
; call __rustc::__rust_dealloc
  tail call void @_RNvCsKhRCbHf33p_7___rustc14___rust_dealloc(ptr noundef nonnull %.val.i.i, i64 noundef %56, i64 noundef range(i64 1, -9223372036854775807) %58) #30, !noalias !407
  br label %common.resume

common.resume:                                    ; preds = %bb3, %cleanup.i.i.i.i, %_RNvXs_NtCsdJPVW0sQgAG_5alloc5allocNtB4_6GlobalNtNtCsjMrxcFdYDNN_4core5alloc9Allocator10deallocate.exit.i4.i.i.i.i
  %common.resume.op = phi { ptr, i32 } [ %54, %_RNvXs_NtCsdJPVW0sQgAG_5alloc5allocNtB4_6GlobalNtNtCsjMrxcFdYDNN_4core5alloc9Allocator10deallocate.exit.i4.i.i.i.i ], [ %54, %cleanup.i.i.i.i ], [ %.pn, %bb3 ]
  resume { ptr, i32 } %common.resume.op

_RINvNtCsjMrxcFdYDNN_4core3ptr13drop_in_placeINtNtB4_4cell10UnsafeCellINtNtB4_6option6OptionINtNtB4_6result6ResultuINtNtCsdJPVW0sQgAG_5alloc5boxed3BoxDNtNtB4_3any3AnyNtNtB4_6marker4SendEL_EEEEECslbzLHi4tcfW_9indicatif.exit: ; preds = %bb5, %bb2.i.i, %bb3.i.i.i.i, %_RNvXs_NtCsdJPVW0sQgAG_5alloc5allocNtB4_6GlobalNtNtCsjMrxcFdYDNN_4core5alloc9Allocator10deallocate.exit.i.i.i.i.i
  ret void

terminate:                                        ; preds = %bb2.i.i.i, %bb3
  %62 = landingpad { ptr, i32 }
          filter [0 x ptr] zeroinitializer
; call core::panicking::panic_in_cleanup
  call void @_RNvNtCsjMrxcFdYDNN_4core9panicking16panic_in_cleanup() #32
  unreachable
}

; core::ptr::drop_in_place::<alloc::vec::drain::Drain<indicatif::draw_target::LineType>>
; Function Attrs: nounwind uwtable
define internal fastcc void @_RINvNtCsjMrxcFdYDNN_4core3ptr13drop_in_placeINtNtNtCsdJPVW0sQgAG_5alloc3vec5drain5DrainNtNtCslbzLHi4tcfW_9indicatif11draw_target8LineTypeEEB1r_(ptr noalias noundef nonnull align 8 captures(none) dereferenceable(40) %_1) unnamed_addr #4 personality ptr @rust_eh_personality {
start:
