; ModuleID = 'memchr.f592d6ebe2eba6cf-cgu.0'
source_filename = "memchr.f592d6ebe2eba6cf-cgu.0"
target datalayout = "e-m:o-p270:32:32-p271:32:32-p272:64:64-i64:64-i128:128-n32:64-S128-Fn32"
target triple = "arm64-apple-macosx11.0.0"

@alloc_d1084648e479974e70c9329824bf76f9 = private unnamed_addr constant [9 x i8] c"mid > len", align 1
@alloc_bf4267770dd5d9129ee6dfa17e37afe6 = private unnamed_addr constant [116 x i8] c"/Users/hongyaotang/.cargo/registry/src/index.crates.io-1949cf8c6b5b557f/memchr-2.7.6/src/arch/all/packedpair/mod.rs\00", align 1
@alloc_a02b20e72f77eb0a73bdd73f2b15e0ba = private unnamed_addr constant <{ ptr, [16 x i8] }> <{ ptr @alloc_bf4267770dd5d9129ee6dfa17e37afe6, [16 x i8] c"s\00\00\00\00\00\00\00M\00\00\00.\00\00\00" }>, align 8
@alloc_19b7b68ddf4510556a86b23f2a2fa46f = private unnamed_addr constant [108 x i8] c"/Users/hongyaotang/.cargo/registry/src/index.crates.io-1949cf8c6b5b557f/memchr-2.7.6/src/arch/all/twoway.rs\00", align 1
@alloc_4415b07e3fa2db327f519d78db21b365 = private unnamed_addr constant <{ ptr, [16 x i8] }> <{ ptr @alloc_19b7b68ddf4510556a86b23f2a2fa46f, [16 x i8] c"k\00\00\00\00\00\00\00\F8\00\00\00)\00\00\00" }>, align 8
@alloc_b5f6b846c7dcee1c93fc0227dd433502 = private unnamed_addr constant <{ ptr, [16 x i8] }> <{ ptr @alloc_19b7b68ddf4510556a86b23f2a2fa46f, [16 x i8] c"k\00\00\00\00\00\00\00\FD\00\00\004\00\00\00" }>, align 8
@alloc_e11d25f88235dccf68a7eb520ddd736c = private unnamed_addr constant <{ ptr, [16 x i8] }> <{ ptr @alloc_19b7b68ddf4510556a86b23f2a2fa46f, [16 x i8] c"k\00\00\00\00\00\00\00\04\01\00\00\18\00\00\00" }>, align 8
@alloc_d2f96fbe813dc611dfdb35b3a69e2d06 = private unnamed_addr constant <{ ptr, [16 x i8] }> <{ ptr @alloc_19b7b68ddf4510556a86b23f2a2fa46f, [16 x i8] c"k\00\00\00\00\00\00\00\04\01\00\00%\00\00\00" }>, align 8
@alloc_9603589c411b252a333a9a0812120f41 = private unnamed_addr constant <{ ptr, [16 x i8] }> <{ ptr @alloc_19b7b68ddf4510556a86b23f2a2fa46f, [16 x i8] c"k\00\00\00\00\00\00\00\F1\00\00\00.\00\00\00" }>, align 8
@alloc_aeeeb22db2d5d5c0ce586a9a14b48145 = private unnamed_addr constant <{ ptr, [16 x i8] }> <{ ptr @alloc_19b7b68ddf4510556a86b23f2a2fa46f, [16 x i8] c"k\00\00\00\00\00\00\00\C7\00\00\00)\00\00\00" }>, align 8
@alloc_c87148998ed7db37e08e1a2174257cfd = private unnamed_addr constant <{ ptr, [16 x i8] }> <{ ptr @alloc_19b7b68ddf4510556a86b23f2a2fa46f, [16 x i8] c"k\00\00\00\00\00\00\00\CC\00\00\004\00\00\00" }>, align 8
@alloc_e6fc43d669659d035dda2246f428dd3f = private unnamed_addr constant <{ ptr, [16 x i8] }> <{ ptr @alloc_19b7b68ddf4510556a86b23f2a2fa46f, [16 x i8] c"k\00\00\00\00\00\00\00\D4\00\00\00$\00\00\00" }>, align 8
@alloc_67af9fdc97abcb42f8f57ad5de47a1d1 = private unnamed_addr constant <{ ptr, [16 x i8] }> <{ ptr @alloc_19b7b68ddf4510556a86b23f2a2fa46f, [16 x i8] c"k\00\00\00\00\00\00\00\D4\00\00\001\00\00\00" }>, align 8
@alloc_e00afcc7fe7d99261f114a1ed7ce656f = private unnamed_addr constant <{ ptr, [16 x i8] }> <{ ptr @alloc_19b7b68ddf4510556a86b23f2a2fa46f, [16 x i8] c"k\00\00\00\00\00\00\00\D7\00\00\00\22\00\00\00" }>, align 8
@alloc_7fca3cb05edfdc4e500e3b12ac3ae190 = private unnamed_addr constant <{ ptr, [16 x i8] }> <{ ptr @alloc_19b7b68ddf4510556a86b23f2a2fa46f, [16 x i8] c"k\00\00\00\00\00\00\00\D7\00\00\003\00\00\00" }>, align 8
@alloc_9a8e2e0eec92e8db5a62ee08371b2445 = private unnamed_addr constant <{ ptr, [16 x i8] }> <{ ptr @alloc_19b7b68ddf4510556a86b23f2a2fa46f, [16 x i8] c"k\00\00\00\00\00\00\00\BF\00\00\00.\00\00\00" }>, align 8
@alloc_873ef79ce50e626ef961384fb2eaceef = private unnamed_addr constant <{ ptr, [16 x i8] }> <{ ptr @alloc_19b7b68ddf4510556a86b23f2a2fa46f, [16 x i8] c"k\00\00\00\00\00\00\00\C2\01\00\00\1D\00\00\00" }>, align 8
@alloc_891bb909bf3537c5906e17b125042518 = private unnamed_addr constant <{ ptr, [16 x i8] }> <{ ptr @alloc_19b7b68ddf4510556a86b23f2a2fa46f, [16 x i8] c"k\00\00\00\00\00\00\00\C3\01\00\00\19\00\00\00" }>, align 8
@alloc_fb6b922e573126fef51da61db7f3d4e1 = private unnamed_addr constant <{ ptr, [16 x i8] }> <{ ptr @alloc_19b7b68ddf4510556a86b23f2a2fa46f, [16 x i8] c"k\00\00\00\00\00\00\00\D9\01\00\00\1D\00\00\00" }>, align 8
@alloc_97cacfb66e60e4b6fb614a265957abc6 = private unnamed_addr constant <{ ptr, [16 x i8] }> <{ ptr @alloc_19b7b68ddf4510556a86b23f2a2fa46f, [16 x i8] c"k\00\00\00\00\00\00\00\DA\01\00\00\19\00\00\00" }>, align 8
@alloc_f40db679c9ea531574e9ba71178cbd49 = private unnamed_addr constant <{ ptr, [16 x i8] }> <{ ptr @alloc_19b7b68ddf4510556a86b23f2a2fa46f, [16 x i8] c"k\00\00\00\00\00\00\00t\01\00\00)\00\00\00" }>, align 8
@alloc_a9d39366bfc08c1825246dcbac4b54fe = private unnamed_addr constant <{ ptr, [16 x i8] }> <{ ptr @alloc_19b7b68ddf4510556a86b23f2a2fa46f, [16 x i8] c"k\00\00\00\00\00\00\00y\01\00\00\1C\00\00\00" }>, align 8
@alloc_745cead36147ccd345e2b993acf618ef = private unnamed_addr constant <{ ptr, [16 x i8] }> <{ ptr @alloc_19b7b68ddf4510556a86b23f2a2fa46f, [16 x i8] c"k\00\00\00\00\00\00\00y\01\00\00-\00\00\00" }>, align 8
@alloc_0c1d22b0544e48d06e94e2168d93a958 = private unnamed_addr constant <{ ptr, [16 x i8] }> <{ ptr @alloc_19b7b68ddf4510556a86b23f2a2fa46f, [16 x i8] c"k\00\00\00\00\00\00\00\80\01\00\000\00\00\00" }>, align 8
@alloc_66ed6519040a684ff2f7c43c58b1bd9d = private unnamed_addr constant <{ ptr, [16 x i8] }> <{ ptr @alloc_19b7b68ddf4510556a86b23f2a2fa46f, [16 x i8] c"k\00\00\00\00\00\00\00K\01\00\00)\00\00\00" }>, align 8
@alloc_70d204edff943de5d0ddc9eee1ba5133 = private unnamed_addr constant <{ ptr, [16 x i8] }> <{ ptr @alloc_19b7b68ddf4510556a86b23f2a2fa46f, [16 x i8] c"k\00\00\00\00\00\00\00Q\01\00\00\1C\00\00\00" }>, align 8
@alloc_03f13d8f8b9a63452b42800156de8f01 = private unnamed_addr constant <{ ptr, [16 x i8] }> <{ ptr @alloc_19b7b68ddf4510556a86b23f2a2fa46f, [16 x i8] c"k\00\00\00\00\00\00\00Q\01\00\00-\00\00\00" }>, align 8
@alloc_23ed308e8e53e6564e6ef89347ee13a6 = private unnamed_addr constant <{ ptr, [16 x i8] }> <{ ptr @alloc_19b7b68ddf4510556a86b23f2a2fa46f, [16 x i8] c"k\00\00\00\00\00\00\00Y\01\00\00$\00\00\00" }>, align 8
@alloc_2cf1fb064616e5d950228783de522694 = private unnamed_addr constant <{ ptr, [16 x i8] }> <{ ptr @alloc_19b7b68ddf4510556a86b23f2a2fa46f, [16 x i8] c"k\00\00\00\00\00\00\00Y\01\00\001\00\00\00" }>, align 8
@alloc_989e797877931aae40772f329edbc2cf = private unnamed_addr constant [103 x i8] c"/Users/hongyaotang/.cargo/registry/src/index.crates.io-1949cf8c6b5b557f/memchr-2.7.6/src/memmem/mod.rs\00", align 1
@alloc_e83e48896f06dca6071367735efea3d7 = private unnamed_addr constant <{ ptr, [16 x i8] }> <{ ptr @alloc_989e797877931aae40772f329edbc2cf, [16 x i8] c"f\00\00\00\00\00\00\00f\01\00\006\00\00\00" }>, align 8
@vtable.0 = private unnamed_addr constant <{ [24 x i8], ptr }> <{ [24 x i8] c"\00\00\00\00\00\00\00\00\04\00\00\00\00\00\00\00\04\00\00\00\00\00\00\00", ptr @_RNvXs8_NtNtNtCsl5bjp7iZrWZ_6memchr4arch3all9rabinkarpNtB5_4HashNtNtCsjMrxcFdYDNN_4core3fmt5Debug3fmt }>, align 8
@vtable.1 = private unnamed_addr constant <{ [24 x i8], ptr }> <{ [24 x i8] c"\00\00\00\00\00\00\00\00\08\00\00\00\00\00\00\00\08\00\00\00\00\00\00\00", ptr @_RNvXs1g_NtCsjMrxcFdYDNN_4core3fmtRmNtB6_5Debug3fmtCsl5bjp7iZrWZ_6memchr }>, align 8
@alloc_5f2e93710195efd386fdccc9eb0e6708 = private unnamed_addr constant [6 x i8] c"Finder", align 1
@alloc_eedb37f55fc0c5b4506ddcc7c0df9d7b = private unnamed_addr constant [4 x i8] c"hash", align 1
@alloc_4fcab055ecf5ff2e4984e33ddd088f96 = private unnamed_addr constant [9 x i8] c"hash_2pow", align 1
@alloc_cb24f47da9df00df17ed7f2bbe7efef6 = private unnamed_addr constant [9 x i8] c"Prefilter", align 1
@alloc_414bc5b2dbbaaba951a04e61d359a1c9 = private unnamed_addr constant [20 x i8] c"<prefilter function>", align 1
@alloc_98b3f12a81f53063e5900bf49967695d = private unnamed_addr constant <{ ptr, [8 x i8] }> <{ ptr @alloc_414bc5b2dbbaaba951a04e61d359a1c9, [8 x i8] c"\14\00\00\00\00\00\00\00" }>, align 8
@vtable.2 = private unnamed_addr constant <{ [24 x i8], ptr }> <{ [24 x i8] c"\00\00\00\00\00\00\00\00\10\00\00\00\00\00\00\00\08\00\00\00\00\00\00\00", ptr @_RNvXs1g_NtCsjMrxcFdYDNN_4core3fmtReNtB6_5Debug3fmtCsl5bjp7iZrWZ_6memchr }>, align 8
@alloc_2c7d0cbb448b8851a0597c03f52dd5e4 = private unnamed_addr constant [4 x i8] c"call", align 1
@alloc_5c7553da0fb6a2ae62043e38c140dcac = private unnamed_addr constant [22 x i8] c"<prefilter kind union>", align 1
@alloc_76abb55ccd0e21f51fbc1aff1993f8b7 = private unnamed_addr constant <{ ptr, [8 x i8] }> <{ ptr @alloc_5c7553da0fb6a2ae62043e38c140dcac, [8 x i8] c"\16\00\00\00\00\00\00\00" }>, align 8
@alloc_a5d866b1768ad3f826bccdb004a1a8ae = private unnamed_addr constant [4 x i8] c"kind", align 1
@vtable.3 = private unnamed_addr constant <{ [24 x i8], ptr }> <{ [24 x i8] c"\00\00\00\00\00\00\00\00\01\00\00\00\00\00\00\00\01\00\00\00\00\00\00\00", ptr @_RNvXsU_NtNtCsjMrxcFdYDNN_4core3fmt3numhNtB7_5Debug3fmt }>, align 8
@alloc_a28ebce1a916847972beffc6284c1b92 = private unnamed_addr constant [11 x i8] c"rarest_byte", align 1
@alloc_30fe4c0c8426076a5780edf4683c9503 = private unnamed_addr constant [13 x i8] c"rarest_offset", align 1
@alloc_e3275806614af7f67279108bf596bd4f = private unnamed_addr constant [4 x i8] c"Hash", align 1
@alloc_1e6e395afbe80a1c26544df7f8c1e058 = private unnamed_addr constant [8 x i8] c"Searcher", align 1
@alloc_38227f6eb5dec84a4e290baff99e932f = private unnamed_addr constant [19 x i8] c"<searcher function>", align 1
@alloc_a16a4bca73b8ee845fbb11ed275569ed = private unnamed_addr constant <{ ptr, [8 x i8] }> <{ ptr @alloc_38227f6eb5dec84a4e290baff99e932f, [8 x i8] c"\13\00\00\00\00\00\00\00" }>, align 8
@alloc_8b9985d0eac6b058ac17b92337a1c77a = private unnamed_addr constant [21 x i8] c"<searcher kind union>", align 1
@alloc_353f233b89dbe3287f13329bacb54138 = private unnamed_addr constant <{ ptr, [8 x i8] }> <{ ptr @alloc_8b9985d0eac6b058ac17b92337a1c77a, [8 x i8] c"\15\00\00\00\00\00\00\00" }>, align 8
@vtable.4 = private unnamed_addr constant <{ [24 x i8], ptr }> <{ [24 x i8] c"\00\00\00\00\00\00\00\00\08\00\00\00\00\00\00\00\04\00\00\00\00\00\00\00", ptr @_RNvXs2_NtNtNtCsl5bjp7iZrWZ_6memchr4arch3all9rabinkarpNtB5_6FinderNtNtCsjMrxcFdYDNN_4core3fmt5Debug3fmt }>, align 8
@alloc_031f5dae0c558da3f5cf8343387c5022 = private unnamed_addr constant [9 x i8] c"rabinkarp", align 1

; <memchr::arch::all::twoway::Shift>::forward
; Function Attrs: uwtable
define { i64, i64 } @_RNvMs0_NtNtNtCsl5bjp7iZrWZ_6memchr4arch3all6twowayNtB5_5Shift7forward(ptr noalias noundef nonnull readonly align 1 captures(none) %needle.0, i64 noundef range(i64 0, -9223372036854775808) %needle.1, i64 noundef %period_lower_bound, i64 noundef %critical_pos) unnamed_addr #0 personality ptr @rust_eh_personality {
start:
  %_5 = sub i64 %needle.1, %critical_pos
  %_0.sroa.0.0.i = tail call noundef i64 @llvm.umax.i64(i64 %_5, i64 %critical_pos)
  %_8 = shl i64 %critical_pos, 1
  %_7.not = icmp ult i64 %_8, %needle.1
  br i1 %_7.not, label %bb2, label %bb7

bb2:                                              ; preds = %start
  %_6.not.i = icmp ugt i64 %critical_pos, %needle.1
  br i1 %_6.not.i, label %bb3.i, label %_RNvMNtCsjMrxcFdYDNN_4core5sliceSh8split_atCsl5bjp7iZrWZ_6memchr.exit, !prof !2

bb3.i:                                            ; preds = %bb2
; call core::panicking::panic_fmt
  tail call void @_RNvNtCsjMrxcFdYDNN_4core9panicking9panic_fmt(ptr noundef nonnull @alloc_d1084648e479974e70c9329824bf76f9, ptr noundef nonnull inttoptr (i64 19 to ptr), ptr noalias noundef nonnull readonly align 8 captures(address, read_provenance) dereferenceable(24) @alloc_873ef79ce50e626ef961384fb2eaceef) #14, !noalias !3
  unreachable

_RNvMNtCsjMrxcFdYDNN_4core5sliceSh8split_atCsl5bjp7iZrWZ_6memchr.exit: ; preds = %bb2
  %_14.not = icmp ugt i64 %period_lower_bound, %_5
  br i1 %_14.not, label %bb11, label %bb9, !prof !7

bb9:                                              ; preds = %_RNvMNtCsjMrxcFdYDNN_4core5sliceSh8split_atCsl5bjp7iZrWZ_6memchr.exit
  tail call void @llvm.experimental.noalias.scope.decl(metadata !8)
  tail call void @llvm.experimental.noalias.scope.decl(metadata !11)
  %_3.not.i = icmp samesign ugt i64 %critical_pos, %period_lower_bound
  br i1 %_3.not.i, label %bb7, label %bb7.i

bb7.i:                                            ; preds = %bb9
  %_13.i = getelementptr inbounds nuw i8, ptr %needle.0, i64 %period_lower_bound
  %_4.i.i11 = icmp samesign ugt i64 %critical_pos, 3
  br i1 %_4.i.i11, label %bb2.i.i, label %bb5.i.i

bb5.i.i:                                          ; preds = %bb4.i.i, %bb7.i
  %n.sroa.0.0.i.i.lcssa = phi i64 [ %critical_pos, %bb7.i ], [ %1, %bb4.i.i ]
  %y.sroa.0.0.i.i.lcssa = phi ptr [ %needle.0, %bb7.i ], [ %_12.i.i, %bb4.i.i ]
  %x.sroa.0.0.i.i.lcssa = phi ptr [ %_13.i, %bb7.i ], [ %_11.i.i, %bb4.i.i ]
  %_13.i.i = icmp samesign ugt i64 %n.sroa.0.0.i.i.lcssa, 1
  br i1 %_13.i.i, label %bb6.i.i, label %bb10.i.i

bb2.i.i:                                          ; preds = %bb7.i, %bb4.i.i
  %x.sroa.0.0.i.i14 = phi ptr [ %_11.i.i, %bb4.i.i ], [ %_13.i, %bb7.i ]
  %y.sroa.0.0.i.i13 = phi ptr [ %_12.i.i, %bb4.i.i ], [ %needle.0, %bb7.i ]
  %n.sroa.0.0.i.i12 = phi i64 [ %1, %bb4.i.i ], [ %critical_pos, %bb7.i ]
  %_26.sroa.0.0.copyload.i.i = load i32, ptr %x.sroa.0.0.i.i14, align 1, !alias.scope !8, !noalias !11
  %_32.sroa.0.0.copyload.i.i = load i32, ptr %y.sroa.0.0.i.i13, align 1, !alias.scope !11, !noalias !8
  %_10.not.i.i = icmp eq i32 %_26.sroa.0.0.copyload.i.i, %_32.sroa.0.0.copyload.i.i
  br i1 %_10.not.i.i, label %bb4.i.i, label %bb7

bb6.i.i:                                          ; preds = %bb5.i.i
  %_38.sroa.0.0.copyload.i.i = load i16, ptr %x.sroa.0.0.i.i.lcssa, align 1, !alias.scope !8, !noalias !11
  %_44.sroa.0.0.copyload.i.i = load i16, ptr %y.sroa.0.0.i.i.lcssa, align 1, !alias.scope !11, !noalias !8
  %_19.not.i.i = icmp eq i16 %_38.sroa.0.0.copyload.i.i, %_44.sroa.0.0.copyload.i.i
  br i1 %_19.not.i.i, label %bb9.i.i, label %bb7

bb10.i.i:                                         ; preds = %bb9.i.i, %bb5.i.i
  %n.sroa.0.1.i.i = phi i64 [ %0, %bb9.i.i ], [ %n.sroa.0.0.i.i.lcssa, %bb5.i.i ]
  %y.sroa.0.1.i.i = phi ptr [ %_21.i.i, %bb9.i.i ], [ %y.sroa.0.0.i.i.lcssa, %bb5.i.i ]
  %x.sroa.0.1.i.i = phi ptr [ %_20.i.i, %bb9.i.i ], [ %x.sroa.0.0.i.i.lcssa, %bb5.i.i ]
  %_22.not.i.i = icmp eq i64 %n.sroa.0.1.i.i, 0
  br i1 %_22.not.i.i, label %bb7, label %_RNvNtNtCsl5bjp7iZrWZ_6memchr4arch3all9is_suffix.exit

bb9.i.i:                                          ; preds = %bb6.i.i
  %_20.i.i = getelementptr inbounds nuw i8, ptr %x.sroa.0.0.i.i.lcssa, i64 2
  %_21.i.i = getelementptr inbounds nuw i8, ptr %y.sroa.0.0.i.i.lcssa, i64 2
  %0 = add nsw i64 %n.sroa.0.0.i.i.lcssa, -2
  br label %bb10.i.i

bb4.i.i:                                          ; preds = %bb2.i.i
  %_11.i.i = getelementptr inbounds nuw i8, ptr %x.sroa.0.0.i.i14, i64 4
  %_12.i.i = getelementptr inbounds nuw i8, ptr %y.sroa.0.0.i.i13, i64 4
  %1 = add i64 %n.sroa.0.0.i.i12, -4
  %_4.i.i = icmp ugt i64 %1, 3
  br i1 %_4.i.i, label %bb2.i.i, label %bb5.i.i

_RNvNtNtCsl5bjp7iZrWZ_6memchr4arch3all9is_suffix.exit: ; preds = %bb10.i.i
  %_24.i.i = load i8, ptr %x.sroa.0.1.i.i, align 1, !alias.scope !8, !noalias !11, !noundef !13
  %_25.i.i = load i8, ptr %y.sroa.0.1.i.i, align 1, !alias.scope !11, !noalias !8, !noundef !13
  %_23.not.i.i = icmp ne i8 %_24.i.i, %_25.i.i
  %spec.select = select i1 %_23.not.i.i, i64 %_0.sroa.0.0.i, i64 %period_lower_bound
  %spec.select7 = zext i1 %_23.not.i.i to i64
  br label %bb7

bb11:                                             ; preds = %_RNvMNtCsjMrxcFdYDNN_4core5sliceSh8split_atCsl5bjp7iZrWZ_6memchr.exit
; call core::slice::index::slice_index_fail
  tail call void @_RNvNtNtCsjMrxcFdYDNN_4core5slice5index16slice_index_fail(i64 noundef 0, i64 noundef %period_lower_bound, i64 noundef %_5, ptr noalias noundef readonly align 8 captures(address, read_provenance) dereferenceable(24) @alloc_891bb909bf3537c5906e17b125042518) #14
  unreachable

bb7:                                              ; preds = %bb2.i.i, %_RNvNtNtCsl5bjp7iZrWZ_6memchr4arch3all9is_suffix.exit, %bb6.i.i, %bb9, %bb10.i.i, %start
  %_0.sroa.4.0 = phi i64 [ %_0.sroa.0.0.i, %start ], [ %period_lower_bound, %bb10.i.i ], [ %_0.sroa.0.0.i, %bb9 ], [ %_0.sroa.0.0.i, %bb6.i.i ], [ %spec.select, %_RNvNtNtCsl5bjp7iZrWZ_6memchr4arch3all9is_suffix.exit ], [ %_0.sroa.0.0.i, %bb2.i.i ]
  %_0.sroa.0.0 = phi i64 [ 1, %start ], [ 0, %bb10.i.i ], [ 1, %bb9 ], [ 1, %bb6.i.i ], [ %spec.select7, %_RNvNtNtCsl5bjp7iZrWZ_6memchr4arch3all9is_suffix.exit ], [ 1, %bb2.i.i ]
  %2 = insertvalue { i64, i64 } poison, i64 %_0.sroa.0.0, 0
  %3 = insertvalue { i64, i64 } %2, i64 %_0.sroa.4.0, 1
  ret { i64, i64 } %3
}

; <memchr::arch::all::twoway::Shift>::reverse
; Function Attrs: uwtable
define { i64, i64 } @_RNvMs0_NtNtNtCsl5bjp7iZrWZ_6memchr4arch3all6twowayNtB5_5Shift7reverse(ptr noalias noundef nonnull readonly align 1 captures(none) %needle.0, i64 noundef range(i64 0, -9223372036854775808) %needle.1, i64 noundef %period_lower_bound, i64 noundef %critical_pos) unnamed_addr #0 personality ptr @rust_eh_personality {
start:
  %_5 = sub i64 %needle.1, %critical_pos
  %_0.sroa.0.0.i = tail call noundef i64 @llvm.umax.i64(i64 %_5, i64 %critical_pos)
  %_8 = shl i64 %_5, 1
  %_7.not = icmp ult i64 %_8, %needle.1
  br i1 %_7.not, label %bb2, label %bb7

bb2:                                              ; preds = %start
  %_6.not.i = icmp ugt i64 %critical_pos, %needle.1
  br i1 %_6.not.i, label %bb3.i, label %_RNvMNtCsjMrxcFdYDNN_4core5sliceSh8split_atCsl5bjp7iZrWZ_6memchr.exit, !prof !2

bb3.i:                                            ; preds = %bb2
; call core::panicking::panic_fmt
  tail call void @_RNvNtCsjMrxcFdYDNN_4core9panicking9panic_fmt(ptr noundef nonnull @alloc_d1084648e479974e70c9329824bf76f9, ptr noundef nonnull inttoptr (i64 19 to ptr), ptr noalias noundef nonnull readonly align 8 captures(address, read_provenance) dereferenceable(24) @alloc_fb6b922e573126fef51da61db7f3d4e1) #14, !noalias !14
  unreachable

_RNvMNtCsjMrxcFdYDNN_4core5sliceSh8split_atCsl5bjp7iZrWZ_6memchr.exit: ; preds = %bb2
  %_14 = sub i64 %critical_pos, %period_lower_bound
  %_16 = icmp ugt i64 %period_lower_bound, %critical_pos
  br i1 %_16, label %bb9, label %bb10, !prof !2

bb10:                                             ; preds = %_RNvMNtCsjMrxcFdYDNN_4core5sliceSh8split_atCsl5bjp7iZrWZ_6memchr.exit
  tail call void @llvm.experimental.noalias.scope.decl(metadata !18)
  tail call void @llvm.experimental.noalias.scope.decl(metadata !21)
  %_3.not.i = icmp samesign ugt i64 %_5, %period_lower_bound
  br i1 %_3.not.i, label %bb7, label %bb1.i.i.preheader

bb1.i.i.preheader:                                ; preds = %bb10
  %_22 = getelementptr inbounds nuw i8, ptr %needle.0, i64 %_14
  %data.i.i = getelementptr inbounds nuw i8, ptr %needle.0, i64 %critical_pos
  %_4.i.i11 = icmp samesign ugt i64 %_5, 3
  br i1 %_4.i.i11, label %bb2.i.i, label %bb5.i.i

bb5.i.i:                                          ; preds = %bb4.i.i, %bb1.i.i.preheader
  %n.sroa.0.0.i.i.lcssa = phi i64 [ %_5, %bb1.i.i.preheader ], [ %1, %bb4.i.i ]
  %y.sroa.0.0.i.i.lcssa = phi ptr [ %data.i.i, %bb1.i.i.preheader ], [ %_12.i.i, %bb4.i.i ]
  %x.sroa.0.0.i.i.lcssa = phi ptr [ %_22, %bb1.i.i.preheader ], [ %_11.i.i, %bb4.i.i ]
  %_13.i.i = icmp samesign ugt i64 %n.sroa.0.0.i.i.lcssa, 1
  br i1 %_13.i.i, label %bb6.i.i, label %bb10.i.i

bb2.i.i:                                          ; preds = %bb1.i.i.preheader, %bb4.i.i
  %x.sroa.0.0.i.i14 = phi ptr [ %_11.i.i, %bb4.i.i ], [ %_22, %bb1.i.i.preheader ]
  %y.sroa.0.0.i.i13 = phi ptr [ %_12.i.i, %bb4.i.i ], [ %data.i.i, %bb1.i.i.preheader ]
  %n.sroa.0.0.i.i12 = phi i64 [ %1, %bb4.i.i ], [ %_5, %bb1.i.i.preheader ]
  %_26.sroa.0.0.copyload.i.i = load i32, ptr %x.sroa.0.0.i.i14, align 1, !alias.scope !18, !noalias !21
  %_32.sroa.0.0.copyload.i.i = load i32, ptr %y.sroa.0.0.i.i13, align 1, !alias.scope !21, !noalias !18
  %_10.not.i.i = icmp eq i32 %_26.sroa.0.0.copyload.i.i, %_32.sroa.0.0.copyload.i.i
  br i1 %_10.not.i.i, label %bb4.i.i, label %bb7

bb6.i.i:                                          ; preds = %bb5.i.i
  %_38.sroa.0.0.copyload.i.i = load i16, ptr %x.sroa.0.0.i.i.lcssa, align 1, !alias.scope !18, !noalias !21
  %_44.sroa.0.0.copyload.i.i = load i16, ptr %y.sroa.0.0.i.i.lcssa, align 1, !alias.scope !21, !noalias !18
  %_19.not.i.i = icmp eq i16 %_38.sroa.0.0.copyload.i.i, %_44.sroa.0.0.copyload.i.i
  br i1 %_19.not.i.i, label %bb9.i.i, label %bb7

bb10.i.i:                                         ; preds = %bb9.i.i, %bb5.i.i
  %n.sroa.0.1.i.i = phi i64 [ %0, %bb9.i.i ], [ %n.sroa.0.0.i.i.lcssa, %bb5.i.i ]
  %y.sroa.0.1.i.i = phi ptr [ %_21.i.i, %bb9.i.i ], [ %y.sroa.0.0.i.i.lcssa, %bb5.i.i ]
  %x.sroa.0.1.i.i = phi ptr [ %_20.i.i, %bb9.i.i ], [ %x.sroa.0.0.i.i.lcssa, %bb5.i.i ]
  %_22.not.i.i = icmp eq i64 %n.sroa.0.1.i.i, 0
  br i1 %_22.not.i.i, label %bb7, label %_RNvNtNtCsl5bjp7iZrWZ_6memchr4arch3all9is_prefix.exit

bb9.i.i:                                          ; preds = %bb6.i.i
  %_20.i.i = getelementptr inbounds nuw i8, ptr %x.sroa.0.0.i.i.lcssa, i64 2
  %_21.i.i = getelementptr inbounds nuw i8, ptr %y.sroa.0.0.i.i.lcssa, i64 2
  %0 = add nsw i64 %n.sroa.0.0.i.i.lcssa, -2
  br label %bb10.i.i

bb4.i.i:                                          ; preds = %bb2.i.i
  %_11.i.i = getelementptr inbounds nuw i8, ptr %x.sroa.0.0.i.i14, i64 4
  %_12.i.i = getelementptr inbounds nuw i8, ptr %y.sroa.0.0.i.i13, i64 4
  %1 = add i64 %n.sroa.0.0.i.i12, -4
  %_4.i.i = icmp ugt i64 %1, 3
  br i1 %_4.i.i, label %bb2.i.i, label %bb5.i.i

_RNvNtNtCsl5bjp7iZrWZ_6memchr4arch3all9is_prefix.exit: ; preds = %bb10.i.i
  %_24.i.i = load i8, ptr %x.sroa.0.1.i.i, align 1, !alias.scope !18, !noalias !21, !noundef !13
  %_25.i.i = load i8, ptr %y.sroa.0.1.i.i, align 1, !alias.scope !21, !noalias !18, !noundef !13
  %_23.not.i.i = icmp ne i8 %_24.i.i, %_25.i.i
  %spec.select = select i1 %_23.not.i.i, i64 %_0.sroa.0.0.i, i64 %period_lower_bound
  %spec.select7 = zext i1 %_23.not.i.i to i64
  br label %bb7

bb9:                                              ; preds = %_RNvMNtCsjMrxcFdYDNN_4core5sliceSh8split_atCsl5bjp7iZrWZ_6memchr.exit
; call core::slice::index::slice_index_fail
  tail call void @_RNvNtNtCsjMrxcFdYDNN_4core5slice5index16slice_index_fail(i64 noundef %_14, i64 noundef %critical_pos, i64 noundef %critical_pos, ptr noalias noundef readonly align 8 captures(address, read_provenance) dereferenceable(24) @alloc_97cacfb66e60e4b6fb614a265957abc6) #14
  unreachable

bb7:                                              ; preds = %bb2.i.i, %_RNvNtNtCsl5bjp7iZrWZ_6memchr4arch3all9is_prefix.exit, %bb6.i.i, %bb10, %bb10.i.i, %start
  %_0.sroa.4.0 = phi i64 [ %_0.sroa.0.0.i, %start ], [ %period_lower_bound, %bb10.i.i ], [ %_0.sroa.0.0.i, %bb10 ], [ %_0.sroa.0.0.i, %bb6.i.i ], [ %spec.select, %_RNvNtNtCsl5bjp7iZrWZ_6memchr4arch3all9is_prefix.exit ], [ %_0.sroa.0.0.i, %bb2.i.i ]
  %_0.sroa.0.0 = phi i64 [ 1, %start ], [ 0, %bb10.i.i ], [ 1, %bb10 ], [ 1, %bb6.i.i ], [ %spec.select7, %_RNvNtNtCsl5bjp7iZrWZ_6memchr4arch3all9is_prefix.exit ], [ 1, %bb2.i.i ]
  %2 = insertvalue { i64, i64 } poison, i64 %_0.sroa.0.0, 0
  %3 = insertvalue { i64, i64 } %2, i64 %_0.sroa.4.0, 1
  ret { i64, i64 } %3
}

; memchr::memmem::searcher::searcher_kind_neon
; Function Attrs: nofree norecurse nosync nounwind memory(argmem: read, inaccessiblemem: readwrite) uwtable
define { i64, i64 } @_RNvNtNtCsl5bjp7iZrWZ_6memchr6memmem8searcher18searcher_kind_neon(ptr noalias noundef readonly align 16 captures(none) dereferenceable(112) %searcher, ptr noalias noundef readnone align 4 captures(none) dereferenceable(8) %_prestate, ptr noalias noundef nonnull readonly align 1 captures(address, read_provenance) %haystack.0, i64 noundef range(i64 0, -9223372036854775808) %haystack.1, ptr noalias noundef nonnull readonly align 1 captures(none) %needle.0, i64 noundef range(i64 0, -9223372036854775808) %needle.1) unnamed_addr #1 {
start:
  %0 = getelementptr inbounds nuw i8, ptr %searcher, i64 32
  %_8 = load i64, ptr %0, align 16, !noundef !13
  %_6 = icmp ult i64 %haystack.1, %_8
  br i1 %_6, label %bb1, label %bb5.i.lr.ph.i

bb5.i.lr.ph.i:                                    ; preds = %start
  tail call void @llvm.experimental.noalias.scope.decl(metadata !23)
  tail call void @llvm.experimental.noalias.scope.decl(metadata !26)
  tail call void @llvm.experimental.noalias.scope.decl(metadata !28)
  tail call void @llvm.experimental.noalias.scope.decl(metadata !30)
  %end.i.i = getelementptr inbounds nuw i8, ptr %haystack.0, i64 %haystack.1
  %_61.i.i = sub nsw i64 0, %_8
  %max.i.i = getelementptr inbounds i8, ptr %end.i.i, i64 %_61.i.i
  %1 = getelementptr inbounds nuw i8, ptr %searcher, i64 40
  %_7.i.i.i = load i8, ptr %1, align 8, !alias.scope !33, !noalias !36, !noundef !13
  %index1.i.i.i = zext i8 %_7.i.i.i to i64
  %2 = getelementptr inbounds nuw i8, ptr %searcher, i64 41
  %_9.i.i.i = load i8, ptr %2, align 1, !alias.scope !33, !noalias !36, !noundef !13
  %index2.i.i.i = zext i8 %_9.i.i.i to i64
  %_15.i.i.i = load <16 x i8>, ptr %searcher, align 16, !alias.scope !33, !noalias !36
  %3 = getelementptr inbounds nuw i8, ptr %searcher, i64 16
  %_17.i.i.i = load <16 x i8>, ptr %3, align 16, !alias.scope !33, !noalias !36
  %_32.i.i.i = sub nsw i64 0, %needle.1
  %_27.i.i.i = getelementptr inbounds i8, ptr %end.i.i, i64 %_32.i.i.i
  %_4.i14150.i = icmp samesign ugt i64 %needle.1, 3
  %_20.i32.i = getelementptr inbounds nuw i8, ptr %needle.0, i64 2
  %_22.not.i21.i = icmp eq i64 %needle.1, 0
  %_22.not.i21.us174.i = icmp eq i64 %needle.1, 2
  br i1 %_4.i14150.i, label %bb5.i.us.preheader.i, label %bb5.i.lr.ph.split.i

bb5.i.us.preheader.i:                             ; preds = %bb5.i.lr.ph.i
  %4 = and i64 %needle.1, 9223372036854775804
  %5 = getelementptr i8, ptr %needle.0, i64 %4
  %_20.i32.us.us.i = getelementptr i8, ptr %5, i64 2
  %6 = and i64 %needle.1, 3
  %7 = add nsw i64 %6, -2
  br label %bb5.i.us.i

bb5.i.us.i:                                       ; preds = %bb8.i.us.i, %bb5.i.us.preheader.i
  %cur.sroa.0.0.i216.us.i = phi ptr [ %_29.i.us.i, %bb8.i.us.i ], [ %haystack.0, %bb5.i.us.preheader.i ]
  tail call void @llvm.experimental.noalias.scope.decl(metadata !40)
  %_11.i.i.us.i = getelementptr inbounds nuw i8, ptr %cur.sroa.0.0.i216.us.i, i64 %index1.i.i.i
  %_11.i.i.val.us.i = load <16 x i8>, ptr %_11.i.i.us.i, align 1, !alias.scope !26, !noalias !41
  %_13.i.i.us.i = getelementptr inbounds nuw i8, ptr %cur.sroa.0.0.i216.us.i, i64 %index2.i.i.i
  %_13.i.i.val.us.i = load <16 x i8>, ptr %_13.i.i.us.i, align 1, !alias.scope !26, !noalias !41
  %8 = icmp eq <16 x i8> %_11.i.i.val.us.i, %_15.i.i.i
  %9 = icmp eq <16 x i8> %_13.i.i.val.us.i, %_17.i.i.i
  %10 = and <16 x i1> %8, %9
  %11 = sext <16 x i1> %10 to <16 x i8>
  %12 = bitcast <16 x i8> %11 to <8 x i16>
  %13 = lshr <8 x i16> %12, splat (i16 4)
  %14 = trunc <8 x i16> %13 to <8 x i8>
  %15 = bitcast <8 x i8> %14 to i64
  %_6.i48.us.i = and i64 %15, -8608480567731124088
  %_0.i50.not156.us.i = icmp eq i64 %_6.i48.us.i, 0
  br i1 %_0.i50.not156.us.i, label %bb8.i.us.i, label %bb10.i.i.us.us.i

bb8.i.us.i:                                       ; preds = %bb16.i.i.us.us.i, %bb10.i.i.us.us.i, %bb5.i.us.i
  %_29.i.us.i = getelementptr inbounds nuw i8, ptr %cur.sroa.0.0.i216.us.i, i64 16
  %_22.not.i.us.i = icmp ugt ptr %_29.i.us.i, %max.i.i
  br i1 %_22.not.i.us.i, label %bb9.i.i, label %bb5.i.us.i

bb10.i.i.us.us.i:                                 ; preds = %bb5.i.us.i, %bb16.i.i.us.us.i
  %offsets.sroa.0.0.i.i157.us.us.i = phi i64 [ %_2.i54.us.us.i, %bb16.i.i.us.us.i ], [ %_6.i48.us.i, %bb5.i.us.i ]
  %16 = tail call range(i64 0, 65) i64 @llvm.cttz.i64(i64 range(i64 0, -8608480567731124087) %offsets.sroa.0.0.i.i157.us.us.i, i1 true)
  %_2.i49.us.us.i = lshr i64 %16, 2
  %cur1.i.i.us.us.i = getelementptr inbounds nuw i8, ptr %cur.sroa.0.0.i216.us.i, i64 %_2.i49.us.us.i
  %_26.i.i.us.us.i = icmp ult ptr %_27.i.i.i, %cur1.i.i.us.us.i
  br i1 %_26.i.i.us.us.i, label %bb8.i.us.i, label %bb2.i34.us.us.i

bb6.i27.us.us.i:                                  ; preds = %bb1.i10.bb5.i15_crit_edge.us.us.i
  %_38.sroa.0.0.copyload.i28.us.us.i = load i16, ptr %_11.i39.us.us.i, align 1, !alias.scope !28, !noalias !44
  %_44.sroa.0.0.copyload.i29.us.us.i = load i16, ptr %_12.i40.us.us.i, align 1, !alias.scope !26, !noalias !45
  %_19.not.i30.us.us.i = icmp eq i16 %_38.sroa.0.0.copyload.i28.us.us.i, %_44.sroa.0.0.copyload.i29.us.us.i
  br i1 %_19.not.i30.us.us.i, label %bb9.i31.us.us.i, label %bb16.i.i.us.us.i

bb9.i31.us.us.i:                                  ; preds = %bb6.i27.us.us.i
  %_21.i33.us.us.i = getelementptr inbounds nuw i8, ptr %y.sroa.0.0.i12152.us.us.i, i64 6
  br label %bb10.i17.us.us.i

bb10.i17.us.us.i:                                 ; preds = %bb1.i10.bb5.i15_crit_edge.us.us.i, %bb9.i31.us.us.i
  %n.sroa.0.1.i18.us.us.i = phi i64 [ %7, %bb9.i31.us.us.i ], [ %17, %bb1.i10.bb5.i15_crit_edge.us.us.i ]
  %y.sroa.0.1.i19.us.us.i = phi ptr [ %_21.i33.us.us.i, %bb9.i31.us.us.i ], [ %_12.i40.us.us.i, %bb1.i10.bb5.i15_crit_edge.us.us.i ]
  %x.sroa.0.1.i20.us.us.i = phi ptr [ %_20.i32.us.us.i, %bb9.i31.us.us.i ], [ %_11.i39.us.us.i, %bb1.i10.bb5.i15_crit_edge.us.us.i ]
  %_22.not.i21.us.us.i = icmp eq i64 %n.sroa.0.1.i18.us.us.i, 0
  br i1 %_22.not.i21.us.us.i, label %bb7.i.i, label %_RNvNtNtCsl5bjp7iZrWZ_6memchr4arch3all12is_equal_raw.exit41.us.us.i

_RNvNtNtCsl5bjp7iZrWZ_6memchr4arch3all12is_equal_raw.exit41.us.us.i: ; preds = %bb10.i17.us.us.i
  %_24.i23.us.us.i = load i8, ptr %x.sroa.0.1.i20.us.us.i, align 1, !alias.scope !28, !noalias !44, !noundef !13
  %_25.i24.us.us.i = load i8, ptr %y.sroa.0.1.i19.us.us.i, align 1, !alias.scope !26, !noalias !45, !noundef !13
  %_23.not.i25.us.us.i = icmp eq i8 %_24.i23.us.us.i, %_25.i24.us.us.i
  br i1 %_23.not.i25.us.us.i, label %bb7.i.i, label %bb16.i.i.us.us.i

bb2.i34.us.us.i:                                  ; preds = %bb10.i.i.us.us.i, %bb4.i38.us.us.i
  %x.sroa.0.0.i13153.us.us.i = phi ptr [ %_11.i39.us.us.i, %bb4.i38.us.us.i ], [ %needle.0, %bb10.i.i.us.us.i ]
  %y.sroa.0.0.i12152.us.us.i = phi ptr [ %_12.i40.us.us.i, %bb4.i38.us.us.i ], [ %cur1.i.i.us.us.i, %bb10.i.i.us.us.i ]
  %n.sroa.0.0.i11151.us.us.i = phi i64 [ %17, %bb4.i38.us.us.i ], [ %needle.1, %bb10.i.i.us.us.i ]
  %_26.sroa.0.0.copyload.i35.us.us.i = load i32, ptr %x.sroa.0.0.i13153.us.us.i, align 1, !alias.scope !28, !noalias !44
  %_32.sroa.0.0.copyload.i36.us.us.i = load i32, ptr %y.sroa.0.0.i12152.us.us.i, align 1, !alias.scope !26, !noalias !45
  %_10.not.i37.us.us.i = icmp eq i32 %_26.sroa.0.0.copyload.i35.us.us.i, %_32.sroa.0.0.copyload.i36.us.us.i
  br i1 %_10.not.i37.us.us.i, label %bb4.i38.us.us.i, label %bb16.i.i.us.us.i

bb16.i.i.us.us.i:                                 ; preds = %bb2.i34.us.us.i, %_RNvNtNtCsl5bjp7iZrWZ_6memchr4arch3all12is_equal_raw.exit41.us.us.i, %bb6.i27.us.us.i
  %_4.i53.us.us.i = add i64 %offsets.sroa.0.0.i.i157.us.us.i, -1
  %_2.i54.us.us.i = and i64 %_4.i53.us.us.i, %offsets.sroa.0.0.i.i157.us.us.i
  %_0.i50.not.us.us.i = icmp eq i64 %_2.i54.us.us.i, 0
  br i1 %_0.i50.not.us.us.i, label %bb8.i.us.i, label %bb10.i.i.us.us.i

bb4.i38.us.us.i:                                  ; preds = %bb2.i34.us.us.i
  %_11.i39.us.us.i = getelementptr inbounds nuw i8, ptr %x.sroa.0.0.i13153.us.us.i, i64 4
  %_12.i40.us.us.i = getelementptr inbounds nuw i8, ptr %y.sroa.0.0.i12152.us.us.i, i64 4
  %17 = add i64 %n.sroa.0.0.i11151.us.us.i, -4
  %_4.i14.us.us.i = icmp ugt i64 %17, 3
  br i1 %_4.i14.us.us.i, label %bb2.i34.us.us.i, label %bb1.i10.bb5.i15_crit_edge.us.us.i

bb1.i10.bb5.i15_crit_edge.us.us.i:                ; preds = %bb4.i38.us.us.i
  %_13.i16.us.us.i = icmp samesign ugt i64 %17, 1
  br i1 %_13.i16.us.us.i, label %bb6.i27.us.us.i, label %bb10.i17.us.us.i

bb5.i.lr.ph.split.i:                              ; preds = %bb5.i.lr.ph.i
  %_13.i16.i = icmp samesign ugt i64 %needle.1, 1
  br i1 %_13.i16.i, label %bb5.i.lr.ph.split.split.us.i, label %bb5.i.lr.ph.split.split.i

bb5.i.lr.ph.split.split.us.i:                     ; preds = %bb5.i.lr.ph.split.i
  br i1 %_22.not.i21.us174.i, label %bb5.i.us226.us.i, label %bb5.i.us226.i

bb5.i.us226.us.i:                                 ; preds = %bb5.i.lr.ph.split.split.us.i, %bb8.i.us234.us.i
  %cur.sroa.0.0.i216.us227.us.i = phi ptr [ %_29.i.us235.us.i, %bb8.i.us234.us.i ], [ %haystack.0, %bb5.i.lr.ph.split.split.us.i ]
  tail call void @llvm.experimental.noalias.scope.decl(metadata !40)
  %_11.i.i.us228.us.i = getelementptr inbounds nuw i8, ptr %cur.sroa.0.0.i216.us227.us.i, i64 %index1.i.i.i
  %_11.i.i.val.us229.us.i = load <16 x i8>, ptr %_11.i.i.us228.us.i, align 1, !alias.scope !26, !noalias !41
  %_13.i.i.us230.us.i = getelementptr inbounds nuw i8, ptr %cur.sroa.0.0.i216.us227.us.i, i64 %index2.i.i.i
  %_13.i.i.val.us231.us.i = load <16 x i8>, ptr %_13.i.i.us230.us.i, align 1, !alias.scope !26, !noalias !41
  %18 = icmp eq <16 x i8> %_11.i.i.val.us229.us.i, %_15.i.i.i
  %19 = icmp eq <16 x i8> %_13.i.i.val.us231.us.i, %_17.i.i.i
  %20 = and <16 x i1> %18, %19
  %21 = sext <16 x i1> %20 to <16 x i8>
  %22 = bitcast <16 x i8> %21 to <8 x i16>
  %23 = lshr <8 x i16> %22, splat (i16 4)
  %24 = trunc <8 x i16> %23 to <8 x i8>
  %25 = bitcast <8 x i8> %24 to i64
  %_6.i48.us232.us.i = and i64 %25, -8608480567731124088
  %_0.i50.not156.us233.us.i = icmp eq i64 %_6.i48.us232.us.i, 0
  br i1 %_0.i50.not156.us233.us.i, label %bb8.i.us234.us.i, label %bb10.i.i.us159.us.us.us.i

bb8.i.us234.us.i:                                 ; preds = %bb16.i.i.us179.us.us.us.i, %bb10.i.i.us159.us.us.us.i, %bb5.i.us226.us.i
  %_29.i.us235.us.i = getelementptr inbounds nuw i8, ptr %cur.sroa.0.0.i216.us227.us.i, i64 16
  %_22.not.i.us236.us.i = icmp ugt ptr %_29.i.us235.us.i, %max.i.i
  br i1 %_22.not.i.us236.us.i, label %bb9.i.i, label %bb5.i.us226.us.i

bb10.i.i.us159.us.us.us.i:                        ; preds = %bb5.i.us226.us.i, %bb16.i.i.us179.us.us.us.i
  %offsets.sroa.0.0.i.i157.us160.us.us.us.i = phi i64 [ %_2.i54.us181.us.us.us.i, %bb16.i.i.us179.us.us.us.i ], [ %_6.i48.us232.us.i, %bb5.i.us226.us.i ]
  %26 = tail call range(i64 0, 65) i64 @llvm.cttz.i64(i64 range(i64 0, -8608480567731124087) %offsets.sroa.0.0.i.i157.us160.us.us.us.i, i1 true)
  %_2.i49.us161.us.us.us.i = lshr i64 %26, 2
  %cur1.i.i.us162.us.us.us.i = getelementptr inbounds nuw i8, ptr %cur.sroa.0.0.i216.us227.us.i, i64 %_2.i49.us161.us.us.us.i
  %_26.i.i.us163.us.us.us.i = icmp ult ptr %_27.i.i.i, %cur1.i.i.us162.us.us.us.i
  br i1 %_26.i.i.us163.us.us.us.i, label %bb8.i.us234.us.i, label %bb1.i10.preheader.us183.us.us.us.i

bb16.i.i.us179.us.us.us.i:                        ; preds = %bb1.i10.preheader.us183.us.us.us.i
  %_4.i53.us180.us.us.us.i = add i64 %offsets.sroa.0.0.i.i157.us160.us.us.us.i, -1
  %_2.i54.us181.us.us.us.i = and i64 %_4.i53.us180.us.us.us.i, %offsets.sroa.0.0.i.i157.us160.us.us.us.i
  %_0.i50.not.us182.us.us.us.i = icmp eq i64 %_2.i54.us181.us.us.us.i, 0
  br i1 %_0.i50.not.us182.us.us.us.i, label %bb8.i.us234.us.i, label %bb10.i.i.us159.us.us.us.i

bb1.i10.preheader.us183.us.us.us.i:               ; preds = %bb10.i.i.us159.us.us.us.i
  %_38.sroa.0.0.copyload.i28.us165.us.us.us.i = load i16, ptr %needle.0, align 1, !alias.scope !28, !noalias !44
  %_44.sroa.0.0.copyload.i29.us166.us.us.us.i = load i16, ptr %cur1.i.i.us162.us.us.us.i, align 1, !alias.scope !26, !noalias !45
  %_19.not.i30.us167.us.us.us.i = icmp eq i16 %_38.sroa.0.0.copyload.i28.us165.us.us.us.i, %_44.sroa.0.0.copyload.i29.us166.us.us.us.i
  br i1 %_19.not.i30.us167.us.us.us.i, label %bb7.i.i, label %bb16.i.i.us179.us.us.us.i

bb5.i.us226.i:                                    ; preds = %bb5.i.lr.ph.split.split.us.i, %bb8.i.us234.i
  %cur.sroa.0.0.i216.us227.i = phi ptr [ %_29.i.us235.i, %bb8.i.us234.i ], [ %haystack.0, %bb5.i.lr.ph.split.split.us.i ]
  tail call void @llvm.experimental.noalias.scope.decl(metadata !40)
  %_11.i.i.us228.i = getelementptr inbounds nuw i8, ptr %cur.sroa.0.0.i216.us227.i, i64 %index1.i.i.i
  %_11.i.i.val.us229.i = load <16 x i8>, ptr %_11.i.i.us228.i, align 1, !alias.scope !26, !noalias !41
  %_13.i.i.us230.i = getelementptr inbounds nuw i8, ptr %cur.sroa.0.0.i216.us227.i, i64 %index2.i.i.i
  %_13.i.i.val.us231.i = load <16 x i8>, ptr %_13.i.i.us230.i, align 1, !alias.scope !26, !noalias !41
  %27 = icmp eq <16 x i8> %_11.i.i.val.us229.i, %_15.i.i.i
  %28 = icmp eq <16 x i8> %_13.i.i.val.us231.i, %_17.i.i.i
  %29 = and <16 x i1> %27, %28
  %30 = sext <16 x i1> %29 to <16 x i8>
  %31 = bitcast <16 x i8> %30 to <8 x i16>
  %32 = lshr <8 x i16> %31, splat (i16 4)
  %33 = trunc <8 x i16> %32 to <8 x i8>
  %34 = bitcast <8 x i8> %33 to i64
  %_6.i48.us232.i = and i64 %34, -8608480567731124088
  %_0.i50.not156.us233.i = icmp eq i64 %_6.i48.us232.i, 0
  br i1 %_0.i50.not156.us233.i, label %bb8.i.us234.i, label %bb10.i.i.us159.us238.i

bb8.i.us234.i:                                    ; preds = %bb16.i.i.us179.us245.i, %bb10.i.i.us159.us238.i, %bb5.i.us226.i
  %_29.i.us235.i = getelementptr inbounds nuw i8, ptr %cur.sroa.0.0.i216.us227.i, i64 16
  %_22.not.i.us236.i = icmp ugt ptr %_29.i.us235.i, %max.i.i
  br i1 %_22.not.i.us236.i, label %bb9.i.i, label %bb5.i.us226.i

bb10.i.i.us159.us238.i:                           ; preds = %bb5.i.us226.i, %bb16.i.i.us179.us245.i
  %offsets.sroa.0.0.i.i157.us160.us239.i = phi i64 [ %_2.i54.us181.us247.i, %bb16.i.i.us179.us245.i ], [ %_6.i48.us232.i, %bb5.i.us226.i ]
  %35 = tail call range(i64 0, 65) i64 @llvm.cttz.i64(i64 range(i64 0, -8608480567731124087) %offsets.sroa.0.0.i.i157.us160.us239.i, i1 true)
  %_2.i49.us161.us240.i = lshr i64 %35, 2
  %cur1.i.i.us162.us241.i = getelementptr inbounds nuw i8, ptr %cur.sroa.0.0.i216.us227.i, i64 %_2.i49.us161.us240.i
  %_26.i.i.us163.us242.i = icmp ult ptr %_27.i.i.i, %cur1.i.i.us162.us241.i
  br i1 %_26.i.i.us163.us242.i, label %bb8.i.us234.i, label %bb1.i10.preheader.us183.us249.i

bb9.i31.us168.us243.i:                            ; preds = %bb1.i10.preheader.us183.us249.i
  %_21.i33.us169.us244.i = getelementptr inbounds nuw i8, ptr %cur1.i.i.us162.us241.i, i64 2
  %_24.i23.us176.us.i = load i8, ptr %_20.i32.i, align 1, !alias.scope !28, !noalias !44, !noundef !13
  %_25.i24.us177.us.i = load i8, ptr %_21.i33.us169.us244.i, align 1, !alias.scope !26, !noalias !45, !noundef !13
  %_23.not.i25.us178.us.i = icmp eq i8 %_24.i23.us176.us.i, %_25.i24.us177.us.i
  br i1 %_23.not.i25.us178.us.i, label %bb7.i.i, label %bb16.i.i.us179.us245.i

bb16.i.i.us179.us245.i:                           ; preds = %bb1.i10.preheader.us183.us249.i, %bb9.i31.us168.us243.i
  %_4.i53.us180.us246.i = add i64 %offsets.sroa.0.0.i.i157.us160.us239.i, -1
  %_2.i54.us181.us247.i = and i64 %_4.i53.us180.us246.i, %offsets.sroa.0.0.i.i157.us160.us239.i
  %_0.i50.not.us182.us248.i = icmp eq i64 %_2.i54.us181.us247.i, 0
  br i1 %_0.i50.not.us182.us248.i, label %bb8.i.us234.i, label %bb10.i.i.us159.us238.i

bb1.i10.preheader.us183.us249.i:                  ; preds = %bb10.i.i.us159.us238.i
  %_38.sroa.0.0.copyload.i28.us165.us250.i = load i16, ptr %needle.0, align 1, !alias.scope !28, !noalias !44
  %_44.sroa.0.0.copyload.i29.us166.us251.i = load i16, ptr %cur1.i.i.us162.us241.i, align 1, !alias.scope !26, !noalias !45
  %_19.not.i30.us167.us252.i = icmp eq i16 %_38.sroa.0.0.copyload.i28.us165.us250.i, %_44.sroa.0.0.copyload.i29.us166.us251.i
  br i1 %_19.not.i30.us167.us252.i, label %bb9.i31.us168.us243.i, label %bb16.i.i.us179.us245.i

bb5.i.lr.ph.split.split.i:                        ; preds = %bb5.i.lr.ph.split.i
  br i1 %_22.not.i21.i, label %bb5.i.us264.i, label %bb5.i.i

bb5.i.us264.i:                                    ; preds = %bb5.i.lr.ph.split.split.i, %bb8.i.us272.i
  %cur.sroa.0.0.i216.us265.i = phi ptr [ %_29.i.us273.i, %bb8.i.us272.i ], [ %haystack.0, %bb5.i.lr.ph.split.split.i ]
  tail call void @llvm.experimental.noalias.scope.decl(metadata !40)
  %_11.i.i.us266.i = getelementptr inbounds nuw i8, ptr %cur.sroa.0.0.i216.us265.i, i64 %index1.i.i.i
  %_11.i.i.val.us267.i = load <16 x i8>, ptr %_11.i.i.us266.i, align 1, !alias.scope !26, !noalias !41
  %_13.i.i.us268.i = getelementptr inbounds nuw i8, ptr %cur.sroa.0.0.i216.us265.i, i64 %index2.i.i.i
  %_13.i.i.val.us269.i = load <16 x i8>, ptr %_13.i.i.us268.i, align 1, !alias.scope !26, !noalias !41
  %36 = icmp eq <16 x i8> %_11.i.i.val.us267.i, %_15.i.i.i
  %37 = icmp eq <16 x i8> %_13.i.i.val.us269.i, %_17.i.i.i
  %38 = and <16 x i1> %36, %37
  %39 = sext <16 x i1> %38 to <16 x i8>
  %40 = bitcast <16 x i8> %39 to <8 x i16>
  %41 = lshr <8 x i16> %40, splat (i16 4)
  %42 = trunc <8 x i16> %41 to <8 x i8>
  %43 = bitcast <8 x i8> %42 to i64
  %_6.i48.us270.i = and i64 %43, -8608480567731124088
  %_0.i50.not156.us271.i = icmp eq i64 %_6.i48.us270.i, 0
  br i1 %_0.i50.not156.us271.i, label %bb8.i.us272.i, label %bb10.i.i.lr.ph.us275.i

bb8.i.us272.i:                                    ; preds = %bb10.i.i.lr.ph.us275.i, %bb5.i.us264.i
  %_29.i.us273.i = getelementptr inbounds nuw i8, ptr %cur.sroa.0.0.i216.us265.i, i64 16
  %_22.not.i.us274.i = icmp ugt ptr %_29.i.us273.i, %max.i.i
  br i1 %_22.not.i.us274.i, label %bb9.i.i, label %bb5.i.us264.i

bb10.i.i.lr.ph.us275.i:                           ; preds = %bb5.i.us264.i
  %44 = tail call range(i64 0, 65) i64 @llvm.cttz.i64(i64 range(i64 0, -8608480567731124087) %_6.i48.us270.i, i1 true)
  %_2.i49.us190.us.i = lshr i64 %44, 2
  %cur1.i.i.us191.us.i = getelementptr inbounds nuw i8, ptr %cur.sroa.0.0.i216.us265.i, i64 %_2.i49.us190.us.i
  %_26.i.i.us192.us.i = icmp ult ptr %_27.i.i.i, %cur1.i.i.us191.us.i
  br i1 %_26.i.i.us192.us.i, label %bb8.i.us272.i, label %bb7.i.i

bb9.i.i:                                          ; preds = %bb8.i.i, %bb8.i.us272.i, %bb8.i.us234.i, %bb8.i.us234.us.i, %bb8.i.us.i
  %cur.sroa.0.0.i.lcssa.i = phi ptr [ %_29.i.us.i, %bb8.i.us.i ], [ %_29.i.us235.us.i, %bb8.i.us234.us.i ], [ %_29.i.us235.i, %bb8.i.us234.i ], [ %_29.i.us273.i, %bb8.i.us272.i ], [ %_29.i.i, %bb8.i.i ]
  %_30.i.i = icmp ult ptr %cur.sroa.0.0.i.lcssa.i, %end.i.i
  br i1 %_30.i.i, label %bb10.i.i, label %bb4

bb5.i.i:                                          ; preds = %bb5.i.lr.ph.split.split.i, %bb8.i.i
  %cur.sroa.0.0.i216.i = phi ptr [ %_29.i.i, %bb8.i.i ], [ %haystack.0, %bb5.i.lr.ph.split.split.i ]
  tail call void @llvm.experimental.noalias.scope.decl(metadata !40)
  %_11.i.i.i = getelementptr inbounds nuw i8, ptr %cur.sroa.0.0.i216.i, i64 %index1.i.i.i
  %_11.i.i.val.i = load <16 x i8>, ptr %_11.i.i.i, align 1, !alias.scope !26, !noalias !41
  %_13.i.i.i = getelementptr inbounds nuw i8, ptr %cur.sroa.0.0.i216.i, i64 %index2.i.i.i
  %_13.i.i.val.i = load <16 x i8>, ptr %_13.i.i.i, align 1, !alias.scope !26, !noalias !41
  %45 = icmp eq <16 x i8> %_11.i.i.val.i, %_15.i.i.i
  %46 = icmp eq <16 x i8> %_13.i.i.val.i, %_17.i.i.i
  %47 = and <16 x i1> %45, %46
  %48 = sext <16 x i1> %47 to <16 x i8>
  %49 = bitcast <16 x i8> %48 to <8 x i16>
  %50 = lshr <8 x i16> %49, splat (i16 4)
  %51 = trunc <8 x i16> %50 to <8 x i8>
  %52 = bitcast <8 x i8> %51 to i64
  %_6.i48.i = and i64 %52, -8608480567731124088
  %_0.i50.not156.i = icmp eq i64 %_6.i48.i, 0
  br i1 %_0.i50.not156.i, label %bb8.i.i, label %bb10.i.i.i

bb10.i.i.i:                                       ; preds = %bb5.i.i, %bb16.i.i.i
  %offsets.sroa.0.0.i.i157.i = phi i64 [ %_2.i54.i, %bb16.i.i.i ], [ %_6.i48.i, %bb5.i.i ]
  %53 = tail call range(i64 0, 65) i64 @llvm.cttz.i64(i64 range(i64 0, -8608480567731124087) %offsets.sroa.0.0.i.i157.i, i1 true)
  %_2.i49.i = lshr i64 %53, 2
  %cur1.i.i.i = getelementptr inbounds nuw i8, ptr %cur.sroa.0.0.i216.i, i64 %_2.i49.i
  %_26.i.i.i = icmp ult ptr %_27.i.i.i, %cur1.i.i.i
  br i1 %_26.i.i.i, label %bb8.i.i, label %bb1.i10.preheader.i

bb1.i10.preheader.i:                              ; preds = %bb10.i.i.i
  %_24.i23.i = load i8, ptr %needle.0, align 1, !alias.scope !28, !noalias !44, !noundef !13
  %_25.i24.i = load i8, ptr %cur1.i.i.i, align 1, !alias.scope !26, !noalias !45, !noundef !13
  %_23.not.i25.i = icmp eq i8 %_24.i23.i, %_25.i24.i
  br i1 %_23.not.i25.i, label %bb7.i.i, label %bb16.i.i.i

bb16.i.i.i:                                       ; preds = %bb1.i10.preheader.i
  %_4.i53.i = add i64 %offsets.sroa.0.0.i.i157.i, -1
  %_2.i54.i = and i64 %_4.i53.i, %offsets.sroa.0.0.i.i157.i
  %_0.i50.not.i = icmp eq i64 %_2.i54.i, 0
  br i1 %_0.i50.not.i, label %bb8.i.i, label %bb10.i.i.i

bb10.i.i:                                         ; preds = %bb9.i.i
  %54 = ptrtoint ptr %end.i.i to i64
  %55 = ptrtoint ptr %cur.sroa.0.0.i.lcssa.i to i64
  %56 = sub i64 %54, %55
  %_9.i.i = icmp sgt i64 %56, -1
  tail call void @llvm.assume(i1 %_9.i.i), !noalias !30
  %_35.i.i = icmp samesign ult i64 %56, %needle.1
  br i1 %_35.i.i, label %bb4, label %bb14.i.i

bb14.i.i:                                         ; preds = %bb10.i.i
  %57 = ptrtoint ptr %max.i.i to i64
  %58 = sub i64 %55, %57
  %_9.i75.i = icmp sgt i64 %58, -1
  tail call void @llvm.assume(i1 %_9.i75.i), !noalias !30
  %59 = and i64 %58, 63
  %_4.neg.i.i = shl i64 -4, %59
  %_11.i12.i.i = getelementptr inbounds nuw i8, ptr %max.i.i, i64 %index1.i.i.i
  %_11.i12.i.val.i = load <16 x i8>, ptr %_11.i12.i.i, align 1, !alias.scope !26, !noalias !41
  %_13.i14.i.i = getelementptr inbounds nuw i8, ptr %max.i.i, i64 %index2.i.i.i
  %_13.i14.i.val.i = load <16 x i8>, ptr %_13.i14.i.i, align 1, !alias.scope !26, !noalias !41
  %60 = icmp eq <16 x i8> %_11.i12.i.val.i, %_15.i.i.i
  %61 = icmp eq <16 x i8> %_13.i14.i.val.i, %_17.i.i.i
  %62 = and <16 x i1> %60, %61
  %63 = sext <16 x i1> %62 to <16 x i8>
  %64 = bitcast <16 x i8> %63 to <8 x i16>
  %65 = lshr <8 x i16> %64, splat (i16 4)
  %66 = trunc <8 x i16> %65 to <8 x i8>
  %67 = bitcast <8 x i8> %66 to i64
  %_6.i43.i = and i64 %_4.neg.i.i, -8608480567731124088
  %_3.i.i = and i64 %_6.i43.i, %67
  %_0.i.not292.i = icmp eq i64 %_3.i.i, 0
  br i1 %_0.i.not292.i, label %bb4, label %bb10.i27.i.i

bb10.i27.i.i:                                     ; preds = %bb14.i.i, %bb16.i35.i.i
  %offsets.sroa.0.0.i23.i293.i = phi i64 [ %_2.i52.i, %bb16.i35.i.i ], [ %_3.i.i, %bb14.i.i ]
  %68 = tail call range(i64 0, 65) i64 @llvm.cttz.i64(i64 range(i64 0, -8608480567731124087) %offsets.sroa.0.0.i23.i293.i, i1 true)
  %_2.i.i = lshr i64 %68, 2
  %cur1.i29.i.i = getelementptr inbounds nuw i8, ptr %max.i.i, i64 %_2.i.i
  %_26.i32.i.i = icmp ult ptr %_27.i.i.i, %cur1.i29.i.i
  br i1 %_26.i32.i.i, label %bb4, label %bb1.i1.preheader.i

bb1.i1.preheader.i:                               ; preds = %bb10.i27.i.i
  br i1 %_4.i14150.i, label %bb2.i7.i, label %bb5.i2.i

bb5.i2.i:                                         ; preds = %bb4.i8.i, %bb1.i1.preheader.i
  %n.sroa.0.0.i.lcssa.i = phi i64 [ %needle.1, %bb1.i1.preheader.i ], [ %70, %bb4.i8.i ]
  %y.sroa.0.0.i.lcssa.i = phi ptr [ %cur1.i29.i.i, %bb1.i1.preheader.i ], [ %_12.i.i, %bb4.i8.i ]
  %x.sroa.0.0.i.lcssa.i = phi ptr [ %needle.0, %bb1.i1.preheader.i ], [ %_11.i9.i, %bb4.i8.i ]
  %_13.i.i = icmp samesign ugt i64 %n.sroa.0.0.i.lcssa.i, 1
  br i1 %_13.i.i, label %bb6.i.i, label %bb10.i3.i

bb2.i7.i:                                         ; preds = %bb1.i1.preheader.i, %bb4.i8.i
  %x.sroa.0.0.i288.i = phi ptr [ %_11.i9.i, %bb4.i8.i ], [ %needle.0, %bb1.i1.preheader.i ]
  %y.sroa.0.0.i287.i = phi ptr [ %_12.i.i, %bb4.i8.i ], [ %cur1.i29.i.i, %bb1.i1.preheader.i ]
  %n.sroa.0.0.i286.i = phi i64 [ %70, %bb4.i8.i ], [ %needle.1, %bb1.i1.preheader.i ]
  %_26.sroa.0.0.copyload.i.i = load i32, ptr %x.sroa.0.0.i288.i, align 1, !alias.scope !28, !noalias !46
  %_32.sroa.0.0.copyload.i.i = load i32, ptr %y.sroa.0.0.i287.i, align 1, !alias.scope !26, !noalias !49
  %_10.not.i.i = icmp eq i32 %_26.sroa.0.0.copyload.i.i, %_32.sroa.0.0.copyload.i.i
  br i1 %_10.not.i.i, label %bb4.i8.i, label %bb16.i35.i.i

bb6.i.i:                                          ; preds = %bb5.i2.i
  %_38.sroa.0.0.copyload.i.i = load i16, ptr %x.sroa.0.0.i.lcssa.i, align 1, !alias.scope !28, !noalias !46
  %_44.sroa.0.0.copyload.i.i = load i16, ptr %y.sroa.0.0.i.lcssa.i, align 1, !alias.scope !26, !noalias !49
  %_19.not.i.i = icmp eq i16 %_38.sroa.0.0.copyload.i.i, %_44.sroa.0.0.copyload.i.i
  br i1 %_19.not.i.i, label %bb9.i5.i, label %bb16.i35.i.i

bb10.i3.i:                                        ; preds = %bb9.i5.i, %bb5.i2.i
  %n.sroa.0.1.i.i = phi i64 [ %69, %bb9.i5.i ], [ %n.sroa.0.0.i.lcssa.i, %bb5.i2.i ]
  %y.sroa.0.1.i.i = phi ptr [ %_21.i.i, %bb9.i5.i ], [ %y.sroa.0.0.i.lcssa.i, %bb5.i2.i ]
  %x.sroa.0.1.i.i = phi ptr [ %_20.i6.i, %bb9.i5.i ], [ %x.sroa.0.0.i.lcssa.i, %bb5.i2.i ]
  %_22.not.i4.i = icmp eq i64 %n.sroa.0.1.i.i, 0
  br i1 %_22.not.i4.i, label %bb18.i.i, label %_RNvNtNtCsl5bjp7iZrWZ_6memchr4arch3all12is_equal_raw.exit.i

bb9.i5.i:                                         ; preds = %bb6.i.i
  %_20.i6.i = getelementptr inbounds nuw i8, ptr %x.sroa.0.0.i.lcssa.i, i64 2
  %_21.i.i = getelementptr inbounds nuw i8, ptr %y.sroa.0.0.i.lcssa.i, i64 2
  %69 = add nsw i64 %n.sroa.0.0.i.lcssa.i, -2
  br label %bb10.i3.i

bb4.i8.i:                                         ; preds = %bb2.i7.i
  %_11.i9.i = getelementptr inbounds nuw i8, ptr %x.sroa.0.0.i288.i, i64 4
  %_12.i.i = getelementptr inbounds nuw i8, ptr %y.sroa.0.0.i287.i, i64 4
  %70 = add i64 %n.sroa.0.0.i286.i, -4
  %_4.i.i = icmp ugt i64 %70, 3
  br i1 %_4.i.i, label %bb2.i7.i, label %bb5.i2.i

_RNvNtNtCsl5bjp7iZrWZ_6memchr4arch3all12is_equal_raw.exit.i: ; preds = %bb10.i3.i
  %_24.i.i = load i8, ptr %x.sroa.0.1.i.i, align 1, !alias.scope !28, !noalias !46, !noundef !13
  %_25.i.i = load i8, ptr %y.sroa.0.1.i.i, align 1, !alias.scope !26, !noalias !49, !noundef !13
  %_23.not.i.i = icmp eq i8 %_24.i.i, %_25.i.i
  br i1 %_23.not.i.i, label %bb18.i.i, label %bb16.i35.i.i

bb16.i35.i.i:                                     ; preds = %bb2.i7.i, %_RNvNtNtCsl5bjp7iZrWZ_6memchr4arch3all12is_equal_raw.exit.i, %bb6.i.i
  %_4.i51.i = add i64 %offsets.sroa.0.0.i23.i293.i, -1
  %_2.i52.i = and i64 %_4.i51.i, %offsets.sroa.0.0.i23.i293.i
  %_0.i.not.i = icmp eq i64 %_2.i52.i, 0
  br i1 %_0.i.not.i, label %bb4, label %bb10.i27.i.i

bb18.i.i:                                         ; preds = %_RNvNtNtCsl5bjp7iZrWZ_6memchr4arch3all12is_equal_raw.exit.i, %bb10.i3.i
  %71 = sub nsw i64 %haystack.1, %_8
  %_9.i76.i = icmp sgt i64 %71, -1
  tail call void @llvm.assume(i1 %_9.i76.i), !noalias !30
  %_45.i.i = add nuw i64 %_2.i.i, %71
  br label %bb4

bb7.i.i:                                          ; preds = %bb1.i10.preheader.i, %bb10.i.i.lr.ph.us275.i, %bb9.i31.us168.us243.i, %bb1.i10.preheader.us183.us.us.us.i, %_RNvNtNtCsl5bjp7iZrWZ_6memchr4arch3all12is_equal_raw.exit41.us.us.i, %bb10.i17.us.us.i
  %.us-phi.i = phi ptr [ %cur.sroa.0.0.i216.us.i, %bb10.i17.us.us.i ], [ %cur.sroa.0.0.i216.us.i, %_RNvNtNtCsl5bjp7iZrWZ_6memchr4arch3all12is_equal_raw.exit41.us.us.i ], [ %cur.sroa.0.0.i216.us227.us.i, %bb1.i10.preheader.us183.us.us.us.i ], [ %cur.sroa.0.0.i216.us227.i, %bb9.i31.us168.us243.i ], [ %cur.sroa.0.0.i216.us265.i, %bb10.i.i.lr.ph.us275.i ], [ %cur.sroa.0.0.i216.i, %bb1.i10.preheader.i ]
  %.us-phi158.i = phi i64 [ %_2.i49.us.us.i, %bb10.i17.us.us.i ], [ %_2.i49.us.us.i, %_RNvNtNtCsl5bjp7iZrWZ_6memchr4arch3all12is_equal_raw.exit41.us.us.i ], [ %_2.i49.us161.us.us.us.i, %bb1.i10.preheader.us183.us.us.us.i ], [ %_2.i49.us161.us240.i, %bb9.i31.us168.us243.i ], [ %_2.i49.us190.us.i, %bb10.i.i.lr.ph.us275.i ], [ %_2.i49.i, %bb1.i10.preheader.i ]
  %72 = ptrtoint ptr %.us-phi.i to i64
  %73 = ptrtoint ptr %haystack.0 to i64
  %74 = sub i64 %72, %73
  %_9.i77.i = icmp sgt i64 %74, -1
  tail call void @llvm.assume(i1 %_9.i77.i), !noalias !30
  %_28.i.i = add nuw i64 %74, %.us-phi158.i
  br label %bb4

bb8.i.i:                                          ; preds = %bb16.i.i.i, %bb10.i.i.i, %bb5.i.i
  %_29.i.i = getelementptr inbounds nuw i8, ptr %cur.sroa.0.0.i216.i, i64 16
  %_22.not.i.i = icmp ugt ptr %_29.i.i, %max.i.i
  br i1 %_22.not.i.i, label %bb9.i.i, label %bb5.i.i

bb1:                                              ; preds = %start
  %_9 = getelementptr inbounds nuw i8, ptr %searcher, i64 96
  %_9.val = load i32, ptr %_9, align 16
  %75 = getelementptr inbounds nuw i8, ptr %searcher, i64 100
  %_9.val2 = load i32, ptr %75, align 4
  tail call void @llvm.experimental.noalias.scope.decl(metadata !50)
  %76 = ptrtoint ptr %haystack.0 to i64
  %_8.i.i = icmp samesign ugt i64 %needle.1, %haystack.1
  br i1 %_8.i.i, label %bb4, label %bb4.i.i

bb4.i.i:                                          ; preds = %bb1
  %hend.i = getelementptr inbounds nuw i8, ptr %haystack.0, i64 %haystack.1
  %_24.i.i3 = sub nsw i64 0, %needle.1
  %end.i.i4 = getelementptr inbounds i8, ptr %hend.i, i64 %_24.i.i3
  %_11.i.i5 = getelementptr inbounds nuw i8, ptr %haystack.0, i64 %needle.1
  %_261.not.i.i = icmp samesign eq i64 %needle.1, 0
  br i1 %_261.not.i.i, label %bb5.i.i8.preheader, label %bb16.i.i

bb16.i.i:                                         ; preds = %bb4.i.i, %bb16.i.i
  %_10.sroa.0.03.i.i = phi ptr [ %_30.i.i7, %bb16.i.i ], [ %haystack.0, %bb4.i.i ]
  %hash.sroa.0.02.i.i = phi i32 [ %77, %bb16.i.i ], [ 0, %bb4.i.i ]
  %_28.i.i6 = load i8, ptr %_10.sroa.0.03.i.i, align 1, !alias.scope !53, !noalias !50, !noundef !13
  %_32.i.i = shl i32 %hash.sroa.0.02.i.i, 1
  %_33.i.i = zext i8 %_28.i.i6 to i32
  %77 = add i32 %_32.i.i, %_33.i.i
  %_30.i.i7 = getelementptr inbounds nuw i8, ptr %_10.sroa.0.03.i.i, i64 1
  %_26.i.i = icmp ult ptr %_30.i.i7, %_11.i.i5
  br i1 %_26.i.i, label %bb16.i.i, label %bb5.i.i8.preheader

bb5.i.i8.preheader:                               ; preds = %bb16.i.i, %bb4.i.i
  %hash.sroa.0.1.i.i.ph = phi i32 [ 0, %bb4.i.i ], [ %77, %bb16.i.i ]
  br label %bb5.i.i8

bb5.i.i8:                                         ; preds = %bb5.i.i8.preheader, %bb12.i.i
  %hash.sroa.0.1.i.i = phi i32 [ %78, %bb12.i.i ], [ %hash.sroa.0.1.i.i.ph, %bb5.i.i8.preheader ]
  %hstart.sroa.0.0.i.i = phi ptr [ %_23.i.i, %bb12.i.i ], [ %haystack.0, %bb5.i.i8.preheader ]
  %_13.i.i9 = icmp eq i32 %_9.val, %hash.sroa.0.1.i.i
  br i1 %_13.i.i9, label %bb6.i.i12, label %bb10.i.i10, !prof !2

bb10.i.i10:                                       ; preds = %bb6.i.i12, %bb5.i.i8
  %_16.not.i.i = icmp ult ptr %hstart.sroa.0.0.i.i, %end.i.i4
  br i1 %_16.not.i.i, label %bb12.i.i, label %bb4

bb6.i.i12:                                        ; preds = %bb5.i.i8
; call memchr::arch::all::rabinkarp::is_equal_raw
  %_14.i.i = tail call noundef zeroext i1 @_RNvNtNtNtCsl5bjp7iZrWZ_6memchr4arch3all9rabinkarp12is_equal_raw(ptr noundef nonnull %hstart.sroa.0.0.i.i, ptr noundef nonnull readonly align 1 %needle.0, i64 noundef range(i64 0, -9223372036854775808) %needle.1) #15, !alias.scope !55
  br i1 %_14.i.i, label %bb6.i, label %bb10.i.i10

bb12.i.i:                                         ; preds = %bb10.i.i10
  %_18.i.i = load i8, ptr %hstart.sroa.0.0.i.i, align 1, !alias.scope !53, !noalias !50, !noundef !13
  %_21.i.i11 = getelementptr inbounds nuw i8, ptr %hstart.sroa.0.0.i.i, i64 %needle.1
  %_20.i.i = load i8, ptr %_21.i.i11, align 1, !alias.scope !53, !noalias !50, !noundef !13
  %_39.i.i = zext i8 %_18.i.i to i32
  %_38.i.i = mul i32 %_9.val2, %_39.i.i
  %_37.i.i = sub i32 %hash.sroa.0.1.i.i, %_38.i.i
  %_40.i.i = shl i32 %_37.i.i, 1
  %_41.i.i = zext i8 %_20.i.i to i32
  %78 = add i32 %_40.i.i, %_41.i.i
  %_23.i.i = getelementptr inbounds nuw i8, ptr %hstart.sroa.0.0.i.i, i64 1
  br label %bb5.i.i8

bb6.i:                                            ; preds = %bb6.i.i12
  %79 = ptrtoint ptr %hstart.sroa.0.0.i.i to i64
  %80 = sub i64 %79, %76
  %_9.i.i13 = icmp sgt i64 %80, -1
  tail call void @llvm.assume(i1 %_9.i.i13)
  br label %bb4

bb4:                                              ; preds = %bb16.i35.i.i, %bb10.i27.i.i, %bb10.i.i10, %bb6.i, %bb1, %bb7.i.i, %bb18.i.i, %bb14.i.i, %bb10.i.i, %bb9.i.i
  %_0.sroa.0.0.i.pn = phi i64 [ 1, %bb7.i.i ], [ 1, %bb18.i.i ], [ 0, %bb9.i.i ], [ 0, %bb10.i.i ], [ 0, %bb14.i.i ], [ 1, %bb6.i ], [ 0, %bb1 ], [ 0, %bb10.i.i10 ], [ 0, %bb10.i27.i.i ], [ 0, %bb16.i35.i.i ]
  %_0.sroa.3.0.i.pn = phi i64 [ %_28.i.i, %bb7.i.i ], [ %_45.i.i, %bb18.i.i ], [ undef, %bb9.i.i ], [ undef, %bb10.i.i ], [ undef, %bb14.i.i ], [ %80, %bb6.i ], [ undef, %bb1 ], [ undef, %bb10.i.i10 ], [ undef, %bb10.i27.i.i ], [ undef, %bb16.i35.i.i ]
  %.pn14 = insertvalue { i64, i64 } poison, i64 %_0.sroa.0.0.i.pn, 0
  %.pn = insertvalue { i64, i64 } %.pn14, i64 %_0.sroa.3.0.i.pn, 1
  ret { i64, i64 } %.pn
}

; memchr::memmem::searcher::prefilter_kind_neon
; Function Attrs: nofree norecurse nosync nounwind memory(argmem: read, inaccessiblemem: readwrite) uwtable
define { i64, i64 } @_RNvNtNtCsl5bjp7iZrWZ_6memchr6memmem8searcher19prefilter_kind_neon(ptr noalias noundef readonly align 16 captures(none) dereferenceable(64) %strat, ptr noalias noundef nonnull readonly align 1 captures(address, read_provenance) %haystack.0, i64 noundef range(i64 0, -9223372036854775808) %haystack.1) unnamed_addr #1 personality ptr @rust_eh_personality {
start:
  %0 = getelementptr inbounds nuw i8, ptr %strat, i64 32
  %_6 = load i64, ptr %0, align 16, !noundef !13
  %_4 = icmp ult i64 %haystack.1, %_6
  br i1 %_4, label %bb1, label %bb4.i.lr.ph.i

bb4.i.lr.ph.i:                                    ; preds = %start
  tail call void @llvm.experimental.noalias.scope.decl(metadata !56)
  tail call void @llvm.experimental.noalias.scope.decl(metadata !59)
  %end.i.i = getelementptr inbounds nuw i8, ptr %haystack.0, i64 %haystack.1
  %_49.i.i = sub nsw i64 0, %_6
  %max.i.i = getelementptr inbounds i8, ptr %end.i.i, i64 %_49.i.i
  %1 = getelementptr inbounds nuw i8, ptr %strat, i64 40
  %_4.i4.i = load i8, ptr %1, align 8, !alias.scope !61, !noalias !59, !noundef !13
  %index1.i5.i = zext i8 %_4.i4.i to i64
  %2 = getelementptr inbounds nuw i8, ptr %strat, i64 41
  %_6.i6.i = load i8, ptr %2, align 1, !alias.scope !61, !noalias !59, !noundef !13
  %index2.i7.i = zext i8 %_6.i6.i to i64
  %_12.i12.i = load <16 x i8>, ptr %strat, align 16, !alias.scope !61, !noalias !59
  %3 = getelementptr inbounds nuw i8, ptr %strat, i64 16
  %_14.i14.i = load <16 x i8>, ptr %3, align 16, !alias.scope !61, !noalias !59
  br label %bb4.i.i

bb8.i.i:                                          ; preds = %bb7.i.i
  %_28.i.i = icmp ult ptr %_27.i.i, %end.i.i
  br i1 %_28.i.i, label %bb9.i.i, label %bb3

bb4.i.i:                                          ; preds = %bb7.i.i, %bb4.i.lr.ph.i
  %cur.sroa.0.0.i113.i = phi ptr [ %haystack.0, %bb4.i.lr.ph.i ], [ %_27.i.i, %bb7.i.i ]
  %_8.i8.i = getelementptr inbounds nuw i8, ptr %cur.sroa.0.0.i113.i, i64 %index1.i5.i
  %_8.i8.val.i = load <16 x i8>, ptr %_8.i8.i, align 1, !alias.scope !59, !noalias !64
  %_10.i10.i = getelementptr inbounds nuw i8, ptr %cur.sroa.0.0.i113.i, i64 %index2.i7.i
  %_10.i10.val.i = load <16 x i8>, ptr %_10.i10.i, align 1, !alias.scope !59, !noalias !64
  %4 = icmp eq <16 x i8> %_8.i8.val.i, %_12.i12.i
  %5 = icmp eq <16 x i8> %_10.i10.val.i, %_14.i14.i
  %6 = and <16 x i1> %4, %5
  %7 = sext <16 x i1> %6 to <16 x i8>
  %8 = bitcast <16 x i8> %7 to <8 x i16>
  %9 = lshr <8 x i16> %8, splat (i16 4)
  %10 = trunc <8 x i16> %9 to <8 x i8>
  %11 = bitcast <8 x i8> %10 to i64
  %_6.i24.i = and i64 %11, -8608480567731124088
  %_0.i.not.i = icmp eq i64 %_6.i24.i, 0
  br i1 %_0.i.not.i, label %bb7.i.i, label %bb6.i.i

bb9.i.i:                                          ; preds = %bb8.i.i
  %_8.i.i = getelementptr inbounds nuw i8, ptr %max.i.i, i64 %index1.i5.i
  %_8.i.val.i = load <16 x i8>, ptr %_8.i.i, align 1, !alias.scope !59, !noalias !64
  %_10.i1.i = getelementptr inbounds nuw i8, ptr %max.i.i, i64 %index2.i7.i
  %_10.i1.val.i = load <16 x i8>, ptr %_10.i1.i, align 1, !alias.scope !59, !noalias !64
  %12 = icmp eq <16 x i8> %_8.i.val.i, %_12.i12.i
  %13 = icmp eq <16 x i8> %_10.i1.val.i, %_14.i14.i
  %14 = and <16 x i1> %12, %13
  %15 = sext <16 x i1> %14 to <16 x i8>
  %16 = bitcast <16 x i8> %15 to <8 x i16>
  %17 = lshr <8 x i16> %16, splat (i16 4)
  %18 = trunc <8 x i16> %17 to <8 x i8>
  %19 = bitcast <8 x i8> %18 to i64
  %_6.i29.i = and i64 %19, -8608480567731124088
  %_0.i31.not.i = icmp eq i64 %_6.i29.i, 0
  br i1 %_0.i31.not.i, label %bb3, label %bb12.i.i

bb12.i.i:                                         ; preds = %bb9.i.i
  %20 = tail call range(i64 0, 65) i64 @llvm.cttz.i64(i64 range(i64 0, -8608480567731124087) %_6.i29.i, i1 true)
  %_2.i30.i = lshr i64 %20, 2
  %21 = sub nsw i64 %haystack.1, %_6
  %_9.i.i = icmp sgt i64 %21, -1
  tail call void @llvm.assume(i1 %_9.i.i)
  %_33.i.i = add nuw i64 %_2.i30.i, %21
  br label %bb3

bb6.i.i:                                          ; preds = %bb4.i.i
  %22 = tail call range(i64 0, 65) i64 @llvm.cttz.i64(i64 range(i64 0, -8608480567731124087) %_6.i24.i, i1 true)
  %_2.i.i = lshr i64 %22, 2
  %23 = ptrtoint ptr %cur.sroa.0.0.i113.i to i64
  %24 = ptrtoint ptr %haystack.0 to i64
  %25 = sub i64 %23, %24
  %_9.i51.i = icmp sgt i64 %25, -1
  tail call void @llvm.assume(i1 %_9.i51.i)
  %_26.i.i = add nuw i64 %_2.i.i, %25
  br label %bb3

bb7.i.i:                                          ; preds = %bb4.i.i
  %_27.i.i = getelementptr inbounds nuw i8, ptr %cur.sroa.0.0.i113.i, i64 16
  %_20.not.i.i = icmp ugt ptr %_27.i.i, %max.i.i
  br i1 %_20.not.i.i, label %bb8.i.i, label %bb4.i.i

bb1:                                              ; preds = %start
  %26 = getelementptr inbounds nuw i8, ptr %strat, i64 56
  %_10 = load i8, ptr %26, align 8, !noundef !13
  %_12 = zext i8 %_10 to i64
  %_11 = mul nuw i64 %_12, 72340172838076673
  %end.i = getelementptr inbounds nuw i8, ptr %haystack.0, i64 %haystack.1
  %_4.not.i.i.not = icmp eq i64 %haystack.1, 0
  br i1 %_4.not.i.i.not, label %bb3, label %bb2.i.i3

bb2.i.i3:                                         ; preds = %bb1
  %27 = ptrtoint ptr %haystack.0 to i64
  %_7.i.i = icmp samesign ult i64 %haystack.1, 8
  br i1 %_7.i.i, label %bb2.i.i.i, label %bb6.i.i4

bb6.i.i4:                                         ; preds = %bb2.i.i3
  %_28.sroa.0.0.copyload.i.i = load i64, ptr %haystack.0, align 1, !noalias !67
  %_34.i.i = xor i64 %_28.sroa.0.0.copyload.i.i, %_11
  %28 = sub i64 72340172838076672, %_34.i.i
  %29 = or i64 %28, %_34.i.i
  %30 = and i64 %29, -9187201950435737472
  %31 = icmp eq i64 %30, -9187201950435737472
  br i1 %31, label %bb9.i.i5, label %bb2.i9.i.i.preheader

bb2.i9.i.i.preheader:                             ; preds = %bb6.i.i4
  %xtraiter = and i64 %haystack.1, 3
  %lcmp.mod.not = icmp eq i64 %xtraiter, 0
  br i1 %lcmp.mod.not, label %bb2.i9.i.i.preheader.new, label %bb2.i9.i.i.prol

bb2.i9.i.i.prol:                                  ; preds = %bb2.i9.i.i.preheader, %bb5.i12.i.i.prol
  %start1.sroa.0.0.i652.i.i.prol = phi ptr [ %_10.i13.i.i.prol, %bb5.i12.i.i.prol ], [ %haystack.0, %bb2.i9.i.i.preheader ]
  %prol.iter = phi i64 [ %prol.iter.next, %bb5.i12.i.i.prol ], [ 0, %bb2.i9.i.i.preheader ]
  %_9.i10.i.i.prol = load i8, ptr %start1.sroa.0.0.i652.i.i.prol, align 1, !noalias !70, !noundef !13
  %_0.i40.i.i.prol = icmp eq i8 %_10, %_9.i10.i.i.prol
  br i1 %_0.i40.i.i.prol, label %.loopexit, label %bb5.i12.i.i.prol

bb5.i12.i.i.prol:                                 ; preds = %bb2.i9.i.i.prol
  %_10.i13.i.i.prol = getelementptr inbounds nuw i8, ptr %start1.sroa.0.0.i652.i.i.prol, i64 1
  %prol.iter.next = add i64 %prol.iter, 1
  %prol.iter.cmp.not = icmp eq i64 %prol.iter.next, %xtraiter
  br i1 %prol.iter.cmp.not, label %bb2.i9.i.i.preheader.new, label %bb2.i9.i.i.prol, !llvm.loop !73

bb2.i9.i.i.preheader.new:                         ; preds = %bb2.i9.i.i.preheader, %bb5.i12.i.i.prol
  %start1.sroa.0.0.i652.i.i.unr = phi ptr [ %haystack.0, %bb2.i9.i.i.preheader ], [ %_10.i13.i.i.prol, %bb5.i12.i.i.prol ]
  br label %bb2.i9.i.i

bb2.i.i.i:                                        ; preds = %bb2.i.i3
  %_9.i.i.i = load i8, ptr %haystack.0, align 1, !noalias !75, !noundef !13
  %_0.i.i.i = icmp eq i8 %_10, %_9.i.i.i
  br i1 %_0.i.i.i, label %.loopexit, label %bb5.i.i.i

bb5.i.i.i:                                        ; preds = %bb2.i.i.i
  %exitcond94.not.i.i = icmp samesign eq i64 %haystack.1, 1
  br i1 %exitcond94.not.i.i, label %bb3, label %bb2.i.i.i.1

bb2.i.i.i.1:                                      ; preds = %bb5.i.i.i
  %_10.i.i.i = getelementptr inbounds nuw i8, ptr %haystack.0, i64 1
  %_9.i.i.i.1 = load i8, ptr %_10.i.i.i, align 1, !noalias !75, !noundef !13
  %_0.i.i.i.1 = icmp eq i8 %_10, %_9.i.i.i.1
  br i1 %_0.i.i.i.1, label %.loopexit, label %bb5.i.i.i.1

bb5.i.i.i.1:                                      ; preds = %bb2.i.i.i.1
  %exitcond94.not.i.i.1 = icmp samesign eq i64 %haystack.1, 2
  br i1 %exitcond94.not.i.i.1, label %bb3, label %bb2.i.i.i.2

bb2.i.i.i.2:                                      ; preds = %bb5.i.i.i.1
  %_10.i.i.i.1 = getelementptr inbounds nuw i8, ptr %haystack.0, i64 2
  %_9.i.i.i.2 = load i8, ptr %_10.i.i.i.1, align 1, !noalias !75, !noundef !13
  %_0.i.i.i.2 = icmp eq i8 %_10, %_9.i.i.i.2
  br i1 %_0.i.i.i.2, label %.loopexit, label %bb5.i.i.i.2

bb5.i.i.i.2:                                      ; preds = %bb2.i.i.i.2
  %exitcond94.not.i.i.2 = icmp samesign eq i64 %haystack.1, 3
  br i1 %exitcond94.not.i.i.2, label %bb3, label %bb2.i.i.i.3

bb2.i.i.i.3:                                      ; preds = %bb5.i.i.i.2
  %_10.i.i.i.2 = getelementptr inbounds nuw i8, ptr %haystack.0, i64 3
  %_9.i.i.i.3 = load i8, ptr %_10.i.i.i.2, align 1, !noalias !75, !noundef !13
  %_0.i.i.i.3 = icmp eq i8 %_10, %_9.i.i.i.3
  br i1 %_0.i.i.i.3, label %.loopexit, label %bb5.i.i.i.3

bb5.i.i.i.3:                                      ; preds = %bb2.i.i.i.3
  %exitcond94.not.i.i.3 = icmp samesign eq i64 %haystack.1, 4
  br i1 %exitcond94.not.i.i.3, label %bb3, label %bb2.i.i.i.4

bb2.i.i.i.4:                                      ; preds = %bb5.i.i.i.3
  %_10.i.i.i.3 = getelementptr inbounds nuw i8, ptr %haystack.0, i64 4
  %_9.i.i.i.4 = load i8, ptr %_10.i.i.i.3, align 1, !noalias !75, !noundef !13
  %_0.i.i.i.4 = icmp eq i8 %_10, %_9.i.i.i.4
  br i1 %_0.i.i.i.4, label %.loopexit, label %bb5.i.i.i.4

bb5.i.i.i.4:                                      ; preds = %bb2.i.i.i.4
  %exitcond94.not.i.i.4 = icmp samesign eq i64 %haystack.1, 5
  br i1 %exitcond94.not.i.i.4, label %bb3, label %bb2.i.i.i.5

bb2.i.i.i.5:                                      ; preds = %bb5.i.i.i.4
  %_10.i.i.i.4 = getelementptr inbounds nuw i8, ptr %haystack.0, i64 5
  %_9.i.i.i.5 = load i8, ptr %_10.i.i.i.4, align 1, !noalias !75, !noundef !13
  %_0.i.i.i.5 = icmp eq i8 %_10, %_9.i.i.i.5
  br i1 %_0.i.i.i.5, label %.loopexit, label %bb5.i.i.i.5

bb5.i.i.i.5:                                      ; preds = %bb2.i.i.i.5
  %exitcond94.not.i.i.5 = icmp samesign eq i64 %haystack.1, 6
  br i1 %exitcond94.not.i.i.5, label %bb3, label %bb2.i.i.i.6

bb2.i.i.i.6:                                      ; preds = %bb5.i.i.i.5
  %_10.i.i.i.5 = getelementptr inbounds nuw i8, ptr %haystack.0, i64 6
  %_9.i.i.i.6 = load i8, ptr %_10.i.i.i.5, align 1, !noalias !75, !noundef !13
  %_0.i.i.i.6 = icmp eq i8 %_10, %_9.i.i.i.6
  br i1 %_0.i.i.i.6, label %.loopexit, label %bb3

bb9.i.i5:                                         ; preds = %bb6.i.i4
  %_11.i.i = and i64 %27, 7
  %_10.i.i6 = sub nuw nsw i64 8, %_11.i.i
  %32 = getelementptr inbounds nuw i8, ptr %haystack.0, i64 %_10.i.i6
  %_13.i.i = icmp samesign ult i64 %haystack.1, 17
  br i1 %_13.i.i, label %bb1.i16.preheader.i.i, label %bb13.preheader.i.i

bb13.preheader.i.i:                               ; preds = %bb9.i.i5
  %_16.i.i = getelementptr inbounds i8, ptr %end.i, i64 -16
  %_14.not56.i.i = icmp ugt ptr %32, %_16.i.i
  br i1 %_14.not56.i.i, label %bb21.i.i, label %bb14.i.i

bb1.i16.preheader.i.i:                            ; preds = %bb9.i.i5
  %_4.i1867.i.i = icmp samesign ult i64 %_10.i.i6, %haystack.1
  br i1 %_4.i1867.i.i, label %bb2.i20.i.i.preheader, label %bb3

bb2.i20.i.i.preheader:                            ; preds = %bb1.i16.preheader.i.i
  %33 = add nuw nsw i64 %haystack.1, %_11.i.i
  %34 = add nsw i64 %33, -9
  %xtraiter87 = and i64 %33, 3
  %lcmp.mod88.not = icmp eq i64 %xtraiter87, 0
  br i1 %lcmp.mod88.not, label %bb2.i20.i.i.prol.loopexit, label %bb2.i20.i.i.prol

bb2.i20.i.i.prol:                                 ; preds = %bb2.i20.i.i.preheader, %bb5.i23.i.i.prol
  %start1.sroa.0.0.i1768.i.i.prol = phi ptr [ %_10.i24.i.i.prol, %bb5.i23.i.i.prol ], [ %32, %bb2.i20.i.i.preheader ]
  %prol.iter89 = phi i64 [ %prol.iter89.next, %bb5.i23.i.i.prol ], [ 0, %bb2.i20.i.i.preheader ]
  %_9.i21.i.i.prol = load i8, ptr %start1.sroa.0.0.i1768.i.i.prol, align 1, !noalias !78, !noundef !13
  %_0.i42.i.i.prol = icmp eq i8 %_10, %_9.i21.i.i.prol
  br i1 %_0.i42.i.i.prol, label %.loopexit, label %bb5.i23.i.i.prol

bb5.i23.i.i.prol:                                 ; preds = %bb2.i20.i.i.prol
  %_10.i24.i.i.prol = getelementptr inbounds nuw i8, ptr %start1.sroa.0.0.i1768.i.i.prol, i64 1
  %prol.iter89.next = add i64 %prol.iter89, 1
  %prol.iter89.cmp.not = icmp eq i64 %prol.iter89.next, %xtraiter87
  br i1 %prol.iter89.cmp.not, label %bb2.i20.i.i.prol.loopexit, label %bb2.i20.i.i.prol, !llvm.loop !81

bb2.i20.i.i.prol.loopexit:                        ; preds = %bb5.i23.i.i.prol, %bb2.i20.i.i.preheader
  %start1.sroa.0.0.i1768.i.i.unr = phi ptr [ %32, %bb2.i20.i.i.preheader ], [ %_10.i24.i.i.prol, %bb5.i23.i.i.prol ]
  %35 = icmp ult i64 %34, 3
  br i1 %35, label %bb3, label %bb2.i20.i.i

bb2.i9.i.i:                                       ; preds = %bb5.i12.i.i.3, %bb2.i9.i.i.preheader.new
  %start1.sroa.0.0.i652.i.i = phi ptr [ %start1.sroa.0.0.i652.i.i.unr, %bb2.i9.i.i.preheader.new ], [ %_10.i13.i.i.3, %bb5.i12.i.i.3 ]
  %_9.i10.i.i = load i8, ptr %start1.sroa.0.0.i652.i.i, align 1, !noalias !70, !noundef !13
  %_0.i40.i.i = icmp eq i8 %_10, %_9.i10.i.i
  br i1 %_0.i40.i.i, label %.loopexit, label %bb5.i12.i.i

bb5.i12.i.i:                                      ; preds = %bb2.i9.i.i
  %_10.i13.i.i = getelementptr inbounds nuw i8, ptr %start1.sroa.0.0.i652.i.i, i64 1
  %_9.i10.i.i.1 = load i8, ptr %_10.i13.i.i, align 1, !noalias !70, !noundef !13
  %_0.i40.i.i.1 = icmp eq i8 %_10, %_9.i10.i.i.1
  br i1 %_0.i40.i.i.1, label %.loopexit.loopexit74.loopexit.split.loop.exit99, label %bb5.i12.i.i.1

bb5.i12.i.i.1:                                    ; preds = %bb5.i12.i.i
  %_10.i13.i.i.1 = getelementptr inbounds nuw i8, ptr %start1.sroa.0.0.i652.i.i, i64 2
  %_9.i10.i.i.2 = load i8, ptr %_10.i13.i.i.1, align 1, !noalias !70, !noundef !13
  %_0.i40.i.i.2 = icmp eq i8 %_10, %_9.i10.i.i.2
  br i1 %_0.i40.i.i.2, label %.loopexit.loopexit74.loopexit.split.loop.exit97, label %bb5.i12.i.i.2

bb5.i12.i.i.2:                                    ; preds = %bb5.i12.i.i.1
  %_10.i13.i.i.2 = getelementptr inbounds nuw i8, ptr %start1.sroa.0.0.i652.i.i, i64 3
  %_9.i10.i.i.3 = load i8, ptr %_10.i13.i.i.2, align 1, !noalias !70, !noundef !13
  %_0.i40.i.i.3 = icmp eq i8 %_10, %_9.i10.i.i.3
  br i1 %_0.i40.i.i.3, label %.loopexit.loopexit74.loopexit.split.loop.exit, label %bb5.i12.i.i.3

bb5.i12.i.i.3:                                    ; preds = %bb5.i12.i.i.2
  %_10.i13.i.i.3 = getelementptr inbounds nuw i8, ptr %start1.sroa.0.0.i652.i.i, i64 4
  %exitcond.not.i.i.3 = icmp eq ptr %_10.i13.i.i.3, %end.i
  br i1 %exitcond.not.i.i.3, label %bb3, label %bb2.i9.i.i

bb2.i20.i.i:                                      ; preds = %bb2.i20.i.i.prol.loopexit, %bb5.i23.i.i.3
  %start1.sroa.0.0.i1768.i.i = phi ptr [ %_10.i24.i.i.3, %bb5.i23.i.i.3 ], [ %start1.sroa.0.0.i1768.i.i.unr, %bb2.i20.i.i.prol.loopexit ]
  %_9.i21.i.i = load i8, ptr %start1.sroa.0.0.i1768.i.i, align 1, !noalias !78, !noundef !13
  %_0.i42.i.i = icmp eq i8 %_10, %_9.i21.i.i
  br i1 %_0.i42.i.i, label %.loopexit, label %bb5.i23.i.i

bb5.i23.i.i:                                      ; preds = %bb2.i20.i.i
  %_10.i24.i.i = getelementptr inbounds nuw i8, ptr %start1.sroa.0.0.i1768.i.i, i64 1
  %_9.i21.i.i.1 = load i8, ptr %_10.i24.i.i, align 1, !noalias !78, !noundef !13
  %_0.i42.i.i.1 = icmp eq i8 %_10, %_9.i21.i.i.1
  br i1 %_0.i42.i.i.1, label %.loopexit.loopexit68.loopexit.split.loop.exit117, label %bb5.i23.i.i.1

bb5.i23.i.i.1:                                    ; preds = %bb5.i23.i.i
  %_10.i24.i.i.1 = getelementptr inbounds nuw i8, ptr %start1.sroa.0.0.i1768.i.i, i64 2
  %_9.i21.i.i.2 = load i8, ptr %_10.i24.i.i.1, align 1, !noalias !78, !noundef !13
  %_0.i42.i.i.2 = icmp eq i8 %_10, %_9.i21.i.i.2
  br i1 %_0.i42.i.i.2, label %.loopexit.loopexit68.loopexit.split.loop.exit115, label %bb5.i23.i.i.2

bb5.i23.i.i.2:                                    ; preds = %bb5.i23.i.i.1
  %_10.i24.i.i.2 = getelementptr inbounds nuw i8, ptr %start1.sroa.0.0.i1768.i.i, i64 3
  %_9.i21.i.i.3 = load i8, ptr %_10.i24.i.i.2, align 1, !noalias !78, !noundef !13
  %_0.i42.i.i.3 = icmp eq i8 %_10, %_9.i21.i.i.3
  br i1 %_0.i42.i.i.3, label %.loopexit.loopexit68.loopexit.split.loop.exit, label %bb5.i23.i.i.3

bb5.i23.i.i.3:                                    ; preds = %bb5.i23.i.i.2
  %_10.i24.i.i.3 = getelementptr inbounds nuw i8, ptr %start1.sroa.0.0.i1768.i.i, i64 4
  %exitcond92.not.i.i.3 = icmp eq ptr %_10.i24.i.i.3, %end.i
  br i1 %exitcond92.not.i.i.3, label %bb3, label %bb2.i20.i.i

bb14.i.i:                                         ; preds = %bb13.preheader.i.i, %bb19.i.i
  %cur.sroa.0.057.i.i = phi ptr [ %_27.i.i7, %bb19.i.i ], [ %32, %bb13.preheader.i.i ]
  %a.i.i = load i64, ptr %cur.sroa.0.057.i.i, align 8, !noalias !67, !noundef !13
  %_40.i.i = xor i64 %a.i.i, %_11
  %36 = sub i64 72340172838076672, %_40.i.i
  %37 = or i64 %36, %_40.i.i
  %38 = and i64 %37, -9187201950435737472
  %39 = icmp eq i64 %38, -9187201950435737472
  br i1 %39, label %bb16.i.i, label %bb21.i.i

bb21.i.i:                                         ; preds = %bb19.i.i, %bb16.i.i, %bb14.i.i, %bb13.preheader.i.i
  %cur.sroa.0.0.lcssa.i.i = phi ptr [ %32, %bb13.preheader.i.i ], [ %cur.sroa.0.057.i.i, %bb14.i.i ], [ %cur.sroa.0.057.i.i, %bb16.i.i ], [ %_27.i.i7, %bb19.i.i ]
  %cur.sroa.0.0.lcssa.i.i.fr = freeze ptr %cur.sroa.0.0.lcssa.i.i
  %_4.i2961.i.i = icmp ult ptr %cur.sroa.0.0.lcssa.i.i.fr, %end.i
  br i1 %_4.i2961.i.i, label %bb2.i31.i.i.preheader, label %bb3

bb2.i31.i.i.preheader:                            ; preds = %bb21.i.i
  %cur.sroa.0.0.lcssa.i.i81 = ptrtoint ptr %cur.sroa.0.0.lcssa.i.i.fr to i64
  %40 = add i64 %haystack.1, %27
  %41 = sub i64 %40, %cur.sroa.0.0.lcssa.i.i81
  %42 = add i64 %41, -1
  %xtraiter82 = and i64 %41, 3
  %lcmp.mod83.not = icmp eq i64 %xtraiter82, 0
  br i1 %lcmp.mod83.not, label %bb2.i31.i.i.prol.loopexit, label %bb2.i31.i.i.prol

bb2.i31.i.i.prol:                                 ; preds = %bb2.i31.i.i.preheader, %bb5.i34.i.i.prol
  %start1.sroa.0.0.i2862.i.i.prol = phi ptr [ %_10.i35.i.i.prol, %bb5.i34.i.i.prol ], [ %cur.sroa.0.0.lcssa.i.i.fr, %bb2.i31.i.i.preheader ]
  %prol.iter84 = phi i64 [ %prol.iter84.next, %bb5.i34.i.i.prol ], [ 0, %bb2.i31.i.i.preheader ]
  %_9.i32.i.i.prol = load i8, ptr %start1.sroa.0.0.i2862.i.i.prol, align 1, !noalias !82, !noundef !13
  %_0.i44.i.i.prol = icmp eq i8 %_10, %_9.i32.i.i.prol
  br i1 %_0.i44.i.i.prol, label %.loopexit, label %bb5.i34.i.i.prol

bb5.i34.i.i.prol:                                 ; preds = %bb2.i31.i.i.prol
  %_10.i35.i.i.prol = getelementptr inbounds nuw i8, ptr %start1.sroa.0.0.i2862.i.i.prol, i64 1
  %prol.iter84.next = add i64 %prol.iter84, 1
  %prol.iter84.cmp.not = icmp eq i64 %prol.iter84.next, %xtraiter82
  br i1 %prol.iter84.cmp.not, label %bb2.i31.i.i.prol.loopexit, label %bb2.i31.i.i.prol, !llvm.loop !85

bb2.i31.i.i.prol.loopexit:                        ; preds = %bb5.i34.i.i.prol, %bb2.i31.i.i.preheader
  %start1.sroa.0.0.i2862.i.i.unr = phi ptr [ %cur.sroa.0.0.lcssa.i.i.fr, %bb2.i31.i.i.preheader ], [ %_10.i35.i.i.prol, %bb5.i34.i.i.prol ]
  %43 = icmp ult i64 %42, 3
  br i1 %43, label %bb3, label %bb2.i31.i.i

bb2.i31.i.i:                                      ; preds = %bb2.i31.i.i.prol.loopexit, %bb5.i34.i.i.3
  %start1.sroa.0.0.i2862.i.i = phi ptr [ %_10.i35.i.i.3, %bb5.i34.i.i.3 ], [ %start1.sroa.0.0.i2862.i.i.unr, %bb2.i31.i.i.prol.loopexit ]
  %_9.i32.i.i = load i8, ptr %start1.sroa.0.0.i2862.i.i, align 1, !noalias !82, !noundef !13
  %_0.i44.i.i = icmp eq i8 %_10, %_9.i32.i.i
  br i1 %_0.i44.i.i, label %.loopexit, label %bb5.i34.i.i

bb5.i34.i.i:                                      ; preds = %bb2.i31.i.i
  %_10.i35.i.i = getelementptr inbounds nuw i8, ptr %start1.sroa.0.0.i2862.i.i, i64 1
  %_9.i32.i.i.1 = load i8, ptr %_10.i35.i.i, align 1, !noalias !82, !noundef !13
  %_0.i44.i.i.1 = icmp eq i8 %_10, %_9.i32.i.i.1
  br i1 %_0.i44.i.i.1, label %.loopexit.loopexit71.loopexit.split.loop.exit108, label %bb5.i34.i.i.1

bb5.i34.i.i.1:                                    ; preds = %bb5.i34.i.i
  %_10.i35.i.i.1 = getelementptr inbounds nuw i8, ptr %start1.sroa.0.0.i2862.i.i, i64 2
  %_9.i32.i.i.2 = load i8, ptr %_10.i35.i.i.1, align 1, !noalias !82, !noundef !13
  %_0.i44.i.i.2 = icmp eq i8 %_10, %_9.i32.i.i.2
  br i1 %_0.i44.i.i.2, label %.loopexit.loopexit71.loopexit.split.loop.exit106, label %bb5.i34.i.i.2

bb5.i34.i.i.2:                                    ; preds = %bb5.i34.i.i.1
  %_10.i35.i.i.2 = getelementptr inbounds nuw i8, ptr %start1.sroa.0.0.i2862.i.i, i64 3
  %_9.i32.i.i.3 = load i8, ptr %_10.i35.i.i.2, align 1, !noalias !82, !noundef !13
  %_0.i44.i.i.3 = icmp eq i8 %_10, %_9.i32.i.i.3
  br i1 %_0.i44.i.i.3, label %.loopexit.loopexit71.loopexit.split.loop.exit, label %bb5.i34.i.i.3

bb5.i34.i.i.3:                                    ; preds = %bb5.i34.i.i.2
  %_10.i35.i.i.3 = getelementptr inbounds nuw i8, ptr %start1.sroa.0.0.i2862.i.i, i64 4
  %exitcond90.not.i.i.3 = icmp eq ptr %_10.i35.i.i.3, %end.i
  br i1 %exitcond90.not.i.i.3, label %bb3, label %bb2.i31.i.i

bb16.i.i:                                         ; preds = %bb14.i.i
  %_25.i.i = getelementptr inbounds nuw i8, ptr %cur.sroa.0.057.i.i, i64 8
  %b.i.i = load i64, ptr %_25.i.i, align 8, !noalias !67, !noundef !13
  %_46.i.i = xor i64 %b.i.i, %_11
  %44 = sub i64 72340172838076672, %_46.i.i
  %45 = or i64 %44, %_46.i.i
  %46 = and i64 %45, -9187201950435737472
  %47 = icmp eq i64 %46, -9187201950435737472
  br i1 %47, label %bb19.i.i, label %bb21.i.i

bb19.i.i:                                         ; preds = %bb16.i.i
  %_27.i.i7 = getelementptr inbounds nuw i8, ptr %cur.sroa.0.057.i.i, i64 16
  %_14.not.i.i = icmp ugt ptr %_27.i.i7, %_16.i.i
  br i1 %_14.not.i.i, label %bb21.i.i, label %bb14.i.i

.loopexit.loopexit68.loopexit.split.loop.exit:    ; preds = %bb5.i23.i.i.2
  %_10.i24.i.i.2.le = getelementptr inbounds nuw i8, ptr %start1.sroa.0.0.i1768.i.i, i64 3
  br label %.loopexit

.loopexit.loopexit68.loopexit.split.loop.exit115: ; preds = %bb5.i23.i.i.1
  %_10.i24.i.i.1.le = getelementptr inbounds nuw i8, ptr %start1.sroa.0.0.i1768.i.i, i64 2
  br label %.loopexit

.loopexit.loopexit68.loopexit.split.loop.exit117: ; preds = %bb5.i23.i.i
  %_10.i24.i.i.le = getelementptr inbounds nuw i8, ptr %start1.sroa.0.0.i1768.i.i, i64 1
  br label %.loopexit

.loopexit.loopexit71.loopexit.split.loop.exit:    ; preds = %bb5.i34.i.i.2
  %_10.i35.i.i.2.le = getelementptr inbounds nuw i8, ptr %start1.sroa.0.0.i2862.i.i, i64 3
  br label %.loopexit

.loopexit.loopexit71.loopexit.split.loop.exit106: ; preds = %bb5.i34.i.i.1
  %_10.i35.i.i.1.le = getelementptr inbounds nuw i8, ptr %start1.sroa.0.0.i2862.i.i, i64 2
  br label %.loopexit

.loopexit.loopexit71.loopexit.split.loop.exit108: ; preds = %bb5.i34.i.i
  %_10.i35.i.i.le = getelementptr inbounds nuw i8, ptr %start1.sroa.0.0.i2862.i.i, i64 1
  br label %.loopexit

.loopexit.loopexit74.loopexit.split.loop.exit:    ; preds = %bb5.i12.i.i.2
  %_10.i13.i.i.2.le = getelementptr inbounds nuw i8, ptr %start1.sroa.0.0.i652.i.i, i64 3
  br label %.loopexit

.loopexit.loopexit74.loopexit.split.loop.exit97:  ; preds = %bb5.i12.i.i.1
  %_10.i13.i.i.1.le = getelementptr inbounds nuw i8, ptr %start1.sroa.0.0.i652.i.i, i64 2
  br label %.loopexit

.loopexit.loopexit74.loopexit.split.loop.exit99:  ; preds = %bb5.i12.i.i
  %_10.i13.i.i.le = getelementptr inbounds nuw i8, ptr %start1.sroa.0.0.i652.i.i, i64 1
  br label %.loopexit

.loopexit:                                        ; preds = %bb2.i9.i.i, %.loopexit.loopexit74.loopexit.split.loop.exit99, %.loopexit.loopexit74.loopexit.split.loop.exit97, %.loopexit.loopexit74.loopexit.split.loop.exit, %bb2.i9.i.i.prol, %bb2.i31.i.i, %.loopexit.loopexit71.loopexit.split.loop.exit108, %.loopexit.loopexit71.loopexit.split.loop.exit106, %.loopexit.loopexit71.loopexit.split.loop.exit, %bb2.i31.i.i.prol, %bb2.i20.i.i, %.loopexit.loopexit68.loopexit.split.loop.exit117, %.loopexit.loopexit68.loopexit.split.loop.exit115, %.loopexit.loopexit68.loopexit.split.loop.exit, %bb2.i20.i.i.prol, %bb2.i.i.i, %bb2.i.i.i.1, %bb2.i.i.i.2, %bb2.i.i.i.3, %bb2.i.i.i.4, %bb2.i.i.i.5, %bb2.i.i.i.6
  %_0.sroa.6.0.i.i = phi ptr [ %haystack.0, %bb2.i.i.i ], [ %_10.i.i.i, %bb2.i.i.i.1 ], [ %_10.i.i.i.1, %bb2.i.i.i.2 ], [ %_10.i.i.i.2, %bb2.i.i.i.3 ], [ %_10.i.i.i.3, %bb2.i.i.i.4 ], [ %_10.i.i.i.4, %bb2.i.i.i.5 ], [ %_10.i.i.i.5, %bb2.i.i.i.6 ], [ %_10.i24.i.i.2.le, %.loopexit.loopexit68.loopexit.split.loop.exit ], [ %_10.i24.i.i.1.le, %.loopexit.loopexit68.loopexit.split.loop.exit115 ], [ %_10.i24.i.i.le, %.loopexit.loopexit68.loopexit.split.loop.exit117 ], [ %start1.sroa.0.0.i1768.i.i, %bb2.i20.i.i ], [ %start1.sroa.0.0.i1768.i.i.prol, %bb2.i20.i.i.prol ], [ %_10.i35.i.i.2.le, %.loopexit.loopexit71.loopexit.split.loop.exit ], [ %_10.i35.i.i.1.le, %.loopexit.loopexit71.loopexit.split.loop.exit106 ], [ %_10.i35.i.i.le, %.loopexit.loopexit71.loopexit.split.loop.exit108 ], [ %start1.sroa.0.0.i2862.i.i, %bb2.i31.i.i ], [ %start1.sroa.0.0.i2862.i.i.prol, %bb2.i31.i.i.prol ], [ %_10.i13.i.i.2.le, %.loopexit.loopexit74.loopexit.split.loop.exit ], [ %_10.i13.i.i.1.le, %.loopexit.loopexit74.loopexit.split.loop.exit97 ], [ %_10.i13.i.i.le, %.loopexit.loopexit74.loopexit.split.loop.exit99 ], [ %start1.sroa.0.0.i652.i.i, %bb2.i9.i.i ], [ %start1.sroa.0.0.i652.i.i.prol, %bb2.i9.i.i.prol ]
  %48 = ptrtoint ptr %_0.sroa.6.0.i.i to i64
  %49 = sub i64 %48, %27
  %_9.i = icmp sgt i64 %49, -1
  tail call void @llvm.assume(i1 %_9.i)
  %50 = getelementptr inbounds nuw i8, ptr %strat, i64 57
  %_18 = load i8, ptr %50, align 1
  %_17 = zext i8 %_18 to i64
  %51 = tail call i64 @llvm.usub.sat.i64(i64 %49, i64 %_17)
  br label %bb3

bb3:                                              ; preds = %bb5.i12.i.i.3, %bb2.i31.i.i.prol.loopexit, %bb5.i34.i.i.3, %bb2.i20.i.i.prol.loopexit, %bb5.i23.i.i.3, %bb5.i.i.i, %bb5.i.i.i.1, %bb5.i.i.i.2, %bb5.i.i.i.3, %bb5.i.i.i.4, %bb5.i.i.i.5, %bb2.i.i.i.6, %.loopexit, %bb1, %bb1.i16.preheader.i.i, %bb21.i.i, %bb6.i.i, %bb12.i.i, %bb9.i.i, %bb8.i.i
  %_0.sroa.0.1.pn = phi i64 [ 1, %bb6.i.i ], [ 1, %bb12.i.i ], [ 0, %bb8.i.i ], [ 0, %bb9.i.i ], [ 1, %.loopexit ], [ 0, %bb1 ], [ 0, %bb1.i16.preheader.i.i ], [ 0, %bb21.i.i ], [ 0, %bb2.i.i.i.6 ], [ 0, %bb5.i.i.i.5 ], [ 0, %bb5.i.i.i.4 ], [ 0, %bb5.i.i.i.3 ], [ 0, %bb5.i.i.i.2 ], [ 0, %bb5.i.i.i.1 ], [ 0, %bb5.i.i.i ], [ 0, %bb5.i23.i.i.3 ], [ 0, %bb2.i20.i.i.prol.loopexit ], [ 0, %bb5.i34.i.i.3 ], [ 0, %bb2.i31.i.i.prol.loopexit ], [ 0, %bb5.i12.i.i.3 ]
  %_0.sroa.4.1.pn = phi i64 [ %_26.i.i, %bb6.i.i ], [ %_33.i.i, %bb12.i.i ], [ undef, %bb8.i.i ], [ undef, %bb9.i.i ], [ %51, %.loopexit ], [ undef, %bb1 ], [ undef, %bb1.i16.preheader.i.i ], [ undef, %bb21.i.i ], [ undef, %bb2.i.i.i.6 ], [ undef, %bb5.i.i.i.5 ], [ undef, %bb5.i.i.i.4 ], [ undef, %bb5.i.i.i.3 ], [ undef, %bb5.i.i.i.2 ], [ undef, %bb5.i.i.i.1 ], [ undef, %bb5.i.i.i ], [ undef, %bb5.i23.i.i.3 ], [ undef, %bb2.i20.i.i.prol.loopexit ], [ undef, %bb5.i34.i.i.3 ], [ undef, %bb2.i31.i.i.prol.loopexit ], [ undef, %bb5.i12.i.i.3 ]
  %.pn = insertvalue { i64, i64 } poison, i64 %_0.sroa.0.1.pn, 0
  %.merged = insertvalue { i64, i64 } %.pn, i64 %_0.sroa.4.1.pn, 1
  ret { i64, i64 } %.merged
}

; memchr::memmem::searcher::searcher_kind_two_way
; Function Attrs: uwtable
define { i64, i64 } @_RNvNtNtCsl5bjp7iZrWZ_6memchr6memmem8searcher21searcher_kind_two_way(ptr noalias noundef readonly align 16 captures(none) dereferenceable(112) %searcher, ptr noalias noundef readnone align 4 captures(none) dereferenceable(8) %_prestate, ptr noalias noundef nonnull readonly align 1 captures(address, read_provenance) %haystack.0, i64 noundef range(i64 0, -9223372036854775808) %haystack.1, ptr noalias noundef nonnull readonly align 1 captures(none) %needle.0, i64 noundef range(i64 0, -9223372036854775808) %needle.1) unnamed_addr #0 personality ptr @rust_eh_personality {
start:
  %_5 = icmp samesign ult i64 %haystack.1, 16
  br i1 %_5, label %bb1, label %bb3

bb3:                                              ; preds = %start
  %_9 = load i64, ptr %searcher, align 16, !range !86, !noundef !13
  %0 = getelementptr inbounds nuw i8, ptr %searcher, i64 8
  %1 = trunc nuw i64 %_9 to i1
  %_11 = load i64, ptr %0, align 8, !noundef !13
  br i1 %1, label %bb7, label %bb8

bb1:                                              ; preds = %start
  %_6 = getelementptr inbounds nuw i8, ptr %searcher, i64 96
  %_6.val = load i32, ptr %_6, align 16
  %2 = getelementptr inbounds nuw i8, ptr %searcher, i64 100
  %_6.val50 = load i32, ptr %2, align 4
  tail call void @llvm.experimental.noalias.scope.decl(metadata !87)
  %3 = ptrtoint ptr %haystack.0 to i64
  %_8.i.i = icmp samesign ugt i64 %needle.1, %haystack.1
  br i1 %_8.i.i, label %bb4, label %bb4.i.i

bb4.i.i:                                          ; preds = %bb1
  %hend.i = getelementptr inbounds nuw i8, ptr %haystack.0, i64 %haystack.1
  %_24.i.i = sub nsw i64 0, %needle.1
  %end.i.i = getelementptr inbounds i8, ptr %hend.i, i64 %_24.i.i
  %_11.i.i = getelementptr inbounds nuw i8, ptr %haystack.0, i64 %needle.1
  %_261.not.i.i = icmp samesign eq i64 %needle.1, 0
  br i1 %_261.not.i.i, label %bb5.i.i.preheader, label %bb16.i.i

bb16.i.i:                                         ; preds = %bb4.i.i, %bb16.i.i
  %_10.sroa.0.03.i.i = phi ptr [ %_30.i.i, %bb16.i.i ], [ %haystack.0, %bb4.i.i ]
  %hash.sroa.0.02.i.i = phi i32 [ %4, %bb16.i.i ], [ 0, %bb4.i.i ]
  %_28.i.i = load i8, ptr %_10.sroa.0.03.i.i, align 1, !alias.scope !90, !noalias !87, !noundef !13
  %_32.i.i = shl i32 %hash.sroa.0.02.i.i, 1
  %_33.i.i = zext i8 %_28.i.i to i32
  %4 = add i32 %_32.i.i, %_33.i.i
  %_30.i.i = getelementptr inbounds nuw i8, ptr %_10.sroa.0.03.i.i, i64 1
  %_26.i.i = icmp ult ptr %_30.i.i, %_11.i.i
  br i1 %_26.i.i, label %bb16.i.i, label %bb5.i.i.preheader

bb5.i.i.preheader:                                ; preds = %bb16.i.i, %bb4.i.i
  %hash.sroa.0.1.i.i.ph = phi i32 [ 0, %bb4.i.i ], [ %4, %bb16.i.i ]
  br label %bb5.i.i

bb5.i.i:                                          ; preds = %bb5.i.i.preheader, %bb12.i.i
  %hash.sroa.0.1.i.i = phi i32 [ %5, %bb12.i.i ], [ %hash.sroa.0.1.i.i.ph, %bb5.i.i.preheader ]
  %hstart.sroa.0.0.i.i = phi ptr [ %_23.i.i, %bb12.i.i ], [ %haystack.0, %bb5.i.i.preheader ]
  %_13.i.i = icmp eq i32 %_6.val, %hash.sroa.0.1.i.i
  br i1 %_13.i.i, label %bb6.i.i, label %bb10.i.i, !prof !2

bb10.i.i:                                         ; preds = %bb6.i.i, %bb5.i.i
  %_16.not.i.i = icmp ult ptr %hstart.sroa.0.0.i.i, %end.i.i
  br i1 %_16.not.i.i, label %bb12.i.i, label %bb4

bb6.i.i:                                          ; preds = %bb5.i.i
; call memchr::arch::all::rabinkarp::is_equal_raw
  %_14.i.i = tail call noundef zeroext i1 @_RNvNtNtNtCsl5bjp7iZrWZ_6memchr4arch3all9rabinkarp12is_equal_raw(ptr noundef nonnull %hstart.sroa.0.0.i.i, ptr noundef nonnull readonly align 1 %needle.0, i64 noundef range(i64 0, -9223372036854775808) %needle.1) #15, !alias.scope !92
  br i1 %_14.i.i, label %bb6.i, label %bb10.i.i

bb12.i.i:                                         ; preds = %bb10.i.i
  %_18.i.i = load i8, ptr %hstart.sroa.0.0.i.i, align 1, !alias.scope !90, !noalias !87, !noundef !13
  %_21.i.i = getelementptr inbounds nuw i8, ptr %hstart.sroa.0.0.i.i, i64 %needle.1
  %_20.i.i = load i8, ptr %_21.i.i, align 1, !alias.scope !90, !noalias !87, !noundef !13
  %_39.i.i = zext i8 %_18.i.i to i32
  %_38.i.i = mul i32 %_6.val50, %_39.i.i
  %_37.i.i = sub i32 %hash.sroa.0.1.i.i, %_38.i.i
  %_40.i.i = shl i32 %_37.i.i, 1
  %_41.i.i = zext i8 %_20.i.i to i32
  %5 = add i32 %_40.i.i, %_41.i.i
  %_23.i.i = getelementptr inbounds nuw i8, ptr %hstart.sroa.0.0.i.i, i64 1
  br label %bb5.i.i

bb6.i:                                            ; preds = %bb6.i.i
  %6 = ptrtoint ptr %hstart.sroa.0.0.i.i to i64
  %7 = sub i64 %6, %3
  %_9.i.i = icmp sgt i64 %7, -1
  tail call void @llvm.assume(i1 %_9.i.i)
  br label %bb4

bb7:                                              ; preds = %bb3
  tail call void @llvm.experimental.noalias.scope.decl(metadata !93)
  tail call void @llvm.experimental.noalias.scope.decl(metadata !96)
  %_55.i = icmp eq i64 %needle.1, 0
  br i1 %_55.i, label %bb4, label %bb34.i

bb34.i:                                           ; preds = %bb7
  %_56.i = add nsw i64 %needle.1, -1
  %_10.not.i121 = icmp samesign ugt i64 %needle.1, %haystack.1
  br i1 %_10.not.i121, label %bb4, label %bb8.i.lr.ph

bb8.i.lr.ph:                                      ; preds = %bb34.i
  %8 = getelementptr inbounds nuw i8, ptr %searcher, i64 16
  %_79.i = load i64, ptr %8, align 16
  %9 = getelementptr inbounds nuw i8, ptr %searcher, i64 24
  %10 = load i64, ptr %9, align 8
  %_29.i119 = icmp ult i64 %10, %needle.1
  %11 = add i64 %10, -1
  %_50.i.first_iter = icmp ult i64 %11, %needle.1
  br label %bb8.i

bb8.i:                                            ; preds = %bb8.i.lr.ph, %bb2.i.backedge
  %pos.sroa.0.0.i122 = phi i64 [ 0, %bb8.i.lr.ph ], [ %pos.sroa.0.0.i.be, %bb2.i.backedge ]
  %_25.i = add i64 %_56.i, %pos.sroa.0.0.i122
  %_27.i = icmp ult i64 %_25.i, %haystack.1
  br i1 %_27.i, label %bb9.i, label %panic.i

bb9.i:                                            ; preds = %bb8.i
  %12 = getelementptr inbounds nuw i8, ptr %haystack.0, i64 %_25.i
  %_24.i = load i8, ptr %12, align 1, !alias.scope !93, !noalias !98, !noundef !13
  %_81.i = and i8 %_24.i, 63
  %13 = zext nneg i8 %_81.i to i64
  %_80.i = shl nuw i64 1, %13
  %_78.i = and i64 %_80.i, %_79.i
  %14 = icmp eq i64 %_78.i, 0
  br i1 %14, label %bb28.i, label %bb10.i

panic.i:                                          ; preds = %bb8.i
; call core::panicking::panic_bounds_check
  tail call void @_RNvNtCsjMrxcFdYDNN_4core9panicking18panic_bounds_check(i64 noundef %_25.i, i64 noundef range(i64 16, -9223372036854775808) %haystack.1, ptr noalias noundef readonly align 8 captures(address, read_provenance) dereferenceable(24) @alloc_4415b07e3fa2db327f519d78db21b365) #14, !noalias !101
  unreachable

bb10.i:                                           ; preds = %bb9.i
  br i1 %_29.i119, label %bb14.i, label %bb22.i.preheader

bb22.i.preheader:                                 ; preds = %bb16.i, %bb10.i
  br label %bb22.i

bb28.i:                                           ; preds = %bb24.i, %bb9.i
  %needle.1.pn.i = phi i64 [ %needle.1, %bb9.i ], [ %_11, %bb24.i ]
  %pos.sroa.0.2.i = add i64 %needle.1.pn.i, %pos.sroa.0.0.i122
  br label %bb2.i.backedge

bb2.i.backedge:                                   ; preds = %bb28.i, %bb20.i
  %pos.sroa.0.0.i.be = phi i64 [ %pos.sroa.0.2.i, %bb28.i ], [ %19, %bb20.i ]
  %_11.i = add i64 %pos.sroa.0.0.i.be, %needle.1
  %_10.not.i = icmp ugt i64 %_11.i, %haystack.1
  br i1 %_10.not.i, label %bb4, label %bb8.i

bb14.i:                                           ; preds = %bb10.i, %bb16.i
  %i.sroa.0.0.i120 = phi i64 [ %18, %bb16.i ], [ %10, %bb10.i ]
  %_36.i = add i64 %i.sroa.0.0.i120, %pos.sroa.0.0.i122
  %_39.i = icmp ult i64 %_36.i, %haystack.1
  br i1 %_39.i, label %bb15.i, label %panic3.i

bb15.i:                                           ; preds = %bb14.i
  %15 = getelementptr inbounds nuw i8, ptr %needle.0, i64 %i.sroa.0.0.i120
  %_32.i = load i8, ptr %15, align 1, !alias.scope !96, !noalias !102, !noundef !13
  %16 = getelementptr inbounds nuw i8, ptr %haystack.0, i64 %_36.i
  %_35.i = load i8, ptr %16, align 1, !alias.scope !93, !noalias !98, !noundef !13
  %_31.i = icmp eq i8 %_32.i, %_35.i
  br i1 %_31.i, label %bb16.i, label %bb20.i

panic3.i:                                         ; preds = %bb14.i
  %17 = add i64 %10, %pos.sroa.0.0.i122
  %umax166 = tail call i64 @llvm.umax.i64(i64 %haystack.1, i64 %17)
; call core::panicking::panic_bounds_check
  tail call void @_RNvNtCsjMrxcFdYDNN_4core9panicking18panic_bounds_check(i64 noundef %umax166, i64 noundef range(i64 16, -9223372036854775808) %haystack.1, ptr noalias noundef readonly align 8 captures(address, read_provenance) dereferenceable(24) @alloc_b5f6b846c7dcee1c93fc0227dd433502) #14, !noalias !101
  unreachable

bb16.i:                                           ; preds = %bb15.i
  %18 = add i64 %i.sroa.0.0.i120, 1
  %exitcond167.not = icmp eq i64 %18, %needle.1
  br i1 %exitcond167.not, label %bb22.i.preheader, label %bb14.i

bb20.i:                                           ; preds = %bb15.i
  %reass.sub123 = sub i64 %pos.sroa.0.0.i122, %10
  %_42.i.reass = add i64 %reass.sub123, 1
  %19 = add i64 %_42.i.reass, %i.sroa.0.0.i120
  br label %bb2.i.backedge

bb22.i:                                           ; preds = %bb22.i.preheader, %bb24.i
  %iter.sroa.0.0.i = phi i64 [ %_83.i, %bb24.i ], [ %10, %bb22.i.preheader ]
  %_82.not.i = icmp eq i64 %iter.sroa.0.0.i, 0
  br i1 %_82.not.i, label %bb4, label %bb49.i

bb49.i:                                           ; preds = %bb22.i
  %_83.i = add i64 %iter.sroa.0.0.i, -1
  br i1 %_50.i.first_iter, label %bb23.i, label %panic4.i

bb23.i:                                           ; preds = %bb49.i
  %_52.i = add i64 %_83.i, %pos.sroa.0.0.i122
  %_54.i = icmp ult i64 %_52.i, %haystack.1
  br i1 %_54.i, label %bb24.i, label %panic5.i

panic4.i:                                         ; preds = %bb49.i
; call core::panicking::panic_bounds_check
  tail call void @_RNvNtCsjMrxcFdYDNN_4core9panicking18panic_bounds_check(i64 noundef %_83.i, i64 noundef range(i64 0, -9223372036854775808) %needle.1, ptr noalias noundef readonly align 8 captures(address, read_provenance) dereferenceable(24) @alloc_e11d25f88235dccf68a7eb520ddd736c) #14, !noalias !101
  unreachable

bb24.i:                                           ; preds = %bb23.i
  %20 = getelementptr inbounds nuw i8, ptr %needle.0, i64 %_83.i
  %_49.i = load i8, ptr %20, align 1, !alias.scope !96, !noalias !102, !noundef !13
  %21 = getelementptr inbounds nuw i8, ptr %haystack.0, i64 %_52.i
  %_51.i = load i8, ptr %21, align 1, !alias.scope !93, !noalias !98, !noundef !13
  %_48.not.i = icmp eq i8 %_49.i, %_51.i
  br i1 %_48.not.i, label %bb22.i, label %bb28.i

panic5.i:                                         ; preds = %bb23.i
; call core::panicking::panic_bounds_check
  tail call void @_RNvNtCsjMrxcFdYDNN_4core9panicking18panic_bounds_check(i64 noundef %_52.i, i64 noundef range(i64 16, -9223372036854775808) %haystack.1, ptr noalias noundef readonly align 8 captures(address, read_provenance) dereferenceable(24) @alloc_d2f96fbe813dc611dfdb35b3a69e2d06) #14, !noalias !101
  unreachable

bb8:                                              ; preds = %bb3
  tail call void @llvm.experimental.noalias.scope.decl(metadata !103)
  tail call void @llvm.experimental.noalias.scope.decl(metadata !106)
  tail call void @llvm.experimental.noalias.scope.decl(metadata !108)
  %_71.i3 = icmp eq i64 %needle.1, 0
  br i1 %_71.i3, label %bb4, label %bb44.i

bb44.i:                                           ; preds = %bb8
  %_72.i = add nsw i64 %needle.1, -1
  %_11.not.i112 = icmp samesign ugt i64 %needle.1, %haystack.1
  br i1 %_11.not.i112, label %bb4, label %bb8.i16.lr.ph

bb8.i16.lr.ph:                                    ; preds = %bb44.i
  %22 = getelementptr inbounds nuw i8, ptr %searcher, i64 24
  %_15.i = load i64, ptr %22, align 8, !alias.scope !103, !noalias !110, !noundef !13
  %23 = getelementptr inbounds nuw i8, ptr %searcher, i64 16
  %_95.i = load i64, ptr %23, align 16
  %24 = sub i64 %needle.1, %_11
  br label %bb8.i16

bb8.i16:                                          ; preds = %bb8.i16.lr.ph, %bb2.i4.backedge
  %pos.sroa.0.0.i5114 = phi i64 [ 0, %bb8.i16.lr.ph ], [ %pos.sroa.0.0.i5.be, %bb2.i4.backedge ]
  %shift.sroa.0.0.i113 = phi i64 [ 0, %bb8.i16.lr.ph ], [ %shift.sroa.0.0.i.be, %bb2.i4.backedge ]
  %_29.i19 = add i64 %_72.i, %pos.sroa.0.0.i5114
  %_31.i20 = icmp ult i64 %_29.i19, %haystack.1
  br i1 %_31.i20, label %bb9.i22, label %panic.i21

bb9.i22:                                          ; preds = %bb8.i16
  %25 = getelementptr inbounds nuw i8, ptr %haystack.0, i64 %_29.i19
  %_28.i = load i8, ptr %25, align 1, !alias.scope !106, !noalias !112, !noundef !13
  %_97.i = and i8 %_28.i, 63
  %26 = zext nneg i8 %_97.i to i64
  %_96.i = shl nuw i64 1, %26
  %_94.i = and i64 %_96.i, %_95.i
  %27 = icmp eq i64 %_94.i, 0
  br i1 %27, label %bb11.i, label %bb12.i23.preheader

bb12.i23.preheader:                               ; preds = %bb9.i22
  %_0.sroa.0.0.i58 = tail call noundef i64 @llvm.umax.i64(i64 %shift.sroa.0.0.i113, i64 %_15.i)
  %_32.i24108 = icmp ult i64 %_0.sroa.0.0.i58, %needle.1
  br i1 %_32.i24108, label %bb14.i41, label %bb22.i26.preheader

panic.i21:                                        ; preds = %bb8.i16
; call core::panicking::panic_bounds_check
  tail call void @_RNvNtCsjMrxcFdYDNN_4core9panicking18panic_bounds_check(i64 noundef %_29.i19, i64 noundef range(i64 16, -9223372036854775808) %haystack.1, ptr noalias noundef readonly align 8 captures(address, read_provenance) dereferenceable(24) @alloc_aeeeb22db2d5d5c0ce586a9a14b48145) #14, !noalias !113
  unreachable

bb11.i:                                           ; preds = %bb9.i22
  %28 = add i64 %pos.sroa.0.0.i5114, %needle.1
  br label %bb2.i4.backedge

bb2.i4.backedge:                                  ; preds = %bb11.i, %bb37.i
  %shift.sroa.0.0.i.be = phi i64 [ 0, %bb11.i ], [ %shift.sroa.0.2.i, %bb37.i ]
  %pos.sroa.0.0.i5.be = phi i64 [ %28, %bb11.i ], [ %pos.sroa.0.2.i32, %bb37.i ]
  %_12.i = add i64 %pos.sroa.0.0.i5.be, %needle.1
  %_11.not.i = icmp ugt i64 %_12.i, %haystack.1
  br i1 %_11.not.i, label %bb4, label %bb8.i16

bb22.i26.preheader:                               ; preds = %bb16.i49, %bb12.i23.preheader
  %_49.i27110 = icmp ugt i64 %_15.i, %shift.sroa.0.0.i113
  br i1 %_49.i27110, label %bb23.i33, label %bb30.i

bb14.i41:                                         ; preds = %bb12.i23.preheader, %bb16.i49
  %i.sroa.0.1.i109 = phi i64 [ %32, %bb16.i49 ], [ %_0.sroa.0.0.i58, %bb12.i23.preheader ]
  %_39.i42 = add i64 %i.sroa.0.1.i109, %pos.sroa.0.0.i5114
  %_42.i43 = icmp ult i64 %_39.i42, %haystack.1
  br i1 %_42.i43, label %bb15.i45, label %panic3.i44

bb15.i45:                                         ; preds = %bb14.i41
  %29 = getelementptr inbounds nuw i8, ptr %needle.0, i64 %i.sroa.0.1.i109
  %_35.i46 = load i8, ptr %29, align 1, !alias.scope !108, !noalias !114, !noundef !13
  %30 = getelementptr inbounds nuw i8, ptr %haystack.0, i64 %_39.i42
  %_38.i = load i8, ptr %30, align 1, !alias.scope !106, !noalias !112, !noundef !13
  %_34.i = icmp eq i8 %_35.i46, %_38.i
  br i1 %_34.i, label %bb16.i49, label %bb20.i48

panic3.i44:                                       ; preds = %bb14.i41
  %31 = add i64 %pos.sroa.0.0.i5114, %_0.sroa.0.0.i58
  %umax = tail call i64 @llvm.umax.i64(i64 %haystack.1, i64 %31)
; call core::panicking::panic_bounds_check
  tail call void @_RNvNtCsjMrxcFdYDNN_4core9panicking18panic_bounds_check(i64 noundef %umax, i64 noundef range(i64 16, -9223372036854775808) %haystack.1, ptr noalias noundef readonly align 8 captures(address, read_provenance) dereferenceable(24) @alloc_c87148998ed7db37e08e1a2174257cfd) #14, !noalias !113
  unreachable

bb16.i49:                                         ; preds = %bb15.i45
  %32 = add i64 %i.sroa.0.1.i109, 1
  %exitcond.not = icmp eq i64 %32, %needle.1
  br i1 %exitcond.not, label %bb22.i26.preheader, label %bb14.i41

bb20.i48:                                         ; preds = %bb15.i45
  %reass.sub = sub i64 %i.sroa.0.1.i109, %_15.i
  %_45.i = add i64 %reass.sub, 1
  br label %bb37.i

bb23.i33:                                         ; preds = %bb22.i26.preheader, %bb26.i
  %j.sroa.0.0.i111 = phi i64 [ %35, %bb26.i ], [ %_15.i, %bb22.i26.preheader ]
  %_55.i34 = icmp ult i64 %j.sroa.0.0.i111, %needle.1
  br i1 %_55.i34, label %bb24.i36, label %panic4.i35

bb24.i36:                                         ; preds = %bb23.i33
  %_57.i = add i64 %j.sroa.0.0.i111, %pos.sroa.0.0.i5114
  %_60.i37 = icmp ult i64 %_57.i, %haystack.1
  br i1 %_60.i37, label %bb25.i, label %panic5.i38

panic4.i35:                                       ; preds = %bb23.i33
; call core::panicking::panic_bounds_check
  tail call void @_RNvNtCsjMrxcFdYDNN_4core9panicking18panic_bounds_check(i64 noundef %j.sroa.0.0.i111, i64 noundef range(i64 0, -9223372036854775808) %needle.1, ptr noalias noundef readonly align 8 captures(address, read_provenance) dereferenceable(24) @alloc_e6fc43d669659d035dda2246f428dd3f) #14, !noalias !113
  unreachable

bb25.i:                                           ; preds = %bb24.i36
  %33 = getelementptr inbounds nuw i8, ptr %needle.0, i64 %j.sroa.0.0.i111
  %_53.i = load i8, ptr %33, align 1, !alias.scope !108, !noalias !114, !noundef !13
  %34 = getelementptr inbounds nuw i8, ptr %haystack.0, i64 %_57.i
  %_56.i39 = load i8, ptr %34, align 1, !alias.scope !106, !noalias !112, !noundef !13
  %_52.i40 = icmp eq i8 %_53.i, %_56.i39
  br i1 %_52.i40, label %bb26.i, label %bb37.i

panic5.i38:                                       ; preds = %bb24.i36
; call core::panicking::panic_bounds_check
  tail call void @_RNvNtCsjMrxcFdYDNN_4core9panicking18panic_bounds_check(i64 noundef %_57.i, i64 noundef range(i64 16, -9223372036854775808) %haystack.1, ptr noalias noundef readonly align 8 captures(address, read_provenance) dereferenceable(24) @alloc_67af9fdc97abcb42f8f57ad5de47a1d1) #14, !noalias !113
  unreachable

bb26.i:                                           ; preds = %bb25.i
  %35 = add nsw i64 %j.sroa.0.0.i111, -1
  %_49.i27 = icmp ugt i64 %35, %shift.sroa.0.0.i113
  br i1 %_49.i27, label %bb23.i33, label %bb30.i

bb30.i:                                           ; preds = %bb26.i, %bb22.i26.preheader
  %_66.i28 = icmp ult i64 %shift.sroa.0.0.i113, %needle.1
  br i1 %_66.i28, label %bb32.i, label %panic6.i

bb32.i:                                           ; preds = %bb30.i
  %_68.i = add i64 %pos.sroa.0.0.i5114, %shift.sroa.0.0.i113
  %_70.i = icmp ult i64 %_68.i, %haystack.1
  br i1 %_70.i, label %bb33.i, label %panic7.i

panic6.i:                                         ; preds = %bb30.i
; call core::panicking::panic_bounds_check
  tail call void @_RNvNtCsjMrxcFdYDNN_4core9panicking18panic_bounds_check(i64 noundef %shift.sroa.0.0.i113, i64 noundef range(i64 0, -9223372036854775808) %needle.1, ptr noalias noundef readonly align 8 captures(address, read_provenance) dereferenceable(24) @alloc_e00afcc7fe7d99261f114a1ed7ce656f) #14, !noalias !113
  unreachable

bb33.i:                                           ; preds = %bb32.i
  %36 = getelementptr inbounds nuw i8, ptr %needle.0, i64 %shift.sroa.0.0.i113
  %_64.i29 = load i8, ptr %36, align 1, !alias.scope !108, !noalias !114, !noundef !13
  %37 = getelementptr inbounds nuw i8, ptr %haystack.0, i64 %_68.i
  %_67.i = load i8, ptr %37, align 1, !alias.scope !106, !noalias !112, !noundef !13
  %_63.i30 = icmp eq i8 %_64.i29, %_67.i
  br i1 %_63.i30, label %bb4, label %bb37.i

panic7.i:                                         ; preds = %bb32.i
; call core::panicking::panic_bounds_check
  tail call void @_RNvNtCsjMrxcFdYDNN_4core9panicking18panic_bounds_check(i64 noundef %_68.i, i64 noundef range(i64 16, -9223372036854775808) %haystack.1, ptr noalias noundef readonly align 8 captures(address, read_provenance) dereferenceable(24) @alloc_7fca3cb05edfdc4e500e3b12ac3ae190) #14, !noalias !113
  unreachable

bb37.i:                                           ; preds = %bb25.i, %bb33.i, %bb20.i48
  %shift.sroa.0.2.i = phi i64 [ 0, %bb20.i48 ], [ %24, %bb33.i ], [ %24, %bb25.i ]
  %_45.pn.i = phi i64 [ %_45.i, %bb20.i48 ], [ %_11, %bb33.i ], [ %_11, %bb25.i ]
  %pos.sroa.0.2.i32 = add i64 %_45.pn.i, %pos.sroa.0.0.i5114
  br label %bb2.i4.backedge

bb4:                                              ; preds = %bb2.i4.backedge, %bb33.i, %bb2.i.backedge, %bb22.i, %bb10.i.i, %bb44.i, %bb34.i, %bb8, %bb7, %bb6.i, %bb1
  %_0.sroa.0.0.i53.pn = phi i64 [ 1, %bb6.i ], [ 0, %bb1 ], [ 1, %bb7 ], [ 1, %bb8 ], [ 0, %bb34.i ], [ 0, %bb44.i ], [ 0, %bb10.i.i ], [ 1, %bb22.i ], [ 0, %bb2.i.backedge ], [ 0, %bb2.i4.backedge ], [ 1, %bb33.i ]
  %_0.sroa.3.0.i.pn = phi i64 [ %7, %bb6.i ], [ undef, %bb1 ], [ 0, %bb7 ], [ 0, %bb8 ], [ undef, %bb34.i ], [ undef, %bb44.i ], [ undef, %bb10.i.i ], [ %pos.sroa.0.0.i122, %bb22.i ], [ undef, %bb2.i.backedge ], [ %pos.sroa.0.0.i5114, %bb33.i ], [ %pos.sroa.0.0.i5114, %bb2.i4.backedge ]
  %.pn69 = insertvalue { i64, i64 } poison, i64 %_0.sroa.0.0.i53.pn, 0
  %.pn = insertvalue { i64, i64 } %.pn69, i64 %_0.sroa.3.0.i.pn, 1
  ret { i64, i64 } %.pn
}

; memchr::memmem::searcher::searcher_kind_one_byte
; Function Attrs: nofree norecurse nosync nounwind memory(argmem: read, inaccessiblemem: write) uwtable
define { i64, i64 } @_RNvNtNtCsl5bjp7iZrWZ_6memchr6memmem8searcher22searcher_kind_one_byte(ptr noalias noundef readonly align 16 captures(none) dereferenceable(112) %searcher, ptr noalias noundef readnone align 4 captures(none) dereferenceable(8) %_prestate, ptr noalias noundef nonnull readonly align 1 captures(address, read_provenance) %haystack.0, i64 noundef range(i64 0, -9223372036854775808) %haystack.1, ptr noalias noundef nonnull readonly align 1 captures(none) %_needle.0, i64 noundef range(i64 0, -9223372036854775808) %_needle.1) unnamed_addr #2 personality ptr @rust_eh_personality {
start:
  %needle = load i8, ptr %searcher, align 16, !noundef !13
  %end.i = getelementptr inbounds nuw i8, ptr %haystack.0, i64 %haystack.1
  %0 = insertelement <1 x i8> poison, i8 %needle, i64 0
  %1 = shufflevector <1 x i8> %0, <1 x i8> poison, <16 x i32> zeroinitializer
  %_4.not.i.i.not = icmp eq i64 %haystack.1, 0
  br i1 %_4.not.i.i.not, label %_RINvNtNtNtCsl5bjp7iZrWZ_6memchr4arch7generic6memchr21search_slice_with_rawNCNvNtB8_6memchr6memchr0EB8_.exit, label %bb2.i.i

bb2.i.i:                                          ; preds = %start
  %2 = ptrtoint ptr %end.i to i64
  %3 = ptrtoint ptr %haystack.0 to i64
  %_5.i.i = icmp samesign ult i64 %haystack.1, 16
  br i1 %_5.i.i, label %bb2.i.i.i, label %bb6.i.i

bb6.i.i:                                          ; preds = %bb2.i.i
  %start1.val.i.i.i = load <16 x i8>, ptr %haystack.0, align 1, !noalias !115
  %4 = icmp eq <16 x i8> %1, %start1.val.i.i.i
  %5 = sext <16 x i1> %4 to <16 x i8>
  %6 = bitcast <16 x i8> %5 to <8 x i16>
  %7 = lshr <8 x i16> %6, splat (i16 4)
  %8 = trunc <8 x i16> %7 to <8 x i8>
  %9 = bitcast <8 x i8> %8 to i64
  %_6.i31.i.i.i = and i64 %9, -8608480567731124088
  %_0.i40.not.i.i.i = icmp eq i64 %_6.i31.i.i.i, 0
  br i1 %_0.i40.not.i.i.i, label %bb4.i.i.i.i, label %bb3.i.i.i.i

bb3.i.i.i.i:                                      ; preds = %bb6.i.i
  %10 = tail call range(i64 0, 65) i64 @llvm.cttz.i64(i64 range(i64 0, -8608480567731124087) %_6.i31.i.i.i, i1 true)
  %_2.i.i.i.i.i = lshr i64 %10, 2
  %_9.i40.i.i.i.i = getelementptr inbounds nuw i8, ptr %haystack.0, i64 %_2.i.i.i.i.i
  br label %bb8.i

bb4.i.i.i.i:                                      ; preds = %bb6.i.i
  %_9.i.i.i.i = and i64 %3, 15
  %_8.i.i.i.i = sub nuw nsw i64 16, %_9.i.i.i.i
  %11 = getelementptr inbounds nuw i8, ptr %haystack.0, i64 %_8.i.i.i.i
  %_11.i.i.i.i = icmp samesign ugt i64 %haystack.1, 63
  %_14.i.i.i.i = getelementptr inbounds i8, ptr %end.i, i64 -64
  %_12.i.i.i.i = icmp ule ptr %11, %_14.i.i.i.i
  %or.cond.i.i.i.i = select i1 %_11.i.i.i.i, i1 %_12.i.i.i.i, i1 false
  br i1 %or.cond.i.i.i.i, label %bb6.i.i.i.i, label %bb39.i.i.i.i

bb39.i.i.i.i:                                     ; preds = %bb37.i.i.i.i, %bb4.i.i.i.i
  %cur.sroa.0.0.i.i.i.i = phi ptr [ %11, %bb4.i.i.i.i ], [ %_65.i.i.i.i, %bb37.i.i.i.i ]
  %_68.i.i.i.i = getelementptr inbounds i8, ptr %end.i, i64 -16
  %_66.not.i254.i.i.i = icmp ugt ptr %cur.sroa.0.0.i.i.i.i, %_68.i.i.i.i
  br i1 %_66.not.i254.i.i.i, label %bb45.i.i.i.i, label %bb41.i.i.i.i

bb6.i.i.i.i:                                      ; preds = %bb4.i.i.i.i, %bb37.i.i.i.i
  %cur.sroa.0.1.i.i.i.i = phi ptr [ %_65.i.i.i.i, %bb37.i.i.i.i ], [ %11, %bb4.i.i.i.i ]
  %cur.sroa.0.1.i.val.i.i.i = load <16 x i8>, ptr %cur.sroa.0.1.i.i.i.i, align 1, !noalias !115
  %_21.i.i.i.i = getelementptr inbounds nuw i8, ptr %cur.sroa.0.1.i.i.i.i, i64 16
  %_21.i.val.i.i.i = load <16 x i8>, ptr %_21.i.i.i.i, align 1, !noalias !115
  %_25.i.i.i.i = getelementptr inbounds nuw i8, ptr %cur.sroa.0.1.i.i.i.i, i64 32
  %_25.i.val.i.i.i = load <16 x i8>, ptr %_25.i.i.i.i, align 1, !noalias !115
  %_29.i.i.i.i = getelementptr inbounds nuw i8, ptr %cur.sroa.0.1.i.i.i.i, i64 48
  %_29.i.val.i.i.i = load <16 x i8>, ptr %_29.i.i.i.i, align 1, !noalias !115
  %12 = icmp eq <16 x i8> %1, %cur.sroa.0.1.i.val.i.i.i
  %13 = sext <16 x i1> %12 to <16 x i8>
  %14 = icmp eq <16 x i8> %1, %_21.i.val.i.i.i
  %15 = sext <16 x i1> %14 to <16 x i8>
  %16 = icmp eq <16 x i8> %1, %_25.i.val.i.i.i
  %17 = sext <16 x i1> %16 to <16 x i8>
  %18 = icmp eq <16 x i8> %1, %_29.i.val.i.i.i
  %19 = sext <16 x i1> %18 to <16 x i8>
  %20 = or <16 x i8> %15, %13
  %21 = or <16 x i8> %20, %17
  %22 = or <16 x i8> %21, %19
  %23 = tail call <16 x i8> @llvm.aarch64.neon.umaxp.v16i8(<16 x i8> %22, <16 x i8> %22)
  %24 = bitcast <16 x i8> %23 to <2 x i64>
  %25 = extractelement <2 x i64> %24, i64 0
  %_0.i.not.i.i.i = icmp eq i64 %25, 0
  br i1 %_0.i.not.i.i.i, label %bb37.i.i.i.i, label %bb19.i.i.i.i

bb45.i.i.i.i:                                     ; preds = %bb44.i.i.i.i, %bb39.i.i.i.i
  %cur.sroa.0.2.i.lcssa.i.i.i = phi ptr [ %cur.sroa.0.0.i.i.i.i, %bb39.i.i.i.i ], [ %_72.i.i.i.i, %bb44.i.i.i.i ]
  %_73.i.i.i.i = icmp ult ptr %cur.sroa.0.2.i.lcssa.i.i.i, %end.i
  br i1 %_73.i.i.i.i, label %_RNCNvNtCsl5bjp7iZrWZ_6memchr6memchr6memchr0B5_.exit, label %_RINvNtNtNtCsl5bjp7iZrWZ_6memchr4arch7generic6memchr21search_slice_with_rawNCNvNtB8_6memchr6memchr0EB8_.exit

bb41.i.i.i.i:                                     ; preds = %bb39.i.i.i.i, %bb44.i.i.i.i
  %cur.sroa.0.2.i255.i.i.i = phi ptr [ %_72.i.i.i.i, %bb44.i.i.i.i ], [ %cur.sroa.0.0.i.i.i.i, %bb39.i.i.i.i ]
  %cur.sroa.0.2.i.val.i.i.i = load <16 x i8>, ptr %cur.sroa.0.2.i255.i.i.i, align 1, !noalias !115
  %26 = icmp eq <16 x i8> %1, %cur.sroa.0.2.i.val.i.i.i
  %27 = sext <16 x i1> %26 to <16 x i8>
  %28 = bitcast <16 x i8> %27 to <8 x i16>
  %29 = lshr <8 x i16> %28, splat (i16 4)
  %30 = trunc <8 x i16> %29 to <8 x i8>
  %31 = bitcast <8 x i8> %30 to i64
  %_6.i26.i.i.i = and i64 %31, -8608480567731124088
  %_0.i39.not.i.i.i = icmp eq i64 %_6.i26.i.i.i, 0
  br i1 %_0.i39.not.i.i.i, label %bb44.i.i.i.i, label %bb43.i.i.i.i

bb43.i.i.i.i:                                     ; preds = %bb41.i.i.i.i
  %32 = tail call range(i64 0, 65) i64 @llvm.cttz.i64(i64 range(i64 0, -8608480567731124087) %_6.i26.i.i.i, i1 true)
  %_2.i.i94.i.i.i = lshr i64 %32, 2
  %_9.i.i.i.i.i = getelementptr inbounds nuw i8, ptr %cur.sroa.0.2.i255.i.i.i, i64 %_2.i.i94.i.i.i
  br label %bb8.i

bb44.i.i.i.i:                                     ; preds = %bb41.i.i.i.i
  %_72.i.i.i.i = getelementptr inbounds nuw i8, ptr %cur.sroa.0.2.i255.i.i.i, i64 16
  %_66.not.i.i.i.i = icmp ugt ptr %_72.i.i.i.i, %_68.i.i.i.i
  br i1 %_66.not.i.i.i.i, label %bb45.i.i.i.i, label %bb41.i.i.i.i

bb37.i.i.i.i:                                     ; preds = %bb6.i.i.i.i
  %_65.i.i.i.i = getelementptr inbounds nuw i8, ptr %cur.sroa.0.1.i.i.i.i, i64 64
  %_12.old.not.i.i.i.i = icmp ugt ptr %_65.i.i.i.i, %_14.i.i.i.i
  br i1 %_12.old.not.i.i.i.i, label %bb39.i.i.i.i, label %bb6.i.i.i.i

bb19.i.i.i.i:                                     ; preds = %bb6.i.i.i.i
  %_21.i.i.i.i.le = getelementptr inbounds nuw i8, ptr %cur.sroa.0.1.i.i.i.i, i64 16
  %_25.i.i.i.i.le = getelementptr inbounds nuw i8, ptr %cur.sroa.0.1.i.i.i.i, i64 32
  %_29.i.i.i.i.le = getelementptr inbounds nuw i8, ptr %cur.sroa.0.1.i.i.i.i, i64 48
  %33 = bitcast <16 x i8> %13 to <8 x i16>
  %34 = lshr <8 x i16> %33, splat (i16 4)
  %35 = trunc <8 x i16> %34 to <8 x i8>
  %36 = bitcast <8 x i8> %35 to i64
  %_6.i17.i.i.i = and i64 %36, -8608480567731124088
  %_0.i37.not.i.i.i = icmp eq i64 %_6.i17.i.i.i, 0
  br i1 %_0.i37.not.i.i.i, label %bb24.i.i.i.i, label %bb22.i.i.i.i

bb24.i.i.i.i:                                     ; preds = %bb19.i.i.i.i
  %37 = bitcast <16 x i8> %15 to <8 x i16>
  %38 = lshr <8 x i16> %37, splat (i16 4)
  %39 = trunc <8 x i16> %38 to <8 x i8>
  %40 = bitcast <8 x i8> %39 to i64
  %_6.i12.i.i.i = and i64 %40, -8608480567731124088
  %_0.i36.not.i.i.i = icmp eq i64 %_6.i12.i.i.i, 0
  br i1 %_0.i36.not.i.i.i, label %bb29.i.i.i.i, label %bb27.i.i.i.i

bb22.i.i.i.i:                                     ; preds = %bb19.i.i.i.i
  %41 = tail call range(i64 0, 65) i64 @llvm.cttz.i64(i64 range(i64 0, -8608480567731124087) %_6.i17.i.i.i, i1 true)
  %_2.i.i.i.i = lshr i64 %41, 2
  %_46.i.i.i.i = getelementptr inbounds nuw i8, ptr %cur.sroa.0.1.i.i.i.i, i64 %_2.i.i.i.i
  br label %bb8.i

bb29.i.i.i.i:                                     ; preds = %bb24.i.i.i.i
  %42 = bitcast <16 x i8> %17 to <8 x i16>
  %43 = lshr <8 x i16> %42, splat (i16 4)
  %44 = trunc <8 x i16> %43 to <8 x i8>
  %45 = bitcast <8 x i8> %44 to i64
  %_6.i7.i.i.i = and i64 %45, -8608480567731124088
  %_0.i35.not.i.i.i = icmp eq i64 %_6.i7.i.i.i, 0
  br i1 %_0.i35.not.i.i.i, label %bb34.i.i.i.i, label %bb32.i.i.i.i

bb27.i.i.i.i:                                     ; preds = %bb24.i.i.i.i
  %46 = tail call range(i64 0, 65) i64 @llvm.cttz.i64(i64 range(i64 0, -8608480567731124087) %_6.i12.i.i.i, i1 true)
  %_2.i32.i.i.i = lshr i64 %46, 2
  %_50.i.i.i.i = getelementptr inbounds nuw i8, ptr %_21.i.i.i.i.le, i64 %_2.i32.i.i.i
  br label %bb8.i

bb34.i.i.i.i:                                     ; preds = %bb29.i.i.i.i
  %47 = bitcast <16 x i8> %19 to <8 x i16>
  %48 = lshr <8 x i16> %47, splat (i16 4)
  %49 = trunc <8 x i16> %48 to <8 x i8>
  %50 = bitcast <8 x i8> %49 to i64
  %_6.i.i.i.i = and i64 %50, -8608480567731124088
  %51 = tail call range(i64 0, 65) i64 @llvm.cttz.i64(i64 range(i64 0, -8608480567731124087) %_6.i.i.i.i, i1 false)
  %_2.i34.i.i.i = lshr i64 %51, 2
  %_61.i.i.i.i = getelementptr inbounds nuw i8, ptr %_29.i.i.i.i.le, i64 %_2.i34.i.i.i
  br label %bb8.i

bb32.i.i.i.i:                                     ; preds = %bb29.i.i.i.i
  %52 = tail call range(i64 0, 65) i64 @llvm.cttz.i64(i64 range(i64 0, -8608480567731124087) %_6.i7.i.i.i, i1 true)
  %_2.i33.i.i.i = lshr i64 %52, 2
  %_56.i.i.i.i = getelementptr inbounds nuw i8, ptr %_25.i.i.i.i.le, i64 %_2.i33.i.i.i
  br label %bb8.i

bb2.i.i.i:                                        ; preds = %bb2.i.i, %bb5.i.i.i
  %start1.sroa.0.0.i20.i.i = phi ptr [ %_10.i.i.i, %bb5.i.i.i ], [ %haystack.0, %bb2.i.i ]
  %_9.i.i.i = load i8, ptr %start1.sroa.0.0.i20.i.i, align 1, !noalias !122, !noundef !13
  %_0.i.i.i = icmp eq i8 %_9.i.i.i, %needle
  br i1 %_0.i.i.i, label %bb8.i, label %bb5.i.i.i

bb5.i.i.i:                                        ; preds = %bb2.i.i.i
  %_10.i.i.i = getelementptr inbounds nuw i8, ptr %start1.sroa.0.0.i20.i.i, i64 1
  %exitcond.not.i.i = icmp eq ptr %_10.i.i.i, %end.i
  br i1 %exitcond.not.i.i, label %_RINvNtNtNtCsl5bjp7iZrWZ_6memchr4arch7generic6memchr21search_slice_with_rawNCNvNtB8_6memchr6memchr0EB8_.exit, label %bb2.i.i.i

_RNCNvNtCsl5bjp7iZrWZ_6memchr6memchr6memchr0B5_.exit: ; preds = %bb45.i.i.i.i
  %53 = ptrtoint ptr %cur.sroa.0.2.i.lcssa.i.i.i to i64
  %54 = sub i64 %2, %53
  %_9.i95.i.i.i = icmp sgt i64 %54, -1
  tail call void @llvm.assume(i1 %_9.i95.i.i.i), !noalias !125
  %55 = getelementptr i8, ptr %cur.sroa.0.2.i.lcssa.i.i.i, i64 %54
  %56 = getelementptr i8, ptr %55, i64 -16
  %.val.i.i.i = load <16 x i8>, ptr %56, align 1, !noalias !115
  %57 = icmp eq <16 x i8> %1, %.val.i.i.i
  %58 = sext <16 x i1> %57 to <16 x i8>
  %59 = bitcast <16 x i8> %58 to <8 x i16>
  %60 = lshr <8 x i16> %59, splat (i16 4)
  %61 = trunc <8 x i16> %60 to <8 x i8>
  %62 = bitcast <8 x i8> %61 to i64
  %_6.i21.i.i.i = and i64 %62, -8608480567731124088
  %_0.i38.not.i.i.i.not = icmp eq i64 %_6.i21.i.i.i, 0
  %63 = tail call range(i64 0, 65) i64 @llvm.cttz.i64(i64 range(i64 0, -8608480567731124087) %_6.i21.i.i.i, i1 false)
  %_2.i.i96.i.i.i = lshr i64 %63, 2
  %_9.i28.i.i.i.i = getelementptr inbounds nuw i8, ptr %56, i64 %_2.i.i96.i.i.i
  br i1 %_0.i38.not.i.i.i.not, label %_RINvNtNtNtCsl5bjp7iZrWZ_6memchr4arch7generic6memchr21search_slice_with_rawNCNvNtB8_6memchr6memchr0EB8_.exit, label %bb8.i

bb8.i:                                            ; preds = %bb2.i.i.i, %bb43.i.i.i.i, %bb34.i.i.i.i, %bb32.i.i.i.i, %bb27.i.i.i.i, %bb22.i.i.i.i, %bb3.i.i.i.i, %_RNCNvNtCsl5bjp7iZrWZ_6memchr6memchr6memchr0B5_.exit
  %_0.sroa.4.0.i.i3 = phi ptr [ %_9.i28.i.i.i.i, %_RNCNvNtCsl5bjp7iZrWZ_6memchr6memchr6memchr0B5_.exit ], [ %_9.i.i.i.i.i, %bb43.i.i.i.i ], [ %_61.i.i.i.i, %bb34.i.i.i.i ], [ %_56.i.i.i.i, %bb32.i.i.i.i ], [ %_50.i.i.i.i, %bb27.i.i.i.i ], [ %_46.i.i.i.i, %bb22.i.i.i.i ], [ %_9.i40.i.i.i.i, %bb3.i.i.i.i ], [ %start1.sroa.0.0.i20.i.i, %bb2.i.i.i ]
  %64 = ptrtoint ptr %_0.sroa.4.0.i.i3 to i64
  %65 = sub i64 %64, %3
  %_9.i = icmp sgt i64 %65, -1
  tail call void @llvm.assume(i1 %_9.i)
  br label %_RINvNtNtNtCsl5bjp7iZrWZ_6memchr4arch7generic6memchr21search_slice_with_rawNCNvNtB8_6memchr6memchr0EB8_.exit

_RINvNtNtNtCsl5bjp7iZrWZ_6memchr4arch7generic6memchr21search_slice_with_rawNCNvNtB8_6memchr6memchr0EB8_.exit: ; preds = %bb5.i.i.i, %bb45.i.i.i.i, %start, %_RNCNvNtCsl5bjp7iZrWZ_6memchr6memchr6memchr0B5_.exit, %bb8.i
  %_0.sroa.3.0.i = phi i64 [ %65, %bb8.i ], [ undef, %_RNCNvNtCsl5bjp7iZrWZ_6memchr6memchr6memchr0B5_.exit ], [ undef, %start ], [ undef, %bb45.i.i.i.i ], [ undef, %bb5.i.i.i ]
  %_0.sroa.0.0.i = phi i64 [ 1, %bb8.i ], [ 0, %_RNCNvNtCsl5bjp7iZrWZ_6memchr6memchr6memchr0B5_.exit ], [ 0, %start ], [ 0, %bb45.i.i.i.i ], [ 0, %bb5.i.i.i ]
  %66 = insertvalue { i64, i64 } poison, i64 %_0.sroa.0.0.i, 0
  %67 = insertvalue { i64, i64 } %66, i64 %_0.sroa.3.0.i, 1
  ret { i64, i64 } %67
}

; memchr::memmem::searcher::prefilter_kind_fallback
; Function Attrs: uwtable
define { i64, i64 } @_RNvNtNtCsl5bjp7iZrWZ_6memchr6memmem8searcher23prefilter_kind_fallback(ptr noalias noundef readonly align 16 captures(none) dereferenceable(64) %strat, ptr noalias noundef nonnull readonly align 1 captures(address, read_provenance) %haystack.0, i64 noundef range(i64 0, -9223372036854775808) %haystack.1) unnamed_addr #0 personality ptr @rust_eh_personality {
start:
  tail call void @llvm.experimental.noalias.scope.decl(metadata !128)
  tail call void @llvm.experimental.noalias.scope.decl(metadata !131)
  %_5.i = load i8, ptr %strat, align 16, !alias.scope !128, !noalias !131, !noundef !13
  %index1.i = zext i8 %_5.i to i64
  %0 = getelementptr inbounds nuw i8, ptr %strat, i64 1
  %_7.i = load i8, ptr %0, align 1, !alias.scope !128, !noalias !131, !noundef !13
  %index2.i = zext i8 %_7.i to i64
  %1 = getelementptr inbounds nuw i8, ptr %strat, i64 2
  %2 = load i8, ptr %1, align 2, !alias.scope !128, !noalias !131, !noundef !13
  %end.i.i = getelementptr inbounds nuw i8, ptr %haystack.0, i64 %haystack.1
  %3 = insertelement <1 x i8> poison, i8 %2, i64 0
  %4 = shufflevector <1 x i8> %3, <1 x i8> poison, <16 x i32> zeroinitializer
  %5 = ptrtoint ptr %end.i.i to i64
  %_14.i.i.i.i.i = getelementptr inbounds i8, ptr %end.i.i, i64 -64
  %_68.i.i.i.i.i = getelementptr inbounds i8, ptr %end.i.i, i64 -16
  %6 = getelementptr inbounds nuw i8, ptr %strat, i64 3
  %self.val.i = load i8, ptr %6, align 1, !alias.scope !128, !noalias !131
  br label %bb10.i

bb10.i:                                           ; preds = %bb7.i, %start
  %i.sroa.0.036.i = phi i64 [ 0, %start ], [ %73, %bb7.i ]
  %i.sroa.0.036.i.fr = freeze i64 %i.sroa.0.036.i
  %_29.i = getelementptr inbounds nuw i8, ptr %haystack.0, i64 %i.sroa.0.036.i.fr
  %_4.not.i.i.i = icmp samesign ult i64 %i.sroa.0.036.i.fr, %haystack.1
  br i1 %_4.not.i.i.i, label %bb2.i.i.i, label %_RNvMNtNtNtCsl5bjp7iZrWZ_6memchr4arch3all10packedpairNtB2_6Finder14find_prefilter.exit

bb2.i.i.i:                                        ; preds = %bb10.i
  %7 = ptrtoint ptr %_29.i to i64
  %gepdiff.i = sub nuw i64 %haystack.1, %i.sroa.0.036.i.fr
  %_5.i.i.i = icmp samesign ult i64 %gepdiff.i, 16
  br i1 %_5.i.i.i, label %bb2.i.i.i.i.preheader, label %bb6.i.i.i

bb2.i.i.i.i.preheader:                            ; preds = %bb2.i.i.i
  %8 = add nsw i64 %gepdiff.i, -1
  %xtraiter = and i64 %gepdiff.i, 3
  %lcmp.mod.not = icmp eq i64 %xtraiter, 0
  br i1 %lcmp.mod.not, label %bb2.i.i.i.i.prol.loopexit, label %bb2.i.i.i.i.prol

bb2.i.i.i.i.prol:                                 ; preds = %bb2.i.i.i.i.preheader, %bb5.i.i.i.i.prol
  %start1.sroa.0.0.i20.i.i.i.prol = phi ptr [ %_10.i.i.i.i.prol, %bb5.i.i.i.i.prol ], [ %_29.i, %bb2.i.i.i.i.preheader ]
  %prol.iter = phi i64 [ %prol.iter.next, %bb5.i.i.i.i.prol ], [ 0, %bb2.i.i.i.i.preheader ]
  %_9.i.i.i.i.prol = load i8, ptr %start1.sroa.0.0.i20.i.i.i.prol, align 1, !alias.scope !131, !noalias !133, !noundef !13
  %_0.i.i.i.i.prol = icmp eq i8 %_9.i.i.i.i.prol, %2
  br i1 %_0.i.i.i.i.prol, label %bb13.i, label %bb5.i.i.i.i.prol

bb5.i.i.i.i.prol:                                 ; preds = %bb2.i.i.i.i.prol
  %_10.i.i.i.i.prol = getelementptr inbounds nuw i8, ptr %start1.sroa.0.0.i20.i.i.i.prol, i64 1
  %prol.iter.next = add i64 %prol.iter, 1
  %prol.iter.cmp.not = icmp eq i64 %prol.iter.next, %xtraiter
  br i1 %prol.iter.cmp.not, label %bb2.i.i.i.i.prol.loopexit, label %bb2.i.i.i.i.prol, !llvm.loop !138

bb2.i.i.i.i.prol.loopexit:                        ; preds = %bb5.i.i.i.i.prol, %bb2.i.i.i.i.preheader
  %start1.sroa.0.0.i20.i.i.i.unr = phi ptr [ %_29.i, %bb2.i.i.i.i.preheader ], [ %_10.i.i.i.i.prol, %bb5.i.i.i.i.prol ]
  %9 = icmp ult i64 %8, 3
  br i1 %9, label %_RNvMNtNtNtCsl5bjp7iZrWZ_6memchr4arch3all10packedpairNtB2_6Finder14find_prefilter.exit, label %bb2.i.i.i.i

bb6.i.i.i:                                        ; preds = %bb2.i.i.i
  %start1.val.i.i.i.i = load <16 x i8>, ptr %_29.i, align 1, !alias.scope !131, !noalias !139
  %10 = icmp eq <16 x i8> %4, %start1.val.i.i.i.i
  %11 = sext <16 x i1> %10 to <16 x i8>
  %12 = bitcast <16 x i8> %11 to <8 x i16>
  %13 = lshr <8 x i16> %12, splat (i16 4)
  %14 = trunc <8 x i16> %13 to <8 x i8>
  %15 = bitcast <8 x i8> %14 to i64
  %_6.i31.i.i.i.i = and i64 %15, -8608480567731124088
  %_0.i40.not.i.i.i.i = icmp eq i64 %_6.i31.i.i.i.i, 0
  br i1 %_0.i40.not.i.i.i.i, label %bb4.i.i.i.i.i, label %bb3.i.i.i.i.i

bb3.i.i.i.i.i:                                    ; preds = %bb6.i.i.i
  %16 = tail call range(i64 0, 65) i64 @llvm.cttz.i64(i64 range(i64 0, -8608480567731124087) %_6.i31.i.i.i.i, i1 true)
  %_2.i.i.i.i.i.i = lshr i64 %16, 2
  %_9.i40.i.i.i.i.i = getelementptr inbounds nuw i8, ptr %_29.i, i64 %_2.i.i.i.i.i.i
  br label %bb13.i

bb4.i.i.i.i.i:                                    ; preds = %bb6.i.i.i
  %_9.i.i.i.i.i = and i64 %7, 15
  %_8.i.i.i.i.i = sub nuw nsw i64 16, %_9.i.i.i.i.i
  %17 = getelementptr inbounds nuw i8, ptr %_29.i, i64 %_8.i.i.i.i.i
  %_11.i.i.i.i.i = icmp samesign ugt i64 %gepdiff.i, 63
  %_12.i.i.i.i.i = icmp ule ptr %17, %_14.i.i.i.i.i
  %or.cond.i.i.i.i.i = select i1 %_11.i.i.i.i.i, i1 %_12.i.i.i.i.i, i1 false
  br i1 %or.cond.i.i.i.i.i, label %bb6.i.i.i.i.i, label %bb39.i.i.i.i.i

bb39.i.i.i.i.i:                                   ; preds = %bb37.i.i.i.i.i, %bb4.i.i.i.i.i
  %cur.sroa.0.0.i.i.i.i.i = phi ptr [ %17, %bb4.i.i.i.i.i ], [ %_65.i.i.i.i.i, %bb37.i.i.i.i.i ]
  %_66.not.i254.i.i.i.i = icmp ugt ptr %cur.sroa.0.0.i.i.i.i.i, %_68.i.i.i.i.i
  br i1 %_66.not.i254.i.i.i.i, label %bb45.i.i.i.i.i, label %bb41.i.i.i.i.i

bb6.i.i.i.i.i:                                    ; preds = %bb4.i.i.i.i.i, %bb37.i.i.i.i.i
  %cur.sroa.0.1.i.i.i.i.i = phi ptr [ %_65.i.i.i.i.i, %bb37.i.i.i.i.i ], [ %17, %bb4.i.i.i.i.i ]
  %cur.sroa.0.1.i.val.i.i.i.i = load <16 x i8>, ptr %cur.sroa.0.1.i.i.i.i.i, align 1, !alias.scope !131, !noalias !139
  %_21.i.i.i.i.i = getelementptr inbounds nuw i8, ptr %cur.sroa.0.1.i.i.i.i.i, i64 16
  %_21.i.val.i.i.i.i = load <16 x i8>, ptr %_21.i.i.i.i.i, align 1, !alias.scope !131, !noalias !139
  %_25.i.i.i.i.i = getelementptr inbounds nuw i8, ptr %cur.sroa.0.1.i.i.i.i.i, i64 32
  %_25.i.val.i.i.i.i = load <16 x i8>, ptr %_25.i.i.i.i.i, align 1, !alias.scope !131, !noalias !139
  %_29.i.i.i.i.i = getelementptr inbounds nuw i8, ptr %cur.sroa.0.1.i.i.i.i.i, i64 48
  %_29.i.val.i.i.i.i = load <16 x i8>, ptr %_29.i.i.i.i.i, align 1, !alias.scope !131, !noalias !139
  %18 = icmp eq <16 x i8> %4, %cur.sroa.0.1.i.val.i.i.i.i
  %19 = sext <16 x i1> %18 to <16 x i8>
  %20 = icmp eq <16 x i8> %4, %_21.i.val.i.i.i.i
  %21 = sext <16 x i1> %20 to <16 x i8>
  %22 = icmp eq <16 x i8> %4, %_25.i.val.i.i.i.i
  %23 = sext <16 x i1> %22 to <16 x i8>
  %24 = icmp eq <16 x i8> %4, %_29.i.val.i.i.i.i
  %25 = sext <16 x i1> %24 to <16 x i8>
  %26 = or <16 x i8> %21, %19
  %27 = or <16 x i8> %26, %23
  %28 = or <16 x i8> %27, %25
  %29 = tail call <16 x i8> @llvm.aarch64.neon.umaxp.v16i8(<16 x i8> %28, <16 x i8> %28)
  %30 = bitcast <16 x i8> %29 to <2 x i64>
  %31 = extractelement <2 x i64> %30, i64 0
  %_0.i.not.i.i.i.i = icmp eq i64 %31, 0
  br i1 %_0.i.not.i.i.i.i, label %bb37.i.i.i.i.i, label %bb19.i.i.i.i.i

bb45.i.i.i.i.i:                                   ; preds = %bb44.i.i.i.i.i, %bb39.i.i.i.i.i
  %cur.sroa.0.2.i.lcssa.i.i.i.i = phi ptr [ %cur.sroa.0.0.i.i.i.i.i, %bb39.i.i.i.i.i ], [ %_72.i.i.i.i.i, %bb44.i.i.i.i.i ]
  %_73.i.i.i.i.i = icmp ult ptr %cur.sroa.0.2.i.lcssa.i.i.i.i, %end.i.i
  br i1 %_73.i.i.i.i.i, label %_RNCNvNtCsl5bjp7iZrWZ_6memchr6memchr6memchr0B5_.exit.i, label %_RNvMNtNtNtCsl5bjp7iZrWZ_6memchr4arch3all10packedpairNtB2_6Finder14find_prefilter.exit

bb41.i.i.i.i.i:                                   ; preds = %bb39.i.i.i.i.i, %bb44.i.i.i.i.i
  %cur.sroa.0.2.i255.i.i.i.i = phi ptr [ %_72.i.i.i.i.i, %bb44.i.i.i.i.i ], [ %cur.sroa.0.0.i.i.i.i.i, %bb39.i.i.i.i.i ]
  %cur.sroa.0.2.i.val.i.i.i.i = load <16 x i8>, ptr %cur.sroa.0.2.i255.i.i.i.i, align 1, !alias.scope !131, !noalias !139
  %32 = icmp eq <16 x i8> %4, %cur.sroa.0.2.i.val.i.i.i.i
  %33 = sext <16 x i1> %32 to <16 x i8>
  %34 = bitcast <16 x i8> %33 to <8 x i16>
  %35 = lshr <8 x i16> %34, splat (i16 4)
  %36 = trunc <8 x i16> %35 to <8 x i8>
  %37 = bitcast <8 x i8> %36 to i64
  %_6.i26.i.i.i.i = and i64 %37, -8608480567731124088
  %_0.i39.not.i.i.i.i = icmp eq i64 %_6.i26.i.i.i.i, 0
  br i1 %_0.i39.not.i.i.i.i, label %bb44.i.i.i.i.i, label %bb43.i.i.i.i.i

bb43.i.i.i.i.i:                                   ; preds = %bb41.i.i.i.i.i
  %38 = tail call range(i64 0, 65) i64 @llvm.cttz.i64(i64 range(i64 0, -8608480567731124087) %_6.i26.i.i.i.i, i1 true)
  %_2.i.i94.i.i.i.i = lshr i64 %38, 2
  %_9.i.i.i.i.i.i = getelementptr inbounds nuw i8, ptr %cur.sroa.0.2.i255.i.i.i.i, i64 %_2.i.i94.i.i.i.i
  br label %bb13.i

bb44.i.i.i.i.i:                                   ; preds = %bb41.i.i.i.i.i
  %_72.i.i.i.i.i = getelementptr inbounds nuw i8, ptr %cur.sroa.0.2.i255.i.i.i.i, i64 16
  %_66.not.i.i.i.i.i = icmp ugt ptr %_72.i.i.i.i.i, %_68.i.i.i.i.i
  br i1 %_66.not.i.i.i.i.i, label %bb45.i.i.i.i.i, label %bb41.i.i.i.i.i

bb37.i.i.i.i.i:                                   ; preds = %bb6.i.i.i.i.i
  %_65.i.i.i.i.i = getelementptr inbounds nuw i8, ptr %cur.sroa.0.1.i.i.i.i.i, i64 64
  %_12.old.not.i.i.i.i.i = icmp ugt ptr %_65.i.i.i.i.i, %_14.i.i.i.i.i
  br i1 %_12.old.not.i.i.i.i.i, label %bb39.i.i.i.i.i, label %bb6.i.i.i.i.i

bb19.i.i.i.i.i:                                   ; preds = %bb6.i.i.i.i.i
  %_21.i.i.i.i.i.le = getelementptr inbounds nuw i8, ptr %cur.sroa.0.1.i.i.i.i.i, i64 16
  %_25.i.i.i.i.i.le = getelementptr inbounds nuw i8, ptr %cur.sroa.0.1.i.i.i.i.i, i64 32
  %_29.i.i.i.i.i.le = getelementptr inbounds nuw i8, ptr %cur.sroa.0.1.i.i.i.i.i, i64 48
  %39 = bitcast <16 x i8> %19 to <8 x i16>
  %40 = lshr <8 x i16> %39, splat (i16 4)
  %41 = trunc <8 x i16> %40 to <8 x i8>
  %42 = bitcast <8 x i8> %41 to i64
  %_6.i17.i.i.i.i = and i64 %42, -8608480567731124088
  %_0.i37.not.i.i.i.i = icmp eq i64 %_6.i17.i.i.i.i, 0
  br i1 %_0.i37.not.i.i.i.i, label %bb24.i.i.i.i.i, label %bb22.i.i.i.i.i

bb24.i.i.i.i.i:                                   ; preds = %bb19.i.i.i.i.i
  %43 = bitcast <16 x i8> %21 to <8 x i16>
  %44 = lshr <8 x i16> %43, splat (i16 4)
  %45 = trunc <8 x i16> %44 to <8 x i8>
  %46 = bitcast <8 x i8> %45 to i64
  %_6.i12.i.i.i.i = and i64 %46, -8608480567731124088
  %_0.i36.not.i.i.i.i = icmp eq i64 %_6.i12.i.i.i.i, 0
  br i1 %_0.i36.not.i.i.i.i, label %bb29.i.i.i.i.i, label %bb27.i.i.i.i.i

bb22.i.i.i.i.i:                                   ; preds = %bb19.i.i.i.i.i
  %47 = tail call range(i64 0, 65) i64 @llvm.cttz.i64(i64 range(i64 0, -8608480567731124087) %_6.i17.i.i.i.i, i1 true)
  %_2.i.i.i.i.i = lshr i64 %47, 2
  %_46.i.i.i.i.i = getelementptr inbounds nuw i8, ptr %cur.sroa.0.1.i.i.i.i.i, i64 %_2.i.i.i.i.i
  br label %bb13.i

bb29.i.i.i.i.i:                                   ; preds = %bb24.i.i.i.i.i
  %48 = bitcast <16 x i8> %23 to <8 x i16>
  %49 = lshr <8 x i16> %48, splat (i16 4)
  %50 = trunc <8 x i16> %49 to <8 x i8>
  %51 = bitcast <8 x i8> %50 to i64
  %_6.i7.i.i.i.i = and i64 %51, -8608480567731124088
  %_0.i35.not.i.i.i.i = icmp eq i64 %_6.i7.i.i.i.i, 0
  br i1 %_0.i35.not.i.i.i.i, label %bb34.i.i.i.i.i, label %bb32.i.i.i.i.i

bb27.i.i.i.i.i:                                   ; preds = %bb24.i.i.i.i.i
  %52 = tail call range(i64 0, 65) i64 @llvm.cttz.i64(i64 range(i64 0, -8608480567731124087) %_6.i12.i.i.i.i, i1 true)
  %_2.i32.i.i.i.i = lshr i64 %52, 2
  %_50.i.i.i.i.i = getelementptr inbounds nuw i8, ptr %_21.i.i.i.i.i.le, i64 %_2.i32.i.i.i.i
  br label %bb13.i

bb34.i.i.i.i.i:                                   ; preds = %bb29.i.i.i.i.i
  %53 = bitcast <16 x i8> %25 to <8 x i16>
  %54 = lshr <8 x i16> %53, splat (i16 4)
  %55 = trunc <8 x i16> %54 to <8 x i8>
  %56 = bitcast <8 x i8> %55 to i64
  %_6.i.i.i.i.i = and i64 %56, -8608480567731124088
  %57 = tail call range(i64 0, 65) i64 @llvm.cttz.i64(i64 range(i64 0, -8608480567731124087) %_6.i.i.i.i.i, i1 false)
  %_2.i34.i.i.i.i = lshr i64 %57, 2
  %_61.i.i.i.i.i = getelementptr inbounds nuw i8, ptr %_29.i.i.i.i.i.le, i64 %_2.i34.i.i.i.i
  br label %bb13.i

bb32.i.i.i.i.i:                                   ; preds = %bb29.i.i.i.i.i
  %58 = tail call range(i64 0, 65) i64 @llvm.cttz.i64(i64 range(i64 0, -8608480567731124087) %_6.i7.i.i.i.i, i1 true)
  %_2.i33.i.i.i.i = lshr i64 %58, 2
  %_56.i.i.i.i.i = getelementptr inbounds nuw i8, ptr %_25.i.i.i.i.i.le, i64 %_2.i33.i.i.i.i
  br label %bb13.i

bb2.i.i.i.i:                                      ; preds = %bb2.i.i.i.i.prol.loopexit, %bb5.i.i.i.i.3
  %start1.sroa.0.0.i20.i.i.i = phi ptr [ %_10.i.i.i.i.3, %bb5.i.i.i.i.3 ], [ %start1.sroa.0.0.i20.i.i.i.unr, %bb2.i.i.i.i.prol.loopexit ]
  %_9.i.i.i.i = load i8, ptr %start1.sroa.0.0.i20.i.i.i, align 1, !alias.scope !131, !noalias !133, !noundef !13
  %_0.i.i.i.i = icmp eq i8 %_9.i.i.i.i, %2
  br i1 %_0.i.i.i.i, label %bb13.i, label %bb5.i.i.i.i

bb5.i.i.i.i:                                      ; preds = %bb2.i.i.i.i
  %_10.i.i.i.i = getelementptr inbounds nuw i8, ptr %start1.sroa.0.0.i20.i.i.i, i64 1
  %_9.i.i.i.i.1 = load i8, ptr %_10.i.i.i.i, align 1, !alias.scope !131, !noalias !133, !noundef !13
  %_0.i.i.i.i.1 = icmp eq i8 %_9.i.i.i.i.1, %2
  br i1 %_0.i.i.i.i.1, label %bb13.i.loopexit.loopexit.split.loop.exit94, label %bb5.i.i.i.i.1

bb5.i.i.i.i.1:                                    ; preds = %bb5.i.i.i.i
  %_10.i.i.i.i.1 = getelementptr inbounds nuw i8, ptr %start1.sroa.0.0.i20.i.i.i, i64 2
  %_9.i.i.i.i.2 = load i8, ptr %_10.i.i.i.i.1, align 1, !alias.scope !131, !noalias !133, !noundef !13
  %_0.i.i.i.i.2 = icmp eq i8 %_9.i.i.i.i.2, %2
  br i1 %_0.i.i.i.i.2, label %bb13.i.loopexit.loopexit.split.loop.exit92, label %bb5.i.i.i.i.2

bb5.i.i.i.i.2:                                    ; preds = %bb5.i.i.i.i.1
  %_10.i.i.i.i.2 = getelementptr inbounds nuw i8, ptr %start1.sroa.0.0.i20.i.i.i, i64 3
  %_9.i.i.i.i.3 = load i8, ptr %_10.i.i.i.i.2, align 1, !alias.scope !131, !noalias !133, !noundef !13
  %_0.i.i.i.i.3 = icmp eq i8 %_9.i.i.i.i.3, %2
  br i1 %_0.i.i.i.i.3, label %bb13.i.loopexit.loopexit.split.loop.exit, label %bb5.i.i.i.i.3

bb5.i.i.i.i.3:                                    ; preds = %bb5.i.i.i.i.2
  %_10.i.i.i.i.3 = getelementptr inbounds nuw i8, ptr %start1.sroa.0.0.i20.i.i.i, i64 4
  %exitcond.not.i.i.i.3 = icmp eq ptr %_10.i.i.i.i.3, %end.i.i
  br i1 %exitcond.not.i.i.i.3, label %_RNvMNtNtNtCsl5bjp7iZrWZ_6memchr4arch3all10packedpairNtB2_6Finder14find_prefilter.exit, label %bb2.i.i.i.i

_RNCNvNtCsl5bjp7iZrWZ_6memchr6memchr6memchr0B5_.exit.i: ; preds = %bb45.i.i.i.i.i
  %59 = ptrtoint ptr %cur.sroa.0.2.i.lcssa.i.i.i.i to i64
  %60 = sub i64 %5, %59
  %_9.i95.i.i.i.i = icmp sgt i64 %60, -1
  tail call void @llvm.assume(i1 %_9.i95.i.i.i.i), !noalias !144
  %61 = getelementptr i8, ptr %cur.sroa.0.2.i.lcssa.i.i.i.i, i64 %60
  %62 = getelementptr i8, ptr %61, i64 -16
  %.val.i.i.i.i = load <16 x i8>, ptr %62, align 1, !alias.scope !131, !noalias !139
  %63 = icmp eq <16 x i8> %4, %.val.i.i.i.i
  %64 = sext <16 x i1> %63 to <16 x i8>
  %65 = bitcast <16 x i8> %64 to <8 x i16>
  %66 = lshr <8 x i16> %65, splat (i16 4)
  %67 = trunc <8 x i16> %66 to <8 x i8>
  %68 = bitcast <8 x i8> %67 to i64
  %_6.i21.i.i.i.i = and i64 %68, -8608480567731124088
  %_0.i38.not.i.i.i.not.i = icmp eq i64 %_6.i21.i.i.i.i, 0
  %69 = tail call range(i64 0, 65) i64 @llvm.cttz.i64(i64 range(i64 0, -8608480567731124087) %_6.i21.i.i.i.i, i1 false)
  %_2.i.i96.i.i.i.i = lshr i64 %69, 2
  %_9.i28.i.i.i.i.i = getelementptr inbounds nuw i8, ptr %62, i64 %_2.i.i96.i.i.i.i
  br i1 %_0.i38.not.i.i.i.not.i, label %_RNvMNtNtNtCsl5bjp7iZrWZ_6memchr4arch3all10packedpairNtB2_6Finder14find_prefilter.exit, label %bb13.i

bb9.i:                                            ; preds = %bb7.i
; call core::slice::index::slice_index_fail
  tail call void @_RNvNtNtCsjMrxcFdYDNN_4core5slice5index16slice_index_fail(i64 noundef %73, i64 noundef range(i64 0, -9223372036854775808) %haystack.1, i64 noundef range(i64 0, -9223372036854775808) %haystack.1, ptr noalias noundef readonly align 8 captures(address, read_provenance) dereferenceable(24) @alloc_a02b20e72f77eb0a73bdd73f2b15e0ba) #14, !noalias !128
  unreachable

bb13.i.loopexit.loopexit.split.loop.exit:         ; preds = %bb5.i.i.i.i.2
  %_10.i.i.i.i.2.le = getelementptr inbounds nuw i8, ptr %start1.sroa.0.0.i20.i.i.i, i64 3
  br label %bb13.i

bb13.i.loopexit.loopexit.split.loop.exit92:       ; preds = %bb5.i.i.i.i.1
  %_10.i.i.i.i.1.le = getelementptr inbounds nuw i8, ptr %start1.sroa.0.0.i20.i.i.i, i64 2
  br label %bb13.i

bb13.i.loopexit.loopexit.split.loop.exit94:       ; preds = %bb5.i.i.i.i
  %_10.i.i.i.i.le = getelementptr inbounds nuw i8, ptr %start1.sroa.0.0.i20.i.i.i, i64 1
  br label %bb13.i

bb13.i:                                           ; preds = %bb2.i.i.i.i, %bb13.i.loopexit.loopexit.split.loop.exit94, %bb13.i.loopexit.loopexit.split.loop.exit92, %bb13.i.loopexit.loopexit.split.loop.exit, %bb2.i.i.i.i.prol, %_RNCNvNtCsl5bjp7iZrWZ_6memchr6memchr6memchr0B5_.exit.i, %bb32.i.i.i.i.i, %bb34.i.i.i.i.i, %bb27.i.i.i.i.i, %bb22.i.i.i.i.i, %bb43.i.i.i.i.i, %bb3.i.i.i.i.i
  %_0.sroa.4.0.i.i7.i = phi ptr [ %_9.i28.i.i.i.i.i, %_RNCNvNtCsl5bjp7iZrWZ_6memchr6memchr6memchr0B5_.exit.i ], [ %_9.i.i.i.i.i.i, %bb43.i.i.i.i.i ], [ %_61.i.i.i.i.i, %bb34.i.i.i.i.i ], [ %_56.i.i.i.i.i, %bb32.i.i.i.i.i ], [ %_50.i.i.i.i.i, %bb27.i.i.i.i.i ], [ %_46.i.i.i.i.i, %bb22.i.i.i.i.i ], [ %_9.i40.i.i.i.i.i, %bb3.i.i.i.i.i ], [ %_10.i.i.i.i.2.le, %bb13.i.loopexit.loopexit.split.loop.exit ], [ %_10.i.i.i.i.1.le, %bb13.i.loopexit.loopexit.split.loop.exit92 ], [ %_10.i.i.i.i.le, %bb13.i.loopexit.loopexit.split.loop.exit94 ], [ %start1.sroa.0.0.i20.i.i.i, %bb2.i.i.i.i ], [ %start1.sroa.0.0.i20.i.i.i.prol, %bb2.i.i.i.i.prol ]
  %70 = ptrtoint ptr %_0.sroa.4.0.i.i7.i to i64
  %71 = sub i64 %70, %7
  %_9.i.i = icmp sgt i64 %71, -1
  tail call void @llvm.assume(i1 %_9.i.i)
  %72 = add i64 %71, %i.sroa.0.036.i.fr
  %73 = add i64 %72, 1
  %_34.i = icmp ult i64 %72, %index1.i
  br i1 %_34.i, label %bb7.i, label %bb15.i

bb15.i:                                           ; preds = %bb13.i
  %_35.i = sub nuw i64 %72, %index1.i
  %_37.0.i = add i64 %_35.i, %index2.i
  %_37.1.i = icmp uge i64 %_37.0.i, %_35.i
  %_40.not.i = icmp ult i64 %_37.0.i, %haystack.1
  %or.cond.i = and i1 %_37.1.i, %_40.not.i
  br i1 %or.cond.i, label %_RINvMNtCsjMrxcFdYDNN_4core6optionINtB3_6OptionRhE6map_orbNCNvMNtNtNtCsl5bjp7iZrWZ_6memchr4arch3all10packedpairNtBY_6Finder14find_prefilter0EB14_.exit.i, label %bb7.i, !prof !147

_RINvMNtCsjMrxcFdYDNN_4core6optionINtB3_6OptionRhE6map_orbNCNvMNtNtNtCsl5bjp7iZrWZ_6memchr4arch3all10packedpairNtBY_6Finder14find_prefilter0EB14_.exit.i: ; preds = %bb15.i
  %_41.i = getelementptr inbounds nuw i8, ptr %haystack.0, i64 %_37.0.i
  %.val.i.i = load i8, ptr %_41.i, align 1, !alias.scope !148, !noalias !128, !noundef !13
  %_0.i.i.not.i = icmp eq i8 %.val.i.i, %self.val.i
  br i1 %_0.i.i.not.i, label %_RNvMNtNtNtCsl5bjp7iZrWZ_6memchr4arch3all10packedpairNtB2_6Finder14find_prefilter.exit, label %bb7.i

bb7.i:                                            ; preds = %_RINvMNtCsjMrxcFdYDNN_4core6optionINtB3_6OptionRhE6map_orbNCNvMNtNtNtCsl5bjp7iZrWZ_6memchr4arch3all10packedpairNtBY_6Finder14find_prefilter0EB14_.exit.i, %bb15.i, %bb13.i
  %_22.i = icmp ugt i64 %73, %haystack.1
  br i1 %_22.i, label %bb9.i, label %bb10.i, !prof !151

_RNvMNtNtNtCsl5bjp7iZrWZ_6memchr4arch3all10packedpairNtB2_6Finder14find_prefilter.exit: ; preds = %bb10.i, %bb45.i.i.i.i.i, %_RNCNvNtCsl5bjp7iZrWZ_6memchr6memchr6memchr0B5_.exit.i, %_RINvMNtCsjMrxcFdYDNN_4core6optionINtB3_6OptionRhE6map_orbNCNvMNtNtNtCsl5bjp7iZrWZ_6memchr4arch3all10packedpairNtBY_6Finder14find_prefilter0EB14_.exit.i, %bb5.i.i.i.i.3, %bb2.i.i.i.i.prol.loopexit
  %_0.sroa.3.0.i = phi i64 [ undef, %bb2.i.i.i.i.prol.loopexit ], [ undef, %bb5.i.i.i.i.3 ], [ %_35.i, %_RINvMNtCsjMrxcFdYDNN_4core6optionINtB3_6OptionRhE6map_orbNCNvMNtNtNtCsl5bjp7iZrWZ_6memchr4arch3all10packedpairNtBY_6Finder14find_prefilter0EB14_.exit.i ], [ undef, %_RNCNvNtCsl5bjp7iZrWZ_6memchr6memchr6memchr0B5_.exit.i ], [ undef, %bb10.i ], [ undef, %bb45.i.i.i.i.i ]
  %_0.sroa.0.0.i = phi i64 [ 0, %bb2.i.i.i.i.prol.loopexit ], [ 0, %bb5.i.i.i.i.3 ], [ 1, %_RINvMNtCsjMrxcFdYDNN_4core6optionINtB3_6OptionRhE6map_orbNCNvMNtNtNtCsl5bjp7iZrWZ_6memchr4arch3all10packedpairNtBY_6Finder14find_prefilter0EB14_.exit.i ], [ 0, %_RNCNvNtCsl5bjp7iZrWZ_6memchr6memchr6memchr0B5_.exit.i ], [ 0, %bb10.i ], [ 0, %bb45.i.i.i.i.i ]
  %74 = insertvalue { i64, i64 } poison, i64 %_0.sroa.0.0.i, 0
  %75 = insertvalue { i64, i64 } %74, i64 %_0.sroa.3.0.i, 1
  ret { i64, i64 } %75
}

; memchr::memmem::searcher::searcher_kind_two_way_with_prefilter
; Function Attrs: uwtable
define { i64, i64 } @_RNvNtNtCsl5bjp7iZrWZ_6memchr6memmem8searcher36searcher_kind_two_way_with_prefilter(ptr noalias noundef readonly align 16 captures(address, read_provenance) dereferenceable(112) %searcher, ptr noalias noundef align 4 captures(none) dereferenceable(8) %prestate, ptr noalias noundef nonnull readonly align 1 captures(address, read_provenance) %haystack.0, i64 noundef range(i64 0, -9223372036854775808) %haystack.1, ptr noalias noundef nonnull readonly align 1 captures(none) %needle.0, i64 noundef range(i64 0, -9223372036854775808) %needle.1) unnamed_addr #0 personality ptr @rust_eh_personality {
start:
  %_5 = icmp samesign ult i64 %haystack.1, 16
  br i1 %_5, label %bb1, label %bb3

bb3:                                              ; preds = %start
  %prestrat = getelementptr inbounds nuw i8, ptr %searcher, i64 32
  %_12 = load i64, ptr %searcher, align 16, !range !86, !noundef !13
  %0 = getelementptr inbounds nuw i8, ptr %searcher, i64 8
  %1 = trunc nuw i64 %_12 to i1
  %_14 = load i64, ptr %0, align 8, !noundef !13
  br i1 %1, label %bb7, label %bb8

bb1:                                              ; preds = %start
  %_6 = getelementptr inbounds nuw i8, ptr %searcher, i64 96
  %_6.val = load i32, ptr %_6, align 16
  %2 = getelementptr inbounds nuw i8, ptr %searcher, i64 100
  %_6.val50 = load i32, ptr %2, align 4
  tail call void @llvm.experimental.noalias.scope.decl(metadata !152)
  %3 = ptrtoint ptr %haystack.0 to i64
  %_8.i.i = icmp samesign ugt i64 %needle.1, %haystack.1
  br i1 %_8.i.i, label %bb4, label %bb4.i.i

bb4.i.i:                                          ; preds = %bb1
  %hend.i = getelementptr inbounds nuw i8, ptr %haystack.0, i64 %haystack.1
  %_24.i.i = sub nsw i64 0, %needle.1
  %end.i.i = getelementptr inbounds i8, ptr %hend.i, i64 %_24.i.i
  %_11.i.i = getelementptr inbounds nuw i8, ptr %haystack.0, i64 %needle.1
  %_261.not.i.i = icmp samesign eq i64 %needle.1, 0
  br i1 %_261.not.i.i, label %bb5.i.i.preheader, label %bb16.i.i

bb16.i.i:                                         ; preds = %bb4.i.i, %bb16.i.i
  %_10.sroa.0.03.i.i = phi ptr [ %_30.i.i, %bb16.i.i ], [ %haystack.0, %bb4.i.i ]
  %hash.sroa.0.02.i.i = phi i32 [ %4, %bb16.i.i ], [ 0, %bb4.i.i ]
  %_28.i.i = load i8, ptr %_10.sroa.0.03.i.i, align 1, !alias.scope !155, !noalias !152, !noundef !13
  %_32.i.i = shl i32 %hash.sroa.0.02.i.i, 1
  %_33.i.i = zext i8 %_28.i.i to i32
  %4 = add i32 %_32.i.i, %_33.i.i
  %_30.i.i = getelementptr inbounds nuw i8, ptr %_10.sroa.0.03.i.i, i64 1
  %_26.i.i = icmp ult ptr %_30.i.i, %_11.i.i
  br i1 %_26.i.i, label %bb16.i.i, label %bb5.i.i.preheader

bb5.i.i.preheader:                                ; preds = %bb16.i.i, %bb4.i.i
  %hash.sroa.0.1.i.i.ph = phi i32 [ 0, %bb4.i.i ], [ %4, %bb16.i.i ]
  br label %bb5.i.i

bb5.i.i:                                          ; preds = %bb5.i.i.preheader, %bb12.i.i
  %hash.sroa.0.1.i.i = phi i32 [ %5, %bb12.i.i ], [ %hash.sroa.0.1.i.i.ph, %bb5.i.i.preheader ]
  %hstart.sroa.0.0.i.i = phi ptr [ %_23.i.i, %bb12.i.i ], [ %haystack.0, %bb5.i.i.preheader ]
  %_13.i.i = icmp eq i32 %_6.val, %hash.sroa.0.1.i.i
  br i1 %_13.i.i, label %bb6.i.i, label %bb10.i.i, !prof !2

bb10.i.i:                                         ; preds = %bb6.i.i, %bb5.i.i
  %_16.not.i.i = icmp ult ptr %hstart.sroa.0.0.i.i, %end.i.i
  br i1 %_16.not.i.i, label %bb12.i.i, label %bb4

bb6.i.i:                                          ; preds = %bb5.i.i
; call memchr::arch::all::rabinkarp::is_equal_raw
  %_14.i.i = tail call noundef zeroext i1 @_RNvNtNtNtCsl5bjp7iZrWZ_6memchr4arch3all9rabinkarp12is_equal_raw(ptr noundef nonnull %hstart.sroa.0.0.i.i, ptr noundef nonnull readonly align 1 %needle.0, i64 noundef range(i64 0, -9223372036854775808) %needle.1) #15, !alias.scope !157
  br i1 %_14.i.i, label %bb6.i, label %bb10.i.i

bb12.i.i:                                         ; preds = %bb10.i.i
  %_18.i.i = load i8, ptr %hstart.sroa.0.0.i.i, align 1, !alias.scope !155, !noalias !152, !noundef !13
  %_21.i.i = getelementptr inbounds nuw i8, ptr %hstart.sroa.0.0.i.i, i64 %needle.1
  %_20.i.i = load i8, ptr %_21.i.i, align 1, !alias.scope !155, !noalias !152, !noundef !13
  %_39.i.i = zext i8 %_18.i.i to i32
  %_38.i.i = mul i32 %_6.val50, %_39.i.i
  %_37.i.i = sub i32 %hash.sroa.0.1.i.i, %_38.i.i
  %_40.i.i = shl i32 %_37.i.i, 1
  %_41.i.i = zext i8 %_20.i.i to i32
  %5 = add i32 %_40.i.i, %_41.i.i
  %_23.i.i = getelementptr inbounds nuw i8, ptr %hstart.sroa.0.0.i.i, i64 1
  br label %bb5.i.i

bb6.i:                                            ; preds = %bb6.i.i
  %6 = ptrtoint ptr %hstart.sroa.0.0.i.i to i64
  %7 = sub i64 %6, %3
  %_9.i.i = icmp sgt i64 %7, -1
  tail call void @llvm.assume(i1 %_9.i.i)
  br label %bb4

bb7:                                              ; preds = %bb3
  tail call void @llvm.experimental.noalias.scope.decl(metadata !158)
  tail call void @llvm.experimental.noalias.scope.decl(metadata !161)
  %_55.i = icmp eq i64 %needle.1, 0
  br i1 %_55.i, label %bb4, label %bb34.i

bb34.i:                                           ; preds = %bb7
  %_56.i = add nsw i64 %needle.1, -1
  %_10.not.i138 = icmp samesign ugt i64 %needle.1, %haystack.1
  br i1 %_10.not.i138, label %bb4, label %bb36.i.lr.ph

bb36.i.lr.ph:                                     ; preds = %bb34.i
  %prestate.promoted137 = load i32, ptr %prestate, align 4
  %8 = getelementptr inbounds nuw i8, ptr %prestate, i64 4
  %9 = getelementptr inbounds nuw i8, ptr %searcher, i64 80
  %_6.i = load ptr, ptr %9, align 16, !nonnull !13
  %10 = getelementptr inbounds nuw i8, ptr %searcher, i64 16
  %_79.i = load i64, ptr %10, align 16
  %11 = getelementptr inbounds nuw i8, ptr %searcher, i64 24
  %12 = load i64, ptr %11, align 8
  %_29.i135 = icmp ult i64 %12, %needle.1
  %.promoted140 = load i32, ptr %8, align 4
  %13 = add i64 %12, -1
  %_50.i.first_iter = icmp ult i64 %13, %needle.1
  br label %bb36.i

bb36.i:                                           ; preds = %bb36.i.lr.ph, %bb2.i.backedge
  %_63.i142 = phi i32 [ %.promoted140, %bb36.i.lr.ph ], [ %_63.i141, %bb2.i.backedge ]
  %pos.sroa.0.0.i139 = phi i64 [ 0, %bb36.i.lr.ph ], [ %pos.sroa.0.0.i.be, %bb2.i.backedge ]
  %14 = phi i32 [ %prestate.promoted137, %bb36.i.lr.ph ], [ %16, %bb2.i.backedge ]
  %15 = icmp eq i32 %14, 0
  br i1 %15, label %bb8.i, label %bb38.i

bb8.i:                                            ; preds = %bb48.i, %bb42.i, %bb36.i
  %_63.i141 = phi i32 [ %_63.i142, %bb36.i ], [ %_10.sroa.0.0.i, %bb48.i ], [ %_63.i142, %bb42.i ]
  %16 = phi i32 [ 0, %bb36.i ], [ %22, %bb48.i ], [ 0, %bb42.i ]
  %pos.sroa.0.1.i = phi i64 [ %pos.sroa.0.0.i139, %bb36.i ], [ %24, %bb48.i ], [ %pos.sroa.0.0.i139, %bb42.i ]
  %_25.i = add i64 %_56.i, %pos.sroa.0.1.i
  %_27.i = icmp ult i64 %_25.i, %haystack.1
  br i1 %_27.i, label %bb9.i, label %panic.i

bb38.i:                                           ; preds = %bb36.i
  %_60.i = icmp ult i32 %14, 51
  br i1 %_60.i, label %bb51.i, label %bb40.i

bb40.i:                                           ; preds = %bb38.i
  %17 = shl i32 %14, 3
  %_64.i = add i32 %17, -8
  %_62.not.i = icmp ult i32 %_63.i142, %_64.i
  br i1 %_62.not.i, label %bb42.i, label %bb51.i

bb42.i:                                           ; preds = %bb40.i
  store i32 0, ptr %prestate, align 4, !noalias !163
  br label %bb8.i

bb51.i:                                           ; preds = %bb40.i, %bb38.i
  %_69.i = icmp ugt i64 %pos.sroa.0.0.i139, %haystack.1
  br i1 %_69.i, label %bb45.i, label %bb46.i, !prof !2

bb46.i:                                           ; preds = %bb51.i
  %_71.i = sub nuw nsw i64 %haystack.1, %pos.sroa.0.0.i139
  %_75.i = getelementptr inbounds nuw i8, ptr %haystack.0, i64 %pos.sroa.0.0.i139
  %18 = tail call { i64, i64 } %_6.i(ptr noalias noundef nonnull readonly align 16 captures(address, read_provenance) dereferenceable(64) %prestrat, ptr noalias noundef nonnull readonly align 1 captures(address, read_provenance) %_75.i, i64 noundef range(i64 0, -9223372036854775808) %_71.i)
  %19 = extractvalue { i64, i64 } %18, 0
  %20 = trunc nuw i64 %19 to i1
  %21 = extractvalue { i64, i64 } %18, 1
  %spec.select.i = select i1 %20, i64 %21, i64 %_71.i
  %22 = tail call i32 @llvm.uadd.sat.i32(i32 %14, i32 1)
  store i32 %22, ptr %prestate, align 4, !noalias !165
  %_12.i54 = icmp ugt i64 %spec.select.i, 4294967295
  %_13.i = trunc nuw i64 %spec.select.i to i32
  %23 = tail call i32 @llvm.uadd.sat.i32(i32 %_63.i142, i32 %_13.i)
  %_10.sroa.0.0.i = select i1 %_12.i54, i32 -1, i32 %23
  store i32 %_10.sroa.0.0.i, ptr %8, align 4, !noalias !165
  br i1 %20, label %bb48.i, label %bb4

bb45.i:                                           ; preds = %bb51.i
; call core::slice::index::slice_index_fail
  tail call void @_RNvNtNtCsjMrxcFdYDNN_4core5slice5index16slice_index_fail(i64 noundef %pos.sroa.0.0.i139, i64 noundef range(i64 16, -9223372036854775808) %haystack.1, i64 noundef range(i64 16, -9223372036854775808) %haystack.1, ptr noalias noundef readonly align 8 captures(address, read_provenance) dereferenceable(24) @alloc_9603589c411b252a333a9a0812120f41) #14, !noalias !163
  unreachable

bb48.i:                                           ; preds = %bb46.i
  %24 = add i64 %21, %pos.sroa.0.0.i139
  %_22.i = add i64 %24, %needle.1
  %_21.i = icmp ugt i64 %_22.i, %haystack.1
  br i1 %_21.i, label %bb4, label %bb8.i

bb9.i:                                            ; preds = %bb8.i
  %25 = getelementptr inbounds nuw i8, ptr %haystack.0, i64 %_25.i
  %_24.i = load i8, ptr %25, align 1, !alias.scope !158, !noalias !168, !noundef !13
  %_81.i = and i8 %_24.i, 63
  %26 = zext nneg i8 %_81.i to i64
  %_80.i = shl nuw i64 1, %26
  %_78.i = and i64 %_80.i, %_79.i
  %27 = icmp eq i64 %_78.i, 0
  br i1 %27, label %bb28.i, label %bb10.i

panic.i:                                          ; preds = %bb8.i
; call core::panicking::panic_bounds_check
  tail call void @_RNvNtCsjMrxcFdYDNN_4core9panicking18panic_bounds_check(i64 noundef %_25.i, i64 noundef range(i64 16, -9223372036854775808) %haystack.1, ptr noalias noundef readonly align 8 captures(address, read_provenance) dereferenceable(24) @alloc_4415b07e3fa2db327f519d78db21b365) #14, !noalias !163
  unreachable

bb10.i:                                           ; preds = %bb9.i
  br i1 %_29.i135, label %bb14.i, label %bb22.i.preheader

bb22.i.preheader:                                 ; preds = %bb16.i, %bb10.i
  br label %bb22.i

bb28.i:                                           ; preds = %bb24.i, %bb9.i
  %needle.1.pn.i = phi i64 [ %needle.1, %bb9.i ], [ %_14, %bb24.i ]
  %pos.sroa.0.2.i = add i64 %needle.1.pn.i, %pos.sroa.0.1.i
  br label %bb2.i.backedge

bb2.i.backedge:                                   ; preds = %bb28.i, %bb20.i
  %pos.sroa.0.0.i.be = phi i64 [ %pos.sroa.0.2.i, %bb28.i ], [ %32, %bb20.i ]
  %_11.i = add i64 %pos.sroa.0.0.i.be, %needle.1
  %_10.not.i = icmp ugt i64 %_11.i, %haystack.1
  br i1 %_10.not.i, label %bb4, label %bb36.i

bb14.i:                                           ; preds = %bb10.i, %bb16.i
  %i.sroa.0.0.i136 = phi i64 [ %31, %bb16.i ], [ %12, %bb10.i ]
  %_36.i = add i64 %i.sroa.0.0.i136, %pos.sroa.0.1.i
  %_39.i = icmp ult i64 %_36.i, %haystack.1
  br i1 %_39.i, label %bb15.i, label %panic3.i

bb15.i:                                           ; preds = %bb14.i
  %28 = getelementptr inbounds nuw i8, ptr %needle.0, i64 %i.sroa.0.0.i136
  %_32.i = load i8, ptr %28, align 1, !alias.scope !161, !noalias !170, !noundef !13
  %29 = getelementptr inbounds nuw i8, ptr %haystack.0, i64 %_36.i
  %_35.i = load i8, ptr %29, align 1, !alias.scope !158, !noalias !168, !noundef !13
  %_31.i = icmp eq i8 %_32.i, %_35.i
  br i1 %_31.i, label %bb16.i, label %bb20.i

panic3.i:                                         ; preds = %bb14.i
  %30 = add i64 %12, %pos.sroa.0.1.i
  %umax195 = tail call i64 @llvm.umax.i64(i64 %haystack.1, i64 %30)
; call core::panicking::panic_bounds_check
  tail call void @_RNvNtCsjMrxcFdYDNN_4core9panicking18panic_bounds_check(i64 noundef %umax195, i64 noundef range(i64 16, -9223372036854775808) %haystack.1, ptr noalias noundef readonly align 8 captures(address, read_provenance) dereferenceable(24) @alloc_b5f6b846c7dcee1c93fc0227dd433502) #14, !noalias !163
  unreachable

bb16.i:                                           ; preds = %bb15.i
  %31 = add i64 %i.sroa.0.0.i136, 1
  %exitcond196.not = icmp eq i64 %31, %needle.1
  br i1 %exitcond196.not, label %bb22.i.preheader, label %bb14.i

bb20.i:                                           ; preds = %bb15.i
  %reass.sub143 = sub i64 %pos.sroa.0.1.i, %12
  %_42.i.reass = add i64 %reass.sub143, 1
  %32 = add i64 %_42.i.reass, %i.sroa.0.0.i136
  br label %bb2.i.backedge

bb22.i:                                           ; preds = %bb22.i.preheader, %bb24.i
  %iter.sroa.0.0.i = phi i64 [ %_83.i, %bb24.i ], [ %12, %bb22.i.preheader ]
  %_82.not.i = icmp eq i64 %iter.sroa.0.0.i, 0
  br i1 %_82.not.i, label %bb4, label %bb49.i

bb49.i:                                           ; preds = %bb22.i
  %_83.i = add i64 %iter.sroa.0.0.i, -1
  br i1 %_50.i.first_iter, label %bb23.i, label %panic4.i

bb23.i:                                           ; preds = %bb49.i
  %_52.i = add i64 %_83.i, %pos.sroa.0.1.i
  %_54.i = icmp ult i64 %_52.i, %haystack.1
  br i1 %_54.i, label %bb24.i, label %panic5.i

panic4.i:                                         ; preds = %bb49.i
; call core::panicking::panic_bounds_check
  tail call void @_RNvNtCsjMrxcFdYDNN_4core9panicking18panic_bounds_check(i64 noundef %_83.i, i64 noundef range(i64 0, -9223372036854775808) %needle.1, ptr noalias noundef readonly align 8 captures(address, read_provenance) dereferenceable(24) @alloc_e11d25f88235dccf68a7eb520ddd736c) #14, !noalias !163
  unreachable

bb24.i:                                           ; preds = %bb23.i
  %33 = getelementptr inbounds nuw i8, ptr %needle.0, i64 %_83.i
  %_49.i = load i8, ptr %33, align 1, !alias.scope !161, !noalias !170, !noundef !13
  %34 = getelementptr inbounds nuw i8, ptr %haystack.0, i64 %_52.i
  %_51.i = load i8, ptr %34, align 1, !alias.scope !158, !noalias !168, !noundef !13
  %_48.not.i = icmp eq i8 %_49.i, %_51.i
  br i1 %_48.not.i, label %bb22.i, label %bb28.i

panic5.i:                                         ; preds = %bb23.i
; call core::panicking::panic_bounds_check
  tail call void @_RNvNtCsjMrxcFdYDNN_4core9panicking18panic_bounds_check(i64 noundef %_52.i, i64 noundef range(i64 16, -9223372036854775808) %haystack.1, ptr noalias noundef readonly align 8 captures(address, read_provenance) dereferenceable(24) @alloc_d2f96fbe813dc611dfdb35b3a69e2d06) #14, !noalias !163
  unreachable

bb8:                                              ; preds = %bb3
  tail call void @llvm.experimental.noalias.scope.decl(metadata !171)
  tail call void @llvm.experimental.noalias.scope.decl(metadata !174)
  tail call void @llvm.experimental.noalias.scope.decl(metadata !176)
  %_71.i3 = icmp eq i64 %needle.1, 0
  br i1 %_71.i3, label %bb4, label %bb44.i

bb44.i:                                           ; preds = %bb8
  %_72.i = add nsw i64 %needle.1, -1
  %_11.not.i123 = icmp samesign ugt i64 %needle.1, %haystack.1
  br i1 %_11.not.i123, label %bb4, label %bb47.i.lr.ph

bb47.i.lr.ph:                                     ; preds = %bb44.i
  %prestate.promoted = load i32, ptr %prestate, align 4
  %35 = getelementptr inbounds nuw i8, ptr %searcher, i64 24
  %_15.i = load i64, ptr %35, align 8, !alias.scope !171, !noalias !178, !noundef !13
  %36 = getelementptr inbounds nuw i8, ptr %prestate, i64 4
  %37 = getelementptr inbounds nuw i8, ptr %searcher, i64 80
  %_6.i59 = load ptr, ptr %37, align 16, !nonnull !13
  %38 = getelementptr inbounds nuw i8, ptr %searcher, i64 16
  %_95.i = load i64, ptr %38, align 16
  %39 = sub i64 %needle.1, %_14
  %.promoted = load i32, ptr %36, align 4
  br label %bb47.i

bb47.i:                                           ; preds = %bb47.i.lr.ph, %bb2.i4.backedge
  %_79.i10134 = phi i32 [ %.promoted, %bb47.i.lr.ph ], [ %_79.i10133, %bb2.i4.backedge ]
  %pos.sroa.0.0.i5125 = phi i64 [ 0, %bb47.i.lr.ph ], [ %pos.sroa.0.0.i5.be, %bb2.i4.backedge ]
  %shift.sroa.0.0.i124 = phi i64 [ 0, %bb47.i.lr.ph ], [ %shift.sroa.0.0.i.be, %bb2.i4.backedge ]
  %40 = phi i32 [ %prestate.promoted, %bb47.i.lr.ph ], [ %42, %bb2.i4.backedge ]
  %_0.sroa.0.0.i58 = tail call noundef i64 @llvm.umax.i64(i64 %shift.sroa.0.0.i124, i64 %_15.i)
  %41 = icmp eq i32 %40, 0
  br i1 %41, label %bb8.i16, label %bb49.i8

bb8.i16:                                          ; preds = %bb59.i, %bb53.i, %bb47.i
  %_79.i10133 = phi i32 [ %_79.i10134, %bb47.i ], [ %_10.sroa.0.0.i67, %bb59.i ], [ %_79.i10134, %bb53.i ]
  %42 = phi i32 [ 0, %bb47.i ], [ %48, %bb59.i ], [ 0, %bb53.i ]
  %i.sroa.0.0.i17 = phi i64 [ %_0.sroa.0.0.i58, %bb47.i ], [ %_15.i, %bb59.i ], [ %_0.sroa.0.0.i58, %bb53.i ]
  %shift.sroa.0.1.i = phi i64 [ %shift.sroa.0.0.i124, %bb47.i ], [ 0, %bb59.i ], [ %shift.sroa.0.0.i124, %bb53.i ]
  %pos.sroa.0.1.i18 = phi i64 [ %pos.sroa.0.0.i5125, %bb47.i ], [ %50, %bb59.i ], [ %pos.sroa.0.0.i5125, %bb53.i ]
  %_29.i19 = add i64 %_72.i, %pos.sroa.0.1.i18
  %_31.i20 = icmp ult i64 %_29.i19, %haystack.1
  br i1 %_31.i20, label %bb9.i22, label %panic.i21

bb49.i8:                                          ; preds = %bb47.i
  %_76.i = icmp ult i32 %40, 51
  br i1 %_76.i, label %bb60.i, label %bb51.i9

bb51.i9:                                          ; preds = %bb49.i8
  %43 = shl i32 %40, 3
  %_80.i11 = add i32 %43, -8
  %_78.not.i = icmp ult i32 %_79.i10134, %_80.i11
  br i1 %_78.not.i, label %bb53.i, label %bb60.i

bb53.i:                                           ; preds = %bb51.i9
  store i32 0, ptr %prestate, align 4, !noalias !180
  br label %bb8.i16

bb60.i:                                           ; preds = %bb51.i9, %bb49.i8
  %_85.i = icmp ugt i64 %pos.sroa.0.0.i5125, %haystack.1
  br i1 %_85.i, label %bb56.i, label %bb57.i, !prof !2

bb57.i:                                           ; preds = %bb60.i
  %_87.i = sub nuw nsw i64 %haystack.1, %pos.sroa.0.0.i5125
  %_91.i = getelementptr inbounds nuw i8, ptr %haystack.0, i64 %pos.sroa.0.0.i5125
  %44 = tail call { i64, i64 } %_6.i59(ptr noalias noundef nonnull readonly align 16 captures(address, read_provenance) dereferenceable(64) %prestrat, ptr noalias noundef nonnull readonly align 1 captures(address, read_provenance) %_91.i, i64 noundef range(i64 0, -9223372036854775808) %_87.i)
  %45 = extractvalue { i64, i64 } %44, 0
  %46 = trunc nuw i64 %45 to i1
  %47 = extractvalue { i64, i64 } %44, 1
  %spec.select.i60 = select i1 %46, i64 %47, i64 %_87.i
  %48 = tail call i32 @llvm.uadd.sat.i32(i32 %40, i32 1)
  store i32 %48, ptr %prestate, align 4, !noalias !181
  %_12.i62 = icmp ugt i64 %spec.select.i60, 4294967295
  %_13.i64 = trunc nuw i64 %spec.select.i60 to i32
  %49 = tail call i32 @llvm.uadd.sat.i32(i32 %_79.i10134, i32 %_13.i64)
  %_10.sroa.0.0.i67 = select i1 %_12.i62, i32 -1, i32 %49
  store i32 %_10.sroa.0.0.i67, ptr %36, align 4, !noalias !181
  br i1 %46, label %bb59.i, label %bb4

bb56.i:                                           ; preds = %bb60.i
; call core::slice::index::slice_index_fail
  tail call void @_RNvNtNtCsjMrxcFdYDNN_4core5slice5index16slice_index_fail(i64 noundef %pos.sroa.0.0.i5125, i64 noundef range(i64 16, -9223372036854775808) %haystack.1, i64 noundef range(i64 16, -9223372036854775808) %haystack.1, ptr noalias noundef readonly align 8 captures(address, read_provenance) dereferenceable(24) @alloc_9a8e2e0eec92e8db5a62ee08371b2445) #14, !noalias !180
  unreachable

bb59.i:                                           ; preds = %bb57.i
  %50 = add i64 %47, %pos.sroa.0.0.i5125
  %_26.i = add i64 %50, %needle.1
  %_25.i15 = icmp ugt i64 %_26.i, %haystack.1
  br i1 %_25.i15, label %bb4, label %bb8.i16

bb9.i22:                                          ; preds = %bb8.i16
  %51 = getelementptr inbounds nuw i8, ptr %haystack.0, i64 %_29.i19
  %_28.i = load i8, ptr %51, align 1, !alias.scope !174, !noalias !184, !noundef !13
  %_97.i = and i8 %_28.i, 63
  %52 = zext nneg i8 %_97.i to i64
  %_96.i = shl nuw i64 1, %52
  %_94.i = and i64 %_96.i, %_95.i
  %53 = icmp eq i64 %_94.i, 0
  br i1 %53, label %bb11.i, label %bb12.i23.preheader

bb12.i23.preheader:                               ; preds = %bb9.i22
  %_32.i24119 = icmp ult i64 %i.sroa.0.0.i17, %needle.1
  br i1 %_32.i24119, label %bb14.i41, label %bb22.i26.preheader

panic.i21:                                        ; preds = %bb8.i16
; call core::panicking::panic_bounds_check
  tail call void @_RNvNtCsjMrxcFdYDNN_4core9panicking18panic_bounds_check(i64 noundef %_29.i19, i64 noundef range(i64 16, -9223372036854775808) %haystack.1, ptr noalias noundef readonly align 8 captures(address, read_provenance) dereferenceable(24) @alloc_aeeeb22db2d5d5c0ce586a9a14b48145) #14, !noalias !180
  unreachable

bb11.i:                                           ; preds = %bb9.i22
  %54 = add i64 %pos.sroa.0.1.i18, %needle.1
  br label %bb2.i4.backedge

bb2.i4.backedge:                                  ; preds = %bb11.i, %bb37.i
  %shift.sroa.0.0.i.be = phi i64 [ 0, %bb11.i ], [ %shift.sroa.0.2.i, %bb37.i ]
  %pos.sroa.0.0.i5.be = phi i64 [ %54, %bb11.i ], [ %pos.sroa.0.2.i32, %bb37.i ]
  %_12.i = add i64 %pos.sroa.0.0.i5.be, %needle.1
  %_11.not.i = icmp ugt i64 %_12.i, %haystack.1
  br i1 %_11.not.i, label %bb4, label %bb47.i

bb22.i26.preheader:                               ; preds = %bb16.i49, %bb12.i23.preheader
  %_49.i27121 = icmp ugt i64 %_15.i, %shift.sroa.0.1.i
  br i1 %_49.i27121, label %bb23.i33, label %bb30.i

bb14.i41:                                         ; preds = %bb12.i23.preheader, %bb16.i49
  %i.sroa.0.1.i120 = phi i64 [ %58, %bb16.i49 ], [ %i.sroa.0.0.i17, %bb12.i23.preheader ]
  %_39.i42 = add i64 %i.sroa.0.1.i120, %pos.sroa.0.1.i18
  %_42.i43 = icmp ult i64 %_39.i42, %haystack.1
  br i1 %_42.i43, label %bb15.i45, label %panic3.i44

bb15.i45:                                         ; preds = %bb14.i41
  %55 = getelementptr inbounds nuw i8, ptr %needle.0, i64 %i.sroa.0.1.i120
  %_35.i46 = load i8, ptr %55, align 1, !alias.scope !176, !noalias !185, !noundef !13
  %56 = getelementptr inbounds nuw i8, ptr %haystack.0, i64 %_39.i42
  %_38.i = load i8, ptr %56, align 1, !alias.scope !174, !noalias !184, !noundef !13
  %_34.i = icmp eq i8 %_35.i46, %_38.i
  br i1 %_34.i, label %bb16.i49, label %bb20.i48

panic3.i44:                                       ; preds = %bb14.i41
  %57 = add i64 %i.sroa.0.0.i17, %pos.sroa.0.1.i18
  %umax = tail call i64 @llvm.umax.i64(i64 %haystack.1, i64 %57)
; call core::panicking::panic_bounds_check
  tail call void @_RNvNtCsjMrxcFdYDNN_4core9panicking18panic_bounds_check(i64 noundef %umax, i64 noundef range(i64 16, -9223372036854775808) %haystack.1, ptr noalias noundef readonly align 8 captures(address, read_provenance) dereferenceable(24) @alloc_c87148998ed7db37e08e1a2174257cfd) #14, !noalias !180
  unreachable

bb16.i49:                                         ; preds = %bb15.i45
  %58 = add i64 %i.sroa.0.1.i120, 1
  %exitcond.not = icmp eq i64 %58, %needle.1
  br i1 %exitcond.not, label %bb22.i26.preheader, label %bb14.i41

bb20.i48:                                         ; preds = %bb15.i45
  %reass.sub = sub i64 %i.sroa.0.1.i120, %_15.i
  %_45.i = add i64 %reass.sub, 1
  br label %bb37.i

bb23.i33:                                         ; preds = %bb22.i26.preheader, %bb26.i
  %j.sroa.0.0.i122 = phi i64 [ %61, %bb26.i ], [ %_15.i, %bb22.i26.preheader ]
  %_55.i34 = icmp ult i64 %j.sroa.0.0.i122, %needle.1
  br i1 %_55.i34, label %bb24.i36, label %panic4.i35

bb24.i36:                                         ; preds = %bb23.i33
  %_57.i = add i64 %j.sroa.0.0.i122, %pos.sroa.0.1.i18
  %_60.i37 = icmp ult i64 %_57.i, %haystack.1
  br i1 %_60.i37, label %bb25.i, label %panic5.i38

panic4.i35:                                       ; preds = %bb23.i33
; call core::panicking::panic_bounds_check
  tail call void @_RNvNtCsjMrxcFdYDNN_4core9panicking18panic_bounds_check(i64 noundef %j.sroa.0.0.i122, i64 noundef range(i64 0, -9223372036854775808) %needle.1, ptr noalias noundef readonly align 8 captures(address, read_provenance) dereferenceable(24) @alloc_e6fc43d669659d035dda2246f428dd3f) #14, !noalias !180
  unreachable

bb25.i:                                           ; preds = %bb24.i36
  %59 = getelementptr inbounds nuw i8, ptr %needle.0, i64 %j.sroa.0.0.i122
  %_53.i = load i8, ptr %59, align 1, !alias.scope !176, !noalias !185, !noundef !13
  %60 = getelementptr inbounds nuw i8, ptr %haystack.0, i64 %_57.i
  %_56.i39 = load i8, ptr %60, align 1, !alias.scope !174, !noalias !184, !noundef !13
  %_52.i40 = icmp eq i8 %_53.i, %_56.i39
  br i1 %_52.i40, label %bb26.i, label %bb37.i

panic5.i38:                                       ; preds = %bb24.i36
; call core::panicking::panic_bounds_check
  tail call void @_RNvNtCsjMrxcFdYDNN_4core9panicking18panic_bounds_check(i64 noundef %_57.i, i64 noundef range(i64 16, -9223372036854775808) %haystack.1, ptr noalias noundef readonly align 8 captures(address, read_provenance) dereferenceable(24) @alloc_67af9fdc97abcb42f8f57ad5de47a1d1) #14, !noalias !180
  unreachable

bb26.i:                                           ; preds = %bb25.i
  %61 = add nsw i64 %j.sroa.0.0.i122, -1
  %_49.i27 = icmp ugt i64 %61, %shift.sroa.0.1.i
  br i1 %_49.i27, label %bb23.i33, label %bb30.i

bb30.i:                                           ; preds = %bb26.i, %bb22.i26.preheader
  %_66.i28 = icmp ult i64 %shift.sroa.0.1.i, %needle.1
  br i1 %_66.i28, label %bb32.i, label %panic6.i

bb32.i:                                           ; preds = %bb30.i
  %_68.i = add i64 %pos.sroa.0.1.i18, %shift.sroa.0.1.i
  %_70.i = icmp ult i64 %_68.i, %haystack.1
  br i1 %_70.i, label %bb33.i, label %panic7.i

panic6.i:                                         ; preds = %bb30.i
; call core::panicking::panic_bounds_check
  tail call void @_RNvNtCsjMrxcFdYDNN_4core9panicking18panic_bounds_check(i64 noundef %shift.sroa.0.1.i, i64 noundef range(i64 0, -9223372036854775808) %needle.1, ptr noalias noundef readonly align 8 captures(address, read_provenance) dereferenceable(24) @alloc_e00afcc7fe7d99261f114a1ed7ce656f) #14, !noalias !180
  unreachable

bb33.i:                                           ; preds = %bb32.i
  %62 = getelementptr inbounds nuw i8, ptr %needle.0, i64 %shift.sroa.0.1.i
  %_64.i29 = load i8, ptr %62, align 1, !alias.scope !176, !noalias !185, !noundef !13
  %63 = getelementptr inbounds nuw i8, ptr %haystack.0, i64 %_68.i
  %_67.i = load i8, ptr %63, align 1, !alias.scope !174, !noalias !184, !noundef !13
  %_63.i30 = icmp eq i8 %_64.i29, %_67.i
  br i1 %_63.i30, label %bb4, label %bb37.i

panic7.i:                                         ; preds = %bb32.i
; call core::panicking::panic_bounds_check
  tail call void @_RNvNtCsjMrxcFdYDNN_4core9panicking18panic_bounds_check(i64 noundef %_68.i, i64 noundef range(i64 16, -9223372036854775808) %haystack.1, ptr noalias noundef readonly align 8 captures(address, read_provenance) dereferenceable(24) @alloc_7fca3cb05edfdc4e500e3b12ac3ae190) #14, !noalias !180
  unreachable

bb37.i:                                           ; preds = %bb25.i, %bb33.i, %bb20.i48
  %shift.sroa.0.2.i = phi i64 [ 0, %bb20.i48 ], [ %39, %bb33.i ], [ %39, %bb25.i ]
  %_45.pn.i = phi i64 [ %_45.i, %bb20.i48 ], [ %_14, %bb33.i ], [ %_14, %bb25.i ]
  %pos.sroa.0.2.i32 = add i64 %_45.pn.i, %pos.sroa.0.1.i18
  br label %bb2.i4.backedge

bb4:                                              ; preds = %bb2.i4.backedge, %bb57.i, %bb59.i, %bb33.i, %bb2.i.backedge, %bb46.i, %bb48.i, %bb22.i, %bb10.i.i, %bb44.i, %bb34.i, %bb8, %bb7, %bb6.i, %bb1
  %_0.sroa.0.0.i53.pn = phi i64 [ 1, %bb6.i ], [ 0, %bb1 ], [ 1, %bb7 ], [ 1, %bb8 ], [ 0, %bb34.i ], [ 0, %bb44.i ], [ 0, %bb10.i.i ], [ 1, %bb22.i ], [ 0, %bb48.i ], [ 0, %bb46.i ], [ 0, %bb2.i.backedge ], [ 0, %bb2.i4.backedge ], [ 0, %bb57.i ], [ 0, %bb59.i ], [ 1, %bb33.i ]
  %_0.sroa.3.0.i.pn = phi i64 [ %7, %bb6.i ], [ undef, %bb1 ], [ 0, %bb7 ], [ 0, %bb8 ], [ undef, %bb34.i ], [ undef, %bb44.i ], [ undef, %bb10.i.i ], [ %pos.sroa.0.1.i, %bb22.i ], [ undef, %bb48.i ], [ undef, %bb46.i ], [ undef, %bb2.i.backedge ], [ undef, %bb2.i4.backedge ], [ undef, %bb57.i ], [ undef, %bb59.i ], [ %pos.sroa.0.1.i18, %bb33.i ]
  %.pn69 = insertvalue { i64, i64 } poison, i64 %_0.sroa.0.0.i53.pn, 0
  %.pn = insertvalue { i64, i64 } %.pn69, i64 %_0.sroa.3.0.i.pn, 1
  ret { i64, i64 } %.pn
}

; memchr::arch::all::rabinkarp::is_equal_raw
; Function Attrs: cold nofree noinline norecurse nosync nounwind memory(argmem: read) uwtable
define noundef zeroext i1 @_RNvNtNtNtCsl5bjp7iZrWZ_6memchr4arch3all9rabinkarp12is_equal_raw(ptr noundef readonly captures(none) %x, ptr noundef readonly captures(none) %y, i64 noundef %n) unnamed_addr #3 {
start:
  %_4.i4 = icmp ugt i64 %n, 3
  br i1 %_4.i4, label %bb2.i, label %bb5.i

bb5.i:                                            ; preds = %bb4.i, %start
  %n.sroa.0.0.i.lcssa = phi i64 [ %n, %start ], [ %1, %bb4.i ]
  %y.sroa.0.0.i.lcssa = phi ptr [ %y, %start ], [ %_12.i, %bb4.i ]
  %x.sroa.0.0.i.lcssa = phi ptr [ %x, %start ], [ %_11.i, %bb4.i ]
  %_13.i = icmp samesign ugt i64 %n.sroa.0.0.i.lcssa, 1
  br i1 %_13.i, label %bb6.i, label %bb10.i

bb2.i:                                            ; preds = %start, %bb4.i
  %x.sroa.0.0.i7 = phi ptr [ %_11.i, %bb4.i ], [ %x, %start ]
  %y.sroa.0.0.i6 = phi ptr [ %_12.i, %bb4.i ], [ %y, %start ]
  %n.sroa.0.0.i5 = phi i64 [ %1, %bb4.i ], [ %n, %start ]
  %_26.sroa.0.0.copyload.i = load i32, ptr %x.sroa.0.0.i7, align 1
  %_32.sroa.0.0.copyload.i = load i32, ptr %y.sroa.0.0.i6, align 1
  %_10.not.i = icmp eq i32 %_26.sroa.0.0.copyload.i, %_32.sroa.0.0.copyload.i
  br i1 %_10.not.i, label %bb4.i, label %_RNvNtNtCsl5bjp7iZrWZ_6memchr4arch3all12is_equal_raw.exit

bb6.i:                                            ; preds = %bb5.i
  %_38.sroa.0.0.copyload.i = load i16, ptr %x.sroa.0.0.i.lcssa, align 1
  %_44.sroa.0.0.copyload.i = load i16, ptr %y.sroa.0.0.i.lcssa, align 1
  %_19.not.i = icmp eq i16 %_38.sroa.0.0.copyload.i, %_44.sroa.0.0.copyload.i
  br i1 %_19.not.i, label %bb9.i, label %_RNvNtNtCsl5bjp7iZrWZ_6memchr4arch3all12is_equal_raw.exit

bb10.i:                                           ; preds = %bb9.i, %bb5.i
  %n.sroa.0.1.i = phi i64 [ %0, %bb9.i ], [ %n.sroa.0.0.i.lcssa, %bb5.i ]
  %y.sroa.0.1.i = phi ptr [ %_21.i, %bb9.i ], [ %y.sroa.0.0.i.lcssa, %bb5.i ]
  %x.sroa.0.1.i = phi ptr [ %_20.i, %bb9.i ], [ %x.sroa.0.0.i.lcssa, %bb5.i ]
  %_22.not.i = icmp eq i64 %n.sroa.0.1.i, 0
  br i1 %_22.not.i, label %_RNvNtNtCsl5bjp7iZrWZ_6memchr4arch3all12is_equal_raw.exit, label %bb11.i

bb9.i:                                            ; preds = %bb6.i
  %_20.i = getelementptr inbounds nuw i8, ptr %x.sroa.0.0.i.lcssa, i64 2
  %_21.i = getelementptr inbounds nuw i8, ptr %y.sroa.0.0.i.lcssa, i64 2
  %0 = add nsw i64 %n.sroa.0.0.i.lcssa, -2
  br label %bb10.i

bb11.i:                                           ; preds = %bb10.i
  %_24.i = load i8, ptr %x.sroa.0.1.i, align 1, !noundef !13
  %_25.i = load i8, ptr %y.sroa.0.1.i, align 1, !noundef !13
  %_23.not.i = icmp eq i8 %_24.i, %_25.i
  br label %_RNvNtNtCsl5bjp7iZrWZ_6memchr4arch3all12is_equal_raw.exit

bb4.i:                                            ; preds = %bb2.i
  %_11.i = getelementptr inbounds nuw i8, ptr %x.sroa.0.0.i7, i64 4
  %_12.i = getelementptr inbounds nuw i8, ptr %y.sroa.0.0.i6, i64 4
  %1 = add i64 %n.sroa.0.0.i5, -4
  %_4.i = icmp ugt i64 %1, 3
  br i1 %_4.i, label %bb2.i, label %bb5.i

_RNvNtNtCsl5bjp7iZrWZ_6memchr4arch3all12is_equal_raw.exit: ; preds = %bb2.i, %bb6.i, %bb10.i, %bb11.i
  %_0.sroa.0.0.off0.i = phi i1 [ false, %bb6.i ], [ true, %bb10.i ], [ %_23.not.i, %bb11.i ], [ false, %bb2.i ]
  ret i1 %_0.sroa.0.0.off0.i
}

; <memchr::memmem::FindRevIter as core::iter::traits::iterator::Iterator>::next
; Function Attrs: uwtable
define { i64, i64 } @_RNvXs1_NtCsl5bjp7iZrWZ_6memchr6memmemNtB5_11FindRevIterNtNtNtNtCsjMrxcFdYDNN_4core4iter6traits8iterator8Iterator4next(ptr noalias noundef align 8 captures(none) dereferenceable(96) %self) unnamed_addr #0 personality ptr @rust_eh_personality {
start:
  %0 = getelementptr inbounds nuw i8, ptr %self, i64 64
  %_2 = load i64, ptr %0, align 8, !range !86, !noundef !13
  %1 = getelementptr inbounds nuw i8, ptr %self, i64 72
  %2 = trunc nuw i64 %_2 to i1
  br i1 %2, label %bb2, label %bb11

bb2:                                              ; preds = %start
  %pos = load i64, ptr %1, align 8, !noundef !13
  %3 = getelementptr inbounds nuw i8, ptr %self, i64 88
  %_10.1 = load i64, ptr %3, align 8, !noundef !13
  %_11.not = icmp ugt i64 %pos, %_10.1
  br i1 %_11.not, label %bb14, label %bb12, !prof !7

bb11.sink.split:                                  ; preds = %bb5, %bb7
  %.sink = phi i64 [ %_9.sroa.0.0, %bb7 ], [ 1, %bb5 ]
  %_0.sroa.7.0.i.i.ph.sink = phi i64 [ %_20, %bb7 ], [ %_0.sroa.7.0.i.i.ph, %bb5 ]
  %result.sroa.6.0.ph = phi i64 [ %pos, %bb7 ], [ %_0.sroa.7.0.i.i.ph, %bb5 ]
  store i64 %.sink, ptr %0, align 8
  store i64 %_0.sroa.7.0.i.i.ph.sink, ptr %1, align 8
  br label %bb11

bb11:                                             ; preds = %bb1.i6.backedge.i.i, %bb1.i.backedge.i.i, %bb10.i.i.i.i, %bb1.i.i.i.i.i, %bb11.sink.split, %_RNCNvNtCsl5bjp7iZrWZ_6memchr6memchr7memrchr0B5_.exit.i.i, %bb45.i.i.i.i.i.i, %bb5.i.i, %bb12, %start
  %result.sroa.6.0 = phi i64 [ undef, %start ], [ undef, %bb12 ], [ undef, %bb5.i.i ], [ undef, %bb45.i.i.i.i.i.i ], [ undef, %_RNCNvNtCsl5bjp7iZrWZ_6memchr6memchr7memrchr0B5_.exit.i.i ], [ %result.sroa.6.0.ph, %bb11.sink.split ], [ undef, %bb1.i.i.i.i.i ], [ undef, %bb10.i.i.i.i ], [ undef, %bb1.i.backedge.i.i ], [ undef, %bb1.i6.backedge.i.i ]
  %result.sroa.0.0 = phi i64 [ 0, %start ], [ 0, %bb12 ], [ 0, %bb5.i.i ], [ 0, %bb45.i.i.i.i.i.i ], [ 0, %_RNCNvNtCsl5bjp7iZrWZ_6memchr6memchr7memrchr0B5_.exit.i.i ], [ 1, %bb11.sink.split ], [ 0, %bb1.i.i.i.i.i ], [ 0, %bb10.i.i.i.i ], [ 0, %bb1.i.backedge.i.i ], [ 0, %bb1.i6.backedge.i.i ]
  %4 = insertvalue { i64, i64 } poison, i64 %result.sroa.0.0, 0
  %5 = insertvalue { i64, i64 } %4, i64 %result.sroa.6.0, 1
  ret { i64, i64 } %5

bb12:                                             ; preds = %bb2
  %6 = getelementptr inbounds nuw i8, ptr %self, i64 80
  %_10.0 = load ptr, ptr %6, align 8, !nonnull !13, !align !186, !noundef !13
  tail call void @llvm.experimental.noalias.scope.decl(metadata !187)
  tail call void @llvm.experimental.noalias.scope.decl(metadata !190)
  %_6.sroa.0.0.in.i = getelementptr inbounds nuw i8, ptr %self, i64 8
  %_6.sroa.0.0.i = load ptr, ptr %_6.sroa.0.0.in.i, align 8, !alias.scope !187, !noalias !190, !nonnull !13, !noundef !13
  %_6.sroa.3.0.in.i = getelementptr inbounds nuw i8, ptr %self, i64 16
  %_6.sroa.3.0.i = load i64, ptr %_6.sroa.3.0.in.i, align 8, !alias.scope !187, !noalias !190, !noundef !13
  tail call void @llvm.experimental.noalias.scope.decl(metadata !192)
  tail call void @llvm.experimental.noalias.scope.decl(metadata !195)
  tail call void @llvm.experimental.noalias.scope.decl(metadata !197)
  %_4.i.i = icmp samesign ult i64 %pos, %_6.sroa.3.0.i
  br i1 %_4.i.i, label %bb11, label %bb2.i.i

bb2.i.i:                                          ; preds = %bb12
  %_3.i = getelementptr inbounds nuw i8, ptr %self, i64 24
  %7 = load i64, ptr %_3.i, align 8, !range !199, !alias.scope !200, !noalias !201, !noundef !13
  %8 = add nsw i64 %7, -2
  %.inv.i.i = icmp samesign ult i64 %7, 2
  %_7.i.i = select i1 %.inv.i.i, i64 2, i64 %8
  switch i64 %_7.i.i, label %bb3.i.i [
    i64 0, label %bb7
    i64 1, label %bb5.i.i
    i64 2, label %bb4.i.i
  ]

bb3.i.i:                                          ; preds = %bb2.i.i
  unreachable

bb5.i.i:                                          ; preds = %bb2.i.i
  %9 = getelementptr inbounds nuw i8, ptr %self, i64 32
  %needle.i.i = load i8, ptr %9, align 8, !alias.scope !200, !noalias !201, !noundef !13
  %end.i.ptr.i.i = getelementptr inbounds nuw i8, ptr %_10.0, i64 %pos
  %10 = insertelement <1 x i8> poison, i8 %needle.i.i, i64 0
  %11 = shufflevector <1 x i8> %10, <1 x i8> poison, <16 x i32> zeroinitializer
  %_4.not.i.i.not.i.i = icmp eq i64 %pos, 0
  br i1 %_4.not.i.i.not.i.i, label %bb11, label %bb2.i.i.i.i

bb2.i.i.i.i:                                      ; preds = %bb5.i.i
  %12 = ptrtoint ptr %end.i.ptr.i.i to i64
  %_5.i.i.i.i = icmp samesign ult i64 %pos, 16
  br i1 %_5.i.i.i.i, label %bb1.i.i.i.i.i, label %bb6.i.i.i.i

bb6.i.i.i.i:                                      ; preds = %bb2.i.i.i.i
  %_6.i.i.i.i.i.i = getelementptr inbounds i8, ptr %end.i.ptr.i.i, i64 -16
  %_6.i.val.i.i.i.i.i = load <16 x i8>, ptr %_6.i.i.i.i.i.i, align 1, !alias.scope !202, !noalias !203
  %13 = icmp eq <16 x i8> %11, %_6.i.val.i.i.i.i.i
  %14 = sext <16 x i1> %13 to <16 x i8>
  %15 = bitcast <16 x i8> %14 to <8 x i16>
  %16 = lshr <8 x i16> %15, splat (i16 4)
  %17 = trunc <8 x i16> %16 to <8 x i8>
  %18 = bitcast <8 x i8> %17 to i64
  %_6.i32.i.i.i.i.i = and i64 %18, -8608480567731124088
  %_0.i46.not.i.i.i.i.i = icmp eq i64 %_6.i32.i.i.i.i.i, 0
  br i1 %_0.i46.not.i.i.i.i.i, label %bb4.i.i.i.i.i.i, label %bb3.i.i.i.i.i.i

bb3.i.i.i.i.i.i:                                  ; preds = %bb6.i.i.i.i
  %19 = tail call range(i64 0, 65) i64 @llvm.ctlz.i64(i64 range(i64 0, -8608480567731124087) %_6.i32.i.i.i.i.i, i1 true)
  %_4.i.i.i.i.i.i.i = lshr i64 %19, 2
  %_0.i.i.i.i.i.i.i = xor i64 %_4.i.i.i.i.i.i.i, 15
  %_9.i39.i.i.i.i.i.i = getelementptr inbounds nuw i8, ptr %_6.i.i.i.i.i.i, i64 %_0.i.i.i.i.i.i.i
  br label %bb8.i.i.i

bb4.i.i.i.i.i.i:                                  ; preds = %bb6.i.i.i.i
  %_10.i.i.i.i.i.i = and i64 %12, 15
  %end.i.add.i.i = sub nuw nsw i64 %pos, %_10.i.i.i.i.i.i
  %_12.i.i.i.i.i.i = icmp samesign ugt i64 %pos, 63
  %_13.i.i.i.i.i.i = icmp samesign ugt i64 %end.i.add.i.i, 63
  %or.cond.i.i.i.i.i.i = select i1 %_12.i.i.i.i.i.i, i1 %_13.i.i.i.i.i.i, i1 false
  br i1 %or.cond.i.i.i.i.i.i, label %bb6.i.i.i.i.i.i, label %bb40.i.i.i.i.i.i.preheader

bb40.i.i.i.i.i.i.preheader:                       ; preds = %bb5.i.i.i.i.i.i, %bb4.i.i.i.i.i.i
  %cur.sroa.0.2.i.i.i.i.idx.i.i.ph = phi i64 [ %end.i.add.i.i, %bb4.i.i.i.i.i.i ], [ %cur.sroa.0.1.i.i.i.i.add.i.i, %bb5.i.i.i.i.i.i ]
  br label %bb40.i.i.i.i.i.i

bb5.i.i.i.i.i.i:                                  ; preds = %bb6.i.i.i.i.i.i
  %_13.old.not.i.i.i.i.i.i = icmp samesign ult i64 %cur.sroa.0.1.i.i.i.i.idx.i.i, 128
  br i1 %_13.old.not.i.i.i.i.i.i, label %bb40.i.i.i.i.i.i.preheader, label %bb6.i.i.i.i.i.i

bb6.i.i.i.i.i.i:                                  ; preds = %bb4.i.i.i.i.i.i, %bb5.i.i.i.i.i.i
  %cur.sroa.0.1.i.i.i.i.idx.i.i = phi i64 [ %cur.sroa.0.1.i.i.i.i.add.i.i, %bb5.i.i.i.i.i.i ], [ %end.i.add.i.i, %bb4.i.i.i.i.i.i ]
  %cur.sroa.0.1.i.i.i.i.ptr.i.i = getelementptr inbounds i8, ptr %_10.0, i64 %cur.sroa.0.1.i.i.i.i.idx.i.i
  %cur.sroa.0.1.i.i.i.i.add.i.i = add nsw i64 %cur.sroa.0.1.i.i.i.i.idx.i.i, -64
  %_19.i.i.i.i.ptr.ptr.i.i = getelementptr inbounds i8, ptr %_10.0, i64 %cur.sroa.0.1.i.i.i.i.add.i.i
  %_19.i.val.i.i.i.i.i = load <16 x i8>, ptr %_19.i.i.i.i.ptr.ptr.i.i, align 1, !alias.scope !202, !noalias !203
  %_23.i.i.i.i.i.i = getelementptr inbounds i8, ptr %cur.sroa.0.1.i.i.i.i.ptr.i.i, i64 -48
  %_23.i.val.i.i.i.i.i = load <16 x i8>, ptr %_23.i.i.i.i.i.i, align 1, !alias.scope !202, !noalias !203
  %_27.i.i.i.i.i.i = getelementptr inbounds i8, ptr %cur.sroa.0.1.i.i.i.i.ptr.i.i, i64 -32
  %_27.i.val.i.i.i.i.i = load <16 x i8>, ptr %_27.i.i.i.i.i.i, align 1, !alias.scope !202, !noalias !203
  %_31.i.i.i.i.i.i = getelementptr inbounds i8, ptr %cur.sroa.0.1.i.i.i.i.ptr.i.i, i64 -16
  %_31.i.val.i.i.i.i.i = load <16 x i8>, ptr %_31.i.i.i.i.i.i, align 1, !alias.scope !202, !noalias !203
  %20 = icmp eq <16 x i8> %11, %_19.i.val.i.i.i.i.i
  %21 = sext <16 x i1> %20 to <16 x i8>
  %22 = icmp eq <16 x i8> %11, %_23.i.val.i.i.i.i.i
  %23 = sext <16 x i1> %22 to <16 x i8>
  %24 = icmp eq <16 x i8> %11, %_27.i.val.i.i.i.i.i
  %25 = sext <16 x i1> %24 to <16 x i8>
  %26 = icmp eq <16 x i8> %11, %_31.i.val.i.i.i.i.i
  %27 = sext <16 x i1> %26 to <16 x i8>
  %28 = or <16 x i8> %23, %21
  %29 = or <16 x i8> %28, %25
  %30 = or <16 x i8> %29, %27
  %31 = tail call <16 x i8> @llvm.aarch64.neon.umaxp.v16i8(<16 x i8> %30, <16 x i8> %30)
  %32 = bitcast <16 x i8> %31 to <2 x i64>
  %33 = extractelement <2 x i64> %32, i64 0
  %_0.i.not.i.i.i.i.i = icmp eq i64 %33, 0
  br i1 %_0.i.not.i.i.i.i.i, label %bb5.i.i.i.i.i.i, label %bb19.i.i.i.i.i.i

bb40.i.i.i.i.i.i:                                 ; preds = %bb40.i.i.i.i.i.i.preheader, %bb41.i.i.i.i.i.i
  %cur.sroa.0.2.i.i.i.i.idx.i.i = phi i64 [ %cur.sroa.0.2.i.i.i.i.add.i.i, %bb41.i.i.i.i.i.i ], [ %cur.sroa.0.2.i.i.i.i.idx.i.i.ph, %bb40.i.i.i.i.i.i.preheader ]
  %_67.not.i.i.i.i.i.i = icmp slt i64 %cur.sroa.0.2.i.i.i.i.idx.i.i, 16
  br i1 %_67.not.i.i.i.i.i.i, label %bb45.i.i.i.i.i.i, label %bb41.i.i.i.i.i.i

bb45.i.i.i.i.i.i:                                 ; preds = %bb40.i.i.i.i.i.i
  %_74.i.i.i.i.i.i = icmp sgt i64 %cur.sroa.0.2.i.i.i.i.idx.i.i, 0
  br i1 %_74.i.i.i.i.i.i, label %_RNCNvNtCsl5bjp7iZrWZ_6memchr6memchr7memrchr0B5_.exit.i.i, label %bb11

bb41.i.i.i.i.i.i:                                 ; preds = %bb40.i.i.i.i.i.i
  %cur.sroa.0.2.i.i.i.i.add.i.i = add nsw i64 %cur.sroa.0.2.i.i.i.i.idx.i.i, -16
  %_70.i.i.i.i.ptr.i.i = getelementptr inbounds i8, ptr %_10.0, i64 %cur.sroa.0.2.i.i.i.i.add.i.i
  %_70.i.val.i.i.i.i.i = load <16 x i8>, ptr %_70.i.i.i.i.ptr.i.i, align 1, !alias.scope !202, !noalias !203
  %34 = icmp eq <16 x i8> %11, %_70.i.val.i.i.i.i.i
  %35 = sext <16 x i1> %34 to <16 x i8>
  %36 = bitcast <16 x i8> %35 to <8 x i16>
  %37 = lshr <8 x i16> %36, splat (i16 4)
  %38 = trunc <8 x i16> %37 to <8 x i8>
  %39 = bitcast <8 x i8> %38 to i64
  %_6.i27.i.i.i.i.i = and i64 %39, -8608480567731124088
  %_0.i45.not.i.i.i.i.i = icmp eq i64 %_6.i27.i.i.i.i.i, 0
  br i1 %_0.i45.not.i.i.i.i.i, label %bb40.i.i.i.i.i.i, label %bb43.i.i.i.i.i.i

bb43.i.i.i.i.i.i:                                 ; preds = %bb41.i.i.i.i.i.i
  %_70.i.i.i.i.ptr.i.i.le = getelementptr inbounds i8, ptr %_10.0, i64 %cur.sroa.0.2.i.i.i.i.add.i.i
  %40 = tail call range(i64 0, 65) i64 @llvm.ctlz.i64(i64 range(i64 0, -8608480567731124087) %_6.i27.i.i.i.i.i, i1 true)
  %_4.i.i98.i.i.i.i.i = lshr i64 %40, 2
  %_0.i.i99.i.i.i.i.i = xor i64 %_4.i.i98.i.i.i.i.i, 15
  %_9.i.i.i.i.i.i.i = getelementptr inbounds nuw i8, ptr %_70.i.i.i.i.ptr.i.i.le, i64 %_0.i.i99.i.i.i.i.i
  br label %bb8.i.i.i

bb19.i.i.i.i.i.i:                                 ; preds = %bb6.i.i.i.i.i.i
  %_19.i.i.i.i.ptr.ptr.i.i.le = getelementptr inbounds i8, ptr %_10.0, i64 %cur.sroa.0.1.i.i.i.i.add.i.i
  %_23.i.i.i.i.i.i.le = getelementptr inbounds i8, ptr %cur.sroa.0.1.i.i.i.i.ptr.i.i, i64 -48
  %_27.i.i.i.i.i.i.le = getelementptr inbounds i8, ptr %cur.sroa.0.1.i.i.i.i.ptr.i.i, i64 -32
  %41 = bitcast <16 x i8> %27 to <8 x i16>
  %42 = lshr <8 x i16> %41, splat (i16 4)
  %43 = trunc <8 x i16> %42 to <8 x i8>
  %44 = bitcast <8 x i8> %43 to i64
  %_6.i18.i.i.i.i.i = and i64 %44, -8608480567731124088
  %_0.i43.not.i.i.i.i.i = icmp eq i64 %_6.i18.i.i.i.i.i, 0
  br i1 %_0.i43.not.i.i.i.i.i, label %bb24.i.i.i.i.i.i, label %bb22.i.i.i.i.i.i

bb24.i.i.i.i.i.i:                                 ; preds = %bb19.i.i.i.i.i.i
  %45 = bitcast <16 x i8> %25 to <8 x i16>
  %46 = lshr <8 x i16> %45, splat (i16 4)
  %47 = trunc <8 x i16> %46 to <8 x i8>
  %48 = bitcast <8 x i8> %47 to i64
  %_6.i13.i.i.i.i.i = and i64 %48, -8608480567731124088
  %_0.i42.not.i.i.i.i.i = icmp eq i64 %_6.i13.i.i.i.i.i, 0
  br i1 %_0.i42.not.i.i.i.i.i, label %bb29.i.i.i.i.i.i, label %bb27.i.i.i.i.i.i

bb22.i.i.i.i.i.i:                                 ; preds = %bb19.i.i.i.i.i.i
  %_31.i.i.i.i.i.i.le = getelementptr inbounds i8, ptr %cur.sroa.0.1.i.i.i.i.ptr.i.i, i64 -16
  %49 = tail call range(i64 0, 65) i64 @llvm.ctlz.i64(i64 range(i64 0, -8608480567731124087) %_6.i18.i.i.i.i.i, i1 true)
  %_4.i33.i.i.i.i.i = lshr i64 %49, 2
  %_0.i34.i.i.i.i.i = xor i64 %_4.i33.i.i.i.i.i, 15
  %_48.i.i.i.i.i.i = getelementptr inbounds nuw i8, ptr %_31.i.i.i.i.i.i.le, i64 %_0.i34.i.i.i.i.i
  br label %bb8.i.i.i

bb29.i.i.i.i.i.i:                                 ; preds = %bb24.i.i.i.i.i.i
  %50 = bitcast <16 x i8> %23 to <8 x i16>
  %51 = lshr <8 x i16> %50, splat (i16 4)
  %52 = trunc <8 x i16> %51 to <8 x i8>
  %53 = bitcast <8 x i8> %52 to i64
  %_6.i8.i.i.i.i.i = and i64 %53, -8608480567731124088
  %_0.i41.not.i.i.i.i.i = icmp eq i64 %_6.i8.i.i.i.i.i, 0
  br i1 %_0.i41.not.i.i.i.i.i, label %bb34.i.i.i.i.i.i, label %bb32.i.i.i.i.i.i

bb27.i.i.i.i.i.i:                                 ; preds = %bb24.i.i.i.i.i.i
  %54 = tail call range(i64 0, 65) i64 @llvm.ctlz.i64(i64 range(i64 0, -8608480567731124087) %_6.i13.i.i.i.i.i, i1 true)
  %_4.i35.i.i.i.i.i = lshr i64 %54, 2
  %_0.i36.i.i.i.i.i = xor i64 %_4.i35.i.i.i.i.i, 15
  %_54.i.i.i.i.i.i = getelementptr inbounds nuw i8, ptr %_27.i.i.i.i.i.i.le, i64 %_0.i36.i.i.i.i.i
  br label %bb8.i.i.i

bb34.i.i.i.i.i.i:                                 ; preds = %bb29.i.i.i.i.i.i
  %55 = bitcast <16 x i8> %21 to <8 x i16>
  %56 = lshr <8 x i16> %55, splat (i16 4)
  %57 = trunc <8 x i16> %56 to <8 x i8>
  %58 = bitcast <8 x i8> %57 to i64
  %_6.i3.i.i.i.i.i = and i64 %58, -8608480567731124088
  %59 = tail call range(i64 0, 65) i64 @llvm.ctlz.i64(i64 range(i64 0, -8608480567731124087) %_6.i3.i.i.i.i.i, i1 false)
  %_4.i39.i.i.i.i.i = lshr i64 %59, 2
  %_0.i40.i.i.i.i.i = sub nsw i64 15, %_4.i39.i.i.i.i.i
  %_65.i.i.i.i.i.i = getelementptr inbounds nuw i8, ptr %_19.i.i.i.i.ptr.ptr.i.i.le, i64 %_0.i40.i.i.i.i.i
  br label %bb8.i.i.i

bb32.i.i.i.i.i.i:                                 ; preds = %bb29.i.i.i.i.i.i
  %60 = tail call range(i64 0, 65) i64 @llvm.ctlz.i64(i64 range(i64 0, -8608480567731124087) %_6.i8.i.i.i.i.i, i1 true)
  %_4.i37.i.i.i.i.i = lshr i64 %60, 2
  %_0.i38.i.i.i.i.i = xor i64 %_4.i37.i.i.i.i.i, 15
  %_60.i.i.i.i.i.i = getelementptr inbounds nuw i8, ptr %_23.i.i.i.i.i.i.le, i64 %_0.i38.i.i.i.i.i
  br label %bb8.i.i.i

bb1.i.i.i.i.i:                                    ; preds = %bb2.i.i.i.i, %bb2.i.i.i.i.i
  %end.sroa.0.0.i.i.i.i.i = phi ptr [ %_6.i.i.i.i.i, %bb2.i.i.i.i.i ], [ %end.i.ptr.i.i, %bb2.i.i.i.i ]
  %_4.i.i.i.i.i = icmp ugt ptr %end.sroa.0.0.i.i.i.i.i, %_10.0
  br i1 %_4.i.i.i.i.i, label %bb2.i.i.i.i.i, label %bb11

bb2.i.i.i.i.i:                                    ; preds = %bb1.i.i.i.i.i
  %_6.i.i.i.i.i = getelementptr inbounds i8, ptr %end.sroa.0.0.i.i.i.i.i, i64 -1
  %_10.i.i.i.i.i = load i8, ptr %_6.i.i.i.i.i, align 1, !alias.scope !202, !noalias !210, !noundef !13
  %_0.i.i.i.i.i = icmp eq i8 %_10.i.i.i.i.i, %needle.i.i
  br i1 %_0.i.i.i.i.i, label %bb8.i.i.i, label %bb1.i.i.i.i.i

_RNCNvNtCsl5bjp7iZrWZ_6memchr6memchr7memrchr0B5_.exit.i.i: ; preds = %bb45.i.i.i.i.i.i
  %start1.val.i.i.i.i.i = load <16 x i8>, ptr %_10.0, align 1, !alias.scope !202, !noalias !203
  %61 = icmp eq <16 x i8> %11, %start1.val.i.i.i.i.i
  %62 = sext <16 x i1> %61 to <16 x i8>
  %63 = bitcast <16 x i8> %62 to <8 x i16>
  %64 = lshr <8 x i16> %63, splat (i16 4)
  %65 = trunc <8 x i16> %64 to <8 x i8>
  %66 = bitcast <8 x i8> %65 to i64
  %_6.i22.i.i.i.i.i = and i64 %66, -8608480567731124088
  %_0.i44.not.i.i.i.not.i.i = icmp eq i64 %_6.i22.i.i.i.i.i, 0
  %67 = tail call range(i64 0, 65) i64 @llvm.ctlz.i64(i64 range(i64 0, -8608480567731124087) %_6.i22.i.i.i.i.i, i1 false)
  %_4.i.i100.i.i.i.i.i = lshr i64 %67, 2
  %_0.i.i101.i.i.i.i.i = sub nuw nsw i64 15, %_4.i.i100.i.i.i.i.i
  %_9.i27.i.i.i.i.i.i = getelementptr inbounds nuw i8, ptr %_10.0, i64 %_0.i.i101.i.i.i.i.i
  br i1 %_0.i44.not.i.i.i.not.i.i, label %bb11, label %bb8.i.i.i

bb8.i.i.i:                                        ; preds = %bb2.i.i.i.i.i, %_RNCNvNtCsl5bjp7iZrWZ_6memchr6memchr7memrchr0B5_.exit.i.i, %bb32.i.i.i.i.i.i, %bb34.i.i.i.i.i.i, %bb27.i.i.i.i.i.i, %bb22.i.i.i.i.i.i, %bb43.i.i.i.i.i.i, %bb3.i.i.i.i.i.i
  %_0.sroa.4.0.i.i52.i.i = phi ptr [ %_9.i27.i.i.i.i.i.i, %_RNCNvNtCsl5bjp7iZrWZ_6memchr6memchr7memrchr0B5_.exit.i.i ], [ %_9.i.i.i.i.i.i.i, %bb43.i.i.i.i.i.i ], [ %_65.i.i.i.i.i.i, %bb34.i.i.i.i.i.i ], [ %_60.i.i.i.i.i.i, %bb32.i.i.i.i.i.i ], [ %_54.i.i.i.i.i.i, %bb27.i.i.i.i.i.i ], [ %_48.i.i.i.i.i.i, %bb22.i.i.i.i.i.i ], [ %_9.i39.i.i.i.i.i.i, %bb3.i.i.i.i.i.i ], [ %_6.i.i.i.i.i, %bb2.i.i.i.i.i ]
  %68 = ptrtoint ptr %_0.sroa.4.0.i.i52.i.i to i64
  %69 = ptrtoint ptr %_10.0 to i64
  %70 = sub i64 %68, %69
  br label %bb11.sink.split.i.i

bb4.i.i:                                          ; preds = %bb2.i.i
  %_11.i.i = icmp samesign ult i64 %pos, 16
  br i1 %_11.i.i, label %bb4.i.i.i.i, label %bb9.i.i

bb11.sink.split.i.i:                              ; preds = %bb6.i48.i.i, %bb8.i.i.i
  %.sink.i.i = phi i64 [ %79, %bb6.i48.i.i ], [ %70, %bb8.i.i.i ]
  %_9.i.i.i.i = icmp sgt i64 %.sink.i.i, -1
  tail call void @llvm.assume(i1 %_9.i.i.i.i)
  br label %bb5

bb9.i.i:                                          ; preds = %bb4.i.i
  %71 = getelementptr inbounds nuw i8, ptr %self, i64 32
  %72 = trunc nuw i64 %7 to i1
  %_17.i.i = load i64, ptr %71, align 8, !alias.scope !200, !noalias !201, !noundef !13
  %_57.not.i.i.i = icmp eq i64 %_6.sroa.3.0.i, 0
  br i1 %72, label %bb14.i.i, label %bb15.i.i

bb4.i.i.i.i:                                      ; preds = %bb4.i.i
  %_12.i.i = getelementptr inbounds nuw i8, ptr %self, i64 56
  %_12.val.i.i = load i32, ptr %_12.i.i, align 8, !alias.scope !200, !noalias !201
  %73 = getelementptr inbounds nuw i8, ptr %self, i64 60
  %_12.val43.i.i = load i32, ptr %73, align 4, !alias.scope !200, !noalias !201
  tail call void @llvm.experimental.noalias.scope.decl(metadata !213)
  %74 = ptrtoint ptr %_10.0 to i64
  %hend.i.i.i = getelementptr inbounds nuw i8, ptr %_10.0, i64 %pos
  %_24.i.i.i.i = sub nsw i64 0, %_6.sroa.3.0.i
  %75 = getelementptr inbounds i8, ptr %hend.i.i.i, i64 %_24.i.i.i.i
  %_261.not.i.i.i.i = icmp samesign eq i64 %_6.sroa.3.0.i, 0
  br i1 %_261.not.i.i.i.i, label %bb5.i.i.i.i.preheader, label %bb16.i.i.i.i

bb16.i.i.i.i:                                     ; preds = %bb4.i.i.i.i, %bb16.i.i.i.i
  %_11.sroa.0.03.i.i.i.i = phi ptr [ %_28.i.i.i.i, %bb16.i.i.i.i ], [ %hend.i.i.i, %bb4.i.i.i.i ]
  %hash.sroa.0.02.i.i.i.i = phi i32 [ %76, %bb16.i.i.i.i ], [ 0, %bb4.i.i.i.i ]
  %_28.i.i.i.i = getelementptr inbounds i8, ptr %_11.sroa.0.03.i.i.i.i, i64 -1
  %_29.i.i.i.i = load i8, ptr %_28.i.i.i.i, align 1, !alias.scope !216, !noalias !218, !noundef !13
  %_32.i.i.i.i = shl i32 %hash.sroa.0.02.i.i.i.i, 1
  %_33.i.i.i.i = zext i8 %_29.i.i.i.i to i32
  %76 = add i32 %_32.i.i.i.i, %_33.i.i.i.i
  %_26.i.i.i.i = icmp ult ptr %75, %_28.i.i.i.i
  br i1 %_26.i.i.i.i, label %bb16.i.i.i.i, label %bb5.i.i.i.i.preheader

bb5.i.i.i.i.preheader:                            ; preds = %bb16.i.i.i.i, %bb4.i.i.i.i
  %hash.sroa.0.1.i.i.i.i.ph = phi i32 [ 0, %bb4.i.i.i.i ], [ %76, %bb16.i.i.i.i ]
  br label %bb5.i.i.i.i

bb5.i.i.i.i:                                      ; preds = %bb5.i.i.i.i.preheader, %bb12.i.i.i.i
  %hash.sroa.0.1.i.i.i.i = phi i32 [ %77, %bb12.i.i.i.i ], [ %hash.sroa.0.1.i.i.i.i.ph, %bb5.i.i.i.i.preheader ]
  %cur.sroa.0.0.i.i.i.i = phi ptr [ %_18.i.i.i.i, %bb12.i.i.i.i ], [ %75, %bb5.i.i.i.i.preheader ]
  %_13.i.i.i.i = icmp eq i32 %_12.val.i.i, %hash.sroa.0.1.i.i.i.i
  br i1 %_13.i.i.i.i, label %bb6.i.i47.i.i, label %bb10.i.i.i.i, !prof !2

bb10.i.i.i.i:                                     ; preds = %bb6.i.i47.i.i, %bb5.i.i.i.i
  %_16.not.i.i.i.i = icmp ugt ptr %cur.sroa.0.0.i.i.i.i, %_10.0
  br i1 %_16.not.i.i.i.i, label %bb12.i.i.i.i, label %bb11

bb6.i.i47.i.i:                                    ; preds = %bb5.i.i.i.i
; call memchr::arch::all::rabinkarp::is_equal_raw
  %_14.i.i.i.i = tail call noundef zeroext i1 @_RNvNtNtNtCsl5bjp7iZrWZ_6memchr4arch3all9rabinkarp12is_equal_raw(ptr noundef nonnull %cur.sroa.0.0.i.i.i.i, ptr noundef nonnull readonly align 1 %_6.sroa.0.0.i, i64 noundef range(i64 0, -9223372036854775808) %_6.sroa.3.0.i) #15, !alias.scope !219, !noalias !200
  br i1 %_14.i.i.i.i, label %bb6.i48.i.i, label %bb10.i.i.i.i

bb12.i.i.i.i:                                     ; preds = %bb10.i.i.i.i
  %_18.i.i.i.i = getelementptr inbounds i8, ptr %cur.sroa.0.0.i.i.i.i, i64 -1
  %_20.i.i.i.i = getelementptr inbounds nuw i8, ptr %_18.i.i.i.i, i64 %_6.sroa.3.0.i
  %_19.i.i.i.i = load i8, ptr %_20.i.i.i.i, align 1, !alias.scope !216, !noalias !218, !noundef !13
  %_22.i.i.i.i = load i8, ptr %_18.i.i.i.i, align 1, !alias.scope !216, !noalias !218, !noundef !13
  %_39.i.i.i.i = zext i8 %_19.i.i.i.i to i32
  %_38.i.i.i.i = mul i32 %_12.val43.i.i, %_39.i.i.i.i
  %_37.i.i.i.i = sub i32 %hash.sroa.0.1.i.i.i.i, %_38.i.i.i.i
  %_40.i.i.i.i = shl i32 %_37.i.i.i.i, 1
  %_41.i.i.i.i = zext i8 %_22.i.i.i.i to i32
  %77 = add i32 %_40.i.i.i.i, %_41.i.i.i.i
  br label %bb5.i.i.i.i

bb6.i48.i.i:                                      ; preds = %bb6.i.i47.i.i
  %78 = ptrtoint ptr %cur.sroa.0.0.i.i.i.i to i64
  %79 = sub i64 %78, %74
  br label %bb11.sink.split.i.i

bb14.i.i:                                         ; preds = %bb9.i.i
  tail call void @llvm.experimental.noalias.scope.decl(metadata !220)
  tail call void @llvm.experimental.noalias.scope.decl(metadata !223)
  br i1 %_57.not.i.i.i, label %bb7, label %bb2.i.lr.ph.i.i

bb2.i.lr.ph.i.i:                                  ; preds = %bb14.i.i
  %first_byte.i.i.i = load i8, ptr %_6.sroa.0.0.i, align 1, !alias.scope !225, !noalias !226, !noundef !13
  %80 = getelementptr inbounds nuw i8, ptr %self, i64 40
  %_60.i.i.i = load i64, ptr %80, align 8, !alias.scope !200, !noalias !201
  %81 = getelementptr inbounds nuw i8, ptr %self, i64 48
  %82 = load i64, ptr %81, align 8, !alias.scope !200, !noalias !201
  %.fr58.i = freeze i64 %82
  %83 = xor i64 %.fr58.i, -1
  %_42.i109.i.i = icmp ult i64 %.fr58.i, %_6.sroa.3.0.i
  %84 = add i64 %.fr58.i, -1
  %_23.i.first_iter.i.i = icmp ult i64 %84, %_6.sroa.3.0.i
  %_17.not.i.i.i = icmp eq i64 %.fr58.i, 0
  br label %bb2.i.i.i

bb2.i.i.i:                                        ; preds = %bb1.i.backedge.i.i, %bb2.i.lr.ph.i.i
  %pos.sroa.0.0.i114.i.i = phi i64 [ %pos, %bb2.i.lr.ph.i.i ], [ %pos.sroa.0.0.i.be.i.i, %bb1.i.backedge.i.i ]
  %_12.i.i.i = sub nuw i64 %pos.sroa.0.0.i114.i.i, %_6.sroa.3.0.i
  %_15.i.i.i = icmp ult i64 %_12.i.i.i, %pos
  br i1 %_15.i.i.i, label %bb3.i.i.i, label %panic.i.i.i

bb3.i.i.i:                                        ; preds = %bb2.i.i.i
  %85 = getelementptr inbounds nuw i8, ptr %_10.0, i64 %_12.i.i.i
  %_11.i1.i.i = load i8, ptr %85, align 1, !alias.scope !228, !noalias !229, !noundef !13
  %_62.i.i.i = and i8 %_11.i1.i.i, 63
  %86 = zext nneg i8 %_62.i.i.i to i64
  %_61.i.i.i = shl nuw i64 1, %86
  %_59.i.i.i = and i64 %_61.i.i.i, %_60.i.i.i
  %87 = icmp eq i64 %_59.i.i.i, 0
  br i1 %87, label %bb1.i.backedge.i.i, label %bb4.i.i.i

bb1.i.backedge.i.i:                               ; preds = %bb18.i.i.i, %bb29.i.i.i, %bb3.i.i.i
  %pos.sroa.0.0.i.be.i.i = phi i64 [ %_12.i.i.i, %bb3.i.i.i ], [ %94, %bb18.i.i.i ], [ %93, %bb29.i.i.i ]
  %_9.not.i.i.i = icmp ult i64 %pos.sroa.0.0.i.be.i.i, %_6.sroa.3.0.i
  br i1 %_9.not.i.i.i, label %bb11, label %bb2.i.i.i

panic.i.i.i:                                      ; preds = %bb2.i.i.i
; call core::panicking::panic_bounds_check
  tail call void @_RNvNtCsjMrxcFdYDNN_4core9panicking18panic_bounds_check(i64 noundef %_12.i.i.i, i64 noundef range(i64 16, -9223372036854775808) %pos, ptr noalias noundef readonly align 8 captures(address, read_provenance) dereferenceable(24) @alloc_f40db679c9ea531574e9ba71178cbd49) #14, !noalias !230
  unreachable

bb4.i.i.i:                                        ; preds = %bb3.i.i.i
  %_26.i.i.i = add i64 %_12.i.i.i, -1
  br i1 %_23.i.first_iter.i.i, label %bb6.i.i.us.i, label %bb4.i.i.split.i

bb6.i.i.us.i:                                     ; preds = %bb4.i.i.i, %bb9.i.i.us.i
  %i.sroa.0.0.i.i.us.i = phi i64 [ %_21.i.i.us.i, %bb9.i.i.us.i ], [ %.fr58.i, %bb4.i.i.i ]
  %_17.not.i.i.us.i = icmp eq i64 %i.sroa.0.0.i.i.us.i, 0
  br i1 %_17.not.i.i.us.i, label %bb16.i.i.i, label %bb7.i.i.us.i

bb7.i.i.us.i:                                     ; preds = %bb6.i.i.us.i
  %_25.i.i.us.i = add i64 %_26.i.i.i, %i.sroa.0.0.i.i.us.i
  %_30.i.i.us.i = icmp ult i64 %_25.i.i.us.i, %pos
  br i1 %_30.i.i.us.i, label %bb9.i.i.us.i, label %panic2.i.i.i

bb9.i.i.us.i:                                     ; preds = %bb7.i.i.us.i
  %_21.i.i.us.i = add i64 %i.sroa.0.0.i.i.us.i, -1
  %88 = getelementptr inbounds nuw i8, ptr %_6.sroa.0.0.i, i64 %_21.i.i.us.i
  %_20.i.i.us.i = load i8, ptr %88, align 1, !alias.scope !225, !noalias !226, !noundef !13
  %89 = getelementptr inbounds nuw i8, ptr %_10.0, i64 %_25.i.i.us.i
  %_24.i.i.us.i = load i8, ptr %89, align 1, !alias.scope !228, !noalias !229, !noundef !13
  %_19.i.i.us.i = icmp eq i8 %_20.i.i.us.i, %_24.i.i.us.i
  br i1 %_19.i.i.us.i, label %bb6.i.i.us.i, label %bb18.i.i.i

bb4.i.i.split.i:                                  ; preds = %bb4.i.i.i
  br i1 %_17.not.i.i.i, label %bb16.i.i.i, label %bb7.i.i.i

bb7.i.i.i:                                        ; preds = %bb4.i.i.split.i
; call core::panicking::panic_bounds_check
  tail call void @_RNvNtCsjMrxcFdYDNN_4core9panicking18panic_bounds_check(i64 noundef %84, i64 noundef range(i64 0, -9223372036854775808) %_6.sroa.3.0.i, ptr noalias noundef readonly align 8 captures(address, read_provenance) dereferenceable(24) @alloc_a9d39366bfc08c1825246dcbac4b54fe) #14, !noalias !230
  unreachable

panic2.i.i.i:                                     ; preds = %bb7.i.i.us.i
; call core::panicking::panic_bounds_check
  tail call void @_RNvNtCsjMrxcFdYDNN_4core9panicking18panic_bounds_check(i64 noundef %_25.i.i.us.i, i64 noundef range(i64 16, -9223372036854775808) %pos, ptr noalias noundef readonly align 8 captures(address, read_provenance) dereferenceable(24) @alloc_745cead36147ccd345e2b993acf618ef) #14, !noalias !230
  unreachable

bb16.i.i.i:                                       ; preds = %bb6.i.i.us.i, %bb4.i.i.split.i
  %_33.not.i.i.i = icmp eq i8 %first_byte.i.i.i, %_11.i1.i.i
  br i1 %_33.not.i.i.i, label %bb20.i.preheader.i.i, label %bb18.i.i.i

bb20.i.preheader.i.i:                             ; preds = %bb16.i.i.i
  br i1 %_42.i109.i.i, label %bb22.i.i.i, label %bb27.i.i.i

bb27.i.i.i:                                       ; preds = %bb23.i.i.i, %bb20.i.preheader.i.i
  %j.sroa.0.0.i.lcssa.i.i = phi i64 [ %.fr58.i, %bb20.i.preheader.i.i ], [ %j.sroa.0.0.i110.i.i, %bb23.i.i.i ]
  %_54.i.i.i = icmp eq i64 %j.sroa.0.0.i.lcssa.i.i, %_6.sroa.3.0.i
  br i1 %_54.i.i.i, label %bb5, label %bb29.i.i.i

bb22.i.i.i:                                       ; preds = %bb20.i.preheader.i.i, %bb24.i.i.i
  %j.sroa.0.0.i110.i.i = phi i64 [ %92, %bb24.i.i.i ], [ %.fr58.i, %bb20.i.preheader.i.i ]
  %_49.i.i.i = add nuw i64 %j.sroa.0.0.i110.i.i, %_12.i.i.i
  %_53.i.i.i = icmp ult i64 %_49.i.i.i, %pos
  br i1 %_53.i.i.i, label %bb23.i.i.i, label %panic5.i.i.i

bb23.i.i.i:                                       ; preds = %bb22.i.i.i
  %90 = getelementptr inbounds nuw i8, ptr %_6.sroa.0.0.i, i64 %j.sroa.0.0.i110.i.i
  %_45.i.i.i = load i8, ptr %90, align 1, !alias.scope !225, !noalias !226, !noundef !13
  %91 = getelementptr inbounds nuw i8, ptr %_10.0, i64 %_49.i.i.i
  %_48.i.i.i = load i8, ptr %91, align 1, !alias.scope !228, !noalias !229, !noundef !13
  %_44.i.i.i = icmp eq i8 %_45.i.i.i, %_48.i.i.i
  br i1 %_44.i.i.i, label %bb24.i.i.i, label %bb27.i.i.i

panic5.i.i.i:                                     ; preds = %bb22.i.i.i
; call core::panicking::panic_bounds_check
  tail call void @_RNvNtCsjMrxcFdYDNN_4core9panicking18panic_bounds_check(i64 noundef %_49.i.i.i, i64 noundef range(i64 16, -9223372036854775808) %pos, ptr noalias noundef readonly align 8 captures(address, read_provenance) dereferenceable(24) @alloc_0c1d22b0544e48d06e94e2168d93a958) #14, !noalias !230
  unreachable

bb24.i.i.i:                                       ; preds = %bb23.i.i.i
  %92 = add i64 %j.sroa.0.0.i110.i.i, 1
  %exitcond171.not.i.i = icmp eq i64 %92, %_6.sroa.3.0.i
  br i1 %exitcond171.not.i.i, label %bb5, label %bb22.i.i.i

bb29.i.i.i:                                       ; preds = %bb27.i.i.i
  %93 = sub i64 %pos.sroa.0.0.i114.i.i, %_17.i.i
  br label %bb1.i.backedge.i.i

bb18.i.i.i:                                       ; preds = %bb9.i.i.us.i, %bb16.i.i.i
  %i.sroa.0.0.i.i26.i = phi i64 [ 0, %bb16.i.i.i ], [ %i.sroa.0.0.i.i.us.i, %bb9.i.i.us.i ]
  %_38.neg.i.i.i = add i64 %pos.sroa.0.0.i114.i.i, %83
  %94 = add i64 %_38.neg.i.i.i, %i.sroa.0.0.i.i26.i
  br label %bb1.i.backedge.i.i

bb15.i.i:                                         ; preds = %bb9.i.i
  tail call void @llvm.experimental.noalias.scope.decl(metadata !231)
  tail call void @llvm.experimental.noalias.scope.decl(metadata !234)
  br i1 %_57.not.i.i.i, label %bb7, label %bb2.i8.lr.ph.i.i

bb2.i8.lr.ph.i.i:                                 ; preds = %bb15.i.i
  %first_byte.i5.i.i = load i8, ptr %_6.sroa.0.0.i, align 1, !alias.scope !236, !noalias !237, !noundef !13
  %95 = getelementptr inbounds nuw i8, ptr %self, i64 40
  %_64.i.i.i = load i64, ptr %95, align 8, !alias.scope !200, !noalias !201
  %96 = getelementptr inbounds nuw i8, ptr %self, i64 48
  %_18.i.i.i = load i64, ptr %96, align 8, !alias.scope !200, !noalias !201
  %97 = xor i64 %_18.i.i.i, -1
  %umax.i.i = tail call i64 @llvm.umax.i64(i64 %_18.i.i.i, i64 range(i64 0, -9223372036854775808) %_6.sroa.3.0.i)
  br label %bb2.i8.i.i

bb2.i8.i.i:                                       ; preds = %bb1.i6.backedge.i.i, %bb2.i8.lr.ph.i.i
  %pos.sroa.0.0.i7108.i.i = phi i64 [ %pos, %bb2.i8.lr.ph.i.i ], [ %pos.sroa.0.0.i7.be.i.i, %bb1.i6.backedge.i.i ]
  %shift.sroa.0.0.i107.i.i = phi i64 [ %_6.sroa.3.0.i, %bb2.i8.lr.ph.i.i ], [ %shift.sroa.0.0.i.be.i.i, %bb1.i6.backedge.i.i ]
  %_13.i.i.i = sub nuw i64 %pos.sroa.0.0.i7108.i.i, %_6.sroa.3.0.i
  %_16.i.i.i = icmp ult i64 %_13.i.i.i, %pos
  br i1 %_16.i.i.i, label %bb3.i10.i.i, label %panic.i9.i.i

bb3.i10.i.i:                                      ; preds = %bb2.i8.i.i
  %98 = getelementptr inbounds nuw i8, ptr %_10.0, i64 %_13.i.i.i
  %_12.i11.i.i = load i8, ptr %98, align 1, !alias.scope !239, !noalias !240, !noundef !13
  %_66.i.i.i = and i8 %_12.i11.i.i, 63
  %99 = zext nneg i8 %_66.i.i.i to i64
  %_65.i.i.i = shl nuw i64 1, %99
  %_63.i.i.i = and i64 %_65.i.i.i, %_64.i.i.i
  %100 = icmp eq i64 %_63.i.i.i, 0
  br i1 %100, label %bb1.i6.backedge.i.i, label %bb4.i12.i.i

bb1.i6.backedge.i.i:                              ; preds = %bb18.i24.i.i, %bb29.i35.i.i, %bb3.i10.i.i
  %shift.sroa.0.0.i.be.i.i = phi i64 [ %_6.sroa.3.0.i, %bb3.i10.i.i ], [ %_6.sroa.3.0.i, %bb18.i24.i.i ], [ %_17.i.i, %bb29.i35.i.i ]
  %pos.sroa.0.0.i7.be.i.i = phi i64 [ %_13.i.i.i, %bb3.i10.i.i ], [ %107, %bb18.i24.i.i ], [ %106, %bb29.i35.i.i ]
  %_10.not.i.i.i = icmp ult i64 %pos.sroa.0.0.i7.be.i.i, %_6.sroa.3.0.i
  br i1 %_10.not.i.i.i, label %bb11, label %bb2.i8.i.i

panic.i9.i.i:                                     ; preds = %bb2.i8.i.i
; call core::panicking::panic_bounds_check
  tail call void @_RNvNtCsjMrxcFdYDNN_4core9panicking18panic_bounds_check(i64 noundef %_13.i.i.i, i64 noundef range(i64 16, -9223372036854775808) %pos, ptr noalias noundef readonly align 8 captures(address, read_provenance) dereferenceable(24) @alloc_66ed6519040a684ff2f7c43c58b1bd9d) #14, !noalias !241
  unreachable

bb4.i12.i.i:                                      ; preds = %bb3.i10.i.i
  %_0.sroa.0.0.i49.i.i = tail call noundef i64 @llvm.umin.i64(i64 %shift.sroa.0.0.i107.i.i, i64 %_18.i.i.i)
  %_29.i.i.i = add i64 %_13.i.i.i, -1
  br label %bb6.i13.i.i

bb6.i13.i.i:                                      ; preds = %bb9.i21.i.i, %bb4.i12.i.i
  %i.sroa.0.0.i14.i.i = phi i64 [ %_0.sroa.0.0.i49.i.i, %bb4.i12.i.i ], [ %_24.i16.i.i, %bb9.i21.i.i ]
  %_20.not.i.i.i = icmp eq i64 %i.sroa.0.0.i14.i.i, 0
  br i1 %_20.not.i.i.i, label %bb16.i27.i.i, label %bb7.i15.i.i

bb7.i15.i.i:                                      ; preds = %bb6.i13.i.i
  %_24.i16.i.i = add i64 %i.sroa.0.0.i14.i.i, -1
  %_26.i17.i.i = icmp ult i64 %_24.i16.i.i, %_6.sroa.3.0.i
  br i1 %_26.i17.i.i, label %bb8.i19.i.i, label %panic1.i18.i.i

bb8.i19.i.i:                                      ; preds = %bb7.i15.i.i
  %_28.i.i.i = add i64 %_29.i.i.i, %i.sroa.0.0.i14.i.i
  %_33.i.i.i = icmp ult i64 %_28.i.i.i, %pos
  br i1 %_33.i.i.i, label %bb9.i21.i.i, label %panic2.i20.i.i

panic1.i18.i.i:                                   ; preds = %bb7.i15.i.i
; call core::panicking::panic_bounds_check
  tail call void @_RNvNtCsjMrxcFdYDNN_4core9panicking18panic_bounds_check(i64 noundef %_24.i16.i.i, i64 noundef range(i64 0, -9223372036854775808) %_6.sroa.3.0.i, ptr noalias noundef readonly align 8 captures(address, read_provenance) dereferenceable(24) @alloc_70d204edff943de5d0ddc9eee1ba5133) #14, !noalias !241
  unreachable

bb9.i21.i.i:                                      ; preds = %bb8.i19.i.i
  %101 = getelementptr inbounds nuw i8, ptr %_6.sroa.0.0.i, i64 %_24.i16.i.i
  %_23.i22.i.i = load i8, ptr %101, align 1, !alias.scope !236, !noalias !237, !noundef !13
  %102 = getelementptr inbounds nuw i8, ptr %_10.0, i64 %_28.i.i.i
  %_27.i.i.i = load i8, ptr %102, align 1, !alias.scope !239, !noalias !240, !noundef !13
  %_22.i.i.i = icmp eq i8 %_23.i22.i.i, %_27.i.i.i
  br i1 %_22.i.i.i, label %bb6.i13.i.i, label %bb18.i24.i.i

panic2.i20.i.i:                                   ; preds = %bb8.i19.i.i
; call core::panicking::panic_bounds_check
  tail call void @_RNvNtCsjMrxcFdYDNN_4core9panicking18panic_bounds_check(i64 noundef %_28.i.i.i, i64 noundef range(i64 16, -9223372036854775808) %pos, ptr noalias noundef readonly align 8 captures(address, read_provenance) dereferenceable(24) @alloc_03f13d8f8b9a63452b42800156de8f01) #14, !noalias !241
  unreachable

bb16.i27.i.i:                                     ; preds = %bb6.i13.i.i
  %_36.not.i.i.i = icmp eq i8 %first_byte.i5.i.i, %_12.i11.i.i
  br i1 %_36.not.i.i.i, label %bb20.i29.preheader.i.i, label %bb18.i24.i.i

bb20.i29.preheader.i.i:                           ; preds = %bb16.i27.i.i
  %_45.i31103.i.i = icmp ult i64 %_18.i.i.i, %shift.sroa.0.0.i107.i.i
  br i1 %_45.i31103.i.i, label %bb21.i.i.i, label %bb5

bb21.i.i.i:                                       ; preds = %bb20.i29.preheader.i.i, %bb24.i42.i.i
  %j.sroa.0.0.i30104.i.i = phi i64 [ %105, %bb24.i42.i.i ], [ %_18.i.i.i, %bb20.i29.preheader.i.i ]
  %exitcond.not.i.i = icmp eq i64 %j.sroa.0.0.i30104.i.i, %umax.i.i
  br i1 %exitcond.not.i.i, label %panic4.i.i.i, label %bb22.i36.i.i

bb22.i36.i.i:                                     ; preds = %bb21.i.i.i
  %_53.i37.i.i = add nuw i64 %j.sroa.0.0.i30104.i.i, %_13.i.i.i
  %_57.i.i.i = icmp ult i64 %_53.i37.i.i, %pos
  br i1 %_57.i.i.i, label %bb23.i39.i.i, label %panic5.i38.i.i

panic4.i.i.i:                                     ; preds = %bb21.i.i.i
; call core::panicking::panic_bounds_check
  tail call void @_RNvNtCsjMrxcFdYDNN_4core9panicking18panic_bounds_check(i64 noundef %umax.i.i, i64 noundef range(i64 0, -9223372036854775808) %_6.sroa.3.0.i, ptr noalias noundef readonly align 8 captures(address, read_provenance) dereferenceable(24) @alloc_23ed308e8e53e6564e6ef89347ee13a6) #14, !noalias !241
  unreachable

bb23.i39.i.i:                                     ; preds = %bb22.i36.i.i
  %103 = getelementptr inbounds nuw i8, ptr %_6.sroa.0.0.i, i64 %j.sroa.0.0.i30104.i.i
  %_49.i40.i.i = load i8, ptr %103, align 1, !alias.scope !236, !noalias !237, !noundef !13
  %104 = getelementptr inbounds nuw i8, ptr %_10.0, i64 %_53.i37.i.i
  %_52.i.i.i = load i8, ptr %104, align 1, !alias.scope !239, !noalias !240, !noundef !13
  %_48.i41.i.i = icmp eq i8 %_49.i40.i.i, %_52.i.i.i
  br i1 %_48.i41.i.i, label %bb24.i42.i.i, label %bb29.i35.i.i

panic5.i38.i.i:                                   ; preds = %bb22.i36.i.i
; call core::panicking::panic_bounds_check
  tail call void @_RNvNtCsjMrxcFdYDNN_4core9panicking18panic_bounds_check(i64 noundef %_53.i37.i.i, i64 noundef range(i64 16, -9223372036854775808) %pos, ptr noalias noundef readonly align 8 captures(address, read_provenance) dereferenceable(24) @alloc_2cf1fb064616e5d950228783de522694) #14, !noalias !241
  unreachable

bb24.i42.i.i:                                     ; preds = %bb23.i39.i.i
  %105 = add i64 %j.sroa.0.0.i30104.i.i, 1
  %exitcond169.not.i.i = icmp eq i64 %105, %shift.sroa.0.0.i107.i.i
  br i1 %exitcond169.not.i.i, label %bb5, label %bb21.i.i.i

bb29.i35.i.i:                                     ; preds = %bb23.i39.i.i
  %106 = sub i64 %pos.sroa.0.0.i7108.i.i, %_17.i.i
  br label %bb1.i6.backedge.i.i

bb18.i24.i.i:                                     ; preds = %bb9.i21.i.i, %bb16.i27.i.i
  %_41.neg.i.i.i = add i64 %pos.sroa.0.0.i7108.i.i, %97
  %107 = add i64 %_41.neg.i.i.i, %i.sroa.0.0.i14.i.i
  br label %bb1.i6.backedge.i.i

bb14:                                             ; preds = %bb2
; call core::slice::index::slice_index_fail
  tail call void @_RNvNtNtCsjMrxcFdYDNN_4core5slice5index16slice_index_fail(i64 noundef 0, i64 noundef %pos, i64 noundef %_10.1, ptr noalias noundef readonly align 8 captures(address, read_provenance) dereferenceable(24) @alloc_e83e48896f06dca6071367735efea3d7) #14
  unreachable

bb5:                                              ; preds = %bb20.i29.preheader.i.i, %bb24.i42.i.i, %bb27.i.i.i, %bb24.i.i.i, %bb11.sink.split.i.i
  %_0.sroa.7.0.i.i.ph = phi i64 [ %.sink.i.i, %bb11.sink.split.i.i ], [ %_12.i.i.i, %bb24.i.i.i ], [ %_12.i.i.i, %bb27.i.i.i ], [ %_13.i.i.i, %bb24.i42.i.i ], [ %_13.i.i.i, %bb20.i29.preheader.i.i ]
  %_8 = icmp eq i64 %pos, %_0.sroa.7.0.i.i.ph
  br i1 %_8, label %bb7, label %bb11.sink.split

bb7:                                              ; preds = %bb2.i.i, %bb14.i.i, %bb15.i.i, %bb5
  %_19 = icmp ne i64 %pos, 0
  %_20 = add i64 %pos, -1
  %_9.sroa.0.0 = zext i1 %_19 to i64
  br label %bb11.sink.split
}

; <&str as core::fmt::Debug>::fmt
; Function Attrs: uwtable
define internal noundef zeroext i1 @_RNvXs1g_NtCsjMrxcFdYDNN_4core3fmtReNtB6_5Debug3fmtCsl5bjp7iZrWZ_6memchr(ptr noalias noundef readonly align 8 captures(none) dereferenceable(16) %self, ptr noalias noundef align 8 dereferenceable(24) %f) unnamed_addr #0 {
start:
  %_3.0 = load ptr, ptr %self, align 8, !nonnull !13, !align !186, !noundef !13
  %0 = getelementptr inbounds nuw i8, ptr %self, i64 8
  %_3.1 = load i64, ptr %0, align 8, !noundef !13
; call <str as core::fmt::Debug>::fmt
  %_0 = tail call noundef zeroext i1 @_RNvXsh_NtCsjMrxcFdYDNN_4core3fmteNtB5_5Debug3fmt(ptr noalias noundef nonnull readonly align 1 captures(address, read_provenance) %_3.0, i64 noundef %_3.1, ptr noalias noundef nonnull align 8 dereferenceable(24) %f)
  ret i1 %_0
}

; <&u32 as core::fmt::Debug>::fmt
; Function Attrs: uwtable
define internal noundef zeroext i1 @_RNvXs1g_NtCsjMrxcFdYDNN_4core3fmtRmNtB6_5Debug3fmtCsl5bjp7iZrWZ_6memchr(ptr noalias noundef readonly align 8 captures(none) dereferenceable(8) %self, ptr noalias noundef align 8 dereferenceable(24) %f) unnamed_addr #0 {
start:
  %_3 = load ptr, ptr %self, align 8, !nonnull !13, !align !242, !noundef !13
  %0 = getelementptr inbounds nuw i8, ptr %f, i64 16
  %_4.i = load i32, ptr %0, align 8, !alias.scope !243, !noalias !246, !noundef !13
  %_3.i = and i32 %_4.i, 33554432
  %1 = icmp eq i32 %_3.i, 0
  br i1 %1, label %bb2.i, label %bb1.i

bb2.i:                                            ; preds = %start
  %_5.i = and i32 %_4.i, 67108864
  %2 = icmp eq i32 %_5.i, 0
  br i1 %2, label %bb4.i, label %bb3.i

bb1.i:                                            ; preds = %start
; call <u32 as core::fmt::LowerHex>::fmt
  %3 = tail call noundef zeroext i1 @_RNvXsu_NtNtCsjMrxcFdYDNN_4core3fmt3nummNtB7_8LowerHex3fmt(ptr noalias noundef nonnull readonly align 4 captures(address, read_provenance) dereferenceable(4) %_3, ptr noalias noundef nonnull align 8 dereferenceable(24) %f)
  br label %_RNvXsW_NtNtCsjMrxcFdYDNN_4core3fmt3nummNtB7_5Debug3fmt.exit

bb4.i:                                            ; preds = %bb2.i
; call <u32 as core::fmt::Display>::fmt
  %4 = tail call noundef zeroext i1 @_RNvXs8_NtNtNtCsjMrxcFdYDNN_4core3fmt3num3impmNtB9_7Display3fmt(ptr noalias noundef nonnull readonly align 4 captures(address, read_provenance) dereferenceable(4) %_3, ptr noalias noundef nonnull align 8 dereferenceable(24) %f)
  br label %_RNvXsW_NtNtCsjMrxcFdYDNN_4core3fmt3nummNtB7_5Debug3fmt.exit

bb3.i:                                            ; preds = %bb2.i
; call <u32 as core::fmt::UpperHex>::fmt
  %5 = tail call noundef zeroext i1 @_RNvXsw_NtNtCsjMrxcFdYDNN_4core3fmt3nummNtB7_8UpperHex3fmt(ptr noalias noundef nonnull readonly align 4 captures(address, read_provenance) dereferenceable(4) %_3, ptr noalias noundef nonnull align 8 dereferenceable(24) %f)
  br label %_RNvXsW_NtNtCsjMrxcFdYDNN_4core3fmt3nummNtB7_5Debug3fmt.exit

_RNvXsW_NtNtCsjMrxcFdYDNN_4core3fmt3nummNtB7_5Debug3fmt.exit: ; preds = %bb1.i, %bb4.i, %bb3.i
  %_0.sroa.0.0.in.i = phi i1 [ %4, %bb4.i ], [ %5, %bb3.i ], [ %3, %bb1.i ]
  ret i1 %_0.sroa.0.0.in.i
}

; <memchr::arch::all::rabinkarp::Finder as core::fmt::Debug>::fmt
; Function Attrs: inlinehint uwtable
define internal noundef zeroext i1 @_RNvXs2_NtNtNtCsl5bjp7iZrWZ_6memchr4arch3all9rabinkarpNtB5_6FinderNtNtCsjMrxcFdYDNN_4core3fmt5Debug3fmt(ptr noalias noundef readonly align 4 captures(address, read_provenance) dereferenceable(8) %self, ptr noalias noundef align 8 dereferenceable(24) %f) unnamed_addr #4 {
start:
  %_7 = alloca [8 x i8], align 8
  call void @llvm.lifetime.start.p0(i64 8, ptr nonnull %_7)
  %0 = getelementptr inbounds nuw i8, ptr %self, i64 4
  store ptr %0, ptr %_7, align 8
; call <core::fmt::Formatter>::debug_struct_field2_finish
  %_0 = call noundef zeroext i1 @_RNvMsa_NtCsjMrxcFdYDNN_4core3fmtNtB5_9Formatter26debug_struct_field2_finish(ptr noalias noundef nonnull align 8 dereferenceable(24) %f, ptr noalias noundef nonnull readonly align 1 captures(address, read_provenance) @alloc_5f2e93710195efd386fdccc9eb0e6708, i64 noundef 6, ptr noalias noundef nonnull readonly align 1 captures(address, read_provenance) @alloc_eedb37f55fc0c5b4506ddcc7c0df9d7b, i64 noundef 4, ptr noundef nonnull align 1 %self, ptr noalias noundef readonly align 8 captures(address, read_provenance) dereferenceable(32) @vtable.0, ptr noalias noundef nonnull readonly align 1 captures(address, read_provenance) @alloc_4fcab055ecf5ff2e4984e33ddd088f96, i64 noundef 9, ptr noundef nonnull align 1 %_7, ptr noalias noundef readonly align 8 captures(address, read_provenance) dereferenceable(32) @vtable.1)
  call void @llvm.lifetime.end.p0(i64 8, ptr nonnull %_7)
  ret i1 %_0
}

; <memchr::memmem::searcher::Prefilter as core::fmt::Debug>::fmt
; Function Attrs: uwtable
define noundef zeroext i1 @_RNvXs4_NtNtCsl5bjp7iZrWZ_6memchr6memmem8searcherNtB5_9PrefilterNtNtCsjMrxcFdYDNN_4core3fmt5Debug3fmt(ptr noalias noundef readonly align 16 captures(address, read_provenance) dereferenceable(64) %self, ptr noalias noundef align 8 dereferenceable(24) %f) unnamed_addr #0 {
start:
  %_8 = alloca [16 x i8], align 8
  call void @llvm.lifetime.start.p0(i64 16, ptr nonnull %_8)
; call <core::fmt::Formatter>::debug_struct
  call void @_RNvMsa_NtCsjMrxcFdYDNN_4core3fmtNtB5_9Formatter12debug_struct(ptr noalias noundef nonnull sret([16 x i8]) align 8 captures(address) dereferenceable(16) %_8, ptr noalias noundef nonnull align 8 dereferenceable(24) %f, ptr noalias noundef nonnull readonly align 1 captures(address, read_provenance) @alloc_cb24f47da9df00df17ed7f2bbe7efef6, i64 noundef 9)
; call <core::fmt::builders::DebugStruct>::field
  %_6 = call noundef nonnull align 8 ptr @_RNvMs1_NtNtCsjMrxcFdYDNN_4core3fmt8buildersNtB5_11DebugStruct5field(ptr noalias noundef nonnull align 8 dereferenceable(16) %_8, ptr noalias noundef nonnull readonly align 1 captures(address, read_provenance) @alloc_2c7d0cbb448b8851a0597c03f52dd5e4, i64 noundef 4, ptr noundef nonnull align 1 @alloc_98b3f12a81f53063e5900bf49967695d, ptr noalias noundef readonly align 8 captures(address, read_provenance) dereferenceable(32) @vtable.2)
; call <core::fmt::builders::DebugStruct>::field
  %_5 = call noundef nonnull align 8 ptr @_RNvMs1_NtNtCsjMrxcFdYDNN_4core3fmt8buildersNtB5_11DebugStruct5field(ptr noalias noundef nonnull align 8 dereferenceable(16) %_6, ptr noalias noundef nonnull readonly align 1 captures(address, read_provenance) @alloc_a5d866b1768ad3f826bccdb004a1a8ae, i64 noundef 4, ptr noundef nonnull align 1 @alloc_76abb55ccd0e21f51fbc1aff1993f8b7, ptr noalias noundef readonly align 8 captures(address, read_provenance) dereferenceable(32) @vtable.2)
  %_12 = getelementptr inbounds nuw i8, ptr %self, i64 56
; call <core::fmt::builders::DebugStruct>::field
  %_4 = call noundef nonnull align 8 ptr @_RNvMs1_NtNtCsjMrxcFdYDNN_4core3fmt8buildersNtB5_11DebugStruct5field(ptr noalias noundef nonnull align 8 dereferenceable(16) %_5, ptr noalias noundef nonnull readonly align 1 captures(address, read_provenance) @alloc_a28ebce1a916847972beffc6284c1b92, i64 noundef 11, ptr noundef nonnull align 1 %_12, ptr noalias noundef readonly align 8 captures(address, read_provenance) dereferenceable(32) @vtable.3)
  %_14 = getelementptr inbounds nuw i8, ptr %self, i64 57
; call <core::fmt::builders::DebugStruct>::field
  %_3 = call noundef nonnull align 8 ptr @_RNvMs1_NtNtCsjMrxcFdYDNN_4core3fmt8buildersNtB5_11DebugStruct5field(ptr noalias noundef nonnull align 8 dereferenceable(16) %_4, ptr noalias noundef nonnull readonly align 1 captures(address, read_provenance) @alloc_30fe4c0c8426076a5780edf4683c9503, i64 noundef 13, ptr noundef nonnull align 1 %_14, ptr noalias noundef readonly align 8 captures(address, read_provenance) dereferenceable(32) @vtable.3)
; call <core::fmt::builders::DebugStruct>::finish
  %_0 = call noundef zeroext i1 @_RNvMs1_NtNtCsjMrxcFdYDNN_4core3fmt8buildersNtB5_11DebugStruct6finish(ptr noalias noundef nonnull align 8 dereferenceable(16) %_3)
  call void @llvm.lifetime.end.p0(i64 16, ptr nonnull %_8)
  ret i1 %_0
}

; <memchr::arch::all::rabinkarp::Hash as core::fmt::Debug>::fmt
; Function Attrs: inlinehint uwtable
define internal noundef zeroext i1 @_RNvXs8_NtNtNtCsl5bjp7iZrWZ_6memchr4arch3all9rabinkarpNtB5_4HashNtNtCsjMrxcFdYDNN_4core3fmt5Debug3fmt(ptr noalias noundef readonly align 4 captures(address, read_provenance) dereferenceable(4) %self, ptr noalias noundef align 8 dereferenceable(24) %f) unnamed_addr #4 {
start:
  %_5 = alloca [8 x i8], align 8
  call void @llvm.lifetime.start.p0(i64 8, ptr nonnull %_5)
  store ptr %self, ptr %_5, align 8
; call <core::fmt::Formatter>::debug_tuple_field1_finish
  %_0 = call noundef zeroext i1 @_RNvMsa_NtCsjMrxcFdYDNN_4core3fmtNtB5_9Formatter25debug_tuple_field1_finish(ptr noalias noundef nonnull align 8 dereferenceable(24) %f, ptr noalias noundef nonnull readonly align 1 captures(address, read_provenance) @alloc_e3275806614af7f67279108bf596bd4f, i64 noundef 4, ptr noundef nonnull align 1 %_5, ptr noalias noundef readonly align 8 captures(address, read_provenance) dereferenceable(32) @vtable.1)
  call void @llvm.lifetime.end.p0(i64 8, ptr nonnull %_5)
  ret i1 %_0
}

; <u8 as core::fmt::Debug>::fmt
; Function Attrs: inlinehint uwtable
define internal noundef zeroext i1 @_RNvXsU_NtNtCsjMrxcFdYDNN_4core3fmt3numhNtB7_5Debug3fmt(ptr noalias noundef readonly align 1 captures(address, read_provenance) dereferenceable(1) %self, ptr noalias noundef align 8 dereferenceable(24) %f) unnamed_addr #4 {
start:
  %0 = getelementptr inbounds nuw i8, ptr %f, i64 16
  %_4 = load i32, ptr %0, align 8, !noundef !13
  %_3 = and i32 %_4, 33554432
  %1 = icmp eq i32 %_3, 0
  br i1 %1, label %bb2, label %bb1

bb2:                                              ; preds = %start
  %_5 = and i32 %_4, 67108864
  %2 = icmp eq i32 %_5, 0
  br i1 %2, label %bb4, label %bb3

bb1:                                              ; preds = %start
; call <u8 as core::fmt::LowerHex>::fmt
  %3 = tail call noundef zeroext i1 @_RNvXse_NtNtCsjMrxcFdYDNN_4core3fmt3numhNtB7_8LowerHex3fmt(ptr noalias noundef nonnull readonly align 1 captures(address, read_provenance) dereferenceable(1) %self, ptr noalias noundef nonnull align 8 dereferenceable(24) %f)
  br label %bb6

bb4:                                              ; preds = %bb2
; call <u8 as core::fmt::Display>::fmt
  %4 = tail call noundef zeroext i1 @_RNvXNtNtNtCsjMrxcFdYDNN_4core3fmt3num3imphNtB6_7Display3fmt(ptr noalias noundef nonnull readonly align 1 captures(address, read_provenance) dereferenceable(1) %self, ptr noalias noundef nonnull align 8 dereferenceable(24) %f)
  br label %bb6

bb3:                                              ; preds = %bb2
; call <u8 as core::fmt::UpperHex>::fmt
  %5 = tail call noundef zeroext i1 @_RNvXsg_NtNtCsjMrxcFdYDNN_4core3fmt3numhNtB7_8UpperHex3fmt(ptr noalias noundef nonnull readonly align 1 captures(address, read_provenance) dereferenceable(1) %self, ptr noalias noundef nonnull align 8 dereferenceable(24) %f)
  br label %bb6

bb6:                                              ; preds = %bb4, %bb3, %bb1
  %_0.sroa.0.0.in = phi i1 [ %4, %bb4 ], [ %5, %bb3 ], [ %3, %bb1 ]
  ret i1 %_0.sroa.0.0.in
}

; <memchr::memmem::FindIter as core::iter::traits::iterator::Iterator>::next
; Function Attrs: uwtable
define { i64, i64 } @_RNvXs_NtCsl5bjp7iZrWZ_6memchr6memmemNtB4_8FindIterNtNtNtNtCsjMrxcFdYDNN_4core4iter6traits8iterator8Iterator4next(ptr noalias noundef align 16 dereferenceable(176) %self) unnamed_addr #0 personality ptr @rust_eh_personality {
start:
  %0 = getelementptr inbounds nuw i8, ptr %self, i64 16
  %needle.sroa.0.0.in = getelementptr inbounds nuw i8, ptr %self, i64 136
  %needle.sroa.0.0 = load ptr, ptr %needle.sroa.0.0.in, align 8, !nonnull !13, !noundef !13
  %needle.sroa.4.0.in = getelementptr inbounds nuw i8, ptr %self, i64 144
  %needle.sroa.4.0 = load i64, ptr %needle.sroa.4.0.in, align 16, !noundef !13
  %_17.0 = load ptr, ptr %self, align 16, !nonnull !13, !align !186, !noundef !13
  %1 = getelementptr inbounds nuw i8, ptr %self, i64 8
  %_17.1 = load i64, ptr %1, align 8, !noundef !13
  %2 = getelementptr inbounds nuw i8, ptr %self, i64 168
  %_5 = load i64, ptr %2, align 8, !noundef !13
  %_26 = icmp ult i64 %_17.1, %_5
  br i1 %_26, label %bb4, label %bb11

bb11:                                             ; preds = %start
  %_27 = sub nuw i64 %_17.1, %_5
  %_31 = icmp ult i64 %_27, %needle.sroa.4.0
  br i1 %_31, label %bb4, label %bb13

bb13:                                             ; preds = %bb11
  %_10 = getelementptr inbounds nuw i8, ptr %self, i64 160
  %_29 = getelementptr inbounds nuw i8, ptr %_17.0, i64 %_5
  %3 = getelementptr inbounds nuw i8, ptr %self, i64 120
  %_34 = load ptr, ptr %3, align 8, !nonnull !13, !noundef !13
  %4 = tail call { i64, i64 } %_34(ptr noalias noundef nonnull readonly align 16 captures(address, read_provenance) dereferenceable(112) %0, ptr noalias noundef nonnull align 4 dereferenceable(8) %_10, ptr noalias noundef nonnull readonly align 1 captures(address, read_provenance) %_29, i64 noundef %_27, ptr noalias noundef nonnull readonly align 1 captures(address, read_provenance) %needle.sroa.0.0, i64 noundef %needle.sroa.4.0)
  %5 = extractvalue { i64, i64 } %4, 0
  %6 = trunc nuw i64 %5 to i1
  br i1 %6, label %bb16, label %bb4

bb16:                                             ; preds = %bb13
  %7 = extractvalue { i64, i64 } %4, 1
  %_14 = load i64, ptr %2, align 8, !noundef !13
  %pos = add i64 %_14, %7
  %_0.sroa.0.0.i = tail call noundef i64 @llvm.umax.i64(i64 %needle.sroa.4.0, i64 1)
  %8 = add i64 %pos, %_0.sroa.0.0.i
  store i64 %8, ptr %2, align 8
  br label %bb4

bb4:                                              ; preds = %bb13, %bb11, %start, %bb16
  %_0.sroa.4.0 = phi i64 [ %pos, %bb16 ], [ undef, %start ], [ undef, %bb11 ], [ undef, %bb13 ]
  %_0.sroa.0.0 = phi i64 [ 1, %bb16 ], [ 0, %start ], [ 0, %bb11 ], [ 0, %bb13 ]
  %9 = insertvalue { i64, i64 } poison, i64 %_0.sroa.0.0, 0
  %10 = insertvalue { i64, i64 } %9, i64 %_0.sroa.4.0, 1
  ret { i64, i64 } %10
}

; <memchr::memmem::searcher::Searcher as core::fmt::Debug>::fmt
; Function Attrs: uwtable
define noundef zeroext i1 @_RNvXs_NtNtCsl5bjp7iZrWZ_6memchr6memmem8searcherNtB4_8SearcherNtNtCsjMrxcFdYDNN_4core3fmt5Debug3fmt(ptr noalias noundef readonly align 16 captures(address, read_provenance) dereferenceable(112) %self, ptr noalias noundef align 8 dereferenceable(24) %f) unnamed_addr #0 {
start:
  %_7 = alloca [16 x i8], align 8
  call void @llvm.lifetime.start.p0(i64 16, ptr nonnull %_7)
; call <core::fmt::Formatter>::debug_struct
  call void @_RNvMsa_NtCsjMrxcFdYDNN_4core3fmtNtB5_9Formatter12debug_struct(ptr noalias noundef nonnull sret([16 x i8]) align 8 captures(address) dereferenceable(16) %_7, ptr noalias noundef nonnull align 8 dereferenceable(24) %f, ptr noalias noundef nonnull readonly align 1 captures(address, read_provenance) @alloc_1e6e395afbe80a1c26544df7f8c1e058, i64 noundef 8)
; call <core::fmt::builders::DebugStruct>::field
  %_5 = call noundef nonnull align 8 ptr @_RNvMs1_NtNtCsjMrxcFdYDNN_4core3fmt8buildersNtB5_11DebugStruct5field(ptr noalias noundef nonnull align 8 dereferenceable(16) %_7, ptr noalias noundef nonnull readonly align 1 captures(address, read_provenance) @alloc_2c7d0cbb448b8851a0597c03f52dd5e4, i64 noundef 4, ptr noundef nonnull align 1 @alloc_a16a4bca73b8ee845fbb11ed275569ed, ptr noalias noundef readonly align 8 captures(address, read_provenance) dereferenceable(32) @vtable.2)
; call <core::fmt::builders::DebugStruct>::field
  %_4 = call noundef nonnull align 8 ptr @_RNvMs1_NtNtCsjMrxcFdYDNN_4core3fmt8buildersNtB5_11DebugStruct5field(ptr noalias noundef nonnull align 8 dereferenceable(16) %_5, ptr noalias noundef nonnull readonly align 1 captures(address, read_provenance) @alloc_a5d866b1768ad3f826bccdb004a1a8ae, i64 noundef 4, ptr noundef nonnull align 1 @alloc_353f233b89dbe3287f13329bacb54138, ptr noalias noundef readonly align 8 captures(address, read_provenance) dereferenceable(32) @vtable.2)
  %_11 = getelementptr inbounds nuw i8, ptr %self, i64 96
; call <core::fmt::builders::DebugStruct>::field
  %_3 = call noundef nonnull align 8 ptr @_RNvMs1_NtNtCsjMrxcFdYDNN_4core3fmt8buildersNtB5_11DebugStruct5field(ptr noalias noundef nonnull align 8 dereferenceable(16) %_4, ptr noalias noundef nonnull readonly align 1 captures(address, read_provenance) @alloc_031f5dae0c558da3f5cf8343387c5022, i64 noundef 9, ptr noundef nonnull align 1 %_11, ptr noalias noundef readonly align 8 captures(address, read_provenance) dereferenceable(32) @vtable.4)
; call <core::fmt::builders::DebugStruct>::finish
  %_0 = call noundef zeroext i1 @_RNvMs1_NtNtCsjMrxcFdYDNN_4core3fmt8buildersNtB5_11DebugStruct6finish(ptr noalias noundef nonnull align 8 dereferenceable(16) %_3)
  call void @llvm.lifetime.end.p0(i64 16, ptr nonnull %_7)
  ret i1 %_0
}

; Function Attrs: nounwind uwtable
declare noundef range(i32 0, 10) i32 @rust_eh_personality(i32 noundef, i32 noundef, i64 noundef, ptr noundef, ptr noundef) unnamed_addr #5

; Function Attrs: mustprogress nocallback nofree nosync nounwind willreturn memory(argmem: readwrite)
declare void @llvm.lifetime.start.p0(i64 immarg, ptr captures(none)) #6

; Function Attrs: mustprogress nocallback nofree nosync nounwind willreturn memory(argmem: readwrite)
declare void @llvm.lifetime.end.p0(i64 immarg, ptr captures(none)) #6

; Function Attrs: mustprogress nocallback nofree nosync nounwind willreturn memory(inaccessiblemem: write)
declare void @llvm.assume(i1 noundef) #7

; core::panicking::panic_fmt
; Function Attrs: cold noinline noreturn uwtable
declare void @_RNvNtCsjMrxcFdYDNN_4core9panicking9panic_fmt(ptr noundef nonnull, ptr noundef nonnull, ptr noalias noundef readonly align 8 captures(address, read_provenance) dereferenceable(24)) unnamed_addr #8

; core::slice::index::slice_index_fail
; Function Attrs: cold noinline noreturn uwtable
declare void @_RNvNtNtCsjMrxcFdYDNN_4core5slice5index16slice_index_fail(i64 noundef, i64 noundef, i64 noundef, ptr noalias noundef readonly align 8 captures(address, read_provenance) dereferenceable(24)) unnamed_addr #8

; core::panicking::panic_bounds_check
; Function Attrs: cold minsize noinline noreturn optsize uwtable
declare void @_RNvNtCsjMrxcFdYDNN_4core9panicking18panic_bounds_check(i64 noundef, i64 noundef, ptr noalias noundef readonly align 8 captures(address, read_provenance) dereferenceable(24)) unnamed_addr #9

; Function Attrs: mustprogress nocallback nofree nosync nounwind speculatable willreturn memory(none)
declare i32 @llvm.uadd.sat.i32(i32, i32) #10

; Function Attrs: mustprogress nocallback nofree nosync nounwind speculatable willreturn memory(none)
declare i64 @llvm.usub.sat.i64(i64, i64) #10

; Function Attrs: mustprogress nocallback nofree nosync nounwind willreturn memory(none)
declare <16 x i8> @llvm.aarch64.neon.umaxp.v16i8(<16 x i8>, <16 x i8>) unnamed_addr #11

; Function Attrs: mustprogress nocallback nofree nosync nounwind speculatable willreturn memory(none)
declare i64 @llvm.ctlz.i64(i64, i1 immarg) #10

; Function Attrs: mustprogress nocallback nofree nosync nounwind speculatable willreturn memory(none)
declare i64 @llvm.cttz.i64(i64, i1 immarg) #10

; <str as core::fmt::Debug>::fmt
; Function Attrs: uwtable
declare noundef zeroext i1 @_RNvXsh_NtCsjMrxcFdYDNN_4core3fmteNtB5_5Debug3fmt(ptr noalias noundef nonnull readonly align 1 captures(address, read_provenance), i64 noundef, ptr noalias noundef align 8 dereferenceable(24)) unnamed_addr #0

; <core::fmt::Formatter>::debug_struct_field2_finish
; Function Attrs: uwtable
declare noundef zeroext i1 @_RNvMsa_NtCsjMrxcFdYDNN_4core3fmtNtB5_9Formatter26debug_struct_field2_finish(ptr noalias noundef align 8 dereferenceable(24), ptr noalias noundef nonnull readonly align 1 captures(address, read_provenance), i64 noundef, ptr noalias noundef nonnull readonly align 1 captures(address, read_provenance), i64 noundef, ptr noundef nonnull align 1, ptr noalias noundef readonly align 8 captures(address, read_provenance) dereferenceable(32), ptr noalias noundef nonnull readonly align 1 captures(address, read_provenance), i64 noundef, ptr noundef nonnull align 1, ptr noalias noundef readonly align 8 captures(address, read_provenance) dereferenceable(32)) unnamed_addr #0

; <core::fmt::Formatter>::debug_struct
; Function Attrs: uwtable
declare void @_RNvMsa_NtCsjMrxcFdYDNN_4core3fmtNtB5_9Formatter12debug_struct(ptr dead_on_unwind noalias noundef writable sret([16 x i8]) align 8 captures(address) dereferenceable(16), ptr noalias noundef align 8 dereferenceable(24), ptr noalias noundef nonnull readonly align 1 captures(address, read_provenance), i64 noundef) unnamed_addr #0

; <core::fmt::builders::DebugStruct>::field
; Function Attrs: uwtable
declare noundef nonnull align 8 ptr @_RNvMs1_NtNtCsjMrxcFdYDNN_4core3fmt8buildersNtB5_11DebugStruct5field(ptr noalias noundef align 8 dereferenceable(16), ptr noalias noundef nonnull readonly align 1 captures(address, read_provenance), i64 noundef, ptr noundef nonnull align 1, ptr noalias noundef readonly align 8 captures(address, read_provenance) dereferenceable(32)) unnamed_addr #0

; <core::fmt::builders::DebugStruct>::finish
; Function Attrs: uwtable
declare noundef zeroext i1 @_RNvMs1_NtNtCsjMrxcFdYDNN_4core3fmt8buildersNtB5_11DebugStruct6finish(ptr noalias noundef align 8 dereferenceable(16)) unnamed_addr #0

; <core::fmt::Formatter>::debug_tuple_field1_finish
; Function Attrs: uwtable
declare noundef zeroext i1 @_RNvMsa_NtCsjMrxcFdYDNN_4core3fmtNtB5_9Formatter25debug_tuple_field1_finish(ptr noalias noundef align 8 dereferenceable(24), ptr noalias noundef nonnull readonly align 1 captures(address, read_provenance), i64 noundef, ptr noundef nonnull align 1, ptr noalias noundef readonly align 8 captures(address, read_provenance) dereferenceable(32)) unnamed_addr #0

; <u8 as core::fmt::Display>::fmt
; Function Attrs: uwtable
declare noundef zeroext i1 @_RNvXNtNtNtCsjMrxcFdYDNN_4core3fmt3num3imphNtB6_7Display3fmt(ptr noalias noundef readonly align 1 captures(address, read_provenance) dereferenceable(1), ptr noalias noundef align 8 dereferenceable(24)) unnamed_addr #0

; <u8 as core::fmt::UpperHex>::fmt
; Function Attrs: uwtable
declare noundef zeroext i1 @_RNvXsg_NtNtCsjMrxcFdYDNN_4core3fmt3numhNtB7_8UpperHex3fmt(ptr noalias noundef readonly align 1 captures(address, read_provenance) dereferenceable(1), ptr noalias noundef align 8 dereferenceable(24)) unnamed_addr #0

; <u8 as core::fmt::LowerHex>::fmt
; Function Attrs: uwtable
declare noundef zeroext i1 @_RNvXse_NtNtCsjMrxcFdYDNN_4core3fmt3numhNtB7_8LowerHex3fmt(ptr noalias noundef readonly align 1 captures(address, read_provenance) dereferenceable(1), ptr noalias noundef align 8 dereferenceable(24)) unnamed_addr #0

; <u32 as core::fmt::Display>::fmt
; Function Attrs: uwtable
declare noundef zeroext i1 @_RNvXs8_NtNtNtCsjMrxcFdYDNN_4core3fmt3num3impmNtB9_7Display3fmt(ptr noalias noundef readonly align 4 captures(address, read_provenance) dereferenceable(4), ptr noalias noundef align 8 dereferenceable(24)) unnamed_addr #0

; <u32 as core::fmt::UpperHex>::fmt
; Function Attrs: uwtable
declare noundef zeroext i1 @_RNvXsw_NtNtCsjMrxcFdYDNN_4core3fmt3nummNtB7_8UpperHex3fmt(ptr noalias noundef readonly align 4 captures(address, read_provenance) dereferenceable(4), ptr noalias noundef align 8 dereferenceable(24)) unnamed_addr #0

; <u32 as core::fmt::LowerHex>::fmt
; Function Attrs: uwtable
declare noundef zeroext i1 @_RNvXsu_NtNtCsjMrxcFdYDNN_4core3fmt3nummNtB7_8LowerHex3fmt(ptr noalias noundef readonly align 4 captures(address, read_provenance) dereferenceable(4), ptr noalias noundef align 8 dereferenceable(24)) unnamed_addr #0

; Function Attrs: nocallback nofree nosync nounwind willreturn memory(inaccessiblemem: readwrite)
declare void @llvm.experimental.noalias.scope.decl(metadata) #12

; Function Attrs: nocallback nofree nosync nounwind speculatable willreturn memory(none)
declare i64 @llvm.umax.i64(i64, i64) #13

; Function Attrs: nocallback nofree nosync nounwind speculatable willreturn memory(none)
declare i64 @llvm.umin.i64(i64, i64) #13

attributes #0 = { uwtable "frame-pointer"="non-leaf" "probe-stack"="inline-asm" "target-cpu"="apple-m1" }
attributes #1 = { nofree norecurse nosync nounwind memory(argmem: read, inaccessiblemem: readwrite) uwtable "frame-pointer"="non-leaf" "probe-stack"="inline-asm" "target-cpu"="apple-m1" }
attributes #2 = { nofree norecurse nosync nounwind memory(argmem: read, inaccessiblemem: write) uwtable "frame-pointer"="non-leaf" "probe-stack"="inline-asm" "target-cpu"="apple-m1" }
attributes #3 = { cold nofree noinline norecurse nosync nounwind memory(argmem: read) uwtable "frame-pointer"="non-leaf" "probe-stack"="inline-asm" "target-cpu"="apple-m1" }
attributes #4 = { inlinehint uwtable "frame-pointer"="non-leaf" "probe-stack"="inline-asm" "target-cpu"="apple-m1" }
attributes #5 = { nounwind uwtable "frame-pointer"="non-leaf" "probe-stack"="inline-asm" "target-cpu"="apple-m1" }
attributes #6 = { mustprogress nocallback nofree nosync nounwind willreturn memory(argmem: readwrite) }
attributes #7 = { mustprogress nocallback nofree nosync nounwind willreturn memory(inaccessiblemem: write) }
attributes #8 = { cold noinline noreturn uwtable "frame-pointer"="non-leaf" "probe-stack"="inline-asm" "target-cpu"="apple-m1" }
attributes #9 = { cold minsize noinline noreturn optsize uwtable "frame-pointer"="non-leaf" "probe-stack"="inline-asm" "target-cpu"="apple-m1" }
attributes #10 = { mustprogress nocallback nofree nosync nounwind speculatable willreturn memory(none) }
attributes #11 = { mustprogress nocallback nofree nosync nounwind willreturn memory(none) }
attributes #12 = { nocallback nofree nosync nounwind willreturn memory(inaccessiblemem: readwrite) }
attributes #13 = { nocallback nofree nosync nounwind speculatable willreturn memory(none) }
attributes #14 = { noinline noreturn }
attributes #15 = { noinline }

!llvm.module.flags = !{!0}
!llvm.ident = !{!1}

!0 = !{i32 8, !"PIC Level", i32 2}
!1 = !{!"rustc version 1.95.0-nightly (39052daf9 2026-01-22)"}
!2 = !{!"branch_weights", !"expected", i32 1, i32 2000}
!3 = !{!4, !6}
!4 = distinct !{!4, !5, !"_RNvMNtCsjMrxcFdYDNN_4core5sliceSh8split_atCsl5bjp7iZrWZ_6memchr: %pair"}
!5 = distinct !{!5, !"_RNvMNtCsjMrxcFdYDNN_4core5sliceSh8split_atCsl5bjp7iZrWZ_6memchr"}
!6 = distinct !{!6, !5, !"_RNvMNtCsjMrxcFdYDNN_4core5sliceSh8split_atCsl5bjp7iZrWZ_6memchr: %self.0"}
!7 = !{!"branch_weights", i32 4001, i32 4000000}
!8 = !{!9}
!9 = distinct !{!9, !10, !"_RNvNtNtCsl5bjp7iZrWZ_6memchr4arch3all9is_suffix: %haystack.0"}
!10 = distinct !{!10, !"_RNvNtNtCsl5bjp7iZrWZ_6memchr4arch3all9is_suffix"}
!11 = !{!12}
!12 = distinct !{!12, !10, !"_RNvNtNtCsl5bjp7iZrWZ_6memchr4arch3all9is_suffix: %needle.0"}
!13 = !{}
!14 = !{!15, !17}
!15 = distinct !{!15, !16, !"_RNvMNtCsjMrxcFdYDNN_4core5sliceSh8split_atCsl5bjp7iZrWZ_6memchr: %pair"}
!16 = distinct !{!16, !"_RNvMNtCsjMrxcFdYDNN_4core5sliceSh8split_atCsl5bjp7iZrWZ_6memchr"}
!17 = distinct !{!17, !16, !"_RNvMNtCsjMrxcFdYDNN_4core5sliceSh8split_atCsl5bjp7iZrWZ_6memchr: %self.0"}
!18 = !{!19}
!19 = distinct !{!19, !20, !"_RNvNtNtCsl5bjp7iZrWZ_6memchr4arch3all9is_prefix: %haystack.0"}
!20 = distinct !{!20, !"_RNvNtNtCsl5bjp7iZrWZ_6memchr4arch3all9is_prefix"}
!21 = !{!22}
!22 = distinct !{!22, !20, !"_RNvNtNtCsl5bjp7iZrWZ_6memchr4arch3all9is_prefix: %needle.0"}
!23 = !{!24}
!24 = distinct !{!24, !25, !"_RNvMNtNtNtNtCsl5bjp7iZrWZ_6memchr4arch7aarch644neon10packedpairNtB2_6Finder9find_impl: %self"}
!25 = distinct !{!25, !"_RNvMNtNtNtNtCsl5bjp7iZrWZ_6memchr4arch7aarch644neon10packedpairNtB2_6Finder9find_impl"}
!26 = !{!27}
!27 = distinct !{!27, !25, !"_RNvMNtNtNtNtCsl5bjp7iZrWZ_6memchr4arch7aarch644neon10packedpairNtB2_6Finder9find_impl: %haystack.0"}
!28 = !{!29}
!29 = distinct !{!29, !25, !"_RNvMNtNtNtNtCsl5bjp7iZrWZ_6memchr4arch7aarch644neon10packedpairNtB2_6Finder9find_impl: %needle.0"}
!30 = !{!31}
!31 = distinct !{!31, !32, !"_RNvMNtNtNtCsl5bjp7iZrWZ_6memchr4arch7generic10packedpairINtB2_6FinderNtNtNtNtCsjMrxcFdYDNN_4core9core_arch10arm_shared4neon10uint8x16_tE4findB8_: %self"}
!32 = distinct !{!32, !"_RNvMNtNtNtCsl5bjp7iZrWZ_6memchr4arch7generic10packedpairINtB2_6FinderNtNtNtNtCsjMrxcFdYDNN_4core9core_arch10arm_shared4neon10uint8x16_tE4findB8_"}
!33 = !{!34, !31, !24}
!34 = distinct !{!34, !35, !"_RNvMNtNtNtCsl5bjp7iZrWZ_6memchr4arch7generic10packedpairINtB2_6FinderNtNtNtNtCsjMrxcFdYDNN_4core9core_arch10arm_shared4neon10uint8x16_tE13find_in_chunkB8_: %self"}
!35 = distinct !{!35, !"_RNvMNtNtNtCsl5bjp7iZrWZ_6memchr4arch7generic10packedpairINtB2_6FinderNtNtNtNtCsjMrxcFdYDNN_4core9core_arch10arm_shared4neon10uint8x16_tE13find_in_chunkB8_"}
!36 = !{!37, !38, !39, !27, !29}
!37 = distinct !{!37, !35, !"_RNvMNtNtNtCsl5bjp7iZrWZ_6memchr4arch7generic10packedpairINtB2_6FinderNtNtNtNtCsjMrxcFdYDNN_4core9core_arch10arm_shared4neon10uint8x16_tE13find_in_chunkB8_: %needle.0"}
!38 = distinct !{!38, !32, !"_RNvMNtNtNtCsl5bjp7iZrWZ_6memchr4arch7generic10packedpairINtB2_6FinderNtNtNtNtCsjMrxcFdYDNN_4core9core_arch10arm_shared4neon10uint8x16_tE4findB8_: %haystack.0"}
!39 = distinct !{!39, !32, !"_RNvMNtNtNtCsl5bjp7iZrWZ_6memchr4arch7generic10packedpairINtB2_6FinderNtNtNtNtCsjMrxcFdYDNN_4core9core_arch10arm_shared4neon10uint8x16_tE4findB8_: %needle.0"}
!40 = !{!34}
!41 = !{!42, !24, !29}
!42 = distinct !{!42, !43, !"_RINvNtCsjMrxcFdYDNN_4core3ptr14read_unalignedNtNtNtNtB4_9core_arch10arm_shared4neon10uint8x16_tECsl5bjp7iZrWZ_6memchr: %_0"}
!43 = distinct !{!43, !"_RINvNtCsjMrxcFdYDNN_4core3ptr14read_unalignedNtNtNtNtB4_9core_arch10arm_shared4neon10uint8x16_tECsl5bjp7iZrWZ_6memchr"}
!44 = !{!34, !31, !24, !27}
!45 = !{!34, !31, !24, !29}
!46 = !{!47, !31, !24, !27}
!47 = distinct !{!47, !48, !"_RNvMNtNtNtCsl5bjp7iZrWZ_6memchr4arch7generic10packedpairINtB2_6FinderNtNtNtNtCsjMrxcFdYDNN_4core9core_arch10arm_shared4neon10uint8x16_tE13find_in_chunkB8_: %self"}
!48 = distinct !{!48, !"_RNvMNtNtNtCsl5bjp7iZrWZ_6memchr4arch7generic10packedpairINtB2_6FinderNtNtNtNtCsjMrxcFdYDNN_4core9core_arch10arm_shared4neon10uint8x16_tE13find_in_chunkB8_"}
!49 = !{!47, !31, !24, !29}
!50 = !{!51}
!51 = distinct !{!51, !52, !"_RNvMNtNtNtCsl5bjp7iZrWZ_6memchr4arch3all9rabinkarpNtB2_6Finder4find: %needle.0"}
!52 = distinct !{!52, !"_RNvMNtNtNtCsl5bjp7iZrWZ_6memchr4arch3all9rabinkarpNtB2_6Finder4find"}
!53 = !{!54}
!54 = distinct !{!54, !52, !"_RNvMNtNtNtCsl5bjp7iZrWZ_6memchr4arch3all9rabinkarpNtB2_6Finder4find: %haystack.0"}
!55 = !{!54, !51}
!56 = !{!57}
!57 = distinct !{!57, !58, !"_RNvMNtNtNtNtCsl5bjp7iZrWZ_6memchr4arch7aarch644neon10packedpairNtB2_6Finder19find_prefilter_impl: %self"}
!58 = distinct !{!58, !"_RNvMNtNtNtNtCsl5bjp7iZrWZ_6memchr4arch7aarch644neon10packedpairNtB2_6Finder19find_prefilter_impl"}
!59 = !{!60}
!60 = distinct !{!60, !58, !"_RNvMNtNtNtNtCsl5bjp7iZrWZ_6memchr4arch7aarch644neon10packedpairNtB2_6Finder19find_prefilter_impl: %haystack.0"}
!61 = !{!62, !57}
!62 = distinct !{!62, !63, !"_RNvMNtNtNtCsl5bjp7iZrWZ_6memchr4arch7generic10packedpairINtB2_6FinderNtNtNtNtCsjMrxcFdYDNN_4core9core_arch10arm_shared4neon10uint8x16_tE23find_prefilter_in_chunkB8_: %self"}
!63 = distinct !{!63, !"_RNvMNtNtNtCsl5bjp7iZrWZ_6memchr4arch7generic10packedpairINtB2_6FinderNtNtNtNtCsjMrxcFdYDNN_4core9core_arch10arm_shared4neon10uint8x16_tE23find_prefilter_in_chunkB8_"}
!64 = !{!65, !57}
!65 = distinct !{!65, !66, !"_RINvNtCsjMrxcFdYDNN_4core3ptr14read_unalignedNtNtNtNtB4_9core_arch10arm_shared4neon10uint8x16_tECsl5bjp7iZrWZ_6memchr: %_0"}
!66 = distinct !{!66, !"_RINvNtCsjMrxcFdYDNN_4core3ptr14read_unalignedNtNtNtNtB4_9core_arch10arm_shared4neon10uint8x16_tECsl5bjp7iZrWZ_6memchr"}
!67 = !{!68}
!68 = distinct !{!68, !69, !"_RNvMNtNtNtCsl5bjp7iZrWZ_6memchr4arch3all6memchrNtB2_3One8find_raw: %self"}
!69 = distinct !{!69, !"_RNvMNtNtNtCsl5bjp7iZrWZ_6memchr4arch3all6memchrNtB2_3One8find_raw"}
!70 = !{!71, !68}
!71 = distinct !{!71, !72, !"_RINvNtNtNtCsl5bjp7iZrWZ_6memchr4arch7generic6memchr16fwd_byte_by_byteNCNvMNtNtB6_3all6memchrNtB1a_3One8find_raw0EB8_: argument 0"}
!72 = distinct !{!72, !"_RINvNtNtNtCsl5bjp7iZrWZ_6memchr4arch7generic6memchr16fwd_byte_by_byteNCNvMNtNtB6_3all6memchrNtB1a_3One8find_raw0EB8_"}
!73 = distinct !{!73, !74}
!74 = !{!"llvm.loop.unroll.disable"}
!75 = !{!76, !68}
!76 = distinct !{!76, !77, !"_RINvNtNtNtCsl5bjp7iZrWZ_6memchr4arch7generic6memchr16fwd_byte_by_byteNCNvMNtNtB6_3all6memchrNtB1a_3One8find_raw0EB8_: argument 0"}
!77 = distinct !{!77, !"_RINvNtNtNtCsl5bjp7iZrWZ_6memchr4arch7generic6memchr16fwd_byte_by_byteNCNvMNtNtB6_3all6memchrNtB1a_3One8find_raw0EB8_"}
!78 = !{!79, !68}
!79 = distinct !{!79, !80, !"_RINvNtNtNtCsl5bjp7iZrWZ_6memchr4arch7generic6memchr16fwd_byte_by_byteNCNvMNtNtB6_3all6memchrNtB1a_3One8find_raw0EB8_: argument 0"}
!80 = distinct !{!80, !"_RINvNtNtNtCsl5bjp7iZrWZ_6memchr4arch7generic6memchr16fwd_byte_by_byteNCNvMNtNtB6_3all6memchrNtB1a_3One8find_raw0EB8_"}
!81 = distinct !{!81, !74}
!82 = !{!83, !68}
!83 = distinct !{!83, !84, !"_RINvNtNtNtCsl5bjp7iZrWZ_6memchr4arch7generic6memchr16fwd_byte_by_byteNCNvMNtNtB6_3all6memchrNtB1a_3One8find_raw0EB8_: argument 0"}
!84 = distinct !{!84, !"_RINvNtNtNtCsl5bjp7iZrWZ_6memchr4arch7generic6memchr16fwd_byte_by_byteNCNvMNtNtB6_3all6memchrNtB1a_3One8find_raw0EB8_"}
!85 = distinct !{!85, !74}
!86 = !{i64 0, i64 2}
!87 = !{!88}
!88 = distinct !{!88, !89, !"_RNvMNtNtNtCsl5bjp7iZrWZ_6memchr4arch3all9rabinkarpNtB2_6Finder4find: %needle.0"}
!89 = distinct !{!89, !"_RNvMNtNtNtCsl5bjp7iZrWZ_6memchr4arch3all9rabinkarpNtB2_6Finder4find"}
!90 = !{!91}
!91 = distinct !{!91, !89, !"_RNvMNtNtNtCsl5bjp7iZrWZ_6memchr4arch3all9rabinkarpNtB2_6Finder4find: %haystack.0"}
!92 = !{!91, !88}
!93 = !{!94}
!94 = distinct !{!94, !95, !"_RNvMNtNtNtCsl5bjp7iZrWZ_6memchr4arch3all6twowayNtB2_6Finder14find_large_imp: %haystack.0"}
!95 = distinct !{!95, !"_RNvMNtNtNtCsl5bjp7iZrWZ_6memchr4arch3all6twowayNtB2_6Finder14find_large_imp"}
!96 = !{!97}
!97 = distinct !{!97, !95, !"_RNvMNtNtNtCsl5bjp7iZrWZ_6memchr4arch3all6twowayNtB2_6Finder14find_large_imp: %needle.0"}
!98 = !{!99, !100, !97}
!99 = distinct !{!99, !95, !"_RNvMNtNtNtCsl5bjp7iZrWZ_6memchr4arch3all6twowayNtB2_6Finder14find_large_imp: %self"}
!100 = distinct !{!100, !95, !"_RNvMNtNtNtCsl5bjp7iZrWZ_6memchr4arch3all6twowayNtB2_6Finder14find_large_imp: argument 1"}
!101 = !{!99, !97}
!102 = !{!99, !100, !94}
!103 = !{!104}
!104 = distinct !{!104, !105, !"_RNvMNtNtNtCsl5bjp7iZrWZ_6memchr4arch3all6twowayNtB2_6Finder14find_small_imp: %self"}
!105 = distinct !{!105, !"_RNvMNtNtNtCsl5bjp7iZrWZ_6memchr4arch3all6twowayNtB2_6Finder14find_small_imp"}
!106 = !{!107}
!107 = distinct !{!107, !105, !"_RNvMNtNtNtCsl5bjp7iZrWZ_6memchr4arch3all6twowayNtB2_6Finder14find_small_imp: %haystack.0"}
!108 = !{!109}
!109 = distinct !{!109, !105, !"_RNvMNtNtNtCsl5bjp7iZrWZ_6memchr4arch3all6twowayNtB2_6Finder14find_small_imp: %needle.0"}
!110 = !{!111, !107, !109}
!111 = distinct !{!111, !105, !"_RNvMNtNtNtCsl5bjp7iZrWZ_6memchr4arch3all6twowayNtB2_6Finder14find_small_imp: argument 1"}
!112 = !{!104, !111, !109}
!113 = !{!104, !109}
!114 = !{!104, !111, !107}
!115 = !{!116, !118, !120}
!116 = distinct !{!116, !117, !"_RINvNtCsjMrxcFdYDNN_4core3ptr14read_unalignedNtNtNtNtB4_9core_arch10arm_shared4neon10uint8x16_tECsl5bjp7iZrWZ_6memchr: %_0"}
!117 = distinct !{!117, !"_RINvNtCsjMrxcFdYDNN_4core3ptr14read_unalignedNtNtNtNtB4_9core_arch10arm_shared4neon10uint8x16_tECsl5bjp7iZrWZ_6memchr"}
!118 = distinct !{!118, !119, !"_RNvMNtNtNtNtCsl5bjp7iZrWZ_6memchr4arch7aarch644neon6memchrNtB2_3One13find_raw_impl: %self"}
!119 = distinct !{!119, !"_RNvMNtNtNtNtCsl5bjp7iZrWZ_6memchr4arch7aarch644neon6memchrNtB2_3One13find_raw_impl"}
!120 = distinct !{!120, !121, !"_RNvMNtNtNtNtCsl5bjp7iZrWZ_6memchr4arch7aarch644neon6memchrNtB2_3One8find_raw: %self"}
!121 = distinct !{!121, !"_RNvMNtNtNtNtCsl5bjp7iZrWZ_6memchr4arch7aarch644neon6memchrNtB2_3One8find_raw"}
!122 = !{!123, !120}
!123 = distinct !{!123, !124, !"_RINvNtNtNtCsl5bjp7iZrWZ_6memchr4arch7generic6memchr16fwd_byte_by_byteNCNvMNtNtNtB6_7aarch644neon6memchrNtB1a_3One8find_raw0EB8_: argument 0"}
!124 = distinct !{!124, !"_RINvNtNtNtCsl5bjp7iZrWZ_6memchr4arch7generic6memchr16fwd_byte_by_byteNCNvMNtNtNtB6_7aarch644neon6memchrNtB1a_3One8find_raw0EB8_"}
!125 = !{!126}
!126 = distinct !{!126, !127, !"_RNvMNtNtNtCsl5bjp7iZrWZ_6memchr4arch7generic6memchrINtB2_3OneNtNtNtNtCsjMrxcFdYDNN_4core9core_arch10arm_shared4neon10uint8x16_tE8find_rawB8_: %self"}
!127 = distinct !{!127, !"_RNvMNtNtNtCsl5bjp7iZrWZ_6memchr4arch7generic6memchrINtB2_3OneNtNtNtNtCsjMrxcFdYDNN_4core9core_arch10arm_shared4neon10uint8x16_tE8find_rawB8_"}
!128 = !{!129}
!129 = distinct !{!129, !130, !"_RNvMNtNtNtCsl5bjp7iZrWZ_6memchr4arch3all10packedpairNtB2_6Finder14find_prefilter: %self"}
!130 = distinct !{!130, !"_RNvMNtNtNtCsl5bjp7iZrWZ_6memchr4arch3all10packedpairNtB2_6Finder14find_prefilter"}
!131 = !{!132}
!132 = distinct !{!132, !130, !"_RNvMNtNtNtCsl5bjp7iZrWZ_6memchr4arch3all10packedpairNtB2_6Finder14find_prefilter: %haystack.0"}
!133 = !{!134, !136, !129}
!134 = distinct !{!134, !135, !"_RINvNtNtNtCsl5bjp7iZrWZ_6memchr4arch7generic6memchr16fwd_byte_by_byteNCNvMNtNtNtB6_7aarch644neon6memchrNtB1a_3One8find_raw0EB8_: argument 0"}
!135 = distinct !{!135, !"_RINvNtNtNtCsl5bjp7iZrWZ_6memchr4arch7generic6memchr16fwd_byte_by_byteNCNvMNtNtNtB6_7aarch644neon6memchrNtB1a_3One8find_raw0EB8_"}
!136 = distinct !{!136, !137, !"_RNvMNtNtNtNtCsl5bjp7iZrWZ_6memchr4arch7aarch644neon6memchrNtB2_3One8find_raw: %self"}
!137 = distinct !{!137, !"_RNvMNtNtNtNtCsl5bjp7iZrWZ_6memchr4arch7aarch644neon6memchrNtB2_3One8find_raw"}
!138 = distinct !{!138, !74}
!139 = !{!140, !142, !136, !129}
!140 = distinct !{!140, !141, !"_RINvNtCsjMrxcFdYDNN_4core3ptr14read_unalignedNtNtNtNtB4_9core_arch10arm_shared4neon10uint8x16_tECsl5bjp7iZrWZ_6memchr: %_0"}
!141 = distinct !{!141, !"_RINvNtCsjMrxcFdYDNN_4core3ptr14read_unalignedNtNtNtNtB4_9core_arch10arm_shared4neon10uint8x16_tECsl5bjp7iZrWZ_6memchr"}
!142 = distinct !{!142, !143, !"_RNvMNtNtNtNtCsl5bjp7iZrWZ_6memchr4arch7aarch644neon6memchrNtB2_3One13find_raw_impl: %self"}
!143 = distinct !{!143, !"_RNvMNtNtNtNtCsl5bjp7iZrWZ_6memchr4arch7aarch644neon6memchrNtB2_3One13find_raw_impl"}
!144 = !{!145}
!145 = distinct !{!145, !146, !"_RNvMNtNtNtCsl5bjp7iZrWZ_6memchr4arch7generic6memchrINtB2_3OneNtNtNtNtCsjMrxcFdYDNN_4core9core_arch10arm_shared4neon10uint8x16_tE8find_rawB8_: %self"}
!146 = distinct !{!146, !"_RNvMNtNtNtCsl5bjp7iZrWZ_6memchr4arch7generic6memchrINtB2_3OneNtNtNtNtCsjMrxcFdYDNN_4core9core_arch10arm_shared4neon10uint8x16_tE8find_rawB8_"}
!147 = !{!"branch_weights", i32 2000, i32 2002}
!148 = !{!149, !132}
!149 = distinct !{!149, !150, !"_RINvMNtCsjMrxcFdYDNN_4core6optionINtB3_6OptionRhE6map_orbNCNvMNtNtNtCsl5bjp7iZrWZ_6memchr4arch3all10packedpairNtBY_6Finder14find_prefilter0EB14_: argument 0"}
!150 = distinct !{!150, !"_RINvMNtCsjMrxcFdYDNN_4core6optionINtB3_6OptionRhE6map_orbNCNvMNtNtNtCsl5bjp7iZrWZ_6memchr4arch3all10packedpairNtBY_6Finder14find_prefilter0EB14_"}
!151 = !{!"branch_weights", i32 1, i32 1999}
!152 = !{!153}
!153 = distinct !{!153, !154, !"_RNvMNtNtNtCsl5bjp7iZrWZ_6memchr4arch3all9rabinkarpNtB2_6Finder4find: %needle.0"}
!154 = distinct !{!154, !"_RNvMNtNtNtCsl5bjp7iZrWZ_6memchr4arch3all9rabinkarpNtB2_6Finder4find"}
!155 = !{!156}
!156 = distinct !{!156, !154, !"_RNvMNtNtNtCsl5bjp7iZrWZ_6memchr4arch3all9rabinkarpNtB2_6Finder4find: %haystack.0"}
!157 = !{!156, !153}
!158 = !{!159}
!159 = distinct !{!159, !160, !"_RNvMNtNtNtCsl5bjp7iZrWZ_6memchr4arch3all6twowayNtB2_6Finder14find_large_imp: %haystack.0"}
!160 = distinct !{!160, !"_RNvMNtNtNtCsl5bjp7iZrWZ_6memchr4arch3all6twowayNtB2_6Finder14find_large_imp"}
!161 = !{!162}
!162 = distinct !{!162, !160, !"_RNvMNtNtNtCsl5bjp7iZrWZ_6memchr4arch3all6twowayNtB2_6Finder14find_large_imp: %needle.0"}
!163 = !{!164, !162}
!164 = distinct !{!164, !160, !"_RNvMNtNtNtCsl5bjp7iZrWZ_6memchr4arch3all6twowayNtB2_6Finder14find_large_imp: %self"}
!165 = !{!166}
!166 = distinct !{!166, !167, !"_RNvMs6_NtNtCsl5bjp7iZrWZ_6memchr6memmem8searcherNtB5_3Pre4find: %haystack.0"}
!167 = distinct !{!167, !"_RNvMs6_NtNtCsl5bjp7iZrWZ_6memchr6memmem8searcherNtB5_3Pre4find"}
!168 = !{!164, !169, !162}
!169 = distinct !{!169, !160, !"_RNvMNtNtNtCsl5bjp7iZrWZ_6memchr4arch3all6twowayNtB2_6Finder14find_large_imp: argument 1"}
!170 = !{!164, !169, !159}
!171 = !{!172}
