; ModuleID = 'proc_macro2.b1070adca596d7b1-cgu.0'
source_filename = "proc_macro2.b1070adca596d7b1-cgu.0"
target datalayout = "e-m:o-p270:32:32-p271:32:32-p272:64:64-i64:64-i128:128-n32:64-S128-Fn32"
target triple = "arm64-apple-macosx11.0.0"

%"unicode_ident::tables::Align8<[u8; 411]>" = type { [411 x i8], [5 x i8] }
%"unicode_ident::tables::Align64<[u8; 7968]>" = type { [7968 x i8], [32 x i8] }
%"unicode_ident::tables::Align8<[u8; 1793]>" = type { [1793 x i8], [7 x i8] }
%"proc_macro::bridge::TokenTree<proc_macro::bridge::client::TokenStream, proc_macro::bridge::client::Span, proc_macro::bridge::symbol::Symbol>" = type { [16 x i8], i8, [3 x i8] }
%"rcvec::RcVecIntoIter<TokenTree>" = type { %"alloc::vec::into_iter::IntoIter<TokenTree>" }
%"alloc::vec::into_iter::IntoIter<TokenTree>" = type { ptr, ptr, i64, ptr, %"core::marker::PhantomData<TokenTree>", %"core::mem::manually_drop::ManuallyDrop<alloc::alloc::Global>" }
%"core::marker::PhantomData<TokenTree>" = type {}
%"core::mem::manually_drop::ManuallyDrop<alloc::alloc::Global>" = type { %"core::mem::maybe_dangling::MaybeDangling<alloc::alloc::Global>" }
%"core::mem::maybe_dangling::MaybeDangling<alloc::alloc::Global>" = type { %"alloc::alloc::Global" }
%"alloc::alloc::Global" = type {}
%"proc_macro::TokenTree" = type { [16 x i8], i8, [3 x i8] }
%"fallback::TokenStreamBuilder" = type { %"rcvec::RcVecBuilder<TokenTree>" }
%"rcvec::RcVecBuilder<TokenTree>" = type { %"alloc::vec::Vec<TokenTree>" }
%"alloc::vec::Vec<TokenTree>" = type { %"alloc::raw_vec::RawVec<TokenTree>", i64 }
%"alloc::raw_vec::RawVec<TokenTree>" = type { %"alloc::raw_vec::RawVecInner", %"core::marker::PhantomData<TokenTree>" }
%"alloc::raw_vec::RawVecInner" = type { i64, ptr, %"alloc::alloc::Global" }
%TokenTree = type { i32, [7 x i32] }
%"core::mem::maybe_uninit::MaybeUninit<TokenTree>" = type { [4 x i64] }
%"core::mem::maybe_uninit::MaybeUninit<proc_macro::TokenTree>" = type { [5 x i32] }
%"core::mem::maybe_uninit::MaybeUninit<proc_macro::bridge::TokenTree<proc_macro::bridge::client::TokenStream, proc_macro::bridge::client::Span, proc_macro::bridge::symbol::Symbol>>" = type { [5 x i32] }

@vtable.0 = private unnamed_addr constant <{ [24 x i8], ptr, ptr }> <{ [24 x i8] c"\00\00\00\00\00\00\00\00\08\00\00\00\00\00\00\00\08\00\00\00\00\00\00\00", ptr @_RNSNvYNCINvMs0_NtNtCs5sEH5CPMdak_3std4sync4onceNtBd_4Once9call_onceNvNtCsfcjqfaF2v4X_11proc_macro29detection10initializeE0INtNtNtCsjMrxcFdYDNN_4core3ops8function6FnOnceTRNtBd_9OnceStateEE9call_once6vtableB17_, ptr @_RNCINvMs0_NtNtCs5sEH5CPMdak_3std4sync4onceNtB8_4Once9call_onceNvNtCsfcjqfaF2v4X_11proc_macro29detection10initializeE0B12_ }>, align 8
@vtable.1 = private unnamed_addr constant <{ ptr, [16 x i8], ptr }> <{ ptr @_RINvNtCsjMrxcFdYDNN_4core3ptr13drop_in_placeNtCsfcjqfaF2v4X_11proc_macro29TokenTreeEBI_, [16 x i8] c" \00\00\00\00\00\00\00\08\00\00\00\00\00\00\00", ptr @_RNvXsm_CsfcjqfaF2v4X_11proc_macro2NtB5_9TokenTreeNtNtCsjMrxcFdYDNN_4core3fmt5Debug3fmt }>, align 8
@alloc_7fe94be2e120ffbd80c490b1b3c481ee = private unnamed_addr constant [120 x i8] c"/Users/hongyaotang/.rustup/toolchains/nightly-aarch64-apple-darwin/lib/rustlib/src/rust/library/core/src/str/pattern.rs\00", align 1
@alloc_3c3a438693b52af6c6b31c2cc77620da = private unnamed_addr constant <{ ptr, [16 x i8] }> <{ ptr @alloc_7fe94be2e120ffbd80c490b1b3c481ee, [16 x i8] c"w\00\00\00\00\00\00\00\E4\05\00\00\14\00\00\00" }>, align 8
@alloc_759b6db6182a2ae5f8169b55f322d553 = private unnamed_addr constant <{ ptr, [16 x i8] }> <{ ptr @alloc_7fe94be2e120ffbd80c490b1b3c481ee, [16 x i8] c"w\00\00\00\00\00\00\00\E4\05\00\00!\00\00\00" }>, align 8
@alloc_cfc145f12794171662ae0bd5e97799ce = private unnamed_addr constant <{ ptr, [16 x i8] }> <{ ptr @alloc_7fe94be2e120ffbd80c490b1b3c481ee, [16 x i8] c"w\00\00\00\00\00\00\00\D8\05\00\00!\00\00\00" }>, align 8
@anon.801098bd5dffe3758279e5918d7d13cc.0 = private unnamed_addr constant [16 x i8] c"0123456789abcdef", align 1
@alloc_8abc8245dd622154cb39537f390f45d3 = private unnamed_addr constant [117 x i8] c"/Users/hongyaotang/.rustup/toolchains/nightly-aarch64-apple-darwin/lib/rustlib/src/rust/library/std/src/sync/once.rs\00", align 1
@alloc_3129176114b12752e73d3989241bb5f0 = private unnamed_addr constant <{ ptr, [16 x i8] }> <{ ptr @alloc_8abc8245dd622154cb39537f390f45d3, [16 x i8] c"t\00\00\00\00\00\00\00\9F\00\00\002\00\00\00" }>, align 8
@alloc_0d770d567e877e3e8d0f4b031fa04ccc = private unnamed_addr constant [108 x i8] c"/Users/hongyaotang/.cargo/registry/src/index.crates.io-1949cf8c6b5b557f/proc-macro2-1.0.103/src/fallback.rs\00", align 1
@alloc_713399a8c3f6c6cc11d67f24eb4c5a45 = private unnamed_addr constant <{ ptr, [16 x i8] }> <{ ptr @alloc_0d770d567e877e3e8d0f4b031fa04ccc, [16 x i8] c"k\00\00\00\00\00\00\00X\04\00\008\00\00\00" }>, align 8
@_RNvNtCse82qs69NmR4_13unicode_ident6tables10TRIE_START = external local_unnamed_addr global %"unicode_ident::tables::Align8<[u8; 411]>"
@_RNvCse82qs69NmR4_13unicode_ident4ZERO = external local_unnamed_addr global i8
@_RNvNtCse82qs69NmR4_13unicode_ident6tables4LEAF = external local_unnamed_addr global %"unicode_ident::tables::Align64<[u8; 7968]>"
@_RNvNtCse82qs69NmR4_13unicode_ident6tables13TRIE_CONTINUE = external local_unnamed_addr global %"unicode_ident::tables::Align8<[u8; 1793]>"
@alloc_4c4fffffc0fd4030ee71dc8553252dbf = private unnamed_addr constant [116 x i8] c"/Users/hongyaotang/.rustup/toolchains/nightly-aarch64-apple-darwin/lib/rustlib/src/rust/library/core/src/str/mod.rs\00", align 1
@alloc_ace97832e319df4c8a68695dbff2be3b = private unnamed_addr constant [45 x i8] c"cannot remove a char from the end of a string", align 1
@alloc_83f0bf4aa39c10b3c834df276da2b22b = private unnamed_addr constant <{ ptr, [16 x i8] }> <{ ptr @alloc_4c4fffffc0fd4030ee71dc8553252dbf, [16 x i8] c"s\00\00\00\00\00\00\00A\03\00\00\15\00\00\00" }>, align 8
@alloc_d1084648e479974e70c9329824bf76f9 = private unnamed_addr constant [9 x i8] c"mid > len", align 1
@vtable.2 = private unnamed_addr constant <{ [24 x i8], ptr }> <{ [24 x i8] c"\00\00\00\00\00\00\00\00\00\00\00\00\00\00\00\00\01\00\00\00\00\00\00\00", ptr @_RNvXsV_CsbtZo8rQoR5w_10proc_macroNtB5_8LexErrorNtNtCsjMrxcFdYDNN_4core3fmt5Debug3fmt }>, align 8
@alloc_00ae4b301f7fab8ac9617c03fcbd7274 = private unnamed_addr constant [43 x i8] c"called `Result::unwrap()` on an `Err` value", align 1
@vtable.3 = private unnamed_addr constant <{ [24 x i8], ptr }> <{ [24 x i8] c"\00\00\00\00\00\00\00\00\00\00\00\00\00\00\00\00\01\00\00\00\00\00\00\00", ptr @_RNvXst_NtCsfcjqfaF2v4X_11proc_macro28fallbackNtB5_8LexErrorNtNtCsjMrxcFdYDNN_4core3fmt5Debug3fmt }>, align 8
@vtable.4 = private unnamed_addr constant <{ [24 x i8], ptr }> <{ [24 x i8] c"\00\00\00\00\00\00\00\00\10\00\00\00\00\00\00\00\08\00\00\00\00\00\00\00", ptr @_RNvXs9_NtNtCsjMrxcFdYDNN_4core3str5errorNtB5_9Utf8ErrorNtNtB9_3fmt5Debug3fmt }>, align 8
@vtable.6 = private unnamed_addr constant <{ [24 x i8], ptr }> <{ [24 x i8] c"\00\00\00\00\00\00\00\00\00\00\00\00\00\00\00\00\01\00\00\00\00\00\00\00", ptr @_RNvXsK_NtCsjMrxcFdYDNN_4core3fmtNtB5_5ErrorNtB5_5Debug3fmt }>, align 8
@alloc_872e27944f452a359e6d9f0cdbf18a96 = private unnamed_addr constant [31 x i8] c"assertion failed: f.is_finite()", align 1
@alloc_940dd89cb7be26db0f4d4ab35e0b3e7e = private unnamed_addr constant [103 x i8] c"/Users/hongyaotang/.cargo/registry/src/index.crates.io-1949cf8c6b5b557f/proc-macro2-1.0.103/src/lib.rs\00", align 1
@alloc_c73317a0bbd061ed20649571edf62e5b = private unnamed_addr constant <{ ptr, [16 x i8] }> <{ ptr @alloc_940dd89cb7be26db0f4d4ab35e0b3e7e, [16 x i8] c"f\00\00\00\00\00\00\00\CC\04\00\00\09\00\00\00" }>, align 8
@alloc_f2a3a2ebe0d5ae4e14a87a88772d8d38 = private unnamed_addr constant <{ ptr, [16 x i8] }> <{ ptr @alloc_940dd89cb7be26db0f4d4ab35e0b3e7e, [16 x i8] c"f\00\00\00\00\00\00\00\A8\04\00\00\09\00\00\00" }>, align 8
@alloc_c5e72996322d13d6bc5c1631b288fb9b = private unnamed_addr constant <{ ptr, [16 x i8] }> <{ ptr @alloc_940dd89cb7be26db0f4d4ab35e0b3e7e, [16 x i8] c"f\00\00\00\00\00\00\00\BA\04\00\00\09\00\00\00" }>, align 8
@alloc_0e79430dd450b3e5f8c0f990a0134ac6 = private unnamed_addr constant <{ ptr, [16 x i8] }> <{ ptr @alloc_940dd89cb7be26db0f4d4ab35e0b3e7e, [16 x i8] c"f\00\00\00\00\00\00\00\96\04\00\00\09\00\00\00" }>, align 8
@alloc_e712762edc9ad31bc8ddf8c29ba2ab95 = private unnamed_addr constant [3 x i8] c"\EF\BB\BF", align 1
@alloc_f594b71b1a2e3a08c175ff8796e96f9f = private unnamed_addr constant <{ ptr, [16 x i8] }> <{ ptr @alloc_0d770d567e877e3e8d0f4b031fa04ccc, [16 x i8] c"k\00\00\00\00\00\00\00Y\00\00\00%\00\00\00" }>, align 8
@alloc_87da24c6c4aee92f40a5980899f3858c = private unnamed_addr constant [55 x i8] c"proc_macro::Span is only available in procedural macros", align 1
@alloc_72d8deda9633df49ebc36a3783718dd1 = private unnamed_addr constant [107 x i8] c"/Users/hongyaotang/.cargo/registry/src/index.crates.io-1949cf8c6b5b557f/proc-macro2-1.0.103/src/wrapper.rs\00", align 1
@alloc_92b6b930c6403b1586c37b0cd2bec7b6 = private unnamed_addr constant <{ ptr, [16 x i8] }> <{ ptr @alloc_72d8deda9633df49ebc36a3783718dd1, [16 x i8] c"j\00\00\00\00\00\00\00\A6\01\00\00\22\00\00\00" }>, align 8
@alloc_3050fe490e20e8ca0b126453c1f93f49 = private unnamed_addr constant [2 x i8] c"b\22", align 1
@alloc_d555b1c9aff03f19dcb511ac1ac8841e = private unnamed_addr constant [2 x i8] c"\\0", align 1
@alloc_c6c4149d289afdcaafd000f8d4a6bfb9 = private unnamed_addr constant [4 x i8] c"\\x00", align 1
@alloc_33671a93b2ca9c9bacac5ac0cffa88d1 = private unnamed_addr constant [11 x i8] c"\02\\x\C3 \00\00i\02\00\00", align 1
@vtable.7 = private unnamed_addr constant <{ ptr, [16 x i8], ptr, ptr, ptr }> <{ ptr @_RINvNtCsjMrxcFdYDNN_4core3ptr13drop_in_placeNtNtCsdJPVW0sQgAG_5alloc6string6StringECsfcjqfaF2v4X_11proc_macro2, [16 x i8] c"\18\00\00\00\00\00\00\00\08\00\00\00\00\00\00\00", ptr @_RNvXsZ_NtCsdJPVW0sQgAG_5alloc6stringNtB5_6StringNtNtCsjMrxcFdYDNN_4core3fmt5Write9write_str, ptr @_RNvXsZ_NtCsdJPVW0sQgAG_5alloc6stringNtB5_6StringNtNtCsjMrxcFdYDNN_4core3fmt5Write10write_char, ptr @_RNvYNtNtCsdJPVW0sQgAG_5alloc6string6StringNtNtCsjMrxcFdYDNN_4core3fmt5Write9write_fmtCsfcjqfaF2v4X_11proc_macro2 }>, align 8
@alloc_55471c5d97351b1d7784b63194993169 = private unnamed_addr constant [5 x i8] c"\C0\02i8\00", align 1
@alloc_96292048f92ec6c725b5d36b29e4ef10 = private unnamed_addr constant [5 x i8] c"\C0\02u8\00", align 1
@alloc_ca37a743cb2a320078f799111dae4472 = private unnamed_addr constant [6 x i8] c"\C0\03f32\00", align 1
@alloc_849acc87dc085649ff33adc8024e49d5 = private unnamed_addr constant [6 x i8] c"\C0\03f64\00", align 1
@alloc_a902d15fecfd29446c5a7675247503ad = private unnamed_addr constant [6 x i8] c"\C0\03i16\00", align 1
@alloc_fc7d9204be2d4b51421bb2b8e13d0546 = private unnamed_addr constant [6 x i8] c"\C0\03i32\00", align 1
@alloc_1792c969a498cc36f120fb43d8cb57ba = private unnamed_addr constant [6 x i8] c"\C0\03i64\00", align 1
@alloc_a7797e3cab38cb8d6e1af26b7e8a3981 = private unnamed_addr constant [6 x i8] c"\C0\03u16\00", align 1
@alloc_59899c38f73e06d847df4b9d9f875825 = private unnamed_addr constant [6 x i8] c"\C0\03u32\00", align 1
@alloc_15808b33a25238d58d60258d0af0281f = private unnamed_addr constant [6 x i8] c"\C0\03u64\00", align 1
@alloc_93ac1c5cacedbf48dbccb7b4dd36a696 = private unnamed_addr constant [7 x i8] c"\C0\04i128\00", align 1
@alloc_e9eb0a5ca0dca9e3147e04f9d254b5c7 = private unnamed_addr constant [7 x i8] c"\C0\04u128\00", align 1
@alloc_c230d367772640e7780c9805d76b7a5a = private unnamed_addr constant [2 x i8] c"b'", align 1
@alloc_5d0643a855d2cd5cdb1f175be3b40483 = private unnamed_addr constant [8 x i8] c"\C0\05isize\00", align 1
@alloc_84f0dae87b5328675710b9b86dffb39c = private unnamed_addr constant [8 x i8] c"\C0\05usize\00", align 1
@alloc_354e8ac62b06cfdd3362af42ebb90859 = private unnamed_addr constant [2 x i8] c"c\22", align 1
@alloc_1f55ecab3552af0e02cef9c362497fb5 = private unnamed_addr constant <{ ptr, [16 x i8] }> <{ ptr @alloc_0d770d567e877e3e8d0f4b031fa04ccc, [16 x i8] c"k\00\00\00\00\00\00\00T\04\00\00/\00\00\00" }>, align 8
@alloc_d99adb993f51ce386b59b25280fac1c3 = private unnamed_addr constant <{ ptr, [16 x i8] }> <{ ptr @alloc_0d770d567e877e3e8d0f4b031fa04ccc, [16 x i8] c"k\00\00\00\00\00\00\00U\04\00\007\00\00\00" }>, align 8
@alloc_725bd5e96ba790dcc538ac0c27768c62 = private unnamed_addr constant <{ ptr, [16 x i8] }> <{ ptr @alloc_0d770d567e877e3e8d0f4b031fa04ccc, [16 x i8] c"k\00\00\00\00\00\00\00Y\04\00\00#\00\00\00" }>, align 8
@alloc_a7284ec5c6bc7608e9b22ae4ec8a0926 = private unnamed_addr constant [48 x i8] c"-unsupported proc macro punctuation character \C0\00", align 1
@alloc_280dd2e7c56d2de17176e2d1120dc519 = private unnamed_addr constant <{ ptr, [16 x i8] }> <{ ptr @alloc_940dd89cb7be26db0f4d4ab35e0b3e7e, [16 x i8] c"f\00\00\00\00\00\00\008\03\00\00\0D\00\00\00" }>, align 8
@alloc_a6143e763041b6b998cb265490f8328b = private unnamed_addr constant <{ ptr, [16 x i8] }> <{ ptr @alloc_0d770d567e877e3e8d0f4b031fa04ccc, [16 x i8] c"k\00\00\00\00\00\00\00\D6\04\00\00\1D\00\00\00" }>, align 8
@vtable.8 = private unnamed_addr constant <{ [24 x i8], ptr }> <{ [24 x i8] c"\00\00\00\00\00\00\00\00\04\00\00\00\00\00\00\00\04\00\00\00\00\00\00\00", ptr @_RNvXsn_CsbtZo8rQoR5w_10proc_macroNtB5_4SpanNtNtCsjMrxcFdYDNN_4core3fmt5Debug3fmt }>, align 8
@alloc_d299c6d6ea3f96b88c1a3bb8e0f4fc1e = private unnamed_addr constant [4 x i8] c"span", align 1
@alloc_42629e3fda8e6eeb423c5971ebd160e3 = private unnamed_addr constant [31 x i8] c"\1Ccompiler/fallback mismatch L\C0\00", align 1
@alloc_4f36d90083c453fbd271cd0d436bf1ba = private unnamed_addr constant <{ ptr, [16 x i8] }> <{ ptr @alloc_72d8deda9633df49ebc36a3783718dd1, [16 x i8] c"j\00\00\00\00\00\00\006\00\00\00\09\00\00\00" }>, align 8
@alloc_8a5755c7923bb7fc54a716e61bfc895f = private unnamed_addr constant [11 x i8] c"(/*ERROR*/)", align 1
@alloc_d5f0f24268d469e3dc9e2ef7f6510983 = private unnamed_addr constant [2 x i8] c"//", align 1
@alloc_306b17c50e3f209e7082c0dad9084435 = private unnamed_addr constant [2 x i8] c"/*", align 1
@alloc_aae81247d080136175dbd352957cb012 = private unnamed_addr constant [22 x i8] c"~!@#$%^&*-=+|;:,<.>/?'", align 1
@alloc_054164fd263f1d1a616e774507fb7f36 = private unnamed_addr constant [105 x i8] c"/Users/hongyaotang/.cargo/registry/src/index.crates.io-1949cf8c6b5b557f/proc-macro2-1.0.103/src/parse.rs\00", align 1
@alloc_15535fc130c30955ec90d122d171b368 = private unnamed_addr constant <{ ptr, [16 x i8] }> <{ ptr @alloc_054164fd263f1d1a616e774507fb7f36, [16 x i8] c"h\00\00\00\00\00\00\00\A3\01\00\00\1F\00\00\00" }>, align 8
@alloc_1a50d1b7986d15496f07bc02bc2fa74c = private unnamed_addr constant [2 x i8] c"br", align 1
@alloc_264129cb13ab003db28ff7cdf51deecc = private unnamed_addr constant <{ ptr, [16 x i8] }> <{ ptr @alloc_054164fd263f1d1a616e774507fb7f36, [16 x i8] c"h\00\00\00\00\00\00\00\9E\03\00\00%\00\00\00" }>, align 8
@alloc_701ce0bb3ffd80e30a094997fe0bfddc = private unnamed_addr constant [3 x i8] c"doc", align 1
@alloc_8bb241512b6808021033c8575f46d884 = private unnamed_addr constant <{ ptr, [16 x i8] }> <{ ptr @alloc_054164fd263f1d1a616e774507fb7f36, [16 x i8] c"h\00\00\00\00\00\00\00\11\02\00\00\1F\00\00\00" }>, align 8
@alloc_75157e47a1d2d5d7c5963696f9937eea = private unnamed_addr constant <{ ptr, [16 x i8] }> <{ ptr @alloc_054164fd263f1d1a616e774507fb7f36, [16 x i8] c"h\00\00\00\00\00\00\00\8B\00\00\00'\00\00\00" }>, align 8
@alloc_b46170c92de6d5b65419a74b872c6b33 = private unnamed_addr constant <{ ptr, [16 x i8] }> <{ ptr @alloc_054164fd263f1d1a616e774507fb7f36, [16 x i8] c"h\00\00\00\00\00\00\00\8E\00\00\00=\00\00\00" }>, align 8
@alloc_71c1d2c76f916121aa5fd8ee3754f8a3 = private unnamed_addr constant <{ ptr, [16 x i8] }> <{ ptr @alloc_054164fd263f1d1a616e774507fb7f36, [16 x i8] c"h\00\00\00\00\00\00\00N\01\00\00(\00\00\00" }>, align 8
@alloc_cde062e6eb331748f41fe2e02f2d969c = private unnamed_addr constant <{ ptr, [16 x i8] }> <{ ptr @alloc_054164fd263f1d1a616e774507fb7f36, [16 x i8] c"h\00\00\00\00\00\00\00\F0\01\00\00\1F\00\00\00" }>, align 8
@alloc_a3cbf1622e18ce8557a1059d1d50984b = private unnamed_addr constant [3 x i8] c"///", align 1
@alloc_aa5d53d33a460a6f3784f1b7fa109f88 = private unnamed_addr constant [4 x i8] c"////", align 1
@alloc_3dba12bdfc02f300bac5107fa50559e2 = private unnamed_addr constant [3 x i8] c"//!", align 1
@alloc_59a513d8c7a03aa22faf89201dcc46f3 = private unnamed_addr constant [4 x i8] c"/**/", align 1
@alloc_c63f42f072c0f65a5c00be2f1e9c3fa6 = private unnamed_addr constant [3 x i8] c"/**", align 1
@alloc_b361d2f6d45158fecc3ea02eedd442f7 = private unnamed_addr constant [4 x i8] c"/***", align 1
@alloc_022cee65c935a399b1901330ff471e91 = private unnamed_addr constant [3 x i8] c"/*!", align 1
@alloc_92fef72b1102ac4a7c3a6204be6e58ed = private unnamed_addr constant <{ ptr, [16 x i8] }> <{ ptr @alloc_054164fd263f1d1a616e774507fb7f36, [16 x i8] c"h\00\00\00\00\00\00\00\CF\03\00\006\00\00\00" }>, align 8
@alloc_64d609b545ca697175dfa49179d718a3 = private unnamed_addr constant <{ ptr, [16 x i8] }> <{ ptr @alloc_054164fd263f1d1a616e774507fb7f36, [16 x i8] c"h\00\00\00\00\00\00\00\D1\03\00\00\17\00\00\00" }>, align 8
@alloc_db55976478ff2fab17473601f7a5d044 = private unnamed_addr constant <{ ptr, [16 x i8] }> <{ ptr @alloc_054164fd263f1d1a616e774507fb7f36, [16 x i8] c"h\00\00\00\00\00\00\00\C7\03\00\00\17\00\00\00" }>, align 8
@alloc_af043effee6ba2f47cb3dd8fa4ccaedd = private unnamed_addr constant <{ ptr, [16 x i8] }> <{ ptr @alloc_054164fd263f1d1a616e774507fb7f36, [16 x i8] c"h\00\00\00\00\00\00\00\E2\01\00\00=\00\00\00" }>, align 8
@alloc_d8906a645d288603635e58cf29e066c0 = private unnamed_addr constant <{ ptr, [16 x i8] }> <{ ptr @alloc_054164fd263f1d1a616e774507fb7f36, [16 x i8] c"h\00\00\00\00\00\00\00\DC\03\00\002\00\00\00" }>, align 8
@alloc_c04f177cb660b297a4aa87c96cba0454 = private unnamed_addr constant <{ ptr, [16 x i8] }> <{ ptr @alloc_054164fd263f1d1a616e774507fb7f36, [16 x i8] c"h\00\00\00\00\00\00\00\DD\03\00\00+\00\00\00" }>, align 8
@alloc_f3e40bf22ac11e4d5bd89478d383f6c5 = private unnamed_addr constant <{ ptr, [16 x i8] }> <{ ptr @alloc_054164fd263f1d1a616e774507fb7f36, [16 x i8] c"h\00\00\00\00\00\00\00\DE\03\00\006\00\00\00" }>, align 8
@alloc_db0a92ae52fea3f096ed364062cd51f4 = private unnamed_addr constant [2 x i8] c"r\22", align 1
@alloc_08bffe54a7c6e4ba345e1a5ec029bf4e = private unnamed_addr constant [3 x i8] c"r#\22", align 1
@alloc_315158db7b4aa8f4f149c0c8884eafcb = private unnamed_addr constant [3 x i8] c"r##", align 1
@alloc_c17a19ecc61c3d4c1674ac5bcf8c170f = private unnamed_addr constant [3 x i8] c"br\22", align 1
@alloc_e4a9753dd3733445c0f90fe1e8201aff = private unnamed_addr constant [3 x i8] c"br#", align 1
@alloc_3a34a0a500efeb5d223ee05713880aee = private unnamed_addr constant [3 x i8] c"cr\22", align 1
@alloc_335caab743944b23fad79cbbb7c2fb8a = private unnamed_addr constant [3 x i8] c"cr#", align 1
@alloc_26741d7be2999f870b5ef1ed52a52387 = private unnamed_addr constant [2 x i8] c"r#", align 1
@alloc_83d8d36e705c58ed11bda7b90dabc655 = private unnamed_addr constant [2 x i8] c"0x", align 1
@alloc_3f5e304b2d3feb2147d7ca807297437a = private unnamed_addr constant [2 x i8] c"0o", align 1
@alloc_27d35d5cbe30361bd1ed04847fdae817 = private unnamed_addr constant [2 x i8] c"0b", align 1
@alloc_2c3a1e21b386289c7a3e35940bfc13f7 = private unnamed_addr constant <{ ptr, [16 x i8] }> <{ ptr @alloc_054164fd263f1d1a616e774507fb7f36, [16 x i8] c"h\00\00\00\00\00\00\00T\01\00\00'\00\00\00" }>, align 8
@alloc_1bae2be023d341346a677993c977de2b = private unnamed_addr constant [2 x i8] c"cr", align 1
@alloc_105895aecd604a09ec1be120f512aa8a = private unnamed_addr constant [5 x i8] c"super", align 1
@alloc_6aeac8d59cbcbd1aee06607ad2dd6674 = private unnamed_addr constant [4 x i8] c"self", align 1
@alloc_7e323bfe8c2b6a467b3640606c98266f = private unnamed_addr constant [4 x i8] c"Self", align 1
@alloc_b7d12448d3c2d0861386fea51f6ebf56 = private unnamed_addr constant [5 x i8] c"crate", align 1
@alloc_223fa054b991c08dbf9067cd34c06732 = private unnamed_addr constant [51 x i8] c"Ident is not allowed to be empty; use Option<Ident>", align 1
@alloc_27a3bc9912f6edc8711ff48022db5822 = private unnamed_addr constant [24 x i8] c"\C0\15 is not a valid Ident\00", align 1
@alloc_218a05756a37265d60694e13f7e3d209 = private unnamed_addr constant [45 x i8] c"Ident cannot be a number; use Literal instead", align 1
@alloc_e78f4ed62718c2652f975ac5a774f8b9 = private unnamed_addr constant [35 x i8] c"\03`r#\C0\1C` cannot be a raw identifier\00", align 1
@alloc_10382e108fe309babf7bfcc8fc567599 = private unnamed_addr constant [109 x i8] c"/Users/hongyaotang/.cargo/registry/src/index.crates.io-1949cf8c6b5b557f/proc-macro2-1.0.103/src/detection.rs\00", align 1
@alloc_0132fa605fe8a949bc8004941a070fa0 = private unnamed_addr constant <{ ptr, [16 x i8] }> <{ ptr @alloc_10382e108fe309babf7bfcc8fc567599, [16 x i8] c"l\00\00\00\00\00\00\00\0E\00\00\00\0A\00\00\00" }>, align 8
@_RNvNtCsfcjqfaF2v4X_11proc_macro29detection4INIT = internal global [8 x i8] c"\03\00\00\00\00\00\00\00", align 8
@_RNvNtCsfcjqfaF2v4X_11proc_macro29detection5WORKS.0 = internal unnamed_addr global i64 0, align 8
@_RNvNtNtNtCsjMrxcFdYDNN_4core7unicode12unicode_data11white_space14WHITESPACE_MAP = external local_unnamed_addr global [256 x i8]
@alloc_0ef8a24fe62b3c84ebcc44f0f5a7523c = private unnamed_addr constant <{ ptr, [16 x i8] }> <{ ptr @alloc_0d770d567e877e3e8d0f4b031fa04ccc, [16 x i8] c"k\00\00\00\00\00\00\00w\00\00\00\16\00\00\00" }>, align 8
@alloc_86ae06c694315714eba68fd4dbf9a3e7 = private unnamed_addr constant [37 x i8] c"cannot parse string into token stream", align 1
@alloc_0242e8ee118de705af76c627590b82cc = private unnamed_addr constant [1 x i8] c" ", align 1
@alloc_0c812808379efded5a4fb82d2790b556 = private unnamed_addr constant [2 x i8] c"\C0\00", align 1
@alloc_5c9190818faa303809fe44f74ab2b44a = private unnamed_addr constant [12 x i8] c"TokenStream ", align 1
@vtable.a = private unnamed_addr constant <{ [24 x i8], ptr }> <{ [24 x i8] c"\00\00\00\00\00\00\00\00\08\00\00\00\00\00\00\00\08\00\00\00\00\00\00\00", ptr @_RNvXsZ_NtNtCsjMrxcFdYDNN_4core3fmt3numjNtB7_5Debug3fmt }>, align 8
@vtable.b = private unnamed_addr constant <{ [24 x i8], ptr }> <{ [24 x i8] c"\00\00\00\00\00\00\00\00\08\00\00\00\00\00\00\00\08\00\00\00\00\00\00\00", ptr @_RNvXs1g_NtCsjMrxcFdYDNN_4core3fmtRINtNtB8_6option6OptionhENtB6_5Debug3fmtCsfcjqfaF2v4X_11proc_macro2 }>, align 8
@alloc_8e685ef482aec04a2d7a8ed5ef1228a3 = private unnamed_addr constant [9 x i8] c"Utf8Error", align 1
@alloc_f34017a1538f19bf68b6d6294eec0bb3 = private unnamed_addr constant [11 x i8] c"valid_up_to", align 1
@alloc_91eca80c47235190e5fbed3d6d8be36c = private unnamed_addr constant [9 x i8] c"error_len", align 1
@alloc_cc656815297f75969399c3f4b1ad3de4 = private unnamed_addr constant [55 x i8] c"a Display implementation returned an error unexpectedly", align 1
@alloc_82687d2573a6ed8a4d1fcf733f159466 = private unnamed_addr constant [116 x i8] c"/Users/hongyaotang/.rustup/toolchains/nightly-aarch64-apple-darwin/lib/rustlib/src/rust/library/alloc/src/string.rs\00", align 1
@alloc_f3c70bf9d2724ff8f638341943ddf3c8 = private unnamed_addr constant <{ ptr, [16 x i8] }> <{ ptr @alloc_82687d2573a6ed8a4d1fcf733f159466, [16 x i8] c"s\00\00\00\00\00\00\00f\0B\00\00\0E\00\00\00" }>, align 8
@alloc_99ac8a81a24cac863217ce4a5cbfabea = private unnamed_addr constant [5 x i8] c"Error", align 1
@alloc_0294e458fb90079136075a45e1b88064 = private unnamed_addr constant [11 x i8] c"Parenthesis", align 1
@alloc_008064ec92f18d6001dc96ef0f11d89f = private unnamed_addr constant [5 x i8] c"Brace", align 1
@alloc_a295c4aa60729a08b699a9334700da73 = private unnamed_addr constant [7 x i8] c"Bracket", align 1
@alloc_37d2e53432a03a1f90b3e7253015eaf9 = private unnamed_addr constant [4 x i8] c"None", align 1
@vtable.c = private unnamed_addr constant <{ [24 x i8], ptr }> <{ [24 x i8] c"\00\00\00\00\00\00\00\00\08\00\00\00\00\00\00\00\08\00\00\00\00\00\00\00", ptr @_RNvXs1g_NtCsjMrxcFdYDNN_4core3fmtRhNtB6_5Debug3fmtCsfcjqfaF2v4X_11proc_macro2 }>, align 8
@alloc_9535bf4c204f3eb9b19ec2c83e446e52 = private unnamed_addr constant [4 x i8] c"Some", align 1
@alloc_ce18dc9b9ca144fde65711b7622c392e = private unnamed_addr constant [8 x i8] c"LexError", align 1
@alloc_205c8fef0d2f3a459caa7a8e356d3db8 = private unnamed_addr constant [5 x i8] c"Alone", align 1
@alloc_9fa21bdf536aa6f2b9b2b030ef619bb2 = private unnamed_addr constant [5 x i8] c"Joint", align 1
@vtable.d = private unnamed_addr constant <{ [24 x i8], ptr }> <{ [24 x i8] c"\00\00\00\00\00\00\00\00\08\00\00\00\00\00\00\00\08\00\00\00\00\00\00\00", ptr @_RNvXs1g_NtCsjMrxcFdYDNN_4core3fmtRNtNtCsfcjqfaF2v4X_11proc_macro28fallback4SpanNtB6_5Debug3fmtBA_ }>, align 8
@alloc_013ac183eb69ceaf6bbbdb62e96feb3c = private unnamed_addr constant [4 x i8] c"Span", align 1
@alloc_1ff25e6ad58d770003043bae3c4113bf = private unnamed_addr constant [1 x i8] c"(", align 1
@alloc_9e3f62b0e6490cc45676dc85f910c2d0 = private unnamed_addr constant [1 x i8] c")", align 1
@alloc_ba02d3c2bb83a9cd2b43a9c8021c63b5 = private unnamed_addr constant [2 x i8] c"{ ", align 1
@alloc_fcd552ca5ffc948e1053f652f94fed71 = private unnamed_addr constant [1 x i8] c"}", align 1
@alloc_036636151bab3754536335311c8d3ab8 = private unnamed_addr constant [1 x i8] c"[", align 1
@alloc_7a6887ef0f93938f57a4bb958cf80311 = private unnamed_addr constant [1 x i8] c"]", align 1
@alloc_9da9d291a90742fa8a71e87501ed4345 = private unnamed_addr constant [5 x i8] c"Group", align 1
@vtable.e = private unnamed_addr constant <{ [24 x i8], ptr }> <{ [24 x i8] c"\00\00\00\00\00\00\00\00\01\00\00\00\00\00\00\00\01\00\00\00\00\00\00\00", ptr @_RNvXsP_CsfcjqfaF2v4X_11proc_macro2NtB5_9DelimiterNtNtCsjMrxcFdYDNN_4core3fmt5Debug3fmt }>, align 8
@alloc_f18a9bd8117f705fa536a1dea2e1da89 = private unnamed_addr constant [9 x i8] c"delimiter", align 1
@vtable.f = private unnamed_addr constant <{ ptr, [16 x i8], ptr }> <{ ptr @_RINvNtCsjMrxcFdYDNN_4core3ptr13drop_in_placeNtNtCsfcjqfaF2v4X_11proc_macro28fallback11TokenStreamEBK_, [16 x i8] c"\08\00\00\00\00\00\00\00\08\00\00\00\00\00\00\00", ptr @_RNvXs4_NtCsfcjqfaF2v4X_11proc_macro28fallbackNtB5_11TokenStreamNtNtCsjMrxcFdYDNN_4core3fmt5Debug3fmt }>, align 8
@alloc_16157024dd92dd2dc2624dbf6332a09b = private unnamed_addr constant [6 x i8] c"stream", align 1
@alloc_2dbfdc2e58db4d4910923c307a6e38ca = private unnamed_addr constant [5 x i8] c"Ident", align 1
@vtable.g = private unnamed_addr constant <{ [24 x i8], ptr }> <{ [24 x i8] c"\00\00\00\00\00\00\00\00\10\00\00\00\00\00\00\00\08\00\00\00\00\00\00\00", ptr @_RNvXs7_NtCsjMrxcFdYDNN_4core3fmtNtB5_9ArgumentsNtB5_5Debug3fmt }>, align 8
@alloc_37d55b91621ff632e7c33748e32b9616 = private unnamed_addr constant [3 x i8] c"sym", align 1
@alloc_33ac9531a9c2c24dc222b4b41e31ecf8 = private unnamed_addr constant [7 x i8] c"Literal", align 1
@alloc_9791236d4c0092df644cfaa29555826d = private unnamed_addr constant [3 x i8] c"lit", align 1
@alloc_330d63602223408d89df37fc81986e6c = private unnamed_addr constant [5 x i8] c"Punct", align 1
@vtable.h = private unnamed_addr constant <{ [24 x i8], ptr }> <{ [24 x i8] c"\00\00\00\00\00\00\00\00\04\00\00\00\00\00\00\00\04\00\00\00\00\00\00\00", ptr @_RNvXsj_NtCsjMrxcFdYDNN_4core3fmtcNtB5_5Debug3fmt }>, align 8
@alloc_9b5c8091e3b549959da5ff7ce59718f9 = private unnamed_addr constant [4 x i8] c"char", align 1
@vtable.i = private unnamed_addr constant <{ [24 x i8], ptr }> <{ [24 x i8] c"\00\00\00\00\00\00\00\00\01\00\00\00\00\00\00\00\01\00\00\00\00\00\00\00", ptr @_RNvXsX_CsfcjqfaF2v4X_11proc_macro2NtB5_7SpacingNtNtCsjMrxcFdYDNN_4core3fmt5Debug3fmt }>, align 8
@alloc_033337e827ce54b74ba409e6d0ed4279 = private unnamed_addr constant [7 x i8] c"spacing", align 1
@alloc_559c4f386b668c946885822cef1a587d = private unnamed_addr constant <{ ptr, [16 x i8] }> <{ ptr @alloc_7fe94be2e120ffbd80c490b1b3c481ee, [16 x i8] c"w\00\00\00\00\00\00\00h\04\00\00$\00\00\00" }>, align 8
@switch.table._RNvXsP_CsfcjqfaF2v4X_11proc_macro2NtB5_9DelimiterNtNtCsjMrxcFdYDNN_4core3fmt5Debug3fmt = private unnamed_addr constant [4 x i64] [i64 11, i64 5, i64 7, i64 4], align 8
@switch.table._RNvXsP_CsfcjqfaF2v4X_11proc_macro2NtB5_9DelimiterNtNtCsjMrxcFdYDNN_4core3fmt5Debug3fmt.110 = private unnamed_addr constant [4 x ptr] [ptr @alloc_0294e458fb90079136075a45e1b88064, ptr @alloc_008064ec92f18d6001dc96ef0f11d89f, ptr @alloc_a295c4aa60729a08b699a9334700da73, ptr @alloc_37d2e53432a03a1f90b3e7253015eaf9], align 8

@_RNvMse_CsfcjqfaF2v4X_11proc_macro2NtB5_4Span8unstable = unnamed_addr alias i32 (i32), ptr @_RNvMse_CsfcjqfaF2v4X_11proc_macro2NtB5_4Span6unwrap
@_RNvMs3_NtCsdJPVW0sQgAG_5alloc7raw_vecINtB5_6RawVecNtCsfcjqfaF2v4X_11proc_macro29TokenTreeE8grow_oneBO_ = unnamed_addr alias void (ptr), ptr @_RNvMs3_NtCsdJPVW0sQgAG_5alloc7raw_vecINtB5_6RawVecINtNtCsfcjqfaF2v4X_11proc_macro25rcvec13RcVecIntoIterNtBR_9TokenTreeEE8grow_oneBR_
@_RNvMs3_NtCsdJPVW0sQgAG_5alloc7raw_vecINtB5_6RawVecTNtCsfcjqfaF2v4X_11proc_macro29DelimiterNtNtBP_8fallback18TokenStreamBuilderEE8grow_oneBP_ = unnamed_addr alias void (ptr), ptr @_RNvMs3_NtCsdJPVW0sQgAG_5alloc7raw_vecINtB5_6RawVecINtNtCsfcjqfaF2v4X_11proc_macro25rcvec13RcVecIntoIterNtBR_9TokenTreeEE8grow_oneBR_

; proc_macro2::parse::backslash_u::<core::str::iter::CharIndices>
; Function Attrs: nofree norecurse nosync nounwind memory(read, argmem: readwrite, inaccessiblemem: readwrite) uwtable
define internal fastcc noundef range(i32 0, 1114113) i32 @_RINvNtCsfcjqfaF2v4X_11proc_macro25parse11backslash_uNtNtNtCsjMrxcFdYDNN_4core3str4iter11CharIndicesEB4_(ptr noalias noundef nonnull align 8 captures(none) dereferenceable(24) %chars) unnamed_addr #0 {
start:
  tail call void @llvm.experimental.noalias.scope.decl(metadata !2)
  %0 = getelementptr inbounds nuw i8, ptr %chars, i64 8
  %_4.i3.i = load ptr, ptr %0, align 8, !alias.scope !5, !nonnull !8, !noundef !8
  %subtracted.i4.i = load ptr, ptr %chars, align 8, !alias.scope !5, !nonnull !8, !noundef !8
  %1 = ptrtoint ptr %subtracted.i4.i to i64
  tail call void @llvm.experimental.noalias.scope.decl(metadata !9)
  %_6.i.i.i = icmp eq ptr %subtracted.i4.i, %_4.i3.i
  br i1 %_6.i.i.i, label %bb30, label %bb14.i.i

bb14.i.i:                                         ; preds = %start
  %_16.i.i.i = getelementptr inbounds nuw i8, ptr %subtracted.i4.i, i64 1
  store ptr %_16.i.i.i, ptr %chars, align 8, !alias.scope !12
  %x.i.i = load i8, ptr %subtracted.i4.i, align 1, !noalias !15, !noundef !8
  %_6.i.i = icmp sgt i8 %x.i.i, -1
  br i1 %_6.i.i, label %bb3.i.i, label %bb4.i.i

bb4.i.i:                                          ; preds = %bb14.i.i
  %_30.i.i = and i8 %x.i.i, 31
  %init.i.i = zext nneg i8 %_30.i.i to i32
  %_6.i10.i.i = icmp ne ptr %_16.i.i.i, %_4.i3.i
  tail call void @llvm.assume(i1 %_6.i10.i.i)
  %_16.i12.i.i = getelementptr inbounds nuw i8, ptr %subtracted.i4.i, i64 2
  store ptr %_16.i12.i.i, ptr %chars, align 8, !alias.scope !16
  %y.i.i = load i8, ptr %_16.i.i.i, align 1, !noalias !15, !noundef !8
  %_33.i.i = shl nuw nsw i32 %init.i.i, 6
  %_35.i.i = and i8 %y.i.i, 63
  %_34.i.i = zext nneg i8 %_35.i.i to i32
  %2 = or disjoint i32 %_33.i.i, %_34.i.i
  %_13.i.i = icmp samesign ugt i8 %x.i.i, -33
  br i1 %_13.i.i, label %bb6.i.i, label %_RNvXs3_NtNtCsjMrxcFdYDNN_4core3str4iterNtB5_11CharIndicesNtNtNtNtB9_4iter6traits8iterator8Iterator4next.exit

bb3.i.i:                                          ; preds = %bb14.i.i
  %_7.i.i = zext nneg i8 %x.i.i to i32
  br label %_RNvXs3_NtNtCsjMrxcFdYDNN_4core3str4iterNtB5_11CharIndicesNtNtNtNtB9_4iter6traits8iterator8Iterator4next.exit

bb6.i.i:                                          ; preds = %bb4.i.i
  %_6.i17.i.i = icmp ne ptr %_16.i12.i.i, %_4.i3.i
  tail call void @llvm.assume(i1 %_6.i17.i.i)
  %_16.i19.i.i = getelementptr inbounds nuw i8, ptr %subtracted.i4.i, i64 3
  store ptr %_16.i19.i.i, ptr %chars, align 8, !alias.scope !19
  %z.i.i = load i8, ptr %_16.i12.i.i, align 1, !noalias !15, !noundef !8
  %_38.i.i = shl nuw nsw i32 %_34.i.i, 6
  %_40.i.i = and i8 %z.i.i, 63
  %_39.i.i = zext nneg i8 %_40.i.i to i32
  %y_z.i.i = or disjoint i32 %_38.i.i, %_39.i.i
  %_20.i.i = shl nuw nsw i32 %init.i.i, 12
  %3 = or disjoint i32 %y_z.i.i, %_20.i.i
  %_21.i.i = icmp samesign ugt i8 %x.i.i, -17
  br i1 %_21.i.i, label %bb8.i.i, label %_RNvXs3_NtNtCsjMrxcFdYDNN_4core3str4iterNtB5_11CharIndicesNtNtNtNtB9_4iter6traits8iterator8Iterator4next.exit

bb8.i.i:                                          ; preds = %bb6.i.i
  %_6.i24.i.i = icmp ne ptr %_16.i19.i.i, %_4.i3.i
  tail call void @llvm.assume(i1 %_6.i24.i.i)
  %_16.i26.i.i = getelementptr inbounds nuw i8, ptr %subtracted.i4.i, i64 4
  store ptr %_16.i26.i.i, ptr %chars, align 8, !alias.scope !22
  %w.i.i = load i8, ptr %_16.i19.i.i, align 1, !noalias !15, !noundef !8
  %_26.i.i = shl nuw nsw i32 %init.i.i, 18
  %_25.i.i = and i32 %_26.i.i, 1835008
  %_43.i.i = shl nuw nsw i32 %y_z.i.i, 6
  %_45.i.i = and i8 %w.i.i, 63
  %_44.i.i = zext nneg i8 %_45.i.i to i32
  %_27.i.i = or disjoint i32 %_43.i.i, %_44.i.i
  %4 = or disjoint i32 %_27.i.i, %_25.i.i
  br label %_RNvXs3_NtNtCsjMrxcFdYDNN_4core3str4iterNtB5_11CharIndicesNtNtNtNtB9_4iter6traits8iterator8Iterator4next.exit

_RNvXs3_NtNtCsjMrxcFdYDNN_4core3str4iterNtB5_11CharIndicesNtNtNtNtB9_4iter6traits8iterator8Iterator4next.exit: ; preds = %bb4.i.i, %bb3.i.i, %bb6.i.i, %bb8.i.i
  %chars.promoted76 = phi ptr [ %_16.i12.i.i, %bb4.i.i ], [ %_16.i19.i.i, %bb6.i.i ], [ %_16.i26.i.i, %bb8.i.i ], [ %_16.i.i.i, %bb3.i.i ]
  %_0.sroa.4.0.i.ph.i = phi i32 [ %2, %bb4.i.i ], [ %3, %bb6.i.i ], [ %4, %bb8.i.i ], [ %_7.i.i, %bb3.i.i ]
  %5 = icmp samesign ult i32 %_0.sroa.4.0.i.ph.i, 1114112
  tail call void @llvm.assume(i1 %5)
  %6 = getelementptr inbounds nuw i8, ptr %chars, i64 16
  %index.i = load i64, ptr %6, align 8, !alias.scope !2, !noundef !8
  %7 = ptrtoint ptr %chars.promoted76 to i64
  %_10.i = sub i64 %7, %1
  %8 = add i64 %_10.i, %index.i
  store i64 %8, ptr %6, align 8, !alias.scope !2
  %cond = icmp eq i32 %_0.sroa.4.0.i.ph.i, 123
  br i1 %cond, label %bb7.outer, label %bb30

bb7.outer:                                        ; preds = %_RNvXs3_NtNtCsjMrxcFdYDNN_4core3str4iterNtB5_11CharIndicesNtNtNtNtB9_4iter6traits8iterator8Iterator4next.exit, %bb26
  %.promoted79 = phi i64 [ %16, %bb26 ], [ %8, %_RNvXs3_NtNtCsjMrxcFdYDNN_4core3str4iterNtB5_11CharIndicesNtNtNtNtB9_4iter6traits8iterator8Iterator4next.exit ]
  %chars.promoted77 = phi ptr [ %subtracted.i.i31, %bb26 ], [ %chars.promoted76, %_RNvXs3_NtNtCsjMrxcFdYDNN_4core3str4iterNtB5_11CharIndicesNtNtNtNtB9_4iter6traits8iterator8Iterator4next.exit ]
  %value.sroa.0.0.ph = phi i32 [ %24, %bb26 ], [ 0, %_RNvXs3_NtNtCsjMrxcFdYDNN_4core3str4iterNtB5_11CharIndicesNtNtNtNtB9_4iter6traits8iterator8Iterator4next.exit ]
  %len.sroa.0.0.ph = phi i32 [ %25, %bb26 ], [ 0, %_RNvXs3_NtNtCsjMrxcFdYDNN_4core3str4iterNtB5_11CharIndicesNtNtNtNtB9_4iter6traits8iterator8Iterator4next.exit ]
  %_22.not = icmp eq i32 %len.sroa.0.0.ph, 0
  br label %bb7

bb7:                                              ; preds = %bb7.outer, %bb19
  %9 = phi i64 [ %.promoted79, %bb7.outer ], [ %16, %bb19 ]
  %_16.i26.i.i4975 = phi ptr [ %chars.promoted77, %bb7.outer ], [ %subtracted.i.i31, %bb19 ]
  tail call void @llvm.experimental.noalias.scope.decl(metadata !25)
  %10 = ptrtoint ptr %_16.i26.i.i4975 to i64
  tail call void @llvm.experimental.noalias.scope.decl(metadata !28)
  %_6.i.i.i15 = icmp eq ptr %_16.i26.i.i4975, %_4.i3.i
  br i1 %_6.i.i.i15, label %bb30, label %bb14.i.i16

bb14.i.i16:                                       ; preds = %bb7
  %_16.i.i.i17 = getelementptr inbounds nuw i8, ptr %_16.i26.i.i4975, i64 1
  store ptr %_16.i.i.i17, ptr %chars, align 8, !alias.scope !31
  %x.i.i18 = load i8, ptr %_16.i26.i.i4975, align 1, !noalias !34, !noundef !8
  %_6.i.i19 = icmp sgt i8 %x.i.i18, -1
  br i1 %_6.i.i19, label %bb3.i.i57, label %bb4.i.i20

bb4.i.i20:                                        ; preds = %bb14.i.i16
  %_30.i.i21 = and i8 %x.i.i18, 31
  %init.i.i22 = zext nneg i8 %_30.i.i21 to i32
  %_6.i10.i.i23 = icmp ne ptr %_16.i.i.i17, %_4.i3.i
  tail call void @llvm.assume(i1 %_6.i10.i.i23)
  %_16.i12.i.i24 = getelementptr inbounds nuw i8, ptr %_16.i26.i.i4975, i64 2
  store ptr %_16.i12.i.i24, ptr %chars, align 8, !alias.scope !35
  %y.i.i25 = load i8, ptr %_16.i.i.i17, align 1, !noalias !34, !noundef !8
  %_33.i.i26 = shl nuw nsw i32 %init.i.i22, 6
  %_35.i.i27 = and i8 %y.i.i25, 63
  %_34.i.i28 = zext nneg i8 %_35.i.i27 to i32
  %11 = or disjoint i32 %_33.i.i26, %_34.i.i28
  %_13.i.i29 = icmp samesign ugt i8 %x.i.i18, -33
  br i1 %_13.i.i29, label %bb6.i.i37, label %bb8

bb3.i.i57:                                        ; preds = %bb14.i.i16
  %_7.i.i58 = zext nneg i8 %x.i.i18 to i32
  br label %bb8

bb6.i.i37:                                        ; preds = %bb4.i.i20
  %_6.i17.i.i38 = icmp ne ptr %_16.i12.i.i24, %_4.i3.i
  tail call void @llvm.assume(i1 %_6.i17.i.i38)
  %_16.i19.i.i39 = getelementptr inbounds nuw i8, ptr %_16.i26.i.i4975, i64 3
  store ptr %_16.i19.i.i39, ptr %chars, align 8, !alias.scope !38
  %z.i.i40 = load i8, ptr %_16.i12.i.i24, align 1, !noalias !34, !noundef !8
  %_38.i.i41 = shl nuw nsw i32 %_34.i.i28, 6
  %_40.i.i42 = and i8 %z.i.i40, 63
  %_39.i.i43 = zext nneg i8 %_40.i.i42 to i32
  %y_z.i.i44 = or disjoint i32 %_38.i.i41, %_39.i.i43
  %_20.i.i45 = shl nuw nsw i32 %init.i.i22, 12
  %12 = or disjoint i32 %y_z.i.i44, %_20.i.i45
  %_21.i.i46 = icmp samesign ugt i8 %x.i.i18, -17
  br i1 %_21.i.i46, label %bb8.i.i47, label %bb8

bb8.i.i47:                                        ; preds = %bb6.i.i37
  %_6.i24.i.i48 = icmp ne ptr %_16.i19.i.i39, %_4.i3.i
  tail call void @llvm.assume(i1 %_6.i24.i.i48)
  %_16.i26.i.i49 = getelementptr inbounds nuw i8, ptr %_16.i26.i.i4975, i64 4
  store ptr %_16.i26.i.i49, ptr %chars, align 8, !alias.scope !41
  %w.i.i50 = load i8, ptr %_16.i19.i.i39, align 1, !noalias !34, !noundef !8
  %_26.i.i51 = shl nuw nsw i32 %init.i.i22, 18
  %_25.i.i52 = and i32 %_26.i.i51, 1835008
  %_43.i.i53 = shl nuw nsw i32 %y_z.i.i44, 6
  %_45.i.i54 = and i8 %w.i.i50, 63
  %_44.i.i55 = zext nneg i8 %_45.i.i54 to i32
  %_27.i.i56 = or disjoint i32 %_43.i.i53, %_44.i.i55
  %13 = or disjoint i32 %_27.i.i56, %_25.i.i52
  br label %bb8

bb8:                                              ; preds = %bb8.i.i47, %bb6.i.i37, %bb3.i.i57, %bb4.i.i20
  %subtracted.i.i31 = phi ptr [ %_16.i12.i.i24, %bb4.i.i20 ], [ %_16.i19.i.i39, %bb6.i.i37 ], [ %_16.i26.i.i49, %bb8.i.i47 ], [ %_16.i.i.i17, %bb3.i.i57 ]
  %_0.sroa.4.0.i.ph.i32 = phi i32 [ %11, %bb4.i.i20 ], [ %12, %bb6.i.i37 ], [ %13, %bb8.i.i47 ], [ %_7.i.i58, %bb3.i.i57 ]
  %14 = icmp samesign ult i32 %_0.sroa.4.0.i.ph.i32, 1114112
  tail call void @llvm.assume(i1 %14)
  %15 = ptrtoint ptr %subtracted.i.i31 to i64
  %_10.i34 = sub i64 %15, %10
  %16 = add i64 %_10.i34, %9
  store i64 %16, ptr %6, align 8, !alias.scope !25
  %17 = add nsw i32 %_0.sroa.4.0.i.ph.i32, -48
  %or.cond = icmp ult i32 %17, 10
  br i1 %or.cond, label %bb24, label %bb10

bb10:                                             ; preds = %bb8
  %18 = add nsw i32 %_0.sroa.4.0.i.ph.i32, -97
  %or.cond2 = icmp ult i32 %18, 6
  br i1 %or.cond2, label %bb24, label %bb12

bb12:                                             ; preds = %bb10
  %19 = add nsw i32 %_0.sroa.4.0.i.ph.i32, -65
  %or.cond3 = icmp ult i32 %19, 6
  br i1 %or.cond3, label %bb24, label %bb14

bb14:                                             ; preds = %bb12
  switch i32 %_0.sroa.4.0.i.ph.i32, label %bb30 [
    i32 95, label %bb19
    i32 125, label %bb18
  ]

bb19:                                             ; preds = %bb14
  br i1 %_22.not, label %bb30, label %bb7

bb18:                                             ; preds = %bb14
  %_24.not = icmp eq i32 %len.sroa.0.0.ph, 0
  br i1 %_24.not, label %bb30, label %bb22

bb22:                                             ; preds = %bb18
  %_30 = xor i32 %value.sroa.0.0.ph, 55296
  %20 = add i32 %_30, -1114112
  %_28 = icmp ult i32 %20, -1112064
  %spec.select = select i1 %_28, i32 1114112, i32 %value.sroa.0.0.ph
  br label %bb30

bb30:                                             ; preds = %bb24, %bb7, %bb14, %bb19, %start, %bb22, %_RNvXs3_NtNtCsjMrxcFdYDNN_4core3str4iterNtB5_11CharIndicesNtNtNtNtB9_4iter6traits8iterator8Iterator4next.exit, %bb18
  %_0.sroa.0.2 = phi i32 [ 1114112, %_RNvXs3_NtNtCsjMrxcFdYDNN_4core3str4iterNtB5_11CharIndicesNtNtNtNtB9_4iter6traits8iterator8Iterator4next.exit ], [ 1114112, %bb18 ], [ %spec.select, %bb22 ], [ 1114112, %start ], [ 1114112, %bb19 ], [ 1114112, %bb14 ], [ 1114112, %bb7 ], [ 1114112, %bb24 ]
  ret i32 %_0.sroa.0.2

bb24:                                             ; preds = %bb12, %bb10, %bb8
  %.sink = phi i32 [ 208, %bb8 ], [ 169, %bb10 ], [ 201, %bb12 ]
  %21 = icmp eq i32 %len.sroa.0.0.ph, 6
  br i1 %21, label %bb30, label %bb26

bb26:                                             ; preds = %bb24
  %22 = add nuw nsw i32 %_0.sroa.4.0.i.ph.i32, %.sink
  %23 = shl i32 %value.sroa.0.0.ph, 4
  %_27 = and i32 %22, 255
  %24 = add nuw i32 %_27, %23
  %25 = add nuw nsw i32 %len.sroa.0.0.ph, 1
  br label %bb7.outer
}

; proc_macro2::parse::backslash_x_byte::<core::iter::adapters::enumerate::Enumerate<core::str::iter::Bytes>>
; Function Attrs: mustprogress nofree norecurse nosync nounwind willreturn memory(read, argmem: readwrite, inaccessiblemem: readwrite) uwtable
define internal fastcc noundef zeroext i1 @_RINvNtCsfcjqfaF2v4X_11proc_macro25parse16backslash_x_byteINtNtNtNtCsjMrxcFdYDNN_4core4iter8adapters9enumerate9EnumerateNtNtNtB12_3str4iter5BytesEEB4_(ptr noalias noundef nonnull align 8 captures(none) dereferenceable(24) %chars) unnamed_addr #1 personality ptr @rust_eh_personality {
start:
  tail call void @llvm.experimental.noalias.scope.decl(metadata !44)
  tail call void @llvm.experimental.noalias.scope.decl(metadata !47)
  %ptr.i.i.i = load ptr, ptr %chars, align 8, !alias.scope !50, !noalias !53, !nonnull !8, !noundef !8
  %0 = getelementptr inbounds nuw i8, ptr %chars, i64 8
  %end_or_len.i.i.i = load ptr, ptr %0, align 8, !alias.scope !50, !noalias !53, !nonnull !8, !noundef !8
  %_6.i.i.not.i = icmp eq ptr %ptr.i.i.i, %end_or_len.i.i.i
  br i1 %_6.i.i.not.i, label %bb24, label %bb4

bb4:                                              ; preds = %start
  %_16.i.i.i = getelementptr inbounds nuw i8, ptr %ptr.i.i.i, i64 1
  store ptr %_16.i.i.i, ptr %chars, align 8, !alias.scope !50, !noalias !53
  %v.i.i = load i8, ptr %ptr.i.i.i, align 1, !noalias !55, !noundef !8
  %1 = getelementptr inbounds nuw i8, ptr %chars, i64 16
  %i.i = load i64, ptr %1, align 8, !alias.scope !44, !noalias !53, !noundef !8
  %_8.0.i = add i64 %i.i, 1
  store i64 %_8.0.i, ptr %1, align 8, !alias.scope !44, !noalias !53
  %2 = add i8 %v.i.i, -48
  %or.cond = icmp ult i8 %2, 10
  br i1 %or.cond, label %bb11, label %switch.early.test

switch.early.test:                                ; preds = %bb4
  switch i8 %v.i.i, label %bb24 [
    i8 102, label %bb11
    i8 101, label %bb11
    i8 100, label %bb11
    i8 99, label %bb11
    i8 98, label %bb11
    i8 97, label %bb11
    i8 70, label %bb11
    i8 69, label %bb11
    i8 68, label %bb11
    i8 67, label %bb11
    i8 66, label %bb11
    i8 65, label %bb11
  ]

bb11:                                             ; preds = %switch.early.test, %switch.early.test, %switch.early.test, %switch.early.test, %switch.early.test, %switch.early.test, %switch.early.test, %switch.early.test, %switch.early.test, %switch.early.test, %switch.early.test, %switch.early.test, %bb4
  tail call void @llvm.experimental.noalias.scope.decl(metadata !56)
  tail call void @llvm.experimental.noalias.scope.decl(metadata !59)
  %_6.i.i.not.i14 = icmp eq ptr %_16.i.i.i, %end_or_len.i.i.i
  br i1 %_6.i.i.not.i14, label %bb24, label %bb14

switch.lookup:                                    ; preds = %switch.early.test11
  %switch.cast = zext nneg i8 %switch.tableidx to i38
  %switch.downshift = lshr i38 4294967232, %switch.cast
  %switch.masked = trunc i38 %switch.downshift to i1
  br label %bb24

bb24:                                             ; preds = %bb14, %switch.lookup, %switch.early.test11, %bb11, %switch.early.test, %start
  %_0.sroa.0.1.off0 = phi i1 [ true, %start ], [ true, %switch.early.test ], [ true, %bb11 ], [ true, %switch.early.test11 ], [ %switch.masked, %switch.lookup ], [ false, %bb14 ]
  ret i1 %_0.sroa.0.1.off0

bb14:                                             ; preds = %bb11
  %_16.i.i.i16 = getelementptr inbounds nuw i8, ptr %ptr.i.i.i, i64 2
  store ptr %_16.i.i.i16, ptr %chars, align 8, !alias.scope !62, !noalias !65
  %v.i.i17 = load i8, ptr %_16.i.i.i, align 1, !noalias !67, !noundef !8
  %_8.0.i19 = add i64 %i.i, 2
  store i64 %_8.0.i19, ptr %1, align 8, !alias.scope !56, !noalias !65
  %3 = add i8 %v.i.i17, -48
  %or.cond4 = icmp ult i8 %3, 10
  br i1 %or.cond4, label %bb24, label %switch.early.test11

switch.early.test11:                              ; preds = %bb14
  %switch.tableidx = add i8 %v.i.i17, -65
  %4 = icmp ult i8 %switch.tableidx, 38
  br i1 %4, label %switch.lookup, label %bb24
}

; proc_macro2::parse::backslash_x_char::<core::str::iter::CharIndices>
; Function Attrs: mustprogress nofree norecurse nosync nounwind willreturn memory(read, argmem: readwrite, inaccessiblemem: readwrite) uwtable
define internal fastcc noundef zeroext i1 @_RINvNtCsfcjqfaF2v4X_11proc_macro25parse16backslash_x_charNtNtNtCsjMrxcFdYDNN_4core3str4iter11CharIndicesEB4_(ptr noalias noundef nonnull align 8 captures(none) dereferenceable(24) %chars) unnamed_addr #1 {
start:
  tail call void @llvm.experimental.noalias.scope.decl(metadata !68)
  %0 = getelementptr inbounds nuw i8, ptr %chars, i64 8
  %_4.i3.i = load ptr, ptr %0, align 8, !alias.scope !71, !nonnull !8, !noundef !8
  %subtracted.i4.i = load ptr, ptr %chars, align 8, !alias.scope !71, !nonnull !8, !noundef !8
  %1 = ptrtoint ptr %subtracted.i4.i to i64
  tail call void @llvm.experimental.noalias.scope.decl(metadata !74)
  %_6.i.i.i = icmp eq ptr %subtracted.i4.i, %_4.i3.i
  br i1 %_6.i.i.i, label %bb20, label %bb14.i.i

bb14.i.i:                                         ; preds = %start
  %_16.i.i.i = getelementptr inbounds nuw i8, ptr %subtracted.i4.i, i64 1
  store ptr %_16.i.i.i, ptr %chars, align 8, !alias.scope !77
  %x.i.i = load i8, ptr %subtracted.i4.i, align 1, !noalias !80, !noundef !8
  %_6.i.i = icmp sgt i8 %x.i.i, -1
  br i1 %_6.i.i, label %bb3.i.i, label %bb4.i.i

bb4.i.i:                                          ; preds = %bb14.i.i
  %_30.i.i = and i8 %x.i.i, 31
  %init.i.i = zext nneg i8 %_30.i.i to i32
  %_6.i10.i.i = icmp ne ptr %_16.i.i.i, %_4.i3.i
  tail call void @llvm.assume(i1 %_6.i10.i.i)
  %_16.i12.i.i = getelementptr inbounds nuw i8, ptr %subtracted.i4.i, i64 2
  store ptr %_16.i12.i.i, ptr %chars, align 8, !alias.scope !81
  %y.i.i = load i8, ptr %_16.i.i.i, align 1, !noalias !80, !noundef !8
  %_33.i.i = shl nuw nsw i32 %init.i.i, 6
  %_35.i.i = and i8 %y.i.i, 63
  %_34.i.i = zext nneg i8 %_35.i.i to i32
  %2 = or disjoint i32 %_33.i.i, %_34.i.i
  %_13.i.i = icmp samesign ugt i8 %x.i.i, -33
  br i1 %_13.i.i, label %bb6.i.i, label %_RNvXs3_NtNtCsjMrxcFdYDNN_4core3str4iterNtB5_11CharIndicesNtNtNtNtB9_4iter6traits8iterator8Iterator4next.exit

bb3.i.i:                                          ; preds = %bb14.i.i
  %_7.i.i = zext nneg i8 %x.i.i to i32
  br label %_RNvXs3_NtNtCsjMrxcFdYDNN_4core3str4iterNtB5_11CharIndicesNtNtNtNtB9_4iter6traits8iterator8Iterator4next.exit

bb6.i.i:                                          ; preds = %bb4.i.i
  %_6.i17.i.i = icmp ne ptr %_16.i12.i.i, %_4.i3.i
  tail call void @llvm.assume(i1 %_6.i17.i.i)
  %_16.i19.i.i = getelementptr inbounds nuw i8, ptr %subtracted.i4.i, i64 3
  store ptr %_16.i19.i.i, ptr %chars, align 8, !alias.scope !84
  %z.i.i = load i8, ptr %_16.i12.i.i, align 1, !noalias !80, !noundef !8
  %_38.i.i = shl nuw nsw i32 %_34.i.i, 6
  %_40.i.i = and i8 %z.i.i, 63
  %_39.i.i = zext nneg i8 %_40.i.i to i32
  %y_z.i.i = or disjoint i32 %_38.i.i, %_39.i.i
  %_20.i.i = shl nuw nsw i32 %init.i.i, 12
  %3 = or disjoint i32 %y_z.i.i, %_20.i.i
  %_21.i.i = icmp samesign ugt i8 %x.i.i, -17
  br i1 %_21.i.i, label %bb8.i.i, label %_RNvXs3_NtNtCsjMrxcFdYDNN_4core3str4iterNtB5_11CharIndicesNtNtNtNtB9_4iter6traits8iterator8Iterator4next.exit

bb8.i.i:                                          ; preds = %bb6.i.i
  %_6.i24.i.i = icmp ne ptr %_16.i19.i.i, %_4.i3.i
  tail call void @llvm.assume(i1 %_6.i24.i.i)
  %_16.i26.i.i = getelementptr inbounds nuw i8, ptr %subtracted.i4.i, i64 4
  store ptr %_16.i26.i.i, ptr %chars, align 8, !alias.scope !87
  %w.i.i = load i8, ptr %_16.i19.i.i, align 1, !noalias !80, !noundef !8
  %_26.i.i = shl nuw nsw i32 %init.i.i, 18
  %_25.i.i = and i32 %_26.i.i, 1835008
  %_43.i.i = shl nuw nsw i32 %y_z.i.i, 6
  %_45.i.i = and i8 %w.i.i, 63
  %_44.i.i = zext nneg i8 %_45.i.i to i32
  %_27.i.i = or disjoint i32 %_43.i.i, %_44.i.i
  %4 = or disjoint i32 %_27.i.i, %_25.i.i
  br label %_RNvXs3_NtNtCsjMrxcFdYDNN_4core3str4iterNtB5_11CharIndicesNtNtNtNtB9_4iter6traits8iterator8Iterator4next.exit

_RNvXs3_NtNtCsjMrxcFdYDNN_4core3str4iterNtB5_11CharIndicesNtNtNtNtB9_4iter6traits8iterator8Iterator4next.exit: ; preds = %bb4.i.i, %bb3.i.i, %bb6.i.i, %bb8.i.i
  %subtracted.i4.i12 = phi ptr [ %_16.i12.i.i, %bb4.i.i ], [ %_16.i19.i.i, %bb6.i.i ], [ %_16.i26.i.i, %bb8.i.i ], [ %_16.i.i.i, %bb3.i.i ]
  %_0.sroa.4.0.i.ph.i = phi i32 [ %2, %bb4.i.i ], [ %3, %bb6.i.i ], [ %4, %bb8.i.i ], [ %_7.i.i, %bb3.i.i ]
  %5 = icmp samesign ult i32 %_0.sroa.4.0.i.ph.i, 1114112
  tail call void @llvm.assume(i1 %5)
  %6 = getelementptr inbounds nuw i8, ptr %chars, i64 16
  %index.i = load i64, ptr %6, align 8, !alias.scope !68, !noundef !8
  %7 = ptrtoint ptr %subtracted.i4.i12 to i64
  %_10.i = sub i64 %7, %1
  %8 = add i64 %_10.i, %index.i
  store i64 %8, ptr %6, align 8, !alias.scope !68
  %9 = and i32 %_0.sroa.4.0.i.ph.i, 2097144
  %or.cond = icmp eq i32 %9, 48
  br i1 %or.cond, label %bb6, label %bb20

bb6:                                              ; preds = %_RNvXs3_NtNtCsjMrxcFdYDNN_4core3str4iterNtB5_11CharIndicesNtNtNtNtB9_4iter6traits8iterator8Iterator4next.exit
  tail call void @llvm.experimental.noalias.scope.decl(metadata !90)
  tail call void @llvm.experimental.noalias.scope.decl(metadata !93)
  %_6.i.i.i13 = icmp eq ptr %subtracted.i4.i12, %_4.i3.i
  br i1 %_6.i.i.i13, label %bb20, label %bb14.i.i14

bb14.i.i14:                                       ; preds = %bb6
  %_16.i.i.i15 = getelementptr inbounds nuw i8, ptr %subtracted.i4.i12, i64 1
  store ptr %_16.i.i.i15, ptr %chars, align 8, !alias.scope !96
  %x.i.i16 = load i8, ptr %subtracted.i4.i12, align 1, !noalias !99, !noundef !8
  %_6.i.i17 = icmp sgt i8 %x.i.i16, -1
  br i1 %_6.i.i17, label %bb3.i.i55, label %bb4.i.i18

bb4.i.i18:                                        ; preds = %bb14.i.i14
  %_30.i.i19 = and i8 %x.i.i16, 31
  %init.i.i20 = zext nneg i8 %_30.i.i19 to i32
  %_6.i10.i.i21 = icmp ne ptr %_16.i.i.i15, %_4.i3.i
  tail call void @llvm.assume(i1 %_6.i10.i.i21)
  %_16.i12.i.i22 = getelementptr inbounds nuw i8, ptr %subtracted.i4.i12, i64 2
  store ptr %_16.i12.i.i22, ptr %chars, align 8, !alias.scope !100
  %y.i.i23 = load i8, ptr %_16.i.i.i15, align 1, !noalias !99, !noundef !8
  %_33.i.i24 = shl nuw nsw i32 %init.i.i20, 6
  %_35.i.i25 = and i8 %y.i.i23, 63
  %_34.i.i26 = zext nneg i8 %_35.i.i25 to i32
  %10 = or disjoint i32 %_33.i.i24, %_34.i.i26
  %_13.i.i27 = icmp samesign ugt i8 %x.i.i16, -33
  br i1 %_13.i.i27, label %bb6.i.i35, label %bb10

bb3.i.i55:                                        ; preds = %bb14.i.i14
  %_7.i.i56 = zext nneg i8 %x.i.i16 to i32
  br label %bb10

bb6.i.i35:                                        ; preds = %bb4.i.i18
  %_6.i17.i.i36 = icmp ne ptr %_16.i12.i.i22, %_4.i3.i
  tail call void @llvm.assume(i1 %_6.i17.i.i36)
  %_16.i19.i.i37 = getelementptr inbounds nuw i8, ptr %subtracted.i4.i12, i64 3
  store ptr %_16.i19.i.i37, ptr %chars, align 8, !alias.scope !103
  %z.i.i38 = load i8, ptr %_16.i12.i.i22, align 1, !noalias !99, !noundef !8
  %_38.i.i39 = shl nuw nsw i32 %_34.i.i26, 6
  %_40.i.i40 = and i8 %z.i.i38, 63
  %_39.i.i41 = zext nneg i8 %_40.i.i40 to i32
  %y_z.i.i42 = or disjoint i32 %_38.i.i39, %_39.i.i41
  %_20.i.i43 = shl nuw nsw i32 %init.i.i20, 12
  %11 = or disjoint i32 %y_z.i.i42, %_20.i.i43
  %_21.i.i44 = icmp samesign ugt i8 %x.i.i16, -17
  br i1 %_21.i.i44, label %bb8.i.i45, label %bb10

bb8.i.i45:                                        ; preds = %bb6.i.i35
  %_6.i24.i.i46 = icmp ne ptr %_16.i19.i.i37, %_4.i3.i
  tail call void @llvm.assume(i1 %_6.i24.i.i46)
  %_16.i26.i.i47 = getelementptr inbounds nuw i8, ptr %subtracted.i4.i12, i64 4
  store ptr %_16.i26.i.i47, ptr %chars, align 8, !alias.scope !106
  %w.i.i48 = load i8, ptr %_16.i19.i.i37, align 1, !noalias !99, !noundef !8
  %_26.i.i49 = shl nuw nsw i32 %init.i.i20, 18
  %_25.i.i50 = and i32 %_26.i.i49, 1835008
  %_43.i.i51 = shl nuw nsw i32 %y_z.i.i42, 6
  %_45.i.i52 = and i8 %w.i.i48, 63
  %_44.i.i53 = zext nneg i8 %_45.i.i52 to i32
  %_27.i.i54 = or disjoint i32 %_43.i.i51, %_44.i.i53
  %12 = or disjoint i32 %_27.i.i54, %_25.i.i50
  br label %bb10

switch.lookup:                                    ; preds = %switch.early.test
  %switch.cast = zext nneg i32 %switch.tableidx to i38
  %switch.downshift = lshr i38 4294967232, %switch.cast
  %switch.masked = trunc i38 %switch.downshift to i1
  br label %bb20

bb20:                                             ; preds = %switch.early.test, %switch.lookup, %bb6, %start, %bb10, %_RNvXs3_NtNtCsjMrxcFdYDNN_4core3str4iterNtB5_11CharIndicesNtNtNtNtB9_4iter6traits8iterator8Iterator4next.exit
  %_0.sroa.0.1.off0 = phi i1 [ true, %_RNvXs3_NtNtCsjMrxcFdYDNN_4core3str4iterNtB5_11CharIndicesNtNtNtNtB9_4iter6traits8iterator8Iterator4next.exit ], [ false, %bb10 ], [ true, %start ], [ true, %bb6 ], [ %switch.masked, %switch.lookup ], [ true, %switch.early.test ]
  ret i1 %_0.sroa.0.1.off0

bb10:                                             ; preds = %bb8.i.i45, %bb6.i.i35, %bb3.i.i55, %bb4.i.i18
  %subtracted.i.i29 = phi ptr [ %_16.i12.i.i22, %bb4.i.i18 ], [ %_16.i19.i.i37, %bb6.i.i35 ], [ %_16.i26.i.i47, %bb8.i.i45 ], [ %_16.i.i.i15, %bb3.i.i55 ]
  %_0.sroa.4.0.i.ph.i30 = phi i32 [ %10, %bb4.i.i18 ], [ %11, %bb6.i.i35 ], [ %12, %bb8.i.i45 ], [ %_7.i.i56, %bb3.i.i55 ]
  %_0.sroa.4.0.i.ph.i30.fr = freeze i32 %_0.sroa.4.0.i.ph.i30
  %13 = icmp samesign ult i32 %_0.sroa.4.0.i.ph.i30.fr, 1114112
  tail call void @llvm.assume(i1 %13)
  %14 = ptrtoint ptr %subtracted.i.i29 to i64
  %_10.i32 = sub i64 %14, %7
  %15 = add i64 %_10.i32, %8
  store i64 %15, ptr %6, align 8, !alias.scope !90
  %16 = add nsw i32 %_0.sroa.4.0.i.ph.i30.fr, -48
  %or.cond2 = icmp ult i32 %16, 10
  br i1 %or.cond2, label %bb20, label %switch.early.test

switch.early.test:                                ; preds = %bb10
  %switch.tableidx = add nsw i32 %_0.sroa.4.0.i.ph.i30.fr, -65
  %17 = icmp ult i32 %switch.tableidx, 38
  br i1 %17, label %switch.lookup, label %bb20
}

; core::ptr::drop_in_place::<alloc::rc::Weak<alloc::vec::Vec<proc_macro2::TokenTree>, &alloc::alloc::Global>>
; Function Attrs: nounwind uwtable
define internal fastcc void @_RINvNtCsjMrxcFdYDNN_4core3ptr13drop_in_placeINtNtCsdJPVW0sQgAG_5alloc2rc4WeakINtNtBL_3vec3VecNtCsfcjqfaF2v4X_11proc_macro29TokenTreeERNtNtBL_5alloc6GlobalEEB1v_(ptr %_1.0.val) unnamed_addr #2 {
start:
  %0 = icmp ne ptr %_1.0.val, null
  tail call void @llvm.assume(i1 %0)
  %_15.i = icmp eq ptr %_1.0.val, inttoptr (i64 -1 to ptr)
  br i1 %_15.i, label %_RNvXs1d_NtCsdJPVW0sQgAG_5alloc2rcINtB6_4WeakINtNtB8_3vec3VecNtCsfcjqfaF2v4X_11proc_macro29TokenTreeERNtNtB8_5alloc6GlobalENtNtNtCsjMrxcFdYDNN_4core3ops4drop4Drop4dropBY_.exit, label %bb7.i

bb7.i:                                            ; preds = %start
  %_22.i = getelementptr inbounds nuw i8, ptr %_1.0.val, i64 8
  %_27.i = load i64, ptr %_22.i, align 8, !noundef !8
  %val.i = add i64 %_27.i, -1
  store i64 %val.i, ptr %_22.i, align 8
  %1 = icmp eq i64 %val.i, 0
  br i1 %1, label %bb1.i, label %_RNvXs1d_NtCsdJPVW0sQgAG_5alloc2rcINtB6_4WeakINtNtB8_3vec3VecNtCsfcjqfaF2v4X_11proc_macro29TokenTreeERNtNtB8_5alloc6GlobalENtNtNtCsjMrxcFdYDNN_4core3ops4drop4Drop4dropBY_.exit

bb1.i:                                            ; preds = %bb7.i
; call __rustc::__rust_dealloc
  tail call void @_RNvCsKhRCbHf33p_7___rustc14___rust_dealloc(ptr noundef nonnull %_1.0.val, i64 noundef 40, i64 noundef 8) #30
  br label %_RNvXs1d_NtCsdJPVW0sQgAG_5alloc2rcINtB6_4WeakINtNtB8_3vec3VecNtCsfcjqfaF2v4X_11proc_macro29TokenTreeERNtNtB8_5alloc6GlobalENtNtNtCsjMrxcFdYDNN_4core3ops4drop4Drop4dropBY_.exit

_RNvXs1d_NtCsdJPVW0sQgAG_5alloc2rcINtB6_4WeakINtNtB8_3vec3VecNtCsfcjqfaF2v4X_11proc_macro29TokenTreeERNtNtB8_5alloc6GlobalENtNtNtCsjMrxcFdYDNN_4core3ops4drop4Drop4dropBY_.exit: ; preds = %start, %bb7.i, %bb1.i
  ret void
}

; core::ptr::drop_in_place::<alloc::rc::RcInner<alloc::vec::Vec<proc_macro2::TokenTree>>>
; Function Attrs: uwtable
define internal fastcc void @_RINvNtCsjMrxcFdYDNN_4core3ptr13drop_in_placeINtNtCsdJPVW0sQgAG_5alloc2rc7RcInnerINtNtBL_3vec3VecNtCsfcjqfaF2v4X_11proc_macro29TokenTreeEEEB1y_(ptr noalias noundef nonnull readonly align 8 captures(none) dereferenceable(40) %_1) unnamed_addr #3 personality ptr @rust_eh_personality {
start:
  %0 = getelementptr inbounds nuw i8, ptr %_1, i64 16
  tail call void @llvm.experimental.noalias.scope.decl(metadata !109)
  %1 = getelementptr inbounds nuw i8, ptr %_1, i64 24
  %_5.i.i = load ptr, ptr %1, align 8, !alias.scope !112, !nonnull !8, !noundef !8
  %2 = getelementptr inbounds nuw i8, ptr %_1, i64 32
  %len.i.i = load i64, ptr %2, align 8, !alias.scope !112, !noundef !8
; invoke core::ptr::drop_in_place::<[proc_macro2::TokenTree]>
  invoke fastcc void @_RINvNtCsjMrxcFdYDNN_4core3ptr13drop_in_placeSNtCsfcjqfaF2v4X_11proc_macro29TokenTreeEBJ_(ptr noalias noundef nonnull align 8 %_5.i.i, i64 noundef %len.i.i)
          to label %bb4.i unwind label %cleanup.i, !noalias !109

cleanup.i:                                        ; preds = %start
  %3 = landingpad { ptr, i32 }
          cleanup
  %_1.val.i = load i64, ptr %0, align 8, !range !115, !alias.scope !109, !noundef !8
  %4 = icmp eq i64 %_1.val.i, 0
  br i1 %4, label %bb1.i, label %bb2.i.i.i.i

bb2.i.i.i.i:                                      ; preds = %cleanup.i
  %alloc_size.i.i.i.i.i = shl nuw i64 %_1.val.i, 5
; call __rustc::__rust_dealloc
  tail call void @_RNvCsKhRCbHf33p_7___rustc14___rust_dealloc(ptr noundef nonnull %_5.i.i, i64 noundef %alloc_size.i.i.i.i.i, i64 noundef range(i64 1, -9223372036854775807) 8) #30, !noalias !109
  br label %bb1.i

bb4.i:                                            ; preds = %start
  %_1.val2.i = load i64, ptr %0, align 8, !range !115, !alias.scope !109, !noundef !8
  %5 = icmp eq i64 %_1.val2.i, 0
  br i1 %5, label %_RINvNtCsjMrxcFdYDNN_4core3ptr13drop_in_placeINtNtCsdJPVW0sQgAG_5alloc3vec3VecNtCsfcjqfaF2v4X_11proc_macro29TokenTreeEEB1f_.exit, label %bb2.i.i.i4.i

bb2.i.i.i4.i:                                     ; preds = %bb4.i
  %alloc_size.i.i.i.i5.i = shl nuw i64 %_1.val2.i, 5
; call __rustc::__rust_dealloc
  tail call void @_RNvCsKhRCbHf33p_7___rustc14___rust_dealloc(ptr noundef nonnull %_5.i.i, i64 noundef %alloc_size.i.i.i.i5.i, i64 noundef range(i64 1, -9223372036854775807) 8) #30, !noalias !109
  br label %_RINvNtCsjMrxcFdYDNN_4core3ptr13drop_in_placeINtNtCsdJPVW0sQgAG_5alloc3vec3VecNtCsfcjqfaF2v4X_11proc_macro29TokenTreeEEB1f_.exit

bb1.i:                                            ; preds = %bb2.i.i.i.i, %cleanup.i
  resume { ptr, i32 } %3

_RINvNtCsjMrxcFdYDNN_4core3ptr13drop_in_placeINtNtCsdJPVW0sQgAG_5alloc3vec3VecNtCsfcjqfaF2v4X_11proc_macro29TokenTreeEEB1f_.exit: ; preds = %bb4.i, %bb2.i.i.i4.i
  ret void
}

; core::ptr::drop_in_place::<alloc::vec::Vec<proc_macro::bridge::TokenTree<proc_macro::bridge::client::TokenStream, proc_macro::bridge::client::Span, proc_macro::bridge::symbol::Symbol>>>
; Function Attrs: uwtable
define internal fastcc void @_RINvNtCsjMrxcFdYDNN_4core3ptr13drop_in_placeINtNtCsdJPVW0sQgAG_5alloc3vec3VecINtNtCsbtZo8rQoR5w_10proc_macro6bridge9TokenTreeNtNtB1g_6client11TokenStreamNtB21_4SpanNtNtB1g_6symbol6SymbolEEECsfcjqfaF2v4X_11proc_macro2(ptr noalias noundef nonnull readonly align 8 captures(none) dereferenceable(24) %_1) unnamed_addr #3 personality ptr @rust_eh_personality {
start:
  %0 = getelementptr inbounds nuw i8, ptr %_1, i64 8
  %_1.val = load ptr, ptr %0, align 8, !nonnull !8, !noundef !8
  %1 = getelementptr inbounds nuw i8, ptr %_1, i64 16
  %_1.val1 = load i64, ptr %1, align 8, !noundef !8
  %_710.i.i = icmp eq i64 %_1.val1, 0
  br i1 %_710.i.i, label %bb4, label %bb5.i.i

bb5.i.i:                                          ; preds = %start, %_RINvNtCsjMrxcFdYDNN_4core3ptr13drop_in_placeINtNtCsbtZo8rQoR5w_10proc_macro6bridge9TokenTreeNtNtBJ_6client11TokenStreamNtB1u_4SpanNtNtBJ_6symbol6SymbolEECsfcjqfaF2v4X_11proc_macro2.exit.i.i
  %_3.sroa.0.011.i.i = phi i64 [ %2, %_RINvNtCsjMrxcFdYDNN_4core3ptr13drop_in_placeINtNtCsbtZo8rQoR5w_10proc_macro6bridge9TokenTreeNtNtBJ_6client11TokenStreamNtB1u_4SpanNtNtBJ_6symbol6SymbolEECsfcjqfaF2v4X_11proc_macro2.exit.i.i ], [ 0, %start ]
  %_6.i.i = getelementptr inbounds nuw %"proc_macro::bridge::TokenTree<proc_macro::bridge::client::TokenStream, proc_macro::bridge::client::Span, proc_macro::bridge::symbol::Symbol>", ptr %_1.val, i64 %_3.sroa.0.011.i.i
  %2 = add nuw i64 %_3.sroa.0.011.i.i, 1
  %3 = getelementptr inbounds nuw i8, ptr %_6.i.i, i64 16
  %4 = load i8, ptr %3, align 4, !range !116, !alias.scope !117, !noundef !8
  %5 = icmp samesign ult i8 %4, 4
  br i1 %5, label %bb2.i.i.i, label %_RINvNtCsjMrxcFdYDNN_4core3ptr13drop_in_placeINtNtCsbtZo8rQoR5w_10proc_macro6bridge9TokenTreeNtNtBJ_6client11TokenStreamNtB1u_4SpanNtNtBJ_6symbol6SymbolEECsfcjqfaF2v4X_11proc_macro2.exit.i.i

bb2.i.i.i:                                        ; preds = %bb5.i.i
  %6 = getelementptr inbounds nuw i8, ptr %_6.i.i, i64 12
  %7 = load i32, ptr %6, align 4, !alias.scope !122, !noundef !8
  %8 = icmp eq i32 %7, 0
  br i1 %8, label %_RINvNtCsjMrxcFdYDNN_4core3ptr13drop_in_placeINtNtCsbtZo8rQoR5w_10proc_macro6bridge9TokenTreeNtNtBJ_6client11TokenStreamNtB1u_4SpanNtNtBJ_6symbol6SymbolEECsfcjqfaF2v4X_11proc_macro2.exit.i.i, label %bb2.i.i.i.i.i

bb2.i.i.i.i.i:                                    ; preds = %bb2.i.i.i
; invoke <proc_macro::bridge::client::TokenStream as core::ops::drop::Drop>::drop
  invoke void @_RNvXsi_NtNtCsbtZo8rQoR5w_10proc_macro6bridge6clientNtB5_11TokenStreamNtNtNtCsjMrxcFdYDNN_4core3ops4drop4Drop4drop(ptr noalias noundef nonnull align 4 dereferenceable(4) %6)
          to label %_RINvNtCsjMrxcFdYDNN_4core3ptr13drop_in_placeINtNtCsbtZo8rQoR5w_10proc_macro6bridge9TokenTreeNtNtBJ_6client11TokenStreamNtB1u_4SpanNtNtBJ_6symbol6SymbolEECsfcjqfaF2v4X_11proc_macro2.exit.i.i unwind label %cleanup.i.i

_RINvNtCsjMrxcFdYDNN_4core3ptr13drop_in_placeINtNtCsbtZo8rQoR5w_10proc_macro6bridge9TokenTreeNtNtBJ_6client11TokenStreamNtB1u_4SpanNtNtBJ_6symbol6SymbolEECsfcjqfaF2v4X_11proc_macro2.exit.i.i: ; preds = %bb2.i.i.i.i.i, %bb2.i.i.i, %bb5.i.i
  %_7.i.i = icmp eq i64 %2, %_1.val1
  br i1 %_7.i.i, label %bb4, label %bb5.i.i

cleanup.i.i:                                      ; preds = %bb2.i.i.i.i.i
  %9 = landingpad { ptr, i32 }
          cleanup
  %_512.i.i = icmp eq i64 %2, %_1.val1
  br i1 %_512.i.i, label %cleanup.body, label %bb3.i.i

bb3.i.i:                                          ; preds = %cleanup.i.i, %_RINvNtCsjMrxcFdYDNN_4core3ptr13drop_in_placeINtNtCsbtZo8rQoR5w_10proc_macro6bridge9TokenTreeNtNtBJ_6client11TokenStreamNtB1u_4SpanNtNtBJ_6symbol6SymbolEECsfcjqfaF2v4X_11proc_macro2.exit9.i.i
  %_3.sroa.0.113.i.i = phi i64 [ %10, %_RINvNtCsjMrxcFdYDNN_4core3ptr13drop_in_placeINtNtCsbtZo8rQoR5w_10proc_macro6bridge9TokenTreeNtNtBJ_6client11TokenStreamNtB1u_4SpanNtNtBJ_6symbol6SymbolEECsfcjqfaF2v4X_11proc_macro2.exit9.i.i ], [ %2, %cleanup.i.i ]
  %_4.i.i = getelementptr inbounds nuw %"proc_macro::bridge::TokenTree<proc_macro::bridge::client::TokenStream, proc_macro::bridge::client::Span, proc_macro::bridge::symbol::Symbol>", ptr %_1.val, i64 %_3.sroa.0.113.i.i
  %10 = add i64 %_3.sroa.0.113.i.i, 1
  %11 = getelementptr inbounds nuw i8, ptr %_4.i.i, i64 16
  %12 = load i8, ptr %11, align 4, !range !116, !alias.scope !127, !noundef !8
  %13 = icmp samesign ult i8 %12, 4
  br i1 %13, label %bb2.i6.i.i, label %_RINvNtCsjMrxcFdYDNN_4core3ptr13drop_in_placeINtNtCsbtZo8rQoR5w_10proc_macro6bridge9TokenTreeNtNtBJ_6client11TokenStreamNtB1u_4SpanNtNtBJ_6symbol6SymbolEECsfcjqfaF2v4X_11proc_macro2.exit9.i.i

bb2.i6.i.i:                                       ; preds = %bb3.i.i
  %14 = getelementptr inbounds nuw i8, ptr %_4.i.i, i64 12
  %15 = load i32, ptr %14, align 4, !alias.scope !130, !noundef !8
  %16 = icmp eq i32 %15, 0
  br i1 %16, label %_RINvNtCsjMrxcFdYDNN_4core3ptr13drop_in_placeINtNtCsbtZo8rQoR5w_10proc_macro6bridge9TokenTreeNtNtBJ_6client11TokenStreamNtB1u_4SpanNtNtBJ_6symbol6SymbolEECsfcjqfaF2v4X_11proc_macro2.exit9.i.i, label %bb2.i.i.i7.i.i

bb2.i.i.i7.i.i:                                   ; preds = %bb2.i6.i.i
; invoke <proc_macro::bridge::client::TokenStream as core::ops::drop::Drop>::drop
  invoke void @_RNvXsi_NtNtCsbtZo8rQoR5w_10proc_macro6bridge6clientNtB5_11TokenStreamNtNtNtCsjMrxcFdYDNN_4core3ops4drop4Drop4drop(ptr noalias noundef nonnull align 4 dereferenceable(4) %14)
          to label %_RINvNtCsjMrxcFdYDNN_4core3ptr13drop_in_placeINtNtCsbtZo8rQoR5w_10proc_macro6bridge9TokenTreeNtNtBJ_6client11TokenStreamNtB1u_4SpanNtNtBJ_6symbol6SymbolEECsfcjqfaF2v4X_11proc_macro2.exit9.i.i unwind label %terminate.i.i

_RINvNtCsjMrxcFdYDNN_4core3ptr13drop_in_placeINtNtCsbtZo8rQoR5w_10proc_macro6bridge9TokenTreeNtNtBJ_6client11TokenStreamNtB1u_4SpanNtNtBJ_6symbol6SymbolEECsfcjqfaF2v4X_11proc_macro2.exit9.i.i: ; preds = %bb2.i.i.i7.i.i, %bb2.i6.i.i, %bb3.i.i
  %_5.i.i = icmp eq i64 %10, %_1.val1
  br i1 %_5.i.i, label %cleanup.body, label %bb3.i.i

terminate.i.i:                                    ; preds = %bb2.i.i.i7.i.i
  %17 = landingpad { ptr, i32 }
          filter [0 x ptr] zeroinitializer
; call core::panicking::panic_in_cleanup
  tail call void @_RNvNtCsjMrxcFdYDNN_4core9panicking16panic_in_cleanup() #31
  unreachable

cleanup.body:                                     ; preds = %_RINvNtCsjMrxcFdYDNN_4core3ptr13drop_in_placeINtNtCsbtZo8rQoR5w_10proc_macro6bridge9TokenTreeNtNtBJ_6client11TokenStreamNtB1u_4SpanNtNtBJ_6symbol6SymbolEECsfcjqfaF2v4X_11proc_macro2.exit9.i.i, %cleanup.i.i
  %_1.val2 = load i64, ptr %_1, align 8, !range !115, !noundef !8
  %18 = icmp eq i64 %_1.val2, 0
  br i1 %18, label %bb1, label %bb2.i.i.i6

bb2.i.i.i6:                                       ; preds = %cleanup.body
  %alloc_size.i.i.i.i = mul nuw i64 %_1.val2, 20
; call __rustc::__rust_dealloc
  tail call void @_RNvCsKhRCbHf33p_7___rustc14___rust_dealloc(ptr noundef nonnull %_1.val, i64 noundef %alloc_size.i.i.i.i, i64 noundef range(i64 1, -9223372036854775807) 4) #30
  br label %bb1

bb4:                                              ; preds = %_RINvNtCsjMrxcFdYDNN_4core3ptr13drop_in_placeINtNtCsbtZo8rQoR5w_10proc_macro6bridge9TokenTreeNtNtBJ_6client11TokenStreamNtB1u_4SpanNtNtBJ_6symbol6SymbolEECsfcjqfaF2v4X_11proc_macro2.exit.i.i, %start
  %_1.val4 = load i64, ptr %_1, align 8, !range !115, !noundef !8
  %19 = icmp eq i64 %_1.val4, 0
  br i1 %19, label %_RINvNtCsjMrxcFdYDNN_4core3ptr13drop_in_placeINtNtCsdJPVW0sQgAG_5alloc7raw_vec6RawVecINtNtCsbtZo8rQoR5w_10proc_macro6bridge9TokenTreeNtNtB1n_6client11TokenStreamNtB28_4SpanNtNtB1n_6symbol6SymbolEEECsfcjqfaF2v4X_11proc_macro2.exit9, label %bb2.i.i.i7

bb2.i.i.i7:                                       ; preds = %bb4
  %alloc_size.i.i.i.i8 = mul nuw i64 %_1.val4, 20
; call __rustc::__rust_dealloc
  tail call void @_RNvCsKhRCbHf33p_7___rustc14___rust_dealloc(ptr noundef nonnull %_1.val, i64 noundef %alloc_size.i.i.i.i8, i64 noundef range(i64 1, -9223372036854775807) 4) #30
  br label %_RINvNtCsjMrxcFdYDNN_4core3ptr13drop_in_placeINtNtCsdJPVW0sQgAG_5alloc7raw_vec6RawVecINtNtCsbtZo8rQoR5w_10proc_macro6bridge9TokenTreeNtNtB1n_6client11TokenStreamNtB28_4SpanNtNtB1n_6symbol6SymbolEEECsfcjqfaF2v4X_11proc_macro2.exit9

_RINvNtCsjMrxcFdYDNN_4core3ptr13drop_in_placeINtNtCsdJPVW0sQgAG_5alloc7raw_vec6RawVecINtNtCsbtZo8rQoR5w_10proc_macro6bridge9TokenTreeNtNtB1n_6client11TokenStreamNtB28_4SpanNtNtB1n_6symbol6SymbolEEECsfcjqfaF2v4X_11proc_macro2.exit9: ; preds = %bb4, %bb2.i.i.i7
  ret void

bb1:                                              ; preds = %bb2.i.i.i6, %cleanup.body
  resume { ptr, i32 } %9
}

; core::ptr::drop_in_place::<alloc::vec::Vec<proc_macro2::rcvec::RcVecIntoIter<proc_macro2::TokenTree>>>
; Function Attrs: uwtable
define internal fastcc void @_RINvNtCsjMrxcFdYDNN_4core3ptr13drop_in_placeINtNtCsdJPVW0sQgAG_5alloc3vec3VecINtNtCsfcjqfaF2v4X_11proc_macro25rcvec13RcVecIntoIterNtB1i_9TokenTreeEEEB1i_(ptr noalias noundef nonnull readonly align 8 captures(none) dereferenceable(24) %_1) unnamed_addr #3 personality ptr @rust_eh_personality {
start:
  %0 = getelementptr inbounds nuw i8, ptr %_1, i64 8
  %_5.i = load ptr, ptr %0, align 8, !alias.scope !135, !nonnull !8, !noundef !8
  %1 = getelementptr inbounds nuw i8, ptr %_1, i64 16
  %len.i = load i64, ptr %1, align 8, !alias.scope !135, !noundef !8
  %_7.i9 = icmp eq i64 %len.i, 0
  br i1 %_7.i9, label %bb4, label %bb5.i

bb5.i:                                            ; preds = %start, %_RINvNtCsjMrxcFdYDNN_4core3ptr13drop_in_placeINtNtCsfcjqfaF2v4X_11proc_macro25rcvec13RcVecIntoIterNtBL_9TokenTreeEEBL_.exit.i
  %_3.sroa.0.0.i10 = phi i64 [ %2, %_RINvNtCsjMrxcFdYDNN_4core3ptr13drop_in_placeINtNtCsfcjqfaF2v4X_11proc_macro25rcvec13RcVecIntoIterNtBL_9TokenTreeEEBL_.exit.i ], [ 0, %start ]
  %_6.i = getelementptr inbounds nuw %"rcvec::RcVecIntoIter<TokenTree>", ptr %_5.i, i64 %_3.sroa.0.0.i10
  %2 = add nuw i64 %_3.sroa.0.0.i10, 1
  %3 = getelementptr i8, ptr %_6.i, i64 8
  %self.val.i.i = load ptr, ptr %3, align 8, !alias.scope !138, !nonnull !8, !noundef !8
  %4 = getelementptr i8, ptr %_6.i, i64 24
  %self.val1.i.i = load ptr, ptr %4, align 8, !alias.scope !138, !nonnull !8, !noundef !8
  %5 = ptrtoint ptr %self.val1.i.i to i64
  %6 = ptrtoint ptr %self.val.i.i to i64
  %7 = sub nuw i64 %5, %6
  %8 = lshr exact i64 %7, 5
; invoke core::ptr::drop_in_place::<[proc_macro2::TokenTree]>
  invoke fastcc void @_RINvNtCsjMrxcFdYDNN_4core3ptr13drop_in_placeSNtCsfcjqfaF2v4X_11proc_macro29TokenTreeEBJ_(ptr noalias noundef nonnull align 8 %self.val.i.i, i64 noundef %8)
          to label %_RNvXse_NtNtCsdJPVW0sQgAG_5alloc3vec9into_iterINtB5_8IntoIterNtCsfcjqfaF2v4X_11proc_macro29TokenTreeENtNtNtCsjMrxcFdYDNN_4core3ops4drop4Drop4dropBY_.exit.i unwind label %cleanup.i.i

cleanup.i.i:                                      ; preds = %bb5.i
  %9 = landingpad { ptr, i32 }
          cleanup
  %10 = getelementptr inbounds nuw i8, ptr %_6.i, i64 16
  %capacity1.i.i1.i = load i64, ptr %10, align 8, !noundef !8
  %11 = icmp eq i64 %capacity1.i.i1.i, 0
  br i1 %11, label %bb4.i.preheader, label %bb2.i.i.i.i.i2.i

bb2.i.i.i.i.i2.i:                                 ; preds = %cleanup.i.i
  %ptr.i.i3.i = load ptr, ptr %_6.i, align 8, !nonnull !8, !noundef !8
  %alloc_size.i.i.i.i.i.i4.i = shl nuw i64 %capacity1.i.i1.i, 5
; call __rustc::__rust_dealloc
  tail call void @_RNvCsKhRCbHf33p_7___rustc14___rust_dealloc(ptr noundef nonnull %ptr.i.i3.i, i64 noundef %alloc_size.i.i.i.i.i.i4.i, i64 noundef range(i64 1, -9223372036854775807) 8) #30
  br label %bb4.i.preheader

bb4.i.preheader:                                  ; preds = %cleanup.i.i, %bb2.i.i.i.i.i2.i
  br label %bb4.i

_RNvXse_NtNtCsdJPVW0sQgAG_5alloc3vec9into_iterINtB5_8IntoIterNtCsfcjqfaF2v4X_11proc_macro29TokenTreeENtNtNtCsjMrxcFdYDNN_4core3ops4drop4Drop4dropBY_.exit.i: ; preds = %bb5.i
  %12 = getelementptr inbounds nuw i8, ptr %_6.i, i64 16
  %capacity1.i.i.i = load i64, ptr %12, align 8, !noundef !8
  %13 = icmp eq i64 %capacity1.i.i.i, 0
  br i1 %13, label %_RINvNtCsjMrxcFdYDNN_4core3ptr13drop_in_placeINtNtCsfcjqfaF2v4X_11proc_macro25rcvec13RcVecIntoIterNtBL_9TokenTreeEEBL_.exit.i, label %bb2.i.i.i.i.i.i

bb2.i.i.i.i.i.i:                                  ; preds = %_RNvXse_NtNtCsdJPVW0sQgAG_5alloc3vec9into_iterINtB5_8IntoIterNtCsfcjqfaF2v4X_11proc_macro29TokenTreeENtNtNtCsjMrxcFdYDNN_4core3ops4drop4Drop4dropBY_.exit.i
  %ptr.i.i.i = load ptr, ptr %_6.i, align 8, !nonnull !8, !noundef !8
  %alloc_size.i.i.i.i.i.i.i = shl nuw i64 %capacity1.i.i.i, 5
; call __rustc::__rust_dealloc
  tail call void @_RNvCsKhRCbHf33p_7___rustc14___rust_dealloc(ptr noundef nonnull %ptr.i.i.i, i64 noundef %alloc_size.i.i.i.i.i.i.i, i64 noundef range(i64 1, -9223372036854775807) 8) #30
  br label %_RINvNtCsjMrxcFdYDNN_4core3ptr13drop_in_placeINtNtCsfcjqfaF2v4X_11proc_macro25rcvec13RcVecIntoIterNtBL_9TokenTreeEEBL_.exit.i

_RINvNtCsjMrxcFdYDNN_4core3ptr13drop_in_placeINtNtCsfcjqfaF2v4X_11proc_macro25rcvec13RcVecIntoIterNtBL_9TokenTreeEEBL_.exit.i: ; preds = %bb2.i.i.i.i.i.i, %_RNvXse_NtNtCsdJPVW0sQgAG_5alloc3vec9into_iterINtB5_8IntoIterNtCsfcjqfaF2v4X_11proc_macro29TokenTreeENtNtNtCsjMrxcFdYDNN_4core3ops4drop4Drop4dropBY_.exit.i
  %_7.i = icmp eq i64 %2, %len.i
  br i1 %_7.i, label %bb4, label %bb5.i

bb4.i:                                            ; preds = %bb4.i.preheader, %bb3.i
  %_3.sroa.0.1.i = phi i64 [ %14, %bb3.i ], [ %2, %bb4.i.preheader ]
  %_5.i7 = icmp eq i64 %_3.sroa.0.1.i, %len.i
  br i1 %_5.i7, label %cleanup.body, label %bb3.i

bb3.i:                                            ; preds = %bb4.i
  %_4.i = getelementptr inbounds nuw %"rcvec::RcVecIntoIter<TokenTree>", ptr %_5.i, i64 %_3.sroa.0.1.i
  %14 = add i64 %_3.sroa.0.1.i, 1
; invoke core::ptr::drop_in_place::<proc_macro2::rcvec::RcVecIntoIter<proc_macro2::TokenTree>>
  invoke fastcc void @_RINvNtCsjMrxcFdYDNN_4core3ptr13drop_in_placeINtNtCsfcjqfaF2v4X_11proc_macro25rcvec13RcVecIntoIterNtBL_9TokenTreeEEBL_(ptr noalias noundef nonnull align 8 dereferenceable(32) %_4.i)
          to label %bb4.i unwind label %terminate.i

terminate.i:                                      ; preds = %bb3.i
  %15 = landingpad { ptr, i32 }
          filter [0 x ptr] zeroinitializer
; call core::panicking::panic_in_cleanup
  tail call void @_RNvNtCsjMrxcFdYDNN_4core9panicking16panic_in_cleanup() #31
  unreachable

cleanup.body:                                     ; preds = %bb4.i
  %_1.val = load i64, ptr %_1, align 8, !range !115, !noundef !8
  %16 = icmp eq i64 %_1.val, 0
  br i1 %16, label %bb1, label %bb2.i.i.i

bb2.i.i.i:                                        ; preds = %cleanup.body
  %alloc_size.i.i.i.i = shl nuw i64 %_1.val, 5
; call __rustc::__rust_dealloc
  tail call void @_RNvCsKhRCbHf33p_7___rustc14___rust_dealloc(ptr noundef nonnull %_5.i, i64 noundef %alloc_size.i.i.i.i, i64 noundef range(i64 1, -9223372036854775807) 8) #30
  br label %bb1

bb4:                                              ; preds = %_RINvNtCsjMrxcFdYDNN_4core3ptr13drop_in_placeINtNtCsfcjqfaF2v4X_11proc_macro25rcvec13RcVecIntoIterNtBL_9TokenTreeEEBL_.exit.i, %start
  %_1.val2 = load i64, ptr %_1, align 8, !range !115, !noundef !8
  %17 = icmp eq i64 %_1.val2, 0
  br i1 %17, label %_RINvNtCsjMrxcFdYDNN_4core3ptr13drop_in_placeINtNtCsdJPVW0sQgAG_5alloc7raw_vec6RawVecINtNtCsfcjqfaF2v4X_11proc_macro25rcvec13RcVecIntoIterNtB1p_9TokenTreeEEEB1p_.exit6, label %bb2.i.i.i4

bb2.i.i.i4:                                       ; preds = %bb4
  %alloc_size.i.i.i.i5 = shl nuw i64 %_1.val2, 5
; call __rustc::__rust_dealloc
  tail call void @_RNvCsKhRCbHf33p_7___rustc14___rust_dealloc(ptr noundef nonnull %_5.i, i64 noundef %alloc_size.i.i.i.i5, i64 noundef range(i64 1, -9223372036854775807) 8) #30
  br label %_RINvNtCsjMrxcFdYDNN_4core3ptr13drop_in_placeINtNtCsdJPVW0sQgAG_5alloc7raw_vec6RawVecINtNtCsfcjqfaF2v4X_11proc_macro25rcvec13RcVecIntoIterNtB1p_9TokenTreeEEEB1p_.exit6

_RINvNtCsjMrxcFdYDNN_4core3ptr13drop_in_placeINtNtCsdJPVW0sQgAG_5alloc7raw_vec6RawVecINtNtCsfcjqfaF2v4X_11proc_macro25rcvec13RcVecIntoIterNtB1p_9TokenTreeEEEB1p_.exit6: ; preds = %bb4, %bb2.i.i.i4
  ret void

bb1:                                              ; preds = %bb2.i.i.i, %cleanup.body
  resume { ptr, i32 } %9
}

; core::ptr::drop_in_place::<alloc::vec::Vec<proc_macro::TokenTree>>
; Function Attrs: uwtable
define internal fastcc void @_RINvNtCsjMrxcFdYDNN_4core3ptr13drop_in_placeINtNtCsdJPVW0sQgAG_5alloc3vec3VecNtCsbtZo8rQoR5w_10proc_macro9TokenTreeEECsfcjqfaF2v4X_11proc_macro2(ptr noalias noundef nonnull readonly align 8 captures(none) dereferenceable(24) %_1) unnamed_addr #3 personality ptr @rust_eh_personality {
start:
  %0 = getelementptr inbounds nuw i8, ptr %_1, i64 8
  %_1.val = load ptr, ptr %0, align 8, !nonnull !8, !noundef !8
  %1 = getelementptr inbounds nuw i8, ptr %_1, i64 16
  %_1.val1 = load i64, ptr %1, align 8, !noundef !8
  %_710.i.i = icmp eq i64 %_1.val1, 0
  br i1 %_710.i.i, label %bb4, label %bb5.i.i

bb5.i.i:                                          ; preds = %start, %_RINvNtCsjMrxcFdYDNN_4core3ptr13drop_in_placeNtCsbtZo8rQoR5w_10proc_macro9TokenTreeECsfcjqfaF2v4X_11proc_macro2.exit.i.i
  %_3.sroa.0.011.i.i = phi i64 [ %2, %_RINvNtCsjMrxcFdYDNN_4core3ptr13drop_in_placeNtCsbtZo8rQoR5w_10proc_macro9TokenTreeECsfcjqfaF2v4X_11proc_macro2.exit.i.i ], [ 0, %start ]
  %_6.i.i = getelementptr inbounds nuw %"proc_macro::TokenTree", ptr %_1.val, i64 %_3.sroa.0.011.i.i
  %2 = add nuw i64 %_3.sroa.0.011.i.i, 1
  %3 = getelementptr inbounds nuw i8, ptr %_6.i.i, i64 16
  %4 = load i8, ptr %3, align 4, !range !116, !alias.scope !143, !noundef !8
  %5 = icmp samesign ult i8 %4, 4
  br i1 %5, label %bb2.i.i.i, label %_RINvNtCsjMrxcFdYDNN_4core3ptr13drop_in_placeNtCsbtZo8rQoR5w_10proc_macro9TokenTreeECsfcjqfaF2v4X_11proc_macro2.exit.i.i

bb2.i.i.i:                                        ; preds = %bb5.i.i
  %6 = getelementptr inbounds nuw i8, ptr %_6.i.i, i64 12
  %7 = load i32, ptr %6, align 4, !alias.scope !148, !noundef !8
  %8 = icmp eq i32 %7, 0
  br i1 %8, label %_RINvNtCsjMrxcFdYDNN_4core3ptr13drop_in_placeNtCsbtZo8rQoR5w_10proc_macro9TokenTreeECsfcjqfaF2v4X_11proc_macro2.exit.i.i, label %bb2.i.i.i.i.i.i

bb2.i.i.i.i.i.i:                                  ; preds = %bb2.i.i.i
; invoke <proc_macro::bridge::client::TokenStream as core::ops::drop::Drop>::drop
  invoke void @_RNvXsi_NtNtCsbtZo8rQoR5w_10proc_macro6bridge6clientNtB5_11TokenStreamNtNtNtCsjMrxcFdYDNN_4core3ops4drop4Drop4drop(ptr noalias noundef nonnull align 4 dereferenceable(4) %6)
          to label %_RINvNtCsjMrxcFdYDNN_4core3ptr13drop_in_placeNtCsbtZo8rQoR5w_10proc_macro9TokenTreeECsfcjqfaF2v4X_11proc_macro2.exit.i.i unwind label %cleanup.i.i

_RINvNtCsjMrxcFdYDNN_4core3ptr13drop_in_placeNtCsbtZo8rQoR5w_10proc_macro9TokenTreeECsfcjqfaF2v4X_11proc_macro2.exit.i.i: ; preds = %bb2.i.i.i.i.i.i, %bb2.i.i.i, %bb5.i.i
  %_7.i.i = icmp eq i64 %2, %_1.val1
  br i1 %_7.i.i, label %bb4, label %bb5.i.i

cleanup.i.i:                                      ; preds = %bb2.i.i.i.i.i.i
  %9 = landingpad { ptr, i32 }
          cleanup
  %_512.i.i = icmp eq i64 %2, %_1.val1
  br i1 %_512.i.i, label %cleanup.body, label %bb3.i.i

bb3.i.i:                                          ; preds = %cleanup.i.i, %_RINvNtCsjMrxcFdYDNN_4core3ptr13drop_in_placeNtCsbtZo8rQoR5w_10proc_macro9TokenTreeECsfcjqfaF2v4X_11proc_macro2.exit9.i.i
  %_3.sroa.0.113.i.i = phi i64 [ %10, %_RINvNtCsjMrxcFdYDNN_4core3ptr13drop_in_placeNtCsbtZo8rQoR5w_10proc_macro9TokenTreeECsfcjqfaF2v4X_11proc_macro2.exit9.i.i ], [ %2, %cleanup.i.i ]
  %_4.i.i = getelementptr inbounds nuw %"proc_macro::TokenTree", ptr %_1.val, i64 %_3.sroa.0.113.i.i
  %10 = add i64 %_3.sroa.0.113.i.i, 1
  %11 = getelementptr inbounds nuw i8, ptr %_4.i.i, i64 16
  %12 = load i8, ptr %11, align 4, !range !116, !alias.scope !155, !noundef !8
  %13 = icmp samesign ult i8 %12, 4
  br i1 %13, label %bb2.i6.i.i, label %_RINvNtCsjMrxcFdYDNN_4core3ptr13drop_in_placeNtCsbtZo8rQoR5w_10proc_macro9TokenTreeECsfcjqfaF2v4X_11proc_macro2.exit9.i.i

bb2.i6.i.i:                                       ; preds = %bb3.i.i
  %14 = getelementptr inbounds nuw i8, ptr %_4.i.i, i64 12
  %15 = load i32, ptr %14, align 4, !alias.scope !158, !noundef !8
  %16 = icmp eq i32 %15, 0
  br i1 %16, label %_RINvNtCsjMrxcFdYDNN_4core3ptr13drop_in_placeNtCsbtZo8rQoR5w_10proc_macro9TokenTreeECsfcjqfaF2v4X_11proc_macro2.exit9.i.i, label %bb2.i.i.i.i7.i.i

bb2.i.i.i.i7.i.i:                                 ; preds = %bb2.i6.i.i
; invoke <proc_macro::bridge::client::TokenStream as core::ops::drop::Drop>::drop
  invoke void @_RNvXsi_NtNtCsbtZo8rQoR5w_10proc_macro6bridge6clientNtB5_11TokenStreamNtNtNtCsjMrxcFdYDNN_4core3ops4drop4Drop4drop(ptr noalias noundef nonnull align 4 dereferenceable(4) %14)
          to label %_RINvNtCsjMrxcFdYDNN_4core3ptr13drop_in_placeNtCsbtZo8rQoR5w_10proc_macro9TokenTreeECsfcjqfaF2v4X_11proc_macro2.exit9.i.i unwind label %terminate.i.i

_RINvNtCsjMrxcFdYDNN_4core3ptr13drop_in_placeNtCsbtZo8rQoR5w_10proc_macro9TokenTreeECsfcjqfaF2v4X_11proc_macro2.exit9.i.i: ; preds = %bb2.i.i.i.i7.i.i, %bb2.i6.i.i, %bb3.i.i
  %_5.i.i = icmp eq i64 %10, %_1.val1
  br i1 %_5.i.i, label %cleanup.body, label %bb3.i.i

terminate.i.i:                                    ; preds = %bb2.i.i.i.i7.i.i
  %17 = landingpad { ptr, i32 }
          filter [0 x ptr] zeroinitializer
; call core::panicking::panic_in_cleanup
  tail call void @_RNvNtCsjMrxcFdYDNN_4core9panicking16panic_in_cleanup() #31
  unreachable

cleanup.body:                                     ; preds = %_RINvNtCsjMrxcFdYDNN_4core3ptr13drop_in_placeNtCsbtZo8rQoR5w_10proc_macro9TokenTreeECsfcjqfaF2v4X_11proc_macro2.exit9.i.i, %cleanup.i.i
  %_1.val2 = load i64, ptr %_1, align 8, !range !115, !noundef !8
  %18 = icmp eq i64 %_1.val2, 0
  br i1 %18, label %bb1, label %bb2.i.i.i6

bb2.i.i.i6:                                       ; preds = %cleanup.body
  %alloc_size.i.i.i.i = mul nuw i64 %_1.val2, 20
; call __rustc::__rust_dealloc
  tail call void @_RNvCsKhRCbHf33p_7___rustc14___rust_dealloc(ptr noundef nonnull %_1.val, i64 noundef %alloc_size.i.i.i.i, i64 noundef range(i64 1, -9223372036854775807) 4) #30
  br label %bb1

bb4:                                              ; preds = %_RINvNtCsjMrxcFdYDNN_4core3ptr13drop_in_placeNtCsbtZo8rQoR5w_10proc_macro9TokenTreeECsfcjqfaF2v4X_11proc_macro2.exit.i.i, %start
  %_1.val4 = load i64, ptr %_1, align 8, !range !115, !noundef !8
  %19 = icmp eq i64 %_1.val4, 0
  br i1 %19, label %_RINvNtCsjMrxcFdYDNN_4core3ptr13drop_in_placeINtNtCsdJPVW0sQgAG_5alloc7raw_vec6RawVecNtCsbtZo8rQoR5w_10proc_macro9TokenTreeEECsfcjqfaF2v4X_11proc_macro2.exit9, label %bb2.i.i.i7

bb2.i.i.i7:                                       ; preds = %bb4
  %alloc_size.i.i.i.i8 = mul nuw i64 %_1.val4, 20
; call __rustc::__rust_dealloc
  tail call void @_RNvCsKhRCbHf33p_7___rustc14___rust_dealloc(ptr noundef nonnull %_1.val, i64 noundef %alloc_size.i.i.i.i8, i64 noundef range(i64 1, -9223372036854775807) 4) #30
  br label %_RINvNtCsjMrxcFdYDNN_4core3ptr13drop_in_placeINtNtCsdJPVW0sQgAG_5alloc7raw_vec6RawVecNtCsbtZo8rQoR5w_10proc_macro9TokenTreeEECsfcjqfaF2v4X_11proc_macro2.exit9

_RINvNtCsjMrxcFdYDNN_4core3ptr13drop_in_placeINtNtCsdJPVW0sQgAG_5alloc7raw_vec6RawVecNtCsbtZo8rQoR5w_10proc_macro9TokenTreeEECsfcjqfaF2v4X_11proc_macro2.exit9: ; preds = %bb4, %bb2.i.i.i7
  ret void

bb1:                                              ; preds = %bb2.i.i.i6, %cleanup.body
  resume { ptr, i32 } %9
}

; core::ptr::drop_in_place::<alloc::vec::Vec<proc_macro2::TokenTree>>
; Function Attrs: uwtable
define internal fastcc void @_RINvNtCsjMrxcFdYDNN_4core3ptr13drop_in_placeINtNtCsdJPVW0sQgAG_5alloc3vec3VecNtCsfcjqfaF2v4X_11proc_macro29TokenTreeEEB1f_(ptr noalias noundef nonnull readonly align 8 captures(none) dereferenceable(24) %_1) unnamed_addr #3 personality ptr @rust_eh_personality {
start:
  %0 = getelementptr inbounds nuw i8, ptr %_1, i64 8
  %_5.i = load ptr, ptr %0, align 8, !alias.scope !165, !nonnull !8, !noundef !8
  %1 = getelementptr inbounds nuw i8, ptr %_1, i64 16
  %len.i = load i64, ptr %1, align 8, !alias.scope !165, !noundef !8
; invoke core::ptr::drop_in_place::<[proc_macro2::TokenTree]>
  invoke fastcc void @_RINvNtCsjMrxcFdYDNN_4core3ptr13drop_in_placeSNtCsfcjqfaF2v4X_11proc_macro29TokenTreeEBJ_(ptr noalias noundef nonnull align 8 %_5.i, i64 noundef %len.i)
          to label %bb4 unwind label %cleanup

cleanup:                                          ; preds = %start
  %2 = landingpad { ptr, i32 }
          cleanup
  %_1.val = load i64, ptr %_1, align 8, !range !115, !noundef !8
  %3 = icmp eq i64 %_1.val, 0
  br i1 %3, label %bb1, label %bb2.i.i.i

bb2.i.i.i:                                        ; preds = %cleanup
  %alloc_size.i.i.i.i = shl nuw i64 %_1.val, 5
; call __rustc::__rust_dealloc
  tail call void @_RNvCsKhRCbHf33p_7___rustc14___rust_dealloc(ptr noundef nonnull %_5.i, i64 noundef %alloc_size.i.i.i.i, i64 noundef range(i64 1, -9223372036854775807) 8) #30
  br label %bb1

bb4:                                              ; preds = %start
  %_1.val2 = load i64, ptr %_1, align 8, !range !115, !noundef !8
  %4 = icmp eq i64 %_1.val2, 0
  br i1 %4, label %_RINvNtCsjMrxcFdYDNN_4core3ptr13drop_in_placeINtNtCsdJPVW0sQgAG_5alloc7raw_vec6RawVecNtCsfcjqfaF2v4X_11proc_macro29TokenTreeEEB1m_.exit6, label %bb2.i.i.i4

bb2.i.i.i4:                                       ; preds = %bb4
  %alloc_size.i.i.i.i5 = shl nuw i64 %_1.val2, 5
; call __rustc::__rust_dealloc
  tail call void @_RNvCsKhRCbHf33p_7___rustc14___rust_dealloc(ptr noundef nonnull %_5.i, i64 noundef %alloc_size.i.i.i.i5, i64 noundef range(i64 1, -9223372036854775807) 8) #30
  br label %_RINvNtCsjMrxcFdYDNN_4core3ptr13drop_in_placeINtNtCsdJPVW0sQgAG_5alloc7raw_vec6RawVecNtCsfcjqfaF2v4X_11proc_macro29TokenTreeEEB1m_.exit6

_RINvNtCsjMrxcFdYDNN_4core3ptr13drop_in_placeINtNtCsdJPVW0sQgAG_5alloc7raw_vec6RawVecNtCsfcjqfaF2v4X_11proc_macro29TokenTreeEEB1m_.exit6: ; preds = %bb4, %bb2.i.i.i4
  ret void

bb1:                                              ; preds = %bb2.i.i.i, %cleanup
  resume { ptr, i32 } %2
}

; core::ptr::drop_in_place::<alloc::vec::Vec<(proc_macro2::Delimiter, proc_macro2::fallback::TokenStreamBuilder)>>
; Function Attrs: uwtable
define internal fastcc void @_RINvNtCsjMrxcFdYDNN_4core3ptr13drop_in_placeINtNtCsdJPVW0sQgAG_5alloc3vec3VecTNtCsfcjqfaF2v4X_11proc_macro29DelimiterNtNtB1g_8fallback18TokenStreamBuilderEEEB1g_(ptr noalias noundef nonnull readonly align 8 captures(none) dereferenceable(24) %_1) unnamed_addr #3 personality ptr @rust_eh_personality {
start:
  %0 = getelementptr inbounds nuw i8, ptr %_1, i64 8
  %_1.val = load ptr, ptr %0, align 8, !nonnull !8, !noundef !8
  %1 = getelementptr inbounds nuw i8, ptr %_1, i64 16
  %_1.val1 = load i64, ptr %1, align 8, !noundef !8
  tail call void @llvm.experimental.noalias.scope.decl(metadata !168)
  %_77.i.i = icmp eq i64 %_1.val1, 0
  br i1 %_77.i.i, label %bb4, label %bb5.i.i

bb5.i.i:                                          ; preds = %start, %_RINvNtCsjMrxcFdYDNN_4core3ptr13drop_in_placeTNtCsfcjqfaF2v4X_11proc_macro29DelimiterNtNtBJ_8fallback18TokenStreamBuilderEEBJ_.exit.i.i
  %_3.sroa.0.08.i.i = phi i64 [ %2, %_RINvNtCsjMrxcFdYDNN_4core3ptr13drop_in_placeTNtCsfcjqfaF2v4X_11proc_macro29DelimiterNtNtBJ_8fallback18TokenStreamBuilderEEBJ_.exit.i.i ], [ 0, %start ]
  %_6.i.i = getelementptr inbounds nuw { i8, [7 x i8], %"fallback::TokenStreamBuilder" }, ptr %_1.val, i64 %_3.sroa.0.08.i.i
  %2 = add nuw i64 %_3.sroa.0.08.i.i, 1
  tail call void @llvm.experimental.noalias.scope.decl(metadata !171)
  %3 = getelementptr inbounds nuw i8, ptr %_6.i.i, i64 8
  tail call void @llvm.experimental.noalias.scope.decl(metadata !174)
  tail call void @llvm.experimental.noalias.scope.decl(metadata !177)
  tail call void @llvm.experimental.noalias.scope.decl(metadata !180)
  %4 = getelementptr inbounds nuw i8, ptr %_6.i.i, i64 16
  %_5.i.i.i.i.i.i.i = load ptr, ptr %4, align 8, !alias.scope !183, !nonnull !8, !noundef !8
  %5 = getelementptr inbounds nuw i8, ptr %_6.i.i, i64 24
  %len.i.i.i.i.i.i.i = load i64, ptr %5, align 8, !alias.scope !183, !noundef !8
; invoke core::ptr::drop_in_place::<[proc_macro2::TokenTree]>
  invoke fastcc void @_RINvNtCsjMrxcFdYDNN_4core3ptr13drop_in_placeSNtCsfcjqfaF2v4X_11proc_macro29TokenTreeEBJ_(ptr noalias noundef nonnull align 8 %_5.i.i.i.i.i.i.i, i64 noundef %len.i.i.i.i.i.i.i)
          to label %bb4.i.i.i.i.i.i unwind label %cleanup.i.i.i.i.i.i, !noalias !186

cleanup.i.i.i.i.i.i:                              ; preds = %bb5.i.i
  %6 = landingpad { ptr, i32 }
          cleanup
  %_1.val.i.i.i.i.i.i = load i64, ptr %3, align 8, !range !115, !alias.scope !186, !noundef !8
  %7 = icmp eq i64 %_1.val.i.i.i.i.i.i, 0
  br i1 %7, label %bb4.i.i.preheader, label %bb2.i.i.i.i.i.i.i.i.i

bb4.i.i.preheader:                                ; preds = %bb2.i.i.i.i.i.i.i.i.i, %cleanup.i.i.i.i.i.i
  br label %bb4.i.i

bb2.i.i.i.i.i.i.i.i.i:                            ; preds = %cleanup.i.i.i.i.i.i
  %alloc_size.i.i.i.i.i.i.i.i.i.i = shl nuw i64 %_1.val.i.i.i.i.i.i, 5
; call __rustc::__rust_dealloc
  tail call void @_RNvCsKhRCbHf33p_7___rustc14___rust_dealloc(ptr noundef nonnull %_5.i.i.i.i.i.i.i, i64 noundef %alloc_size.i.i.i.i.i.i.i.i.i.i, i64 noundef range(i64 1, -9223372036854775807) 8) #30, !noalias !186
  br label %bb4.i.i.preheader

bb4.i.i.i.i.i.i:                                  ; preds = %bb5.i.i
  %_1.val2.i.i.i.i.i.i = load i64, ptr %3, align 8, !range !115, !alias.scope !186, !noundef !8
  %8 = icmp eq i64 %_1.val2.i.i.i.i.i.i, 0
  br i1 %8, label %_RINvNtCsjMrxcFdYDNN_4core3ptr13drop_in_placeTNtCsfcjqfaF2v4X_11proc_macro29DelimiterNtNtBJ_8fallback18TokenStreamBuilderEEBJ_.exit.i.i, label %bb2.i.i.i4.i.i.i.i.i.i

bb2.i.i.i4.i.i.i.i.i.i:                           ; preds = %bb4.i.i.i.i.i.i
  %alloc_size.i.i.i.i5.i.i.i.i.i.i = shl nuw i64 %_1.val2.i.i.i.i.i.i, 5
; call __rustc::__rust_dealloc
  tail call void @_RNvCsKhRCbHf33p_7___rustc14___rust_dealloc(ptr noundef nonnull %_5.i.i.i.i.i.i.i, i64 noundef %alloc_size.i.i.i.i5.i.i.i.i.i.i, i64 noundef range(i64 1, -9223372036854775807) 8) #30, !noalias !186
  br label %_RINvNtCsjMrxcFdYDNN_4core3ptr13drop_in_placeTNtCsfcjqfaF2v4X_11proc_macro29DelimiterNtNtBJ_8fallback18TokenStreamBuilderEEBJ_.exit.i.i

_RINvNtCsjMrxcFdYDNN_4core3ptr13drop_in_placeTNtCsfcjqfaF2v4X_11proc_macro29DelimiterNtNtBJ_8fallback18TokenStreamBuilderEEBJ_.exit.i.i: ; preds = %bb2.i.i.i4.i.i.i.i.i.i, %bb4.i.i.i.i.i.i
  %_7.i.i = icmp eq i64 %2, %_1.val1
  br i1 %_7.i.i, label %bb4, label %bb5.i.i

bb4.i.i:                                          ; preds = %bb4.i.i.preheader, %bb3.i.i
  %_3.sroa.0.1.i.i = phi i64 [ %9, %bb3.i.i ], [ %2, %bb4.i.i.preheader ]
  %_5.i.i = icmp eq i64 %_3.sroa.0.1.i.i, %_1.val1
  br i1 %_5.i.i, label %cleanup.body, label %bb3.i.i

bb3.i.i:                                          ; preds = %bb4.i.i
  %_4.i.i = getelementptr inbounds nuw { i8, [7 x i8], %"fallback::TokenStreamBuilder" }, ptr %_1.val, i64 %_3.sroa.0.1.i.i
  %9 = add i64 %_3.sroa.0.1.i.i, 1
; invoke core::ptr::drop_in_place::<(proc_macro2::Delimiter, proc_macro2::fallback::TokenStreamBuilder)>
  invoke fastcc void @_RINvNtCsjMrxcFdYDNN_4core3ptr13drop_in_placeTNtCsfcjqfaF2v4X_11proc_macro29DelimiterNtNtBJ_8fallback18TokenStreamBuilderEEBJ_(ptr noalias noundef readonly align 8 dereferenceable(32) %_4.i.i) #32
          to label %bb4.i.i unwind label %terminate.i.i

terminate.i.i:                                    ; preds = %bb3.i.i
  %10 = landingpad { ptr, i32 }
          filter [0 x ptr] zeroinitializer
; call core::panicking::panic_in_cleanup
  tail call void @_RNvNtCsjMrxcFdYDNN_4core9panicking16panic_in_cleanup() #31, !noalias !168
  unreachable

cleanup.body:                                     ; preds = %bb4.i.i
  %_1.val2 = load i64, ptr %_1, align 8, !range !115, !noundef !8
  %11 = icmp eq i64 %_1.val2, 0
  br i1 %11, label %bb1, label %bb2.i.i.i

bb2.i.i.i:                                        ; preds = %cleanup.body
  %alloc_size.i.i.i.i = shl nuw i64 %_1.val2, 5
; call __rustc::__rust_dealloc
  tail call void @_RNvCsKhRCbHf33p_7___rustc14___rust_dealloc(ptr noundef nonnull %_1.val, i64 noundef %alloc_size.i.i.i.i, i64 noundef range(i64 1, -9223372036854775807) 8) #30
  br label %bb1

bb4:                                              ; preds = %_RINvNtCsjMrxcFdYDNN_4core3ptr13drop_in_placeTNtCsfcjqfaF2v4X_11proc_macro29DelimiterNtNtBJ_8fallback18TokenStreamBuilderEEBJ_.exit.i.i, %start
  %_1.val4 = load i64, ptr %_1, align 8, !range !115, !noundef !8
  %12 = icmp eq i64 %_1.val4, 0
  br i1 %12, label %_RINvNtCsjMrxcFdYDNN_4core3ptr13drop_in_placeINtNtCsdJPVW0sQgAG_5alloc7raw_vec6RawVecTNtCsfcjqfaF2v4X_11proc_macro29DelimiterNtNtB1n_8fallback18TokenStreamBuilderEEEB1n_.exit8, label %bb2.i.i.i6

bb2.i.i.i6:                                       ; preds = %bb4
  %alloc_size.i.i.i.i7 = shl nuw i64 %_1.val4, 5
; call __rustc::__rust_dealloc
  tail call void @_RNvCsKhRCbHf33p_7___rustc14___rust_dealloc(ptr noundef nonnull %_1.val, i64 noundef %alloc_size.i.i.i.i7, i64 noundef range(i64 1, -9223372036854775807) 8) #30
  br label %_RINvNtCsjMrxcFdYDNN_4core3ptr13drop_in_placeINtNtCsdJPVW0sQgAG_5alloc7raw_vec6RawVecTNtCsfcjqfaF2v4X_11proc_macro29DelimiterNtNtB1n_8fallback18TokenStreamBuilderEEEB1n_.exit8

_RINvNtCsjMrxcFdYDNN_4core3ptr13drop_in_placeINtNtCsdJPVW0sQgAG_5alloc7raw_vec6RawVecTNtCsfcjqfaF2v4X_11proc_macro29DelimiterNtNtB1n_8fallback18TokenStreamBuilderEEEB1n_.exit8: ; preds = %bb4, %bb2.i.i.i6
  ret void

bb1:                                              ; preds = %bb2.i.i.i, %cleanup.body
  resume { ptr, i32 } %6
}

; core::ptr::drop_in_place::<proc_macro2::rcvec::RcVecBuilder<proc_macro2::TokenTree>>
; Function Attrs: uwtable
define internal fastcc void @_RINvNtCsjMrxcFdYDNN_4core3ptr13drop_in_placeINtNtCsfcjqfaF2v4X_11proc_macro25rcvec12RcVecBuilderNtBL_9TokenTreeEEBL_(ptr noalias noundef nonnull readonly align 8 captures(none) dereferenceable(24) %_1) unnamed_addr #3 personality ptr @rust_eh_personality {
start:
  tail call void @llvm.experimental.noalias.scope.decl(metadata !187)
  %0 = getelementptr inbounds nuw i8, ptr %_1, i64 8
  %_5.i.i = load ptr, ptr %0, align 8, !alias.scope !190, !nonnull !8, !noundef !8
  %1 = getelementptr inbounds nuw i8, ptr %_1, i64 16
  %len.i.i = load i64, ptr %1, align 8, !alias.scope !190, !noundef !8
; invoke core::ptr::drop_in_place::<[proc_macro2::TokenTree]>
  invoke fastcc void @_RINvNtCsjMrxcFdYDNN_4core3ptr13drop_in_placeSNtCsfcjqfaF2v4X_11proc_macro29TokenTreeEBJ_(ptr noalias noundef nonnull align 8 %_5.i.i, i64 noundef %len.i.i)
          to label %bb4.i unwind label %cleanup.i, !noalias !187

cleanup.i:                                        ; preds = %start
  %2 = landingpad { ptr, i32 }
          cleanup
  %_1.val.i = load i64, ptr %_1, align 8, !range !115, !alias.scope !187, !noundef !8
  %3 = icmp eq i64 %_1.val.i, 0
  br i1 %3, label %bb1.i, label %bb2.i.i.i.i

bb2.i.i.i.i:                                      ; preds = %cleanup.i
  %alloc_size.i.i.i.i.i = shl nuw i64 %_1.val.i, 5
; call __rustc::__rust_dealloc
  tail call void @_RNvCsKhRCbHf33p_7___rustc14___rust_dealloc(ptr noundef nonnull %_5.i.i, i64 noundef %alloc_size.i.i.i.i.i, i64 noundef range(i64 1, -9223372036854775807) 8) #30, !noalias !187
  br label %bb1.i

bb4.i:                                            ; preds = %start
  %_1.val2.i = load i64, ptr %_1, align 8, !range !115, !alias.scope !187, !noundef !8
  %4 = icmp eq i64 %_1.val2.i, 0
  br i1 %4, label %_RINvNtCsjMrxcFdYDNN_4core3ptr13drop_in_placeINtNtCsdJPVW0sQgAG_5alloc3vec3VecNtCsfcjqfaF2v4X_11proc_macro29TokenTreeEEB1f_.exit, label %bb2.i.i.i4.i

bb2.i.i.i4.i:                                     ; preds = %bb4.i
  %alloc_size.i.i.i.i5.i = shl nuw i64 %_1.val2.i, 5
; call __rustc::__rust_dealloc
  tail call void @_RNvCsKhRCbHf33p_7___rustc14___rust_dealloc(ptr noundef nonnull %_5.i.i, i64 noundef %alloc_size.i.i.i.i5.i, i64 noundef range(i64 1, -9223372036854775807) 8) #30, !noalias !187
  br label %_RINvNtCsjMrxcFdYDNN_4core3ptr13drop_in_placeINtNtCsdJPVW0sQgAG_5alloc3vec3VecNtCsfcjqfaF2v4X_11proc_macro29TokenTreeEEB1f_.exit

bb1.i:                                            ; preds = %bb2.i.i.i.i, %cleanup.i
  resume { ptr, i32 } %2

_RINvNtCsjMrxcFdYDNN_4core3ptr13drop_in_placeINtNtCsdJPVW0sQgAG_5alloc3vec3VecNtCsfcjqfaF2v4X_11proc_macro29TokenTreeEEB1f_.exit: ; preds = %bb4.i, %bb2.i.i.i4.i
  ret void
}

; core::ptr::drop_in_place::<proc_macro2::rcvec::RcVecIntoIter<proc_macro2::TokenTree>>
; Function Attrs: uwtable
define internal fastcc void @_RINvNtCsjMrxcFdYDNN_4core3ptr13drop_in_placeINtNtCsfcjqfaF2v4X_11proc_macro25rcvec13RcVecIntoIterNtBL_9TokenTreeEEBL_(ptr noalias noundef nonnull readonly align 8 captures(none) dereferenceable(32) %_1) unnamed_addr #3 personality ptr @rust_eh_personality {
start:
  %0 = getelementptr inbounds nuw i8, ptr %_1, i64 8
  %self.val.i = load ptr, ptr %0, align 8, !alias.scope !193, !nonnull !8, !noundef !8
  %1 = getelementptr inbounds nuw i8, ptr %_1, i64 24
  %self.val1.i = load ptr, ptr %1, align 8, !alias.scope !193, !nonnull !8, !noundef !8
  %2 = ptrtoint ptr %self.val1.i to i64
  %3 = ptrtoint ptr %self.val.i to i64
  %4 = sub nuw i64 %2, %3
  %5 = lshr exact i64 %4, 5
; invoke core::ptr::drop_in_place::<[proc_macro2::TokenTree]>
  invoke fastcc void @_RINvNtCsjMrxcFdYDNN_4core3ptr13drop_in_placeSNtCsfcjqfaF2v4X_11proc_macro29TokenTreeEBJ_(ptr noalias noundef nonnull align 8 %self.val.i, i64 noundef %5)
          to label %bb2.i unwind label %cleanup.i

cleanup.i:                                        ; preds = %start
  %6 = landingpad { ptr, i32 }
          cleanup
  %7 = getelementptr inbounds nuw i8, ptr %_1, i64 16
  %capacity1.i.i.i = load i64, ptr %7, align 8, !noundef !8
  %8 = icmp eq i64 %capacity1.i.i.i, 0
  br i1 %8, label %_RINvNtCsjMrxcFdYDNN_4core3ptr13drop_in_placeINtNvXse_NtNtCsdJPVW0sQgAG_5alloc3vec9into_iterINtBP_8IntoIterppENtNtNtB4_3ops4drop4Drop4drop9DropGuardNtCsfcjqfaF2v4X_11proc_macro29TokenTreeNtNtBT_5alloc6GlobalEEB2n_.exit.i, label %bb2.i.i.i.i.i.i

bb2.i.i.i.i.i.i:                                  ; preds = %cleanup.i
  %ptr.i.i.i = load ptr, ptr %_1, align 8, !nonnull !8, !noundef !8
  %alloc_size.i.i.i.i.i.i.i = shl nuw i64 %capacity1.i.i.i, 5
; call __rustc::__rust_dealloc
  tail call void @_RNvCsKhRCbHf33p_7___rustc14___rust_dealloc(ptr noundef nonnull %ptr.i.i.i, i64 noundef %alloc_size.i.i.i.i.i.i.i, i64 noundef range(i64 1, -9223372036854775807) 8) #30
  br label %_RINvNtCsjMrxcFdYDNN_4core3ptr13drop_in_placeINtNvXse_NtNtCsdJPVW0sQgAG_5alloc3vec9into_iterINtBP_8IntoIterppENtNtNtB4_3ops4drop4Drop4drop9DropGuardNtCsfcjqfaF2v4X_11proc_macro29TokenTreeNtNtBT_5alloc6GlobalEEB2n_.exit.i

_RINvNtCsjMrxcFdYDNN_4core3ptr13drop_in_placeINtNvXse_NtNtCsdJPVW0sQgAG_5alloc3vec9into_iterINtBP_8IntoIterppENtNtNtB4_3ops4drop4Drop4drop9DropGuardNtCsfcjqfaF2v4X_11proc_macro29TokenTreeNtNtBT_5alloc6GlobalEEB2n_.exit.i: ; preds = %bb2.i.i.i.i.i.i, %cleanup.i
  resume { ptr, i32 } %6

bb2.i:                                            ; preds = %start
  %9 = getelementptr inbounds nuw i8, ptr %_1, i64 16
  %capacity1.i.i3.i = load i64, ptr %9, align 8, !noundef !8
  %10 = icmp eq i64 %capacity1.i.i3.i, 0
  br i1 %10, label %_RNvXse_NtNtCsdJPVW0sQgAG_5alloc3vec9into_iterINtB5_8IntoIterNtCsfcjqfaF2v4X_11proc_macro29TokenTreeENtNtNtCsjMrxcFdYDNN_4core3ops4drop4Drop4dropBY_.exit, label %bb2.i.i.i.i.i4.i

bb2.i.i.i.i.i4.i:                                 ; preds = %bb2.i
  %ptr.i.i5.i = load ptr, ptr %_1, align 8, !nonnull !8, !noundef !8
  %alloc_size.i.i.i.i.i.i6.i = shl nuw i64 %capacity1.i.i3.i, 5
; call __rustc::__rust_dealloc
  tail call void @_RNvCsKhRCbHf33p_7___rustc14___rust_dealloc(ptr noundef nonnull %ptr.i.i5.i, i64 noundef %alloc_size.i.i.i.i.i.i6.i, i64 noundef range(i64 1, -9223372036854775807) 8) #30
  br label %_RNvXse_NtNtCsdJPVW0sQgAG_5alloc3vec9into_iterINtB5_8IntoIterNtCsfcjqfaF2v4X_11proc_macro29TokenTreeENtNtNtCsjMrxcFdYDNN_4core3ops4drop4Drop4dropBY_.exit

_RNvXse_NtNtCsdJPVW0sQgAG_5alloc3vec9into_iterINtB5_8IntoIterNtCsfcjqfaF2v4X_11proc_macro29TokenTreeENtNtNtCsjMrxcFdYDNN_4core3ops4drop4Drop4dropBY_.exit: ; preds = %bb2.i, %bb2.i.i.i.i.i4.i
  ret void
}

; core::ptr::drop_in_place::<alloc::vec::drain::Drain<proc_macro::TokenTree>>
; Function Attrs: uwtable
define internal fastcc void @_RINvNtCsjMrxcFdYDNN_4core3ptr13drop_in_placeINtNtNtCsdJPVW0sQgAG_5alloc3vec5drain5DrainNtCsbtZo8rQoR5w_10proc_macro9TokenTreeEECsfcjqfaF2v4X_11proc_macro2(ptr noalias noundef nonnull align 8 captures(address_is_null) dereferenceable(40) %_1) unnamed_addr #3 personality ptr @rust_eh_personality {
start:
  tail call void @llvm.experimental.noalias.scope.decl(metadata !196)
  %0 = load ptr, ptr %_1, align 8, !alias.scope !196, !nonnull !8, !noundef !8
  %1 = getelementptr inbounds nuw i8, ptr %_1, i64 8
  %2 = load ptr, ptr %1, align 8, !alias.scope !196, !nonnull !8, !noundef !8
  store ptr inttoptr (i64 4 to ptr), ptr %_1, align 8, !alias.scope !196
  store ptr inttoptr (i64 4 to ptr), ptr %1, align 8, !alias.scope !196
  %3 = ptrtoint ptr %2 to i64
  %4 = ptrtoint ptr %0 to i64
  %5 = sub nuw i64 %3, %4
  %6 = udiv exact i64 %5, 20
  %7 = getelementptr inbounds nuw i8, ptr %_1, i64 16
  %vec.i = load ptr, ptr %7, align 8, !alias.scope !196, !nonnull !8, !noundef !8
  %8 = icmp eq ptr %2, %0
  br i1 %8, label %bb4.i, label %bb25.i

bb4.i:                                            ; preds = %start
  %9 = getelementptr inbounds nuw i8, ptr %_1, i64 32
  %_3.i.i.i = load i64, ptr %9, align 8, !alias.scope !196, !noundef !8
  %_2.not.i.i.i = icmp eq i64 %_3.i.i.i, 0
  br i1 %_2.not.i.i.i, label %_RNvXs5_NtNtCsdJPVW0sQgAG_5alloc3vec5drainINtB5_5DrainNtCsbtZo8rQoR5w_10proc_macro9TokenTreeENtNtNtCsjMrxcFdYDNN_4core3ops4drop4Drop4dropCsfcjqfaF2v4X_11proc_macro2.exit, label %bb1.i.i.i

bb1.i.i.i:                                        ; preds = %bb4.i
  %10 = getelementptr inbounds nuw i8, ptr %vec.i, i64 16
  %start1.i.i.i = load i64, ptr %10, align 8, !noalias !196, !noundef !8
  %_23.i.i.i = icmp ult i64 %start1.i.i.i, 461168601842738791
  tail call void @llvm.assume(i1 %_23.i.i.i)
  %11 = getelementptr inbounds nuw i8, ptr %_1, i64 24
  %tail.i.i.i = load i64, ptr %11, align 8, !alias.scope !196, !noundef !8
  %_7.not.i.i.i = icmp eq i64 %tail.i.i.i, %start1.i.i.i
  br i1 %_7.not.i.i.i, label %bb3.i.i.i, label %bb2.i.i.i

bb3.i.i.i:                                        ; preds = %bb2.i.i.i, %bb1.i.i.i
  %new_len.i.i.i = add i64 %start1.i.i.i, %_3.i.i.i
  store i64 %new_len.i.i.i, ptr %10, align 8, !noalias !196
  br label %_RNvXs5_NtNtCsdJPVW0sQgAG_5alloc3vec5drainINtB5_5DrainNtCsbtZo8rQoR5w_10proc_macro9TokenTreeENtNtNtCsjMrxcFdYDNN_4core3ops4drop4Drop4dropCsfcjqfaF2v4X_11proc_macro2.exit

bb2.i.i.i:                                        ; preds = %bb1.i.i.i
  %12 = getelementptr inbounds nuw i8, ptr %vec.i, i64 8
  %_24.i.i.i = load ptr, ptr %12, align 8, !noalias !196, !nonnull !8, !noundef !8
  %src.i.i.i = getelementptr inbounds nuw %"proc_macro::TokenTree", ptr %_24.i.i.i, i64 %tail.i.i.i
  %dst.i.i.i = getelementptr inbounds nuw %"proc_macro::TokenTree", ptr %_24.i.i.i, i64 %start1.i.i.i
  %13 = mul i64 %_3.i.i.i, 20
  tail call void @llvm.memmove.p0.p0.i64(ptr nonnull align 4 %dst.i.i.i, ptr nonnull align 4 %src.i.i.i, i64 %13, i1 false), !noalias !196
  br label %bb3.i.i.i

cleanup.body.i:                                   ; preds = %_RINvNtCsjMrxcFdYDNN_4core3ptr13drop_in_placeNtCsbtZo8rQoR5w_10proc_macro9TokenTreeECsfcjqfaF2v4X_11proc_macro2.exit9.i.i, %cleanup.i.i
; call core::ptr::drop_in_place::<<alloc::vec::drain::Drain<_, _> as core::ops::drop::Drop>::drop::DropGuard<proc_macro::TokenTree, alloc::alloc::Global>>
  tail call fastcc void @_RINvNtCsjMrxcFdYDNN_4core3ptr13drop_in_placeINtNvXs5_NtNtCsdJPVW0sQgAG_5alloc3vec5drainINtBP_5DrainppENtNtNtB4_3ops4drop4Drop4drop9DropGuardNtCsbtZo8rQoR5w_10proc_macro9TokenTreeNtNtBT_5alloc6GlobalEECsfcjqfaF2v4X_11proc_macro2(ptr nonnull align 8 dereferenceable(40) %_1) #32
  resume { ptr, i32 } %24

bb25.i:                                           ; preds = %start
  %14 = getelementptr inbounds nuw i8, ptr %vec.i, i64 8
  %_49.i = load ptr, ptr %14, align 8, !noalias !196, !nonnull !8, !noundef !8
  %15 = ptrtoint ptr %_49.i to i64
  %16 = sub nuw i64 %4, %15
  %data.i = getelementptr inbounds nuw i8, ptr %_49.i, i64 %16
  br label %bb5.i.i

bb5.i.i:                                          ; preds = %_RINvNtCsjMrxcFdYDNN_4core3ptr13drop_in_placeNtCsbtZo8rQoR5w_10proc_macro9TokenTreeECsfcjqfaF2v4X_11proc_macro2.exit.i.i, %bb25.i
  %_3.sroa.0.011.i.i = phi i64 [ %17, %_RINvNtCsjMrxcFdYDNN_4core3ptr13drop_in_placeNtCsbtZo8rQoR5w_10proc_macro9TokenTreeECsfcjqfaF2v4X_11proc_macro2.exit.i.i ], [ 0, %bb25.i ]
  %_6.i.i = getelementptr inbounds nuw %"proc_macro::TokenTree", ptr %data.i, i64 %_3.sroa.0.011.i.i
  %17 = add nuw i64 %_3.sroa.0.011.i.i, 1
  %18 = getelementptr inbounds nuw i8, ptr %_6.i.i, i64 16
  %19 = load i8, ptr %18, align 4, !range !116, !alias.scope !199, !noalias !196, !noundef !8
  %20 = icmp samesign ult i8 %19, 4
  br i1 %20, label %bb2.i.i5.i, label %_RINvNtCsjMrxcFdYDNN_4core3ptr13drop_in_placeNtCsbtZo8rQoR5w_10proc_macro9TokenTreeECsfcjqfaF2v4X_11proc_macro2.exit.i.i

bb2.i.i5.i:                                       ; preds = %bb5.i.i
  %21 = getelementptr inbounds nuw i8, ptr %_6.i.i, i64 12
  %22 = load i32, ptr %21, align 4, !alias.scope !204, !noalias !196, !noundef !8
  %23 = icmp eq i32 %22, 0
  br i1 %23, label %_RINvNtCsjMrxcFdYDNN_4core3ptr13drop_in_placeNtCsbtZo8rQoR5w_10proc_macro9TokenTreeECsfcjqfaF2v4X_11proc_macro2.exit.i.i, label %bb2.i.i.i.i.i.i

bb2.i.i.i.i.i.i:                                  ; preds = %bb2.i.i5.i
; invoke <proc_macro::bridge::client::TokenStream as core::ops::drop::Drop>::drop
  invoke void @_RNvXsi_NtNtCsbtZo8rQoR5w_10proc_macro6bridge6clientNtB5_11TokenStreamNtNtNtCsjMrxcFdYDNN_4core3ops4drop4Drop4drop(ptr noalias noundef nonnull align 4 dereferenceable(4) %21)
          to label %_RINvNtCsjMrxcFdYDNN_4core3ptr13drop_in_placeNtCsbtZo8rQoR5w_10proc_macro9TokenTreeECsfcjqfaF2v4X_11proc_macro2.exit.i.i unwind label %cleanup.i.i, !noalias !196

_RINvNtCsjMrxcFdYDNN_4core3ptr13drop_in_placeNtCsbtZo8rQoR5w_10proc_macro9TokenTreeECsfcjqfaF2v4X_11proc_macro2.exit.i.i: ; preds = %bb2.i.i.i.i.i.i, %bb2.i.i5.i, %bb5.i.i
  %_7.i4.i = icmp eq i64 %17, %6
  br i1 %_7.i4.i, label %bb6.i, label %bb5.i.i

cleanup.i.i:                                      ; preds = %bb2.i.i.i.i.i.i
  %24 = landingpad { ptr, i32 }
          cleanup
  %_512.i.i = icmp eq i64 %17, %6
  br i1 %_512.i.i, label %cleanup.body.i, label %bb3.i.i

bb3.i.i:                                          ; preds = %cleanup.i.i, %_RINvNtCsjMrxcFdYDNN_4core3ptr13drop_in_placeNtCsbtZo8rQoR5w_10proc_macro9TokenTreeECsfcjqfaF2v4X_11proc_macro2.exit9.i.i
  %_3.sroa.0.113.i.i = phi i64 [ %25, %_RINvNtCsjMrxcFdYDNN_4core3ptr13drop_in_placeNtCsbtZo8rQoR5w_10proc_macro9TokenTreeECsfcjqfaF2v4X_11proc_macro2.exit9.i.i ], [ %17, %cleanup.i.i ]
  %_4.i6.i = getelementptr inbounds nuw %"proc_macro::TokenTree", ptr %data.i, i64 %_3.sroa.0.113.i.i
  %25 = add i64 %_3.sroa.0.113.i.i, 1
  %26 = getelementptr inbounds nuw i8, ptr %_4.i6.i, i64 16
  %27 = load i8, ptr %26, align 4, !range !116, !alias.scope !211, !noalias !196, !noundef !8
  %28 = icmp samesign ult i8 %27, 4
  br i1 %28, label %bb2.i6.i.i, label %_RINvNtCsjMrxcFdYDNN_4core3ptr13drop_in_placeNtCsbtZo8rQoR5w_10proc_macro9TokenTreeECsfcjqfaF2v4X_11proc_macro2.exit9.i.i

bb2.i6.i.i:                                       ; preds = %bb3.i.i
  %29 = getelementptr inbounds nuw i8, ptr %_4.i6.i, i64 12
  %30 = load i32, ptr %29, align 4, !alias.scope !214, !noalias !196, !noundef !8
  %31 = icmp eq i32 %30, 0
  br i1 %31, label %_RINvNtCsjMrxcFdYDNN_4core3ptr13drop_in_placeNtCsbtZo8rQoR5w_10proc_macro9TokenTreeECsfcjqfaF2v4X_11proc_macro2.exit9.i.i, label %bb2.i.i.i.i7.i.i

bb2.i.i.i.i7.i.i:                                 ; preds = %bb2.i6.i.i
; invoke <proc_macro::bridge::client::TokenStream as core::ops::drop::Drop>::drop
  invoke void @_RNvXsi_NtNtCsbtZo8rQoR5w_10proc_macro6bridge6clientNtB5_11TokenStreamNtNtNtCsjMrxcFdYDNN_4core3ops4drop4Drop4drop(ptr noalias noundef nonnull align 4 dereferenceable(4) %29)
          to label %_RINvNtCsjMrxcFdYDNN_4core3ptr13drop_in_placeNtCsbtZo8rQoR5w_10proc_macro9TokenTreeECsfcjqfaF2v4X_11proc_macro2.exit9.i.i unwind label %terminate.i.i, !noalias !196

_RINvNtCsjMrxcFdYDNN_4core3ptr13drop_in_placeNtCsbtZo8rQoR5w_10proc_macro9TokenTreeECsfcjqfaF2v4X_11proc_macro2.exit9.i.i: ; preds = %bb2.i.i.i.i7.i.i, %bb2.i6.i.i, %bb3.i.i
  %_5.i.i = icmp eq i64 %25, %6
  br i1 %_5.i.i, label %cleanup.body.i, label %bb3.i.i

terminate.i.i:                                    ; preds = %bb2.i.i.i.i7.i.i
  %32 = landingpad { ptr, i32 }
          filter [0 x ptr] zeroinitializer
; call core::panicking::panic_in_cleanup
  tail call void @_RNvNtCsjMrxcFdYDNN_4core9panicking16panic_in_cleanup() #31, !noalias !196
  unreachable

bb6.i:                                            ; preds = %_RINvNtCsjMrxcFdYDNN_4core3ptr13drop_in_placeNtCsbtZo8rQoR5w_10proc_macro9TokenTreeECsfcjqfaF2v4X_11proc_macro2.exit.i.i
  %33 = getelementptr inbounds nuw i8, ptr %_1, i64 32
  %_3.i.i7.i = load i64, ptr %33, align 8, !alias.scope !196, !noundef !8
  %_2.not.i.i8.i = icmp eq i64 %_3.i.i7.i, 0
  br i1 %_2.not.i.i8.i, label %_RNvXs5_NtNtCsdJPVW0sQgAG_5alloc3vec5drainINtB5_5DrainNtCsbtZo8rQoR5w_10proc_macro9TokenTreeENtNtNtCsjMrxcFdYDNN_4core3ops4drop4Drop4dropCsfcjqfaF2v4X_11proc_macro2.exit, label %bb1.i.i9.i

bb1.i.i9.i:                                       ; preds = %bb6.i
  %34 = getelementptr inbounds nuw i8, ptr %vec.i, i64 16
  %start1.i.i11.i = load i64, ptr %34, align 8, !noalias !196, !noundef !8
  %_23.i.i12.i = icmp ult i64 %start1.i.i11.i, 461168601842738791
  tail call void @llvm.assume(i1 %_23.i.i12.i)
  %35 = getelementptr inbounds nuw i8, ptr %_1, i64 24
  %tail.i.i13.i = load i64, ptr %35, align 8, !alias.scope !196, !noundef !8
  %_7.not.i.i14.i = icmp eq i64 %tail.i.i13.i, %start1.i.i11.i
  br i1 %_7.not.i.i14.i, label %bb3.i.i20.i, label %bb2.i.i15.i

bb3.i.i20.i:                                      ; preds = %bb2.i.i15.i, %bb1.i.i9.i
  %new_len.i.i22.i = add i64 %start1.i.i11.i, %_3.i.i7.i
  store i64 %new_len.i.i22.i, ptr %34, align 8, !noalias !196
  br label %_RNvXs5_NtNtCsdJPVW0sQgAG_5alloc3vec5drainINtB5_5DrainNtCsbtZo8rQoR5w_10proc_macro9TokenTreeENtNtNtCsjMrxcFdYDNN_4core3ops4drop4Drop4dropCsfcjqfaF2v4X_11proc_macro2.exit

bb2.i.i15.i:                                      ; preds = %bb1.i.i9.i
  %_24.i.i16.i = load ptr, ptr %14, align 8, !noalias !196, !nonnull !8, !noundef !8
  %src.i.i17.i = getelementptr inbounds nuw %"proc_macro::TokenTree", ptr %_24.i.i16.i, i64 %tail.i.i13.i
  %dst.i.i18.i = getelementptr inbounds nuw %"proc_macro::TokenTree", ptr %_24.i.i16.i, i64 %start1.i.i11.i
  %36 = mul i64 %_3.i.i7.i, 20
  tail call void @llvm.memmove.p0.p0.i64(ptr nonnull align 4 %dst.i.i18.i, ptr nonnull align 4 %src.i.i17.i, i64 %36, i1 false), !noalias !196
  br label %bb3.i.i20.i

_RNvXs5_NtNtCsdJPVW0sQgAG_5alloc3vec5drainINtB5_5DrainNtCsbtZo8rQoR5w_10proc_macro9TokenTreeENtNtNtCsjMrxcFdYDNN_4core3ops4drop4Drop4dropCsfcjqfaF2v4X_11proc_macro2.exit: ; preds = %bb4.i, %bb3.i.i.i, %bb6.i, %bb3.i.i20.i
  ret void
}

; core::ptr::drop_in_place::<<alloc::vec::drain::Drain<_, _> as core::ops::drop::Drop>::drop::DropGuard<proc_macro::TokenTree, alloc::alloc::Global>>
; Function Attrs: mustprogress nofree norecurse nosync nounwind willreturn memory(readwrite, inaccessiblemem: write) uwtable
define internal fastcc void @_RINvNtCsjMrxcFdYDNN_4core3ptr13drop_in_placeINtNvXs5_NtNtCsdJPVW0sQgAG_5alloc3vec5drainINtBP_5DrainppENtNtNtB4_3ops4drop4Drop4drop9DropGuardNtCsbtZo8rQoR5w_10proc_macro9TokenTreeNtNtBT_5alloc6GlobalEECsfcjqfaF2v4X_11proc_macro2(ptr readonly captures(address_is_null) %_1.0.val) unnamed_addr #4 {
start:
  %0 = icmp ne ptr %_1.0.val, null
  tail call void @llvm.assume(i1 %0)
  %1 = getelementptr inbounds nuw i8, ptr %_1.0.val, i64 32
  %_3.i = load i64, ptr %1, align 8, !noundef !8
  %_2.not.i = icmp eq i64 %_3.i, 0
  br i1 %_2.not.i, label %_RNvXNvXs5_NtNtCsdJPVW0sQgAG_5alloc3vec5drainINtB8_5DrainppENtNtNtCsjMrxcFdYDNN_4core3ops4drop4Drop4dropINtB2_9DropGuardNtCsbtZo8rQoR5w_10proc_macro9TokenTreeNtNtBc_5alloc6GlobalEBV_4dropCsfcjqfaF2v4X_11proc_macro2.exit, label %bb1.i

bb1.i:                                            ; preds = %start
  %2 = getelementptr inbounds nuw i8, ptr %_1.0.val, i64 16
  %_22.i = load ptr, ptr %2, align 8, !nonnull !8, !noundef !8
  %3 = getelementptr inbounds nuw i8, ptr %_22.i, i64 16
  %start1.i = load i64, ptr %3, align 8, !noundef !8
  %_23.i = icmp ult i64 %start1.i, 461168601842738791
  tail call void @llvm.assume(i1 %_23.i)
  %4 = getelementptr inbounds nuw i8, ptr %_1.0.val, i64 24
  %tail.i = load i64, ptr %4, align 8, !noundef !8
  %_7.not.i = icmp eq i64 %tail.i, %start1.i
  br i1 %_7.not.i, label %bb3.i, label %bb2.i

bb3.i:                                            ; preds = %bb2.i, %bb1.i
  %_15.i = phi i64 [ %_15.pre.i, %bb2.i ], [ %_3.i, %bb1.i ]
  %new_len.i = add i64 %_15.i, %start1.i
  store i64 %new_len.i, ptr %3, align 8
  br label %_RNvXNvXs5_NtNtCsdJPVW0sQgAG_5alloc3vec5drainINtB8_5DrainppENtNtNtCsjMrxcFdYDNN_4core3ops4drop4Drop4dropINtB2_9DropGuardNtCsbtZo8rQoR5w_10proc_macro9TokenTreeNtNtBc_5alloc6GlobalEBV_4dropCsfcjqfaF2v4X_11proc_macro2.exit

bb2.i:                                            ; preds = %bb1.i
  %5 = getelementptr inbounds nuw i8, ptr %_22.i, i64 8
  %_24.i = load ptr, ptr %5, align 8, !nonnull !8, !noundef !8
  %src.i = getelementptr inbounds nuw %"proc_macro::TokenTree", ptr %_24.i, i64 %tail.i
  %dst.i = getelementptr inbounds nuw %"proc_macro::TokenTree", ptr %_24.i, i64 %start1.i
  %6 = mul i64 %_3.i, 20
  tail call void @llvm.memmove.p0.p0.i64(ptr nonnull align 4 %dst.i, ptr nonnull align 4 %src.i, i64 %6, i1 false)
  %_15.pre.i = load i64, ptr %1, align 8
  br label %bb3.i

_RNvXNvXs5_NtNtCsdJPVW0sQgAG_5alloc3vec5drainINtB8_5DrainppENtNtNtCsjMrxcFdYDNN_4core3ops4drop4Drop4dropINtB2_9DropGuardNtCsbtZo8rQoR5w_10proc_macro9TokenTreeNtNtBc_5alloc6GlobalEBV_4dropCsfcjqfaF2v4X_11proc_macro2.exit: ; preds = %start, %bb3.i
  ret void
}

; core::ptr::drop_in_place::<proc_macro2::TokenTree>
; Function Attrs: uwtable
define internal void @_RINvNtCsjMrxcFdYDNN_4core3ptr13drop_in_placeNtCsfcjqfaF2v4X_11proc_macro29TokenTreeEBI_(ptr noalias noundef align 8 dereferenceable(32) %_1) unnamed_addr #3 personality ptr @rust_eh_personality {
start:
  %0 = load i32, ptr %_1, align 8, !range !221, !noundef !8
  switch i32 %0, label %default.unreachable2 [
    i32 0, label %bb2
    i32 1, label %bb3
    i32 2, label %bb1
    i32 3, label %bb4
  ]

default.unreachable2:                             ; preds = %start
  unreachable

bb4:                                              ; preds = %start
  %1 = getelementptr inbounds nuw i8, ptr %_1, i64 8
  %.val = load i64, ptr %1, align 8, !range !222, !noundef !8
  switch i64 %.val, label %bb2.i.i.i4.i.i.i.i.i [
    i64 -9223372036854775808, label %bb1
    i64 0, label %bb1
  ]

bb2.i.i.i4.i.i.i.i.i:                             ; preds = %bb4
  %2 = getelementptr inbounds nuw i8, ptr %_1, i64 16
  %.val1 = load ptr, ptr %2, align 8, !nonnull !8, !noundef !8
; call __rustc::__rust_dealloc
  tail call void @_RNvCsKhRCbHf33p_7___rustc14___rust_dealloc(ptr noundef nonnull %.val1, i64 noundef %.val, i64 noundef range(i64 1, -9223372036854775807) 1) #30, !noalias !223
  br label %bb1

bb2:                                              ; preds = %start
  %3 = getelementptr inbounds nuw i8, ptr %_1, i64 8
  %4 = load i32, ptr %3, align 8, !range !226, !alias.scope !227, !noundef !8
  %5 = icmp eq i32 %4, 0
  br i1 %5, label %bb2.i, label %bb3.i

bb2.i:                                            ; preds = %bb2
  %6 = getelementptr inbounds nuw i8, ptr %_1, i64 24
  %7 = load i32, ptr %6, align 8, !alias.scope !230, !noundef !8
  %8 = icmp eq i32 %7, 0
  br i1 %8, label %bb1, label %bb2.i.i.i.i

bb2.i.i.i.i:                                      ; preds = %bb2.i
; call <proc_macro::bridge::client::TokenStream as core::ops::drop::Drop>::drop
  tail call void @_RNvXsi_NtNtCsbtZo8rQoR5w_10proc_macro6bridge6clientNtB5_11TokenStreamNtNtNtCsjMrxcFdYDNN_4core3ops4drop4Drop4drop(ptr noalias noundef nonnull align 4 dereferenceable(4) %6)
  br label %bb1

bb3.i:                                            ; preds = %bb2
  %9 = getelementptr inbounds nuw i8, ptr %_1, i64 16
; invoke <proc_macro2::fallback::TokenStream as core::ops::drop::Drop>::drop
  invoke void @_RNvXs0_NtCsfcjqfaF2v4X_11proc_macro28fallbackNtB5_11TokenStreamNtNtNtCsjMrxcFdYDNN_4core3ops4drop4Drop4drop(ptr noalias noundef nonnull align 8 dereferenceable(16) %9)
          to label %bb4.i unwind label %cleanup.i

cleanup.i:                                        ; preds = %bb3.i
  %10 = landingpad { ptr, i32 }
          cleanup
  tail call void @llvm.experimental.noalias.scope.decl(metadata !237)
  tail call void @llvm.experimental.noalias.scope.decl(metadata !240)
  %_5.i.i.i = load ptr, ptr %9, align 8, !alias.scope !243, !nonnull !8, !noundef !8
  %_8.i.i.i = load i64, ptr %_5.i.i.i, align 8, !noalias !246, !noundef !8
  %val.i.i.i = add i64 %_8.i.i.i, -1
  store i64 %val.i.i.i, ptr %_5.i.i.i, align 8, !noalias !246
  %11 = icmp eq i64 %val.i.i.i, 0
  br i1 %11, label %bb1.i.i.i, label %_RINvNtCsjMrxcFdYDNN_4core3ptr13drop_in_placeINtNtCsdJPVW0sQgAG_5alloc2rc2RcINtNtBL_3vec3VecNtCsfcjqfaF2v4X_11proc_macro29TokenTreeEEEB1t_.exit.i

bb1.i.i.i:                                        ; preds = %cleanup.i
; invoke <alloc::rc::Rc<alloc::vec::Vec<proc_macro2::TokenTree>>>::drop_slow
  invoke void @_RNvMs6_NtCsdJPVW0sQgAG_5alloc2rcINtB5_2RcINtNtB7_3vec3VecNtCsfcjqfaF2v4X_11proc_macro29TokenTreeEE9drop_slowBV_(ptr noalias noundef nonnull align 8 dereferenceable(16) %9) #33
          to label %_RINvNtCsjMrxcFdYDNN_4core3ptr13drop_in_placeINtNtCsdJPVW0sQgAG_5alloc2rc2RcINtNtBL_3vec3VecNtCsfcjqfaF2v4X_11proc_macro29TokenTreeEEEB1t_.exit.i unwind label %terminate.i

_RINvNtCsjMrxcFdYDNN_4core3ptr13drop_in_placeINtNtCsdJPVW0sQgAG_5alloc2rc2RcINtNtBL_3vec3VecNtCsfcjqfaF2v4X_11proc_macro29TokenTreeEEEB1t_.exit.i: ; preds = %bb1.i.i.i, %cleanup.i
  resume { ptr, i32 } %10

bb4.i:                                            ; preds = %bb3.i
  tail call void @llvm.experimental.noalias.scope.decl(metadata !247)
  tail call void @llvm.experimental.noalias.scope.decl(metadata !250)
  %_5.i.i1.i = load ptr, ptr %9, align 8, !alias.scope !253, !nonnull !8, !noundef !8
  %_8.i.i2.i = load i64, ptr %_5.i.i1.i, align 8, !noalias !254, !noundef !8
  %val.i.i3.i = add i64 %_8.i.i2.i, -1
  store i64 %val.i.i3.i, ptr %_5.i.i1.i, align 8, !noalias !254
  %12 = icmp eq i64 %val.i.i3.i, 0
  br i1 %12, label %bb1.i.i6.i, label %bb1

bb1.i.i6.i:                                       ; preds = %bb4.i
; call <alloc::rc::Rc<alloc::vec::Vec<proc_macro2::TokenTree>>>::drop_slow
  tail call void @_RNvMs6_NtCsdJPVW0sQgAG_5alloc2rcINtB5_2RcINtNtB7_3vec3VecNtCsfcjqfaF2v4X_11proc_macro29TokenTreeEE9drop_slowBV_(ptr noalias noundef nonnull align 8 dereferenceable(16) %9) #33
  br label %bb1

terminate.i:                                      ; preds = %bb1.i.i.i
  %13 = landingpad { ptr, i32 }
          filter [0 x ptr] zeroinitializer
; call core::panicking::panic_in_cleanup
  tail call void @_RNvNtCsjMrxcFdYDNN_4core9panicking16panic_in_cleanup() #31
  unreachable

bb3:                                              ; preds = %start
  %14 = getelementptr inbounds nuw i8, ptr %_1, i64 8
  tail call void @llvm.experimental.noalias.scope.decl(metadata !255)
  tail call void @llvm.experimental.noalias.scope.decl(metadata !258)
  %15 = getelementptr inbounds nuw i8, ptr %_1, i64 24
  %16 = load i8, ptr %15, align 8, !range !261, !alias.scope !262, !noundef !8
  %17 = icmp eq i8 %16, 2
  br i1 %17, label %bb1, label %bb2.i.i

bb2.i.i:                                          ; preds = %bb3
  %18 = getelementptr inbounds nuw i8, ptr %_1, i64 16
  %_1.val1.i.i = load i64, ptr %18, align 8, !alias.scope !262, !noundef !8
  %19 = icmp eq i64 %_1.val1.i.i, 0
  br i1 %19, label %bb1, label %_RNvXs_NtCsdJPVW0sQgAG_5alloc5allocNtB4_6GlobalNtNtCsjMrxcFdYDNN_4core5alloc9Allocator10deallocate.exit.i.i.i.i.i

_RNvXs_NtCsdJPVW0sQgAG_5alloc5allocNtB4_6GlobalNtNtCsjMrxcFdYDNN_4core5alloc9Allocator10deallocate.exit.i.i.i.i.i: ; preds = %bb2.i.i
  %_1.val.i.i = load ptr, ptr %14, align 8, !alias.scope !262, !nonnull !8, !noundef !8
; call __rustc::__rust_dealloc
  tail call void @_RNvCsKhRCbHf33p_7___rustc14___rust_dealloc(ptr noundef nonnull %_1.val.i.i, i64 noundef %_1.val1.i.i, i64 noundef 1) #30, !noalias !262
  br label %bb1

bb1:                                              ; preds = %_RNvXs_NtCsdJPVW0sQgAG_5alloc5allocNtB4_6GlobalNtNtCsjMrxcFdYDNN_4core5alloc9Allocator10deallocate.exit.i.i.i.i.i, %bb2.i.i, %bb3, %bb2.i.i.i.i, %bb2.i, %bb4.i, %bb1.i.i6.i, %bb2.i.i.i4.i.i.i.i.i, %bb4, %bb4, %start
  ret void
}

; core::ptr::drop_in_place::<alloc::string::String>
; Function Attrs: nounwind uwtable
define internal void @_RINvNtCsjMrxcFdYDNN_4core3ptr13drop_in_placeNtNtCsdJPVW0sQgAG_5alloc6string6StringECsfcjqfaF2v4X_11proc_macro2(ptr noalias noundef readonly align 8 captures(none) dereferenceable(24) %_1) unnamed_addr #2 personality ptr @rust_eh_personality {
start:
  %_1.val = load i64, ptr %_1, align 8
  %0 = icmp eq i64 %_1.val, 0
  br i1 %0, label %_RINvNtCsjMrxcFdYDNN_4core3ptr13drop_in_placeINtNtCsdJPVW0sQgAG_5alloc3vec3VechEECsfcjqfaF2v4X_11proc_macro2.exit, label %bb2.i.i.i4.i

bb2.i.i.i4.i:                                     ; preds = %start
  %1 = getelementptr inbounds nuw i8, ptr %_1, i64 8
  %_1.val1 = load ptr, ptr %1, align 8, !nonnull !8, !noundef !8
; call __rustc::__rust_dealloc
  tail call void @_RNvCsKhRCbHf33p_7___rustc14___rust_dealloc(ptr noundef nonnull %_1.val1, i64 noundef %_1.val, i64 noundef range(i64 1, -9223372036854775807) 1) #30
  br label %_RINvNtCsjMrxcFdYDNN_4core3ptr13drop_in_placeINtNtCsdJPVW0sQgAG_5alloc3vec3VechEECsfcjqfaF2v4X_11proc_macro2.exit

_RINvNtCsjMrxcFdYDNN_4core3ptr13drop_in_placeINtNtCsdJPVW0sQgAG_5alloc3vec3VechEECsfcjqfaF2v4X_11proc_macro2.exit: ; preds = %start, %bb2.i.i.i4.i
  ret void
}

; core::ptr::drop_in_place::<proc_macro2::token_stream::IntoIter>
; Function Attrs: uwtable
define internal fastcc void @_RINvNtCsjMrxcFdYDNN_4core3ptr13drop_in_placeNtNtCsfcjqfaF2v4X_11proc_macro212token_stream8IntoIterEBK_(ptr noalias noundef nonnull readonly align 8 captures(none) dereferenceable(40) %_1) unnamed_addr #3 personality ptr @rust_eh_personality {
start:
  tail call void @llvm.experimental.noalias.scope.decl(metadata !263)
  %_2.i = load i64, ptr %_1, align 8, !range !266, !alias.scope !263, !noundef !8
  %0 = icmp eq i64 %_2.i, 0
  %1 = getelementptr inbounds nuw i8, ptr %_1, i64 8
  br i1 %0, label %bb2.i, label %bb3.i

bb2.i:                                            ; preds = %start
  tail call void @llvm.experimental.noalias.scope.decl(metadata !267)
  tail call void @llvm.experimental.noalias.scope.decl(metadata !270)
  tail call void @llvm.experimental.noalias.scope.decl(metadata !273)
  %2 = getelementptr inbounds nuw i8, ptr %_1, i64 16
  %self.val.i.i.i.i = load ptr, ptr %2, align 8, !alias.scope !276, !nonnull !8, !noundef !8
  %3 = getelementptr inbounds nuw i8, ptr %_1, i64 32
  %self.val1.i.i.i.i = load ptr, ptr %3, align 8, !alias.scope !276, !nonnull !8, !noundef !8
  %4 = ptrtoint ptr %self.val1.i.i.i.i to i64
  %5 = ptrtoint ptr %self.val.i.i.i.i to i64
  %6 = sub nuw i64 %4, %5
  %7 = udiv exact i64 %6, 20
  %_710.i.i.i.i.i = icmp eq ptr %self.val1.i.i.i.i, %self.val.i.i.i.i
  br i1 %_710.i.i.i.i.i, label %bb2.i.i.i.i, label %bb5.i.i.i.i.i

cleanup.body.i.i.i.i:                             ; preds = %_RINvNtCsjMrxcFdYDNN_4core3ptr13drop_in_placeINtNtCsbtZo8rQoR5w_10proc_macro6bridge9TokenTreeNtNtBJ_6client11TokenStreamNtB1u_4SpanNtNtBJ_6symbol6SymbolEECsfcjqfaF2v4X_11proc_macro2.exit9.i.i.i.i.i, %cleanup.i.i.i.i.i
  %8 = getelementptr inbounds nuw i8, ptr %_1, i64 24
  %capacity1.i.i.i.i.i.i = load i64, ptr %8, align 8, !alias.scope !276, !noundef !8
  %9 = icmp eq i64 %capacity1.i.i.i.i.i.i, 0
  br i1 %9, label %common.resume.i, label %bb2.i.i.i.i.i.i.i.i.i

bb2.i.i.i.i.i.i.i.i.i:                            ; preds = %cleanup.body.i.i.i.i
  %ptr.i.i.i.i.i.i = load ptr, ptr %1, align 8, !alias.scope !276, !nonnull !8, !noundef !8
  %alloc_size.i.i.i.i.i.i.i.i.i.i = mul nuw i64 %capacity1.i.i.i.i.i.i, 20
; call __rustc::__rust_dealloc
  tail call void @_RNvCsKhRCbHf33p_7___rustc14___rust_dealloc(ptr noundef nonnull %ptr.i.i.i.i.i.i, i64 noundef %alloc_size.i.i.i.i.i.i.i.i.i.i, i64 noundef range(i64 1, -9223372036854775807) 4) #30, !noalias !276
  br label %common.resume.i

bb5.i.i.i.i.i:                                    ; preds = %bb2.i, %_RINvNtCsjMrxcFdYDNN_4core3ptr13drop_in_placeINtNtCsbtZo8rQoR5w_10proc_macro6bridge9TokenTreeNtNtBJ_6client11TokenStreamNtB1u_4SpanNtNtBJ_6symbol6SymbolEECsfcjqfaF2v4X_11proc_macro2.exit.i.i.i.i.i
  %_3.sroa.0.011.i.i.i.i.i = phi i64 [ %10, %_RINvNtCsjMrxcFdYDNN_4core3ptr13drop_in_placeINtNtCsbtZo8rQoR5w_10proc_macro6bridge9TokenTreeNtNtBJ_6client11TokenStreamNtB1u_4SpanNtNtBJ_6symbol6SymbolEECsfcjqfaF2v4X_11proc_macro2.exit.i.i.i.i.i ], [ 0, %bb2.i ]
  %_6.i.i.i.i.i = getelementptr inbounds nuw %"proc_macro::bridge::TokenTree<proc_macro::bridge::client::TokenStream, proc_macro::bridge::client::Span, proc_macro::bridge::symbol::Symbol>", ptr %self.val.i.i.i.i, i64 %_3.sroa.0.011.i.i.i.i.i
  %10 = add nuw i64 %_3.sroa.0.011.i.i.i.i.i, 1
  %11 = getelementptr inbounds nuw i8, ptr %_6.i.i.i.i.i, i64 16
  %12 = load i8, ptr %11, align 4, !range !116, !alias.scope !277, !noalias !276, !noundef !8
  %13 = icmp samesign ult i8 %12, 4
  br i1 %13, label %bb2.i.i.i.i.i.i, label %_RINvNtCsjMrxcFdYDNN_4core3ptr13drop_in_placeINtNtCsbtZo8rQoR5w_10proc_macro6bridge9TokenTreeNtNtBJ_6client11TokenStreamNtB1u_4SpanNtNtBJ_6symbol6SymbolEECsfcjqfaF2v4X_11proc_macro2.exit.i.i.i.i.i

bb2.i.i.i.i.i.i:                                  ; preds = %bb5.i.i.i.i.i
  %14 = getelementptr inbounds nuw i8, ptr %_6.i.i.i.i.i, i64 12
  %15 = load i32, ptr %14, align 4, !alias.scope !282, !noalias !276, !noundef !8
  %16 = icmp eq i32 %15, 0
  br i1 %16, label %_RINvNtCsjMrxcFdYDNN_4core3ptr13drop_in_placeINtNtCsbtZo8rQoR5w_10proc_macro6bridge9TokenTreeNtNtBJ_6client11TokenStreamNtB1u_4SpanNtNtBJ_6symbol6SymbolEECsfcjqfaF2v4X_11proc_macro2.exit.i.i.i.i.i, label %bb2.i.i.i.i.i.i.i.i

bb2.i.i.i.i.i.i.i.i:                              ; preds = %bb2.i.i.i.i.i.i
; invoke <proc_macro::bridge::client::TokenStream as core::ops::drop::Drop>::drop
  invoke void @_RNvXsi_NtNtCsbtZo8rQoR5w_10proc_macro6bridge6clientNtB5_11TokenStreamNtNtNtCsjMrxcFdYDNN_4core3ops4drop4Drop4drop(ptr noalias noundef nonnull align 4 dereferenceable(4) %14)
          to label %_RINvNtCsjMrxcFdYDNN_4core3ptr13drop_in_placeINtNtCsbtZo8rQoR5w_10proc_macro6bridge9TokenTreeNtNtBJ_6client11TokenStreamNtB1u_4SpanNtNtBJ_6symbol6SymbolEECsfcjqfaF2v4X_11proc_macro2.exit.i.i.i.i.i unwind label %cleanup.i.i.i.i.i, !noalias !276

_RINvNtCsjMrxcFdYDNN_4core3ptr13drop_in_placeINtNtCsbtZo8rQoR5w_10proc_macro6bridge9TokenTreeNtNtBJ_6client11TokenStreamNtB1u_4SpanNtNtBJ_6symbol6SymbolEECsfcjqfaF2v4X_11proc_macro2.exit.i.i.i.i.i: ; preds = %bb2.i.i.i.i.i.i.i.i, %bb2.i.i.i.i.i.i, %bb5.i.i.i.i.i
  %_7.i.i.i.i.i = icmp eq i64 %10, %7
  br i1 %_7.i.i.i.i.i, label %bb2.i.i.i.i, label %bb5.i.i.i.i.i

cleanup.i.i.i.i.i:                                ; preds = %bb2.i.i.i.i.i.i.i.i
  %17 = landingpad { ptr, i32 }
          cleanup
  %_512.i.i.i.i.i = icmp eq i64 %10, %7
  br i1 %_512.i.i.i.i.i, label %cleanup.body.i.i.i.i, label %bb3.i.i.i.i.i

bb3.i.i.i.i.i:                                    ; preds = %cleanup.i.i.i.i.i, %_RINvNtCsjMrxcFdYDNN_4core3ptr13drop_in_placeINtNtCsbtZo8rQoR5w_10proc_macro6bridge9TokenTreeNtNtBJ_6client11TokenStreamNtB1u_4SpanNtNtBJ_6symbol6SymbolEECsfcjqfaF2v4X_11proc_macro2.exit9.i.i.i.i.i
  %_3.sroa.0.113.i.i.i.i.i = phi i64 [ %18, %_RINvNtCsjMrxcFdYDNN_4core3ptr13drop_in_placeINtNtCsbtZo8rQoR5w_10proc_macro6bridge9TokenTreeNtNtBJ_6client11TokenStreamNtB1u_4SpanNtNtBJ_6symbol6SymbolEECsfcjqfaF2v4X_11proc_macro2.exit9.i.i.i.i.i ], [ %10, %cleanup.i.i.i.i.i ]
  %_4.i.i.i.i.i = getelementptr inbounds nuw %"proc_macro::bridge::TokenTree<proc_macro::bridge::client::TokenStream, proc_macro::bridge::client::Span, proc_macro::bridge::symbol::Symbol>", ptr %self.val.i.i.i.i, i64 %_3.sroa.0.113.i.i.i.i.i
  %18 = add i64 %_3.sroa.0.113.i.i.i.i.i, 1
  %19 = getelementptr inbounds nuw i8, ptr %_4.i.i.i.i.i, i64 16
  %20 = load i8, ptr %19, align 4, !range !116, !alias.scope !287, !noalias !276, !noundef !8
  %21 = icmp samesign ult i8 %20, 4
  br i1 %21, label %bb2.i6.i.i.i.i.i, label %_RINvNtCsjMrxcFdYDNN_4core3ptr13drop_in_placeINtNtCsbtZo8rQoR5w_10proc_macro6bridge9TokenTreeNtNtBJ_6client11TokenStreamNtB1u_4SpanNtNtBJ_6symbol6SymbolEECsfcjqfaF2v4X_11proc_macro2.exit9.i.i.i.i.i

bb2.i6.i.i.i.i.i:                                 ; preds = %bb3.i.i.i.i.i
  %22 = getelementptr inbounds nuw i8, ptr %_4.i.i.i.i.i, i64 12
  %23 = load i32, ptr %22, align 4, !alias.scope !290, !noalias !276, !noundef !8
  %24 = icmp eq i32 %23, 0
  br i1 %24, label %_RINvNtCsjMrxcFdYDNN_4core3ptr13drop_in_placeINtNtCsbtZo8rQoR5w_10proc_macro6bridge9TokenTreeNtNtBJ_6client11TokenStreamNtB1u_4SpanNtNtBJ_6symbol6SymbolEECsfcjqfaF2v4X_11proc_macro2.exit9.i.i.i.i.i, label %bb2.i.i.i7.i.i.i.i.i

bb2.i.i.i7.i.i.i.i.i:                             ; preds = %bb2.i6.i.i.i.i.i
; invoke <proc_macro::bridge::client::TokenStream as core::ops::drop::Drop>::drop
  invoke void @_RNvXsi_NtNtCsbtZo8rQoR5w_10proc_macro6bridge6clientNtB5_11TokenStreamNtNtNtCsjMrxcFdYDNN_4core3ops4drop4Drop4drop(ptr noalias noundef nonnull align 4 dereferenceable(4) %22)
          to label %_RINvNtCsjMrxcFdYDNN_4core3ptr13drop_in_placeINtNtCsbtZo8rQoR5w_10proc_macro6bridge9TokenTreeNtNtBJ_6client11TokenStreamNtB1u_4SpanNtNtBJ_6symbol6SymbolEECsfcjqfaF2v4X_11proc_macro2.exit9.i.i.i.i.i unwind label %terminate.i.i.i.i.i, !noalias !276

_RINvNtCsjMrxcFdYDNN_4core3ptr13drop_in_placeINtNtCsbtZo8rQoR5w_10proc_macro6bridge9TokenTreeNtNtBJ_6client11TokenStreamNtB1u_4SpanNtNtBJ_6symbol6SymbolEECsfcjqfaF2v4X_11proc_macro2.exit9.i.i.i.i.i: ; preds = %bb2.i.i.i7.i.i.i.i.i, %bb2.i6.i.i.i.i.i, %bb3.i.i.i.i.i
  %_5.i.i.i.i.i = icmp eq i64 %18, %7
  br i1 %_5.i.i.i.i.i, label %cleanup.body.i.i.i.i, label %bb3.i.i.i.i.i

terminate.i.i.i.i.i:                              ; preds = %bb2.i.i.i7.i.i.i.i.i
  %25 = landingpad { ptr, i32 }
          filter [0 x ptr] zeroinitializer
; call core::panicking::panic_in_cleanup
  tail call void @_RNvNtCsjMrxcFdYDNN_4core9panicking16panic_in_cleanup() #31, !noalias !276
  unreachable

bb2.i.i.i.i:                                      ; preds = %_RINvNtCsjMrxcFdYDNN_4core3ptr13drop_in_placeINtNtCsbtZo8rQoR5w_10proc_macro6bridge9TokenTreeNtNtBJ_6client11TokenStreamNtB1u_4SpanNtNtBJ_6symbol6SymbolEECsfcjqfaF2v4X_11proc_macro2.exit.i.i.i.i.i, %bb2.i
  %26 = getelementptr inbounds nuw i8, ptr %_1, i64 24
  %capacity1.i.i3.i.i.i.i = load i64, ptr %26, align 8, !alias.scope !276, !noundef !8
  %27 = icmp eq i64 %capacity1.i.i3.i.i.i.i, 0
  br i1 %27, label %_RINvNtCsjMrxcFdYDNN_4core3ptr13drop_in_placeNtNtCsfcjqfaF2v4X_11proc_macro23imp13TokenTreeIterEBK_.exit, label %bb2.i.i.i.i.i4.i.i.i.i

bb2.i.i.i.i.i4.i.i.i.i:                           ; preds = %bb2.i.i.i.i
  %ptr.i.i5.i.i.i.i = load ptr, ptr %1, align 8, !alias.scope !276, !nonnull !8, !noundef !8
  %alloc_size.i.i.i.i.i.i6.i.i.i.i = mul nuw i64 %capacity1.i.i3.i.i.i.i, 20
; call __rustc::__rust_dealloc
  tail call void @_RNvCsKhRCbHf33p_7___rustc14___rust_dealloc(ptr noundef nonnull %ptr.i.i5.i.i.i.i, i64 noundef %alloc_size.i.i.i.i.i.i6.i.i.i.i, i64 noundef range(i64 1, -9223372036854775807) 4) #30, !noalias !276
  br label %_RINvNtCsjMrxcFdYDNN_4core3ptr13drop_in_placeNtNtCsfcjqfaF2v4X_11proc_macro23imp13TokenTreeIterEBK_.exit

common.resume.i:                                  ; preds = %bb2.i.i.i.i.i.i.i1.i, %cleanup.i.i.i, %bb2.i.i.i.i.i.i.i.i.i, %cleanup.body.i.i.i.i
  %common.resume.op.i = phi { ptr, i32 } [ %17, %bb2.i.i.i.i.i.i.i.i.i ], [ %17, %cleanup.body.i.i.i.i ], [ %34, %bb2.i.i.i.i.i.i.i1.i ], [ %34, %cleanup.i.i.i ]
  resume { ptr, i32 } %common.resume.op.i

bb3.i:                                            ; preds = %start
  tail call void @llvm.experimental.noalias.scope.decl(metadata !295)
  %28 = getelementptr inbounds nuw i8, ptr %_1, i64 16
  %self.val.i.i.i = load ptr, ptr %28, align 8, !alias.scope !298, !nonnull !8, !noundef !8
  %29 = getelementptr inbounds nuw i8, ptr %_1, i64 32
  %self.val1.i.i.i = load ptr, ptr %29, align 8, !alias.scope !298, !nonnull !8, !noundef !8
  %30 = ptrtoint ptr %self.val1.i.i.i to i64
  %31 = ptrtoint ptr %self.val.i.i.i to i64
  %32 = sub nuw i64 %30, %31
  %33 = lshr exact i64 %32, 5
; invoke core::ptr::drop_in_place::<[proc_macro2::TokenTree]>
  invoke fastcc void @_RINvNtCsjMrxcFdYDNN_4core3ptr13drop_in_placeSNtCsfcjqfaF2v4X_11proc_macro29TokenTreeEBJ_(ptr noalias noundef nonnull align 8 %self.val.i.i.i, i64 noundef %33) #34
          to label %bb2.i.i.i unwind label %cleanup.i.i.i, !noalias !301

cleanup.i.i.i:                                    ; preds = %bb3.i
  %34 = landingpad { ptr, i32 }
          cleanup
  %35 = getelementptr inbounds nuw i8, ptr %_1, i64 24
  %capacity1.i.i.i.i.i = load i64, ptr %35, align 8, !alias.scope !301, !noundef !8
  %36 = icmp eq i64 %capacity1.i.i.i.i.i, 0
  br i1 %36, label %common.resume.i, label %bb2.i.i.i.i.i.i.i1.i

bb2.i.i.i.i.i.i.i1.i:                             ; preds = %cleanup.i.i.i
  %ptr.i.i.i.i.i = load ptr, ptr %1, align 8, !alias.scope !301, !nonnull !8, !noundef !8
  %alloc_size.i.i.i.i.i.i.i.i.i = shl nuw i64 %capacity1.i.i.i.i.i, 5
; call __rustc::__rust_dealloc
  tail call void @_RNvCsKhRCbHf33p_7___rustc14___rust_dealloc(ptr noundef nonnull %ptr.i.i.i.i.i, i64 noundef %alloc_size.i.i.i.i.i.i.i.i.i, i64 noundef range(i64 1, -9223372036854775807) 8) #30, !noalias !301
  br label %common.resume.i

bb2.i.i.i:                                        ; preds = %bb3.i
  %37 = getelementptr inbounds nuw i8, ptr %_1, i64 24
  %capacity1.i.i3.i.i.i = load i64, ptr %37, align 8, !alias.scope !301, !noundef !8
  %38 = icmp eq i64 %capacity1.i.i3.i.i.i, 0
  br i1 %38, label %_RINvNtCsjMrxcFdYDNN_4core3ptr13drop_in_placeNtNtCsfcjqfaF2v4X_11proc_macro23imp13TokenTreeIterEBK_.exit, label %bb2.i.i.i.i.i4.i.i.i

bb2.i.i.i.i.i4.i.i.i:                             ; preds = %bb2.i.i.i
  %ptr.i.i5.i.i.i = load ptr, ptr %1, align 8, !alias.scope !301, !nonnull !8, !noundef !8
  %alloc_size.i.i.i.i.i.i6.i.i.i = shl nuw i64 %capacity1.i.i3.i.i.i, 5
; call __rustc::__rust_dealloc
  tail call void @_RNvCsKhRCbHf33p_7___rustc14___rust_dealloc(ptr noundef nonnull %ptr.i.i5.i.i.i, i64 noundef %alloc_size.i.i.i.i.i.i6.i.i.i, i64 noundef range(i64 1, -9223372036854775807) 8) #30, !noalias !301
  br label %_RINvNtCsjMrxcFdYDNN_4core3ptr13drop_in_placeNtNtCsfcjqfaF2v4X_11proc_macro23imp13TokenTreeIterEBK_.exit

_RINvNtCsjMrxcFdYDNN_4core3ptr13drop_in_placeNtNtCsfcjqfaF2v4X_11proc_macro23imp13TokenTreeIterEBK_.exit: ; preds = %bb2.i.i.i.i, %bb2.i.i.i.i.i4.i.i.i.i, %bb2.i.i.i, %bb2.i.i.i.i.i4.i.i.i
  ret void
}

; core::ptr::drop_in_place::<proc_macro2::imp::TokenStream>
; Function Attrs: uwtable
define internal fastcc void @_RINvNtCsjMrxcFdYDNN_4core3ptr13drop_in_placeNtNtCsfcjqfaF2v4X_11proc_macro23imp11TokenStreamEBK_(ptr noalias noundef nonnull align 8 dereferenceable(32) %_1) unnamed_addr #3 personality ptr @rust_eh_personality {
start:
  %0 = load i64, ptr %_1, align 8, !range !222, !noundef !8
  %.not = icmp eq i64 %0, -9223372036854775808
  br i1 %.not, label %bb3, label %bb2

bb2:                                              ; preds = %start
  %1 = getelementptr inbounds nuw i8, ptr %_1, i64 24
  %2 = load i32, ptr %1, align 8, !alias.scope !302, !noundef !8
  %3 = icmp eq i32 %2, 0
  br i1 %3, label %_RINvNtCsjMrxcFdYDNN_4core3ptr13drop_in_placeNtNtCsfcjqfaF2v4X_11proc_macro23imp19DeferredTokenStreamEBK_.exit, label %bb2.i.i.i

bb2.i.i.i:                                        ; preds = %bb2
; invoke <proc_macro::bridge::client::TokenStream as core::ops::drop::Drop>::drop
  invoke void @_RNvXsi_NtNtCsbtZo8rQoR5w_10proc_macro6bridge6clientNtB5_11TokenStreamNtNtNtCsjMrxcFdYDNN_4core3ops4drop4Drop4drop(ptr noalias noundef nonnull align 4 dereferenceable(4) %1)
          to label %_RINvNtCsjMrxcFdYDNN_4core3ptr13drop_in_placeNtNtCsfcjqfaF2v4X_11proc_macro23imp19DeferredTokenStreamEBK_.exit unwind label %cleanup.i

cleanup.i:                                        ; preds = %bb2.i.i.i
  %4 = landingpad { ptr, i32 }
          cleanup
; invoke core::ptr::drop_in_place::<alloc::vec::Vec<proc_macro::TokenTree>>
  invoke fastcc void @_RINvNtCsjMrxcFdYDNN_4core3ptr13drop_in_placeINtNtCsdJPVW0sQgAG_5alloc3vec3VecNtCsbtZo8rQoR5w_10proc_macro9TokenTreeEECsfcjqfaF2v4X_11proc_macro2(ptr noalias noundef nonnull align 8 dereferenceable(32) %_1) #32
          to label %common.resume unwind label %terminate.i

terminate.i:                                      ; preds = %cleanup.i
  %5 = landingpad { ptr, i32 }
          filter [0 x ptr] zeroinitializer
; call core::panicking::panic_in_cleanup
  tail call void @_RNvNtCsjMrxcFdYDNN_4core9panicking16panic_in_cleanup() #31
  unreachable

common.resume:                                    ; preds = %cleanup.i1, %bb1.i.i.i, %cleanup.i
  %common.resume.op = phi { ptr, i32 } [ %4, %cleanup.i ], [ %7, %bb1.i.i.i ], [ %7, %cleanup.i1 ]
  resume { ptr, i32 } %common.resume.op

_RINvNtCsjMrxcFdYDNN_4core3ptr13drop_in_placeNtNtCsfcjqfaF2v4X_11proc_macro23imp19DeferredTokenStreamEBK_.exit: ; preds = %bb2, %bb2.i.i.i
; call core::ptr::drop_in_place::<alloc::vec::Vec<proc_macro::TokenTree>>
  tail call fastcc void @_RINvNtCsjMrxcFdYDNN_4core3ptr13drop_in_placeINtNtCsdJPVW0sQgAG_5alloc3vec3VecNtCsbtZo8rQoR5w_10proc_macro9TokenTreeEECsfcjqfaF2v4X_11proc_macro2(ptr noalias noundef nonnull align 8 dereferenceable(32) %_1)
  br label %bb1

bb3:                                              ; preds = %start
  %6 = getelementptr inbounds nuw i8, ptr %_1, i64 8
  tail call void @llvm.experimental.noalias.scope.decl(metadata !309)
; invoke <proc_macro2::fallback::TokenStream as core::ops::drop::Drop>::drop
  invoke void @_RNvXs0_NtCsfcjqfaF2v4X_11proc_macro28fallbackNtB5_11TokenStreamNtNtNtCsjMrxcFdYDNN_4core3ops4drop4Drop4drop(ptr noalias noundef nonnull readonly align 8 dereferenceable(8) %6)
          to label %bb4.i unwind label %cleanup.i1

cleanup.i1:                                       ; preds = %bb3
  %7 = landingpad { ptr, i32 }
          cleanup
  tail call void @llvm.experimental.noalias.scope.decl(metadata !312)
  tail call void @llvm.experimental.noalias.scope.decl(metadata !315)
  %_5.i.i.i = load ptr, ptr %6, align 8, !alias.scope !318, !nonnull !8, !noundef !8
  %_8.i.i.i = load i64, ptr %_5.i.i.i, align 8, !noalias !318, !noundef !8
  %val.i.i.i = add i64 %_8.i.i.i, -1
  store i64 %val.i.i.i, ptr %_5.i.i.i, align 8, !noalias !318
  %8 = icmp eq i64 %val.i.i.i, 0
  br i1 %8, label %bb1.i.i.i, label %common.resume

bb1.i.i.i:                                        ; preds = %cleanup.i1
; invoke <alloc::rc::Rc<alloc::vec::Vec<proc_macro2::TokenTree>>>::drop_slow
  invoke void @_RNvMs6_NtCsdJPVW0sQgAG_5alloc2rcINtB5_2RcINtNtB7_3vec3VecNtCsfcjqfaF2v4X_11proc_macro29TokenTreeEE9drop_slowBV_(ptr noalias noundef nonnull readonly align 8 dereferenceable(8) %6) #33
          to label %common.resume unwind label %terminate.i3

bb4.i:                                            ; preds = %bb3
  tail call void @llvm.experimental.noalias.scope.decl(metadata !319)
  tail call void @llvm.experimental.noalias.scope.decl(metadata !322)
  %_5.i.i1.i = load ptr, ptr %6, align 8, !alias.scope !325, !nonnull !8, !noundef !8
  %_8.i.i2.i = load i64, ptr %_5.i.i1.i, align 8, !noalias !325, !noundef !8
  %val.i.i3.i = add i64 %_8.i.i2.i, -1
  store i64 %val.i.i3.i, ptr %_5.i.i1.i, align 8, !noalias !325
  %9 = icmp eq i64 %val.i.i3.i, 0
  br i1 %9, label %bb1.i.i6.i, label %bb1

bb1.i.i6.i:                                       ; preds = %bb4.i
; call <alloc::rc::Rc<alloc::vec::Vec<proc_macro2::TokenTree>>>::drop_slow
  tail call void @_RNvMs6_NtCsdJPVW0sQgAG_5alloc2rcINtB5_2RcINtNtB7_3vec3VecNtCsfcjqfaF2v4X_11proc_macro29TokenTreeEE9drop_slowBV_(ptr noalias noundef nonnull readonly align 8 dereferenceable(8) %6) #33
  br label %bb1

terminate.i3:                                     ; preds = %bb1.i.i.i
  %10 = landingpad { ptr, i32 }
          filter [0 x ptr] zeroinitializer
; call core::panicking::panic_in_cleanup
  tail call void @_RNvNtCsjMrxcFdYDNN_4core9panicking16panic_in_cleanup() #31, !noalias !309
  unreachable

bb1:                                              ; preds = %bb1.i.i6.i, %bb4.i, %_RINvNtCsjMrxcFdYDNN_4core3ptr13drop_in_placeNtNtCsfcjqfaF2v4X_11proc_macro23imp19DeferredTokenStreamEBK_.exit
  ret void
}

; core::ptr::drop_in_place::<proc_macro2::imp::DeferredTokenStream>
; Function Attrs: uwtable
define internal fastcc void @_RINvNtCsjMrxcFdYDNN_4core3ptr13drop_in_placeNtNtCsfcjqfaF2v4X_11proc_macro23imp19DeferredTokenStreamEBK_(ptr noalias noundef nonnull align 8 dereferenceable(32) %_1) unnamed_addr #3 personality ptr @rust_eh_personality {
start:
  %0 = getelementptr inbounds nuw i8, ptr %_1, i64 24
  %1 = load i32, ptr %0, align 8, !alias.scope !326, !noundef !8
  %2 = icmp eq i32 %1, 0
  br i1 %2, label %bb4, label %bb2.i.i

bb2.i.i:                                          ; preds = %start
; invoke <proc_macro::bridge::client::TokenStream as core::ops::drop::Drop>::drop
  invoke void @_RNvXsi_NtNtCsbtZo8rQoR5w_10proc_macro6bridge6clientNtB5_11TokenStreamNtNtNtCsjMrxcFdYDNN_4core3ops4drop4Drop4drop(ptr noalias noundef nonnull align 4 dereferenceable(4) %0)
          to label %bb4 unwind label %cleanup

cleanup:                                          ; preds = %bb2.i.i
  %3 = landingpad { ptr, i32 }
          cleanup
; invoke core::ptr::drop_in_place::<alloc::vec::Vec<proc_macro::TokenTree>>
  invoke fastcc void @_RINvNtCsjMrxcFdYDNN_4core3ptr13drop_in_placeINtNtCsdJPVW0sQgAG_5alloc3vec3VecNtCsbtZo8rQoR5w_10proc_macro9TokenTreeEECsfcjqfaF2v4X_11proc_macro2(ptr noalias noundef align 8 dereferenceable(24) %_1) #32
          to label %bb1 unwind label %terminate

bb4:                                              ; preds = %start, %bb2.i.i
; call core::ptr::drop_in_place::<alloc::vec::Vec<proc_macro::TokenTree>>
  tail call fastcc void @_RINvNtCsjMrxcFdYDNN_4core3ptr13drop_in_placeINtNtCsdJPVW0sQgAG_5alloc3vec3VecNtCsbtZo8rQoR5w_10proc_macro9TokenTreeEECsfcjqfaF2v4X_11proc_macro2(ptr noalias noundef align 8 dereferenceable(24) %_1)
  ret void

terminate:                                        ; preds = %cleanup
  %4 = landingpad { ptr, i32 }
          filter [0 x ptr] zeroinitializer
; call core::panicking::panic_in_cleanup
  tail call void @_RNvNtCsjMrxcFdYDNN_4core9panicking16panic_in_cleanup() #31
  unreachable

bb1:                                              ; preds = %cleanup
  resume { ptr, i32 } %3
}

; core::ptr::drop_in_place::<proc_macro2::imp::Group>
; Function Attrs: uwtable
define internal fastcc void @_RINvNtCsjMrxcFdYDNN_4core3ptr13drop_in_placeNtNtCsfcjqfaF2v4X_11proc_macro23imp5GroupEBK_(ptr noalias noundef nonnull align 8 dereferenceable(24) %_1) unnamed_addr #3 personality ptr @rust_eh_personality {
start:
  %0 = load i32, ptr %_1, align 8, !range !226, !noundef !8
  %1 = icmp eq i32 %0, 0
  br i1 %1, label %bb2, label %bb3

bb2:                                              ; preds = %start
  %2 = getelementptr inbounds nuw i8, ptr %_1, i64 16
  %3 = load i32, ptr %2, align 8, !alias.scope !331, !noundef !8
  %4 = icmp eq i32 %3, 0
  br i1 %4, label %bb1, label %bb2.i.i.i

bb2.i.i.i:                                        ; preds = %bb2
; call <proc_macro::bridge::client::TokenStream as core::ops::drop::Drop>::drop
  tail call void @_RNvXsi_NtNtCsbtZo8rQoR5w_10proc_macro6bridge6clientNtB5_11TokenStreamNtNtNtCsjMrxcFdYDNN_4core3ops4drop4Drop4drop(ptr noalias noundef nonnull align 4 dereferenceable(4) %2)
  br label %bb1

bb3:                                              ; preds = %start
  %5 = getelementptr inbounds nuw i8, ptr %_1, i64 8
; invoke <proc_macro2::fallback::TokenStream as core::ops::drop::Drop>::drop
  invoke void @_RNvXs0_NtCsfcjqfaF2v4X_11proc_macro28fallbackNtB5_11TokenStreamNtNtNtCsjMrxcFdYDNN_4core3ops4drop4Drop4drop(ptr noalias noundef nonnull align 8 dereferenceable(16) %5)
          to label %_RINvNtCsjMrxcFdYDNN_4core3ptr13drop_in_placeNtNtCsfcjqfaF2v4X_11proc_macro28fallback11TokenStreamEBK_.exit unwind label %cleanup.i

cleanup.i:                                        ; preds = %bb3
  %6 = landingpad { ptr, i32 }
          cleanup
  tail call void @llvm.experimental.noalias.scope.decl(metadata !338)
  tail call void @llvm.experimental.noalias.scope.decl(metadata !341)
  %_5.i.i1 = load ptr, ptr %5, align 8, !alias.scope !344, !nonnull !8, !noundef !8
  %_8.i.i2 = load i64, ptr %_5.i.i1, align 8, !noalias !344, !noundef !8
  %val.i.i3 = add i64 %_8.i.i2, -1
  store i64 %val.i.i3, ptr %_5.i.i1, align 8, !noalias !344
  %7 = icmp eq i64 %val.i.i3, 0
  br i1 %7, label %bb1.i.i6, label %_RINvNtCsjMrxcFdYDNN_4core3ptr13drop_in_placeINtNtCsfcjqfaF2v4X_11proc_macro25rcvec5RcVecNtBL_9TokenTreeEEBL_.exit.i

bb1.i.i6:                                         ; preds = %cleanup.i
; invoke <alloc::rc::Rc<alloc::vec::Vec<proc_macro2::TokenTree>>>::drop_slow
  invoke void @_RNvMs6_NtCsdJPVW0sQgAG_5alloc2rcINtB5_2RcINtNtB7_3vec3VecNtCsfcjqfaF2v4X_11proc_macro29TokenTreeEE9drop_slowBV_(ptr noalias noundef nonnull align 8 dereferenceable(16) %5) #33
          to label %_RINvNtCsjMrxcFdYDNN_4core3ptr13drop_in_placeINtNtCsfcjqfaF2v4X_11proc_macro25rcvec5RcVecNtBL_9TokenTreeEEBL_.exit.i unwind label %terminate.i

_RINvNtCsjMrxcFdYDNN_4core3ptr13drop_in_placeINtNtCsfcjqfaF2v4X_11proc_macro25rcvec5RcVecNtBL_9TokenTreeEEBL_.exit.i: ; preds = %cleanup.i, %bb1.i.i6
  resume { ptr, i32 } %6

terminate.i:                                      ; preds = %bb1.i.i6
  %8 = landingpad { ptr, i32 }
          filter [0 x ptr] zeroinitializer
; call core::panicking::panic_in_cleanup
  tail call void @_RNvNtCsjMrxcFdYDNN_4core9panicking16panic_in_cleanup() #31
  unreachable

_RINvNtCsjMrxcFdYDNN_4core3ptr13drop_in_placeNtNtCsfcjqfaF2v4X_11proc_macro28fallback11TokenStreamEBK_.exit: ; preds = %bb3
  tail call void @llvm.experimental.noalias.scope.decl(metadata !345)
  tail call void @llvm.experimental.noalias.scope.decl(metadata !348)
  %_5.i.i = load ptr, ptr %5, align 8, !alias.scope !351, !nonnull !8, !noundef !8
  %_8.i.i = load i64, ptr %_5.i.i, align 8, !noalias !351, !noundef !8
  %val.i.i = add i64 %_8.i.i, -1
  store i64 %val.i.i, ptr %_5.i.i, align 8, !noalias !351
  %9 = icmp eq i64 %val.i.i, 0
  br i1 %9, label %bb1.i.i, label %bb1

bb1.i.i:                                          ; preds = %_RINvNtCsjMrxcFdYDNN_4core3ptr13drop_in_placeNtNtCsfcjqfaF2v4X_11proc_macro28fallback11TokenStreamEBK_.exit
; call <alloc::rc::Rc<alloc::vec::Vec<proc_macro2::TokenTree>>>::drop_slow
  tail call void @_RNvMs6_NtCsdJPVW0sQgAG_5alloc2rcINtB5_2RcINtNtB7_3vec3VecNtCsfcjqfaF2v4X_11proc_macro29TokenTreeEE9drop_slowBV_(ptr noalias noundef nonnull align 8 dereferenceable(16) %5) #33
  br label %bb1

bb1:                                              ; preds = %bb1.i.i, %_RINvNtCsjMrxcFdYDNN_4core3ptr13drop_in_placeNtNtCsfcjqfaF2v4X_11proc_macro28fallback11TokenStreamEBK_.exit, %bb2.i.i.i, %bb2
  ret void
}

; core::ptr::drop_in_place::<proc_macro2::fallback::TokenStream>
; Function Attrs: uwtable
define internal void @_RINvNtCsjMrxcFdYDNN_4core3ptr13drop_in_placeNtNtCsfcjqfaF2v4X_11proc_macro28fallback11TokenStreamEBK_(ptr noalias noundef readonly align 8 captures(none) dereferenceable(8) %_1) unnamed_addr #3 personality ptr @rust_eh_personality {
start:
; invoke <proc_macro2::fallback::TokenStream as core::ops::drop::Drop>::drop
  invoke void @_RNvXs0_NtCsfcjqfaF2v4X_11proc_macro28fallbackNtB5_11TokenStreamNtNtNtCsjMrxcFdYDNN_4core3ops4drop4Drop4drop(ptr noalias noundef nonnull align 8 dereferenceable(8) %_1)
          to label %bb4 unwind label %cleanup

cleanup:                                          ; preds = %start
  %0 = landingpad { ptr, i32 }
          cleanup
  tail call void @llvm.experimental.noalias.scope.decl(metadata !352)
  tail call void @llvm.experimental.noalias.scope.decl(metadata !355)
  %_5.i.i = load ptr, ptr %_1, align 8, !alias.scope !358, !nonnull !8, !noundef !8
  %_8.i.i = load i64, ptr %_5.i.i, align 8, !noalias !358, !noundef !8
  %val.i.i = add i64 %_8.i.i, -1
  store i64 %val.i.i, ptr %_5.i.i, align 8, !noalias !358
  %1 = icmp eq i64 %val.i.i, 0
  br i1 %1, label %bb1.i.i, label %bb1

bb1.i.i:                                          ; preds = %cleanup
; invoke <alloc::rc::Rc<alloc::vec::Vec<proc_macro2::TokenTree>>>::drop_slow
  invoke void @_RNvMs6_NtCsdJPVW0sQgAG_5alloc2rcINtB5_2RcINtNtB7_3vec3VecNtCsfcjqfaF2v4X_11proc_macro29TokenTreeEE9drop_slowBV_(ptr noalias noundef nonnull align 8 dereferenceable(8) %_1) #33
          to label %bb1 unwind label %terminate

bb4:                                              ; preds = %start
  tail call void @llvm.experimental.noalias.scope.decl(metadata !359)
  tail call void @llvm.experimental.noalias.scope.decl(metadata !362)
  %_5.i.i1 = load ptr, ptr %_1, align 8, !alias.scope !365, !nonnull !8, !noundef !8
  %_8.i.i2 = load i64, ptr %_5.i.i1, align 8, !noalias !365, !noundef !8
  %val.i.i3 = add i64 %_8.i.i2, -1
  store i64 %val.i.i3, ptr %_5.i.i1, align 8, !noalias !365
  %2 = icmp eq i64 %val.i.i3, 0
  br i1 %2, label %bb1.i.i6, label %_RINvNtCsjMrxcFdYDNN_4core3ptr13drop_in_placeINtNtCsdJPVW0sQgAG_5alloc2rc2RcINtNtBL_3vec3VecNtCsfcjqfaF2v4X_11proc_macro29TokenTreeEEEB1t_.exit7

bb1.i.i6:                                         ; preds = %bb4
; call <alloc::rc::Rc<alloc::vec::Vec<proc_macro2::TokenTree>>>::drop_slow
  tail call void @_RNvMs6_NtCsdJPVW0sQgAG_5alloc2rcINtB5_2RcINtNtB7_3vec3VecNtCsfcjqfaF2v4X_11proc_macro29TokenTreeEE9drop_slowBV_(ptr noalias noundef nonnull align 8 dereferenceable(8) %_1) #33
  br label %_RINvNtCsjMrxcFdYDNN_4core3ptr13drop_in_placeINtNtCsdJPVW0sQgAG_5alloc2rc2RcINtNtBL_3vec3VecNtCsfcjqfaF2v4X_11proc_macro29TokenTreeEEEB1t_.exit7

_RINvNtCsjMrxcFdYDNN_4core3ptr13drop_in_placeINtNtCsdJPVW0sQgAG_5alloc2rc2RcINtNtBL_3vec3VecNtCsfcjqfaF2v4X_11proc_macro29TokenTreeEEEB1t_.exit7: ; preds = %bb4, %bb1.i.i6
  ret void

terminate:                                        ; preds = %bb1.i.i
  %3 = landingpad { ptr, i32 }
          filter [0 x ptr] zeroinitializer
; call core::panicking::panic_in_cleanup
  tail call void @_RNvNtCsjMrxcFdYDNN_4core9panicking16panic_in_cleanup() #31
  unreachable

bb1:                                              ; preds = %bb1.i.i, %cleanup
  resume { ptr, i32 } %0
}

; core::ptr::drop_in_place::<proc_macro2::fallback::TokenStreamBuilder>
; Function Attrs: uwtable
define internal fastcc void @_RINvNtCsjMrxcFdYDNN_4core3ptr13drop_in_placeNtNtCsfcjqfaF2v4X_11proc_macro28fallback18TokenStreamBuilderEBK_(ptr noalias noundef nonnull readonly align 8 captures(none) dereferenceable(24) %_1) unnamed_addr #3 personality ptr @rust_eh_personality {
start:
  tail call void @llvm.experimental.noalias.scope.decl(metadata !366)
  tail call void @llvm.experimental.noalias.scope.decl(metadata !369)
  %0 = getelementptr inbounds nuw i8, ptr %_1, i64 8
  %_5.i.i.i = load ptr, ptr %0, align 8, !alias.scope !372, !nonnull !8, !noundef !8
  %1 = getelementptr inbounds nuw i8, ptr %_1, i64 16
  %len.i.i.i = load i64, ptr %1, align 8, !alias.scope !372, !noundef !8
; invoke core::ptr::drop_in_place::<[proc_macro2::TokenTree]>
  invoke fastcc void @_RINvNtCsjMrxcFdYDNN_4core3ptr13drop_in_placeSNtCsfcjqfaF2v4X_11proc_macro29TokenTreeEBJ_(ptr noalias noundef nonnull align 8 %_5.i.i.i, i64 noundef %len.i.i.i)
          to label %bb4.i.i unwind label %cleanup.i.i, !noalias !375

cleanup.i.i:                                      ; preds = %start
  %2 = landingpad { ptr, i32 }
          cleanup
  %_1.val.i.i = load i64, ptr %_1, align 8, !range !115, !alias.scope !375, !noundef !8
  %3 = icmp eq i64 %_1.val.i.i, 0
  br i1 %3, label %bb1.i.i, label %bb2.i.i.i.i.i

bb2.i.i.i.i.i:                                    ; preds = %cleanup.i.i
  %alloc_size.i.i.i.i.i.i = shl nuw i64 %_1.val.i.i, 5
; call __rustc::__rust_dealloc
  tail call void @_RNvCsKhRCbHf33p_7___rustc14___rust_dealloc(ptr noundef nonnull %_5.i.i.i, i64 noundef %alloc_size.i.i.i.i.i.i, i64 noundef range(i64 1, -9223372036854775807) 8) #30, !noalias !375
  br label %bb1.i.i

bb4.i.i:                                          ; preds = %start
  %_1.val2.i.i = load i64, ptr %_1, align 8, !range !115, !alias.scope !375, !noundef !8
  %4 = icmp eq i64 %_1.val2.i.i, 0
  br i1 %4, label %_RINvNtCsjMrxcFdYDNN_4core3ptr13drop_in_placeINtNtCsfcjqfaF2v4X_11proc_macro25rcvec12RcVecBuilderNtBL_9TokenTreeEEBL_.exit, label %bb2.i.i.i4.i.i

bb2.i.i.i4.i.i:                                   ; preds = %bb4.i.i
  %alloc_size.i.i.i.i5.i.i = shl nuw i64 %_1.val2.i.i, 5
; call __rustc::__rust_dealloc
  tail call void @_RNvCsKhRCbHf33p_7___rustc14___rust_dealloc(ptr noundef nonnull %_5.i.i.i, i64 noundef %alloc_size.i.i.i.i5.i.i, i64 noundef range(i64 1, -9223372036854775807) 8) #30, !noalias !375
  br label %_RINvNtCsjMrxcFdYDNN_4core3ptr13drop_in_placeINtNtCsfcjqfaF2v4X_11proc_macro25rcvec12RcVecBuilderNtBL_9TokenTreeEEBL_.exit

bb1.i.i:                                          ; preds = %bb2.i.i.i.i.i, %cleanup.i.i
  resume { ptr, i32 } %2

_RINvNtCsjMrxcFdYDNN_4core3ptr13drop_in_placeINtNtCsfcjqfaF2v4X_11proc_macro25rcvec12RcVecBuilderNtBL_9TokenTreeEEBL_.exit: ; preds = %bb4.i.i, %bb2.i.i.i4.i.i
  ret void
}

; core::ptr::drop_in_place::<proc_macro2::fallback::Group>
; Function Attrs: uwtable
define internal fastcc void @_RINvNtCsjMrxcFdYDNN_4core3ptr13drop_in_placeNtNtCsfcjqfaF2v4X_11proc_macro28fallback5GroupEBK_(ptr noalias noundef nonnull readonly align 8 captures(none) dereferenceable(16) %_1) unnamed_addr #3 personality ptr @rust_eh_personality {
start:
; invoke <proc_macro2::fallback::TokenStream as core::ops::drop::Drop>::drop
  invoke void @_RNvXs0_NtCsfcjqfaF2v4X_11proc_macro28fallbackNtB5_11TokenStreamNtNtNtCsjMrxcFdYDNN_4core3ops4drop4Drop4drop(ptr noalias noundef nonnull align 8 dereferenceable(8) %_1)
          to label %_RINvNtCsjMrxcFdYDNN_4core3ptr13drop_in_placeNtNtCsfcjqfaF2v4X_11proc_macro28fallback11TokenStreamEBK_.exit unwind label %cleanup.i

cleanup.i:                                        ; preds = %start
  %0 = landingpad { ptr, i32 }
          cleanup
  tail call void @llvm.experimental.noalias.scope.decl(metadata !376)
  %_5.i2 = load ptr, ptr %_1, align 8, !alias.scope !376, !nonnull !8, !noundef !8
  %_8.i3 = load i64, ptr %_5.i2, align 8, !noalias !376, !noundef !8
  %val.i4 = add i64 %_8.i3, -1
  store i64 %val.i4, ptr %_5.i2, align 8, !noalias !376
  %1 = icmp eq i64 %val.i4, 0
  br i1 %1, label %bb1.i7, label %bb1.i

bb1.i7:                                           ; preds = %cleanup.i
; invoke <alloc::rc::Rc<alloc::vec::Vec<proc_macro2::TokenTree>>>::drop_slow
  invoke void @_RNvMs6_NtCsdJPVW0sQgAG_5alloc2rcINtB5_2RcINtNtB7_3vec3VecNtCsfcjqfaF2v4X_11proc_macro29TokenTreeEE9drop_slowBV_(ptr noalias noundef nonnull align 8 dereferenceable(8) %_1) #33
          to label %bb1.i unwind label %terminate.i

terminate.i:                                      ; preds = %bb1.i7
  %2 = landingpad { ptr, i32 }
          filter [0 x ptr] zeroinitializer
; call core::panicking::panic_in_cleanup
  tail call void @_RNvNtCsjMrxcFdYDNN_4core9panicking16panic_in_cleanup() #31
  unreachable

bb1.i:                                            ; preds = %bb1.i7, %cleanup.i
  resume { ptr, i32 } %0

_RINvNtCsjMrxcFdYDNN_4core3ptr13drop_in_placeNtNtCsfcjqfaF2v4X_11proc_macro28fallback11TokenStreamEBK_.exit: ; preds = %start
  tail call void @llvm.experimental.noalias.scope.decl(metadata !379)
  %_5.i = load ptr, ptr %_1, align 8, !alias.scope !379, !nonnull !8, !noundef !8
  %_8.i = load i64, ptr %_5.i, align 8, !noalias !379, !noundef !8
  %val.i = add i64 %_8.i, -1
  store i64 %val.i, ptr %_5.i, align 8, !noalias !379
  %3 = icmp eq i64 %val.i, 0
  br i1 %3, label %bb1.i1, label %_RNvXsx_NtCsdJPVW0sQgAG_5alloc2rcINtB5_2RcINtNtB7_3vec3VecNtCsfcjqfaF2v4X_11proc_macro29TokenTreeEENtNtNtCsjMrxcFdYDNN_4core3ops4drop4Drop4dropBV_.exit

bb1.i1:                                           ; preds = %_RINvNtCsjMrxcFdYDNN_4core3ptr13drop_in_placeNtNtCsfcjqfaF2v4X_11proc_macro28fallback11TokenStreamEBK_.exit
; call <alloc::rc::Rc<alloc::vec::Vec<proc_macro2::TokenTree>>>::drop_slow
  tail call void @_RNvMs6_NtCsdJPVW0sQgAG_5alloc2rcINtB5_2RcINtNtB7_3vec3VecNtCsfcjqfaF2v4X_11proc_macro29TokenTreeEE9drop_slowBV_(ptr noalias noundef nonnull align 8 dereferenceable(8) %_1) #33
  br label %_RNvXsx_NtCsdJPVW0sQgAG_5alloc2rcINtB5_2RcINtNtB7_3vec3VecNtCsfcjqfaF2v4X_11proc_macro29TokenTreeEENtNtNtCsjMrxcFdYDNN_4core3ops4drop4Drop4dropBV_.exit

_RNvXsx_NtCsdJPVW0sQgAG_5alloc2rcINtB5_2RcINtNtB7_3vec3VecNtCsfcjqfaF2v4X_11proc_macro29TokenTreeEENtNtNtCsjMrxcFdYDNN_4core3ops4drop4Drop4dropBV_.exit: ; preds = %_RINvNtCsjMrxcFdYDNN_4core3ptr13drop_in_placeNtNtCsfcjqfaF2v4X_11proc_macro28fallback11TokenStreamEBK_.exit, %bb1.i1
  ret void
}

; core::ptr::drop_in_place::<[proc_macro2::TokenTree]>
; Function Attrs: uwtable
define internal fastcc void @_RINvNtCsjMrxcFdYDNN_4core3ptr13drop_in_placeSNtCsfcjqfaF2v4X_11proc_macro29TokenTreeEBJ_(ptr noalias noundef nonnull align 8 %_1.0, i64 noundef %_1.1) unnamed_addr #3 personality ptr @rust_eh_personality {
start:
  %_725 = icmp eq i64 %_1.1, 0
  br i1 %_725, label %bb1, label %bb5

bb5:                                              ; preds = %start, %_RINvNtCsjMrxcFdYDNN_4core3ptr13drop_in_placeNtCsfcjqfaF2v4X_11proc_macro29TokenTreeEBI_.exit
  %_3.sroa.0.026 = phi i64 [ %0, %_RINvNtCsjMrxcFdYDNN_4core3ptr13drop_in_placeNtCsfcjqfaF2v4X_11proc_macro29TokenTreeEBI_.exit ], [ 0, %start ]
  %_6 = getelementptr inbounds nuw %TokenTree, ptr %_1.0, i64 %_3.sroa.0.026
  %0 = add nuw i64 %_3.sroa.0.026, 1
  tail call void @llvm.experimental.noalias.scope.decl(metadata !382)
  %1 = load i32, ptr %_6, align 8, !range !221, !alias.scope !382, !noundef !8
  switch i32 %1, label %default.unreachable [
    i32 0, label %bb2.i
    i32 1, label %bb3.i
    i32 2, label %_RINvNtCsjMrxcFdYDNN_4core3ptr13drop_in_placeNtCsfcjqfaF2v4X_11proc_macro29TokenTreeEBI_.exit
    i32 3, label %bb4.i
  ]

default.unreachable:                              ; preds = %bb5
  unreachable

bb4.i:                                            ; preds = %bb5
  %2 = getelementptr inbounds nuw i8, ptr %_6, i64 8
  %.val.i = load i64, ptr %2, align 8, !range !222, !alias.scope !382, !noundef !8
  switch i64 %.val.i, label %bb2.i.i.i4.i.i.i.i.i [
    i64 -9223372036854775808, label %_RINvNtCsjMrxcFdYDNN_4core3ptr13drop_in_placeNtCsfcjqfaF2v4X_11proc_macro29TokenTreeEBI_.exit
    i64 0, label %_RINvNtCsjMrxcFdYDNN_4core3ptr13drop_in_placeNtCsfcjqfaF2v4X_11proc_macro29TokenTreeEBI_.exit
  ]

bb2.i.i.i4.i.i.i.i.i:                             ; preds = %bb4.i
  %3 = getelementptr i8, ptr %_6, i64 16
  %.val1.i = load ptr, ptr %3, align 8, !alias.scope !382, !nonnull !8, !noundef !8
; call __rustc::__rust_dealloc
  tail call void @_RNvCsKhRCbHf33p_7___rustc14___rust_dealloc(ptr noundef nonnull %.val1.i, i64 noundef %.val.i, i64 noundef range(i64 1, -9223372036854775807) 1) #30, !noalias !385
  br label %_RINvNtCsjMrxcFdYDNN_4core3ptr13drop_in_placeNtCsfcjqfaF2v4X_11proc_macro29TokenTreeEBI_.exit

bb2.i:                                            ; preds = %bb5
  %4 = getelementptr inbounds nuw i8, ptr %_6, i64 8
  %5 = load i32, ptr %4, align 8, !range !226, !alias.scope !388, !noundef !8
  %6 = icmp eq i32 %5, 0
  br i1 %6, label %bb2.i.i6, label %bb3.i.i

bb2.i.i6:                                         ; preds = %bb2.i
  %7 = getelementptr inbounds nuw i8, ptr %_6, i64 24
  %8 = load i32, ptr %7, align 8, !alias.scope !393, !noundef !8
  %9 = icmp eq i32 %8, 0
  br i1 %9, label %_RINvNtCsjMrxcFdYDNN_4core3ptr13drop_in_placeNtCsfcjqfaF2v4X_11proc_macro29TokenTreeEBI_.exit, label %bb2.i.i.i

bb2.i.i.i:                                        ; preds = %bb2.i.i6
; invoke <proc_macro::bridge::client::TokenStream as core::ops::drop::Drop>::drop
  invoke void @_RNvXsi_NtNtCsbtZo8rQoR5w_10proc_macro6bridge6clientNtB5_11TokenStreamNtNtNtCsjMrxcFdYDNN_4core3ops4drop4Drop4drop(ptr noalias noundef nonnull align 4 dereferenceable(4) %7)
          to label %_RINvNtCsjMrxcFdYDNN_4core3ptr13drop_in_placeNtCsfcjqfaF2v4X_11proc_macro29TokenTreeEBI_.exit unwind label %cleanup

bb3.i.i:                                          ; preds = %bb2.i
  %10 = getelementptr inbounds nuw i8, ptr %_6, i64 16
; invoke <proc_macro2::fallback::TokenStream as core::ops::drop::Drop>::drop
  invoke void @_RNvXs0_NtCsfcjqfaF2v4X_11proc_macro28fallbackNtB5_11TokenStreamNtNtNtCsjMrxcFdYDNN_4core3ops4drop4Drop4drop(ptr noalias noundef nonnull align 8 dereferenceable(16) %10)
          to label %_RINvNtCsjMrxcFdYDNN_4core3ptr13drop_in_placeNtNtCsfcjqfaF2v4X_11proc_macro28fallback11TokenStreamEBK_.exit.i unwind label %cleanup.i.i

cleanup.i.i:                                      ; preds = %bb3.i.i
  %11 = landingpad { ptr, i32 }
          cleanup
  tail call void @llvm.experimental.noalias.scope.decl(metadata !400)
  %_5.i13 = load ptr, ptr %10, align 8, !alias.scope !400, !nonnull !8, !noundef !8
  %_8.i14 = load i64, ptr %_5.i13, align 8, !noalias !400, !noundef !8
  %val.i15 = add i64 %_8.i14, -1
  store i64 %val.i15, ptr %_5.i13, align 8, !noalias !400
  %12 = icmp eq i64 %val.i15, 0
  br i1 %12, label %bb1.i19, label %cleanup.body

bb1.i19:                                          ; preds = %cleanup.i.i
; invoke <alloc::rc::Rc<alloc::vec::Vec<proc_macro2::TokenTree>>>::drop_slow
  invoke void @_RNvMs6_NtCsdJPVW0sQgAG_5alloc2rcINtB5_2RcINtNtB7_3vec3VecNtCsfcjqfaF2v4X_11proc_macro29TokenTreeEE9drop_slowBV_(ptr noalias noundef nonnull align 8 dereferenceable(16) %10) #33
          to label %cleanup.body unwind label %terminate.i.i

terminate.i.i:                                    ; preds = %bb1.i19
  %13 = landingpad { ptr, i32 }
          filter [0 x ptr] zeroinitializer
; call core::panicking::panic_in_cleanup
  tail call void @_RNvNtCsjMrxcFdYDNN_4core9panicking16panic_in_cleanup() #31
  unreachable

_RINvNtCsjMrxcFdYDNN_4core3ptr13drop_in_placeNtNtCsfcjqfaF2v4X_11proc_macro28fallback11TokenStreamEBK_.exit.i: ; preds = %bb3.i.i
  tail call void @llvm.experimental.noalias.scope.decl(metadata !403)
  %_5.i = load ptr, ptr %10, align 8, !alias.scope !403, !nonnull !8, !noundef !8
  %_8.i = load i64, ptr %_5.i, align 8, !noalias !403, !noundef !8
  %val.i = add i64 %_8.i, -1
  store i64 %val.i, ptr %_5.i, align 8, !noalias !403
  %14 = icmp eq i64 %val.i, 0
  br i1 %14, label %bb1.i, label %_RINvNtCsjMrxcFdYDNN_4core3ptr13drop_in_placeNtCsfcjqfaF2v4X_11proc_macro29TokenTreeEBI_.exit

bb1.i:                                            ; preds = %_RINvNtCsjMrxcFdYDNN_4core3ptr13drop_in_placeNtNtCsfcjqfaF2v4X_11proc_macro28fallback11TokenStreamEBK_.exit.i
; invoke <alloc::rc::Rc<alloc::vec::Vec<proc_macro2::TokenTree>>>::drop_slow
  invoke void @_RNvMs6_NtCsdJPVW0sQgAG_5alloc2rcINtB5_2RcINtNtB7_3vec3VecNtCsfcjqfaF2v4X_11proc_macro29TokenTreeEE9drop_slowBV_(ptr noalias noundef nonnull align 8 dereferenceable(16) %10) #33
          to label %_RINvNtCsjMrxcFdYDNN_4core3ptr13drop_in_placeNtCsfcjqfaF2v4X_11proc_macro29TokenTreeEBI_.exit unwind label %cleanup

bb3.i:                                            ; preds = %bb5
  %15 = getelementptr inbounds nuw i8, ptr %_6, i64 8
  tail call void @llvm.experimental.noalias.scope.decl(metadata !406)
  tail call void @llvm.experimental.noalias.scope.decl(metadata !409)
  %16 = getelementptr inbounds nuw i8, ptr %_6, i64 24
  %17 = load i8, ptr %16, align 8, !range !261, !alias.scope !412, !noundef !8
  %18 = icmp eq i8 %17, 2
  br i1 %18, label %_RINvNtCsjMrxcFdYDNN_4core3ptr13drop_in_placeNtCsfcjqfaF2v4X_11proc_macro29TokenTreeEBI_.exit, label %bb2.i.i

bb2.i.i:                                          ; preds = %bb3.i
  %19 = getelementptr inbounds nuw i8, ptr %_6, i64 16
  %_1.val1.i.i = load i64, ptr %19, align 8, !alias.scope !412, !noundef !8
  %20 = icmp eq i64 %_1.val1.i.i, 0
  br i1 %20, label %_RINvNtCsjMrxcFdYDNN_4core3ptr13drop_in_placeNtCsfcjqfaF2v4X_11proc_macro29TokenTreeEBI_.exit, label %_RNvXs_NtCsdJPVW0sQgAG_5alloc5allocNtB4_6GlobalNtNtCsjMrxcFdYDNN_4core5alloc9Allocator10deallocate.exit.i.i.i.i.i

_RNvXs_NtCsdJPVW0sQgAG_5alloc5allocNtB4_6GlobalNtNtCsjMrxcFdYDNN_4core5alloc9Allocator10deallocate.exit.i.i.i.i.i: ; preds = %bb2.i.i
  %_1.val.i.i = load ptr, ptr %15, align 8, !alias.scope !412, !nonnull !8, !noundef !8
; call __rustc::__rust_dealloc
  tail call void @_RNvCsKhRCbHf33p_7___rustc14___rust_dealloc(ptr noundef nonnull %_1.val.i.i, i64 noundef %_1.val1.i.i, i64 noundef 1) #30, !noalias !412
  br label %_RINvNtCsjMrxcFdYDNN_4core3ptr13drop_in_placeNtCsfcjqfaF2v4X_11proc_macro29TokenTreeEBI_.exit

_RINvNtCsjMrxcFdYDNN_4core3ptr13drop_in_placeNtCsfcjqfaF2v4X_11proc_macro29TokenTreeEBI_.exit: ; preds = %_RNvXs_NtCsdJPVW0sQgAG_5alloc5allocNtB4_6GlobalNtNtCsjMrxcFdYDNN_4core5alloc9Allocator10deallocate.exit.i.i.i.i.i, %bb2.i.i, %bb3.i, %_RINvNtCsjMrxcFdYDNN_4core3ptr13drop_in_placeNtNtCsfcjqfaF2v4X_11proc_macro28fallback11TokenStreamEBK_.exit.i, %bb1.i, %bb2.i.i.i, %bb2.i.i6, %bb2.i.i.i4.i.i.i.i.i, %bb4.i, %bb4.i, %bb5
  %_7 = icmp eq i64 %0, %_1.1
  br i1 %_7, label %bb1, label %bb5

bb1:                                              ; preds = %_RINvNtCsjMrxcFdYDNN_4core3ptr13drop_in_placeNtCsfcjqfaF2v4X_11proc_macro29TokenTreeEBI_.exit, %start
  ret void

bb4:                                              ; preds = %bb3, %cleanup.body
  %_3.sroa.0.1 = phi i64 [ %0, %cleanup.body ], [ %22, %bb3 ]
  %_5 = icmp eq i64 %_3.sroa.0.1, %_1.1
  br i1 %_5, label %bb2, label %bb3

cleanup:                                          ; preds = %bb1.i, %bb2.i.i.i
  %21 = landingpad { ptr, i32 }
          cleanup
  br label %cleanup.body

cleanup.body:                                     ; preds = %bb1.i19, %cleanup.i.i, %cleanup
  %eh.lpad-body = phi { ptr, i32 } [ %21, %cleanup ], [ %11, %cleanup.i.i ], [ %11, %bb1.i19 ]
  br label %bb4

bb3:                                              ; preds = %bb4
  %_4 = getelementptr inbounds nuw %TokenTree, ptr %_1.0, i64 %_3.sroa.0.1
  %22 = add i64 %_3.sroa.0.1, 1
; invoke core::ptr::drop_in_place::<proc_macro2::TokenTree>
  invoke void @_RINvNtCsjMrxcFdYDNN_4core3ptr13drop_in_placeNtCsfcjqfaF2v4X_11proc_macro29TokenTreeEBI_(ptr noalias noundef nonnull align 8 dereferenceable(32) %_4) #32
          to label %bb4 unwind label %terminate

bb2:                                              ; preds = %bb4
  resume { ptr, i32 } %eh.lpad-body

terminate:                                        ; preds = %bb3
  %23 = landingpad { ptr, i32 }
          filter [0 x ptr] zeroinitializer
; call core::panicking::panic_in_cleanup
  tail call void @_RNvNtCsjMrxcFdYDNN_4core9panicking16panic_in_cleanup() #31
  unreachable
}

; core::ptr::drop_in_place::<(proc_macro2::Delimiter, proc_macro2::fallback::TokenStreamBuilder)>
; Function Attrs: uwtable
define internal fastcc void @_RINvNtCsjMrxcFdYDNN_4core3ptr13drop_in_placeTNtCsfcjqfaF2v4X_11proc_macro29DelimiterNtNtBJ_8fallback18TokenStreamBuilderEEBJ_(ptr noalias noundef nonnull readonly align 8 captures(none) dereferenceable(32) %_1) unnamed_addr #3 personality ptr @rust_eh_personality {
start:
  %0 = getelementptr inbounds nuw i8, ptr %_1, i64 8
  tail call void @llvm.experimental.noalias.scope.decl(metadata !413)
  tail call void @llvm.experimental.noalias.scope.decl(metadata !416)
  tail call void @llvm.experimental.noalias.scope.decl(metadata !419)
  %1 = getelementptr inbounds nuw i8, ptr %_1, i64 16
  %_5.i.i.i.i = load ptr, ptr %1, align 8, !alias.scope !422, !nonnull !8, !noundef !8
  %2 = getelementptr inbounds nuw i8, ptr %_1, i64 24
  %len.i.i.i.i = load i64, ptr %2, align 8, !alias.scope !422, !noundef !8
; invoke core::ptr::drop_in_place::<[proc_macro2::TokenTree]>
  invoke fastcc void @_RINvNtCsjMrxcFdYDNN_4core3ptr13drop_in_placeSNtCsfcjqfaF2v4X_11proc_macro29TokenTreeEBJ_(ptr noalias noundef nonnull align 8 %_5.i.i.i.i, i64 noundef %len.i.i.i.i)
          to label %bb4.i.i.i unwind label %cleanup.i.i.i, !noalias !425

cleanup.i.i.i:                                    ; preds = %start
  %3 = landingpad { ptr, i32 }
          cleanup
  %_1.val.i.i.i = load i64, ptr %0, align 8, !range !115, !alias.scope !425, !noundef !8
  %4 = icmp eq i64 %_1.val.i.i.i, 0
  br i1 %4, label %bb1.i.i.i, label %bb2.i.i.i.i.i.i

bb2.i.i.i.i.i.i:                                  ; preds = %cleanup.i.i.i
  %alloc_size.i.i.i.i.i.i.i = shl nuw i64 %_1.val.i.i.i, 5
; call __rustc::__rust_dealloc
  tail call void @_RNvCsKhRCbHf33p_7___rustc14___rust_dealloc(ptr noundef nonnull %_5.i.i.i.i, i64 noundef %alloc_size.i.i.i.i.i.i.i, i64 noundef range(i64 1, -9223372036854775807) 8) #30, !noalias !425
  br label %bb1.i.i.i

bb4.i.i.i:                                        ; preds = %start
  %_1.val2.i.i.i = load i64, ptr %0, align 8, !range !115, !alias.scope !425, !noundef !8
  %5 = icmp eq i64 %_1.val2.i.i.i, 0
  br i1 %5, label %_RINvNtCsjMrxcFdYDNN_4core3ptr13drop_in_placeNtNtCsfcjqfaF2v4X_11proc_macro28fallback18TokenStreamBuilderEBK_.exit, label %bb2.i.i.i4.i.i.i

bb2.i.i.i4.i.i.i:                                 ; preds = %bb4.i.i.i
  %alloc_size.i.i.i.i5.i.i.i = shl nuw i64 %_1.val2.i.i.i, 5
; call __rustc::__rust_dealloc
  tail call void @_RNvCsKhRCbHf33p_7___rustc14___rust_dealloc(ptr noundef nonnull %_5.i.i.i.i, i64 noundef %alloc_size.i.i.i.i5.i.i.i, i64 noundef range(i64 1, -9223372036854775807) 8) #30, !noalias !425
  br label %_RINvNtCsjMrxcFdYDNN_4core3ptr13drop_in_placeNtNtCsfcjqfaF2v4X_11proc_macro28fallback18TokenStreamBuilderEBK_.exit

bb1.i.i.i:                                        ; preds = %bb2.i.i.i.i.i.i, %cleanup.i.i.i
  resume { ptr, i32 } %3

_RINvNtCsjMrxcFdYDNN_4core3ptr13drop_in_placeNtNtCsfcjqfaF2v4X_11proc_macro28fallback18TokenStreamBuilderEBK_.exit: ; preds = %bb4.i.i.i, %bb2.i.i.i4.i.i.i
  ret void
}

; <alloc::raw_vec::RawVecInner<_>>::reserve::do_reserve_and_handle::<alloc::alloc::Global>
; Function Attrs: cold uwtable
define internal fastcc void @_RINvNvMs2_NtCsdJPVW0sQgAG_5alloc7raw_vecINtB8_11RawVecInnerpE7reserve21do_reserve_and_handleNtNtBa_5alloc6GlobalECsfcjqfaF2v4X_11proc_macro2(ptr noalias noundef nonnull align 8 captures(none) dereferenceable(16) %slf, i64 noundef %len, i64 noundef %additional) unnamed_addr #5 personality ptr @rust_eh_personality {
start:
  %self3.i = alloca [24 x i8], align 8
  tail call void @llvm.experimental.noalias.scope.decl(metadata !426)
  %_25.0.i = add i64 %additional, %len
  %_25.1.i = icmp ult i64 %_25.0.i, %len
  br i1 %_25.1.i, label %bb2, label %bb9.i

bb9.i:                                            ; preds = %start
  %self5.i = load i64, ptr %slf, align 8, !range !115, !alias.scope !426, !noundef !8
  %v16.i = shl nuw i64 %self5.i, 1
  %_0.sroa.0.0.i.i = tail call noundef i64 @llvm.umax.i64(i64 %_25.0.i, i64 %v16.i)
  %_0.sroa.0.0.i16.i = tail call noundef i64 @llvm.umax.i64(i64 %_0.sroa.0.0.i.i, i64 8)
  call void @llvm.lifetime.start.p0(i64 24, ptr nonnull %self3.i), !noalias !426
  %0 = getelementptr inbounds nuw i8, ptr %slf, i64 8
  %self.val15.i = load ptr, ptr %0, align 8, !alias.scope !426
; call <alloc::raw_vec::RawVecInner>::finish_grow
  call fastcc void @_RNvMs4_NtCsdJPVW0sQgAG_5alloc7raw_vecNtB5_11RawVecInner11finish_growCsfcjqfaF2v4X_11proc_macro2(ptr noalias noundef align 8 captures(none) dereferenceable(24) %self3.i, i64 %self5.i, ptr %self.val15.i, i64 noundef %_0.sroa.0.0.i16.i, i64 noundef 1, i64 noundef 1), !noalias !426
  %_35.i = load i64, ptr %self3.i, align 8, !range !266, !noalias !426, !noundef !8
  %1 = trunc nuw i64 %_35.i to i1
  %2 = getelementptr inbounds nuw i8, ptr %self3.i, i64 8
  br i1 %1, label %bb18.i, label %bb3

bb18.i:                                           ; preds = %bb9.i
  %e.0.i = load i64, ptr %2, align 8, !range !222, !noalias !426, !noundef !8
  %3 = getelementptr inbounds nuw i8, ptr %self3.i, i64 16
  %e.1.i = load i64, ptr %3, align 8, !noalias !426
  call void @llvm.lifetime.end.p0(i64 24, ptr nonnull %self3.i), !noalias !426
  br label %bb2

bb2:                                              ; preds = %bb18.i, %start
  %_0.sroa.5.0.i.ph = phi i64 [ undef, %start ], [ %e.1.i, %bb18.i ]
  %_0.sroa.0.0.i.ph = phi i64 [ 0, %start ], [ %e.0.i, %bb18.i ]
; call alloc::raw_vec::handle_error
  tail call void @_RNvNtCsdJPVW0sQgAG_5alloc7raw_vec12handle_error(i64 noundef %_0.sroa.0.0.i.ph, i64 %_0.sroa.5.0.i.ph) #35
  unreachable

bb3:                                              ; preds = %bb9.i
  %v.0.i = load ptr, ptr %2, align 8, !noalias !426, !nonnull !8, !noundef !8
  call void @llvm.lifetime.end.p0(i64 24, ptr nonnull %self3.i), !noalias !426
  store ptr %v.0.i, ptr %0, align 8, !alias.scope !426
  %4 = icmp sgt i64 %_0.sroa.0.0.i16.i, -1
  tail call void @llvm.assume(i1 %4)
  store i64 %_0.sroa.0.0.i16.i, ptr %slf, align 8, !alias.scope !426
  ret void
}

; <proc_macro2::TokenTree as <[_]>::to_vec_in::ConvertVec>::to_vec::<alloc::alloc::Global>
; Function Attrs: inlinehint uwtable
define internal fastcc void @_RINvXNvMNtCsdJPVW0sQgAG_5alloc5sliceSp9to_vec_inNtCsfcjqfaF2v4X_11proc_macro29TokenTreeNtB3_10ConvertVec6to_vecNtNtB8_5alloc6GlobalEBM_(ptr dead_on_unwind noalias noundef nonnull writable writeonly align 8 captures(none) dereferenceable(24) %_0, ptr noalias noundef nonnull readonly align 8 captures(address, read_provenance) %s.0, i64 noundef range(i64 0, 288230376151711744) %s.1) unnamed_addr #6 personality ptr @rust_eh_personality {
start:
  %_14.i = alloca [24 x i8], align 8
  %vec = alloca [24 x i8], align 8
  call void @llvm.lifetime.start.p0(i64 24, ptr nonnull %vec)
  %_23.i.i.i = icmp eq i64 %s.1, 0
  br i1 %_23.i.i.i, label %_RNvMs4_NtCsdJPVW0sQgAG_5alloc7raw_vecNtB5_11RawVecInner16with_capacity_inCsfcjqfaF2v4X_11proc_macro2.exit.thread, label %bb6.i.i.i

_RNvMs4_NtCsdJPVW0sQgAG_5alloc7raw_vecNtB5_11RawVecInner16with_capacity_inCsfcjqfaF2v4X_11proc_macro2.exit.thread: ; preds = %start
  store i64 %s.1, ptr %vec, align 8
  %0 = getelementptr inbounds nuw i8, ptr %vec, i64 8
  store ptr inttoptr (i64 8 to ptr), ptr %0, align 8
  %1 = getelementptr inbounds nuw i8, ptr %vec, i64 16
  br label %bb4

bb6.i.i.i:                                        ; preds = %start
  %_24.i.i.i = shl nuw nsw i64 %s.1, 5
; call __rustc::__rust_no_alloc_shim_is_unstable_v2
  tail call void @_RNvCsKhRCbHf33p_7___rustc35___rust_no_alloc_shim_is_unstable_v2() #30, !noalias !429
; call __rustc::__rust_alloc
  %2 = tail call noundef align 8 ptr @_RNvCsKhRCbHf33p_7___rustc12___rust_alloc(i64 noundef %_24.i.i.i, i64 noundef range(i64 1, 9) 8) #30, !noalias !429
  %3 = icmp eq ptr %2, null
  br i1 %3, label %bb3.i, label %bb20.lr.ph

bb3.i:                                            ; preds = %bb6.i.i.i
; call alloc::raw_vec::handle_error
  tail call void @_RNvNtCsdJPVW0sQgAG_5alloc7raw_vec12handle_error(i64 noundef 8, i64 %_24.i.i.i) #35
  unreachable

bb20.lr.ph:                                       ; preds = %bb6.i.i.i
  store i64 %s.1, ptr %vec, align 8
  %4 = getelementptr inbounds nuw i8, ptr %vec, i64 8
  store ptr %2, ptr %4, align 8
  %5 = getelementptr inbounds nuw i8, ptr %vec, i64 16
  %_39 = getelementptr inbounds nuw %TokenTree, ptr %s.0, i64 %s.1
  %_13.sroa.4.0._14.sroa_idx.i = getelementptr inbounds nuw i8, ptr %_14.i, i64 8
  %_13.sroa.4.sroa.4.0._13.sroa.4.0._14.sroa_idx.sroa_idx.i = getelementptr inbounds nuw i8, ptr %_14.i, i64 12
  %_13.sroa.4.sroa.5.0._13.sroa.4.0._14.sroa_idx.sroa_idx.i = getelementptr inbounds nuw i8, ptr %_14.i, i64 16
  %_13.sroa.4.sroa.6.0._13.sroa.4.0._14.sroa_idx.sroa_idx.i = getelementptr inbounds nuw i8, ptr %_14.i, i64 20
  %_13.sroa.4.sroa.7.0._13.sroa.4.0._14.sroa_idx.sroa_idx.i = getelementptr inbounds nuw i8, ptr %_14.i, i64 21
  %_13.sroa.4.sroa.8.0._13.sroa.4.0._14.sroa_idx.sroa_idx.i = getelementptr inbounds nuw i8, ptr %_14.i, i64 22
  br label %bb20

bb20:                                             ; preds = %bb20.lr.ph, %bb6
  %iter.sroa.0.062 = phi ptr [ %s.0, %bb20.lr.ph ], [ %_16.i.i, %bb6 ]
  %iter.sroa.7.059 = phi i64 [ 0, %bb20.lr.ph ], [ %_8.0.i, %bb6 ]
  %iter.sroa.10.058 = phi i64 [ %s.1, %bb20.lr.ph ], [ %6, %bb6 ]
  %val.sroa.7.057 = phi i32 [ undef, %bb20.lr.ph ], [ %val.sroa.7.1, %bb6 ]
  %val.sroa.18.056 = phi i8 [ undef, %bb20.lr.ph ], [ %val.sroa.18.1, %bb6 ]
  %val.sroa.20.055 = phi i8 [ undef, %bb20.lr.ph ], [ %val.sroa.20.1, %bb6 ]
  %val.sroa.21.054 = phi i16 [ undef, %bb20.lr.ph ], [ %val.sroa.21.1, %bb6 ]
  %val.sroa.15.sroa.7.sroa.0.053 = phi i24 [ undef, %bb20.lr.ph ], [ %val.sroa.15.sroa.7.sroa.0.1, %bb6 ]
  %6 = add nsw i64 %iter.sroa.10.058, -1
  %_6.i.i = icmp eq ptr %iter.sroa.0.062, %_39
  br i1 %_6.i.i, label %bb4, label %bb5

bb4:                                              ; preds = %bb6, %bb20, %_RNvMs4_NtCsdJPVW0sQgAG_5alloc7raw_vecNtB5_11RawVecInner16with_capacity_inCsfcjqfaF2v4X_11proc_macro2.exit.thread
  %7 = phi ptr [ %1, %_RNvMs4_NtCsdJPVW0sQgAG_5alloc7raw_vecNtB5_11RawVecInner16with_capacity_inCsfcjqfaF2v4X_11proc_macro2.exit.thread ], [ %5, %bb20 ], [ %5, %bb6 ]
  store i64 %s.1, ptr %7, align 8
  call void @llvm.memcpy.p0.p0.i64(ptr noundef nonnull align 8 dereferenceable(24) %_0, ptr noundef nonnull align 8 dereferenceable(24) %vec, i64 24, i1 false)
  call void @llvm.lifetime.end.p0(i64 24, ptr nonnull %vec)
  ret void

bb5:                                              ; preds = %bb20
  %_16.i.i = getelementptr inbounds nuw i8, ptr %iter.sroa.0.062, i64 32
  %_8.0.i = add nuw nsw i64 %iter.sroa.7.059, 1
  tail call void @llvm.experimental.noalias.scope.decl(metadata !432)
  tail call void @llvm.experimental.noalias.scope.decl(metadata !435)
  %8 = load i32, ptr %iter.sroa.0.062, align 8, !range !221, !alias.scope !435, !noalias !432, !noundef !8
  switch i32 %8, label %default.unreachable [
    i32 0, label %bb5.i
    i32 1, label %bb4.i
    i32 2, label %bb3.i9
    i32 3, label %bb2.i
  ]

default.unreachable:                              ; preds = %bb5
  unreachable

bb5.i:                                            ; preds = %bb5
  %_28.i = getelementptr inbounds nuw i8, ptr %iter.sroa.0.062, i64 8
  tail call void @llvm.experimental.noalias.scope.decl(metadata !437)
  %9 = load i32, ptr %_28.i, align 8, !range !226, !alias.scope !440, !noalias !441, !noundef !8
  %10 = trunc nuw i32 %9 to i1
  br i1 %10, label %bb2.i.i10, label %bb3.i.i

bb2.i.i10:                                        ; preds = %bb5.i
  %11 = getelementptr inbounds nuw i8, ptr %iter.sroa.0.062, i64 16
  %12 = getelementptr inbounds nuw i8, ptr %iter.sroa.0.062, i64 24
  %_7.i.i = load i8, ptr %12, align 8, !range !443, !alias.scope !440, !noalias !441, !noundef !8
  %_13.i.i = load ptr, ptr %11, align 8, !alias.scope !440, !noalias !441, !nonnull !8, !noundef !8
  %_14.i.i = load i64, ptr %_13.i.i, align 8, !noalias !444, !noundef !8
  %_15.i.i = icmp ne i64 %_14.i.i, 0
  tail call void @llvm.assume(i1 %_15.i.i)
  %_16.i.i11 = add i64 %_14.i.i, 1
  store i64 %_16.i.i11, ptr %_13.i.i, align 8, !noalias !444
  %13 = icmp eq i64 %_16.i.i11, 0
  br i1 %13, label %bb5.i.i, label %_RNvXsF_NtCsfcjqfaF2v4X_11proc_macro23impNtB5_5GroupNtNtCsjMrxcFdYDNN_4core5clone5Clone5clone.exit.i, !prof !445

bb3.i.i:                                          ; preds = %bb5.i
  %_24.i.i = getelementptr inbounds nuw i8, ptr %iter.sroa.0.062, i64 12
  %14 = getelementptr inbounds nuw i8, ptr %iter.sroa.0.062, i64 28
  %_2.i.i.i = load i8, ptr %14, align 4, !range !443, !alias.scope !446, !noalias !449, !noundef !8
  %15 = getelementptr inbounds nuw i8, ptr %iter.sroa.0.062, i64 24
  %16 = load i32, ptr %15, align 4, !alias.scope !446, !noalias !449, !noundef !8
  %.not.i.i.i = icmp eq i32 %16, 0
  br i1 %.not.i.i.i, label %_RNvXs18_NtCsbtZo8rQoR5w_10proc_macro6bridgeINtB6_5GroupNtNtB6_6client11TokenStreamNtBT_4SpanENtNtCsjMrxcFdYDNN_4core5clone5Clone5cloneCsfcjqfaF2v4X_11proc_macro2.exit.i.i, label %bb7.i.i.i

bb7.i.i.i:                                        ; preds = %bb3.i.i
; invoke <proc_macro::bridge::client::TokenStream as core::clone::Clone>::clone
  %_10.i.i.i12 = invoke noundef i32 @_RNvXNtNtCsbtZo8rQoR5w_10proc_macro6bridge6clientNtB2_11TokenStreamNtNtCsjMrxcFdYDNN_4core5clone5Clone5clone(ptr noalias noundef nonnull readonly align 4 captures(address, read_provenance) dereferenceable(4) %15)
          to label %_RNvXs18_NtCsbtZo8rQoR5w_10proc_macro6bridgeINtB6_5GroupNtNtB6_6client11TokenStreamNtBT_4SpanENtNtCsjMrxcFdYDNN_4core5clone5Clone5cloneCsfcjqfaF2v4X_11proc_macro2.exit.i.i unwind label %bb7

_RNvXs18_NtCsbtZo8rQoR5w_10proc_macro6bridgeINtB6_5GroupNtNtB6_6client11TokenStreamNtBT_4SpanENtNtCsjMrxcFdYDNN_4core5clone5Clone5cloneCsfcjqfaF2v4X_11proc_macro2.exit.i.i: ; preds = %bb7.i.i.i, %bb3.i.i
  %storemerge.i.i.i = phi i32 [ 0, %bb3.i.i ], [ %_10.i.i.i12, %bb7.i.i.i ]
  %self.val.i.i.i.i = load i32, ptr %_24.i.i, align 4, !range !451, !alias.scope !452, !noalias !455, !noundef !8
  %_5.i.i.i.i = getelementptr inbounds nuw i8, ptr %iter.sroa.0.062, i64 16
  %_5.val.i.i.i.i = load i64, ptr %_5.i.i.i.i, align 4, !alias.scope !452, !noalias !455
  %17 = inttoptr i64 %_5.val.i.i.i.i to ptr
  %_27.sroa.8.sroa.0.0.extract.trunc.i = trunc i32 %storemerge.i.i.i to i8
  %18 = lshr i32 %storemerge.i.i.i, 8
  br label %_RNvXsF_NtCsfcjqfaF2v4X_11proc_macro23impNtB5_5GroupNtNtCsjMrxcFdYDNN_4core5clone5Clone5clone.exit.i

bb5.i.i:                                          ; preds = %bb2.i.i10
  tail call void @llvm.trap()
  unreachable

_RNvXsF_NtCsfcjqfaF2v4X_11proc_macro23impNtB5_5GroupNtNtCsjMrxcFdYDNN_4core5clone5Clone5clone.exit.i: ; preds = %_RNvXs18_NtCsbtZo8rQoR5w_10proc_macro6bridgeINtB6_5GroupNtNtB6_6client11TokenStreamNtBT_4SpanENtNtCsjMrxcFdYDNN_4core5clone5Clone5cloneCsfcjqfaF2v4X_11proc_macro2.exit.i.i, %bb2.i.i10
  %_27.sroa.4.0.i = phi i32 [ %self.val.i.i.i.i, %_RNvXs18_NtCsbtZo8rQoR5w_10proc_macro6bridgeINtB6_5GroupNtNtB6_6client11TokenStreamNtBT_4SpanENtNtCsjMrxcFdYDNN_4core5clone5Clone5cloneCsfcjqfaF2v4X_11proc_macro2.exit.i.i ], [ undef, %bb2.i.i10 ]
  %_27.sroa.10.0.i = phi i8 [ %_2.i.i.i, %_RNvXs18_NtCsbtZo8rQoR5w_10proc_macro6bridgeINtB6_5GroupNtNtB6_6client11TokenStreamNtBT_4SpanENtNtCsjMrxcFdYDNN_4core5clone5Clone5cloneCsfcjqfaF2v4X_11proc_macro2.exit.i.i ], [ undef, %bb2.i.i10 ]
  %_27.sroa.8.sroa.0.0.i = phi i8 [ %_27.sroa.8.sroa.0.0.extract.trunc.i, %_RNvXs18_NtCsbtZo8rQoR5w_10proc_macro6bridgeINtB6_5GroupNtNtB6_6client11TokenStreamNtBT_4SpanENtNtCsjMrxcFdYDNN_4core5clone5Clone5cloneCsfcjqfaF2v4X_11proc_macro2.exit.i.i ], [ %_7.i.i, %bb2.i.i10 ]
  %_27.sroa.8.sroa.5.sroa.0.0.i = phi i32 [ %18, %_RNvXs18_NtCsbtZo8rQoR5w_10proc_macro6bridgeINtB6_5GroupNtNtB6_6client11TokenStreamNtBT_4SpanENtNtCsjMrxcFdYDNN_4core5clone5Clone5cloneCsfcjqfaF2v4X_11proc_macro2.exit.i.i ], [ 0, %bb2.i.i10 ]
  %_27.sroa.5.0.i = phi ptr [ %17, %_RNvXs18_NtCsbtZo8rQoR5w_10proc_macro6bridgeINtB6_5GroupNtNtB6_6client11TokenStreamNtBT_4SpanENtNtCsjMrxcFdYDNN_4core5clone5Clone5cloneCsfcjqfaF2v4X_11proc_macro2.exit.i.i ], [ %_13.i.i, %bb2.i.i10 ]
  %storemerge.i.i = phi i64 [ 0, %_RNvXs18_NtCsbtZo8rQoR5w_10proc_macro6bridgeINtB6_5GroupNtNtB6_6client11TokenStreamNtBT_4SpanENtNtCsjMrxcFdYDNN_4core5clone5Clone5cloneCsfcjqfaF2v4X_11proc_macro2.exit.i.i ], [ 1, %bb2.i.i10 ]
  %19 = ptrtoint ptr %_27.sroa.5.0.i to i64
  %val.sroa.11.sroa.0.0.extract.trunc29 = trunc i64 %19 to i32
  %val.sroa.11.sroa.7.0.extract.shift31 = lshr i64 %19, 32
  %val.sroa.11.sroa.7.0.extract.trunc32 = trunc nuw i64 %val.sroa.11.sroa.7.0.extract.shift31 to i32
  %val.sroa.15.sroa.7.0.extract.trunc28 = trunc nuw i32 %_27.sroa.8.sroa.5.sroa.0.0.i to i24
  br label %bb6

bb4.i:                                            ; preds = %bb5
  %20 = getelementptr inbounds nuw i8, ptr %iter.sroa.0.062, i64 8
  %21 = getelementptr inbounds nuw i8, ptr %iter.sroa.0.062, i64 24
  %22 = load i8, ptr %21, align 8, !range !261, !alias.scope !435, !noalias !432, !noundef !8
  %.not5.i = icmp eq i8 %22, 2
  br i1 %.not5.i, label %bb13.i, label %bb12.i

bb3.i9:                                           ; preds = %bb5
  %val.sroa.7.0..sroa_idx = getelementptr inbounds nuw i8, ptr %iter.sroa.0.062, i64 4
  %val.sroa.7.0.copyload15 = load i32, ptr %val.sroa.7.0..sroa_idx, align 4, !alias.scope !457
  %val.sroa.716.0..sroa_idx = getelementptr inbounds nuw i8, ptr %iter.sroa.0.062, i64 8
  %val.sroa.716.0.copyload17 = load i64, ptr %val.sroa.716.0..sroa_idx, align 8, !alias.scope !457
  %val.sroa.716.sroa.7.0.extract.shift = lshr i64 %val.sroa.716.0.copyload17, 32
  %val.sroa.716.sroa.7.0.extract.trunc = trunc nuw i64 %val.sroa.716.sroa.7.0.extract.shift to i32
  %val.sroa.11.0..sroa_idx = getelementptr inbounds nuw i8, ptr %iter.sroa.0.062, i64 16
  %val.sroa.11.0.copyload18 = load i64, ptr %val.sroa.11.0..sroa_idx, align 8, !alias.scope !457
  %val.sroa.11.sroa.0.0.extract.trunc = trunc i64 %val.sroa.11.0.copyload18 to i32
  %val.sroa.11.sroa.7.0.extract.shift = lshr i64 %val.sroa.11.0.copyload18, 32
  %val.sroa.11.sroa.7.0.extract.trunc = trunc nuw i64 %val.sroa.11.sroa.7.0.extract.shift to i32
  %val.sroa.15.0..sroa_idx = getelementptr inbounds nuw i8, ptr %iter.sroa.0.062, i64 24
  %val.sroa.15.0.copyload19 = load i32, ptr %val.sroa.15.0..sroa_idx, align 8, !alias.scope !457
  %val.sroa.15.sroa.0.0.extract.trunc = trunc i32 %val.sroa.15.0.copyload19 to i8
  %val.sroa.15.sroa.7.0.extract.shift = lshr i32 %val.sroa.15.0.copyload19, 8
  %val.sroa.15.sroa.7.0.extract.trunc = trunc nuw i32 %val.sroa.15.sroa.7.0.extract.shift to i24
  %val.sroa.18.0..sroa_idx = getelementptr inbounds nuw i8, ptr %iter.sroa.0.062, i64 28
  %val.sroa.18.0.copyload20 = load i8, ptr %val.sroa.18.0..sroa_idx, align 4, !alias.scope !457
  %val.sroa.20.0..sroa_idx = getelementptr inbounds nuw i8, ptr %iter.sroa.0.062, i64 29
  %val.sroa.20.0.copyload21 = load i8, ptr %val.sroa.20.0..sroa_idx, align 1, !alias.scope !457
  %val.sroa.21.0..sroa_idx = getelementptr inbounds nuw i8, ptr %iter.sroa.0.062, i64 30
  %val.sroa.21.0.copyload22 = load i16, ptr %val.sroa.21.0..sroa_idx, align 2, !alias.scope !457
  br label %bb6

bb2.i:                                            ; preds = %bb5
  %23 = getelementptr inbounds nuw i8, ptr %iter.sroa.0.062, i64 8
  %24 = load i64, ptr %23, align 8, !range !222, !alias.scope !435, !noalias !432, !noundef !8
  %.not.i = icmp eq i64 %24, -9223372036854775808
  br i1 %.not.i, label %bb8.i8, label %bb7.i

bb12.i:                                           ; preds = %bb4.i
; invoke <alloc::boxed::Box<str> as core::clone::Clone>::clone
  %25 = invoke { ptr, i64 } @_RNvXsf_NtCsdJPVW0sQgAG_5alloc5boxedINtB5_3BoxeENtNtCsjMrxcFdYDNN_4core5clone5Clone5clone(ptr noalias noundef nonnull readonly align 8 captures(address, read_provenance) dereferenceable(16) %20)
          to label %.noexc unwind label %bb7

.noexc:                                           ; preds = %bb12.i
  %_22.0.i = extractvalue { ptr, i64 } %25, 0
  %_22.1.i = extractvalue { ptr, i64 } %25, 1
  %26 = ptrtoint ptr %_22.0.i to i64
  br label %bb14.i

bb13.i:                                           ; preds = %bb4.i
  %self.val.i.i = load i64, ptr %20, align 4, !alias.scope !458, !noalias !461
  %27 = getelementptr inbounds nuw i8, ptr %iter.sroa.0.062, i64 16
  %28 = load i8, ptr %27, align 4, !range !463, !alias.scope !458, !noalias !461, !noundef !8
  %_18.sroa.0.sroa.5.0.insert.ext.i = zext nneg i8 %28 to i64
  br label %bb14.i

bb14.i:                                           ; preds = %bb13.i, %.noexc
  %_18.sroa.0.sroa.0.0.i = phi i64 [ %26, %.noexc ], [ %self.val.i.i, %bb13.i ]
  %_18.sroa.0.sroa.5.0.i = phi i64 [ %_22.1.i, %.noexc ], [ %_18.sroa.0.sroa.5.0.insert.ext.i, %bb13.i ]
  %val.sroa.716.sroa.7.0.extract.shift37 = lshr i64 %_18.sroa.0.sroa.0.0.i, 32
  %val.sroa.716.sroa.7.0.extract.trunc38 = trunc nuw i64 %val.sroa.716.sroa.7.0.extract.shift37 to i32
  %val.sroa.11.sroa.0.0.extract.trunc30 = trunc i64 %_18.sroa.0.sroa.5.0.i to i32
  %val.sroa.11.sroa.7.0.extract.shift33 = lshr i64 %_18.sroa.0.sroa.5.0.i, 32
  %val.sroa.11.sroa.7.0.extract.trunc34 = trunc nuw i64 %val.sroa.11.sroa.7.0.extract.shift33 to i32
  br label %bb6

bb7.i:                                            ; preds = %bb2.i
  call void @llvm.lifetime.start.p0(i64 24, ptr nonnull %_14.i), !noalias !457
; invoke <alloc::string::String as core::clone::Clone>::clone
  invoke void @_RNvXs4_NtCsdJPVW0sQgAG_5alloc6stringNtB5_6StringNtNtCsjMrxcFdYDNN_4core5clone5Clone5clone(ptr noalias noundef nonnull sret([24 x i8]) align 8 captures(none) dereferenceable(24) %_14.i, ptr noalias noundef nonnull readonly align 8 captures(address, read_provenance) dereferenceable(24) %23)
          to label %.noexc13 unwind label %bb7

.noexc13:                                         ; preds = %bb7.i
  %_13.sroa.0.0.copyload.i = load i64, ptr %_14.i, align 8, !noalias !457
  %_13.sroa.4.sroa.0.0.copyload.i = load i32, ptr %_13.sroa.4.0._14.sroa_idx.i, align 8, !noalias !457
  %_13.sroa.4.sroa.4.0.copyload.i = load i32, ptr %_13.sroa.4.sroa.4.0._13.sroa.4.0._14.sroa_idx.sroa_idx.i, align 4, !noalias !457
  %_13.sroa.4.sroa.5.0.copyload.i = load i32, ptr %_13.sroa.4.sroa.5.0._13.sroa.4.0._14.sroa_idx.sroa_idx.i, align 8, !noalias !457
  %_13.sroa.4.sroa.6.0.copyload.i = load i8, ptr %_13.sroa.4.sroa.6.0._13.sroa.4.0._14.sroa_idx.sroa_idx.i, align 4, !noalias !457
  %_13.sroa.4.sroa.7.0.copyload.i = load i8, ptr %_13.sroa.4.sroa.7.0._13.sroa.4.0._14.sroa_idx.sroa_idx.i, align 1, !noalias !457
  %29 = load i16, ptr %_13.sroa.4.sroa.8.0._13.sroa.4.0._14.sroa_idx.sroa_idx.i, align 2, !noalias !457
  call void @llvm.lifetime.end.p0(i64 24, ptr nonnull %_14.i), !noalias !457
  br label %bb9.i

bb8.i8:                                           ; preds = %bb2.i
  %_17.i = getelementptr inbounds nuw i8, ptr %iter.sroa.0.062, i64 16
  %30 = getelementptr inbounds nuw i8, ptr %iter.sroa.0.062, i64 28
  %_2.0.i.i = load i8, ptr %30, align 4, !range !464, !alias.scope !465, !noalias !468, !noundef !8
  %31 = getelementptr inbounds nuw i8, ptr %iter.sroa.0.062, i64 29
  %_2.1.i.i = load i8, ptr %31, align 1, !alias.scope !465, !noalias !468
  %self.val.i6.i = load i32, ptr %_17.i, align 4, !range !451, !alias.scope !465, !noalias !468, !noundef !8
  %32 = getelementptr inbounds nuw i8, ptr %iter.sroa.0.062, i64 24
  %33 = load i32, ptr %32, align 4, !alias.scope !465, !noalias !468, !noundef !8
  %_9.i.i = getelementptr inbounds nuw i8, ptr %iter.sroa.0.062, i64 20
  %_9.val.i.i = load i32, ptr %_9.i.i, align 4, !range !451, !alias.scope !465, !noalias !468, !noundef !8
  br label %bb9.i

bb9.i:                                            ; preds = %bb8.i8, %.noexc13
  %_10.sroa.5.sroa.9.sroa.0.0.i = phi i16 [ undef, %bb8.i8 ], [ %29, %.noexc13 ]
  %_10.sroa.5.sroa.5.0.i = phi i32 [ %_9.val.i.i, %bb8.i8 ], [ %_13.sroa.4.sroa.4.0.copyload.i, %.noexc13 ]
  %_10.sroa.5.sroa.0.0.i = phi i32 [ %self.val.i6.i, %bb8.i8 ], [ %_13.sroa.4.sroa.0.0.copyload.i, %.noexc13 ]
  %_10.sroa.5.sroa.6.0.i = phi i32 [ %33, %bb8.i8 ], [ %_13.sroa.4.sroa.5.0.copyload.i, %.noexc13 ]
  %_10.sroa.5.sroa.7.0.i = phi i8 [ %_2.0.i.i, %bb8.i8 ], [ %_13.sroa.4.sroa.6.0.copyload.i, %.noexc13 ]
  %_10.sroa.5.sroa.8.0.i = phi i8 [ %_2.1.i.i, %bb8.i8 ], [ %_13.sroa.4.sroa.7.0.copyload.i, %.noexc13 ]
  %_10.sroa.0.0.i = phi i64 [ -9223372036854775808, %bb8.i8 ], [ %_13.sroa.0.0.copyload.i, %.noexc13 ]
  %val.sroa.716.sroa.7.0.extract.shift39 = lshr i64 %_10.sroa.0.0.i, 32
  %val.sroa.716.sroa.7.0.extract.trunc40 = trunc nuw i64 %val.sroa.716.sroa.7.0.extract.shift39 to i32
  %val.sroa.15.sroa.0.0.extract.trunc23 = trunc i32 %_10.sroa.5.sroa.6.0.i to i8
  %val.sroa.15.sroa.7.0.extract.shift25 = lshr i32 %_10.sroa.5.sroa.6.0.i, 8
  %val.sroa.15.sroa.7.0.extract.trunc26 = trunc nuw i32 %val.sroa.15.sroa.7.0.extract.shift25 to i24
  br label %bb6

bb6:                                              ; preds = %bb9.i, %bb14.i, %bb3.i9, %_RNvXsF_NtCsfcjqfaF2v4X_11proc_macro23impNtB5_5GroupNtNtCsjMrxcFdYDNN_4core5clone5Clone5clone.exit.i
  %val.sroa.11.sroa.7.0 = phi i32 [ %val.sroa.11.sroa.7.0.extract.trunc32, %_RNvXsF_NtCsfcjqfaF2v4X_11proc_macro23impNtB5_5GroupNtNtCsjMrxcFdYDNN_4core5clone5Clone5clone.exit.i ], [ %val.sroa.11.sroa.7.0.extract.trunc34, %bb14.i ], [ %val.sroa.11.sroa.7.0.extract.trunc, %bb3.i9 ], [ %_10.sroa.5.sroa.5.0.i, %bb9.i ]
  %val.sroa.11.sroa.0.0 = phi i32 [ %val.sroa.11.sroa.0.0.extract.trunc29, %_RNvXsF_NtCsfcjqfaF2v4X_11proc_macro23impNtB5_5GroupNtNtCsjMrxcFdYDNN_4core5clone5Clone5clone.exit.i ], [ %val.sroa.11.sroa.0.0.extract.trunc30, %bb14.i ], [ %val.sroa.11.sroa.0.0.extract.trunc, %bb3.i9 ], [ %_10.sroa.5.sroa.0.0.i, %bb9.i ]
  %val.sroa.15.sroa.7.sroa.0.1 = phi i24 [ %val.sroa.15.sroa.7.0.extract.trunc28, %_RNvXsF_NtCsfcjqfaF2v4X_11proc_macro23impNtB5_5GroupNtNtCsjMrxcFdYDNN_4core5clone5Clone5clone.exit.i ], [ %val.sroa.15.sroa.7.sroa.0.053, %bb14.i ], [ %val.sroa.15.sroa.7.0.extract.trunc, %bb3.i9 ], [ %val.sroa.15.sroa.7.0.extract.trunc26, %bb9.i ]
  %val.sroa.15.sroa.0.0 = phi i8 [ %_27.sroa.8.sroa.0.0.i, %_RNvXsF_NtCsfcjqfaF2v4X_11proc_macro23impNtB5_5GroupNtNtCsjMrxcFdYDNN_4core5clone5Clone5clone.exit.i ], [ %22, %bb14.i ], [ %val.sroa.15.sroa.0.0.extract.trunc, %bb3.i9 ], [ %val.sroa.15.sroa.0.0.extract.trunc23, %bb9.i ]
  %val.sroa.21.1 = phi i16 [ %val.sroa.21.054, %_RNvXsF_NtCsfcjqfaF2v4X_11proc_macro23impNtB5_5GroupNtNtCsjMrxcFdYDNN_4core5clone5Clone5clone.exit.i ], [ %val.sroa.21.054, %bb14.i ], [ %val.sroa.21.0.copyload22, %bb3.i9 ], [ %_10.sroa.5.sroa.9.sroa.0.0.i, %bb9.i ]
  %val.sroa.20.1 = phi i8 [ %val.sroa.20.055, %_RNvXsF_NtCsfcjqfaF2v4X_11proc_macro23impNtB5_5GroupNtNtCsjMrxcFdYDNN_4core5clone5Clone5clone.exit.i ], [ %val.sroa.20.055, %bb14.i ], [ %val.sroa.20.0.copyload21, %bb3.i9 ], [ %_10.sroa.5.sroa.8.0.i, %bb9.i ]
  %val.sroa.18.1 = phi i8 [ %_27.sroa.10.0.i, %_RNvXsF_NtCsfcjqfaF2v4X_11proc_macro23impNtB5_5GroupNtNtCsjMrxcFdYDNN_4core5clone5Clone5clone.exit.i ], [ %val.sroa.18.056, %bb14.i ], [ %val.sroa.18.0.copyload20, %bb3.i9 ], [ %_10.sroa.5.sroa.7.0.i, %bb9.i ]
  %val.sroa.7.1 = phi i32 [ %val.sroa.7.057, %_RNvXsF_NtCsfcjqfaF2v4X_11proc_macro23impNtB5_5GroupNtNtCsjMrxcFdYDNN_4core5clone5Clone5clone.exit.i ], [ %val.sroa.7.057, %bb14.i ], [ %val.sroa.7.0.copyload15, %bb3.i9 ], [ %val.sroa.7.057, %bb9.i ]
  %val.sroa.716.sroa.0.0 = phi i64 [ %storemerge.i.i, %_RNvXsF_NtCsfcjqfaF2v4X_11proc_macro23impNtB5_5GroupNtNtCsjMrxcFdYDNN_4core5clone5Clone5clone.exit.i ], [ %_18.sroa.0.sroa.0.0.i, %bb14.i ], [ %val.sroa.716.0.copyload17, %bb3.i9 ], [ %_10.sroa.0.0.i, %bb9.i ]
  %val.sroa.716.sroa.7.0 = phi i32 [ %_27.sroa.4.0.i, %_RNvXsF_NtCsfcjqfaF2v4X_11proc_macro23impNtB5_5GroupNtNtCsjMrxcFdYDNN_4core5clone5Clone5clone.exit.i ], [ %val.sroa.716.sroa.7.0.extract.trunc38, %bb14.i ], [ %val.sroa.716.sroa.7.0.extract.trunc, %bb3.i9 ], [ %val.sroa.716.sroa.7.0.extract.trunc40, %bb9.i ]
  %self5 = getelementptr inbounds nuw %"core::mem::maybe_uninit::MaybeUninit<TokenTree>", ptr %2, i64 %iter.sroa.7.059
  %val.sroa.716.sroa.7.0.insert.ext = zext i32 %val.sroa.716.sroa.7.0 to i64
  %val.sroa.716.sroa.7.0.insert.shift = shl nuw i64 %val.sroa.716.sroa.7.0.insert.ext, 32
  %val.sroa.716.sroa.0.0.insert.ext = and i64 %val.sroa.716.sroa.0.0, 4294967295
  %val.sroa.716.sroa.0.0.insert.insert = or disjoint i64 %val.sroa.716.sroa.7.0.insert.shift, %val.sroa.716.sroa.0.0.insert.ext
  %val.sroa.11.sroa.7.0.insert.ext = zext i32 %val.sroa.11.sroa.7.0 to i64
  %val.sroa.11.sroa.7.0.insert.shift = shl nuw i64 %val.sroa.11.sroa.7.0.insert.ext, 32
  %val.sroa.11.sroa.0.0.insert.ext = zext i32 %val.sroa.11.sroa.0.0 to i64
  %val.sroa.11.sroa.0.0.insert.insert = or disjoint i64 %val.sroa.11.sroa.7.0.insert.shift, %val.sroa.11.sroa.0.0.insert.ext
  %val.sroa.15.sroa.7.0.insert.ext = zext i24 %val.sroa.15.sroa.7.sroa.0.1 to i32
  %val.sroa.15.sroa.7.0.insert.shift = shl nuw i32 %val.sroa.15.sroa.7.0.insert.ext, 8
  %val.sroa.15.sroa.0.0.insert.ext = zext i8 %val.sroa.15.sroa.0.0 to i32
  %val.sroa.15.sroa.0.0.insert.insert = or disjoint i32 %val.sroa.15.sroa.7.0.insert.shift, %val.sroa.15.sroa.0.0.insert.ext
  store i32 %8, ptr %self5, align 8
  %_45.sroa.4.0.self5.sroa_idx = getelementptr inbounds nuw i8, ptr %self5, i64 4
  store i32 %val.sroa.7.1, ptr %_45.sroa.4.0.self5.sroa_idx, align 4
  %_45.sroa.5.0.self5.sroa_idx = getelementptr inbounds nuw i8, ptr %self5, i64 8
  store i64 %val.sroa.716.sroa.0.0.insert.insert, ptr %_45.sroa.5.0.self5.sroa_idx, align 8
  %_45.sroa.6.0.self5.sroa_idx = getelementptr inbounds nuw i8, ptr %self5, i64 16
  store i64 %val.sroa.11.sroa.0.0.insert.insert, ptr %_45.sroa.6.0.self5.sroa_idx, align 8
  %_45.sroa.7.0.self5.sroa_idx = getelementptr inbounds nuw i8, ptr %self5, i64 24
  store i32 %val.sroa.15.sroa.0.0.insert.insert, ptr %_45.sroa.7.0.self5.sroa_idx, align 8
  %_45.sroa.8.0.self5.sroa_idx = getelementptr inbounds nuw i8, ptr %self5, i64 28
  store i8 %val.sroa.18.1, ptr %_45.sroa.8.0.self5.sroa_idx, align 4
  %_45.sroa.9.0.self5.sroa_idx = getelementptr inbounds nuw i8, ptr %self5, i64 29
  store i8 %val.sroa.20.1, ptr %_45.sroa.9.0.self5.sroa_idx, align 1
  %_45.sroa.10.0.self5.sroa_idx = getelementptr inbounds nuw i8, ptr %self5, i64 30
  store i16 %val.sroa.21.1, ptr %_45.sroa.10.0.self5.sroa_idx, align 2
  %34 = icmp eq i64 %6, 0
  br i1 %34, label %bb4, label %bb20

terminate:                                        ; preds = %bb7
  %35 = landingpad { ptr, i32 }
          filter [0 x ptr] zeroinitializer
; call core::panicking::panic_in_cleanup
  tail call void @_RNvNtCsjMrxcFdYDNN_4core9panicking16panic_in_cleanup() #31
  unreachable

bb7:                                              ; preds = %bb7.i.i.i, %bb12.i, %bb7.i
  %lpad.loopexit = landingpad { ptr, i32 }
          cleanup
  store i64 %iter.sroa.7.059, ptr %5, align 8
; invoke core::ptr::drop_in_place::<alloc::vec::Vec<proc_macro2::TokenTree>>
  invoke fastcc void @_RINvNtCsjMrxcFdYDNN_4core3ptr13drop_in_placeINtNtCsdJPVW0sQgAG_5alloc3vec3VecNtCsfcjqfaF2v4X_11proc_macro29TokenTreeEEB1f_(ptr noalias noundef align 8 dereferenceable(24) %vec) #32
          to label %bb8 unwind label %terminate

bb8:                                              ; preds = %bb7
  resume { ptr, i32 } %lpad.loopexit
}

; <alloc::string::String as core::iter::traits::collect::Extend<char>>::extend::<core::char::EscapeDebug>
; Function Attrs: uwtable
define internal fastcc void @_RINvXsd_NtCsdJPVW0sQgAG_5alloc6stringNtB6_6StringINtNtNtNtCsjMrxcFdYDNN_4core4iter6traits7collect6ExtendcE6extendNtNtBU_4char11EscapeDebugECsfcjqfaF2v4X_11proc_macro2(ptr noalias noundef nonnull align 8 captures(none) dereferenceable(24) %self, ptr dead_on_return noalias noundef nonnull readonly align 4 captures(none) dereferenceable(16) %iter) unnamed_addr #3 personality ptr @rust_eh_personality {
start:
  %iterator.sroa.4.0.iter.sroa_idx = getelementptr inbounds nuw i8, ptr %iter, i64 12
  %iterator.sroa.4.0.copyload2 = load i8, ptr %iterator.sroa.4.0.iter.sroa_idx, align 4, !alias.scope !470
  %iterator.sroa.5.0.iter.sroa_idx = getelementptr inbounds nuw i8, ptr %iter, i64 13
  %iterator.sroa.5.0.copyload3 = load i8, ptr %iterator.sroa.5.0.iter.sroa_idx, align 1, !alias.scope !470
  %_4.i = sub i8 %iterator.sroa.5.0.copyload3, %iterator.sroa.4.0.copyload2
  %_2.i = zext i8 %_4.i to i64
  %0 = getelementptr inbounds nuw i8, ptr %self, i64 16
  %len.i = load i64, ptr %0, align 8, !alias.scope !474, !noundef !8
  %self2.i = load i64, ptr %self, align 8, !range !115, !alias.scope !474, !noundef !8
  %_9.i = sub i64 %self2.i, %len.i
  %_7.i = icmp ult i64 %_9.i, %_2.i
  br i1 %_7.i, label %bb1.i, label %_RNvMs_NtCsdJPVW0sQgAG_5alloc3vecINtB4_3VechE7reserveCsfcjqfaF2v4X_11proc_macro2.exit, !prof !445

bb1.i:                                            ; preds = %start
; call <alloc::raw_vec::RawVecInner<_>>::reserve::do_reserve_and_handle::<alloc::alloc::Global>
  tail call fastcc void @_RINvNvMs2_NtCsdJPVW0sQgAG_5alloc7raw_vecINtB8_11RawVecInnerpE7reserve21do_reserve_and_handleNtNtBa_5alloc6GlobalECsfcjqfaF2v4X_11proc_macro2(ptr noalias noundef nonnull align 8 dereferenceable(24) %self, i64 noundef %len.i, i64 noundef %_2.i)
  br label %_RNvMs_NtCsdJPVW0sQgAG_5alloc3vecINtB4_3VechE7reserveCsfcjqfaF2v4X_11proc_macro2.exit

_RNvMs_NtCsdJPVW0sQgAG_5alloc3vecINtB4_3VechE7reserveCsfcjqfaF2v4X_11proc_macro2.exit: ; preds = %start, %bb1.i
  tail call void @llvm.experimental.noalias.scope.decl(metadata !477)
  tail call void @llvm.experimental.noalias.scope.decl(metadata !480)
  tail call void @llvm.experimental.noalias.scope.decl(metadata !482)
  tail call void @llvm.experimental.noalias.scope.decl(metadata !485)
  %_14.i.i13.i.i = icmp ult i8 %iterator.sroa.4.0.copyload2, %iterator.sroa.5.0.copyload3
  br i1 %_14.i.i13.i.i, label %bb3.i.i.lr.ph.i.i, label %_RINvYNtNtCsjMrxcFdYDNN_4core4char11EscapeDebugNtNtNtNtB7_4iter6traits8iterator8Iterator8for_eachNCINvXsd_NtCsdJPVW0sQgAG_5alloc6stringNtB1F_6StringINtNtBM_7collect6ExtendcE6extendB3_E0ECsfcjqfaF2v4X_11proc_macro2.exit

bb3.i.i.lr.ph.i.i:                                ; preds = %_RNvMs_NtCsdJPVW0sQgAG_5alloc3vecINtB4_3VechE7reserveCsfcjqfaF2v4X_11proc_macro2.exit
  %_23.i.i.i.i = icmp ugt i8 %iterator.sroa.5.0.copyload3, -128
  %_25.i.i.i.i = load i32, ptr %iter, align 4, !range !487, !alias.scope !488, !noalias !489
  %_16.i.i.i.i.i = icmp samesign ult i32 %_25.i.i.i.i, 128
  %_17.i.i.i.i.i = icmp samesign ult i32 %_25.i.i.i.i, 2048
  %_18.i.i.i.i.i = icmp samesign ult i32 %_25.i.i.i.i, 65536
  %..i.i.i.i.i = select i1 %_18.i.i.i.i.i, i64 3, i64 4
  %1 = getelementptr inbounds nuw i8, ptr %self, i64 8
  %2 = zext i8 %iterator.sroa.4.0.copyload2 to i64
  %wide.trip.count.i.i = zext i8 %iterator.sroa.5.0.copyload3 to i64
  %spec.select.i.i = select i1 %_17.i.i.i.i.i, i64 2, i64 %..i.i.i.i.i
  %spec.select16.i.i = select i1 %_16.i.i.i.i.i, i64 1, i64 %spec.select.i.i
  br label %bb3.i.i.i.i

bb3.i.i.i.i:                                      ; preds = %_RNCINvNvNtNtNtNtCsjMrxcFdYDNN_4core4iter6traits8iterator8Iterator8for_each4callcNCINvXsd_NtCsdJPVW0sQgAG_5alloc6stringNtB1p_6StringINtNtBa_7collect6ExtendcE6extendNtNtBe_4char11EscapeDebugE0E0CsfcjqfaF2v4X_11proc_macro2.exit.i.i, %bb3.i.i.lr.ph.i.i
  %indvars.iv.i.i = phi i64 [ %2, %bb3.i.i.lr.ph.i.i ], [ %indvars.iv.next.i.i, %_RNCINvNvNtNtNtNtCsjMrxcFdYDNN_4core4iter6traits8iterator8Iterator8for_each4callcNCINvXsd_NtCsdJPVW0sQgAG_5alloc6stringNtB1p_6StringINtNtBa_7collect6ExtendcE6extendNtNtBe_4char11EscapeDebugE0E0CsfcjqfaF2v4X_11proc_macro2.exit.i.i ]
  %indvars.iv.next.i.i = add nuw nsw i64 %indvars.iv.i.i, 1
  br i1 %_23.i.i.i.i, label %bb3.i.i, label %bb3.thread.i.i

bb3.thread.i.i:                                   ; preds = %bb3.i.i.i.i
  %_28.i.i.i.i = icmp samesign ult i64 %indvars.iv.i.i, 10
  tail call void @llvm.assume(i1 %_28.i.i.i.i)
  %_26.i.i.i.i = getelementptr inbounds nuw i8, ptr %iter, i64 %indvars.iv.i.i
  %self2.i.i.i.i = load i8, ptr %_26.i.i.i.i, align 1, !range !490, !alias.scope !491, !noalias !489, !noundef !8
  %_8.i.i.i.i = zext nneg i8 %self2.i.i.i.i to i32
  br label %bb2.i.i.i.i.i

bb3.i.i:                                          ; preds = %bb3.i.i.i.i
  tail call void @llvm.experimental.noalias.scope.decl(metadata !496)
  br label %bb2.i.i.i.i.i

bb2.i.i.i.i.i:                                    ; preds = %bb3.i.i, %bb3.thread.i.i
  %_16.i.i.i11.i.i = phi i1 [ true, %bb3.thread.i.i ], [ %_16.i.i.i.i.i, %bb3.i.i ]
  %_0.sroa.0.0.i.i.ph9.i.i = phi i32 [ %_8.i.i.i.i, %bb3.thread.i.i ], [ %_25.i.i.i.i, %bb3.i.i ]
  %ch_len.sroa.0.0.i.i.i.i.i = phi i64 [ 1, %bb3.thread.i.i ], [ %spec.select16.i.i, %bb3.i.i ]
  %len.i.i.i.i.i = load i64, ptr %0, align 8, !alias.scope !499, !noalias !488, !noundef !8
  %_14.i.i.i.i.i = icmp sgt i64 %len.i.i.i.i.i, -1
  tail call void @llvm.assume(i1 %_14.i.i.i.i.i)
  %self2.i.i.i.i.i.i = load i64, ptr %self, align 8, !range !115, !alias.scope !501, !noalias !488, !noundef !8
  %_9.i.i.i.i.i.i = sub nsw i64 %self2.i.i.i.i.i.i, %len.i.i.i.i.i
  %_7.i.i.i.i.i.i = icmp ugt i64 %ch_len.sroa.0.0.i.i.i.i.i, %_9.i.i.i.i.i.i
  br i1 %_7.i.i.i.i.i.i, label %bb1.i.i.i.i.i.i, label %_RNvMs_NtCsdJPVW0sQgAG_5alloc3vecINtB4_3VechE7reserveCsfcjqfaF2v4X_11proc_macro2.exit.i.i.i.i.i, !prof !445

bb1.i.i.i.i.i.i:                                  ; preds = %bb2.i.i.i.i.i
; call <alloc::raw_vec::RawVecInner<_>>::reserve::do_reserve_and_handle::<alloc::alloc::Global>
  tail call fastcc void @_RINvNvMs2_NtCsdJPVW0sQgAG_5alloc7raw_vecINtB8_11RawVecInnerpE7reserve21do_reserve_and_handleNtNtBa_5alloc6GlobalECsfcjqfaF2v4X_11proc_macro2(ptr noalias noundef nonnull align 8 dereferenceable(24) %self, i64 noundef %len.i.i.i.i.i, i64 noundef %ch_len.sroa.0.0.i.i.i.i.i)
  %count.pre.i.i.i.i.i = load i64, ptr %0, align 8, !alias.scope !504, !noalias !488
  br label %_RNvMs_NtCsdJPVW0sQgAG_5alloc3vecINtB4_3VechE7reserveCsfcjqfaF2v4X_11proc_macro2.exit.i.i.i.i.i

_RNvMs_NtCsdJPVW0sQgAG_5alloc3vecINtB4_3VechE7reserveCsfcjqfaF2v4X_11proc_macro2.exit.i.i.i.i.i: ; preds = %bb1.i.i.i.i.i.i, %bb2.i.i.i.i.i
  %count.i.i.i.i.i = phi i64 [ %len.i.i.i.i.i, %bb2.i.i.i.i.i ], [ %count.pre.i.i.i.i.i, %bb1.i.i.i.i.i.i ]
  %_20.i.i.i.i.i = load ptr, ptr %1, align 8, !alias.scope !504, !noalias !488, !nonnull !8, !noundef !8
  %_21.i.i.i.i.i = icmp sgt i64 %count.i.i.i.i.i, -1
  tail call void @llvm.assume(i1 %_21.i.i.i.i.i)
  %_8.i.i.i.i.i = getelementptr inbounds nuw i8, ptr %_20.i.i.i.i.i, i64 %count.i.i.i.i.i
  br i1 %_16.i.i.i11.i.i, label %bb12.i.i.i.i.i.i, label %bb7.i.i.i.i.i.i

bb7.i.i.i.i.i.i:                                  ; preds = %_RNvMs_NtCsdJPVW0sQgAG_5alloc3vecINtB4_3VechE7reserveCsfcjqfaF2v4X_11proc_macro2.exit.i.i.i.i.i
  %_27.i.i.i.i.i.i = icmp samesign ult i32 %_0.sroa.0.0.i.i.ph9.i.i, 2048
  %3 = trunc i32 %_0.sroa.0.0.i.i.ph9.i.i to i8
  %_5.i.i.i.i.i.i = and i8 %3, 63
  %last1.i.i.i.i.i.i = or disjoint i8 %_5.i.i.i.i.i.i, -128
  %_10.i.i.i.i.i.i = lshr i32 %_0.sroa.0.0.i.i.ph9.i.i, 6
  %4 = trunc i32 %_10.i.i.i.i.i.i to i8
  %_8.i.i.i.i.i.i = and i8 %4, 63
  %last2.i.i.i.i.i.i = or disjoint i8 %_8.i.i.i.i.i.i, -128
  %_14.i.i.i.i.i.i = lshr i32 %_0.sroa.0.0.i.i.ph9.i.i, 12
  %5 = trunc i32 %_14.i.i.i.i.i.i to i8
  %_12.i.i.i.i.i.i = and i8 %5, 63
  %last3.i.i.i.i.i.i = or disjoint i8 %_12.i.i.i.i.i.i, -128
  %_18.i.i.i.i.i.i = lshr i32 %_0.sroa.0.0.i.i.ph9.i.i, 18
  %_16.i.i.i.i.i.i = trunc nuw nsw i32 %_18.i.i.i.i.i.i to i8
  %last4.i.i.i.i.i.i = or disjoint i8 %_16.i.i.i.i.i.i, -16
  br i1 %_27.i.i.i.i.i.i, label %bb1.i2.i.i.i.i.i, label %bb2.i.i.i.i.i.i

bb12.i.i.i.i.i.i:                                 ; preds = %_RNvMs_NtCsdJPVW0sQgAG_5alloc3vecINtB4_3VechE7reserveCsfcjqfaF2v4X_11proc_macro2.exit.i.i.i.i.i
  %6 = trunc nuw nsw i32 %_0.sroa.0.0.i.i.ph9.i.i to i8
  store i8 %6, ptr %_8.i.i.i.i.i, align 1, !noalias !505
  br label %_RNCINvNvNtNtNtNtCsjMrxcFdYDNN_4core4iter6traits8iterator8Iterator8for_each4callcNCINvXsd_NtCsdJPVW0sQgAG_5alloc6stringNtB1p_6StringINtNtBa_7collect6ExtendcE6extendNtNtBe_4char11EscapeDebugE0E0CsfcjqfaF2v4X_11proc_macro2.exit.i.i

bb1.i2.i.i.i.i.i:                                 ; preds = %bb7.i.i.i.i.i.i
  %7 = or disjoint i8 %4, -64
  store i8 %7, ptr %_8.i.i.i.i.i, align 1, !noalias !505
  %_20.i.i.i.i.i.i = getelementptr inbounds nuw i8, ptr %_8.i.i.i.i.i, i64 1
  store i8 %last1.i.i.i.i.i.i, ptr %_20.i.i.i.i.i.i, align 1, !noalias !505
  br label %_RNCINvNvNtNtNtNtCsjMrxcFdYDNN_4core4iter6traits8iterator8Iterator8for_each4callcNCINvXsd_NtCsdJPVW0sQgAG_5alloc6stringNtB1p_6StringINtNtBa_7collect6ExtendcE6extendNtNtBe_4char11EscapeDebugE0E0CsfcjqfaF2v4X_11proc_macro2.exit.i.i

bb2.i.i.i.i.i.i:                                  ; preds = %bb7.i.i.i.i.i.i
  %_28.i.i.i.i.i.i = icmp samesign ult i32 %_0.sroa.0.0.i.i.ph9.i.i, 65536
  br i1 %_28.i.i.i.i.i.i, label %bb3.i.i.i.i.i.i, label %bb4.i.i.i.i.i.i

bb3.i.i.i.i.i.i:                                  ; preds = %bb2.i.i.i.i.i.i
  %8 = or disjoint i8 %5, -32
  store i8 %8, ptr %_8.i.i.i.i.i, align 1, !noalias !505
  %_21.i.i.i.i.i.i = getelementptr inbounds nuw i8, ptr %_8.i.i.i.i.i, i64 1
  store i8 %last2.i.i.i.i.i.i, ptr %_21.i.i.i.i.i.i, align 1, !noalias !505
  %_22.i.i.i.i.i.i = getelementptr inbounds nuw i8, ptr %_8.i.i.i.i.i, i64 2
  store i8 %last1.i.i.i.i.i.i, ptr %_22.i.i.i.i.i.i, align 1, !noalias !505
  br label %_RNCINvNvNtNtNtNtCsjMrxcFdYDNN_4core4iter6traits8iterator8Iterator8for_each4callcNCINvXsd_NtCsdJPVW0sQgAG_5alloc6stringNtB1p_6StringINtNtBa_7collect6ExtendcE6extendNtNtBe_4char11EscapeDebugE0E0CsfcjqfaF2v4X_11proc_macro2.exit.i.i

bb4.i.i.i.i.i.i:                                  ; preds = %bb2.i.i.i.i.i.i
  store i8 %last4.i.i.i.i.i.i, ptr %_8.i.i.i.i.i, align 1, !noalias !505
  %_23.i.i.i.i.i.i = getelementptr inbounds nuw i8, ptr %_8.i.i.i.i.i, i64 1
  store i8 %last3.i.i.i.i.i.i, ptr %_23.i.i.i.i.i.i, align 1, !noalias !505
  %_24.i.i.i.i.i.i = getelementptr inbounds nuw i8, ptr %_8.i.i.i.i.i, i64 2
  store i8 %last2.i.i.i.i.i.i, ptr %_24.i.i.i.i.i.i, align 1, !noalias !505
  %_25.i.i.i.i.i.i = getelementptr inbounds nuw i8, ptr %_8.i.i.i.i.i, i64 3
  store i8 %last1.i.i.i.i.i.i, ptr %_25.i.i.i.i.i.i, align 1, !noalias !505
  br label %_RNCINvNvNtNtNtNtCsjMrxcFdYDNN_4core4iter6traits8iterator8Iterator8for_each4callcNCINvXsd_NtCsdJPVW0sQgAG_5alloc6stringNtB1p_6StringINtNtBa_7collect6ExtendcE6extendNtNtBe_4char11EscapeDebugE0E0CsfcjqfaF2v4X_11proc_macro2.exit.i.i

_RNCINvNvNtNtNtNtCsjMrxcFdYDNN_4core4iter6traits8iterator8Iterator8for_each4callcNCINvXsd_NtCsdJPVW0sQgAG_5alloc6stringNtB1p_6StringINtNtBa_7collect6ExtendcE6extendNtNtBe_4char11EscapeDebugE0E0CsfcjqfaF2v4X_11proc_macro2.exit.i.i: ; preds = %bb4.i.i.i.i.i.i, %bb3.i.i.i.i.i.i, %bb1.i2.i.i.i.i.i, %bb12.i.i.i.i.i.i
  %new_len.i.i.i.i.i = add nuw i64 %len.i.i.i.i.i, %ch_len.sroa.0.0.i.i.i.i.i
  store i64 %new_len.i.i.i.i.i, ptr %0, align 8, !alias.scope !504, !noalias !488
  %exitcond.not.i.i = icmp eq i64 %indvars.iv.next.i.i, %wide.trip.count.i.i
  br i1 %exitcond.not.i.i, label %_RINvYNtNtCsjMrxcFdYDNN_4core4char11EscapeDebugNtNtNtNtB7_4iter6traits8iterator8Iterator8for_eachNCINvXsd_NtCsdJPVW0sQgAG_5alloc6stringNtB1F_6StringINtNtBM_7collect6ExtendcE6extendB3_E0ECsfcjqfaF2v4X_11proc_macro2.exit, label %bb3.i.i.i.i

_RINvYNtNtCsjMrxcFdYDNN_4core4char11EscapeDebugNtNtNtNtB7_4iter6traits8iterator8Iterator8for_eachNCINvXsd_NtCsdJPVW0sQgAG_5alloc6stringNtB1F_6StringINtNtBM_7collect6ExtendcE6extendB3_E0ECsfcjqfaF2v4X_11proc_macro2.exit: ; preds = %_RNCINvNvNtNtNtNtCsjMrxcFdYDNN_4core4iter6traits8iterator8Iterator8for_each4callcNCINvXsd_NtCsdJPVW0sQgAG_5alloc6stringNtB1p_6StringINtNtBa_7collect6ExtendcE6extendNtNtBe_4char11EscapeDebugE0E0CsfcjqfaF2v4X_11proc_macro2.exit.i.i, %_RNvMs_NtCsdJPVW0sQgAG_5alloc3vecINtB4_3VechE7reserveCsfcjqfaF2v4X_11proc_macro2.exit
  ret void
}

; <std::sync::once::Once>::call_once::<proc_macro2::detection::initialize>::{closure#0}
; Function Attrs: inlinehint uwtable
define internal void @_RNCINvMs0_NtNtCs5sEH5CPMdak_3std4sync4onceNtB8_4Once9call_onceNvNtCsfcjqfaF2v4X_11proc_macro29detection10initializeE0B12_(ptr noalias noundef readonly align 8 captures(none) dereferenceable(8) %_1, ptr nonnull readnone align 8 captures(none) %_2) unnamed_addr #6 {
start:
  %self1 = load ptr, ptr %_1, align 8, !nonnull !8, !align !506, !noundef !8
  %0 = load i8, ptr %self1, align 1, !range !463, !noundef !8
  %1 = trunc nuw i8 %0 to i1
  store i8 0, ptr %self1, align 1
  br i1 %1, label %bb4, label %bb3, !prof !507

bb4:                                              ; preds = %start
; call proc_macro::is_available
  %available.i.i = tail call noundef zeroext i1 @_RNvCsbtZo8rQoR5w_10proc_macro12is_available()
  %_3.i.i = select i1 %available.i.i, i64 2, i64 1
  store atomic i64 %_3.i.i, ptr @_RNvNtCsfcjqfaF2v4X_11proc_macro29detection5WORKS.0 monotonic, align 8
  ret void

bb3:                                              ; preds = %start
; call core::option::unwrap_failed
  tail call void @_RNvNtCsjMrxcFdYDNN_4core6option13unwrap_failed(ptr noalias noundef readonly align 8 captures(address, read_provenance) dereferenceable(24) @alloc_3129176114b12752e73d3989241bb5f0) #36
  unreachable
}

; <<std::sync::once::Once>::call_once<proc_macro2::detection::initialize>::{closure#0} as core::ops::function::FnOnce<(&std::sync::once::OnceState,)>>::call_once::{shim:vtable#0}
; Function Attrs: inlinehint uwtable
define internal void @_RNSNvYNCINvMs0_NtNtCs5sEH5CPMdak_3std4sync4onceNtBd_4Once9call_onceNvNtCsfcjqfaF2v4X_11proc_macro29detection10initializeE0INtNtNtCsjMrxcFdYDNN_4core3ops8function6FnOnceTRNtBd_9OnceStateEE9call_once6vtableB17_(ptr noundef readonly captures(none) %_1, ptr nonnull readnone align 8 captures(none) %0) unnamed_addr #6 personality ptr @rust_eh_personality {
start:
  %1 = load ptr, ptr %_1, align 8, !nonnull !8, !align !506, !noundef !8
  tail call void @llvm.experimental.noalias.scope.decl(metadata !508)
  %2 = load i8, ptr %1, align 1, !range !463, !alias.scope !508, !noalias !511, !noundef !8
  %3 = trunc nuw i8 %2 to i1
  store i8 0, ptr %1, align 1, !alias.scope !508, !noalias !511
  br i1 %3, label %_RNvYNCINvMs0_NtNtCs5sEH5CPMdak_3std4sync4onceNtBb_4Once9call_onceNvNtCsfcjqfaF2v4X_11proc_macro29detection10initializeE0INtNtNtCsjMrxcFdYDNN_4core3ops8function6FnOnceTRNtBb_9OnceStateEE9call_onceB15_.exit, label %bb3.i.i, !prof !507

bb3.i.i:                                          ; preds = %start
; call core::option::unwrap_failed
  tail call void @_RNvNtCsjMrxcFdYDNN_4core6option13unwrap_failed(ptr noalias noundef readonly align 8 captures(address, read_provenance) dereferenceable(24) @alloc_3129176114b12752e73d3989241bb5f0) #36, !noalias !514
  unreachable

_RNvYNCINvMs0_NtNtCs5sEH5CPMdak_3std4sync4onceNtBb_4Once9call_onceNvNtCsfcjqfaF2v4X_11proc_macro29detection10initializeE0INtNtNtCsjMrxcFdYDNN_4core3ops8function6FnOnceTRNtBb_9OnceStateEE9call_onceB15_.exit: ; preds = %start
; call proc_macro::is_available
  %available.i.i.i.i = tail call noundef zeroext i1 @_RNvCsbtZo8rQoR5w_10proc_macro12is_available(), !noalias !514
  %_3.i.i.i.i = select i1 %available.i.i.i.i, i64 2, i64 1
  store atomic i64 %_3.i.i.i.i, ptr @_RNvNtCsfcjqfaF2v4X_11proc_macro29detection5WORKS.0 monotonic, align 8, !noalias !514
  ret void
}

; <proc_macro2::TokenStream>::new
; Function Attrs: uwtable
define void @_RNvMCsfcjqfaF2v4X_11proc_macro2NtB2_11TokenStream3new(ptr dead_on_unwind noalias noundef writable writeonly sret([32 x i8]) align 8 captures(none) dereferenceable(32) %_0) unnamed_addr #3 personality ptr @rust_eh_personality {
start:
  %_6.i.i = alloca [40 x i8], align 16
; call proc_macro2::detection::inside_proc_macro
  %_1.i = tail call noundef zeroext i1 @_RNvNtCsfcjqfaF2v4X_11proc_macro29detection17inside_proc_macro(), !noalias !515
  br i1 %_1.i, label %_RNvMs_NtCsfcjqfaF2v4X_11proc_macro23impNtB4_11TokenStream3new.exit, label %bb3.i

bb3.i:                                            ; preds = %start
  call void @llvm.lifetime.start.p0(i64 40, ptr nonnull %_6.i.i), !noalias !515
  store <2 x i64> splat (i64 1), ptr %_6.i.i, align 16, !noalias !515
  %0 = getelementptr inbounds nuw i8, ptr %_6.i.i, i64 16
  store i64 0, ptr %0, align 16, !noalias !515
  %_2.sroa.2.0..sroa_idx.i.i = getelementptr inbounds nuw i8, ptr %_6.i.i, i64 24
  store ptr inttoptr (i64 8 to ptr), ptr %_2.sroa.2.0..sroa_idx.i.i, align 8, !noalias !515
  %_2.sroa.3.0..sroa_idx.i.i = getelementptr inbounds nuw i8, ptr %_6.i.i, i64 32
  store i64 0, ptr %_2.sroa.3.0..sroa_idx.i.i, align 16, !noalias !515
; call __rustc::__rust_no_alloc_shim_is_unstable_v2
  tail call void @_RNvCsKhRCbHf33p_7___rustc35___rust_no_alloc_shim_is_unstable_v2() #30, !noalias !518
; call __rustc::__rust_alloc
  %1 = tail call noundef align 8 dereferenceable_or_null(40) ptr @_RNvCsKhRCbHf33p_7___rustc12___rust_alloc(i64 noundef 40, i64 noundef 8) #30, !noalias !518
  %2 = icmp eq ptr %1, null
  br i1 %2, label %bb2.i.i.i, label %_RNvMs_NtCsfcjqfaF2v4X_11proc_macro28fallbackNtB4_11TokenStream3new.exit.i, !prof !445

bb2.i.i.i:                                        ; preds = %bb3.i
; invoke alloc::alloc::handle_alloc_error
  invoke void @_RNvNtCsdJPVW0sQgAG_5alloc5alloc18handle_alloc_error(i64 noundef 8, i64 noundef 40) #35
          to label %.noexc.i.i unwind label %cleanup.i.i.i, !noalias !515

.noexc.i.i:                                       ; preds = %bb2.i.i.i
  unreachable

cleanup.i.i.i:                                    ; preds = %bb2.i.i.i
  %3 = landingpad { ptr, i32 }
          cleanup
; invoke core::ptr::drop_in_place::<alloc::rc::RcInner<alloc::vec::Vec<proc_macro2::TokenTree>>>
  invoke fastcc void @_RINvNtCsjMrxcFdYDNN_4core3ptr13drop_in_placeINtNtCsdJPVW0sQgAG_5alloc2rc7RcInnerINtNtBL_3vec3VecNtCsfcjqfaF2v4X_11proc_macro29TokenTreeEEEB1y_(ptr noalias noundef nonnull align 8 dereferenceable(40) %_6.i.i) #32
          to label %bb3.i.i.i unwind label %terminate.i.i.i, !noalias !515

terminate.i.i.i:                                  ; preds = %cleanup.i.i.i
  %4 = landingpad { ptr, i32 }
          filter [0 x ptr] zeroinitializer
; call core::panicking::panic_in_cleanup
  tail call void @_RNvNtCsjMrxcFdYDNN_4core9panicking16panic_in_cleanup() #31, !noalias !515
  unreachable

bb3.i.i.i:                                        ; preds = %cleanup.i.i.i
  resume { ptr, i32 } %3

_RNvMs_NtCsfcjqfaF2v4X_11proc_macro28fallbackNtB4_11TokenStream3new.exit.i: ; preds = %bb3.i
  call void @llvm.memcpy.p0.p0.i64(ptr noundef nonnull align 8 dereferenceable(40) %1, ptr noundef nonnull align 16 dereferenceable(40) %_6.i.i, i64 40, i1 false), !noalias !515
  call void @llvm.lifetime.end.p0(i64 40, ptr nonnull %_6.i.i), !noalias !515
  br label %_RNvMs_NtCsfcjqfaF2v4X_11proc_macro23impNtB4_11TokenStream3new.exit

_RNvMs_NtCsfcjqfaF2v4X_11proc_macro23impNtB4_11TokenStream3new.exit: ; preds = %start, %_RNvMs_NtCsfcjqfaF2v4X_11proc_macro28fallbackNtB4_11TokenStream3new.exit.i
  %_1.sroa.5.0 = phi ptr [ %1, %_RNvMs_NtCsfcjqfaF2v4X_11proc_macro28fallbackNtB4_11TokenStream3new.exit.i ], [ inttoptr (i64 4 to ptr), %start ]
  %_1.sroa.0.0 = phi i64 [ -9223372036854775808, %_RNvMs_NtCsfcjqfaF2v4X_11proc_macro28fallbackNtB4_11TokenStream3new.exit.i ], [ 0, %start ]
  store i64 %_1.sroa.0.0, ptr %_0, align 8
  %_1.sroa.5.0._0.sroa_idx = getelementptr inbounds nuw i8, ptr %_0, i64 8
  store ptr %_1.sroa.5.0, ptr %_1.sroa.5.0._0.sroa_idx, align 8
  %_1.sroa.7.0._0.sroa_idx = getelementptr inbounds nuw i8, ptr %_0, i64 16
  store i64 0, ptr %_1.sroa.7.0._0.sroa_idx, align 8
  %_1.sroa.8.0._0.sroa_idx = getelementptr inbounds nuw i8, ptr %_0, i64 24
  store i32 0, ptr %_1.sroa.8.0._0.sroa_idx, align 8
  ret void
}

; <proc_macro2::TokenStream>::is_empty
; Function Attrs: uwtable
define noundef zeroext i1 @_RNvMCsfcjqfaF2v4X_11proc_macro2NtB2_11TokenStream8is_empty(ptr noalias noundef readonly align 8 captures(address, read_provenance) dereferenceable(32) %self) unnamed_addr #3 {
start:
  tail call void @llvm.experimental.noalias.scope.decl(metadata !521)
  %0 = load i64, ptr %self, align 8, !range !222, !alias.scope !521, !noundef !8
  %1 = icmp eq i64 %0, -9223372036854775808
  br i1 %1, label %bb2.i, label %bb3.i

bb2.i:                                            ; preds = %start
  %2 = getelementptr inbounds nuw i8, ptr %self, i64 8
  %_7.i = load ptr, ptr %2, align 8, !alias.scope !521, !nonnull !8, !noundef !8
  %3 = getelementptr inbounds nuw i8, ptr %_7.i, i64 32
  %_5.i = load i64, ptr %3, align 8, !noalias !521, !noundef !8
  %_8.i = icmp ult i64 %_5.i, 288230376151711744
  br label %bb4.sink.split.i

bb3.i:                                            ; preds = %start
  %_3.i.i = getelementptr inbounds nuw i8, ptr %self, i64 24
; call <proc_macro::TokenStream>::is_empty
  %_2.i.i = tail call noundef zeroext i1 @_RNvMs8_CsbtZo8rQoR5w_10proc_macroNtB5_11TokenStream8is_empty(ptr noalias noundef nonnull readonly align 4 captures(address, read_provenance) dereferenceable(4) %_3.i.i)
  br i1 %_2.i.i, label %bb2.i.i, label %_RNvMs_NtCsfcjqfaF2v4X_11proc_macro23impNtB4_11TokenStream8is_empty.exit

bb2.i.i:                                          ; preds = %bb3.i
  %4 = getelementptr inbounds nuw i8, ptr %self, i64 16
  %_4.i.i = load i64, ptr %4, align 8, !alias.scope !524, !noundef !8
  %_5.i.i = icmp ult i64 %_4.i.i, 461168601842738791
  br label %bb4.sink.split.i

bb4.sink.split.i:                                 ; preds = %bb2.i.i, %bb2.i
  %_5.i.sink.i = phi i1 [ %_5.i.i, %bb2.i.i ], [ %_8.i, %bb2.i ]
  %_4.i.sink.i = phi i64 [ %_4.i.i, %bb2.i.i ], [ %_5.i, %bb2.i ]
  tail call void @llvm.assume(i1 %_5.i.sink.i)
  %5 = icmp eq i64 %_4.i.sink.i, 0
  br label %_RNvMs_NtCsfcjqfaF2v4X_11proc_macro23impNtB4_11TokenStream8is_empty.exit

_RNvMs_NtCsfcjqfaF2v4X_11proc_macro23impNtB4_11TokenStream8is_empty.exit: ; preds = %bb3.i, %bb4.sink.split.i
  %_0.sroa.0.0.in.i = phi i1 [ false, %bb3.i ], [ %5, %bb4.sink.split.i ]
  ret i1 %_0.sroa.0.0.in.i
}

; <proc_macro2::imp::DeferredTokenStream>::evaluate_now
; Function Attrs: uwtable
define void @_RNvMNtCsfcjqfaF2v4X_11proc_macro23impNtB2_19DeferredTokenStream12evaluate_now(ptr noalias noundef align 8 dereferenceable(32) %self) unnamed_addr #3 personality ptr @rust_eh_personality {
start:
  %_11.i.i.i = alloca [20 x i8], align 4
  %_13.i = alloca [24 x i8], align 8
  %_9.i = alloca [40 x i8], align 8
  %builder.i = alloca [24 x i8], align 8
  %iter.i = alloca [40 x i8], align 8
  %0 = getelementptr inbounds nuw i8, ptr %self, i64 16
  %_6 = load i64, ptr %0, align 8, !noundef !8
  %_7 = icmp ult i64 %_6, 461168601842738791
  tail call void @llvm.assume(i1 %_7)
  %1 = icmp eq i64 %_6, 0
  br i1 %1, label %bb5, label %bb2

bb2:                                              ; preds = %start
  %_3 = getelementptr inbounds nuw i8, ptr %self, i64 24
  store i64 0, ptr %0, align 8, !alias.scope !527, !noalias !530
  %2 = getelementptr inbounds nuw i8, ptr %self, i64 8
  %_20.i = load ptr, ptr %2, align 8, !alias.scope !527, !noalias !530, !nonnull !8, !noundef !8
  %_26.i.idx = mul nuw nsw i64 %_6, 20
  %_26.i = getelementptr inbounds nuw i8, ptr %_20.i, i64 %_26.i.idx
  call void @llvm.lifetime.start.p0(i64 40, ptr nonnull %iter.i), !noalias !532
  store ptr %_20.i, ptr %iter.i, align 8, !alias.scope !536, !noalias !540
  %_4.sroa.5.0.iter.i.sroa_idx = getelementptr inbounds nuw i8, ptr %iter.i, i64 8
  store ptr %_26.i, ptr %_4.sroa.5.0.iter.i.sroa_idx, align 8, !alias.scope !536, !noalias !540
  %_4.sroa.6.0.iter.i.sroa_idx = getelementptr inbounds nuw i8, ptr %iter.i, i64 16
  store ptr %self, ptr %_4.sroa.6.0.iter.i.sroa_idx, align 8, !alias.scope !536, !noalias !540
  %_4.sroa.7.0.iter.i.sroa_idx = getelementptr inbounds nuw i8, ptr %iter.i, i64 24
  store i64 %_6, ptr %_4.sroa.7.0.iter.i.sroa_idx, align 8, !alias.scope !536, !noalias !540
  %_4.sroa.8.0.iter.i.sroa_idx = getelementptr inbounds nuw i8, ptr %iter.i, i64 32
  store i64 0, ptr %_4.sroa.8.0.iter.i.sroa_idx, align 8, !alias.scope !536, !noalias !540
  call void @llvm.lifetime.start.p0(i64 24, ptr nonnull %builder.i), !noalias !532
; invoke <proc_macro::ConcatTreesHelper>::new
  invoke void @_RNvMse_CsbtZo8rQoR5w_10proc_macroNtB5_17ConcatTreesHelper3new(ptr noalias noundef nonnull sret([24 x i8]) align 8 captures(none) dereferenceable(24) %builder.i, i64 noundef %_6)
          to label %bb3.i unwind label %bb9.i, !noalias !532

bb3.i:                                            ; preds = %bb2
  call void @llvm.lifetime.start.p0(i64 40, ptr nonnull %_9.i), !noalias !532
  %_4.sroa.5.0._9.i.sroa_idx = getelementptr inbounds nuw i8, ptr %_9.i, i64 8
  store ptr %_26.i, ptr %_4.sroa.5.0._9.i.sroa_idx, align 8, !noalias !540
  %_4.sroa.6.0._9.i.sroa_idx = getelementptr inbounds nuw i8, ptr %_9.i, i64 16
  store ptr %self, ptr %_4.sroa.6.0._9.i.sroa_idx, align 8, !noalias !540
  %_4.sroa.7.0._9.i.sroa_idx = getelementptr inbounds nuw i8, ptr %_9.i, i64 24
  store i64 %_6, ptr %_4.sroa.7.0._9.i.sroa_idx, align 8, !noalias !540
  %_4.sroa.8.0._9.i.sroa_idx = getelementptr inbounds nuw i8, ptr %_9.i, i64 32
  store i64 0, ptr %_4.sroa.8.0._9.i.sroa_idx, align 8, !noalias !540
  tail call void @llvm.experimental.noalias.scope.decl(metadata !541)
  tail call void @llvm.experimental.noalias.scope.decl(metadata !544)
  %x.sroa.2.0._11.sroa_idx.i.i.i = getelementptr inbounds nuw i8, ptr %_11.i.i.i, i64 16
  %x.sroa.3.0._11.sroa_idx.i.i.i = getelementptr inbounds nuw i8, ptr %_11.i.i.i, i64 17
  br label %bb2.i.i.i

cleanup.i.i.i:                                    ; preds = %bb3.i.i.i
  %3 = landingpad { ptr, i32 }
          cleanup
  store ptr %_18.i.i.i.i, ptr %_9.i, align 8, !alias.scope !547, !noalias !550
; invoke core::ptr::drop_in_place::<alloc::vec::drain::Drain<proc_macro::TokenTree>>
  invoke fastcc void @_RINvNtCsjMrxcFdYDNN_4core3ptr13drop_in_placeINtNtNtCsdJPVW0sQgAG_5alloc3vec5drain5DrainNtCsbtZo8rQoR5w_10proc_macro9TokenTreeEECsfcjqfaF2v4X_11proc_macro2(ptr noalias noundef nonnull align 8 dereferenceable(40) %_9.i) #32
          to label %bb7.i unwind label %terminate.i.i.i, !noalias !532

bb2.i.i.i:                                        ; preds = %bb4.i.i.i, %bb3.i
  %_18.i46.i.i.i = phi ptr [ %_20.i, %bb3.i ], [ %_18.i.i.i.i, %bb4.i.i.i ]
  call void @llvm.experimental.noalias.scope.decl(metadata !554)
  %_18.i.i.i.i = getelementptr inbounds nuw i8, ptr %_18.i46.i.i.i, i64 20
  %_5.sroa.5.0.ptr.i.sroa_idx.i.i.i = getelementptr inbounds nuw i8, ptr %_18.i46.i.i.i, i64 16
  %_5.sroa.5.0.copyload1.i.i.i = load i8, ptr %_5.sroa.5.0.ptr.i.sroa_idx.i.i.i, align 4, !noalias !555
  %.not.i.i.i = icmp eq i8 %_5.sroa.5.0.copyload1.i.i.i, 7
  br i1 %.not.i.i.i, label %_RINvYINtNtNtCsdJPVW0sQgAG_5alloc3vec5drain5DrainNtCsbtZo8rQoR5w_10proc_macro9TokenTreeENtNtNtNtCsjMrxcFdYDNN_4core4iter6traits8iterator8Iterator4folduNCINvNvB1n_8for_each4callBK_NCINvXsi_BM_NtBM_11TokenStreamINtNtB1r_7collect6ExtendBK_E6extendB3_E0E0ECsfcjqfaF2v4X_11proc_macro2.exit.i.loopexit.i, label %bb3.i.i.i

bb3.i.i.i:                                        ; preds = %bb2.i.i.i
  %_5.sroa.7.0.ptr.i.sroa_idx.i.i.i = getelementptr inbounds nuw i8, ptr %_18.i46.i.i.i, i64 17
  call void @llvm.lifetime.start.p0(i64 20, ptr nonnull %_11.i.i.i), !noalias !556
  call void @llvm.memcpy.p0.p0.i64(ptr noundef nonnull align 4 dereferenceable(16) %_11.i.i.i, ptr noundef nonnull align 4 dereferenceable(16) %_18.i46.i.i.i, i64 16, i1 false), !noalias !557
  call void @llvm.memcpy.p0.p0.i64(ptr noundef nonnull align 1 dereferenceable(3) %x.sroa.3.0._11.sroa_idx.i.i.i, ptr noundef nonnull align 1 dereferenceable(3) %_5.sroa.7.0.ptr.i.sroa_idx.i.i.i, i64 3, i1 false), !noalias !557
  store i8 %_5.sroa.5.0.copyload1.i.i.i, ptr %x.sroa.2.0._11.sroa_idx.i.i.i, align 4, !noalias !556
; invoke <proc_macro::ConcatTreesHelper>::push
  invoke void @_RNvMse_CsbtZo8rQoR5w_10proc_macroNtB5_17ConcatTreesHelper4push(ptr noalias noundef nonnull align 8 dereferenceable(24) %builder.i, ptr noalias noundef nonnull readonly align 4 captures(none) dereferenceable(20) %_11.i.i.i)
          to label %bb4.i.i.i unwind label %cleanup.i.i.i, !noalias !557

bb4.i.i.i:                                        ; preds = %bb3.i.i.i
  call void @llvm.lifetime.end.p0(i64 20, ptr nonnull %_11.i.i.i), !noalias !556
  %_8.i.i.i.i = icmp eq ptr %_18.i.i.i.i, %_26.i
  br i1 %_8.i.i.i.i, label %_RINvYINtNtNtCsdJPVW0sQgAG_5alloc3vec5drain5DrainNtCsbtZo8rQoR5w_10proc_macro9TokenTreeENtNtNtNtCsjMrxcFdYDNN_4core4iter6traits8iterator8Iterator4folduNCINvNvB1n_8for_each4callBK_NCINvXsi_BM_NtBM_11TokenStreamINtNtB1r_7collect6ExtendBK_E6extendB3_E0E0ECsfcjqfaF2v4X_11proc_macro2.exit.i.loopexit.i, label %bb2.i.i.i

terminate.i.i.i:                                  ; preds = %cleanup.i.i.i
  %4 = landingpad { ptr, i32 }
          filter [0 x ptr] zeroinitializer
; call core::panicking::panic_in_cleanup
  call void @_RNvNtCsjMrxcFdYDNN_4core9panicking16panic_in_cleanup() #31, !noalias !557
  unreachable

_RINvYINtNtNtCsdJPVW0sQgAG_5alloc3vec5drain5DrainNtCsbtZo8rQoR5w_10proc_macro9TokenTreeENtNtNtNtCsjMrxcFdYDNN_4core4iter6traits8iterator8Iterator4folduNCINvNvB1n_8for_each4callBK_NCINvXsi_BM_NtBM_11TokenStreamINtNtB1r_7collect6ExtendBK_E6extendB3_E0E0ECsfcjqfaF2v4X_11proc_macro2.exit.i.loopexit.i: ; preds = %bb4.i.i.i, %bb2.i.i.i
  %_18.i.i.i.i.lcssa = phi ptr [ %_26.i, %bb4.i.i.i ], [ %_18.i.i.i.i, %bb2.i.i.i ]
  store ptr %_18.i.i.i.i.lcssa, ptr %_9.i, align 8, !alias.scope !547, !noalias !550
; invoke core::ptr::drop_in_place::<alloc::vec::drain::Drain<proc_macro::TokenTree>>
  invoke fastcc void @_RINvNtCsjMrxcFdYDNN_4core3ptr13drop_in_placeINtNtNtCsdJPVW0sQgAG_5alloc3vec5drain5DrainNtCsbtZo8rQoR5w_10proc_macro9TokenTreeEECsfcjqfaF2v4X_11proc_macro2(ptr noalias noundef nonnull align 8 dereferenceable(40) %_9.i)
          to label %_RINvXsi_CsbtZo8rQoR5w_10proc_macroNtB6_11TokenStreamINtNtNtNtCsjMrxcFdYDNN_4core4iter6traits7collect6ExtendNtB6_9TokenTreeE6extendINtNtNtCsdJPVW0sQgAG_5alloc3vec5drain5DrainB1H_EECsfcjqfaF2v4X_11proc_macro2.exit unwind label %cleanup1.body.thread10.i, !noalias !532

cleanup1.body.thread10.i:                         ; preds = %_RINvYINtNtNtCsdJPVW0sQgAG_5alloc3vec5drain5DrainNtCsbtZo8rQoR5w_10proc_macro9TokenTreeENtNtNtNtCsjMrxcFdYDNN_4core4iter6traits8iterator8Iterator4folduNCINvNvB1n_8for_each4callBK_NCINvXsi_BM_NtBM_11TokenStreamINtNtB1r_7collect6ExtendBK_E6extendB3_E0E0ECsfcjqfaF2v4X_11proc_macro2.exit.i.loopexit.i
  %5 = landingpad { ptr, i32 }
          cleanup
  br label %bb7.i

bb7.i:                                            ; preds = %cleanup1.body.thread10.i, %cleanup.i.i.i
  %eh.lpad-body9.i = phi { ptr, i32 } [ %5, %cleanup1.body.thread10.i ], [ %3, %cleanup.i.i.i ]
; invoke core::ptr::drop_in_place::<alloc::vec::Vec<proc_macro::bridge::TokenTree<proc_macro::bridge::client::TokenStream, proc_macro::bridge::client::Span, proc_macro::bridge::symbol::Symbol>>>
  invoke fastcc void @_RINvNtCsjMrxcFdYDNN_4core3ptr13drop_in_placeINtNtCsdJPVW0sQgAG_5alloc3vec3VecINtNtCsbtZo8rQoR5w_10proc_macro6bridge9TokenTreeNtNtB1g_6client11TokenStreamNtB21_4SpanNtNtB1g_6symbol6SymbolEEECsfcjqfaF2v4X_11proc_macro2(ptr noalias noundef nonnull readonly align 8 dereferenceable(24) %builder.i)
          to label %bb6.i unwind label %terminate.i, !noalias !532

terminate.i:                                      ; preds = %bb9.i, %bb7.i
  %6 = landingpad { ptr, i32 }
          filter [0 x ptr] zeroinitializer
; call core::panicking::panic_in_cleanup
  call void @_RNvNtCsjMrxcFdYDNN_4core9panicking16panic_in_cleanup() #31, !noalias !532
  unreachable

bb6.i:                                            ; preds = %bb9.i, %bb7.i
  %.pn6.i = phi { ptr, i32 } [ %7, %bb9.i ], [ %eh.lpad-body9.i, %bb7.i ]
  resume { ptr, i32 } %.pn6.i

bb9.i:                                            ; preds = %bb2
  %7 = landingpad { ptr, i32 }
          cleanup
; invoke core::ptr::drop_in_place::<alloc::vec::drain::Drain<proc_macro::TokenTree>>
  invoke fastcc void @_RINvNtCsjMrxcFdYDNN_4core3ptr13drop_in_placeINtNtNtCsdJPVW0sQgAG_5alloc3vec5drain5DrainNtCsbtZo8rQoR5w_10proc_macro9TokenTreeEECsfcjqfaF2v4X_11proc_macro2(ptr noalias noundef align 8 dereferenceable(40) %iter.i) #32
          to label %bb6.i unwind label %terminate.i, !noalias !532

_RINvXsi_CsbtZo8rQoR5w_10proc_macroNtB6_11TokenStreamINtNtNtNtCsjMrxcFdYDNN_4core4iter6traits7collect6ExtendNtB6_9TokenTreeE6extendINtNtNtCsdJPVW0sQgAG_5alloc3vec5drain5DrainB1H_EECsfcjqfaF2v4X_11proc_macro2.exit: ; preds = %_RINvYINtNtNtCsdJPVW0sQgAG_5alloc3vec5drain5DrainNtCsbtZo8rQoR5w_10proc_macro9TokenTreeENtNtNtNtCsjMrxcFdYDNN_4core4iter6traits8iterator8Iterator4folduNCINvNvB1n_8for_each4callBK_NCINvXsi_BM_NtBM_11TokenStreamINtNtB1r_7collect6ExtendBK_E6extendB3_E0E0ECsfcjqfaF2v4X_11proc_macro2.exit.i.loopexit.i
  call void @llvm.lifetime.end.p0(i64 40, ptr nonnull %_9.i), !noalias !532
  call void @llvm.lifetime.start.p0(i64 24, ptr nonnull %_13.i), !noalias !532
  call void @llvm.memcpy.p0.p0.i64(ptr noundef nonnull align 8 dereferenceable(24) %_13.i, ptr noundef nonnull align 8 dereferenceable(24) %builder.i, i64 24, i1 false), !noalias !532
; call <proc_macro::ConcatTreesHelper>::append_to
  call void @_RNvMse_CsbtZo8rQoR5w_10proc_macroNtB5_17ConcatTreesHelper9append_to(ptr noalias noundef nonnull align 8 captures(address) dereferenceable(24) %_13.i, ptr noalias noundef nonnull align 4 dereferenceable(4) %_3), !noalias !558
  call void @llvm.lifetime.end.p0(i64 24, ptr nonnull %_13.i), !noalias !532
  call void @llvm.lifetime.end.p0(i64 24, ptr nonnull %builder.i), !noalias !532
  call void @llvm.lifetime.end.p0(i64 40, ptr nonnull %iter.i), !noalias !532
  br label %bb5

bb5:                                              ; preds = %start, %_RINvXsi_CsbtZo8rQoR5w_10proc_macroNtB6_11TokenStreamINtNtNtNtCsjMrxcFdYDNN_4core4iter6traits7collect6ExtendNtB6_9TokenTreeE6extendINtNtNtCsdJPVW0sQgAG_5alloc3vec5drain5DrainB1H_EECsfcjqfaF2v4X_11proc_macro2.exit
  ret void
}

; <proc_macro2::imp::DeferredTokenStream>::into_token_stream
; Function Attrs: uwtable
define noundef i32 @_RNvMNtCsfcjqfaF2v4X_11proc_macro23impNtB2_19DeferredTokenStream17into_token_stream(ptr dead_on_return noalias noundef align 8 captures(address) dereferenceable(32) %self) unnamed_addr #3 personality ptr @rust_eh_personality {
start:
; invoke <proc_macro2::imp::DeferredTokenStream>::evaluate_now
  invoke void @_RNvMNtCsfcjqfaF2v4X_11proc_macro23impNtB2_19DeferredTokenStream12evaluate_now(ptr noalias noundef nonnull align 8 dereferenceable(32) %self)
          to label %bb1 unwind label %cleanup

cleanup:                                          ; preds = %start
  %0 = landingpad { ptr, i32 }
          cleanup
; invoke core::ptr::drop_in_place::<proc_macro2::imp::DeferredTokenStream>
  invoke fastcc void @_RINvNtCsjMrxcFdYDNN_4core3ptr13drop_in_placeNtNtCsfcjqfaF2v4X_11proc_macro23imp19DeferredTokenStreamEBK_(ptr noalias noundef align 8 dereferenceable(32) %self) #32
          to label %bb3 unwind label %terminate

bb1:                                              ; preds = %start
  %1 = getelementptr inbounds nuw i8, ptr %self, i64 24
  %_0 = load i32, ptr %1, align 8, !noundef !8
; call core::ptr::drop_in_place::<alloc::vec::Vec<proc_macro::TokenTree>>
  tail call fastcc void @_RINvNtCsjMrxcFdYDNN_4core3ptr13drop_in_placeINtNtCsdJPVW0sQgAG_5alloc3vec3VecNtCsbtZo8rQoR5w_10proc_macro9TokenTreeEECsfcjqfaF2v4X_11proc_macro2(ptr noalias noundef align 8 dereferenceable(24) %self)
  ret i32 %_0

terminate:                                        ; preds = %cleanup
  %2 = landingpad { ptr, i32 }
          filter [0 x ptr] zeroinitializer
; call core::panicking::panic_in_cleanup
  tail call void @_RNvNtCsjMrxcFdYDNN_4core9panicking16panic_in_cleanup() #31
  unreachable

bb3:                                              ; preds = %cleanup
  resume { ptr, i32 } %0
}

; <char>::escape_debug_ext
; Function Attrs: inlinehint uwtable
define internal fastcc void @_RNvMNtNtCsjMrxcFdYDNN_4core4char7methodsc16escape_debug_ext(ptr dead_on_unwind noalias noundef nonnull writable writeonly align 4 captures(none) dereferenceable(16) initializes((0, 4), (12, 14)) %_0, i32 noundef range(i32 0, 1114112) %self) unnamed_addr #6 {
start:
  %output.i19 = alloca [10 x i8], align 1
  %output.i = alloca [10 x i8], align 1
  switch i32 %self, label %bb14 [
    i32 0, label %bb9
    i32 9, label %bb8
    i32 13, label %bb7
    i32 10, label %bb6
    i32 92, label %bb5
    i32 34, label %bb10
    i32 39, label %bb12
  ]

bb9:                                              ; preds = %start
  store i8 92, ptr %_0, align 4
  %_20.sroa.0.sroa.4.0._0.sroa_idx = getelementptr inbounds nuw i8, ptr %_0, i64 1
  store i8 48, ptr %_20.sroa.0.sroa.4.0._0.sroa_idx, align 1
  %_20.sroa.0.sroa.5.0._0.sroa_idx = getelementptr inbounds nuw i8, ptr %_0, i64 2
  store i64 0, ptr %_20.sroa.0.sroa.5.0._0.sroa_idx, align 2
  br label %bb21

bb8:                                              ; preds = %start
  store i8 92, ptr %_0, align 4
  %_17.sroa.0.sroa.4.0._0.sroa_idx = getelementptr inbounds nuw i8, ptr %_0, i64 1
  store i8 116, ptr %_17.sroa.0.sroa.4.0._0.sroa_idx, align 1
  %_17.sroa.0.sroa.5.0._0.sroa_idx = getelementptr inbounds nuw i8, ptr %_0, i64 2
  store i64 0, ptr %_17.sroa.0.sroa.5.0._0.sroa_idx, align 2
  br label %bb21

bb7:                                              ; preds = %start
  store i8 92, ptr %_0, align 4
  %_14.sroa.0.sroa.4.0._0.sroa_idx = getelementptr inbounds nuw i8, ptr %_0, i64 1
  store i8 114, ptr %_14.sroa.0.sroa.4.0._0.sroa_idx, align 1
  %_14.sroa.0.sroa.5.0._0.sroa_idx = getelementptr inbounds nuw i8, ptr %_0, i64 2
  store i64 0, ptr %_14.sroa.0.sroa.5.0._0.sroa_idx, align 2
  br label %bb21

bb6:                                              ; preds = %start
  store i8 92, ptr %_0, align 4
  %_11.sroa.0.sroa.4.0._0.sroa_idx = getelementptr inbounds nuw i8, ptr %_0, i64 1
  store i8 110, ptr %_11.sroa.0.sroa.4.0._0.sroa_idx, align 1
  %_11.sroa.0.sroa.5.0._0.sroa_idx = getelementptr inbounds nuw i8, ptr %_0, i64 2
  store i64 0, ptr %_11.sroa.0.sroa.5.0._0.sroa_idx, align 2
  br label %bb21

bb5:                                              ; preds = %start
  store i8 92, ptr %_0, align 4
  %_8.sroa.0.sroa.4.0._0.sroa_idx = getelementptr inbounds nuw i8, ptr %_0, i64 1
  store i8 92, ptr %_8.sroa.0.sroa.4.0._0.sroa_idx, align 1
  %_8.sroa.0.sroa.5.0._0.sroa_idx = getelementptr inbounds nuw i8, ptr %_0, i64 2
  store i64 0, ptr %_8.sroa.0.sroa.5.0._0.sroa_idx, align 2
  br label %bb21

bb21:                                             ; preds = %bb19, %bb20, %bb15, %bb12, %bb10, %bb5, %bb6, %bb7, %bb8, %bb9
  %.sink1 = phi i8 [ -128, %bb19 ], [ %_57.i45, %bb20 ], [ %_57.i, %bb15 ], [ 0, %bb12 ], [ 0, %bb10 ], [ 0, %bb5 ], [ 0, %bb6 ], [ 0, %bb7 ], [ 0, %bb8 ], [ 0, %bb9 ]
  %.sink = phi i8 [ -127, %bb19 ], [ 10, %bb20 ], [ 10, %bb15 ], [ 2, %bb12 ], [ 2, %bb10 ], [ 2, %bb5 ], [ 2, %bb6 ], [ 2, %bb7 ], [ 2, %bb8 ], [ 2, %bb9 ]
  %_39.sroa.4.0._0.sroa_idx = getelementptr inbounds nuw i8, ptr %_0, i64 12
  store i8 %.sink1, ptr %_39.sroa.4.0._0.sroa_idx, align 4
  %_39.sroa.5.0._0.sroa_idx = getelementptr inbounds nuw i8, ptr %_0, i64 13
  store i8 %.sink, ptr %_39.sroa.5.0._0.sroa_idx, align 1
  ret void

bb10:                                             ; preds = %start
  store i8 92, ptr %_0, align 4
  %_23.sroa.0.sroa.4.0._0.sroa_idx = getelementptr inbounds nuw i8, ptr %_0, i64 1
  store i8 34, ptr %_23.sroa.0.sroa.4.0._0.sroa_idx, align 1
  %_23.sroa.0.sroa.5.0._0.sroa_idx = getelementptr inbounds nuw i8, ptr %_0, i64 2
  store i64 0, ptr %_23.sroa.0.sroa.5.0._0.sroa_idx, align 2
  br label %bb21

bb12:                                             ; preds = %start
  store i8 92, ptr %_0, align 4
  %_26.sroa.0.sroa.4.0._0.sroa_idx = getelementptr inbounds nuw i8, ptr %_0, i64 1
  store i8 39, ptr %_26.sroa.0.sroa.4.0._0.sroa_idx, align 1
  %_26.sroa.0.sroa.5.0._0.sroa_idx = getelementptr inbounds nuw i8, ptr %_0, i64 2
  store i64 0, ptr %_26.sroa.0.sroa.5.0._0.sroa_idx, align 2
  br label %bb21

bb14:                                             ; preds = %start
  %_33 = icmp samesign ugt i32 %self, 767
  br i1 %_33, label %bb24, label %bb1

bb1:                                              ; preds = %bb24, %bb14
; call core::unicode::printable::is_printable
  %_7 = tail call noundef zeroext i1 @_RNvNtNtCsjMrxcFdYDNN_4core7unicode9printable12is_printable(i32 noundef %self)
  br i1 %_7, label %bb19, label %bb20

bb24:                                             ; preds = %bb14
; call core::unicode::unicode_data::grapheme_extend::lookup_slow
  %_6 = tail call noundef zeroext i1 @_RNvNtNtNtCsjMrxcFdYDNN_4core7unicode12unicode_data15grapheme_extend11lookup_slow(i32 noundef %self) #33
  br i1 %_6, label %bb15, label %bb1

bb15:                                             ; preds = %bb24
  %self.i = or i32 %self, 1
  %0 = tail call range(i32 11, 32) i32 @llvm.ctlz.i32(i32 %self.i, i1 true)
  %1 = lshr i32 %0, 2
  %_4.i = zext nneg i32 %1 to i64
  %start1.i = add nsw i64 %_4.i, -2
  call void @llvm.memset.p0.i64(ptr noundef nonnull align 1 dereferenceable(10) %output.i, i8 0, i64 3, i1 false)
  %_13.i = lshr i32 %self, 20
  %_11.i = zext nneg i32 %_13.i to i64
  %2 = getelementptr inbounds nuw i8, ptr @anon.801098bd5dffe3758279e5918d7d13cc.0, i64 %_11.i
  %_9.i = load i8, ptr %2, align 1, !range !490, !noalias !559, !noundef !8
  %3 = getelementptr inbounds nuw i8, ptr %output.i, i64 3
  store i8 %_9.i, ptr %3, align 1
  %_20.i = lshr i32 %self, 16
  %_19.i = and i32 %_20.i, 15
  %_18.i = zext nneg i32 %_19.i to i64
  %4 = getelementptr inbounds nuw i8, ptr @anon.801098bd5dffe3758279e5918d7d13cc.0, i64 %_18.i
  %_16.i = load i8, ptr %4, align 1, !range !490, !noalias !559, !noundef !8
  %5 = getelementptr inbounds nuw i8, ptr %output.i, i64 4
  store i8 %_16.i, ptr %5, align 1
  %_27.i = lshr i32 %self, 12
  %_26.i = and i32 %_27.i, 15
  %_25.i = zext nneg i32 %_26.i to i64
  %6 = getelementptr inbounds nuw i8, ptr @anon.801098bd5dffe3758279e5918d7d13cc.0, i64 %_25.i
  %_23.i = load i8, ptr %6, align 1, !range !490, !noalias !559, !noundef !8
  %7 = getelementptr inbounds nuw i8, ptr %output.i, i64 5
  store i8 %_23.i, ptr %7, align 1
  %_34.i = lshr i32 %self, 8
  %_33.i = and i32 %_34.i, 15
  %_32.i = zext nneg i32 %_33.i to i64
  %8 = getelementptr inbounds nuw i8, ptr @anon.801098bd5dffe3758279e5918d7d13cc.0, i64 %_32.i
  %_30.i = load i8, ptr %8, align 1, !range !490, !noalias !559, !noundef !8
  %9 = getelementptr inbounds nuw i8, ptr %output.i, i64 6
  store i8 %_30.i, ptr %9, align 1
  %_41.i = lshr i32 %self, 4
  %_40.i = and i32 %_41.i, 15
  %_39.i = zext nneg i32 %_40.i to i64
  %10 = getelementptr inbounds nuw i8, ptr @anon.801098bd5dffe3758279e5918d7d13cc.0, i64 %_39.i
  %_37.i = load i8, ptr %10, align 1, !range !490, !noalias !559, !noundef !8
  %11 = getelementptr inbounds nuw i8, ptr %output.i, i64 7
  store i8 %_37.i, ptr %11, align 1
  %_47.i = and i32 %self, 15
  %_46.i = zext nneg i32 %_47.i to i64
  %12 = getelementptr inbounds nuw i8, ptr @anon.801098bd5dffe3758279e5918d7d13cc.0, i64 %_46.i
  %_44.i = load i8, ptr %12, align 1, !range !490, !noalias !559, !noundef !8
  %13 = getelementptr inbounds nuw i8, ptr %output.i, i64 8
  store i8 %_44.i, ptr %13, align 1
  %14 = getelementptr inbounds nuw i8, ptr %output.i, i64 9
  store i8 125, ptr %14, align 1
  %15 = getelementptr inbounds nuw i8, ptr %output.i, i64 %start1.i
  store i8 92, ptr %15, align 1
  %16 = getelementptr i8, ptr %output.i, i64 %_4.i
  %17 = getelementptr i8, ptr %16, i64 -1
  store i8 117, ptr %17, align 1
  store i8 123, ptr %16, align 1
  %_57.i = trunc nuw nsw i64 %start1.i to i8
  call void @llvm.memcpy.p0.p0.i64(ptr noundef nonnull align 4 dereferenceable(10) %_0, ptr noundef nonnull align 1 dereferenceable(10) %output.i, i64 10, i1 false)
  br label %bb21

bb20:                                             ; preds = %bb1
  %self.i20 = or i32 %self, 1
  %18 = tail call range(i32 11, 32) i32 @llvm.ctlz.i32(i32 %self.i20, i1 true)
  %19 = lshr i32 %18, 2
  %_4.i21 = zext nneg i32 %19 to i64
  %start1.i22 = add nsw i64 %_4.i21, -2
  call void @llvm.memset.p0.i64(ptr noundef nonnull align 1 dereferenceable(10) %output.i19, i8 0, i64 3, i1 false)
  %_13.i23 = lshr i32 %self, 20
  %_11.i24 = zext nneg i32 %_13.i23 to i64
  %20 = getelementptr inbounds nuw i8, ptr @anon.801098bd5dffe3758279e5918d7d13cc.0, i64 %_11.i24
  %_9.i25 = load i8, ptr %20, align 1, !range !490, !noalias !562, !noundef !8
  %21 = getelementptr inbounds nuw i8, ptr %output.i19, i64 3
  store i8 %_9.i25, ptr %21, align 1
  %_20.i26 = lshr i32 %self, 16
  %_19.i27 = and i32 %_20.i26, 15
  %_18.i28 = zext nneg i32 %_19.i27 to i64
  %22 = getelementptr inbounds nuw i8, ptr @anon.801098bd5dffe3758279e5918d7d13cc.0, i64 %_18.i28
  %_16.i29 = load i8, ptr %22, align 1, !range !490, !noalias !562, !noundef !8
  %23 = getelementptr inbounds nuw i8, ptr %output.i19, i64 4
  store i8 %_16.i29, ptr %23, align 1
  %_27.i30 = lshr i32 %self, 12
  %_26.i31 = and i32 %_27.i30, 15
  %_25.i32 = zext nneg i32 %_26.i31 to i64
  %24 = getelementptr inbounds nuw i8, ptr @anon.801098bd5dffe3758279e5918d7d13cc.0, i64 %_25.i32
  %_23.i33 = load i8, ptr %24, align 1, !range !490, !noalias !562, !noundef !8
  %25 = getelementptr inbounds nuw i8, ptr %output.i19, i64 5
  store i8 %_23.i33, ptr %25, align 1
  %_34.i34 = lshr i32 %self, 8
  %_33.i35 = and i32 %_34.i34, 15
  %_32.i36 = zext nneg i32 %_33.i35 to i64
  %26 = getelementptr inbounds nuw i8, ptr @anon.801098bd5dffe3758279e5918d7d13cc.0, i64 %_32.i36
  %_30.i37 = load i8, ptr %26, align 1, !range !490, !noalias !562, !noundef !8
  %27 = getelementptr inbounds nuw i8, ptr %output.i19, i64 6
  store i8 %_30.i37, ptr %27, align 1
  %_41.i38 = lshr i32 %self, 4
  %_40.i39 = and i32 %_41.i38, 15
  %_39.i40 = zext nneg i32 %_40.i39 to i64
  %28 = getelementptr inbounds nuw i8, ptr @anon.801098bd5dffe3758279e5918d7d13cc.0, i64 %_39.i40
  %_37.i41 = load i8, ptr %28, align 1, !range !490, !noalias !562, !noundef !8
  %29 = getelementptr inbounds nuw i8, ptr %output.i19, i64 7
  store i8 %_37.i41, ptr %29, align 1
  %_47.i42 = and i32 %self, 15
  %_46.i43 = zext nneg i32 %_47.i42 to i64
  %30 = getelementptr inbounds nuw i8, ptr @anon.801098bd5dffe3758279e5918d7d13cc.0, i64 %_46.i43
  %_44.i44 = load i8, ptr %30, align 1, !range !490, !noalias !562, !noundef !8
  %31 = getelementptr inbounds nuw i8, ptr %output.i19, i64 8
  store i8 %_44.i44, ptr %31, align 1
  %32 = getelementptr inbounds nuw i8, ptr %output.i19, i64 9
  store i8 125, ptr %32, align 1
  %33 = getelementptr inbounds nuw i8, ptr %output.i19, i64 %start1.i22
  store i8 92, ptr %33, align 1
  %34 = getelementptr i8, ptr %output.i19, i64 %_4.i21
  %35 = getelementptr i8, ptr %34, i64 -1
  store i8 117, ptr %35, align 1
  store i8 123, ptr %34, align 1
  %_57.i45 = trunc nuw nsw i64 %start1.i22 to i8
  call void @llvm.memcpy.p0.p0.i64(ptr noundef nonnull align 4 dereferenceable(10) %_0, ptr noundef nonnull align 1 dereferenceable(10) %output.i19, i64 10, i1 false)
  br label %bb21

bb19:                                             ; preds = %bb1
  store i32 %self, ptr %_0, align 4
  br label %bb21
}

; <alloc::raw_vec::RawVec<proc_macro2::rcvec::RcVecIntoIter<proc_macro2::TokenTree>>>::grow_one
; Function Attrs: cold noinline uwtable
define void @_RNvMs3_NtCsdJPVW0sQgAG_5alloc7raw_vecINtB5_6RawVecINtNtCsfcjqfaF2v4X_11proc_macro25rcvec13RcVecIntoIterNtBR_9TokenTreeEE8grow_oneBR_(ptr noalias noundef align 8 captures(none) dereferenceable(16) %self) unnamed_addr #7 personality ptr @rust_eh_personality {
start:
  %self3.i = alloca [24 x i8], align 8
  %self1 = load i64, ptr %self, align 8, !range !115, !noundef !8
  tail call void @llvm.experimental.noalias.scope.decl(metadata !565)
  %v16.i = shl nuw i64 %self1, 1
  %0 = tail call i64 @llvm.umax.i64(i64 %v16.i, i64 4)
  call void @llvm.lifetime.start.p0(i64 24, ptr nonnull %self3.i), !noalias !565
  %1 = getelementptr inbounds nuw i8, ptr %self, i64 8
  %self.val15.i = load ptr, ptr %1, align 8, !alias.scope !565
; call <alloc::raw_vec::RawVecInner>::finish_grow
  call fastcc void @_RNvMs4_NtCsdJPVW0sQgAG_5alloc7raw_vecNtB5_11RawVecInner11finish_growCsfcjqfaF2v4X_11proc_macro2(ptr noalias noundef align 8 captures(none) dereferenceable(24) %self3.i, i64 %self1, ptr %self.val15.i, i64 noundef %0, i64 noundef 8, i64 noundef 32), !noalias !565
  %_35.i = load i64, ptr %self3.i, align 8, !range !266, !noalias !565, !noundef !8
  %2 = trunc nuw i64 %_35.i to i1
  %3 = getelementptr inbounds nuw i8, ptr %self3.i, i64 8
  br i1 %2, label %bb18.i, label %bb3

bb18.i:                                           ; preds = %start
  %e.0.i = load i64, ptr %3, align 8, !range !222, !noalias !565, !noundef !8
  %4 = getelementptr inbounds nuw i8, ptr %self3.i, i64 16
  %e.1.i = load i64, ptr %4, align 8, !noalias !565
  call void @llvm.lifetime.end.p0(i64 24, ptr nonnull %self3.i), !noalias !565
; call alloc::raw_vec::handle_error
  tail call void @_RNvNtCsdJPVW0sQgAG_5alloc7raw_vec12handle_error(i64 noundef %e.0.i, i64 %e.1.i) #35
  unreachable

bb3:                                              ; preds = %start
  %v.0.i = load ptr, ptr %3, align 8, !noalias !565, !nonnull !8, !noundef !8
  call void @llvm.lifetime.end.p0(i64 24, ptr nonnull %self3.i), !noalias !565
  store ptr %v.0.i, ptr %1, align 8, !alias.scope !565
  %5 = icmp sgt i64 %0, -1
  tail call void @llvm.assume(i1 %5)
  store i64 %0, ptr %self, align 8, !alias.scope !565
  ret void
}

; <alloc::raw_vec::RawVecInner>::finish_grow
; Function Attrs: cold nounwind uwtable
