; ModuleID = 'quote.15ecd39294d94c2a-cgu.0'
source_filename = "quote.15ecd39294d94c2a-cgu.0"
target datalayout = "e-m:o-p270:32:32-p271:32:32-p272:64:64-i64:64-i128:128-n32:64-S128-Fn32"
target triple = "arm64-apple-macosx11.0.0"

%"proc_macro2::TokenTree" = type { i32, [7 x i32] }
%"proc_macro::TokenTree" = type { [16 x i8], i8, [3 x i8] }
%"proc_macro::bridge::TokenTree<proc_macro::bridge::client::TokenStream, proc_macro::bridge::client::Span, proc_macro::bridge::symbol::Symbol>" = type { [16 x i8], i8, [3 x i8] }
%"core::mem::maybe_uninit::MaybeUninit<proc_macro2::TokenTree>" = type { [4 x i64] }
%"core::mem::maybe_uninit::MaybeUninit<proc_macro::TokenTree>" = type { [5 x i32] }

@vtable.0 = private unnamed_addr constant <{ [24 x i8], ptr }> <{ [24 x i8] c"\00\00\00\00\00\00\00\00\01\00\00\00\00\00\00\00\01\00\00\00\00\00\00\00", ptr @_RNvXsb_Cs8M6BBVNvC7a_11proc_macro2NtB5_8LexErrorNtNtCsjMrxcFdYDNN_4core3fmt5Debug3fmt }>, align 8
@vtable.1 = private unnamed_addr constant <{ [24 x i8], ptr }> <{ [24 x i8] c"\00\00\00\00\00\00\00\00\00\00\00\00\00\00\00\00\01\00\00\00\00\00\00\00", ptr @_RNvXsK_NtCsjMrxcFdYDNN_4core3fmtNtB5_5ErrorNtB5_5Debug3fmt }>, align 8
@alloc_972c6ba976e8ba9d5a48ee7ba5235094 = private unnamed_addr constant [112 x i8] c"/Users/hongyaotang/.rustup/toolchains/nightly-aarch64-apple-darwin/lib/rustlib/src/rust/library/alloc/src/rc.rs\00", align 1
@alloc_34ccc9a2f61247d7615f0501afc88ea6 = private unnamed_addr constant [20 x i8] c"invalid token stream", align 1
@alloc_5184e6b45a026d33d30ffa740e9bcdd5 = private unnamed_addr constant [100 x i8] c"/Users/hongyaotang/.cargo/registry/src/index.crates.io-1949cf8c6b5b557f/quote-1.0.42/src/runtime.rs\00", align 1
@alloc_c2b3f6463b0a8a8095dd8eea675c8d69 = private unnamed_addr constant <{ ptr, [16 x i8] }> <{ ptr @alloc_5184e6b45a026d33d30ffa740e9bcdd5, [16 x i8] c"c\00\00\00\00\00\00\00\1D\01\00\00$\00\00\00" }>, align 8
@alloc_bc590f7bbdf9d5cf9c9fc92d5b74ebb4 = private unnamed_addr constant <{ ptr, [16 x i8] }> <{ ptr @alloc_5184e6b45a026d33d30ffa740e9bcdd5, [16 x i8] c"c\00\00\00\00\00\00\00B\01\00\00\12\00\00\00" }>, align 8
@alloc_a215eae7f8dd0221659ca93936e57bd6 = private unnamed_addr constant <{ ptr, [16 x i8] }> <{ ptr @alloc_5184e6b45a026d33d30ffa740e9bcdd5, [16 x i8] c"c\00\00\00\00\00\00\00A\01\00\00$\00\00\00" }>, align 8
@alloc_26741d7be2999f870b5ef1ed52a52387 = private unnamed_addr constant [2 x i8] c"r#", align 1
@alloc_45cdb82e1f6d7e9f36108024db2c250f = private unnamed_addr constant <{ ptr, [16 x i8] }> <{ ptr @alloc_5184e6b45a026d33d30ffa740e9bcdd5, [16 x i8] c"c\00\00\00\00\00\00\00\C7\01\00\00\09\00\00\00" }>, align 8
@alloc_1ab7e69cb0be14b6daa10eaf0accb519 = private unnamed_addr constant <{ ptr, [16 x i8] }> <{ ptr @alloc_5184e6b45a026d33d30ffa740e9bcdd5, [16 x i8] c"c\00\00\00\00\00\00\00\C5\01\00\00\09\00\00\00" }>, align 8
@alloc_194591c686f9a063bbeab3b098b3fcb1 = private unnamed_addr constant <{ ptr, [16 x i8] }> <{ ptr @alloc_5184e6b45a026d33d30ffa740e9bcdd5, [16 x i8] c"c\00\00\00\00\00\00\00N\01\00\008\00\00\00" }>, align 8
@alloc_1c96afc0f227aaec172597eef4da1a54 = private unnamed_addr constant <{ ptr, [16 x i8] }> <{ ptr @alloc_5184e6b45a026d33d30ffa740e9bcdd5, [16 x i8] c"c\00\00\00\00\00\00\00N\01\00\00$\00\00\00" }>, align 8
@alloc_27cca3636828088e60ce450d2eca2060 = private unnamed_addr constant [1 x i8] c"_", align 1
@alloc_53c7a51dd4d2107fe69463bcafa37cb4 = private unnamed_addr constant <{ ptr, [16 x i8] }> <{ ptr @alloc_5184e6b45a026d33d30ffa740e9bcdd5, [16 x i8] c"c\00\00\00\00\00\00\00\B8\01\00\00\13\00\00\00" }>, align 8
@alloc_8177639792cada302c0caf96986c44a5 = private unnamed_addr constant <{ ptr, [16 x i8] }> <{ ptr @alloc_5184e6b45a026d33d30ffa740e9bcdd5, [16 x i8] c"c\00\00\00\00\00\00\00\17\01\00\00$\00\00\00" }>, align 8
@alloc_8707c2166604de2a48294c7fc96dc805 = private unnamed_addr constant <{ ptr, [16 x i8] }> <{ ptr @alloc_972c6ba976e8ba9d5a48ee7ba5235094, [16 x i8] c"o\00\00\00\00\00\00\00\9B\11\00\00\1F\00\00\00" }>, align 8
@vtable.2 = private unnamed_addr constant <{ ptr, [16 x i8], ptr, ptr, ptr }> <{ ptr @_RINvNtCsjMrxcFdYDNN_4core3ptr13drop_in_placeNtNtCsdJPVW0sQgAG_5alloc6string6StringECs1SHOYL7dTh6_5quote, [16 x i8] c"\18\00\00\00\00\00\00\00\08\00\00\00\00\00\00\00", ptr @_RNvXsZ_NtCsdJPVW0sQgAG_5alloc6stringNtB5_6StringNtNtCsjMrxcFdYDNN_4core3fmt5Write9write_str, ptr @_RNvXsZ_NtCsdJPVW0sQgAG_5alloc6stringNtB5_6StringNtNtCsjMrxcFdYDNN_4core3fmt5Write10write_char, ptr @_RNvYNtNtCsdJPVW0sQgAG_5alloc6string6StringNtNtCsjMrxcFdYDNN_4core3fmt5Write9write_fmtCs1SHOYL7dTh6_5quote }>, align 8
@alloc_cc656815297f75969399c3f4b1ad3de4 = private unnamed_addr constant [55 x i8] c"a Display implementation returned an error unexpectedly", align 1
@alloc_82687d2573a6ed8a4d1fcf733f159466 = private unnamed_addr constant [116 x i8] c"/Users/hongyaotang/.rustup/toolchains/nightly-aarch64-apple-darwin/lib/rustlib/src/rust/library/alloc/src/string.rs\00", align 1
@alloc_f3c70bf9d2724ff8f638341943ddf3c8 = private unnamed_addr constant <{ ptr, [16 x i8] }> <{ ptr @alloc_82687d2573a6ed8a4d1fcf733f159466, [16 x i8] c"s\00\00\00\00\00\00\00f\0B\00\00\0E\00\00\00" }>, align 8
@alloc_99ac8a81a24cac863217ce4a5cbfabea = private unnamed_addr constant [5 x i8] c"Error", align 1
@alloc_6f4357e3a3c9006d5d6d935934a9de54 = private unnamed_addr constant [5 x i8] c"false", align 1
@alloc_c9ee9951a160df092319190fa06505e4 = private unnamed_addr constant [4 x i8] c"true", align 1
@alloc_b83fa9c5a29b84f2261c4cb83b2825fb = private unnamed_addr constant [102 x i8] c"/Users/hongyaotang/.cargo/registry/src/index.crates.io-1949cf8c6b5b557f/quote-1.0.42/src/to_tokens.rs\00", align 1
@alloc_e1fe06b9b3e627577c940ae5d8dbadd4 = private unnamed_addr constant <{ ptr, [16 x i8] }> <{ ptr @alloc_b83fa9c5a29b84f2261c4cb83b2825fb, [16 x i8] c"e\00\00\00\00\00\00\00\D9\00\00\00\17\00\00\00" }>, align 8

; core::ptr::drop_in_place::<proc_macro2::rcvec::RcVecIntoIter<proc_macro2::TokenTree>>
; Function Attrs: uwtable
define internal fastcc void @_RINvNtCsjMrxcFdYDNN_4core3ptr13drop_in_placeINtNtCs8M6BBVNvC7a_11proc_macro25rcvec13RcVecIntoIterNtBL_9TokenTreeEECs1SHOYL7dTh6_5quote(ptr noalias noundef nonnull readonly align 8 captures(none) dereferenceable(32) %_1) unnamed_addr #0 personality ptr @rust_eh_personality {
start:
  tail call void @llvm.experimental.noalias.scope.decl(metadata !2)
  tail call void @llvm.experimental.noalias.scope.decl(metadata !5)
  %0 = getelementptr inbounds nuw i8, ptr %_1, i64 8
  %self.val.i.i = load ptr, ptr %0, align 8, !alias.scope !8, !nonnull !9, !noundef !9
  %1 = getelementptr inbounds nuw i8, ptr %_1, i64 24
  %self.val1.i.i = load ptr, ptr %1, align 8, !alias.scope !8, !nonnull !9, !noundef !9
  %2 = ptrtoint ptr %self.val1.i.i to i64
  %3 = ptrtoint ptr %self.val.i.i to i64
  %4 = sub nuw i64 %2, %3
  %5 = lshr exact i64 %4, 5
  br label %bb6.i.i.i

cleanup.body.i.i:                                 ; preds = %bb4.i.i.i
  %6 = getelementptr inbounds nuw i8, ptr %_1, i64 16
  %capacity1.i.i.i.i = load i64, ptr %6, align 8, !alias.scope !8, !noundef !9
  %7 = icmp eq i64 %capacity1.i.i.i.i, 0
  br i1 %7, label %bb5.i.i, label %bb2.i.i.i.i.i.i.i

bb2.i.i.i.i.i.i.i:                                ; preds = %cleanup.body.i.i
  %ptr.i.i.i.i = load ptr, ptr %_1, align 8, !alias.scope !8, !nonnull !9, !noundef !9
  %alloc_size.i.i.i.i.i.i.i.i = shl nuw i64 %capacity1.i.i.i.i, 5
; call __rustc::__rust_dealloc
  tail call void @_RNvCsKhRCbHf33p_7___rustc14___rust_dealloc(ptr noundef nonnull %ptr.i.i.i.i, i64 noundef %alloc_size.i.i.i.i.i.i.i.i, i64 noundef range(i64 1, -9223372036854775807) 8) #21, !noalias !8
  br label %bb5.i.i

bb6.i.i.i:                                        ; preds = %bb5.i.i.i, %start
  %_3.sroa.0.0.i.i.i = phi i64 [ 0, %start ], [ %8, %bb5.i.i.i ]
  %_7.i.i.i = icmp eq i64 %_3.sroa.0.0.i.i.i, %5
  br i1 %_7.i.i.i, label %bb2.i.i, label %bb5.i.i.i

bb5.i.i.i:                                        ; preds = %bb6.i.i.i
  %_6.i.i.i = getelementptr inbounds nuw %"proc_macro2::TokenTree", ptr %self.val.i.i, i64 %_3.sroa.0.0.i.i.i
  %8 = add nuw nsw i64 %_3.sroa.0.0.i.i.i, 1
; invoke core::ptr::drop_in_place::<proc_macro2::TokenTree>
  invoke fastcc void @_RINvNtCsjMrxcFdYDNN_4core3ptr13drop_in_placeNtCs8M6BBVNvC7a_11proc_macro29TokenTreeECs1SHOYL7dTh6_5quote(ptr noalias noundef align 8 dereferenceable(32) %_6.i.i.i)
          to label %bb6.i.i.i unwind label %cleanup.i.i.i, !noalias !8

bb4.i.i.i:                                        ; preds = %bb3.i.i.i, %cleanup.i.i.i
  %_3.sroa.0.1.i.i.i = phi i64 [ %8, %cleanup.i.i.i ], [ %10, %bb3.i.i.i ]
  %_5.i.i.i = icmp eq i64 %_3.sroa.0.1.i.i.i, %5
  br i1 %_5.i.i.i, label %cleanup.body.i.i, label %bb3.i.i.i

cleanup.i.i.i:                                    ; preds = %bb5.i.i.i
  %9 = landingpad { ptr, i32 }
          cleanup
  br label %bb4.i.i.i

bb3.i.i.i:                                        ; preds = %bb4.i.i.i
  %_4.i.i.i = getelementptr inbounds nuw %"proc_macro2::TokenTree", ptr %self.val.i.i, i64 %_3.sroa.0.1.i.i.i
  %10 = add i64 %_3.sroa.0.1.i.i.i, 1
; invoke core::ptr::drop_in_place::<proc_macro2::TokenTree>
  invoke fastcc void @_RINvNtCsjMrxcFdYDNN_4core3ptr13drop_in_placeNtCs8M6BBVNvC7a_11proc_macro29TokenTreeECs1SHOYL7dTh6_5quote(ptr noalias noundef align 8 dereferenceable(32) %_4.i.i.i) #22
          to label %bb4.i.i.i unwind label %terminate.i.i.i, !noalias !8

terminate.i.i.i:                                  ; preds = %bb3.i.i.i
  %11 = landingpad { ptr, i32 }
          filter [0 x ptr] zeroinitializer
; call core::panicking::panic_in_cleanup
  tail call void @_RNvNtCsjMrxcFdYDNN_4core9panicking16panic_in_cleanup() #23, !noalias !8
  unreachable

bb2.i.i:                                          ; preds = %bb6.i.i.i
  %12 = getelementptr inbounds nuw i8, ptr %_1, i64 16
  %capacity1.i.i3.i.i = load i64, ptr %12, align 8, !alias.scope !8, !noundef !9
  %13 = icmp eq i64 %capacity1.i.i3.i.i, 0
  br i1 %13, label %_RINvNtCsjMrxcFdYDNN_4core3ptr13drop_in_placeINtNtNtCsdJPVW0sQgAG_5alloc3vec9into_iter8IntoIterNtCs8M6BBVNvC7a_11proc_macro29TokenTreeEECs1SHOYL7dTh6_5quote.exit, label %bb2.i.i.i.i.i4.i.i

bb2.i.i.i.i.i4.i.i:                               ; preds = %bb2.i.i
  %ptr.i.i5.i.i = load ptr, ptr %_1, align 8, !alias.scope !8, !nonnull !9, !noundef !9
  %alloc_size.i.i.i.i.i.i6.i.i = shl nuw i64 %capacity1.i.i3.i.i, 5
; call __rustc::__rust_dealloc
  tail call void @_RNvCsKhRCbHf33p_7___rustc14___rust_dealloc(ptr noundef nonnull %ptr.i.i5.i.i, i64 noundef %alloc_size.i.i.i.i.i.i6.i.i, i64 noundef range(i64 1, -9223372036854775807) 8) #21, !noalias !8
  br label %_RINvNtCsjMrxcFdYDNN_4core3ptr13drop_in_placeINtNtNtCsdJPVW0sQgAG_5alloc3vec9into_iter8IntoIterNtCs8M6BBVNvC7a_11proc_macro29TokenTreeEECs1SHOYL7dTh6_5quote.exit

bb5.i.i:                                          ; preds = %bb2.i.i.i.i.i.i.i, %cleanup.body.i.i
  resume { ptr, i32 } %9

_RINvNtCsjMrxcFdYDNN_4core3ptr13drop_in_placeINtNtNtCsdJPVW0sQgAG_5alloc3vec9into_iter8IntoIterNtCs8M6BBVNvC7a_11proc_macro29TokenTreeEECs1SHOYL7dTh6_5quote.exit: ; preds = %bb2.i.i, %bb2.i.i.i.i.i4.i.i
  ret void
}

; core::ptr::drop_in_place::<alloc::rc::UniqueRcUninit<alloc::vec::Vec<proc_macro2::TokenTree>, alloc::alloc::Global>>
; Function Attrs: uwtable
define internal fastcc void @_RINvNtCsjMrxcFdYDNN_4core3ptr13drop_in_placeINtNtCsdJPVW0sQgAG_5alloc2rc14UniqueRcUninitINtNtBL_3vec3VecNtCs8M6BBVNvC7a_11proc_macro29TokenTreeENtNtBL_5alloc6GlobalEECs1SHOYL7dTh6_5quote(ptr noalias noundef nonnull align 8 captures(none) dereferenceable(32) %_1) unnamed_addr #0 personality ptr @rust_eh_personality {
start:
  tail call void @llvm.experimental.noalias.scope.decl(metadata !10)
  %0 = getelementptr inbounds nuw i8, ptr %_1, i64 24
  %1 = load i8, ptr %0, align 8, !range !13, !alias.scope !10, !noundef !9
  %2 = trunc nuw i8 %1 to i1
  store i8 0, ptr %0, align 8, !alias.scope !10
  br i1 %2, label %bb8.i, label %bb7.i, !prof !14

bb8.i:                                            ; preds = %start
  %3 = getelementptr inbounds nuw i8, ptr %_1, i64 16
  %self2.i = load ptr, ptr %3, align 8, !alias.scope !10, !nonnull !9, !noundef !9
  %_10.0.i = load i64, ptr %_1, align 8, !range !15, !alias.scope !10, !noundef !9
  %4 = getelementptr inbounds nuw i8, ptr %_1, i64 8
  %_10.1.i = load i64, ptr %4, align 8, !alias.scope !10, !noundef !9
; call alloc::rc::rc_inner_layout_for_value_layout
  %5 = tail call { i64, i64 } @_RNvNtCsdJPVW0sQgAG_5alloc2rc32rc_inner_layout_for_value_layout(i64 noundef %_10.0.i, i64 noundef %_10.1.i), !noalias !10
  %_9.1.i = extractvalue { i64, i64 } %5, 1
  %6 = icmp eq i64 %_9.1.i, 0
  br i1 %6, label %_RNvXs1O_NtCsdJPVW0sQgAG_5alloc2rcINtB6_14UniqueRcUninitINtNtB8_3vec3VecNtCs8M6BBVNvC7a_11proc_macro29TokenTreeENtNtB8_5alloc6GlobalENtNtNtCsjMrxcFdYDNN_4core3ops4drop4Drop4dropCs1SHOYL7dTh6_5quote.exit, label %bb1.i.i

bb1.i.i:                                          ; preds = %bb8.i
  %_9.0.i = extractvalue { i64, i64 } %5, 0
; call __rustc::__rust_dealloc
  tail call void @_RNvCsKhRCbHf33p_7___rustc14___rust_dealloc(ptr noundef nonnull %self2.i, i64 noundef %_9.1.i, i64 noundef range(i64 1, -9223372036854775807) %_9.0.i) #21, !noalias !10
  br label %_RNvXs1O_NtCsdJPVW0sQgAG_5alloc2rcINtB6_14UniqueRcUninitINtNtB8_3vec3VecNtCs8M6BBVNvC7a_11proc_macro29TokenTreeENtNtB8_5alloc6GlobalENtNtNtCsjMrxcFdYDNN_4core3ops4drop4Drop4dropCs1SHOYL7dTh6_5quote.exit

bb7.i:                                            ; preds = %start
; call core::option::unwrap_failed
  tail call void @_RNvNtCsjMrxcFdYDNN_4core6option13unwrap_failed(ptr noalias noundef readonly align 8 captures(address, read_provenance) dereferenceable(24) @alloc_8707c2166604de2a48294c7fc96dc805) #24, !noalias !10
  unreachable

_RNvXs1O_NtCsdJPVW0sQgAG_5alloc2rcINtB6_14UniqueRcUninitINtNtB8_3vec3VecNtCs8M6BBVNvC7a_11proc_macro29TokenTreeENtNtB8_5alloc6GlobalENtNtNtCsjMrxcFdYDNN_4core3ops4drop4Drop4dropCs1SHOYL7dTh6_5quote.exit: ; preds = %bb8.i, %bb1.i.i
  ret void
}

; core::ptr::drop_in_place::<alloc::vec::Vec<proc_macro2::TokenTree>>
; Function Attrs: uwtable
define internal fastcc void @_RINvNtCsjMrxcFdYDNN_4core3ptr13drop_in_placeINtNtCsdJPVW0sQgAG_5alloc3vec3VecNtCs8M6BBVNvC7a_11proc_macro29TokenTreeEECs1SHOYL7dTh6_5quote(ptr noalias noundef nonnull readonly align 8 captures(none) dereferenceable(24) %_1) unnamed_addr #0 personality ptr @rust_eh_personality {
start:
  %0 = getelementptr inbounds nuw i8, ptr %_1, i64 8
  %_1.val4 = load ptr, ptr %0, align 8, !nonnull !9, !noundef !9
  %1 = getelementptr inbounds nuw i8, ptr %_1, i64 16
  %_1.val5 = load i64, ptr %1, align 8, !noundef !9
  br label %bb6.i.i

bb6.i.i:                                          ; preds = %bb5.i.i, %start
  %_3.sroa.0.0.i.i = phi i64 [ 0, %start ], [ %2, %bb5.i.i ]
  %_7.i.i = icmp eq i64 %_3.sroa.0.0.i.i, %_1.val5
  br i1 %_7.i.i, label %bb4, label %bb5.i.i

bb5.i.i:                                          ; preds = %bb6.i.i
  %_6.i.i = getelementptr inbounds nuw %"proc_macro2::TokenTree", ptr %_1.val4, i64 %_3.sroa.0.0.i.i
  %2 = add i64 %_3.sroa.0.0.i.i, 1
; invoke core::ptr::drop_in_place::<proc_macro2::TokenTree>
  invoke fastcc void @_RINvNtCsjMrxcFdYDNN_4core3ptr13drop_in_placeNtCs8M6BBVNvC7a_11proc_macro29TokenTreeECs1SHOYL7dTh6_5quote(ptr noalias noundef align 8 dereferenceable(32) %_6.i.i)
          to label %bb6.i.i unwind label %cleanup.i.i

bb4.i.i:                                          ; preds = %bb3.i.i, %cleanup.i.i
  %_3.sroa.0.1.i.i = phi i64 [ %2, %cleanup.i.i ], [ %4, %bb3.i.i ]
  %_5.i.i = icmp eq i64 %_3.sroa.0.1.i.i, %_1.val5
  br i1 %_5.i.i, label %cleanup.body, label %bb3.i.i

cleanup.i.i:                                      ; preds = %bb5.i.i
  %3 = landingpad { ptr, i32 }
          cleanup
  br label %bb4.i.i

bb3.i.i:                                          ; preds = %bb4.i.i
  %_4.i.i = getelementptr inbounds nuw %"proc_macro2::TokenTree", ptr %_1.val4, i64 %_3.sroa.0.1.i.i
  %4 = add i64 %_3.sroa.0.1.i.i, 1
; invoke core::ptr::drop_in_place::<proc_macro2::TokenTree>
  invoke fastcc void @_RINvNtCsjMrxcFdYDNN_4core3ptr13drop_in_placeNtCs8M6BBVNvC7a_11proc_macro29TokenTreeECs1SHOYL7dTh6_5quote(ptr noalias noundef align 8 dereferenceable(32) %_4.i.i) #22
          to label %bb4.i.i unwind label %terminate.i.i

terminate.i.i:                                    ; preds = %bb3.i.i
  %5 = landingpad { ptr, i32 }
          filter [0 x ptr] zeroinitializer
; call core::panicking::panic_in_cleanup
  tail call void @_RNvNtCsjMrxcFdYDNN_4core9panicking16panic_in_cleanup() #23
  unreachable

cleanup.body:                                     ; preds = %bb4.i.i
  %_1.val = load i64, ptr %_1, align 8, !range !16, !noundef !9
  %6 = icmp eq i64 %_1.val, 0
  br i1 %6, label %bb1, label %bb2.i.i.i

bb2.i.i.i:                                        ; preds = %cleanup.body
  %alloc_size.i.i.i.i = shl nuw i64 %_1.val, 5
; call __rustc::__rust_dealloc
  tail call void @_RNvCsKhRCbHf33p_7___rustc14___rust_dealloc(ptr noundef nonnull %_1.val4, i64 noundef %alloc_size.i.i.i.i, i64 noundef range(i64 1, -9223372036854775807) 8) #21
  br label %bb1

bb4:                                              ; preds = %bb6.i.i
  %_1.val2 = load i64, ptr %_1, align 8, !range !16, !noundef !9
  %7 = icmp eq i64 %_1.val2, 0
  br i1 %7, label %_RINvNtCsjMrxcFdYDNN_4core3ptr13drop_in_placeINtNtCsdJPVW0sQgAG_5alloc7raw_vec6RawVecNtCs8M6BBVNvC7a_11proc_macro29TokenTreeEECs1SHOYL7dTh6_5quote.exit8, label %bb2.i.i.i6

bb2.i.i.i6:                                       ; preds = %bb4
  %alloc_size.i.i.i.i7 = shl nuw i64 %_1.val2, 5
; call __rustc::__rust_dealloc
  tail call void @_RNvCsKhRCbHf33p_7___rustc14___rust_dealloc(ptr noundef nonnull %_1.val4, i64 noundef %alloc_size.i.i.i.i7, i64 noundef range(i64 1, -9223372036854775807) 8) #21
  br label %_RINvNtCsjMrxcFdYDNN_4core3ptr13drop_in_placeINtNtCsdJPVW0sQgAG_5alloc7raw_vec6RawVecNtCs8M6BBVNvC7a_11proc_macro29TokenTreeEECs1SHOYL7dTh6_5quote.exit8

_RINvNtCsjMrxcFdYDNN_4core3ptr13drop_in_placeINtNtCsdJPVW0sQgAG_5alloc7raw_vec6RawVecNtCs8M6BBVNvC7a_11proc_macro29TokenTreeEECs1SHOYL7dTh6_5quote.exit8: ; preds = %bb4, %bb2.i.i.i6
  ret void

bb1:                                              ; preds = %bb2.i.i.i, %cleanup.body
  resume { ptr, i32 } %3
}

; core::ptr::drop_in_place::<alloc::vec::Vec<proc_macro::TokenTree>>
; Function Attrs: uwtable
define internal fastcc void @_RINvNtCsjMrxcFdYDNN_4core3ptr13drop_in_placeINtNtCsdJPVW0sQgAG_5alloc3vec3VecNtCsbtZo8rQoR5w_10proc_macro9TokenTreeEECs1SHOYL7dTh6_5quote(ptr noalias noundef nonnull readonly align 8 captures(none) dereferenceable(24) %_1) unnamed_addr #0 personality ptr @rust_eh_personality {
start:
  %0 = getelementptr inbounds nuw i8, ptr %_1, i64 8
  %_1.val = load ptr, ptr %0, align 8, !nonnull !9, !noundef !9
  %1 = getelementptr inbounds nuw i8, ptr %_1, i64 16
  %_1.val1 = load i64, ptr %1, align 8, !noundef !9
  %_710.i.i = icmp eq i64 %_1.val1, 0
  br i1 %_710.i.i, label %bb4, label %bb5.i.i

bb5.i.i:                                          ; preds = %start, %_RINvNtCsjMrxcFdYDNN_4core3ptr13drop_in_placeNtCsbtZo8rQoR5w_10proc_macro9TokenTreeECs1SHOYL7dTh6_5quote.exit.i.i
  %_3.sroa.0.011.i.i = phi i64 [ %2, %_RINvNtCsjMrxcFdYDNN_4core3ptr13drop_in_placeNtCsbtZo8rQoR5w_10proc_macro9TokenTreeECs1SHOYL7dTh6_5quote.exit.i.i ], [ 0, %start ]
  %_6.i.i = getelementptr inbounds nuw %"proc_macro::TokenTree", ptr %_1.val, i64 %_3.sroa.0.011.i.i
  %2 = add nuw i64 %_3.sroa.0.011.i.i, 1
  %3 = getelementptr inbounds nuw i8, ptr %_6.i.i, i64 16
  %4 = load i8, ptr %3, align 4, !range !17, !alias.scope !18, !noundef !9
  %5 = icmp samesign ult i8 %4, 4
  br i1 %5, label %bb2.i.i.i, label %_RINvNtCsjMrxcFdYDNN_4core3ptr13drop_in_placeNtCsbtZo8rQoR5w_10proc_macro9TokenTreeECs1SHOYL7dTh6_5quote.exit.i.i

bb2.i.i.i:                                        ; preds = %bb5.i.i
  %6 = getelementptr inbounds nuw i8, ptr %_6.i.i, i64 12
  %7 = load i32, ptr %6, align 4, !alias.scope !23, !noundef !9
  %8 = icmp eq i32 %7, 0
  br i1 %8, label %_RINvNtCsjMrxcFdYDNN_4core3ptr13drop_in_placeNtCsbtZo8rQoR5w_10proc_macro9TokenTreeECs1SHOYL7dTh6_5quote.exit.i.i, label %bb2.i.i.i.i.i.i

bb2.i.i.i.i.i.i:                                  ; preds = %bb2.i.i.i
; invoke <proc_macro::bridge::client::TokenStream as core::ops::drop::Drop>::drop
  invoke void @_RNvXsi_NtNtCsbtZo8rQoR5w_10proc_macro6bridge6clientNtB5_11TokenStreamNtNtNtCsjMrxcFdYDNN_4core3ops4drop4Drop4drop(ptr noalias noundef nonnull align 4 dereferenceable(4) %6)
          to label %_RINvNtCsjMrxcFdYDNN_4core3ptr13drop_in_placeNtCsbtZo8rQoR5w_10proc_macro9TokenTreeECs1SHOYL7dTh6_5quote.exit.i.i unwind label %cleanup.i.i

_RINvNtCsjMrxcFdYDNN_4core3ptr13drop_in_placeNtCsbtZo8rQoR5w_10proc_macro9TokenTreeECs1SHOYL7dTh6_5quote.exit.i.i: ; preds = %bb2.i.i.i.i.i.i, %bb2.i.i.i, %bb5.i.i
  %_7.i.i = icmp eq i64 %2, %_1.val1
  br i1 %_7.i.i, label %bb4, label %bb5.i.i

cleanup.i.i:                                      ; preds = %bb2.i.i.i.i.i.i
  %9 = landingpad { ptr, i32 }
          cleanup
  %_512.i.i = icmp eq i64 %2, %_1.val1
  br i1 %_512.i.i, label %cleanup.body, label %bb3.i.i

bb3.i.i:                                          ; preds = %cleanup.i.i, %_RINvNtCsjMrxcFdYDNN_4core3ptr13drop_in_placeNtCsbtZo8rQoR5w_10proc_macro9TokenTreeECs1SHOYL7dTh6_5quote.exit9.i.i
  %_3.sroa.0.113.i.i = phi i64 [ %10, %_RINvNtCsjMrxcFdYDNN_4core3ptr13drop_in_placeNtCsbtZo8rQoR5w_10proc_macro9TokenTreeECs1SHOYL7dTh6_5quote.exit9.i.i ], [ %2, %cleanup.i.i ]
  %_4.i.i = getelementptr inbounds nuw %"proc_macro::TokenTree", ptr %_1.val, i64 %_3.sroa.0.113.i.i
  %10 = add i64 %_3.sroa.0.113.i.i, 1
  %11 = getelementptr inbounds nuw i8, ptr %_4.i.i, i64 16
  %12 = load i8, ptr %11, align 4, !range !17, !alias.scope !30, !noundef !9
  %13 = icmp samesign ult i8 %12, 4
  br i1 %13, label %bb2.i6.i.i, label %_RINvNtCsjMrxcFdYDNN_4core3ptr13drop_in_placeNtCsbtZo8rQoR5w_10proc_macro9TokenTreeECs1SHOYL7dTh6_5quote.exit9.i.i

bb2.i6.i.i:                                       ; preds = %bb3.i.i
  %14 = getelementptr inbounds nuw i8, ptr %_4.i.i, i64 12
  %15 = load i32, ptr %14, align 4, !alias.scope !33, !noundef !9
  %16 = icmp eq i32 %15, 0
  br i1 %16, label %_RINvNtCsjMrxcFdYDNN_4core3ptr13drop_in_placeNtCsbtZo8rQoR5w_10proc_macro9TokenTreeECs1SHOYL7dTh6_5quote.exit9.i.i, label %bb2.i.i.i.i7.i.i

bb2.i.i.i.i7.i.i:                                 ; preds = %bb2.i6.i.i
; invoke <proc_macro::bridge::client::TokenStream as core::ops::drop::Drop>::drop
  invoke void @_RNvXsi_NtNtCsbtZo8rQoR5w_10proc_macro6bridge6clientNtB5_11TokenStreamNtNtNtCsjMrxcFdYDNN_4core3ops4drop4Drop4drop(ptr noalias noundef nonnull align 4 dereferenceable(4) %14)
          to label %_RINvNtCsjMrxcFdYDNN_4core3ptr13drop_in_placeNtCsbtZo8rQoR5w_10proc_macro9TokenTreeECs1SHOYL7dTh6_5quote.exit9.i.i unwind label %terminate.i.i

_RINvNtCsjMrxcFdYDNN_4core3ptr13drop_in_placeNtCsbtZo8rQoR5w_10proc_macro9TokenTreeECs1SHOYL7dTh6_5quote.exit9.i.i: ; preds = %bb2.i.i.i.i7.i.i, %bb2.i6.i.i, %bb3.i.i
  %_5.i.i = icmp eq i64 %10, %_1.val1
  br i1 %_5.i.i, label %cleanup.body, label %bb3.i.i

terminate.i.i:                                    ; preds = %bb2.i.i.i.i7.i.i
  %17 = landingpad { ptr, i32 }
          filter [0 x ptr] zeroinitializer
; call core::panicking::panic_in_cleanup
  tail call void @_RNvNtCsjMrxcFdYDNN_4core9panicking16panic_in_cleanup() #23
  unreachable

cleanup.body:                                     ; preds = %_RINvNtCsjMrxcFdYDNN_4core3ptr13drop_in_placeNtCsbtZo8rQoR5w_10proc_macro9TokenTreeECs1SHOYL7dTh6_5quote.exit9.i.i, %cleanup.i.i
  %_1.val2 = load i64, ptr %_1, align 8, !range !16, !noundef !9
  %18 = icmp eq i64 %_1.val2, 0
  br i1 %18, label %bb1, label %bb2.i.i.i6

bb2.i.i.i6:                                       ; preds = %cleanup.body
  %alloc_size.i.i.i.i = mul nuw i64 %_1.val2, 20
; call __rustc::__rust_dealloc
  tail call void @_RNvCsKhRCbHf33p_7___rustc14___rust_dealloc(ptr noundef nonnull %_1.val, i64 noundef %alloc_size.i.i.i.i, i64 noundef range(i64 1, -9223372036854775807) 4) #21
  br label %bb1

bb4:                                              ; preds = %_RINvNtCsjMrxcFdYDNN_4core3ptr13drop_in_placeNtCsbtZo8rQoR5w_10proc_macro9TokenTreeECs1SHOYL7dTh6_5quote.exit.i.i, %start
  %_1.val4 = load i64, ptr %_1, align 8, !range !16, !noundef !9
  %19 = icmp eq i64 %_1.val4, 0
  br i1 %19, label %_RINvNtCsjMrxcFdYDNN_4core3ptr13drop_in_placeINtNtCsdJPVW0sQgAG_5alloc7raw_vec6RawVecNtCsbtZo8rQoR5w_10proc_macro9TokenTreeEECs1SHOYL7dTh6_5quote.exit9, label %bb2.i.i.i7

bb2.i.i.i7:                                       ; preds = %bb4
  %alloc_size.i.i.i.i8 = mul nuw i64 %_1.val4, 20
; call __rustc::__rust_dealloc
  tail call void @_RNvCsKhRCbHf33p_7___rustc14___rust_dealloc(ptr noundef nonnull %_1.val, i64 noundef %alloc_size.i.i.i.i8, i64 noundef range(i64 1, -9223372036854775807) 4) #21
  br label %_RINvNtCsjMrxcFdYDNN_4core3ptr13drop_in_placeINtNtCsdJPVW0sQgAG_5alloc7raw_vec6RawVecNtCsbtZo8rQoR5w_10proc_macro9TokenTreeEECs1SHOYL7dTh6_5quote.exit9

_RINvNtCsjMrxcFdYDNN_4core3ptr13drop_in_placeINtNtCsdJPVW0sQgAG_5alloc7raw_vec6RawVecNtCsbtZo8rQoR5w_10proc_macro9TokenTreeEECs1SHOYL7dTh6_5quote.exit9: ; preds = %bb4, %bb2.i.i.i7
  ret void

bb1:                                              ; preds = %bb2.i.i.i6, %cleanup.body
  resume { ptr, i32 } %9
}

; core::ptr::drop_in_place::<core::iter::adapters::flatten::Flatten<core::iter::adapters::map::Map<core::iter::adapters::map::Map<core::iter::sources::once::Once<proc_macro2::TokenStream>, <proc_macro2::TokenStream as core::iter::traits::collect::Extend<proc_macro2::TokenStream>>::extend<core::iter::sources::once::Once<proc_macro2::TokenStream>>::{closure#0}>, <proc_macro2::imp::TokenStream>::unwrap_stable>>>
; Function Attrs: uwtable
define internal fastcc void @_RINvNtCsjMrxcFdYDNN_4core3ptr13drop_in_placeINtNtNtNtB4_4iter8adapters7flatten7FlattenINtNtBL_3map3MapIB1n_INtNtNtBN_7sources4once4OnceNtCs8M6BBVNvC7a_11proc_macro211TokenStreamENCINvXs5_B2b_B29_INtNtNtBN_6traits7collect6ExtendB29_E6extendB1H_E0ENvMs_NtB2b_3impNtB41_11TokenStream13unwrap_stableEEECs1SHOYL7dTh6_5quote(ptr noalias noundef nonnull align 8 dereferenceable(96) %_1) unnamed_addr #0 personality ptr @rust_eh_personality {
start:
  %0 = load i64, ptr %_1, align 8, !range !40, !alias.scope !41, !noundef !9
  %.off.i.i.i = add i64 %0, 9223372036854775807
  %switch.i.i.i = icmp ult i64 %.off.i.i.i, 2
  br i1 %switch.i.i.i, label %bb6.i, label %bb2.i.i.i.i.i.i.i.i.i

bb2.i.i.i.i.i.i.i.i.i:                            ; preds = %start
; invoke core::ptr::drop_in_place::<proc_macro2::TokenStream>
  invoke fastcc void @_RINvNtCsjMrxcFdYDNN_4core3ptr13drop_in_placeNtCs8M6BBVNvC7a_11proc_macro211TokenStreamECs1SHOYL7dTh6_5quote(ptr noalias noundef nonnull align 8 dereferenceable(96) %_1)
          to label %bb6.i unwind label %cleanup.i

cleanup.i:                                        ; preds = %bb2.i.i.i.i.i.i.i.i.i
  %1 = landingpad { ptr, i32 }
          cleanup
  %2 = getelementptr inbounds nuw i8, ptr %_1, i64 32
  %3 = load ptr, ptr %2, align 8, !alias.scope !48, !noundef !9
  %4 = icmp eq ptr %3, null
  br i1 %4, label %bb3.i, label %bb2.i.i

bb2.i.i:                                          ; preds = %cleanup.i
; invoke core::ptr::drop_in_place::<proc_macro2::rcvec::RcVecIntoIter<proc_macro2::TokenTree>>
  invoke fastcc void @_RINvNtCsjMrxcFdYDNN_4core3ptr13drop_in_placeINtNtCs8M6BBVNvC7a_11proc_macro25rcvec13RcVecIntoIterNtBL_9TokenTreeEECs1SHOYL7dTh6_5quote(ptr noalias noundef nonnull readonly align 8 dereferenceable(32) %2)
          to label %bb3.i unwind label %terminate.i

bb6.i:                                            ; preds = %bb2.i.i.i.i.i.i.i.i.i, %start
  %5 = getelementptr inbounds nuw i8, ptr %_1, i64 32
  %6 = load ptr, ptr %5, align 8, !alias.scope !51, !noundef !9
  %7 = icmp eq ptr %6, null
  br i1 %7, label %bb5.i, label %bb2.i4.i

bb2.i4.i:                                         ; preds = %bb6.i
; invoke core::ptr::drop_in_place::<proc_macro2::rcvec::RcVecIntoIter<proc_macro2::TokenTree>>
  invoke fastcc void @_RINvNtCsjMrxcFdYDNN_4core3ptr13drop_in_placeINtNtCs8M6BBVNvC7a_11proc_macro25rcvec13RcVecIntoIterNtBL_9TokenTreeEECs1SHOYL7dTh6_5quote(ptr noalias noundef nonnull readonly align 8 dereferenceable(32) %5)
          to label %bb5.i unwind label %cleanup1.i

bb3.i:                                            ; preds = %cleanup1.i, %bb2.i.i, %cleanup.i
  %.pn.i = phi { ptr, i32 } [ %11, %cleanup1.i ], [ %1, %bb2.i.i ], [ %1, %cleanup.i ]
  %8 = getelementptr inbounds nuw i8, ptr %_1, i64 64
  %9 = load ptr, ptr %8, align 8, !alias.scope !54, !noundef !9
  %10 = icmp eq ptr %9, null
  br i1 %10, label %bb1.i, label %bb2.i7.i

bb2.i7.i:                                         ; preds = %bb3.i
; invoke core::ptr::drop_in_place::<proc_macro2::rcvec::RcVecIntoIter<proc_macro2::TokenTree>>
  invoke fastcc void @_RINvNtCsjMrxcFdYDNN_4core3ptr13drop_in_placeINtNtCs8M6BBVNvC7a_11proc_macro25rcvec13RcVecIntoIterNtBL_9TokenTreeEECs1SHOYL7dTh6_5quote(ptr noalias noundef nonnull readonly align 8 dereferenceable(32) %8)
          to label %bb1.i unwind label %terminate.i

cleanup1.i:                                       ; preds = %bb2.i4.i
  %11 = landingpad { ptr, i32 }
          cleanup
  br label %bb3.i

bb5.i:                                            ; preds = %bb2.i4.i, %bb6.i
  %12 = getelementptr inbounds nuw i8, ptr %_1, i64 64
  %13 = load ptr, ptr %12, align 8, !alias.scope !57, !noundef !9
  %14 = icmp eq ptr %13, null
  br i1 %14, label %_RINvNtCsjMrxcFdYDNN_4core3ptr13drop_in_placeINtNtNtNtB4_4iter8adapters7flatten13FlattenCompatINtNtBL_3map3MapIB1u_INtNtNtBN_7sources4once4OnceNtCs8M6BBVNvC7a_11proc_macro211TokenStreamENCINvXs5_B2i_B2g_INtNtNtBN_6traits7collect6ExtendB2g_E6extendB1O_E0ENvMs_NtB2i_3impNtB48_11TokenStream13unwrap_stableEINtNtB2i_5rcvec13RcVecIntoIterNtB2i_9TokenTreeEEECs1SHOYL7dTh6_5quote.exit, label %bb2.i10.i

bb2.i10.i:                                        ; preds = %bb5.i
; call core::ptr::drop_in_place::<proc_macro2::rcvec::RcVecIntoIter<proc_macro2::TokenTree>>
  tail call fastcc void @_RINvNtCsjMrxcFdYDNN_4core3ptr13drop_in_placeINtNtCs8M6BBVNvC7a_11proc_macro25rcvec13RcVecIntoIterNtBL_9TokenTreeEECs1SHOYL7dTh6_5quote(ptr noalias noundef nonnull readonly align 8 dereferenceable(32) %12)
  br label %_RINvNtCsjMrxcFdYDNN_4core3ptr13drop_in_placeINtNtNtNtB4_4iter8adapters7flatten13FlattenCompatINtNtBL_3map3MapIB1u_INtNtNtBN_7sources4once4OnceNtCs8M6BBVNvC7a_11proc_macro211TokenStreamENCINvXs5_B2i_B2g_INtNtNtBN_6traits7collect6ExtendB2g_E6extendB1O_E0ENvMs_NtB2i_3impNtB48_11TokenStream13unwrap_stableEINtNtB2i_5rcvec13RcVecIntoIterNtB2i_9TokenTreeEEECs1SHOYL7dTh6_5quote.exit

terminate.i:                                      ; preds = %bb2.i7.i, %bb2.i.i
  %15 = landingpad { ptr, i32 }
          filter [0 x ptr] zeroinitializer
; call core::panicking::panic_in_cleanup
  tail call void @_RNvNtCsjMrxcFdYDNN_4core9panicking16panic_in_cleanup() #23
  unreachable

bb1.i:                                            ; preds = %bb2.i7.i, %bb3.i
  resume { ptr, i32 } %.pn.i

_RINvNtCsjMrxcFdYDNN_4core3ptr13drop_in_placeINtNtNtNtB4_4iter8adapters7flatten13FlattenCompatINtNtBL_3map3MapIB1u_INtNtNtBN_7sources4once4OnceNtCs8M6BBVNvC7a_11proc_macro211TokenStreamENCINvXs5_B2i_B2g_INtNtNtBN_6traits7collect6ExtendB2g_E6extendB1O_E0ENvMs_NtB2i_3impNtB48_11TokenStream13unwrap_stableEINtNtB2i_5rcvec13RcVecIntoIterNtB2i_9TokenTreeEEECs1SHOYL7dTh6_5quote.exit: ; preds = %bb5.i, %bb2.i10.i
  ret void
}

; core::ptr::drop_in_place::<proc_macro2::TokenStream>
; Function Attrs: uwtable
define internal fastcc void @_RINvNtCsjMrxcFdYDNN_4core3ptr13drop_in_placeNtCs8M6BBVNvC7a_11proc_macro211TokenStreamECs1SHOYL7dTh6_5quote(ptr noalias noundef nonnull align 8 dereferenceable(32) %_1) unnamed_addr #0 personality ptr @rust_eh_personality {
start:
  %0 = load i64, ptr %_1, align 8, !range !60, !alias.scope !61, !noundef !9
  %.not.i = icmp eq i64 %0, -9223372036854775808
  br i1 %.not.i, label %bb3.i, label %bb2.i

bb2.i:                                            ; preds = %start
  %1 = getelementptr inbounds nuw i8, ptr %_1, i64 24
  %2 = load i32, ptr %1, align 8, !alias.scope !64, !noundef !9
  %3 = icmp eq i32 %2, 0
  br i1 %3, label %_RINvNtCsjMrxcFdYDNN_4core3ptr13drop_in_placeNtNtCs8M6BBVNvC7a_11proc_macro23imp19DeferredTokenStreamECs1SHOYL7dTh6_5quote.exit.i, label %bb2.i.i.i.i

bb2.i.i.i.i:                                      ; preds = %bb2.i
; invoke <proc_macro::bridge::client::TokenStream as core::ops::drop::Drop>::drop
  invoke void @_RNvXsi_NtNtCsbtZo8rQoR5w_10proc_macro6bridge6clientNtB5_11TokenStreamNtNtNtCsjMrxcFdYDNN_4core3ops4drop4Drop4drop(ptr noalias noundef nonnull align 4 dereferenceable(4) %1)
          to label %_RINvNtCsjMrxcFdYDNN_4core3ptr13drop_in_placeNtNtCs8M6BBVNvC7a_11proc_macro23imp19DeferredTokenStreamECs1SHOYL7dTh6_5quote.exit.i unwind label %cleanup.i.i

cleanup.i.i:                                      ; preds = %bb2.i.i.i.i
  %4 = landingpad { ptr, i32 }
          cleanup
; invoke core::ptr::drop_in_place::<alloc::vec::Vec<proc_macro::TokenTree>>
  invoke fastcc void @_RINvNtCsjMrxcFdYDNN_4core3ptr13drop_in_placeINtNtCsdJPVW0sQgAG_5alloc3vec3VecNtCsbtZo8rQoR5w_10proc_macro9TokenTreeEECs1SHOYL7dTh6_5quote(ptr noalias noundef nonnull align 8 dereferenceable(32) %_1) #22
          to label %common.resume.i unwind label %terminate.i.i

terminate.i.i:                                    ; preds = %cleanup.i.i
  %5 = landingpad { ptr, i32 }
          filter [0 x ptr] zeroinitializer
; call core::panicking::panic_in_cleanup
  tail call void @_RNvNtCsjMrxcFdYDNN_4core9panicking16panic_in_cleanup() #23
  unreachable

common.resume.i:                                  ; preds = %bb1.i.i.i.i.i, %cleanup.i1.i, %cleanup.i.i
  %common.resume.op.i = phi { ptr, i32 } [ %4, %cleanup.i.i ], [ %7, %bb1.i.i.i.i.i ], [ %7, %cleanup.i1.i ]
  resume { ptr, i32 } %common.resume.op.i

_RINvNtCsjMrxcFdYDNN_4core3ptr13drop_in_placeNtNtCs8M6BBVNvC7a_11proc_macro23imp19DeferredTokenStreamECs1SHOYL7dTh6_5quote.exit.i: ; preds = %bb2.i.i.i.i, %bb2.i
; call core::ptr::drop_in_place::<alloc::vec::Vec<proc_macro::TokenTree>>
  tail call fastcc void @_RINvNtCsjMrxcFdYDNN_4core3ptr13drop_in_placeINtNtCsdJPVW0sQgAG_5alloc3vec3VecNtCsbtZo8rQoR5w_10proc_macro9TokenTreeEECs1SHOYL7dTh6_5quote(ptr noalias noundef nonnull align 8 dereferenceable(32) %_1)
  br label %_RINvNtCsjMrxcFdYDNN_4core3ptr13drop_in_placeNtNtCs8M6BBVNvC7a_11proc_macro23imp11TokenStreamECs1SHOYL7dTh6_5quote.exit

bb3.i:                                            ; preds = %start
  %6 = getelementptr inbounds nuw i8, ptr %_1, i64 8
; invoke <proc_macro2::fallback::TokenStream as core::ops::drop::Drop>::drop
  invoke void @_RNvXs0_NtCs8M6BBVNvC7a_11proc_macro28fallbackNtB5_11TokenStreamNtNtNtCsjMrxcFdYDNN_4core3ops4drop4Drop4drop(ptr noalias noundef nonnull align 8 dereferenceable(8) %6)
          to label %bb4.i.i unwind label %cleanup.i1.i

cleanup.i1.i:                                     ; preds = %bb3.i
  %7 = landingpad { ptr, i32 }
          cleanup
  tail call void @llvm.experimental.noalias.scope.decl(metadata !71)
  tail call void @llvm.experimental.noalias.scope.decl(metadata !74)
  tail call void @llvm.experimental.noalias.scope.decl(metadata !77)
  %_5.i.i.i.i.i = load ptr, ptr %6, align 8, !alias.scope !80, !nonnull !9, !noundef !9
  %_8.i.i.i.i.i = load i64, ptr %_5.i.i.i.i.i, align 8, !noalias !83, !noundef !9
  %val.i.i.i.i.i = add i64 %_8.i.i.i.i.i, -1
  store i64 %val.i.i.i.i.i, ptr %_5.i.i.i.i.i, align 8, !noalias !83
  %8 = icmp eq i64 %val.i.i.i.i.i, 0
  br i1 %8, label %bb1.i.i.i.i.i, label %common.resume.i

bb1.i.i.i.i.i:                                    ; preds = %cleanup.i1.i
; invoke <alloc::rc::Rc<alloc::vec::Vec<proc_macro2::TokenTree>>>::drop_slow
  invoke void @_RNvMs6_NtCsdJPVW0sQgAG_5alloc2rcINtB5_2RcINtNtB7_3vec3VecNtCs8M6BBVNvC7a_11proc_macro29TokenTreeEE9drop_slowBV_(ptr noalias noundef nonnull align 8 dereferenceable(8) %6) #25
          to label %common.resume.i unwind label %terminate.i3.i

bb4.i.i:                                          ; preds = %bb3.i
  tail call void @llvm.experimental.noalias.scope.decl(metadata !84)
  tail call void @llvm.experimental.noalias.scope.decl(metadata !87)
  tail call void @llvm.experimental.noalias.scope.decl(metadata !90)
  %_5.i.i.i1.i.i = load ptr, ptr %6, align 8, !alias.scope !93, !nonnull !9, !noundef !9
  %_8.i.i.i2.i.i = load i64, ptr %_5.i.i.i1.i.i, align 8, !noalias !94, !noundef !9
  %val.i.i.i3.i.i = add i64 %_8.i.i.i2.i.i, -1
  store i64 %val.i.i.i3.i.i, ptr %_5.i.i.i1.i.i, align 8, !noalias !94
  %9 = icmp eq i64 %val.i.i.i3.i.i, 0
  br i1 %9, label %bb1.i.i.i4.i.i, label %_RINvNtCsjMrxcFdYDNN_4core3ptr13drop_in_placeNtNtCs8M6BBVNvC7a_11proc_macro23imp11TokenStreamECs1SHOYL7dTh6_5quote.exit

bb1.i.i.i4.i.i:                                   ; preds = %bb4.i.i
; call <alloc::rc::Rc<alloc::vec::Vec<proc_macro2::TokenTree>>>::drop_slow
  tail call void @_RNvMs6_NtCsdJPVW0sQgAG_5alloc2rcINtB5_2RcINtNtB7_3vec3VecNtCs8M6BBVNvC7a_11proc_macro29TokenTreeEE9drop_slowBV_(ptr noalias noundef nonnull align 8 dereferenceable(8) %6) #25
  br label %_RINvNtCsjMrxcFdYDNN_4core3ptr13drop_in_placeNtNtCs8M6BBVNvC7a_11proc_macro23imp11TokenStreamECs1SHOYL7dTh6_5quote.exit

terminate.i3.i:                                   ; preds = %bb1.i.i.i.i.i
  %10 = landingpad { ptr, i32 }
          filter [0 x ptr] zeroinitializer
; call core::panicking::panic_in_cleanup
  tail call void @_RNvNtCsjMrxcFdYDNN_4core9panicking16panic_in_cleanup() #23
  unreachable

_RINvNtCsjMrxcFdYDNN_4core3ptr13drop_in_placeNtNtCs8M6BBVNvC7a_11proc_macro23imp11TokenStreamECs1SHOYL7dTh6_5quote.exit: ; preds = %_RINvNtCsjMrxcFdYDNN_4core3ptr13drop_in_placeNtNtCs8M6BBVNvC7a_11proc_macro23imp19DeferredTokenStreamECs1SHOYL7dTh6_5quote.exit.i, %bb4.i.i, %bb1.i.i.i4.i.i
  ret void
}

; core::ptr::drop_in_place::<proc_macro2::Group>
; Function Attrs: uwtable
define internal fastcc void @_RINvNtCsjMrxcFdYDNN_4core3ptr13drop_in_placeNtCs8M6BBVNvC7a_11proc_macro25GroupECs1SHOYL7dTh6_5quote(ptr noalias noundef nonnull align 8 dereferenceable(24) %_1) unnamed_addr #0 personality ptr @rust_eh_personality {
start:
  %0 = load i32, ptr %_1, align 8, !range !95, !alias.scope !96, !noundef !9
  %1 = icmp eq i32 %0, 0
  br i1 %1, label %bb2.i, label %bb3.i

bb2.i:                                            ; preds = %start
  %2 = getelementptr inbounds nuw i8, ptr %_1, i64 16
  %3 = load i32, ptr %2, align 8, !alias.scope !99, !noundef !9
  %4 = icmp eq i32 %3, 0
  br i1 %4, label %_RINvNtCsjMrxcFdYDNN_4core3ptr13drop_in_placeNtNtCs8M6BBVNvC7a_11proc_macro23imp5GroupECs1SHOYL7dTh6_5quote.exit, label %bb2.i.i.i.i

bb2.i.i.i.i:                                      ; preds = %bb2.i
; call <proc_macro::bridge::client::TokenStream as core::ops::drop::Drop>::drop
  tail call void @_RNvXsi_NtNtCsbtZo8rQoR5w_10proc_macro6bridge6clientNtB5_11TokenStreamNtNtNtCsjMrxcFdYDNN_4core3ops4drop4Drop4drop(ptr noalias noundef nonnull align 4 dereferenceable(4) %2)
  br label %_RINvNtCsjMrxcFdYDNN_4core3ptr13drop_in_placeNtNtCs8M6BBVNvC7a_11proc_macro23imp5GroupECs1SHOYL7dTh6_5quote.exit

bb3.i:                                            ; preds = %start
  %5 = getelementptr inbounds nuw i8, ptr %_1, i64 8
; invoke <proc_macro2::fallback::TokenStream as core::ops::drop::Drop>::drop
  invoke void @_RNvXs0_NtCs8M6BBVNvC7a_11proc_macro28fallbackNtB5_11TokenStreamNtNtNtCsjMrxcFdYDNN_4core3ops4drop4Drop4drop(ptr noalias noundef nonnull align 8 dereferenceable(16) %5)
          to label %bb4.i.i.i unwind label %cleanup.i.i.i

cleanup.i.i.i:                                    ; preds = %bb3.i
  %6 = landingpad { ptr, i32 }
          cleanup
  tail call void @llvm.experimental.noalias.scope.decl(metadata !106)
  tail call void @llvm.experimental.noalias.scope.decl(metadata !109)
  tail call void @llvm.experimental.noalias.scope.decl(metadata !112)
  %_5.i.i.i.i.i.i = load ptr, ptr %5, align 8, !alias.scope !115, !nonnull !9, !noundef !9
  %_8.i.i.i.i.i.i = load i64, ptr %_5.i.i.i.i.i.i, align 8, !noalias !120, !noundef !9
  %val.i.i.i.i.i.i = add i64 %_8.i.i.i.i.i.i, -1
  store i64 %val.i.i.i.i.i.i, ptr %_5.i.i.i.i.i.i, align 8, !noalias !120
  %7 = icmp eq i64 %val.i.i.i.i.i.i, 0
  br i1 %7, label %bb1.i.i.i.i.i.i, label %bb1.i.i.i

bb1.i.i.i.i.i.i:                                  ; preds = %cleanup.i.i.i
; invoke <alloc::rc::Rc<alloc::vec::Vec<proc_macro2::TokenTree>>>::drop_slow
  invoke void @_RNvMs6_NtCsdJPVW0sQgAG_5alloc2rcINtB5_2RcINtNtB7_3vec3VecNtCs8M6BBVNvC7a_11proc_macro29TokenTreeEE9drop_slowBV_(ptr noalias noundef nonnull align 8 dereferenceable(16) %5) #25
          to label %bb1.i.i.i unwind label %terminate.i.i.i

bb4.i.i.i:                                        ; preds = %bb3.i
  tail call void @llvm.experimental.noalias.scope.decl(metadata !121)
  tail call void @llvm.experimental.noalias.scope.decl(metadata !124)
  tail call void @llvm.experimental.noalias.scope.decl(metadata !127)
  %_5.i.i.i1.i.i.i = load ptr, ptr %5, align 8, !alias.scope !130, !nonnull !9, !noundef !9
  %_8.i.i.i2.i.i.i = load i64, ptr %_5.i.i.i1.i.i.i, align 8, !noalias !131, !noundef !9
  %val.i.i.i3.i.i.i = add i64 %_8.i.i.i2.i.i.i, -1
  store i64 %val.i.i.i3.i.i.i, ptr %_5.i.i.i1.i.i.i, align 8, !noalias !131
  %8 = icmp eq i64 %val.i.i.i3.i.i.i, 0
  br i1 %8, label %bb1.i.i.i4.i.i.i, label %_RINvNtCsjMrxcFdYDNN_4core3ptr13drop_in_placeNtNtCs8M6BBVNvC7a_11proc_macro23imp5GroupECs1SHOYL7dTh6_5quote.exit

bb1.i.i.i4.i.i.i:                                 ; preds = %bb4.i.i.i
; call <alloc::rc::Rc<alloc::vec::Vec<proc_macro2::TokenTree>>>::drop_slow
  tail call void @_RNvMs6_NtCsdJPVW0sQgAG_5alloc2rcINtB5_2RcINtNtB7_3vec3VecNtCs8M6BBVNvC7a_11proc_macro29TokenTreeEE9drop_slowBV_(ptr noalias noundef nonnull align 8 dereferenceable(16) %5) #25
  br label %_RINvNtCsjMrxcFdYDNN_4core3ptr13drop_in_placeNtNtCs8M6BBVNvC7a_11proc_macro23imp5GroupECs1SHOYL7dTh6_5quote.exit

terminate.i.i.i:                                  ; preds = %bb1.i.i.i.i.i.i
  %9 = landingpad { ptr, i32 }
          filter [0 x ptr] zeroinitializer
; call core::panicking::panic_in_cleanup
  tail call void @_RNvNtCsjMrxcFdYDNN_4core9panicking16panic_in_cleanup() #23
  unreachable

bb1.i.i.i:                                        ; preds = %bb1.i.i.i.i.i.i, %cleanup.i.i.i
  resume { ptr, i32 } %6

_RINvNtCsjMrxcFdYDNN_4core3ptr13drop_in_placeNtNtCs8M6BBVNvC7a_11proc_macro23imp5GroupECs1SHOYL7dTh6_5quote.exit: ; preds = %bb2.i, %bb2.i.i.i.i, %bb4.i.i.i, %bb1.i.i.i4.i.i.i
  ret void
}

; core::ptr::drop_in_place::<proc_macro2::TokenTree>
; Function Attrs: uwtable
define internal fastcc void @_RINvNtCsjMrxcFdYDNN_4core3ptr13drop_in_placeNtCs8M6BBVNvC7a_11proc_macro29TokenTreeECs1SHOYL7dTh6_5quote(ptr noalias noundef nonnull align 8 dereferenceable(32) %_1) unnamed_addr #0 personality ptr @rust_eh_personality {
start:
  %0 = load i32, ptr %_1, align 8, !range !132, !noundef !9
  switch i32 %0, label %default.unreachable3 [
    i32 0, label %bb2
    i32 1, label %bb3
    i32 2, label %bb1
    i32 3, label %bb4
  ]

default.unreachable3:                             ; preds = %start
  unreachable

bb4:                                              ; preds = %start
  %1 = getelementptr inbounds nuw i8, ptr %_1, i64 8
  %.val = load i64, ptr %1, align 8, !range !60, !noundef !9
  switch i64 %.val, label %bb2.i.i.i4.i.i.i.i.i [
    i64 -9223372036854775808, label %bb1
    i64 0, label %bb1
  ]

bb2.i.i.i4.i.i.i.i.i:                             ; preds = %bb4
  %2 = getelementptr inbounds nuw i8, ptr %_1, i64 16
  %.val1 = load ptr, ptr %2, align 8, !nonnull !9, !noundef !9
; call __rustc::__rust_dealloc
  tail call void @_RNvCsKhRCbHf33p_7___rustc14___rust_dealloc(ptr noundef nonnull %.val1, i64 noundef %.val, i64 noundef range(i64 1, -9223372036854775807) 1) #21, !noalias !133
  br label %bb1

bb2:                                              ; preds = %start
  %3 = getelementptr inbounds nuw i8, ptr %_1, i64 8
  %4 = load i32, ptr %3, align 8, !range !95, !alias.scope !136, !noundef !9
  %5 = icmp eq i32 %4, 0
  br i1 %5, label %bb2.i.i, label %bb3.i.i

bb2.i.i:                                          ; preds = %bb2
  %6 = getelementptr inbounds nuw i8, ptr %_1, i64 24
  %7 = load i32, ptr %6, align 8, !alias.scope !141, !noundef !9
  %8 = icmp eq i32 %7, 0
  br i1 %8, label %bb1, label %bb2.i.i.i.i.i

bb2.i.i.i.i.i:                                    ; preds = %bb2.i.i
; call <proc_macro::bridge::client::TokenStream as core::ops::drop::Drop>::drop
  tail call void @_RNvXsi_NtNtCsbtZo8rQoR5w_10proc_macro6bridge6clientNtB5_11TokenStreamNtNtNtCsjMrxcFdYDNN_4core3ops4drop4Drop4drop(ptr noalias noundef nonnull align 4 dereferenceable(4) %6)
  br label %bb1

bb3.i.i:                                          ; preds = %bb2
  %9 = getelementptr inbounds nuw i8, ptr %_1, i64 16
; invoke <proc_macro2::fallback::TokenStream as core::ops::drop::Drop>::drop
  invoke void @_RNvXs0_NtCs8M6BBVNvC7a_11proc_macro28fallbackNtB5_11TokenStreamNtNtNtCsjMrxcFdYDNN_4core3ops4drop4Drop4drop(ptr noalias noundef nonnull align 8 dereferenceable(16) %9)
          to label %bb4.i.i.i.i unwind label %cleanup.i.i.i.i

cleanup.i.i.i.i:                                  ; preds = %bb3.i.i
  %10 = landingpad { ptr, i32 }
          cleanup
  tail call void @llvm.experimental.noalias.scope.decl(metadata !148)
  tail call void @llvm.experimental.noalias.scope.decl(metadata !151)
  tail call void @llvm.experimental.noalias.scope.decl(metadata !154)
  %_5.i.i.i.i.i.i.i = load ptr, ptr %9, align 8, !alias.scope !157, !nonnull !9, !noundef !9
  %_8.i.i.i.i.i.i.i = load i64, ptr %_5.i.i.i.i.i.i.i, align 8, !noalias !162, !noundef !9
  %val.i.i.i.i.i.i.i = add i64 %_8.i.i.i.i.i.i.i, -1
  store i64 %val.i.i.i.i.i.i.i, ptr %_5.i.i.i.i.i.i.i, align 8, !noalias !162
  %11 = icmp eq i64 %val.i.i.i.i.i.i.i, 0
  br i1 %11, label %bb1.i.i.i.i.i.i.i, label %bb1.i.i.i.i

bb1.i.i.i.i.i.i.i:                                ; preds = %cleanup.i.i.i.i
; invoke <alloc::rc::Rc<alloc::vec::Vec<proc_macro2::TokenTree>>>::drop_slow
  invoke void @_RNvMs6_NtCsdJPVW0sQgAG_5alloc2rcINtB5_2RcINtNtB7_3vec3VecNtCs8M6BBVNvC7a_11proc_macro29TokenTreeEE9drop_slowBV_(ptr noalias noundef nonnull align 8 dereferenceable(16) %9) #25
          to label %bb1.i.i.i.i unwind label %terminate.i.i.i.i

bb4.i.i.i.i:                                      ; preds = %bb3.i.i
  tail call void @llvm.experimental.noalias.scope.decl(metadata !163)
  tail call void @llvm.experimental.noalias.scope.decl(metadata !166)
  tail call void @llvm.experimental.noalias.scope.decl(metadata !169)
  %_5.i.i.i1.i.i.i.i = load ptr, ptr %9, align 8, !alias.scope !172, !nonnull !9, !noundef !9
  %_8.i.i.i2.i.i.i.i = load i64, ptr %_5.i.i.i1.i.i.i.i, align 8, !noalias !173, !noundef !9
  %val.i.i.i3.i.i.i.i = add i64 %_8.i.i.i2.i.i.i.i, -1
  store i64 %val.i.i.i3.i.i.i.i, ptr %_5.i.i.i1.i.i.i.i, align 8, !noalias !173
  %12 = icmp eq i64 %val.i.i.i3.i.i.i.i, 0
  br i1 %12, label %bb1.i.i.i4.i.i.i.i, label %bb1

bb1.i.i.i4.i.i.i.i:                               ; preds = %bb4.i.i.i.i
; call <alloc::rc::Rc<alloc::vec::Vec<proc_macro2::TokenTree>>>::drop_slow
  tail call void @_RNvMs6_NtCsdJPVW0sQgAG_5alloc2rcINtB5_2RcINtNtB7_3vec3VecNtCs8M6BBVNvC7a_11proc_macro29TokenTreeEE9drop_slowBV_(ptr noalias noundef nonnull align 8 dereferenceable(16) %9) #25
  br label %bb1

terminate.i.i.i.i:                                ; preds = %bb1.i.i.i.i.i.i.i
  %13 = landingpad { ptr, i32 }
          filter [0 x ptr] zeroinitializer
; call core::panicking::panic_in_cleanup
  tail call void @_RNvNtCsjMrxcFdYDNN_4core9panicking16panic_in_cleanup() #23
  unreachable

bb1.i.i.i.i:                                      ; preds = %bb1.i.i.i.i.i.i.i, %cleanup.i.i.i.i
  resume { ptr, i32 } %10

bb3:                                              ; preds = %start
  %14 = getelementptr inbounds nuw i8, ptr %_1, i64 8
  tail call void @llvm.experimental.noalias.scope.decl(metadata !174)
  tail call void @llvm.experimental.noalias.scope.decl(metadata !177)
  %15 = getelementptr inbounds nuw i8, ptr %_1, i64 24
  %16 = load i8, ptr %15, align 8, !range !180, !alias.scope !181, !noundef !9
  %17 = icmp eq i8 %16, 2
  br i1 %17, label %bb1, label %bb2.i.i2

bb2.i.i2:                                         ; preds = %bb3
  %18 = getelementptr inbounds nuw i8, ptr %_1, i64 16
  %_1.val1.i.i = load i64, ptr %18, align 8, !alias.scope !181, !noundef !9
  %19 = icmp eq i64 %_1.val1.i.i, 0
  br i1 %19, label %bb1, label %_RNvXs_NtCsdJPVW0sQgAG_5alloc5allocNtB4_6GlobalNtNtCsjMrxcFdYDNN_4core5alloc9Allocator10deallocate.exit.i.i.i.i.i

_RNvXs_NtCsdJPVW0sQgAG_5alloc5allocNtB4_6GlobalNtNtCsjMrxcFdYDNN_4core5alloc9Allocator10deallocate.exit.i.i.i.i.i: ; preds = %bb2.i.i2
  %_1.val.i.i = load ptr, ptr %14, align 8, !alias.scope !181, !nonnull !9, !noundef !9
; call __rustc::__rust_dealloc
  tail call void @_RNvCsKhRCbHf33p_7___rustc14___rust_dealloc(ptr noundef nonnull %_1.val.i.i, i64 noundef %_1.val1.i.i, i64 noundef 1) #21, !noalias !181
  br label %bb1

bb1:                                              ; preds = %_RNvXs_NtCsdJPVW0sQgAG_5alloc5allocNtB4_6GlobalNtNtCsjMrxcFdYDNN_4core5alloc9Allocator10deallocate.exit.i.i.i.i.i, %bb2.i.i2, %bb3, %bb1.i.i.i4.i.i.i.i, %bb4.i.i.i.i, %bb2.i.i.i.i.i, %bb2.i.i, %bb2.i.i.i4.i.i.i.i.i, %bb4, %bb4, %start
  ret void
}

; core::ptr::drop_in_place::<proc_macro::ConcatStreamsHelper>
; Function Attrs: uwtable
define internal fastcc void @_RINvNtCsjMrxcFdYDNN_4core3ptr13drop_in_placeNtCsbtZo8rQoR5w_10proc_macro19ConcatStreamsHelperECs1SHOYL7dTh6_5quote(ptr noalias noundef nonnull readonly align 8 captures(none) dereferenceable(24) %_1) unnamed_addr #0 personality ptr @rust_eh_personality {
start:
  tail call void @llvm.experimental.noalias.scope.decl(metadata !182)
  %0 = getelementptr inbounds nuw i8, ptr %_1, i64 8
  %_1.val.i = load ptr, ptr %0, align 8, !alias.scope !182, !nonnull !9, !noundef !9
  %1 = getelementptr inbounds nuw i8, ptr %_1, i64 16
  %_1.val1.i = load i64, ptr %1, align 8, !alias.scope !182, !noundef !9
  br label %bb6.i.i.i

bb6.i.i.i:                                        ; preds = %bb5.i.i.i, %start
  %_3.sroa.0.0.i.i.i = phi i64 [ 0, %start ], [ %2, %bb5.i.i.i ]
  %_7.i.i.i = icmp eq i64 %_3.sroa.0.0.i.i.i, %_1.val1.i
  br i1 %_7.i.i.i, label %bb4.i, label %bb5.i.i.i

bb5.i.i.i:                                        ; preds = %bb6.i.i.i
  %_6.i.i.i = getelementptr inbounds nuw i32, ptr %_1.val.i, i64 %_3.sroa.0.0.i.i.i
  %2 = add i64 %_3.sroa.0.0.i.i.i, 1
; invoke <proc_macro::bridge::client::TokenStream as core::ops::drop::Drop>::drop
  invoke void @_RNvXsi_NtNtCsbtZo8rQoR5w_10proc_macro6bridge6clientNtB5_11TokenStreamNtNtNtCsjMrxcFdYDNN_4core3ops4drop4Drop4drop(ptr noalias noundef nonnull align 4 dereferenceable(4) %_6.i.i.i)
          to label %bb6.i.i.i unwind label %cleanup.i.i.i, !noalias !182

bb4.i.i.i:                                        ; preds = %bb3.i.i.i, %cleanup.i.i.i
  %_3.sroa.0.1.i.i.i = phi i64 [ %2, %cleanup.i.i.i ], [ %4, %bb3.i.i.i ]
  %_5.i.i.i = icmp eq i64 %_3.sroa.0.1.i.i.i, %_1.val1.i
  br i1 %_5.i.i.i, label %cleanup.body.i, label %bb3.i.i.i

cleanup.i.i.i:                                    ; preds = %bb5.i.i.i
  %3 = landingpad { ptr, i32 }
          cleanup
  br label %bb4.i.i.i

bb3.i.i.i:                                        ; preds = %bb4.i.i.i
  %_4.i.i.i = getelementptr inbounds nuw i32, ptr %_1.val.i, i64 %_3.sroa.0.1.i.i.i
  %4 = add i64 %_3.sroa.0.1.i.i.i, 1
; invoke <proc_macro::bridge::client::TokenStream as core::ops::drop::Drop>::drop
  invoke void @_RNvXsi_NtNtCsbtZo8rQoR5w_10proc_macro6bridge6clientNtB5_11TokenStreamNtNtNtCsjMrxcFdYDNN_4core3ops4drop4Drop4drop(ptr noalias noundef nonnull align 4 dereferenceable(4) %_4.i.i.i)
          to label %bb4.i.i.i unwind label %terminate.i.i.i, !noalias !182

terminate.i.i.i:                                  ; preds = %bb3.i.i.i
  %5 = landingpad { ptr, i32 }
          filter [0 x ptr] zeroinitializer
; call core::panicking::panic_in_cleanup
  tail call void @_RNvNtCsjMrxcFdYDNN_4core9panicking16panic_in_cleanup() #23, !noalias !182
  unreachable

cleanup.body.i:                                   ; preds = %bb4.i.i.i
  %_1.val2.i = load i64, ptr %_1, align 8, !range !16, !alias.scope !182, !noundef !9
  %6 = icmp eq i64 %_1.val2.i, 0
  br i1 %6, label %bb1.i, label %bb2.i.i.i.i

bb2.i.i.i.i:                                      ; preds = %cleanup.body.i
  %alloc_size.i.i.i.i.i = shl nuw i64 %_1.val2.i, 2
; call __rustc::__rust_dealloc
  tail call void @_RNvCsKhRCbHf33p_7___rustc14___rust_dealloc(ptr noundef nonnull %_1.val.i, i64 noundef %alloc_size.i.i.i.i.i, i64 noundef range(i64 1, -9223372036854775807) 4) #21, !noalias !182
  br label %bb1.i

bb4.i:                                            ; preds = %bb6.i.i.i
  %_1.val4.i = load i64, ptr %_1, align 8, !range !16, !alias.scope !182, !noundef !9
  %7 = icmp eq i64 %_1.val4.i, 0
  br i1 %7, label %_RINvNtCsjMrxcFdYDNN_4core3ptr13drop_in_placeINtNtCsdJPVW0sQgAG_5alloc3vec3VecNtNtNtCsbtZo8rQoR5w_10proc_macro6bridge6client11TokenStreamEECs1SHOYL7dTh6_5quote.exit, label %bb2.i.i.i6.i

bb2.i.i.i6.i:                                     ; preds = %bb4.i
  %alloc_size.i.i.i.i7.i = shl nuw i64 %_1.val4.i, 2
; call __rustc::__rust_dealloc
  tail call void @_RNvCsKhRCbHf33p_7___rustc14___rust_dealloc(ptr noundef nonnull %_1.val.i, i64 noundef %alloc_size.i.i.i.i7.i, i64 noundef range(i64 1, -9223372036854775807) 4) #21, !noalias !182
  br label %_RINvNtCsjMrxcFdYDNN_4core3ptr13drop_in_placeINtNtCsdJPVW0sQgAG_5alloc3vec3VecNtNtNtCsbtZo8rQoR5w_10proc_macro6bridge6client11TokenStreamEECs1SHOYL7dTh6_5quote.exit

bb1.i:                                            ; preds = %bb2.i.i.i.i, %cleanup.body.i
  resume { ptr, i32 } %3

_RINvNtCsjMrxcFdYDNN_4core3ptr13drop_in_placeINtNtCsdJPVW0sQgAG_5alloc3vec3VecNtNtNtCsbtZo8rQoR5w_10proc_macro6bridge6client11TokenStreamEECs1SHOYL7dTh6_5quote.exit: ; preds = %bb4.i, %bb2.i.i.i6.i
  ret void
}

; core::ptr::drop_in_place::<proc_macro2::token_stream::IntoIter>
; Function Attrs: uwtable
define internal fastcc void @_RINvNtCsjMrxcFdYDNN_4core3ptr13drop_in_placeNtNtCs8M6BBVNvC7a_11proc_macro212token_stream8IntoIterECs1SHOYL7dTh6_5quote(ptr noalias noundef nonnull readonly align 8 captures(none) dereferenceable(40) %_1) unnamed_addr #0 personality ptr @rust_eh_personality {
start:
  tail call void @llvm.experimental.noalias.scope.decl(metadata !185)
  %_2.i = load i64, ptr %_1, align 8, !range !188, !alias.scope !185, !noundef !9
  %0 = icmp eq i64 %_2.i, 0
  %1 = getelementptr inbounds nuw i8, ptr %_1, i64 8
  br i1 %0, label %bb2.i, label %bb3.i

bb2.i:                                            ; preds = %start
  tail call void @llvm.experimental.noalias.scope.decl(metadata !189)
  tail call void @llvm.experimental.noalias.scope.decl(metadata !192)
  tail call void @llvm.experimental.noalias.scope.decl(metadata !195)
  %2 = getelementptr inbounds nuw i8, ptr %_1, i64 16
  %self.val.i.i.i.i = load ptr, ptr %2, align 8, !alias.scope !198, !nonnull !9, !noundef !9
  %3 = getelementptr inbounds nuw i8, ptr %_1, i64 32
  %self.val1.i.i.i.i = load ptr, ptr %3, align 8, !alias.scope !198, !nonnull !9, !noundef !9
  %4 = ptrtoint ptr %self.val1.i.i.i.i to i64
  %5 = ptrtoint ptr %self.val.i.i.i.i to i64
  %6 = sub nuw i64 %4, %5
  %7 = udiv exact i64 %6, 20
  %_710.i.i.i.i.i = icmp eq ptr %self.val1.i.i.i.i, %self.val.i.i.i.i
  br i1 %_710.i.i.i.i.i, label %bb2.i.i.i.i, label %bb5.i.i.i.i.i

cleanup.body.i.i.i.i:                             ; preds = %_RINvNtCsjMrxcFdYDNN_4core3ptr13drop_in_placeINtNtCsbtZo8rQoR5w_10proc_macro6bridge9TokenTreeNtNtBJ_6client11TokenStreamNtB1u_4SpanNtNtBJ_6symbol6SymbolEECs1SHOYL7dTh6_5quote.exit9.i.i.i.i.i, %cleanup.i.i.i.i.i
  %8 = getelementptr inbounds nuw i8, ptr %_1, i64 24
  %capacity1.i.i.i.i.i.i = load i64, ptr %8, align 8, !alias.scope !198, !noundef !9
  %9 = icmp eq i64 %capacity1.i.i.i.i.i.i, 0
  br i1 %9, label %bb5.i.i.i.i, label %bb2.i.i.i.i.i.i.i.i.i

bb2.i.i.i.i.i.i.i.i.i:                            ; preds = %cleanup.body.i.i.i.i
  %ptr.i.i.i.i.i.i = load ptr, ptr %1, align 8, !alias.scope !198, !nonnull !9, !noundef !9
  %alloc_size.i.i.i.i.i.i.i.i.i.i = mul nuw i64 %capacity1.i.i.i.i.i.i, 20
; call __rustc::__rust_dealloc
  tail call void @_RNvCsKhRCbHf33p_7___rustc14___rust_dealloc(ptr noundef nonnull %ptr.i.i.i.i.i.i, i64 noundef %alloc_size.i.i.i.i.i.i.i.i.i.i, i64 noundef range(i64 1, -9223372036854775807) 4) #21, !noalias !198
  br label %bb5.i.i.i.i

bb5.i.i.i.i.i:                                    ; preds = %bb2.i, %_RINvNtCsjMrxcFdYDNN_4core3ptr13drop_in_placeINtNtCsbtZo8rQoR5w_10proc_macro6bridge9TokenTreeNtNtBJ_6client11TokenStreamNtB1u_4SpanNtNtBJ_6symbol6SymbolEECs1SHOYL7dTh6_5quote.exit.i.i.i.i.i
  %_3.sroa.0.011.i.i.i.i.i = phi i64 [ %10, %_RINvNtCsjMrxcFdYDNN_4core3ptr13drop_in_placeINtNtCsbtZo8rQoR5w_10proc_macro6bridge9TokenTreeNtNtBJ_6client11TokenStreamNtB1u_4SpanNtNtBJ_6symbol6SymbolEECs1SHOYL7dTh6_5quote.exit.i.i.i.i.i ], [ 0, %bb2.i ]
  %_6.i.i.i.i.i = getelementptr inbounds nuw %"proc_macro::bridge::TokenTree<proc_macro::bridge::client::TokenStream, proc_macro::bridge::client::Span, proc_macro::bridge::symbol::Symbol>", ptr %self.val.i.i.i.i, i64 %_3.sroa.0.011.i.i.i.i.i
  %10 = add nuw i64 %_3.sroa.0.011.i.i.i.i.i, 1
  %11 = getelementptr inbounds nuw i8, ptr %_6.i.i.i.i.i, i64 16
  %12 = load i8, ptr %11, align 4, !range !17, !alias.scope !199, !noalias !198, !noundef !9
  %13 = icmp samesign ult i8 %12, 4
  br i1 %13, label %bb2.i.i.i.i.i.i, label %_RINvNtCsjMrxcFdYDNN_4core3ptr13drop_in_placeINtNtCsbtZo8rQoR5w_10proc_macro6bridge9TokenTreeNtNtBJ_6client11TokenStreamNtB1u_4SpanNtNtBJ_6symbol6SymbolEECs1SHOYL7dTh6_5quote.exit.i.i.i.i.i

bb2.i.i.i.i.i.i:                                  ; preds = %bb5.i.i.i.i.i
  %14 = getelementptr inbounds nuw i8, ptr %_6.i.i.i.i.i, i64 12
  %15 = load i32, ptr %14, align 4, !alias.scope !204, !noalias !198, !noundef !9
  %16 = icmp eq i32 %15, 0
  br i1 %16, label %_RINvNtCsjMrxcFdYDNN_4core3ptr13drop_in_placeINtNtCsbtZo8rQoR5w_10proc_macro6bridge9TokenTreeNtNtBJ_6client11TokenStreamNtB1u_4SpanNtNtBJ_6symbol6SymbolEECs1SHOYL7dTh6_5quote.exit.i.i.i.i.i, label %bb2.i.i.i.i.i.i.i.i

bb2.i.i.i.i.i.i.i.i:                              ; preds = %bb2.i.i.i.i.i.i
; invoke <proc_macro::bridge::client::TokenStream as core::ops::drop::Drop>::drop
  invoke void @_RNvXsi_NtNtCsbtZo8rQoR5w_10proc_macro6bridge6clientNtB5_11TokenStreamNtNtNtCsjMrxcFdYDNN_4core3ops4drop4Drop4drop(ptr noalias noundef nonnull align 4 dereferenceable(4) %14)
          to label %_RINvNtCsjMrxcFdYDNN_4core3ptr13drop_in_placeINtNtCsbtZo8rQoR5w_10proc_macro6bridge9TokenTreeNtNtBJ_6client11TokenStreamNtB1u_4SpanNtNtBJ_6symbol6SymbolEECs1SHOYL7dTh6_5quote.exit.i.i.i.i.i unwind label %cleanup.i.i.i.i.i, !noalias !198

_RINvNtCsjMrxcFdYDNN_4core3ptr13drop_in_placeINtNtCsbtZo8rQoR5w_10proc_macro6bridge9TokenTreeNtNtBJ_6client11TokenStreamNtB1u_4SpanNtNtBJ_6symbol6SymbolEECs1SHOYL7dTh6_5quote.exit.i.i.i.i.i: ; preds = %bb2.i.i.i.i.i.i.i.i, %bb2.i.i.i.i.i.i, %bb5.i.i.i.i.i
  %_7.i.i.i.i.i = icmp eq i64 %10, %7
  br i1 %_7.i.i.i.i.i, label %bb2.i.i.i.i, label %bb5.i.i.i.i.i

cleanup.i.i.i.i.i:                                ; preds = %bb2.i.i.i.i.i.i.i.i
  %17 = landingpad { ptr, i32 }
          cleanup
  %_512.i.i.i.i.i = icmp eq i64 %10, %7
  br i1 %_512.i.i.i.i.i, label %cleanup.body.i.i.i.i, label %bb3.i.i.i.i.i

bb3.i.i.i.i.i:                                    ; preds = %cleanup.i.i.i.i.i, %_RINvNtCsjMrxcFdYDNN_4core3ptr13drop_in_placeINtNtCsbtZo8rQoR5w_10proc_macro6bridge9TokenTreeNtNtBJ_6client11TokenStreamNtB1u_4SpanNtNtBJ_6symbol6SymbolEECs1SHOYL7dTh6_5quote.exit9.i.i.i.i.i
  %_3.sroa.0.113.i.i.i.i.i = phi i64 [ %18, %_RINvNtCsjMrxcFdYDNN_4core3ptr13drop_in_placeINtNtCsbtZo8rQoR5w_10proc_macro6bridge9TokenTreeNtNtBJ_6client11TokenStreamNtB1u_4SpanNtNtBJ_6symbol6SymbolEECs1SHOYL7dTh6_5quote.exit9.i.i.i.i.i ], [ %10, %cleanup.i.i.i.i.i ]
  %_4.i.i.i.i.i = getelementptr inbounds nuw %"proc_macro::bridge::TokenTree<proc_macro::bridge::client::TokenStream, proc_macro::bridge::client::Span, proc_macro::bridge::symbol::Symbol>", ptr %self.val.i.i.i.i, i64 %_3.sroa.0.113.i.i.i.i.i
  %18 = add i64 %_3.sroa.0.113.i.i.i.i.i, 1
  %19 = getelementptr inbounds nuw i8, ptr %_4.i.i.i.i.i, i64 16
  %20 = load i8, ptr %19, align 4, !range !17, !alias.scope !209, !noalias !198, !noundef !9
  %21 = icmp samesign ult i8 %20, 4
  br i1 %21, label %bb2.i6.i.i.i.i.i, label %_RINvNtCsjMrxcFdYDNN_4core3ptr13drop_in_placeINtNtCsbtZo8rQoR5w_10proc_macro6bridge9TokenTreeNtNtBJ_6client11TokenStreamNtB1u_4SpanNtNtBJ_6symbol6SymbolEECs1SHOYL7dTh6_5quote.exit9.i.i.i.i.i

bb2.i6.i.i.i.i.i:                                 ; preds = %bb3.i.i.i.i.i
  %22 = getelementptr inbounds nuw i8, ptr %_4.i.i.i.i.i, i64 12
  %23 = load i32, ptr %22, align 4, !alias.scope !212, !noalias !198, !noundef !9
  %24 = icmp eq i32 %23, 0
  br i1 %24, label %_RINvNtCsjMrxcFdYDNN_4core3ptr13drop_in_placeINtNtCsbtZo8rQoR5w_10proc_macro6bridge9TokenTreeNtNtBJ_6client11TokenStreamNtB1u_4SpanNtNtBJ_6symbol6SymbolEECs1SHOYL7dTh6_5quote.exit9.i.i.i.i.i, label %bb2.i.i.i7.i.i.i.i.i

bb2.i.i.i7.i.i.i.i.i:                             ; preds = %bb2.i6.i.i.i.i.i
; invoke <proc_macro::bridge::client::TokenStream as core::ops::drop::Drop>::drop
  invoke void @_RNvXsi_NtNtCsbtZo8rQoR5w_10proc_macro6bridge6clientNtB5_11TokenStreamNtNtNtCsjMrxcFdYDNN_4core3ops4drop4Drop4drop(ptr noalias noundef nonnull align 4 dereferenceable(4) %22)
          to label %_RINvNtCsjMrxcFdYDNN_4core3ptr13drop_in_placeINtNtCsbtZo8rQoR5w_10proc_macro6bridge9TokenTreeNtNtBJ_6client11TokenStreamNtB1u_4SpanNtNtBJ_6symbol6SymbolEECs1SHOYL7dTh6_5quote.exit9.i.i.i.i.i unwind label %terminate.i.i.i.i.i, !noalias !198

_RINvNtCsjMrxcFdYDNN_4core3ptr13drop_in_placeINtNtCsbtZo8rQoR5w_10proc_macro6bridge9TokenTreeNtNtBJ_6client11TokenStreamNtB1u_4SpanNtNtBJ_6symbol6SymbolEECs1SHOYL7dTh6_5quote.exit9.i.i.i.i.i: ; preds = %bb2.i.i.i7.i.i.i.i.i, %bb2.i6.i.i.i.i.i, %bb3.i.i.i.i.i
  %_5.i.i.i.i.i = icmp eq i64 %18, %7
  br i1 %_5.i.i.i.i.i, label %cleanup.body.i.i.i.i, label %bb3.i.i.i.i.i

terminate.i.i.i.i.i:                              ; preds = %bb2.i.i.i7.i.i.i.i.i
  %25 = landingpad { ptr, i32 }
          filter [0 x ptr] zeroinitializer
; call core::panicking::panic_in_cleanup
  tail call void @_RNvNtCsjMrxcFdYDNN_4core9panicking16panic_in_cleanup() #23, !noalias !198
  unreachable

bb2.i.i.i.i:                                      ; preds = %_RINvNtCsjMrxcFdYDNN_4core3ptr13drop_in_placeINtNtCsbtZo8rQoR5w_10proc_macro6bridge9TokenTreeNtNtBJ_6client11TokenStreamNtB1u_4SpanNtNtBJ_6symbol6SymbolEECs1SHOYL7dTh6_5quote.exit.i.i.i.i.i, %bb2.i
  %26 = getelementptr inbounds nuw i8, ptr %_1, i64 24
  %capacity1.i.i3.i.i.i.i = load i64, ptr %26, align 8, !alias.scope !198, !noundef !9
  %27 = icmp eq i64 %capacity1.i.i3.i.i.i.i, 0
  br i1 %27, label %_RINvNtCsjMrxcFdYDNN_4core3ptr13drop_in_placeNtNtCs8M6BBVNvC7a_11proc_macro23imp13TokenTreeIterECs1SHOYL7dTh6_5quote.exit, label %bb2.i.i.i.i.i4.i.i.i.i

bb2.i.i.i.i.i4.i.i.i.i:                           ; preds = %bb2.i.i.i.i
  %ptr.i.i5.i.i.i.i = load ptr, ptr %1, align 8, !alias.scope !198, !nonnull !9, !noundef !9
  %alloc_size.i.i.i.i.i.i6.i.i.i.i = mul nuw i64 %capacity1.i.i3.i.i.i.i, 20
; call __rustc::__rust_dealloc
  tail call void @_RNvCsKhRCbHf33p_7___rustc14___rust_dealloc(ptr noundef nonnull %ptr.i.i5.i.i.i.i, i64 noundef %alloc_size.i.i.i.i.i.i6.i.i.i.i, i64 noundef range(i64 1, -9223372036854775807) 4) #21, !noalias !198
  br label %_RINvNtCsjMrxcFdYDNN_4core3ptr13drop_in_placeNtNtCs8M6BBVNvC7a_11proc_macro23imp13TokenTreeIterECs1SHOYL7dTh6_5quote.exit

bb5.i.i.i.i:                                      ; preds = %bb2.i.i.i.i.i.i.i.i.i, %cleanup.body.i.i.i.i
  resume { ptr, i32 } %17

bb3.i:                                            ; preds = %start
; call core::ptr::drop_in_place::<proc_macro2::rcvec::RcVecIntoIter<proc_macro2::TokenTree>>
  tail call fastcc void @_RINvNtCsjMrxcFdYDNN_4core3ptr13drop_in_placeINtNtCs8M6BBVNvC7a_11proc_macro25rcvec13RcVecIntoIterNtBL_9TokenTreeEECs1SHOYL7dTh6_5quote(ptr noalias noundef readonly align 8 dereferenceable(32) %1)
  br label %_RINvNtCsjMrxcFdYDNN_4core3ptr13drop_in_placeNtNtCs8M6BBVNvC7a_11proc_macro23imp13TokenTreeIterECs1SHOYL7dTh6_5quote.exit

_RINvNtCsjMrxcFdYDNN_4core3ptr13drop_in_placeNtNtCs8M6BBVNvC7a_11proc_macro23imp13TokenTreeIterECs1SHOYL7dTh6_5quote.exit: ; preds = %bb2.i.i.i.i, %bb2.i.i.i.i.i4.i.i.i.i, %bb3.i
  ret void
}

; core::ptr::drop_in_place::<alloc::string::String>
; Function Attrs: nounwind uwtable
define internal void @_RINvNtCsjMrxcFdYDNN_4core3ptr13drop_in_placeNtNtCsdJPVW0sQgAG_5alloc6string6StringECs1SHOYL7dTh6_5quote(ptr noalias noundef readonly align 8 captures(none) dereferenceable(24) %_1) unnamed_addr #1 personality ptr @rust_eh_personality {
start:
  %_1.val = load i64, ptr %_1, align 8
  %0 = icmp eq i64 %_1.val, 0
  br i1 %0, label %_RINvNtCsjMrxcFdYDNN_4core3ptr13drop_in_placeINtNtCsdJPVW0sQgAG_5alloc3vec3VechEECs1SHOYL7dTh6_5quote.exit, label %bb2.i.i.i4.i

bb2.i.i.i4.i:                                     ; preds = %start
  %1 = getelementptr inbounds nuw i8, ptr %_1, i64 8
  %_1.val1 = load ptr, ptr %1, align 8, !nonnull !9, !noundef !9
; call __rustc::__rust_dealloc
  tail call void @_RNvCsKhRCbHf33p_7___rustc14___rust_dealloc(ptr noundef nonnull %_1.val1, i64 noundef %_1.val, i64 noundef range(i64 1, -9223372036854775807) 1) #21
  br label %_RINvNtCsjMrxcFdYDNN_4core3ptr13drop_in_placeINtNtCsdJPVW0sQgAG_5alloc3vec3VechEECs1SHOYL7dTh6_5quote.exit

_RINvNtCsjMrxcFdYDNN_4core3ptr13drop_in_placeINtNtCsdJPVW0sQgAG_5alloc3vec3VechEECs1SHOYL7dTh6_5quote.exit: ; preds = %start, %bb2.i.i.i4.i
  ret void
}

; <alloc::raw_vec::RawVecInner<_>>::reserve::do_reserve_and_handle::<alloc::alloc::Global>
; Function Attrs: cold uwtable
define internal fastcc void @_RINvNvMs2_NtCsdJPVW0sQgAG_5alloc7raw_vecINtB8_11RawVecInnerpE7reserve21do_reserve_and_handleNtNtBa_5alloc6GlobalECs1SHOYL7dTh6_5quote(ptr noalias noundef nonnull align 8 captures(none) dereferenceable(16) %slf, i64 noundef %len, i64 noundef %additional, i64 noundef range(i64 1, 9) %elem_layout.0, i64 noundef range(i64 1, 33) %elem_layout.1) unnamed_addr #2 personality ptr @rust_eh_personality {
start:
  %self3.i = alloca [24 x i8], align 8
  tail call void @llvm.experimental.noalias.scope.decl(metadata !217)
  %_25.0.i = add i64 %additional, %len
  %_25.1.i = icmp ult i64 %_25.0.i, %len
  br i1 %_25.1.i, label %bb2, label %bb9.i

bb9.i:                                            ; preds = %start
  %self5.i = load i64, ptr %slf, align 8, !range !16, !alias.scope !217, !noundef !9
  %v16.i = shl nuw i64 %self5.i, 1
  %_0.sroa.0.0.i.i = tail call noundef i64 @llvm.umax.i64(i64 %_25.0.i, i64 range(i64 0, -1) %v16.i)
  %0 = icmp eq i64 %elem_layout.1, 1
  %v1.sroa.0.0.i = select i1 %0, i64 8, i64 4
  %_0.sroa.0.0.i16.i = tail call noundef i64 @llvm.umax.i64(i64 %_0.sroa.0.0.i.i, i64 range(i64 0, -1) %v1.sroa.0.0.i)
  call void @llvm.lifetime.start.p0(i64 24, ptr nonnull %self3.i), !noalias !217
  %1 = getelementptr inbounds nuw i8, ptr %slf, i64 8
  %self.val15.i = load ptr, ptr %1, align 8, !alias.scope !217
; call <alloc::raw_vec::RawVecInner>::finish_grow
  call fastcc void @_RNvMs4_NtCsdJPVW0sQgAG_5alloc7raw_vecNtB5_11RawVecInner11finish_growCs1SHOYL7dTh6_5quote(ptr noalias noundef align 8 captures(none) dereferenceable(24) %self3.i, i64 %self5.i, ptr %self.val15.i, i64 noundef %_0.sroa.0.0.i16.i, i64 noundef range(i64 1, 9) %elem_layout.0, i64 noundef range(i64 1, 33) %elem_layout.1), !noalias !217
  %_35.i = load i64, ptr %self3.i, align 8, !range !188, !noalias !217, !noundef !9
  %2 = trunc nuw i64 %_35.i to i1
  %3 = getelementptr inbounds nuw i8, ptr %self3.i, i64 8
  br i1 %2, label %bb18.i, label %bb3

bb18.i:                                           ; preds = %bb9.i
  %e.0.i = load i64, ptr %3, align 8, !range !60, !noalias !217, !noundef !9
  %4 = getelementptr inbounds nuw i8, ptr %self3.i, i64 16
  %e.1.i = load i64, ptr %4, align 8, !noalias !217
  call void @llvm.lifetime.end.p0(i64 24, ptr nonnull %self3.i), !noalias !217
  br label %bb2

bb2:                                              ; preds = %bb18.i, %start
  %_0.sroa.5.0.i.ph = phi i64 [ undef, %start ], [ %e.1.i, %bb18.i ]
  %_0.sroa.0.0.i.ph = phi i64 [ 0, %start ], [ %e.0.i, %bb18.i ]
; call alloc::raw_vec::handle_error
  tail call void @_RNvNtCsdJPVW0sQgAG_5alloc7raw_vec12handle_error(i64 noundef %_0.sroa.0.0.i.ph, i64 %_0.sroa.5.0.i.ph) #26
  unreachable

bb3:                                              ; preds = %bb9.i
  %v.0.i = load ptr, ptr %3, align 8, !noalias !217, !nonnull !9, !noundef !9
  call void @llvm.lifetime.end.p0(i64 24, ptr nonnull %self3.i), !noalias !217
  store ptr %v.0.i, ptr %1, align 8, !alias.scope !217
  %5 = icmp sgt i64 %_0.sroa.0.0.i16.i, -1
  tail call void @llvm.assume(i1 %5)
  store i64 %_0.sroa.0.0.i16.i, ptr %slf, align 8, !alias.scope !217
  ret void
}

; <proc_macro2::TokenStream as core::iter::traits::collect::Extend<proc_macro2::TokenStream>>::extend::<core::iter::sources::once::Once<proc_macro2::TokenStream>>
; Function Attrs: uwtable
define internal fastcc void @_RINvXs5_Cs8M6BBVNvC7a_11proc_macro2NtB6_11TokenStreamINtNtNtNtCsjMrxcFdYDNN_4core4iter6traits7collect6ExtendBx_E6extendINtNtNtBW_7sources4once4OnceBx_EECs1SHOYL7dTh6_5quote(ptr noalias noundef nonnull align 8 dereferenceable(32) %self, ptr dead_on_return noalias noundef nonnull readonly align 8 captures(none) dereferenceable(32) %streams) unnamed_addr #0 personality ptr @rust_eh_personality {
start:
  %_2.i.i.i.i.i.i.i.i1.i = alloca [32 x i8], align 8
  %x.i.sroa.6.i.i.i.i.i.i = alloca [28 x i8], align 4
  %_10.i.i.i.i.i.i = alloca [32 x i8], align 8
  %element.i.i.i.i = alloca [32 x i8], align 8
  %_3.sroa.8.i.i.i.i = alloca [28 x i8], align 4
  %_3.i.i = alloca [96 x i8], align 8
  %_2.i.i.i.i.i.i.i.i.i = alloca [32 x i8], align 8
  %_13.i.i = alloca [24 x i8], align 8
  %builder.i.i = alloca [24 x i8], align 8
  %iter.i.i = alloca [32 x i8], align 8
  %_13.i = alloca [32 x i8], align 8
  %_5 = alloca [32 x i8], align 8
  call void @llvm.lifetime.start.p0(i64 32, ptr nonnull %_5)
  call void @llvm.memcpy.p0.p0.i64(ptr noundef nonnull align 8 dereferenceable(32) %_5, ptr noundef nonnull readonly align 8 dereferenceable(32) %streams, i64 32, i1 false), !alias.scope !220
  tail call void @llvm.experimental.noalias.scope.decl(metadata !224)
  tail call void @llvm.experimental.noalias.scope.decl(metadata !227)
  %0 = load i64, ptr %self, align 8, !range !60, !alias.scope !224, !noalias !227, !noundef !9
  %1 = icmp eq i64 %0, -9223372036854775808
  br i1 %1, label %bb9.i, label %bb3.i

bb3.i:                                            ; preds = %start
; invoke <proc_macro2::imp::DeferredTokenStream>::evaluate_now
  invoke void @_RNvMNtCs8M6BBVNvC7a_11proc_macro23impNtB2_19DeferredTokenStream12evaluate_now(ptr noalias noundef nonnull align 8 dereferenceable(32) %self)
          to label %bb6.i unwind label %bb13.i, !noalias !227

bb6.i:                                            ; preds = %bb3.i
  %_7.i = getelementptr inbounds nuw i8, ptr %self, i64 24
  call void @llvm.lifetime.start.p0(i64 32, ptr nonnull %iter.i.i), !noalias !229
  call void @llvm.memcpy.p0.p0.i64(ptr noundef nonnull align 8 dereferenceable(32) %iter.i.i, ptr noundef nonnull align 8 dereferenceable(32) %streams, i64 32, i1 false)
  call void @llvm.lifetime.start.p0(i64 24, ptr nonnull %builder.i.i), !noalias !229
  %iter.val.i.i = load i64, ptr %iter.i.i, align 8, !range !233, !noalias !229, !noundef !9
  %2 = icmp ne i64 %iter.val.i.i, -9223372036854775807
  %_4.i.i.i.i.i = zext i1 %2 to i64
; invoke <proc_macro::ConcatStreamsHelper>::new
  invoke void @_RNvMsf_CsbtZo8rQoR5w_10proc_macroNtB5_19ConcatStreamsHelper3new(ptr noalias noundef nonnull sret([24 x i8]) align 8 captures(none) dereferenceable(24) %builder.i.i, i64 noundef %_4.i.i.i.i.i)
          to label %bb3.i.i unwind label %bb9.i.i, !noalias !234

bb3.i.i:                                          ; preds = %bb6.i
  %.not7.i.i.i.i.i.i = icmp eq i64 %iter.val.i.i, -9223372036854775807
  br i1 %.not7.i.i.i.i.i.i, label %bb4.i.i, label %bb3.i.i.i.i.i.i

bb3.i.i.i.i.i.i:                                  ; preds = %bb3.i.i
  %_11.sroa.4.0._2.i.i.i.sroa_idx.i.i.i.i.i.i = getelementptr inbounds nuw i8, ptr %_2.i.i.i.i.i.i.i.i.i, i64 8
  call void @llvm.lifetime.start.p0(i64 32, ptr nonnull %_2.i.i.i.i.i.i.i.i.i), !noalias !235
  %3 = getelementptr inbounds nuw i8, ptr %streams, i64 8
  call void @llvm.memcpy.p0.p0.i64(ptr noundef nonnull align 8 dereferenceable(24) %_11.sroa.4.0._2.i.i.i.sroa_idx.i.i.i.i.i.i, ptr noundef nonnull align 8 dereferenceable(24) %3, i64 24, i1 false)
  store i64 %iter.val.i.i, ptr %_2.i.i.i.i.i.i.i.i.i, align 8, !noalias !252
; invoke <proc_macro2::imp::TokenStream>::unwrap_nightly
  %_0.i.i.i1.i.i.i.i3.i.i = invoke noundef i32 @_RNvMs_NtCs8M6BBVNvC7a_11proc_macro23impNtB4_11TokenStream14unwrap_nightly(ptr noalias noundef nonnull align 8 captures(address) dereferenceable(32) %_2.i.i.i.i.i.i.i.i.i)
          to label %_0.i.i.i1.i.i.i.i.noexc.i.i unwind label %bb7.i.i, !noalias !234

_0.i.i.i1.i.i.i.i.noexc.i.i:                      ; preds = %bb3.i.i.i.i.i.i
  call void @llvm.lifetime.end.p0(i64 32, ptr nonnull %_2.i.i.i.i.i.i.i.i.i), !noalias !235
; invoke <proc_macro::ConcatStreamsHelper>::push
  invoke void @_RNvMsf_CsbtZo8rQoR5w_10proc_macroNtB5_19ConcatStreamsHelper4push(ptr noalias noundef nonnull align 8 dereferenceable(24) %builder.i.i, i32 noundef %_0.i.i.i1.i.i.i.i3.i.i)
          to label %bb4.i.i unwind label %bb7.i.i, !noalias !234

bb4.i.i:                                          ; preds = %_0.i.i.i1.i.i.i.i.noexc.i.i, %bb3.i.i
  call void @llvm.lifetime.start.p0(i64 24, ptr nonnull %_13.i.i), !noalias !229
  call void @llvm.memcpy.p0.p0.i64(ptr noundef nonnull align 8 dereferenceable(24) %_13.i.i, ptr noundef nonnull align 8 dereferenceable(24) %builder.i.i, i64 24, i1 false), !noalias !229
; call <proc_macro::ConcatStreamsHelper>::append_to
  call void @_RNvMsf_CsbtZo8rQoR5w_10proc_macroNtB5_19ConcatStreamsHelper9append_to(ptr noalias noundef nonnull align 8 captures(address) dereferenceable(24) %_13.i.i, ptr noalias noundef nonnull align 4 dereferenceable(4) %_7.i), !noalias !227
  call void @llvm.lifetime.end.p0(i64 24, ptr nonnull %_13.i.i), !noalias !229
  call void @llvm.lifetime.end.p0(i64 24, ptr nonnull %builder.i.i), !noalias !229
  call void @llvm.lifetime.end.p0(i64 32, ptr nonnull %iter.i.i), !noalias !229
  br label %_RINvXs8_NtCs8M6BBVNvC7a_11proc_macro23impNtB6_11TokenStreamINtNtNtNtCsjMrxcFdYDNN_4core4iter6traits7collect6ExtendBD_E6extendINtNtNtB12_8adapters3map3MapINtNtNtB12_7sources4once4OnceNtB8_11TokenStreamENCINvXs5_B8_B2U_IBW_B2U_E6extendB2r_E0EECs1SHOYL7dTh6_5quote.exit

bb7.i.i:                                          ; preds = %_0.i.i.i1.i.i.i.i.noexc.i.i, %bb3.i.i.i.i.i.i
  %lpad.thr_comm.i.i = landingpad { ptr, i32 }
          cleanup
; invoke core::ptr::drop_in_place::<proc_macro::ConcatStreamsHelper>
  invoke fastcc void @_RINvNtCsjMrxcFdYDNN_4core3ptr13drop_in_placeNtCsbtZo8rQoR5w_10proc_macro19ConcatStreamsHelperECs1SHOYL7dTh6_5quote(ptr noalias noundef align 8 dereferenceable(24) %builder.i.i) #22
          to label %bb12.i unwind label %terminate.i.i, !noalias !234

terminate.i.i:                                    ; preds = %bb2.i.i.i.i.i.i.i.i, %bb7.i.i
  %4 = landingpad { ptr, i32 }
          filter [0 x ptr] zeroinitializer
; call core::panicking::panic_in_cleanup
  call void @_RNvNtCsjMrxcFdYDNN_4core9panicking16panic_in_cleanup() #23, !noalias !234
  unreachable

bb9.i.i:                                          ; preds = %bb6.i
  %5 = landingpad { ptr, i32 }
          cleanup
  %6 = icmp eq i64 %iter.val.i.i, -9223372036854775807
  br i1 %6, label %bb12.i, label %bb2.i.i.i.i.i.i.i.i

bb2.i.i.i.i.i.i.i.i:                              ; preds = %bb9.i.i
; invoke core::ptr::drop_in_place::<proc_macro2::TokenStream>
  invoke fastcc void @_RINvNtCsjMrxcFdYDNN_4core3ptr13drop_in_placeNtCs8M6BBVNvC7a_11proc_macro211TokenStreamECs1SHOYL7dTh6_5quote(ptr noalias noundef nonnull align 8 dereferenceable(32) %iter.i.i)
          to label %bb12.i unwind label %terminate.i.i, !noalias !234

bb9.i:                                            ; preds = %start
  %tts.i = getelementptr inbounds nuw i8, ptr %self, i64 8
  call void @llvm.lifetime.start.p0(i64 32, ptr nonnull %_13.i), !noalias !253
  call void @llvm.memcpy.p0.p0.i64(ptr noundef nonnull align 8 dereferenceable(32) %_13.i, ptr noundef nonnull align 8 dereferenceable(32) %streams, i64 32, i1 false)
  tail call void @llvm.experimental.noalias.scope.decl(metadata !254)
  call void @llvm.lifetime.start.p0(i64 96, ptr nonnull %_3.i.i), !noalias !253
; invoke <alloc::rc::Rc<alloc::vec::Vec<proc_macro2::TokenTree>>>::make_mut
  %_7.i.i = invoke fastcc noundef nonnull align 8 ptr @_RNvMsh_NtCsdJPVW0sQgAG_5alloc2rcINtB5_2RcINtNtB7_3vec3VecNtCs8M6BBVNvC7a_11proc_macro29TokenTreeEE8make_mutCs1SHOYL7dTh6_5quote(ptr noalias noundef nonnull align 8 dereferenceable(8) %tts.i)
          to label %bb2.i.i unwind label %bb4.i2.i, !noalias !257

bb2.i.i:                                          ; preds = %bb9.i
  call void @llvm.memcpy.p0.p0.i64(ptr noundef nonnull align 8 dereferenceable(32) %_3.i.i, ptr noundef nonnull align 8 dereferenceable(32) %streams, i64 32, i1 false)
  %_2.sroa.4.0._0.sroa_idx.i.i.i = getelementptr inbounds nuw i8, ptr %_3.i.i, i64 32
  store ptr null, ptr %_2.sroa.4.0._0.sroa_idx.i.i.i, align 8, !alias.scope !258, !noalias !261
  %_2.sroa.6.0._0.sroa_idx.i.i.i = getelementptr inbounds nuw i8, ptr %_3.i.i, i64 64
  store ptr null, ptr %_2.sroa.6.0._0.sroa_idx.i.i.i, align 8, !alias.scope !258, !noalias !261
  tail call void @llvm.experimental.noalias.scope.decl(metadata !264)
  tail call void @llvm.experimental.noalias.scope.decl(metadata !267)
  tail call void @llvm.experimental.noalias.scope.decl(metadata !269)
  tail call void @llvm.experimental.noalias.scope.decl(metadata !272)
  %_14.i.i.i.i.i.i.i.i.i.i = getelementptr inbounds nuw i8, ptr %_3.i.i, i64 56
  %7 = getelementptr inbounds nuw i8, ptr %_3.i.i, i64 40
  %self1.sroa.5.0.self.sroa_idx.i.i.i.i.i.i.i.i.i = getelementptr inbounds nuw i8, ptr %_3.i.i, i64 8
  %args.sroa.4.0._2.i.sroa_idx.i.i.i.i.i.i.i.i = getelementptr inbounds nuw i8, ptr %_2.i.i.i.i.i.i.i.i1.i, i64 8
  %_14.i.i.i.i7.i.i.i.i.i.i = getelementptr inbounds nuw i8, ptr %_3.i.i, i64 88
  %8 = getelementptr inbounds nuw i8, ptr %_3.i.i, i64 72
  %_3.sroa.8.0.element.sroa_idx.i.i.i.i = getelementptr inbounds nuw i8, ptr %element.i.i.i.i, i64 4
  %9 = getelementptr inbounds nuw i8, ptr %_7.i.i, i64 16
  %10 = getelementptr inbounds nuw i8, ptr %_7.i.i, i64 8
  %11 = getelementptr inbounds nuw i8, ptr %_3.i.i, i64 48
  br label %bb1.i.i.i.i

bb1.i.i.i.i:                                      ; preds = %bb8.i.i.i.i, %bb2.i.i
  %12 = phi ptr [ %68, %bb8.i.i.i.i ], [ null, %bb2.i.i ]
  call void @llvm.lifetime.start.p0(i64 28, ptr nonnull %_3.sroa.8.i.i.i.i)
  call void @llvm.experimental.noalias.scope.decl(metadata !274)
  call void @llvm.experimental.noalias.scope.decl(metadata !277)
  %self.promoted.i.i.i.i.i.i = load i64, ptr %_3.i.i, align 8, !alias.scope !280, !noalias !281
  call void @llvm.experimental.noalias.scope.decl(metadata !284)
  call void @llvm.lifetime.start.p0(i64 28, ptr nonnull %x.i.sroa.6.i.i.i.i.i.i)
  %.not.i.peel.i.i.i.i.i.i = icmp eq ptr %12, null
  br i1 %.not.i.peel.i.i.i.i.i.i, label %_RINvNtCsjMrxcFdYDNN_4core3ptr13drop_in_placeINtNtB4_6option6OptionNtCs8M6BBVNvC7a_11proc_macro29TokenTreeEECs1SHOYL7dTh6_5quote.exit.peel.i.i.i.i.i.i, label %bb11.i.peel.i.i.i.i.i.i

bb11.i.peel.i.i.i.i.i.i:                          ; preds = %bb1.i.i.i.i
  call void @llvm.experimental.noalias.scope.decl(metadata !287)
  call void @llvm.experimental.noalias.scope.decl(metadata !290)
  call void @llvm.experimental.noalias.scope.decl(metadata !293)
  %_12.i.i.i.i.peel.i.i.i.i.i.i = load ptr, ptr %_14.i.i.i.i.i.i.i.i.i.i, align 8, !alias.scope !296, !noalias !297, !nonnull !9, !noundef !9
  %_21.i.i.i.i.peel.i.i.i.i.i.i = load ptr, ptr %7, align 8, !alias.scope !296, !noalias !297, !nonnull !9, !noundef !9
  %_9.i.i.i.i.peel.i.i.i.i.i.i = icmp eq ptr %_21.i.i.i.i.peel.i.i.i.i.i.i, %_12.i.i.i.i.peel.i.i.i.i.i.i
  br i1 %_9.i.i.i.i.peel.i.i.i.i.i.i, label %bb2.i.i.peel.i.i.i.i.i.i, label %_RNvYNvYINtNtCs8M6BBVNvC7a_11proc_macro25rcvec13RcVecIntoIterNtBa_9TokenTreeENtNtNtNtCsjMrxcFdYDNN_4core4iter6traits8iterator8Iterator4nextINtNtNtB1k_3ops8function6FnOnceTQB5_EE9call_onceCs1SHOYL7dTh6_5quote.exit.i.peel.i.i.i.i.i.i

_RNvYNvYINtNtCs8M6BBVNvC7a_11proc_macro25rcvec13RcVecIntoIterNtBa_9TokenTreeENtNtNtNtCsjMrxcFdYDNN_4core4iter6traits8iterator8Iterator4nextINtNtNtB1k_3ops8function6FnOnceTQB5_EE9call_onceCs1SHOYL7dTh6_5quote.exit.i.peel.i.i.i.i.i.i: ; preds = %bb11.i.peel.i.i.i.i.i.i
  %_23.i.i.i.i.peel.i.i.i.i.i.i = getelementptr inbounds nuw i8, ptr %_21.i.i.i.i.peel.i.i.i.i.i.i, i64 32
  store ptr %_23.i.i.i.i.peel.i.i.i.i.i.i, ptr %7, align 8, !alias.scope !296, !noalias !297
  %x.i.sroa.0.0.copyload.peel.i.i.i.i.i.i = load i32, ptr %_21.i.i.i.i.peel.i.i.i.i.i.i, align 8, !noalias !302
  %x.i.sroa.6.0._21.i.i.i.i.sroa_idx.peel.i.i.i.i.i.i = getelementptr inbounds nuw i8, ptr %_21.i.i.i.i.peel.i.i.i.i.i.i, i64 4
  call void @llvm.memcpy.p0.p0.i64(ptr noundef nonnull align 4 dereferenceable(28) %x.i.sroa.6.i.i.i.i.i.i, ptr noundef nonnull align 4 dereferenceable(28) %x.i.sroa.6.0._21.i.i.i.i.sroa_idx.peel.i.i.i.i.i.i, i64 28, i1 false), !noalias !302
  %.not3.i.peel.i.i.i.i.i.i = icmp eq i32 %x.i.sroa.0.0.copyload.peel.i.i.i.i.i.i, 4
  br i1 %.not3.i.peel.i.i.i.i.i.i, label %bb2.i.i.peel.i.i.i.i.i.i, label %bb2.thread.i.i.i.i

bb2.i.i.peel.i.i.i.i.i.i:                         ; preds = %_RNvYNvYINtNtCs8M6BBVNvC7a_11proc_macro25rcvec13RcVecIntoIterNtBa_9TokenTreeENtNtNtNtCsjMrxcFdYDNN_4core4iter6traits8iterator8Iterator4nextINtNtNtB1k_3ops8function6FnOnceTQB5_EE9call_onceCs1SHOYL7dTh6_5quote.exit.i.peel.i.i.i.i.i.i, %bb11.i.peel.i.i.i.i.i.i
  %self.val.i.i.i30.i.i = phi ptr [ %_23.i.i.i.i.peel.i.i.i.i.i.i, %_RNvYNvYINtNtCs8M6BBVNvC7a_11proc_macro25rcvec13RcVecIntoIterNtBa_9TokenTreeENtNtNtNtCsjMrxcFdYDNN_4core4iter6traits8iterator8Iterator4nextINtNtNtB1k_3ops8function6FnOnceTQB5_EE9call_onceCs1SHOYL7dTh6_5quote.exit.i.peel.i.i.i.i.i.i ], [ %_21.i.i.i.i.peel.i.i.i.i.i.i, %bb11.i.peel.i.i.i.i.i.i ]
  call void @llvm.experimental.noalias.scope.decl(metadata !303)
  call void @llvm.experimental.noalias.scope.decl(metadata !306), !noalias !309
  call void @llvm.experimental.noalias.scope.decl(metadata !310), !noalias !309
  %13 = ptrtoint ptr %_12.i.i.i.i.peel.i.i.i.i.i.i to i64
  %14 = ptrtoint ptr %self.val.i.i.i30.i.i to i64
  %15 = sub nuw i64 %13, %14
  %16 = lshr exact i64 %15, 5
  %_7.i.i.i.i3481.i.i = icmp eq ptr %_12.i.i.i.i.peel.i.i.i.i.i.i, %self.val.i.i.i30.i.i
  br i1 %_7.i.i.i.i3481.i.i, label %bb2.i.i.i50.i.i, label %bb5.i.i.i.i35.i.i

cleanup.body.i.i.i44.i.i:                         ; preds = %bb4.i.i.i.i38.i.i
  %capacity1.i.i.i.i.i45.i.i = load i64, ptr %11, align 8, !alias.scope !313, !noalias !314, !noundef !9
  %17 = icmp eq i64 %capacity1.i.i.i.i.i45.i.i, 0
  br i1 %17, label %bb9.i.i.i.i.i.i.i, label %bb2.i.i.i.i.i.i.i.i46.i.i

bb2.i.i.i.i.i.i.i.i46.i.i:                        ; preds = %cleanup.body.i.i.i44.i.i
  %ptr.i.i.i.i.i47.i.i = load ptr, ptr %_2.sroa.4.0._0.sroa_idx.i.i.i, align 8, !alias.scope !313, !noalias !314, !nonnull !9, !noundef !9
  br label %bb9.i.i.i.i.i.sink.split.i.i

bb5.i.i.i.i35.i.i:                                ; preds = %bb2.i.i.peel.i.i.i.i.i.i, %_RINvNtCsjMrxcFdYDNN_4core3ptr13drop_in_placeNtCs8M6BBVNvC7a_11proc_macro29TokenTreeECs1SHOYL7dTh6_5quote.exit.i.i
  %_3.sroa.0.0.i.i.i.i3382.i.i = phi i64 [ %18, %_RINvNtCsjMrxcFdYDNN_4core3ptr13drop_in_placeNtCs8M6BBVNvC7a_11proc_macro29TokenTreeECs1SHOYL7dTh6_5quote.exit.i.i ], [ 0, %bb2.i.i.peel.i.i.i.i.i.i ]
  %_6.i.i.i.i36.i.i = getelementptr inbounds nuw %"proc_macro2::TokenTree", ptr %self.val.i.i.i30.i.i, i64 %_3.sroa.0.0.i.i.i.i3382.i.i
  %18 = add nuw nsw i64 %_3.sroa.0.0.i.i.i.i3382.i.i, 1
  call void @llvm.experimental.noalias.scope.decl(metadata !315)
  %19 = load i32, ptr %_6.i.i.i.i36.i.i, align 8, !range !132, !alias.scope !315, !noalias !318, !noundef !9
  switch i32 %19, label %default.unreachable [
    i32 0, label %bb2.i.i.i
    i32 1, label %bb3.i.i.i
    i32 2, label %_RINvNtCsjMrxcFdYDNN_4core3ptr13drop_in_placeNtCs8M6BBVNvC7a_11proc_macro29TokenTreeECs1SHOYL7dTh6_5quote.exit.i.i
    i32 3, label %bb4.i.i.i
  ]

default.unreachable:                              ; preds = %bb5.i.i.i.i35.i.i
  unreachable

bb4.i.i.i:                                        ; preds = %bb5.i.i.i.i35.i.i
  %20 = getelementptr inbounds nuw i8, ptr %_6.i.i.i.i36.i.i, i64 8
  %.val.i.i.i = load i64, ptr %20, align 8, !range !60, !alias.scope !315, !noalias !318, !noundef !9
  switch i64 %.val.i.i.i, label %bb2.i.i.i4.i.i.i.i.i.i.i.i [
    i64 -9223372036854775808, label %_RINvNtCsjMrxcFdYDNN_4core3ptr13drop_in_placeNtCs8M6BBVNvC7a_11proc_macro29TokenTreeECs1SHOYL7dTh6_5quote.exit.i.i
    i64 0, label %_RINvNtCsjMrxcFdYDNN_4core3ptr13drop_in_placeNtCs8M6BBVNvC7a_11proc_macro29TokenTreeECs1SHOYL7dTh6_5quote.exit.i.i
  ]

bb2.i.i.i4.i.i.i.i.i.i.i.i:                       ; preds = %bb4.i.i.i
  %21 = getelementptr inbounds nuw i8, ptr %_6.i.i.i.i36.i.i, i64 16
  %.val1.i.i.i = load ptr, ptr %21, align 8, !alias.scope !315, !noalias !318, !nonnull !9, !noundef !9
; call __rustc::__rust_dealloc
  call void @_RNvCsKhRCbHf33p_7___rustc14___rust_dealloc(ptr noundef nonnull %.val1.i.i.i, i64 noundef %.val.i.i.i, i64 noundef range(i64 1, -9223372036854775807) 1) #21, !noalias !319
  br label %_RINvNtCsjMrxcFdYDNN_4core3ptr13drop_in_placeNtCs8M6BBVNvC7a_11proc_macro29TokenTreeECs1SHOYL7dTh6_5quote.exit.i.i

bb2.i.i.i:                                        ; preds = %bb5.i.i.i.i35.i.i
  %22 = getelementptr inbounds nuw i8, ptr %_6.i.i.i.i36.i.i, i64 8
  %23 = load i32, ptr %22, align 8, !range !95, !alias.scope !322, !noalias !318, !noundef !9
  %24 = icmp eq i32 %23, 0
  br i1 %24, label %bb2.i.i.i57.i.i, label %bb3.i.i.i.i.i

bb2.i.i.i57.i.i:                                  ; preds = %bb2.i.i.i
  %25 = getelementptr inbounds nuw i8, ptr %_6.i.i.i.i36.i.i, i64 24
  %26 = load i32, ptr %25, align 4, !alias.scope !327, !noalias !318, !noundef !9
  %27 = icmp eq i32 %26, 0
  br i1 %27, label %_RINvNtCsjMrxcFdYDNN_4core3ptr13drop_in_placeNtCs8M6BBVNvC7a_11proc_macro29TokenTreeECs1SHOYL7dTh6_5quote.exit.i.i, label %bb2.i.i.i.i.i.i58.i.i

bb2.i.i.i.i.i.i58.i.i:                            ; preds = %bb2.i.i.i57.i.i
; invoke <proc_macro::bridge::client::TokenStream as core::ops::drop::Drop>::drop
  invoke void @_RNvXsi_NtNtCsbtZo8rQoR5w_10proc_macro6bridge6clientNtB5_11TokenStreamNtNtNtCsjMrxcFdYDNN_4core3ops4drop4Drop4drop(ptr noalias noundef nonnull align 4 dereferenceable(4) %25)
          to label %_RINvNtCsjMrxcFdYDNN_4core3ptr13drop_in_placeNtCs8M6BBVNvC7a_11proc_macro29TokenTreeECs1SHOYL7dTh6_5quote.exit.i.i unwind label %cleanup.i.i.i.i37.i.i, !noalias !257

bb3.i.i.i.i.i:                                    ; preds = %bb2.i.i.i
  %28 = getelementptr inbounds nuw i8, ptr %_6.i.i.i.i36.i.i, i64 16
; invoke <proc_macro2::fallback::TokenStream as core::ops::drop::Drop>::drop
  invoke void @_RNvXs0_NtCs8M6BBVNvC7a_11proc_macro28fallbackNtB5_11TokenStreamNtNtNtCsjMrxcFdYDNN_4core3ops4drop4Drop4drop(ptr noalias noundef nonnull align 8 dereferenceable(16) %28)
          to label %bb4.i.i.i.i.i.i.i unwind label %cleanup.i.i.i.i.i.i.i, !noalias !318

cleanup.i.i.i.i.i.i.i:                            ; preds = %bb3.i.i.i.i.i
  %29 = landingpad { ptr, i32 }
          cleanup
  call void @llvm.experimental.noalias.scope.decl(metadata !334), !noalias !337
  call void @llvm.experimental.noalias.scope.decl(metadata !338), !noalias !337
  call void @llvm.experimental.noalias.scope.decl(metadata !341), !noalias !337
  %_5.i.i.i.i.i.i.i.i.i.i = load ptr, ptr %28, align 8, !alias.scope !344, !noalias !318, !nonnull !9, !noundef !9
  %_8.i.i.i.i.i.i.i.i.i.i = load i64, ptr %_5.i.i.i.i.i.i.i.i.i.i, align 8, !noalias !349, !noundef !9
  %val.i.i.i.i.i.i.i.i.i.i = add i64 %_8.i.i.i.i.i.i.i.i.i.i, -1
  store i64 %val.i.i.i.i.i.i.i.i.i.i, ptr %_5.i.i.i.i.i.i.i.i.i.i, align 8, !noalias !349
  %30 = icmp eq i64 %val.i.i.i.i.i.i.i.i.i.i, 0
  br i1 %30, label %bb1.i.i.i.i.i.i.i.i.i.i, label %cleanup.i.i.i.i37.body.i.i

bb1.i.i.i.i.i.i.i.i.i.i:                          ; preds = %cleanup.i.i.i.i.i.i.i
; invoke <alloc::rc::Rc<alloc::vec::Vec<proc_macro2::TokenTree>>>::drop_slow
  invoke void @_RNvMs6_NtCsdJPVW0sQgAG_5alloc2rcINtB5_2RcINtNtB7_3vec3VecNtCs8M6BBVNvC7a_11proc_macro29TokenTreeEE9drop_slowBV_(ptr noalias noundef nonnull align 8 dereferenceable(16) %28) #25
          to label %cleanup.i.i.i.i37.body.i.i unwind label %terminate.i.i.i.i.i.i.i, !noalias !318

bb4.i.i.i.i.i.i.i:                                ; preds = %bb3.i.i.i.i.i
  call void @llvm.experimental.noalias.scope.decl(metadata !350), !noalias !337
  call void @llvm.experimental.noalias.scope.decl(metadata !353), !noalias !337
  call void @llvm.experimental.noalias.scope.decl(metadata !356), !noalias !337
  %_5.i.i.i1.i.i.i.i.i.i.i = load ptr, ptr %28, align 8, !alias.scope !359, !noalias !318, !nonnull !9, !noundef !9
  %_8.i.i.i2.i.i.i.i.i.i.i = load i64, ptr %_5.i.i.i1.i.i.i.i.i.i.i, align 8, !noalias !360, !noundef !9
  %val.i.i.i3.i.i.i.i.i.i.i = add i64 %_8.i.i.i2.i.i.i.i.i.i.i, -1
  store i64 %val.i.i.i3.i.i.i.i.i.i.i, ptr %_5.i.i.i1.i.i.i.i.i.i.i, align 8, !noalias !360
  %31 = icmp eq i64 %val.i.i.i3.i.i.i.i.i.i.i, 0
  br i1 %31, label %bb1.i.i.i4.i.i.i.i.i.i.i, label %_RINvNtCsjMrxcFdYDNN_4core3ptr13drop_in_placeNtCs8M6BBVNvC7a_11proc_macro29TokenTreeECs1SHOYL7dTh6_5quote.exit.i.i

bb1.i.i.i4.i.i.i.i.i.i.i:                         ; preds = %bb4.i.i.i.i.i.i.i
; invoke <alloc::rc::Rc<alloc::vec::Vec<proc_macro2::TokenTree>>>::drop_slow
  invoke void @_RNvMs6_NtCsdJPVW0sQgAG_5alloc2rcINtB5_2RcINtNtB7_3vec3VecNtCs8M6BBVNvC7a_11proc_macro29TokenTreeEE9drop_slowBV_(ptr noalias noundef nonnull align 8 dereferenceable(16) %28) #25
          to label %_RINvNtCsjMrxcFdYDNN_4core3ptr13drop_in_placeNtCs8M6BBVNvC7a_11proc_macro29TokenTreeECs1SHOYL7dTh6_5quote.exit.i.i unwind label %cleanup.i.i.i.i37.i.i, !noalias !257

terminate.i.i.i.i.i.i.i:                          ; preds = %bb1.i.i.i.i.i.i.i.i.i.i
  %32 = landingpad { ptr, i32 }
          filter [0 x ptr] zeroinitializer
; call core::panicking::panic_in_cleanup
  call void @_RNvNtCsjMrxcFdYDNN_4core9panicking16panic_in_cleanup() #23, !noalias !318
  unreachable

bb3.i.i.i:                                        ; preds = %bb5.i.i.i.i35.i.i
  %33 = getelementptr inbounds nuw i8, ptr %_6.i.i.i.i36.i.i, i64 8
  call void @llvm.experimental.noalias.scope.decl(metadata !361), !noalias !337
  call void @llvm.experimental.noalias.scope.decl(metadata !364), !noalias !337
  %34 = getelementptr inbounds nuw i8, ptr %_6.i.i.i.i36.i.i, i64 24
  %35 = load i8, ptr %34, align 8, !range !180, !alias.scope !367, !noalias !318, !noundef !9
  %36 = icmp eq i8 %35, 2
  br i1 %36, label %_RINvNtCsjMrxcFdYDNN_4core3ptr13drop_in_placeNtCs8M6BBVNvC7a_11proc_macro29TokenTreeECs1SHOYL7dTh6_5quote.exit.i.i, label %bb2.i.i2.i.i.i

bb2.i.i2.i.i.i:                                   ; preds = %bb3.i.i.i
  %37 = getelementptr inbounds nuw i8, ptr %_6.i.i.i.i36.i.i, i64 16
  %_1.val1.i.i.i.i.i = load i64, ptr %37, align 8, !alias.scope !367, !noalias !318, !noundef !9
  %38 = icmp eq i64 %_1.val1.i.i.i.i.i, 0
  br i1 %38, label %_RINvNtCsjMrxcFdYDNN_4core3ptr13drop_in_placeNtCs8M6BBVNvC7a_11proc_macro29TokenTreeECs1SHOYL7dTh6_5quote.exit.i.i, label %_RNvXs_NtCsdJPVW0sQgAG_5alloc5allocNtB4_6GlobalNtNtCsjMrxcFdYDNN_4core5alloc9Allocator10deallocate.exit.i.i.i.i.i.i.i.i

_RNvXs_NtCsdJPVW0sQgAG_5alloc5allocNtB4_6GlobalNtNtCsjMrxcFdYDNN_4core5alloc9Allocator10deallocate.exit.i.i.i.i.i.i.i.i: ; preds = %bb2.i.i2.i.i.i
  %_1.val.i.i.i.i.i = load ptr, ptr %33, align 8, !alias.scope !367, !noalias !318, !nonnull !9, !noundef !9
; call __rustc::__rust_dealloc
  call void @_RNvCsKhRCbHf33p_7___rustc14___rust_dealloc(ptr noundef nonnull %_1.val.i.i.i.i.i, i64 noundef %_1.val1.i.i.i.i.i, i64 noundef 1) #21, !noalias !368
  br label %_RINvNtCsjMrxcFdYDNN_4core3ptr13drop_in_placeNtCs8M6BBVNvC7a_11proc_macro29TokenTreeECs1SHOYL7dTh6_5quote.exit.i.i

_RINvNtCsjMrxcFdYDNN_4core3ptr13drop_in_placeNtCs8M6BBVNvC7a_11proc_macro29TokenTreeECs1SHOYL7dTh6_5quote.exit.i.i: ; preds = %_RNvXs_NtCsdJPVW0sQgAG_5alloc5allocNtB4_6GlobalNtNtCsjMrxcFdYDNN_4core5alloc9Allocator10deallocate.exit.i.i.i.i.i.i.i.i, %bb2.i.i2.i.i.i, %bb3.i.i.i, %bb1.i.i.i4.i.i.i.i.i.i.i, %bb4.i.i.i.i.i.i.i, %bb2.i.i.i.i.i.i58.i.i, %bb2.i.i.i57.i.i, %bb2.i.i.i4.i.i.i.i.i.i.i.i, %bb4.i.i.i, %bb4.i.i.i, %bb5.i.i.i.i35.i.i
  %_7.i.i.i.i34.i.i = icmp eq i64 %18, %16
  br i1 %_7.i.i.i.i34.i.i, label %bb2.i.i.i50.i.i, label %bb5.i.i.i.i35.i.i

bb4.i.i.i.i38.i.i:                                ; preds = %bb3.i.i.i.i41.i.i, %cleanup.i.i.i.i37.body.i.i
  %_3.sroa.0.1.i.i.i.i39.i.i = phi i64 [ %18, %cleanup.i.i.i.i37.body.i.i ], [ %40, %bb3.i.i.i.i41.i.i ]
  %_5.i.i.i.i40.i.i = icmp eq i64 %_3.sroa.0.1.i.i.i.i39.i.i, %16
  br i1 %_5.i.i.i.i40.i.i, label %cleanup.body.i.i.i44.i.i, label %bb3.i.i.i.i41.i.i

cleanup.i.i.i.i37.i.i:                            ; preds = %bb1.i.i.i4.i.i.i.i.i.i.i, %bb2.i.i.i.i.i.i58.i.i
  %39 = landingpad { ptr, i32 }
          cleanup
  br label %cleanup.i.i.i.i37.body.i.i

cleanup.i.i.i.i37.body.i.i:                       ; preds = %cleanup.i.i.i.i37.i.i, %bb1.i.i.i.i.i.i.i.i.i.i, %cleanup.i.i.i.i.i.i.i
  %eh.lpad-body61.i.i = phi { ptr, i32 } [ %39, %cleanup.i.i.i.i37.i.i ], [ %29, %bb1.i.i.i.i.i.i.i.i.i.i ], [ %29, %cleanup.i.i.i.i.i.i.i ]
  br label %bb4.i.i.i.i38.i.i

bb3.i.i.i.i41.i.i:                                ; preds = %bb4.i.i.i.i38.i.i
  %_4.i.i.i.i42.i.i = getelementptr inbounds nuw %"proc_macro2::TokenTree", ptr %self.val.i.i.i30.i.i, i64 %_3.sroa.0.1.i.i.i.i39.i.i
  %40 = add i64 %_3.sroa.0.1.i.i.i.i39.i.i, 1
; invoke core::ptr::drop_in_place::<proc_macro2::TokenTree>
  invoke fastcc void @_RINvNtCsjMrxcFdYDNN_4core3ptr13drop_in_placeNtCs8M6BBVNvC7a_11proc_macro29TokenTreeECs1SHOYL7dTh6_5quote(ptr noalias noundef align 8 dereferenceable(32) %_4.i.i.i.i42.i.i) #22
          to label %bb4.i.i.i.i38.i.i unwind label %terminate.i.i.i.i43.i.i, !noalias !318

terminate.i.i.i.i43.i.i:                          ; preds = %bb3.i.i.i.i41.i.i
  %41 = landingpad { ptr, i32 }
          filter [0 x ptr] zeroinitializer
; call core::panicking::panic_in_cleanup
  call void @_RNvNtCsjMrxcFdYDNN_4core9panicking16panic_in_cleanup() #23, !noalias !318
  unreachable

bb2.i.i.i50.i.i:                                  ; preds = %_RINvNtCsjMrxcFdYDNN_4core3ptr13drop_in_placeNtCs8M6BBVNvC7a_11proc_macro29TokenTreeECs1SHOYL7dTh6_5quote.exit.i.i, %bb2.i.i.peel.i.i.i.i.i.i
  %capacity1.i.i3.i.i.i51.i.i = load i64, ptr %11, align 8, !alias.scope !313, !noalias !314, !noundef !9
  %42 = icmp eq i64 %capacity1.i.i3.i.i.i51.i.i, 0
  br i1 %42, label %_RINvNtNtNtCsjMrxcFdYDNN_4core4iter8adapters7flatten17and_then_or_clearINtNtCs8M6BBVNvC7a_11proc_macro25rcvec13RcVecIntoIterNtB1b_9TokenTreeEB1X_NvYB16_NtNtNtB6_6traits8iterator8Iterator4nextECs1SHOYL7dTh6_5quote.exit.thread25.peel.i.i.i.i.i.i, label %bb2.i.i.i.i.i4.i.i.i52.i.i

bb2.i.i.i.i.i4.i.i.i52.i.i:                       ; preds = %bb2.i.i.i50.i.i
  %ptr.i.i5.i.i.i53.i.i = load ptr, ptr %_2.sroa.4.0._0.sroa_idx.i.i.i, align 8, !alias.scope !313, !noalias !314, !nonnull !9, !noundef !9
  %alloc_size.i.i.i.i.i.i6.i.i.i54.i.i = shl nuw i64 %capacity1.i.i3.i.i.i51.i.i, 5
; call __rustc::__rust_dealloc
  call void @_RNvCsKhRCbHf33p_7___rustc14___rust_dealloc(ptr noundef nonnull %ptr.i.i5.i.i.i53.i.i, i64 noundef %alloc_size.i.i.i.i.i.i6.i.i.i54.i.i, i64 noundef range(i64 1, -9223372036854775807) 8) #21, !noalias !318
  br label %_RINvNtNtNtCsjMrxcFdYDNN_4core4iter8adapters7flatten17and_then_or_clearINtNtCs8M6BBVNvC7a_11proc_macro25rcvec13RcVecIntoIterNtB1b_9TokenTreeEB1X_NvYB16_NtNtNtB6_6traits8iterator8Iterator4nextECs1SHOYL7dTh6_5quote.exit.thread25.peel.i.i.i.i.i.i

_RINvNtNtNtCsjMrxcFdYDNN_4core4iter8adapters7flatten17and_then_or_clearINtNtCs8M6BBVNvC7a_11proc_macro25rcvec13RcVecIntoIterNtB1b_9TokenTreeEB1X_NvYB16_NtNtNtB6_6traits8iterator8Iterator4nextECs1SHOYL7dTh6_5quote.exit.thread25.peel.i.i.i.i.i.i: ; preds = %bb2.i.i.i.i.i4.i.i.i52.i.i, %bb2.i.i.i50.i.i
  store ptr null, ptr %_2.sroa.4.0._0.sroa_idx.i.i.i, align 8, !alias.scope !369, !noalias !314
  br label %_RINvNtCsjMrxcFdYDNN_4core3ptr13drop_in_placeINtNtB4_6option6OptionNtCs8M6BBVNvC7a_11proc_macro29TokenTreeEECs1SHOYL7dTh6_5quote.exit.peel.i.i.i.i.i.i

_RINvNtCsjMrxcFdYDNN_4core3ptr13drop_in_placeINtNtB4_6option6OptionNtCs8M6BBVNvC7a_11proc_macro29TokenTreeEECs1SHOYL7dTh6_5quote.exit.peel.i.i.i.i.i.i: ; preds = %_RINvNtNtNtCsjMrxcFdYDNN_4core4iter8adapters7flatten17and_then_or_clearINtNtCs8M6BBVNvC7a_11proc_macro25rcvec13RcVecIntoIterNtB1b_9TokenTreeEB1X_NvYB16_NtNtNtB6_6traits8iterator8Iterator4nextECs1SHOYL7dTh6_5quote.exit.thread25.peel.i.i.i.i.i.i, %bb1.i.i.i.i
  call void @llvm.lifetime.end.p0(i64 28, ptr nonnull %x.i.sroa.6.i.i.i.i.i.i)
  call void @llvm.experimental.noalias.scope.decl(metadata !370)
  %.not.i2.peel.i.i.i.i.i.i = icmp eq i64 %self.promoted.i.i.i.i.i.i, -9223372036854775806
  br i1 %.not.i2.peel.i.i.i.i.i.i, label %bb8.i.i.i.i.i.i, label %bb5.i.peel.i.i.i.i.i.i

bb5.i.peel.i.i.i.i.i.i:                           ; preds = %_RINvNtCsjMrxcFdYDNN_4core3ptr13drop_in_placeINtNtB4_6option6OptionNtCs8M6BBVNvC7a_11proc_macro29TokenTreeEECs1SHOYL7dTh6_5quote.exit.peel.i.i.i.i.i.i
  call void @llvm.experimental.noalias.scope.decl(metadata !373)
  store i64 -9223372036854775807, ptr %_3.i.i, align 8, !alias.scope !376, !noalias !381
  %.not.i.i.i.peel.i.i.i.i.i.i = icmp eq i64 %self.promoted.i.i.i.i.i.i, -9223372036854775807
  br i1 %.not.i.i.i.peel.i.i.i.i.i.i, label %bb8.i.i.i.i.i.i, label %bb1.i.i.i.i.i.i

bb1.i.i.i.i.i.i:                                  ; preds = %bb5.i.peel.i.i.i.i.i.i
  call void @llvm.lifetime.start.p0(i64 32, ptr nonnull %_2.i.i.i.i.i.i.i.i1.i), !noalias !384
  call void @llvm.memcpy.p0.p0.i64(ptr noundef nonnull align 8 dereferenceable(24) %args.sroa.4.0._2.i.sroa_idx.i.i.i.i.i.i.i.i, ptr noundef nonnull align 8 dereferenceable(24) %self1.sroa.5.0.self.sroa_idx.i.i.i.i.i.i.i.i.i, i64 24, i1 false), !noalias !281
  store i64 %self.promoted.i.i.i.i.i.i, ptr %_2.i.i.i.i.i.i.i.i1.i, align 8, !noalias !384
; invoke <proc_macro2::imp::TokenStream>::unwrap_stable
  %_0.i.i.i.peel.i.i5.i.i.i.i = invoke noundef nonnull ptr @_RNvMs_NtCs8M6BBVNvC7a_11proc_macro23impNtB4_11TokenStream13unwrap_stable(ptr noalias noundef nonnull align 8 captures(address) dereferenceable(32) %_2.i.i.i.i.i.i.i.i1.i)
          to label %_0.i.i.i.peel.i.i.noexc.i.i.i.i unwind label %cleanup.i.i.i.i, !noalias !385

_0.i.i.i.peel.i.i.noexc.i.i.i.i:                  ; preds = %bb1.i.i.i.i.i.i
  call void @llvm.lifetime.end.p0(i64 32, ptr nonnull %_2.i.i.i.i.i.i.i.i1.i), !noalias !384
  call void @llvm.lifetime.start.p0(i64 32, ptr nonnull %_10.i.i.i.i.i.i), !noalias !386
; invoke <proc_macro2::fallback::TokenStream as core::iter::traits::collect::IntoIterator>::into_iter
  invoke void @_RNvXsc_NtCs8M6BBVNvC7a_11proc_macro28fallbackNtB5_11TokenStreamNtNtNtNtCsjMrxcFdYDNN_4core4iter6traits7collect12IntoIterator9into_iter(ptr noalias noundef nonnull sret([32 x i8]) align 8 captures(none) dereferenceable(32) %_10.i.i.i.i.i.i, ptr noundef nonnull %_0.i.i.i.peel.i.i5.i.i.i.i)
          to label %.noexc.i.i.i.i unwind label %cleanup.i.i.i.i, !noalias !385

.noexc.i.i.i.i:                                   ; preds = %_0.i.i.i.peel.i.i.noexc.i.i.i.i
  call void @llvm.memcpy.p0.p0.i64(ptr noundef nonnull align 8 dereferenceable(32) %_2.sroa.4.0._0.sroa_idx.i.i.i, ptr noundef nonnull align 8 dereferenceable(32) %_10.i.i.i.i.i.i, i64 32, i1 false), !noalias !281
  call void @llvm.lifetime.end.p0(i64 32, ptr nonnull %_10.i.i.i.i.i.i), !noalias !386
  %.pre.i.i.i.i.i.i = load ptr, ptr %_2.sroa.4.0._0.sroa_idx.i.i.i, align 8, !alias.scope !387, !noalias !389
  call void @llvm.experimental.noalias.scope.decl(metadata !391)
  call void @llvm.lifetime.start.p0(i64 28, ptr nonnull %x.i.sroa.6.i.i.i.i.i.i)
  %.not.i.i.i.i.i.i.i = icmp eq ptr %.pre.i.i.i.i.i.i, null
  br i1 %.not.i.i.i.i.i.i.i, label %bb8.loopexit.i.i.i.i.i.i, label %bb11.i.i.i.i.i.i.i

bb11.i.i.i.i.i.i.i:                               ; preds = %.noexc.i.i.i.i
  call void @llvm.experimental.noalias.scope.decl(metadata !392)
  call void @llvm.experimental.noalias.scope.decl(metadata !394)
  call void @llvm.experimental.noalias.scope.decl(metadata !396)
  %_12.i.i.i.i.i.i.i.i.i.i = load ptr, ptr %_14.i.i.i.i.i.i.i.i.i.i, align 8, !alias.scope !398, !noalias !399, !nonnull !9, !noundef !9
  %_21.i.i.i.i.i.i.i.i.i.i = load ptr, ptr %7, align 8, !alias.scope !398, !noalias !399, !nonnull !9, !noundef !9
  %_9.i.i.i.i.i.i.i.i.i.i = icmp eq ptr %_21.i.i.i.i.i.i.i.i.i.i, %_12.i.i.i.i.i.i.i.i.i.i
  br i1 %_9.i.i.i.i.i.i.i.i.i.i, label %bb2.i.i.i.i.i.i.i5.i, label %_RNvYNvYINtNtCs8M6BBVNvC7a_11proc_macro25rcvec13RcVecIntoIterNtBa_9TokenTreeENtNtNtNtCsjMrxcFdYDNN_4core4iter6traits8iterator8Iterator4nextINtNtNtB1k_3ops8function6FnOnceTQB5_EE9call_onceCs1SHOYL7dTh6_5quote.exit.i.i.i.i.i.i.i

_RNvYNvYINtNtCs8M6BBVNvC7a_11proc_macro25rcvec13RcVecIntoIterNtBa_9TokenTreeENtNtNtNtCsjMrxcFdYDNN_4core4iter6traits8iterator8Iterator4nextINtNtNtB1k_3ops8function6FnOnceTQB5_EE9call_onceCs1SHOYL7dTh6_5quote.exit.i.i.i.i.i.i.i: ; preds = %bb11.i.i.i.i.i.i.i
  %_23.i.i.i.i.i.i.i.i.i.i = getelementptr inbounds nuw i8, ptr %_21.i.i.i.i.i.i.i.i.i.i, i64 32
  store ptr %_23.i.i.i.i.i.i.i.i.i.i, ptr %7, align 8, !alias.scope !398, !noalias !399
  %x.i.sroa.0.0.copyload.i.i.i.i.i.i = load i32, ptr %_21.i.i.i.i.i.i.i.i.i.i, align 8, !noalias !400
  %x.i.sroa.6.0._21.i.i.i.i.sroa_idx.i.i.i.i.i.i = getelementptr inbounds nuw i8, ptr %_21.i.i.i.i.i.i.i.i.i.i, i64 4
  call void @llvm.memcpy.p0.p0.i64(ptr noundef nonnull align 4 dereferenceable(28) %x.i.sroa.6.i.i.i.i.i.i, ptr noundef nonnull align 4 dereferenceable(28) %x.i.sroa.6.0._21.i.i.i.i.sroa_idx.i.i.i.i.i.i, i64 28, i1 false), !noalias !400
  %.not3.i.i.i.i.i.i.i = icmp eq i32 %x.i.sroa.0.0.copyload.i.i.i.i.i.i, 4
  br i1 %.not3.i.i.i.i.i.i.i, label %bb2.i.i.i.i.i.i.i5.i, label %bb2.thread.i.i.i.i

bb2.i.i.i.i.i.i.i5.i:                             ; preds = %_RNvYNvYINtNtCs8M6BBVNvC7a_11proc_macro25rcvec13RcVecIntoIterNtBa_9TokenTreeENtNtNtNtCsjMrxcFdYDNN_4core4iter6traits8iterator8Iterator4nextINtNtNtB1k_3ops8function6FnOnceTQB5_EE9call_onceCs1SHOYL7dTh6_5quote.exit.i.i.i.i.i.i.i, %bb11.i.i.i.i.i.i.i
  %self.val.i.i.i3.i.i = phi ptr [ %_23.i.i.i.i.i.i.i.i.i.i, %_RNvYNvYINtNtCs8M6BBVNvC7a_11proc_macro25rcvec13RcVecIntoIterNtBa_9TokenTreeENtNtNtNtCsjMrxcFdYDNN_4core4iter6traits8iterator8Iterator4nextINtNtNtB1k_3ops8function6FnOnceTQB5_EE9call_onceCs1SHOYL7dTh6_5quote.exit.i.i.i.i.i.i.i ], [ %_21.i.i.i.i.i.i.i.i.i.i, %bb11.i.i.i.i.i.i.i ]
  call void @llvm.experimental.noalias.scope.decl(metadata !401)
  call void @llvm.experimental.noalias.scope.decl(metadata !404), !noalias !407
  call void @llvm.experimental.noalias.scope.decl(metadata !408), !noalias !407
  %43 = ptrtoint ptr %_12.i.i.i.i.i.i.i.i.i.i to i64
  %44 = ptrtoint ptr %self.val.i.i.i3.i.i to i64
  %45 = sub nuw i64 %43, %44
  %46 = lshr exact i64 %45, 5
  br label %bb6.i.i.i.i5.i.i

cleanup.body.i.i.i17.i.i:                         ; preds = %bb4.i.i.i.i11.i.i
  %capacity1.i.i.i.i.i18.i.i = load i64, ptr %11, align 8, !alias.scope !411, !noalias !389, !noundef !9
  %47 = icmp eq i64 %capacity1.i.i.i.i.i18.i.i, 0
  br i1 %47, label %bb9.i.i.i.i.i.i.i, label %bb9.i.i.i.i.i.sink.split.i.i

bb6.i.i.i.i5.i.i:                                 ; preds = %bb5.i.i.i.i8.i.i, %bb2.i.i.i.i.i.i.i5.i
  %_3.sroa.0.0.i.i.i.i6.i.i = phi i64 [ 0, %bb2.i.i.i.i.i.i.i5.i ], [ %48, %bb5.i.i.i.i8.i.i ]
  %_7.i.i.i.i7.i.i = icmp eq i64 %_3.sroa.0.0.i.i.i.i6.i.i, %46
  br i1 %_7.i.i.i.i7.i.i, label %bb2.i.i.i23.i.i, label %bb5.i.i.i.i8.i.i

bb5.i.i.i.i8.i.i:                                 ; preds = %bb6.i.i.i.i5.i.i
  %_6.i.i.i.i9.i.i = getelementptr inbounds nuw %"proc_macro2::TokenTree", ptr %self.val.i.i.i3.i.i, i64 %_3.sroa.0.0.i.i.i.i6.i.i
  %48 = add nuw nsw i64 %_3.sroa.0.0.i.i.i.i6.i.i, 1
; invoke core::ptr::drop_in_place::<proc_macro2::TokenTree>
  invoke fastcc void @_RINvNtCsjMrxcFdYDNN_4core3ptr13drop_in_placeNtCs8M6BBVNvC7a_11proc_macro29TokenTreeECs1SHOYL7dTh6_5quote(ptr noalias noundef align 8 dereferenceable(32) %_6.i.i.i.i9.i.i)
          to label %bb6.i.i.i.i5.i.i unwind label %cleanup.i.i.i.i10.i.i, !noalias !412

bb4.i.i.i.i11.i.i:                                ; preds = %bb3.i.i.i.i14.i.i, %cleanup.i.i.i.i10.i.i
  %_3.sroa.0.1.i.i.i.i12.i.i = phi i64 [ %48, %cleanup.i.i.i.i10.i.i ], [ %50, %bb3.i.i.i.i14.i.i ]
  %_5.i.i.i.i13.i.i = icmp eq i64 %_3.sroa.0.1.i.i.i.i12.i.i, %46
  br i1 %_5.i.i.i.i13.i.i, label %cleanup.body.i.i.i17.i.i, label %bb3.i.i.i.i14.i.i

cleanup.i.i.i.i10.i.i:                            ; preds = %bb5.i.i.i.i8.i.i
  %49 = landingpad { ptr, i32 }
          cleanup
  br label %bb4.i.i.i.i11.i.i

bb3.i.i.i.i14.i.i:                                ; preds = %bb4.i.i.i.i11.i.i
  %_4.i.i.i.i15.i.i = getelementptr inbounds nuw %"proc_macro2::TokenTree", ptr %self.val.i.i.i3.i.i, i64 %_3.sroa.0.1.i.i.i.i12.i.i
  %50 = add i64 %_3.sroa.0.1.i.i.i.i12.i.i, 1
; invoke core::ptr::drop_in_place::<proc_macro2::TokenTree>
  invoke fastcc void @_RINvNtCsjMrxcFdYDNN_4core3ptr13drop_in_placeNtCs8M6BBVNvC7a_11proc_macro29TokenTreeECs1SHOYL7dTh6_5quote(ptr noalias noundef align 8 dereferenceable(32) %_4.i.i.i.i15.i.i) #22
          to label %bb4.i.i.i.i11.i.i unwind label %terminate.i.i.i.i16.i.i, !noalias !412

terminate.i.i.i.i16.i.i:                          ; preds = %bb3.i.i.i.i14.i.i
  %51 = landingpad { ptr, i32 }
          filter [0 x ptr] zeroinitializer
; call core::panicking::panic_in_cleanup
  call void @_RNvNtCsjMrxcFdYDNN_4core9panicking16panic_in_cleanup() #23, !noalias !412
  unreachable

bb2.i.i.i23.i.i:                                  ; preds = %bb6.i.i.i.i5.i.i
  %capacity1.i.i3.i.i.i24.i.i = load i64, ptr %11, align 8, !alias.scope !411, !noalias !389, !noundef !9
  %52 = icmp eq i64 %capacity1.i.i3.i.i.i24.i.i, 0
  br i1 %52, label %_RINvNtNtNtCsjMrxcFdYDNN_4core4iter8adapters7flatten17and_then_or_clearINtNtCs8M6BBVNvC7a_11proc_macro25rcvec13RcVecIntoIterNtB1b_9TokenTreeEB1X_NvYB16_NtNtNtB6_6traits8iterator8Iterator4nextECs1SHOYL7dTh6_5quote.exit.thread25.i.i.i.i.i.i, label %bb2.i.i.i.i.i4.i.i.i25.i.i

bb2.i.i.i.i.i4.i.i.i25.i.i:                       ; preds = %bb2.i.i.i23.i.i
  %alloc_size.i.i.i.i.i.i6.i.i.i27.i.i = shl nuw i64 %capacity1.i.i3.i.i.i24.i.i, 5
; call __rustc::__rust_dealloc
  call void @_RNvCsKhRCbHf33p_7___rustc14___rust_dealloc(ptr noundef nonnull %.pre.i.i.i.i.i.i, i64 noundef %alloc_size.i.i.i.i.i.i6.i.i.i27.i.i, i64 noundef range(i64 1, -9223372036854775807) 8) #21, !noalias !412
  br label %_RINvNtNtNtCsjMrxcFdYDNN_4core4iter8adapters7flatten17and_then_or_clearINtNtCs8M6BBVNvC7a_11proc_macro25rcvec13RcVecIntoIterNtB1b_9TokenTreeEB1X_NvYB16_NtNtNtB6_6traits8iterator8Iterator4nextECs1SHOYL7dTh6_5quote.exit.thread25.i.i.i.i.i.i

_RINvNtNtNtCsjMrxcFdYDNN_4core4iter8adapters7flatten17and_then_or_clearINtNtCs8M6BBVNvC7a_11proc_macro25rcvec13RcVecIntoIterNtB1b_9TokenTreeEB1X_NvYB16_NtNtNtB6_6traits8iterator8Iterator4nextECs1SHOYL7dTh6_5quote.exit.thread25.i.i.i.i.i.i: ; preds = %bb2.i.i.i.i.i4.i.i.i25.i.i, %bb2.i.i.i23.i.i
  store ptr null, ptr %_2.sroa.4.0._0.sroa_idx.i.i.i, align 8, !alias.scope !387, !noalias !389
  br label %bb8.loopexit.i.i.i.i.i.i

bb9.i.i.i.i.i.sink.split.i.i:                     ; preds = %cleanup.body.i.i.i17.i.i, %bb2.i.i.i.i.i.i.i.i46.i.i
  %capacity1.i.i.i.i.i45.sink.i.i = phi i64 [ %capacity1.i.i.i.i.i45.i.i, %bb2.i.i.i.i.i.i.i.i46.i.i ], [ %capacity1.i.i.i.i.i18.i.i, %cleanup.body.i.i.i17.i.i ]
  %ptr.i.i.i.i.i47.sink.i.i = phi ptr [ %ptr.i.i.i.i.i47.i.i, %bb2.i.i.i.i.i.i.i.i46.i.i ], [ %.pre.i.i.i.i.i.i, %cleanup.body.i.i.i17.i.i ]
  %lpad.phi.i.i.i.i.ph.i.i = phi { ptr, i32 } [ %eh.lpad-body61.i.i, %bb2.i.i.i.i.i.i.i.i46.i.i ], [ %49, %cleanup.body.i.i.i17.i.i ]
  %alloc_size.i.i.i.i.i.i.i.i.i48.i.i = shl nuw i64 %capacity1.i.i.i.i.i45.sink.i.i, 5
; call __rustc::__rust_dealloc
  call void @_RNvCsKhRCbHf33p_7___rustc14___rust_dealloc(ptr noundef nonnull %ptr.i.i.i.i.i47.sink.i.i, i64 noundef %alloc_size.i.i.i.i.i.i.i.i.i48.i.i, i64 noundef range(i64 1, -9223372036854775807) 8) #21, !noalias !413
  br label %bb9.i.i.i.i.i.i.i

bb9.i.i.i.i.i.i.i:                                ; preds = %bb9.i.i.i.i.i.sink.split.i.i, %cleanup.body.i.i.i17.i.i, %cleanup.body.i.i.i44.i.i
  %lpad.phi.i.i.i.i.i.i = phi { ptr, i32 } [ %49, %cleanup.body.i.i.i17.i.i ], [ %eh.lpad-body61.i.i, %cleanup.body.i.i.i44.i.i ], [ %lpad.phi.i.i.i.i.ph.i.i, %bb9.i.i.i.i.i.sink.split.i.i ]
  store ptr null, ptr %_2.sroa.4.0._0.sroa_idx.i.i.i, align 8, !alias.scope !387, !noalias !389
  br label %bb11.i.i.i.i

bb2.thread.i.i.i.i:                               ; preds = %_RNvYNvYINtNtCs8M6BBVNvC7a_11proc_macro25rcvec13RcVecIntoIterNtBa_9TokenTreeENtNtNtNtCsjMrxcFdYDNN_4core4iter6traits8iterator8Iterator4nextINtNtNtB1k_3ops8function6FnOnceTQB5_EE9call_onceCs1SHOYL7dTh6_5quote.exit.i.i.i.i.i.i.i, %_RNvYNvYINtNtCs8M6BBVNvC7a_11proc_macro25rcvec13RcVecIntoIterNtBa_9TokenTreeENtNtNtNtCsjMrxcFdYDNN_4core4iter6traits8iterator8Iterator4nextINtNtNtB1k_3ops8function6FnOnceTQB5_EE9call_onceCs1SHOYL7dTh6_5quote.exit.i.peel.i.i.i.i.i.i
  %53 = phi ptr [ %12, %_RNvYNvYINtNtCs8M6BBVNvC7a_11proc_macro25rcvec13RcVecIntoIterNtBa_9TokenTreeENtNtNtNtCsjMrxcFdYDNN_4core4iter6traits8iterator8Iterator4nextINtNtNtB1k_3ops8function6FnOnceTQB5_EE9call_onceCs1SHOYL7dTh6_5quote.exit.i.peel.i.i.i.i.i.i ], [ %.pre.i.i.i.i.i.i, %_RNvYNvYINtNtCs8M6BBVNvC7a_11proc_macro25rcvec13RcVecIntoIterNtBa_9TokenTreeENtNtNtNtCsjMrxcFdYDNN_4core4iter6traits8iterator8Iterator4nextINtNtNtB1k_3ops8function6FnOnceTQB5_EE9call_onceCs1SHOYL7dTh6_5quote.exit.i.i.i.i.i.i.i ]
  %x.i.sroa.0.0.copyload.lcssa.i.i.i.i.i.i = phi i32 [ %x.i.sroa.0.0.copyload.peel.i.i.i.i.i.i, %_RNvYNvYINtNtCs8M6BBVNvC7a_11proc_macro25rcvec13RcVecIntoIterNtBa_9TokenTreeENtNtNtNtCsjMrxcFdYDNN_4core4iter6traits8iterator8Iterator4nextINtNtNtB1k_3ops8function6FnOnceTQB5_EE9call_onceCs1SHOYL7dTh6_5quote.exit.i.peel.i.i.i.i.i.i ], [ %x.i.sroa.0.0.copyload.i.i.i.i.i.i, %_RNvYNvYINtNtCs8M6BBVNvC7a_11proc_macro25rcvec13RcVecIntoIterNtBa_9TokenTreeENtNtNtNtCsjMrxcFdYDNN_4core4iter6traits8iterator8Iterator4nextINtNtNtB1k_3ops8function6FnOnceTQB5_EE9call_onceCs1SHOYL7dTh6_5quote.exit.i.i.i.i.i.i.i ]
  call void @llvm.memcpy.p0.p0.i64(ptr noundef nonnull align 4 dereferenceable(28) %_3.sroa.8.i.i.i.i, ptr noundef nonnull align 4 dereferenceable(28) %x.i.sroa.6.i.i.i.i.i.i, i64 28, i1 false), !noalias !414
  call void @llvm.lifetime.end.p0(i64 28, ptr nonnull %x.i.sroa.6.i.i.i.i.i.i)
  br label %bb3.i.i.i.i

bb8.loopexit.i.i.i.i.i.i:                         ; preds = %_RINvNtNtNtCsjMrxcFdYDNN_4core4iter8adapters7flatten17and_then_or_clearINtNtCs8M6BBVNvC7a_11proc_macro25rcvec13RcVecIntoIterNtB1b_9TokenTreeEB1X_NvYB16_NtNtNtB6_6traits8iterator8Iterator4nextECs1SHOYL7dTh6_5quote.exit.thread25.i.i.i.i.i.i, %.noexc.i.i.i.i
  call void @llvm.lifetime.end.p0(i64 28, ptr nonnull %x.i.sroa.6.i.i.i.i.i.i)
  store i64 -9223372036854775807, ptr %_3.i.i, align 8, !alias.scope !415, !noalias !381
  br label %bb8.i.i.i.i.i.i

bb8.i.i.i.i.i.i:                                  ; preds = %bb8.loopexit.i.i.i.i.i.i, %bb5.i.peel.i.i.i.i.i.i, %_RINvNtCsjMrxcFdYDNN_4core3ptr13drop_in_placeINtNtB4_6option6OptionNtCs8M6BBVNvC7a_11proc_macro29TokenTreeEECs1SHOYL7dTh6_5quote.exit.peel.i.i.i.i.i.i
  call void @llvm.experimental.noalias.scope.decl(metadata !418)
  %54 = load ptr, ptr %_2.sroa.6.0._0.sroa_idx.i.i.i, align 8, !alias.scope !421, !noalias !422, !noundef !9
  %.not.i5.i.i.i.i.i.i = icmp eq ptr %54, null
  br i1 %.not.i5.i.i.i.i.i.i, label %_RINvMsj_NtCsdJPVW0sQgAG_5alloc3vecINtB6_3VecNtCs8M6BBVNvC7a_11proc_macro29TokenTreeE16extend_desugaredINtNtNtNtCsjMrxcFdYDNN_4core4iter8adapters7flatten7FlattenINtNtB1H_3map3MapIB2z_INtNtNtB1J_7sources4once4OnceNtBI_11TokenStreamENCINvXs5_BI_B3n_INtNtNtB1J_6traits7collect6ExtendB3n_E6extendB2U_E0ENvMs_NtBI_3impNtB4R_11TokenStream13unwrap_stableEEECs1SHOYL7dTh6_5quote.exit.i.i.i, label %bb11.i6.i.i.i.i.i.i

bb11.i6.i.i.i.i.i.i:                              ; preds = %bb8.i.i.i.i.i.i
  call void @llvm.experimental.noalias.scope.decl(metadata !424)
  call void @llvm.experimental.noalias.scope.decl(metadata !427)
  call void @llvm.experimental.noalias.scope.decl(metadata !430)
  %_12.i.i.i.i8.i.i.i.i.i.i = load ptr, ptr %_14.i.i.i.i7.i.i.i.i.i.i, align 8, !alias.scope !433, !noalias !434, !nonnull !9, !noundef !9
  %_21.i.i.i.i9.i.i.i.i.i.i = load ptr, ptr %8, align 8, !alias.scope !433, !noalias !434, !nonnull !9, !noundef !9
  %_9.i.i.i.i10.i.i.i.i.i.i = icmp eq ptr %_21.i.i.i.i9.i.i.i.i.i.i, %_12.i.i.i.i8.i.i.i.i.i.i
  br i1 %_9.i.i.i.i10.i.i.i.i.i.i, label %bb2.i.i16.i.i.i.i.i.i, label %_RNvYNvYINtNtCs8M6BBVNvC7a_11proc_macro25rcvec13RcVecIntoIterNtBa_9TokenTreeENtNtNtNtCsjMrxcFdYDNN_4core4iter6traits8iterator8Iterator4nextINtNtNtB1k_3ops8function6FnOnceTQB5_EE9call_onceCs1SHOYL7dTh6_5quote.exit.i11.i.i.i.i.i.i

_RNvYNvYINtNtCs8M6BBVNvC7a_11proc_macro25rcvec13RcVecIntoIterNtBa_9TokenTreeENtNtNtNtCsjMrxcFdYDNN_4core4iter6traits8iterator8Iterator4nextINtNtNtB1k_3ops8function6FnOnceTQB5_EE9call_onceCs1SHOYL7dTh6_5quote.exit.i11.i.i.i.i.i.i: ; preds = %bb11.i6.i.i.i.i.i.i
  %_23.i.i.i.i12.i.i.i.i.i.i = getelementptr inbounds nuw i8, ptr %_21.i.i.i.i9.i.i.i.i.i.i, i64 32
  store ptr %_23.i.i.i.i12.i.i.i.i.i.i, ptr %8, align 8, !alias.scope !433, !noalias !434
  %x.i4.sroa.0.0.copyload.i.i.i.i.i.i = load i32, ptr %_21.i.i.i.i9.i.i.i.i.i.i, align 8, !noalias !438
  %.not3.i14.i.i.i.i.i.i = icmp eq i32 %x.i4.sroa.0.0.copyload.i.i.i.i.i.i, 4
  br i1 %.not3.i14.i.i.i.i.i.i, label %bb2.i.i16.i.i.i.i.i.i.split.loop.exit54, label %bb2.i.i.i.i

bb2.i.i16.i.i.i.i.i.i.split.loop.exit54:          ; preds = %_RNvYNvYINtNtCs8M6BBVNvC7a_11proc_macro25rcvec13RcVecIntoIterNtBa_9TokenTreeENtNtNtNtCsjMrxcFdYDNN_4core4iter6traits8iterator8Iterator4nextINtNtNtB1k_3ops8function6FnOnceTQB5_EE9call_onceCs1SHOYL7dTh6_5quote.exit.i11.i.i.i.i.i.i
  %_23.i.i.i.i12.i.i.i.i.i.i.le = getelementptr inbounds nuw i8, ptr %_21.i.i.i.i9.i.i.i.i.i.i, i64 32
  br label %bb2.i.i16.i.i.i.i.i.i

bb2.i.i16.i.i.i.i.i.i:                            ; preds = %bb11.i6.i.i.i.i.i.i, %bb2.i.i16.i.i.i.i.i.i.split.loop.exit54
  %self.val.i.i.i.i.i = phi ptr [ %_23.i.i.i.i12.i.i.i.i.i.i.le, %bb2.i.i16.i.i.i.i.i.i.split.loop.exit54 ], [ %_21.i.i.i.i9.i.i.i.i.i.i, %bb11.i6.i.i.i.i.i.i ]
  call void @llvm.experimental.noalias.scope.decl(metadata !439)
  call void @llvm.experimental.noalias.scope.decl(metadata !442), !noalias !445
  call void @llvm.experimental.noalias.scope.decl(metadata !446), !noalias !445
  %55 = ptrtoint ptr %_12.i.i.i.i8.i.i.i.i.i.i to i64
  %56 = ptrtoint ptr %self.val.i.i.i.i.i to i64
  %57 = sub nuw i64 %55, %56
  %58 = lshr exact i64 %57, 5
  br label %bb6.i.i.i.i.i.i

cleanup.body.i.i.i.i.i:                           ; preds = %bb4.i.i.i.i.i.i
  %59 = getelementptr inbounds nuw i8, ptr %_3.i.i, i64 80
  %capacity1.i.i.i.i.i.i.i = load i64, ptr %59, align 8, !alias.scope !449, !noalias !422, !noundef !9
  %60 = icmp eq i64 %capacity1.i.i.i.i.i.i.i, 0
  br i1 %60, label %bb9.i17.i.i.i.i.body.i.i, label %bb2.i.i.i.i.i.i.i.i.i.i

bb2.i.i.i.i.i.i.i.i.i.i:                          ; preds = %cleanup.body.i.i.i.i.i
  %alloc_size.i.i.i.i.i.i.i.i.i.i.i = shl nuw i64 %capacity1.i.i.i.i.i.i.i, 5
; call __rustc::__rust_dealloc
  call void @_RNvCsKhRCbHf33p_7___rustc14___rust_dealloc(ptr noundef nonnull %54, i64 noundef %alloc_size.i.i.i.i.i.i.i.i.i.i.i, i64 noundef range(i64 1, -9223372036854775807) 8) #21, !noalias !450
  br label %bb9.i17.i.i.i.i.body.i.i

bb6.i.i.i.i.i.i:                                  ; preds = %bb5.i.i.i.i.i.i, %bb2.i.i16.i.i.i.i.i.i
  %_3.sroa.0.0.i.i.i.i.i.i = phi i64 [ 0, %bb2.i.i16.i.i.i.i.i.i ], [ %61, %bb5.i.i.i.i.i.i ]
  %_7.i.i.i.i.i.i = icmp eq i64 %_3.sroa.0.0.i.i.i.i.i.i, %58
  br i1 %_7.i.i.i.i.i.i, label %bb2.i.i.i.i.i, label %bb5.i.i.i.i.i.i

bb5.i.i.i.i.i.i:                                  ; preds = %bb6.i.i.i.i.i.i
  %_6.i.i.i.i.i.i = getelementptr inbounds nuw %"proc_macro2::TokenTree", ptr %self.val.i.i.i.i.i, i64 %_3.sroa.0.0.i.i.i.i.i.i
  %61 = add nuw nsw i64 %_3.sroa.0.0.i.i.i.i.i.i, 1
; invoke core::ptr::drop_in_place::<proc_macro2::TokenTree>
  invoke fastcc void @_RINvNtCsjMrxcFdYDNN_4core3ptr13drop_in_placeNtCs8M6BBVNvC7a_11proc_macro29TokenTreeECs1SHOYL7dTh6_5quote(ptr noalias noundef align 8 dereferenceable(32) %_6.i.i.i.i.i.i)
          to label %bb6.i.i.i.i.i.i unwind label %cleanup.i.i.i.i.i.i, !noalias !450

bb4.i.i.i.i.i.i:                                  ; preds = %bb3.i.i.i.i.i6.i, %cleanup.i.i.i.i.i.i
  %_3.sroa.0.1.i.i.i.i.i.i = phi i64 [ %61, %cleanup.i.i.i.i.i.i ], [ %63, %bb3.i.i.i.i.i6.i ]
  %_5.i.i.i.i.i.i = icmp eq i64 %_3.sroa.0.1.i.i.i.i.i.i, %58
  br i1 %_5.i.i.i.i.i.i, label %cleanup.body.i.i.i.i.i, label %bb3.i.i.i.i.i6.i

cleanup.i.i.i.i.i.i:                              ; preds = %bb5.i.i.i.i.i.i
  %62 = landingpad { ptr, i32 }
          cleanup
  br label %bb4.i.i.i.i.i.i

bb3.i.i.i.i.i6.i:                                 ; preds = %bb4.i.i.i.i.i.i
  %_4.i.i.i.i.i.i = getelementptr inbounds nuw %"proc_macro2::TokenTree", ptr %self.val.i.i.i.i.i, i64 %_3.sroa.0.1.i.i.i.i.i.i
  %63 = add i64 %_3.sroa.0.1.i.i.i.i.i.i, 1
; invoke core::ptr::drop_in_place::<proc_macro2::TokenTree>
  invoke fastcc void @_RINvNtCsjMrxcFdYDNN_4core3ptr13drop_in_placeNtCs8M6BBVNvC7a_11proc_macro29TokenTreeECs1SHOYL7dTh6_5quote(ptr noalias noundef align 8 dereferenceable(32) %_4.i.i.i.i.i.i) #22
          to label %bb4.i.i.i.i.i.i unwind label %terminate.i.i.i.i.i.i, !noalias !450

terminate.i.i.i.i.i.i:                            ; preds = %bb3.i.i.i.i.i6.i
  %64 = landingpad { ptr, i32 }
          filter [0 x ptr] zeroinitializer
; call core::panicking::panic_in_cleanup
  call void @_RNvNtCsjMrxcFdYDNN_4core9panicking16panic_in_cleanup() #23, !noalias !450
  unreachable

bb2.i.i.i.i.i:                                    ; preds = %bb6.i.i.i.i.i.i
  %65 = getelementptr inbounds nuw i8, ptr %_3.i.i, i64 80
  %capacity1.i.i3.i.i.i.i.i = load i64, ptr %65, align 8, !alias.scope !449, !noalias !422, !noundef !9
  %66 = icmp eq i64 %capacity1.i.i3.i.i.i.i.i, 0
  br i1 %66, label %bb2.thread13.i.i.i.i, label %bb2.i.i.i.i.i4.i.i.i.i.i

bb2.i.i.i.i.i4.i.i.i.i.i:                         ; preds = %bb2.i.i.i.i.i
  %alloc_size.i.i.i.i.i.i6.i.i.i.i.i = shl nuw i64 %capacity1.i.i3.i.i.i.i.i, 5
; call __rustc::__rust_dealloc
  call void @_RNvCsKhRCbHf33p_7___rustc14___rust_dealloc(ptr noundef nonnull %54, i64 noundef %alloc_size.i.i.i.i.i.i6.i.i.i.i.i, i64 noundef range(i64 1, -9223372036854775807) 8) #21, !noalias !450
  br label %bb2.thread13.i.i.i.i

bb2.thread13.i.i.i.i:                             ; preds = %bb2.i.i.i.i.i4.i.i.i.i.i, %bb2.i.i.i.i.i
  store ptr null, ptr %_2.sroa.6.0._0.sroa_idx.i.i.i, align 8, !alias.scope !421, !noalias !422
  br label %_RINvMsj_NtCsdJPVW0sQgAG_5alloc3vecINtB6_3VecNtCs8M6BBVNvC7a_11proc_macro29TokenTreeE16extend_desugaredINtNtNtNtCsjMrxcFdYDNN_4core4iter8adapters7flatten7FlattenINtNtB1H_3map3MapIB2z_INtNtNtB1J_7sources4once4OnceNtBI_11TokenStreamENCINvXs5_BI_B3n_INtNtNtB1J_6traits7collect6ExtendB3n_E6extendB2U_E0ENvMs_NtBI_3impNtB4R_11TokenStream13unwrap_stableEEECs1SHOYL7dTh6_5quote.exit.i.i.i

bb9.i17.i.i.i.i.body.i.i:                         ; preds = %bb2.i.i.i.i.i.i.i.i.i.i, %cleanup.body.i.i.i.i.i
  store ptr null, ptr %_2.sroa.6.0._0.sroa_idx.i.i.i, align 8, !alias.scope !421, !noalias !422
  br label %bb11.i.i.i.i

bb11.i.i.i.i:                                     ; preds = %cleanup2.i.i.i.i, %cleanup.i.i.i.i, %bb9.i17.i.i.i.i.body.i.i, %bb9.i.i.i.i.i.i.i
  %.pn.i.i.i.i = phi { ptr, i32 } [ %69, %cleanup2.i.i.i.i ], [ %67, %cleanup.i.i.i.i ], [ %lpad.phi.i.i.i.i.i.i, %bb9.i.i.i.i.i.i.i ], [ %62, %bb9.i17.i.i.i.i.body.i.i ]
; invoke core::ptr::drop_in_place::<core::iter::adapters::flatten::Flatten<core::iter::adapters::map::Map<core::iter::adapters::map::Map<core::iter::sources::once::Once<proc_macro2::TokenStream>, <proc_macro2::TokenStream as core::iter::traits::collect::Extend<proc_macro2::TokenStream>>::extend<core::iter::sources::once::Once<proc_macro2::TokenStream>>::{closure#0}>, <proc_macro2::imp::TokenStream>::unwrap_stable>>>
  invoke fastcc void @_RINvNtCsjMrxcFdYDNN_4core3ptr13drop_in_placeINtNtNtNtB4_4iter8adapters7flatten7FlattenINtNtBL_3map3MapIB1n_INtNtNtBN_7sources4once4OnceNtCs8M6BBVNvC7a_11proc_macro211TokenStreamENCINvXs5_B2b_B29_INtNtNtBN_6traits7collect6ExtendB29_E6extendB1H_E0ENvMs_NtB2b_3impNtB41_11TokenStream13unwrap_stableEEECs1SHOYL7dTh6_5quote(ptr noalias noundef nonnull align 8 dereferenceable(96) %_3.i.i) #22
          to label %bb12.i unwind label %terminate.i.i.i.i, !noalias !451

cleanup.i.i.i.i:                                  ; preds = %_0.i.i.i.peel.i.i.noexc.i.i.i.i, %bb1.i.i.i.i.i.i
  %67 = landingpad { ptr, i32 }
          cleanup
  br label %bb11.i.i.i.i

bb2.i.i.i.i:                                      ; preds = %_RNvYNvYINtNtCs8M6BBVNvC7a_11proc_macro25rcvec13RcVecIntoIterNtBa_9TokenTreeENtNtNtNtCsjMrxcFdYDNN_4core4iter6traits8iterator8Iterator4nextINtNtNtB1k_3ops8function6FnOnceTQB5_EE9call_onceCs1SHOYL7dTh6_5quote.exit.i11.i.i.i.i.i.i
  %x.i4.sroa.6.0._21.i.i.i.i9.sroa_idx.i.i.i.i.i.i = getelementptr inbounds nuw i8, ptr %_21.i.i.i.i9.i.i.i.i.i.i, i64 4
  call void @llvm.memcpy.p0.p0.i64(ptr noundef nonnull align 4 dereferenceable(28) %_3.sroa.8.i.i.i.i, ptr noundef nonnull align 4 dereferenceable(28) %x.i4.sroa.6.0._21.i.i.i.i9.sroa_idx.i.i.i.i.i.i, i64 28, i1 false), !noalias !385
  br label %bb3.i.i.i.i

bb3.i.i.i.i:                                      ; preds = %bb2.i.i.i.i, %bb2.thread.i.i.i.i
  %68 = phi ptr [ %53, %bb2.thread.i.i.i.i ], [ null, %bb2.i.i.i.i ]
  %.not.i.i.i.i.i.i = phi i1 [ false, %bb2.thread.i.i.i.i ], [ true, %bb2.i.i.i.i ]
  %_3.sroa.0.19.i.i.i.i = phi i32 [ %x.i.sroa.0.0.copyload.lcssa.i.i.i.i.i.i, %bb2.thread.i.i.i.i ], [ %x.i4.sroa.0.0.copyload.i.i.i.i.i.i, %bb2.i.i.i.i ]
  call void @llvm.lifetime.start.p0(i64 32, ptr nonnull %element.i.i.i.i), !noalias !452
  store i32 %_3.sroa.0.19.i.i.i.i, ptr %element.i.i.i.i, align 8, !noalias !452
  call void @llvm.memcpy.p0.p0.i64(ptr noundef nonnull align 4 dereferenceable(28) %_3.sroa.8.0.element.sroa_idx.i.i.i.i, ptr noundef nonnull align 4 dereferenceable(28) %_3.sroa.8.i.i.i.i, i64 28, i1 false), !noalias !452
  %len.i.i.i.i = load i64, ptr %9, align 8, !alias.scope !453, !noalias !454, !noundef !9
  %_19.i.i.i.i = icmp ult i64 %len.i.i.i.i, 288230376151711744
  call void @llvm.assume(i1 %_19.i.i.i.i)
  %self1.i.i.i.i = load i64, ptr %_7.i.i, align 8, !range !16, !alias.scope !453, !noalias !454, !noundef !9
  %_8.i.i.i.i = icmp eq i64 %len.i.i.i.i, %self1.i.i.i.i
  br i1 %_8.i.i.i.i, label %bb1.i.i.i.i.i, label %bb8.i.i.i.i

bb8.i.i.i.i:                                      ; preds = %bb1.i.i.i.i.i, %bb3.i.i.i.i
  %_23.i.i.i.i = load ptr, ptr %10, align 8, !alias.scope !453, !noalias !454, !nonnull !9, !noundef !9
  %dst.i.i.i.i = getelementptr inbounds nuw %"proc_macro2::TokenTree", ptr %_23.i.i.i.i, i64 %len.i.i.i.i
  call void @llvm.memcpy.p0.p0.i64(ptr noundef nonnull align 8 dereferenceable(32) %dst.i.i.i.i, ptr noundef nonnull align 8 dereferenceable(32) %element.i.i.i.i, i64 32, i1 false), !noalias !385
  %new_len.i.i.i.i = add nuw nsw i64 %len.i.i.i.i, 1
  store i64 %new_len.i.i.i.i, ptr %9, align 8, !alias.scope !453, !noalias !454
  call void @llvm.lifetime.end.p0(i64 32, ptr nonnull %element.i.i.i.i), !noalias !452
  call void @llvm.lifetime.end.p0(i64 28, ptr nonnull %_3.sroa.8.i.i.i.i)
  br label %bb1.i.i.i.i

cleanup2.i.i.i.i:                                 ; preds = %bb1.i.i.i.i.i
  %69 = landingpad { ptr, i32 }
          cleanup
; invoke core::ptr::drop_in_place::<proc_macro2::TokenTree>
  invoke fastcc void @_RINvNtCsjMrxcFdYDNN_4core3ptr13drop_in_placeNtCs8M6BBVNvC7a_11proc_macro29TokenTreeECs1SHOYL7dTh6_5quote(ptr noalias noundef align 8 dereferenceable(32) %element.i.i.i.i) #22
          to label %bb11.i.i.i.i unwind label %terminate.i.i.i.i, !noalias !385

bb1.i.i.i.i.i:                                    ; preds = %bb3.i.i.i.i
  %70 = load ptr, ptr %_2.sroa.6.0._0.sroa_idx.i.i.i, align 8, !alias.scope !455, !noalias !460, !noundef !9
  %.not38.i.i.i.i.i.i = icmp eq ptr %70, null
  %.val1.i48.i.i.i.i.i.i = load ptr, ptr %_14.i.i.i.i7.i.i.i.i.i.i, align 8, !alias.scope !455, !noalias !460, !nonnull !9
  %71 = ptrtoint ptr %.val1.i48.i.i.i.i.i.i to i64
  %.val.i47.i.i.i.i.i.i = load ptr, ptr %8, align 8, !alias.scope !455, !noalias !460, !nonnull !9
  %72 = ptrtoint ptr %.val.i47.i.i.i.i.i.i to i64
  %73 = sub nuw i64 %71, %72
  %74 = lshr exact i64 %73, 5
  %.val1.i.i.i.i.i.i.i = load ptr, ptr %_14.i.i.i.i.i.i.i.i.i.i, align 8, !alias.scope !455, !noalias !460, !nonnull !9
  %75 = ptrtoint ptr %.val1.i.i.i.i.i.i.i to i64
  %.val.i.i.i.i.i.i.i = load ptr, ptr %7, align 8, !alias.scope !455, !noalias !460, !nonnull !9
  %76 = ptrtoint ptr %.val.i.i.i.i.i.i.i to i64
  %77 = sub nuw i64 %75, %76
  %78 = lshr exact i64 %77, 5
  %_4.sroa.7.0.i.i.i.i.i.i = select i1 %.not.i.i.i.i.i.i, i64 0, i64 %78
  %79 = add nuw nsw i64 %74, 1
  %80 = select i1 %.not38.i.i.i.i.i.i, i64 1, i64 %79
  %81 = add nuw nsw i64 %_4.sroa.7.0.i.i.i.i.i.i, %80
; invoke <alloc::raw_vec::RawVecInner<_>>::reserve::do_reserve_and_handle::<alloc::alloc::Global>
  invoke fastcc void @_RINvNvMs2_NtCsdJPVW0sQgAG_5alloc7raw_vecINtB8_11RawVecInnerpE7reserve21do_reserve_and_handleNtNtBa_5alloc6GlobalECs1SHOYL7dTh6_5quote(ptr noalias noundef nonnull align 8 dereferenceable(24) %_7.i.i, i64 noundef %len.i.i.i.i, i64 noundef range(i64 1, 0) %81, i64 noundef 8, i64 noundef 32)
          to label %bb8.i.i.i.i unwind label %cleanup2.i.i.i.i, !noalias !454

terminate.i.i.i.i:                                ; preds = %cleanup2.i.i.i.i, %bb11.i.i.i.i
  %82 = landingpad { ptr, i32 }
          filter [0 x ptr] zeroinitializer
; call core::panicking::panic_in_cleanup
  call void @_RNvNtCsjMrxcFdYDNN_4core9panicking16panic_in_cleanup() #23, !noalias !451
  unreachable

_RINvMsj_NtCsdJPVW0sQgAG_5alloc3vecINtB6_3VecNtCs8M6BBVNvC7a_11proc_macro29TokenTreeE16extend_desugaredINtNtNtNtCsjMrxcFdYDNN_4core4iter8adapters7flatten7FlattenINtNtB1H_3map3MapIB2z_INtNtNtB1J_7sources4once4OnceNtBI_11TokenStreamENCINvXs5_BI_B3n_INtNtNtB1J_6traits7collect6ExtendB3n_E6extendB2U_E0ENvMs_NtBI_3impNtB4R_11TokenStream13unwrap_stableEEECs1SHOYL7dTh6_5quote.exit.i.i.i: ; preds = %bb8.i.i.i.i.i.i, %bb2.thread13.i.i.i.i
  call void @llvm.lifetime.end.p0(i64 28, ptr nonnull %_3.sroa.8.i.i.i.i)
; call core::ptr::drop_in_place::<core::iter::adapters::flatten::Flatten<core::iter::adapters::map::Map<core::iter::adapters::map::Map<core::iter::sources::once::Once<proc_macro2::TokenStream>, <proc_macro2::TokenStream as core::iter::traits::collect::Extend<proc_macro2::TokenStream>>::extend<core::iter::sources::once::Once<proc_macro2::TokenStream>>::{closure#0}>, <proc_macro2::imp::TokenStream>::unwrap_stable>>>
  call fastcc void @_RINvNtCsjMrxcFdYDNN_4core3ptr13drop_in_placeINtNtNtNtB4_4iter8adapters7flatten7FlattenINtNtBL_3map3MapIB1n_INtNtNtBN_7sources4once4OnceNtCs8M6BBVNvC7a_11proc_macro211TokenStreamENCINvXs5_B2b_B29_INtNtNtBN_6traits7collect6ExtendB29_E6extendB1H_E0ENvMs_NtB2b_3impNtB41_11TokenStream13unwrap_stableEEECs1SHOYL7dTh6_5quote(ptr noalias noundef nonnull align 8 dereferenceable(96) %_3.i.i), !noalias !227
  call void @llvm.lifetime.end.p0(i64 96, ptr nonnull %_3.i.i), !noalias !253
  call void @llvm.lifetime.end.p0(i64 32, ptr nonnull %_13.i), !noalias !253
  br label %_RINvXs8_NtCs8M6BBVNvC7a_11proc_macro23impNtB6_11TokenStreamINtNtNtNtCsjMrxcFdYDNN_4core4iter6traits7collect6ExtendBD_E6extendINtNtNtB12_8adapters3map3MapINtNtNtB12_7sources4once4OnceNtB8_11TokenStreamENCINvXs5_B8_B2U_IBW_B2U_E6extendB2r_E0EECs1SHOYL7dTh6_5quote.exit

bb4.i2.i:                                         ; preds = %bb9.i
  %83 = landingpad { ptr, i32 }
          cleanup
  %84 = load i64, ptr %_13.i, align 8, !range !233, !alias.scope !463, !noalias !476, !noundef !9
  %85 = icmp eq i64 %84, -9223372036854775807
  br i1 %85, label %bb12.i, label %bb2.i.i.i.i.i.i1.i.i

bb2.i.i.i.i.i.i1.i.i:                             ; preds = %bb4.i2.i
; invoke core::ptr::drop_in_place::<proc_macro2::TokenStream>
  invoke fastcc void @_RINvNtCsjMrxcFdYDNN_4core3ptr13drop_in_placeNtCs8M6BBVNvC7a_11proc_macro211TokenStreamECs1SHOYL7dTh6_5quote(ptr noalias noundef nonnull align 8 dereferenceable(32) %_13.i)
          to label %bb12.i unwind label %terminate.i3.i, !noalias !227

terminate.i3.i:                                   ; preds = %bb2.i.i.i.i.i.i1.i.i
  %86 = landingpad { ptr, i32 }
          filter [0 x ptr] zeroinitializer
; call core::panicking::panic_in_cleanup
  call void @_RNvNtCsjMrxcFdYDNN_4core9panicking16panic_in_cleanup() #23, !noalias !227
  unreachable

bb12.i:                                           ; preds = %bb2.i.i.i.i.i.i, %bb13.i, %bb2.i.i.i.i.i.i1.i.i, %bb4.i2.i, %bb11.i.i.i.i, %bb2.i.i.i.i.i.i.i.i, %bb9.i.i, %bb7.i.i
  %eh.lpad-body12.i = phi { ptr, i32 } [ %lpad.thr_comm.split-lp.i, %bb2.i.i.i.i.i.i ], [ %lpad.thr_comm.split-lp.i, %bb13.i ], [ %lpad.thr_comm.i.i, %bb7.i.i ], [ %5, %bb2.i.i.i.i.i.i.i.i ], [ %5, %bb9.i.i ], [ %.pn.i.i.i.i, %bb11.i.i.i.i ], [ %83, %bb2.i.i.i.i.i.i1.i.i ], [ %83, %bb4.i2.i ]
  resume { ptr, i32 } %eh.lpad-body12.i

bb13.i:                                           ; preds = %bb3.i
  %lpad.thr_comm.split-lp.i = landingpad { ptr, i32 }
          cleanup
  %87 = load i64, ptr %_5, align 8, !range !233, !alias.scope !477, !noalias !224, !noundef !9
  %88 = icmp eq i64 %87, -9223372036854775807
  br i1 %88, label %bb12.i, label %bb2.i.i.i.i.i.i

bb2.i.i.i.i.i.i:                                  ; preds = %bb13.i
; invoke core::ptr::drop_in_place::<proc_macro2::TokenStream>
  invoke fastcc void @_RINvNtCsjMrxcFdYDNN_4core3ptr13drop_in_placeNtCs8M6BBVNvC7a_11proc_macro211TokenStreamECs1SHOYL7dTh6_5quote(ptr noalias noundef nonnull align 8 dereferenceable(32) %_5)
          to label %bb12.i unwind label %terminate.i

terminate.i:                                      ; preds = %bb2.i.i.i.i.i.i
  %89 = landingpad { ptr, i32 }
          filter [0 x ptr] zeroinitializer
; call core::panicking::panic_in_cleanup
  call void @_RNvNtCsjMrxcFdYDNN_4core9panicking16panic_in_cleanup() #23
  unreachable

_RINvXs8_NtCs8M6BBVNvC7a_11proc_macro23impNtB6_11TokenStreamINtNtNtNtCsjMrxcFdYDNN_4core4iter6traits7collect6ExtendBD_E6extendINtNtNtB12_8adapters3map3MapINtNtNtB12_7sources4once4OnceNtB8_11TokenStreamENCINvXs5_B8_B2U_IBW_B2U_E6extendB2r_E0EECs1SHOYL7dTh6_5quote.exit: ; preds = %bb4.i.i, %_RINvMsj_NtCsdJPVW0sQgAG_5alloc3vecINtB6_3VecNtCs8M6BBVNvC7a_11proc_macro29TokenTreeE16extend_desugaredINtNtNtNtCsjMrxcFdYDNN_4core4iter8adapters7flatten7FlattenINtNtB1H_3map3MapIB2z_INtNtNtB1J_7sources4once4OnceNtBI_11TokenStreamENCINvXs5_BI_B3n_INtNtNtB1J_6traits7collect6ExtendB3n_E6extendB2U_E0ENvMs_NtBI_3impNtB4R_11TokenStream13unwrap_stableEEECs1SHOYL7dTh6_5quote.exit.i.i.i
  call void @llvm.lifetime.end.p0(i64 32, ptr nonnull %_5)
  ret void
}

; <proc_macro2::imp::TokenStream as core::iter::traits::collect::Extend<proc_macro2::TokenTree>>::extend::<core::iter::sources::once::Once<proc_macro2::TokenTree>>
; Function Attrs: uwtable
define internal fastcc void @_RINvXs7_NtCs8M6BBVNvC7a_11proc_macro23impNtB6_11TokenStreamINtNtNtNtCsjMrxcFdYDNN_4core4iter6traits7collect6ExtendNtB8_9TokenTreeE6extendINtNtNtB12_7sources4once4OnceB1O_EECs1SHOYL7dTh6_5quote(ptr noalias noundef nonnull align 8 dereferenceable(32) %self, ptr dead_on_return noalias noundef nonnull align 8 captures(address) dereferenceable(32) %stream) unnamed_addr #0 personality ptr @rust_eh_personality {
start:
  %_5.i.i.i.i = alloca [32 x i8], align 8
  %_12 = alloca [20 x i8], align 4
  %token = alloca [32 x i8], align 8
  %0 = load i64, ptr %self, align 8, !range !60, !noundef !9
  %1 = icmp eq i64 %0, -9223372036854775808
  br i1 %1, label %bb2, label %bb3

bb2:                                              ; preds = %start
  %tts = getelementptr inbounds nuw i8, ptr %self, i64 8
  tail call void @llvm.experimental.noalias.scope.decl(metadata !488)
; invoke <alloc::rc::Rc<alloc::vec::Vec<proc_macro2::TokenTree>>>::make_mut
  %_10.i = invoke fastcc noundef nonnull align 8 ptr @_RNvMsh_NtCsdJPVW0sQgAG_5alloc2rcINtB5_2RcINtNtB7_3vec3VecNtCs8M6BBVNvC7a_11proc_macro29TokenTreeEE8make_mutCs1SHOYL7dTh6_5quote(ptr noalias noundef nonnull align 8 dereferenceable(8) %tts)
          to label %bb1.i unwind label %bb4.i, !noalias !488

bb1.i:                                            ; preds = %bb2
  %_6.sroa.0.0.copyload.i = load i32, ptr %stream, align 8, !alias.scope !488, !noalias !491
  %.not6.i.i.i = icmp eq i32 %_6.sroa.0.0.copyload.i, 4
  br i1 %.not6.i.i.i, label %bb11, label %bb3.i.i.i

bb3.i.i.i:                                        ; preds = %bb1.i
  %_6.sroa.4.0.tokens.sroa_idx.i = getelementptr inbounds nuw i8, ptr %stream, i64 4
  %_11.sroa.4.0._5.i.sroa_idx.i.i.i = getelementptr inbounds nuw i8, ptr %_5.i.i.i.i, i64 4
  call void @llvm.lifetime.start.p0(i64 32, ptr nonnull %_5.i.i.i.i), !noalias !493
  call void @llvm.memcpy.p0.p0.i64(ptr noundef nonnull align 4 dereferenceable(28) %_11.sroa.4.0._5.i.sroa_idx.i.i.i, ptr noundef nonnull align 4 dereferenceable(28) %_6.sroa.4.0.tokens.sroa_idx.i, i64 28, i1 false), !noalias !491
  store i32 %_6.sroa.0.0.copyload.i, ptr %_5.i.i.i.i, align 8, !noalias !501
; call proc_macro2::fallback::push_token_from_proc_macro
  call void @_RNvNtCs8M6BBVNvC7a_11proc_macro28fallback26push_token_from_proc_macro(ptr noalias noundef nonnull align 8 dereferenceable(24) %_10.i, ptr noalias noundef nonnull align 8 captures(address) dereferenceable(32) %_5.i.i.i.i), !noalias !488
  call void @llvm.lifetime.end.p0(i64 32, ptr nonnull %_5.i.i.i.i), !noalias !493
  br label %bb11

common.resume:                                    ; preds = %bb2.i.i.i.i.i5, %bb2.i.i, %cleanup.i, %bb4.i, %bb2.i.i.i.i.i
  %common.resume.op = phi { ptr, i32 } [ %2, %bb2.i.i.i.i.i ], [ %2, %bb4.i ], [ %10, %bb2.i.i.i.i.i5 ], [ %10, %bb2.i.i ], [ %10, %cleanup.i ]
  resume { ptr, i32 } %common.resume.op

bb4.i:                                            ; preds = %bb2
  %2 = landingpad { ptr, i32 }
          cleanup
  %3 = load i32, ptr %stream, align 8, !range !502, !alias.scope !503, !noalias !491, !noundef !9
  %4 = icmp eq i32 %3, 4
  br i1 %4, label %common.resume, label %bb2.i.i.i.i.i

bb2.i.i.i.i.i:                                    ; preds = %bb4.i
; invoke core::ptr::drop_in_place::<proc_macro2::TokenTree>
  invoke fastcc void @_RINvNtCsjMrxcFdYDNN_4core3ptr13drop_in_placeNtCs8M6BBVNvC7a_11proc_macro29TokenTreeECs1SHOYL7dTh6_5quote(ptr noalias noundef nonnull align 8 dereferenceable(32) %stream)
          to label %common.resume unwind label %terminate.i

terminate.i:                                      ; preds = %bb2.i.i.i.i.i
  %5 = landingpad { ptr, i32 }
          filter [0 x ptr] zeroinitializer
; call core::panicking::panic_in_cleanup
  tail call void @_RNvNtCsjMrxcFdYDNN_4core9panicking16panic_in_cleanup() #23
  unreachable

bb3:                                              ; preds = %start
  %iter.sroa.0.0.copyload = load i32, ptr %stream, align 8
  %.not9 = icmp eq i32 %iter.sroa.0.0.copyload, 4
  br i1 %.not9, label %bb11, label %bb7

bb7:                                              ; preds = %bb3
  %6 = getelementptr inbounds nuw i8, ptr %stream, i64 4
  %7 = getelementptr inbounds nuw i8, ptr %self, i64 16
  %8 = getelementptr inbounds nuw i8, ptr %self, i64 8
  %_7.sroa.6.0.token.sroa_idx = getelementptr inbounds nuw i8, ptr %token, i64 4
  store i32 %iter.sroa.0.0.copyload, ptr %token, align 8
  call void @llvm.memcpy.p0.p0.i64(ptr noundef nonnull align 4 dereferenceable(28) %_7.sroa.6.0.token.sroa_idx, ptr noundef nonnull align 4 dereferenceable(28) %6, i64 28, i1 false)
  call void @llvm.lifetime.start.p0(i64 20, ptr nonnull %_12)
; call proc_macro2::imp::into_compiler_token
  call void @_RNvNtCs8M6BBVNvC7a_11proc_macro23imp19into_compiler_token(ptr noalias noundef nonnull sret([20 x i8]) align 4 captures(none) dereferenceable(20) %_12, ptr noalias noundef nonnull readonly align 8 captures(none) dereferenceable(32) %token)
  tail call void @llvm.experimental.noalias.scope.decl(metadata !512)
  tail call void @llvm.experimental.noalias.scope.decl(metadata !515)
  %len.i = load i64, ptr %7, align 8, !alias.scope !512, !noalias !515, !noundef !9
  %self1.i = load i64, ptr %self, align 8, !range !16, !alias.scope !512, !noalias !515, !noundef !9
  %_4.i = icmp eq i64 %len.i, %self1.i
  br i1 %_4.i, label %bb1.i4, label %_RINvNtCsjMrxcFdYDNN_4core3ptr13drop_in_placeINtNtNtNtB4_4iter7sources4once4OnceNtCs8M6BBVNvC7a_11proc_macro29TokenTreeEECs1SHOYL7dTh6_5quote.exit2.loopexit

_RINvNtCsjMrxcFdYDNN_4core3ptr13drop_in_placeINtNtNtNtB4_4iter7sources4once4OnceNtCs8M6BBVNvC7a_11proc_macro29TokenTreeEECs1SHOYL7dTh6_5quote.exit2.loopexit: ; preds = %bb7, %bb1.i4
  %_14.i = load ptr, ptr %8, align 8, !alias.scope !512, !noalias !515, !nonnull !9, !noundef !9
  %end.i = getelementptr inbounds nuw %"proc_macro::TokenTree", ptr %_14.i, i64 %len.i
  call void @llvm.memcpy.p0.p0.i64(ptr noundef nonnull align 4 dereferenceable(20) %end.i, ptr noundef nonnull align 4 dereferenceable(20) %_12, i64 20, i1 false), !noalias !512
  %9 = add i64 %len.i, 1
  store i64 %9, ptr %7, align 8, !alias.scope !512, !noalias !515
  call void @llvm.lifetime.end.p0(i64 20, ptr nonnull %_12)
  br label %bb11

bb11:                                             ; preds = %bb3, %_RINvNtCsjMrxcFdYDNN_4core3ptr13drop_in_placeINtNtNtNtB4_4iter7sources4once4OnceNtCs8M6BBVNvC7a_11proc_macro29TokenTreeEECs1SHOYL7dTh6_5quote.exit2.loopexit, %bb3.i.i.i, %bb1.i
  ret void

bb1.i4:                                           ; preds = %bb7
; invoke <alloc::raw_vec::RawVec<proc_macro::TokenTree>>::grow_one
  invoke void @_RNvMs3_NtCsdJPVW0sQgAG_5alloc7raw_vecINtB5_6RawVecNtCsbtZo8rQoR5w_10proc_macro9TokenTreeE8grow_oneCs1SHOYL7dTh6_5quote(ptr noalias noundef nonnull align 8 dereferenceable(24) %self)
          to label %_RINvNtCsjMrxcFdYDNN_4core3ptr13drop_in_placeINtNtNtNtB4_4iter7sources4once4OnceNtCs8M6BBVNvC7a_11proc_macro29TokenTreeEECs1SHOYL7dTh6_5quote.exit2.loopexit unwind label %cleanup.i, !noalias !515

cleanup.i:                                        ; preds = %bb1.i4
  %10 = landingpad { ptr, i32 }
          cleanup
  %11 = getelementptr inbounds nuw i8, ptr %_12, i64 16
  %12 = load i8, ptr %11, align 4, !range !17, !alias.scope !517, !noalias !512, !noundef !9
  %13 = icmp samesign ult i8 %12, 4
  br i1 %13, label %bb2.i.i, label %common.resume

bb2.i.i:                                          ; preds = %cleanup.i
  %14 = getelementptr inbounds nuw i8, ptr %_12, i64 12
  %15 = load i32, ptr %14, align 4, !alias.scope !520, !noalias !512, !noundef !9
  %16 = icmp eq i32 %15, 0
  br i1 %16, label %common.resume, label %bb2.i.i.i.i.i5

bb2.i.i.i.i.i5:                                   ; preds = %bb2.i.i
; invoke <proc_macro::bridge::client::TokenStream as core::ops::drop::Drop>::drop
  invoke void @_RNvXsi_NtNtCsbtZo8rQoR5w_10proc_macro6bridge6clientNtB5_11TokenStreamNtNtNtCsjMrxcFdYDNN_4core3ops4drop4Drop4drop(ptr noalias noundef nonnull align 4 dereferenceable(4) %14)
          to label %common.resume unwind label %terminate.i6, !noalias !512

terminate.i6:                                     ; preds = %bb2.i.i.i.i.i5
  %17 = landingpad { ptr, i32 }
          filter [0 x ptr] zeroinitializer
; call core::panicking::panic_in_cleanup
  call void @_RNvNtCsjMrxcFdYDNN_4core9panicking16panic_in_cleanup() #23, !noalias !512
  unreachable
}

; <alloc::raw_vec::RawVec<proc_macro::TokenTree>>::grow_one
; Function Attrs: cold noinline uwtable
define void @_RNvMs3_NtCsdJPVW0sQgAG_5alloc7raw_vecINtB5_6RawVecNtCsbtZo8rQoR5w_10proc_macro9TokenTreeE8grow_oneCs1SHOYL7dTh6_5quote(ptr noalias noundef align 8 captures(none) dereferenceable(16) %self) unnamed_addr #3 personality ptr @rust_eh_personality {
start:
  %self3.i = alloca [24 x i8], align 8
  %self1 = load i64, ptr %self, align 8, !range !16, !noundef !9
  tail call void @llvm.experimental.noalias.scope.decl(metadata !527)
  %v16.i = shl nuw i64 %self1, 1
  %0 = tail call i64 @llvm.umax.i64(i64 %v16.i, i64 range(i64 0, -1) 4)
  call void @llvm.lifetime.start.p0(i64 24, ptr nonnull %self3.i), !noalias !527
  %1 = getelementptr inbounds nuw i8, ptr %self, i64 8
  %self.val15.i = load ptr, ptr %1, align 8, !alias.scope !527
; call <alloc::raw_vec::RawVecInner>::finish_grow
  call fastcc void @_RNvMs4_NtCsdJPVW0sQgAG_5alloc7raw_vecNtB5_11RawVecInner11finish_growCs1SHOYL7dTh6_5quote(ptr noalias noundef align 8 captures(none) dereferenceable(24) %self3.i, i64 %self1, ptr %self.val15.i, i64 noundef %0, i64 noundef 4, i64 noundef 20), !noalias !527
  %_35.i = load i64, ptr %self3.i, align 8, !range !188, !noalias !527, !noundef !9
  %2 = trunc nuw i64 %_35.i to i1
  %3 = getelementptr inbounds nuw i8, ptr %self3.i, i64 8
  br i1 %2, label %bb18.i, label %bb3

bb18.i:                                           ; preds = %start
  %e.0.i = load i64, ptr %3, align 8, !range !60, !noalias !527, !noundef !9
  %4 = getelementptr inbounds nuw i8, ptr %self3.i, i64 16
  %e.1.i = load i64, ptr %4, align 8, !noalias !527
  call void @llvm.lifetime.end.p0(i64 24, ptr nonnull %self3.i), !noalias !527
; call alloc::raw_vec::handle_error
  tail call void @_RNvNtCsdJPVW0sQgAG_5alloc7raw_vec12handle_error(i64 noundef %e.0.i, i64 %e.1.i) #26
  unreachable

bb3:                                              ; preds = %start
  %v.0.i = load ptr, ptr %3, align 8, !noalias !527, !nonnull !9, !noundef !9
  call void @llvm.lifetime.end.p0(i64 24, ptr nonnull %self3.i), !noalias !527
  store ptr %v.0.i, ptr %1, align 8, !alias.scope !527
  %5 = icmp sgt i64 %0, -1
  tail call void @llvm.assume(i1 %5)
  store i64 %0, ptr %self, align 8, !alias.scope !527
  ret void
}

; <alloc::raw_vec::RawVecInner>::finish_grow
; Function Attrs: cold nounwind uwtable
define internal fastcc void @_RNvMs4_NtCsdJPVW0sQgAG_5alloc7raw_vecNtB5_11RawVecInner11finish_growCs1SHOYL7dTh6_5quote(ptr dead_on_unwind noalias noundef nonnull writable writeonly align 8 captures(none) dereferenceable(24) initializes((0, 8)) %_0, i64 %self.0.val, ptr %self.8.val, i64 noundef %cap, i64 noundef range(i64 1, 9) %elem_layout.0, i64 noundef range(i64 1, 33) %elem_layout.1) unnamed_addr #4 {
start:
  %_23.i = icmp eq i64 %cap, 0
  br i1 %_23.i, label %bb14.thread, label %bb6.i

bb6.i:                                            ; preds = %start
  %_15.i = add nsw i64 %elem_layout.0, -1
  %_17.i = add nuw nsw i64 %_15.i, %elem_layout.1
  %_19.i = sub nsw i64 0, %elem_layout.0
  %new_size.i = and i64 %_17.i, %_19.i
  %_24.i = add i64 %cap, -1
  %0 = tail call { i64, i1 } @llvm.umul.with.overflow.i64(i64 %new_size.i, i64 %_24.i)
  %_27.0.i = extractvalue { i64, i1 } %0, 0
  %_27.1.i = extractvalue { i64, i1 } %0, 1
  %_33.i = sub nuw i64 -9223372036854775808, %elem_layout.0
  %_32.i = icmp ugt i64 %_27.0.i, %_33.i
  %or.cond.i = select i1 %_27.1.i, i1 true, i1 %_32.i
  br i1 %or.cond.i, label %bb11, label %bb11.i, !prof !530

bb11.i:                                           ; preds = %bb6.i
  %new_size2.i = add nuw i64 %_27.0.i, %elem_layout.1
  %_40.i = icmp ugt i64 %new_size2.i, %_33.i
  br i1 %_40.i, label %bb11, label %bb14

bb14:                                             ; preds = %bb11.i
  %1 = icmp eq i64 %self.0.val, 0
  br i1 %1, label %bb4.i.i11, label %bb3.i.i

bb14.thread:                                      ; preds = %start
  %2 = icmp eq i64 %self.0.val, 0
  br i1 %2, label %bb7.thread, label %bb3.i.i

bb3.i.i:                                          ; preds = %bb14.thread, %bb14
  %_27.sroa.7.01321 = phi i64 [ %new_size2.i, %bb14 ], [ 0, %bb14.thread ]
  %3 = icmp ne ptr %self.8.val, null
  tail call void @llvm.assume(i1 %3)
  %alloc_size.i23 = mul nuw i64 %elem_layout.1, %self.0.val
  %cond.i.i = icmp uge i64 %_27.sroa.7.01321, %alloc_size.i23
  tail call void @llvm.assume(i1 %cond.i.i)
; call __rustc::__rust_realloc
  %raw_ptr.i.i = tail call noundef ptr @_RNvCsKhRCbHf33p_7___rustc14___rust_realloc(ptr noundef nonnull %self.8.val, i64 noundef %alloc_size.i23, i64 noundef range(i64 1, -9223372036854775807) %elem_layout.0, i64 noundef %_27.sroa.7.01321) #21
  br label %bb7

bb7.thread:                                       ; preds = %bb14.thread
  %_16.i.i = inttoptr i64 %elem_layout.0 to ptr
  br label %bb9

bb4.i.i11:                                        ; preds = %bb14
; call __rustc::__rust_no_alloc_shim_is_unstable_v2
  tail call void @_RNvCsKhRCbHf33p_7___rustc35___rust_no_alloc_shim_is_unstable_v2() #21
; call __rustc::__rust_alloc
  %4 = tail call noundef ptr @_RNvCsKhRCbHf33p_7___rustc12___rust_alloc(i64 noundef %new_size2.i, i64 noundef range(i64 1, -9223372036854775807) %elem_layout.0) #21
  br label %bb7

bb7:                                              ; preds = %bb4.i.i11, %bb3.i.i
  %_27.sroa.7.012 = phi i64 [ %_27.sroa.7.01321, %bb3.i.i ], [ %new_size2.i, %bb4.i.i11 ]
  %raw_ptr.i.i.pn = phi ptr [ %raw_ptr.i.i, %bb3.i.i ], [ %4, %bb4.i.i11 ]
  %5 = icmp eq ptr %raw_ptr.i.i.pn, null
  br i1 %5, label %bb8, label %bb9

bb8:                                              ; preds = %bb7
  %6 = getelementptr inbounds nuw i8, ptr %_0, i64 8
  store i64 %elem_layout.0, ptr %6, align 8
  br label %bb11

bb9:                                              ; preds = %bb7.thread, %bb7
  %raw_ptr.i.i.pn31 = phi ptr [ %_16.i.i, %bb7.thread ], [ %raw_ptr.i.i.pn, %bb7 ]
  %_27.sroa.7.01230 = phi i64 [ 0, %bb7.thread ], [ %_27.sroa.7.012, %bb7 ]
  %7 = getelementptr inbounds nuw i8, ptr %_0, i64 8
  store ptr %raw_ptr.i.i.pn31, ptr %7, align 8
  br label %bb11

bb11:                                             ; preds = %bb6.i, %bb11.i, %bb9, %bb8
  %.sink32 = phi i64 [ 16, %bb9 ], [ 16, %bb8 ], [ 8, %bb11.i ], [ 8, %bb6.i ]
  %_27.sroa.7.01230.sink = phi i64 [ %_27.sroa.7.01230, %bb9 ], [ %_27.sroa.7.012, %bb8 ], [ 0, %bb11.i ], [ 0, %bb6.i ]
  %storemerge8 = phi i64 [ 0, %bb9 ], [ 1, %bb8 ], [ 1, %bb11.i ], [ 1, %bb6.i ]
  %8 = getelementptr inbounds nuw i8, ptr %_0, i64 %.sink32
  store i64 %_27.sroa.7.01230.sink, ptr %8, align 8
  store i64 %storemerge8, ptr %_0, align 8
  ret void
}

; <alloc::rc::Rc<alloc::vec::Vec<proc_macro2::TokenTree>>>::make_mut
; Function Attrs: inlinehint uwtable
define internal fastcc noundef nonnull align 8 ptr @_RNvMsh_NtCsdJPVW0sQgAG_5alloc2rcINtB5_2RcINtNtB7_3vec3VecNtCs8M6BBVNvC7a_11proc_macro29TokenTreeEE8make_mutCs1SHOYL7dTh6_5quote(ptr noalias noundef nonnull align 8 dereferenceable(8) %this) unnamed_addr #5 personality ptr @rust_eh_personality {
start:
  %val.i.i.i.i.i = alloca [32 x i8], align 8
  %vec.i.i.i.i.i = alloca [24 x i8], align 8
  %src1.i.i.i = alloca [24 x i8], align 8
  %in_progress.i = alloca [32 x i8], align 16
  %_22 = load ptr, ptr %this, align 8, !nonnull !9, !noundef !9
  %_4 = load i64, ptr %_22, align 8, !noundef !9
  %0 = icmp eq i64 %_4, 1
  br i1 %0, label %bb6, label %bb1

bb6:                                              ; preds = %start
  %_34 = getelementptr inbounds nuw i8, ptr %_22, i64 8
  %_30 = load i64, ptr %_34, align 8, !noundef !9
  %1 = icmp eq i64 %_30, 1
  br i1 %1, label %bb13, label %bb7

bb1:                                              ; preds = %start
  %2 = getelementptr i8, ptr %_22, i64 24
  %_6.val = load ptr, ptr %2, align 8
  %3 = getelementptr i8, ptr %_22, i64 32
  %_6.val4 = load i64, ptr %3, align 8
  call void @llvm.lifetime.start.p0(i64 32, ptr nonnull %in_progress.i)
  tail call void @llvm.experimental.noalias.scope.decl(metadata !531)
; call alloc::rc::rc_inner_layout_for_value_layout
  %4 = tail call { i64, i64 } @_RNvNtCsdJPVW0sQgAG_5alloc2rc32rc_inner_layout_for_value_layout(i64 noundef 8, i64 noundef 24), !noalias !531
; call alloc::rc::rc_inner_layout_for_value_layout
  %5 = tail call { i64, i64 } @_RNvNtCsdJPVW0sQgAG_5alloc2rc32rc_inner_layout_for_value_layout(i64 noundef 8, i64 noundef 24), !noalias !531
  %layout.0.i.i.i.i = extractvalue { i64, i64 } %5, 0
  %layout.1.i.i.i.i = extractvalue { i64, i64 } %5, 1
  %6 = icmp eq i64 %layout.1.i.i.i.i, 0
  br i1 %6, label %bb2.i.i.i.i.i.i.i, label %bb4.i.i.i.i.i.i.i

bb2.i.i.i.i.i.i.i:                                ; preds = %bb1
  %_16.i.i.i.i.i.i.i = inttoptr i64 %layout.0.i.i.i.i to ptr
  br label %_RNCNvMs1N_NtCsdJPVW0sQgAG_5alloc2rcINtB8_14UniqueRcUninitINtNtBa_3vec3VecNtCs8M6BBVNvC7a_11proc_macro29TokenTreeENtNtBa_5alloc6GlobalE3new0Cs1SHOYL7dTh6_5quote.exit.i.i.i.i

bb4.i.i.i.i.i.i.i:                                ; preds = %bb1
; call __rustc::__rust_no_alloc_shim_is_unstable_v2
  tail call void @_RNvCsKhRCbHf33p_7___rustc35___rust_no_alloc_shim_is_unstable_v2() #21, !noalias !531
; call __rustc::__rust_alloc
  %7 = tail call noundef ptr @_RNvCsKhRCbHf33p_7___rustc12___rust_alloc(i64 noundef %layout.1.i.i.i.i, i64 noundef range(i64 1, -9223372036854775807) %layout.0.i.i.i.i) #21, !noalias !531
  br label %_RNCNvMs1N_NtCsdJPVW0sQgAG_5alloc2rcINtB8_14UniqueRcUninitINtNtBa_3vec3VecNtCs8M6BBVNvC7a_11proc_macro29TokenTreeENtNtBa_5alloc6GlobalE3new0Cs1SHOYL7dTh6_5quote.exit.i.i.i.i

_RNCNvMs1N_NtCsdJPVW0sQgAG_5alloc2rcINtB8_14UniqueRcUninitINtNtBa_3vec3VecNtCs8M6BBVNvC7a_11proc_macro29TokenTreeENtNtBa_5alloc6GlobalE3new0Cs1SHOYL7dTh6_5quote.exit.i.i.i.i: ; preds = %bb4.i.i.i.i.i.i.i, %bb2.i.i.i.i.i.i.i
  %_0.sroa.0.0.i.i.i.i.i.i.i = phi ptr [ %_16.i.i.i.i.i.i.i, %bb2.i.i.i.i.i.i.i ], [ %7, %bb4.i.i.i.i.i.i.i ]
  %8 = icmp eq ptr %_0.sroa.0.0.i.i.i.i.i.i.i, null
  br i1 %8, label %bb9.i.i.i, label %_RNvMs1N_NtCsdJPVW0sQgAG_5alloc2rcINtB6_14UniqueRcUninitINtNtB8_3vec3VecNtCs8M6BBVNvC7a_11proc_macro29TokenTreeENtNtB8_5alloc6GlobalE3newCs1SHOYL7dTh6_5quote.exit.i

bb9.i.i.i:                                        ; preds = %_RNCNvMs1N_NtCsdJPVW0sQgAG_5alloc2rcINtB8_14UniqueRcUninitINtNtBa_3vec3VecNtCs8M6BBVNvC7a_11proc_macro29TokenTreeENtNtBa_5alloc6GlobalE3new0Cs1SHOYL7dTh6_5quote.exit.i.i.i.i
  %layout.1.i.i.i = extractvalue { i64, i64 } %4, 1
  %layout.0.i.i.i = extractvalue { i64, i64 } %4, 0
; call alloc::alloc::handle_alloc_error
  tail call void @_RNvNtCsdJPVW0sQgAG_5alloc5alloc18handle_alloc_error(i64 noundef %layout.0.i.i.i, i64 noundef %layout.1.i.i.i) #26, !noalias !531
  unreachable

_RNvMs1N_NtCsdJPVW0sQgAG_5alloc2rcINtB6_14UniqueRcUninitINtNtB8_3vec3VecNtCs8M6BBVNvC7a_11proc_macro29TokenTreeENtNtB8_5alloc6GlobalE3newCs1SHOYL7dTh6_5quote.exit.i: ; preds = %_RNCNvMs1N_NtCsdJPVW0sQgAG_5alloc2rcINtB8_14UniqueRcUninitINtNtBa_3vec3VecNtCs8M6BBVNvC7a_11proc_macro29TokenTreeENtNtBa_5alloc6GlobalE3new0Cs1SHOYL7dTh6_5quote.exit.i.i.i.i
  store <2 x i64> splat (i64 1), ptr %_0.sroa.0.0.i.i.i.i.i.i.i, align 8, !noalias !531
  %9 = getelementptr inbounds nuw i8, ptr %in_progress.i, i64 16
  store ptr %_0.sroa.0.0.i.i.i.i.i.i.i, ptr %9, align 16, !alias.scope !531
  store <2 x i64> <i64 8, i64 24>, ptr %in_progress.i, align 16, !alias.scope !531
  %10 = getelementptr inbounds nuw i8, ptr %in_progress.i, i64 24
  store i8 1, ptr %10, align 8, !alias.scope !531
  %11 = icmp ne ptr %_6.val, null
  tail call void @llvm.assume(i1 %11)
  call void @llvm.lifetime.start.p0(i64 24, ptr nonnull %src1.i.i.i)
  call void @llvm.lifetime.start.p0(i64 32, ptr nonnull %val.i.i.i.i.i), !noalias !534
  call void @llvm.lifetime.start.p0(i64 24, ptr nonnull %vec.i.i.i.i.i), !noalias !537
  %_23.i.i.i.i.i.i.i.i = icmp eq i64 %_6.val4, 0
  br i1 %_23.i.i.i.i.i.i.i.i, label %_RNvMs4_NtCsdJPVW0sQgAG_5alloc7raw_vecNtB5_11RawVecInner16with_capacity_inCs1SHOYL7dTh6_5quote.exit.thread.i.i.i.i.i, label %bb6.i.i.i.i.i.i.i.i

_RNvMs4_NtCsdJPVW0sQgAG_5alloc7raw_vecNtB5_11RawVecInner16with_capacity_inCs1SHOYL7dTh6_5quote.exit.thread.i.i.i.i.i: ; preds = %_RNvMs1N_NtCsdJPVW0sQgAG_5alloc2rcINtB6_14UniqueRcUninitINtNtB8_3vec3VecNtCs8M6BBVNvC7a_11proc_macro29TokenTreeENtNtB8_5alloc6GlobalE3newCs1SHOYL7dTh6_5quote.exit.i
  store i64 0, ptr %vec.i.i.i.i.i, align 8, !noalias !537
  %12 = getelementptr inbounds nuw i8, ptr %vec.i.i.i.i.i, i64 8
  store ptr inttoptr (i64 8 to ptr), ptr %12, align 8, !noalias !537
  %13 = getelementptr inbounds nuw i8, ptr %vec.i.i.i.i.i, i64 16
  br label %_RNvMsd_NtCsdJPVW0sQgAG_5alloc2rcINtB5_2RcINtNtB7_3vec3VecNtCs8M6BBVNvC7a_11proc_macro29TokenTreeEE17clone_from_ref_inCs1SHOYL7dTh6_5quote.exit

bb6.i.i.i.i.i.i.i.i:                              ; preds = %_RNvMs1N_NtCsdJPVW0sQgAG_5alloc2rcINtB6_14UniqueRcUninitINtNtB8_3vec3VecNtCs8M6BBVNvC7a_11proc_macro29TokenTreeENtNtB8_5alloc6GlobalE3newCs1SHOYL7dTh6_5quote.exit.i
  %_24.i.i.i.i.i.i.i.i = shl nuw nsw i64 %_6.val4, 5
; call __rustc::__rust_no_alloc_shim_is_unstable_v2
  tail call void @_RNvCsKhRCbHf33p_7___rustc35___rust_no_alloc_shim_is_unstable_v2() #21, !noalias !541
; call __rustc::__rust_alloc
  %14 = tail call noundef align 8 ptr @_RNvCsKhRCbHf33p_7___rustc12___rust_alloc(i64 noundef %_24.i.i.i.i.i.i.i.i, i64 noundef range(i64 4, 9) 8) #21, !noalias !541
  %15 = icmp eq ptr %14, null
  br i1 %15, label %bb3.i.i.i.i.i.i, label %bb20.preheader.i.i.i.i.i

bb3.i.i.i.i.i.i:                                  ; preds = %bb6.i.i.i.i.i.i.i.i
; invoke alloc::raw_vec::handle_error
  invoke void @_RNvNtCsdJPVW0sQgAG_5alloc7raw_vec12handle_error(i64 noundef 8, i64 %_24.i.i.i.i.i.i.i.i) #26
          to label %.noexc.i unwind label %cleanup.body.thread5.i

cleanup.body.thread5.i:                           ; preds = %bb3.i.i.i.i.i.i
  %16 = landingpad { ptr, i32 }
          cleanup
  br label %bb5.i

.noexc.i:                                         ; preds = %bb3.i.i.i.i.i.i
  unreachable

bb20.preheader.i.i.i.i.i:                         ; preds = %bb6.i.i.i.i.i.i.i.i
  store i64 %_6.val4, ptr %vec.i.i.i.i.i, align 8, !noalias !537
  %17 = getelementptr inbounds nuw i8, ptr %vec.i.i.i.i.i, i64 8
  store ptr %14, ptr %17, align 8, !noalias !537
  %18 = getelementptr inbounds nuw i8, ptr %vec.i.i.i.i.i, i64 16
  %_39.i.i.i.i.i = getelementptr inbounds nuw %"proc_macro2::TokenTree", ptr %_6.val, i64 %_6.val4
  br label %bb20.i.i.i.i.i

bb20.i.i.i.i.i:                                   ; preds = %bb6.i.i.i.i.i, %bb20.preheader.i.i.i.i.i
  %iter.sroa.10.018.i.i.i.i.i = phi i64 [ %19, %bb6.i.i.i.i.i ], [ %_6.val4, %bb20.preheader.i.i.i.i.i ]
  %iter.sroa.0.017.i.i.i.i.i = phi ptr [ %_16.i.i.i.i.i.i3.i, %bb6.i.i.i.i.i ], [ %_6.val, %bb20.preheader.i.i.i.i.i ]
  %iter.sroa.7.016.i.i.i.i.i = phi i64 [ %_8.0.i.i.i.i.i.i, %bb6.i.i.i.i.i ], [ 0, %bb20.preheader.i.i.i.i.i ]
  %19 = add nsw i64 %iter.sroa.10.018.i.i.i.i.i, -1
  %_6.i.i.i.i.i.i.i = icmp eq ptr %iter.sroa.0.017.i.i.i.i.i, %_39.i.i.i.i.i
  br i1 %_6.i.i.i.i.i.i.i, label %_RNvMsd_NtCsdJPVW0sQgAG_5alloc2rcINtB5_2RcINtNtB7_3vec3VecNtCs8M6BBVNvC7a_11proc_macro29TokenTreeEE17clone_from_ref_inCs1SHOYL7dTh6_5quote.exit, label %bb5.i.i.i.i.i

bb5.i.i.i.i.i:                                    ; preds = %bb20.i.i.i.i.i
; invoke <proc_macro2::TokenTree as core::clone::Clone>::clone
  invoke fastcc void @_RNvXsK_Cs8M6BBVNvC7a_11proc_macro2NtB5_9TokenTreeNtNtCsjMrxcFdYDNN_4core5clone5Clone5clone(ptr noalias noundef align 8 captures(none) dereferenceable(32) %val.i.i.i.i.i, ptr noalias noundef readonly align 8 captures(address, read_provenance) dereferenceable(32) %iter.sroa.0.017.i.i.i.i.i)
          to label %bb6.i.i.i.i.i unwind label %bb7.i.i.i.i.i, !noalias !544

bb6.i.i.i.i.i:                                    ; preds = %bb5.i.i.i.i.i
  %_8.0.i.i.i.i.i.i = add nuw nsw i64 %iter.sroa.7.016.i.i.i.i.i, 1
  %_16.i.i.i.i.i.i3.i = getelementptr inbounds nuw i8, ptr %iter.sroa.0.017.i.i.i.i.i, i64 32
  %self5.i.i.i.i.i = getelementptr inbounds nuw %"core::mem::maybe_uninit::MaybeUninit<proc_macro2::TokenTree>", ptr %14, i64 %iter.sroa.7.016.i.i.i.i.i
  call void @llvm.memcpy.p0.p0.i64(ptr noundef nonnull align 8 dereferenceable(32) %self5.i.i.i.i.i, ptr noundef nonnull align 8 dereferenceable(32) %val.i.i.i.i.i, i64 32, i1 false), !noalias !544
  %20 = icmp eq i64 %19, 0
  br i1 %20, label %_RNvMsd_NtCsdJPVW0sQgAG_5alloc2rcINtB5_2RcINtNtB7_3vec3VecNtCs8M6BBVNvC7a_11proc_macro29TokenTreeEE17clone_from_ref_inCs1SHOYL7dTh6_5quote.exit, label %bb20.i.i.i.i.i

terminate.i.i.i.i.i:                              ; preds = %bb7.i.i.i.i.i
  %21 = landingpad { ptr, i32 }
          filter [0 x ptr] zeroinitializer
; call core::panicking::panic_in_cleanup
  tail call void @_RNvNtCsjMrxcFdYDNN_4core9panicking16panic_in_cleanup() #23, !noalias !544
  unreachable

bb7.i.i.i.i.i:                                    ; preds = %bb5.i.i.i.i.i
  %lpad.loopexit.i.i.i.i.i = landingpad { ptr, i32 }
          cleanup
  store i64 %iter.sroa.7.016.i.i.i.i.i, ptr %18, align 8, !noalias !537
; invoke core::ptr::drop_in_place::<alloc::vec::Vec<proc_macro2::TokenTree>>
  invoke fastcc void @_RINvNtCsjMrxcFdYDNN_4core3ptr13drop_in_placeINtNtCsdJPVW0sQgAG_5alloc3vec3VecNtCs8M6BBVNvC7a_11proc_macro29TokenTreeEECs1SHOYL7dTh6_5quote(ptr noalias noundef align 8 dereferenceable(24) %vec.i.i.i.i.i) #22
          to label %bb5.i unwind label %terminate.i.i.i.i.i, !noalias !544

common.resume:                                    ; preds = %bb5.i, %cleanup
  %common.resume.op = phi { ptr, i32 } [ %32, %cleanup ], [ %eh.lpad-body4.i, %bb5.i ]
  resume { ptr, i32 } %common.resume.op

bb5.i:                                            ; preds = %bb7.i.i.i.i.i, %cleanup.body.thread5.i
  %eh.lpad-body4.i = phi { ptr, i32 } [ %16, %cleanup.body.thread5.i ], [ %lpad.loopexit.i.i.i.i.i, %bb7.i.i.i.i.i ]
; invoke core::ptr::drop_in_place::<alloc::rc::UniqueRcUninit<alloc::vec::Vec<proc_macro2::TokenTree>, alloc::alloc::Global>>
  invoke fastcc void @_RINvNtCsjMrxcFdYDNN_4core3ptr13drop_in_placeINtNtCsdJPVW0sQgAG_5alloc2rc14UniqueRcUninitINtNtBL_3vec3VecNtCs8M6BBVNvC7a_11proc_macro29TokenTreeENtNtBL_5alloc6GlobalEECs1SHOYL7dTh6_5quote(ptr noalias noundef align 8 dereferenceable(32) %in_progress.i) #22
          to label %common.resume unwind label %terminate.i

terminate.i:                                      ; preds = %bb5.i
  %22 = landingpad { ptr, i32 }
          filter [0 x ptr] zeroinitializer
; call core::panicking::panic_in_cleanup
  tail call void @_RNvNtCsjMrxcFdYDNN_4core9panicking16panic_in_cleanup() #23
  unreachable

_RNvMsd_NtCsdJPVW0sQgAG_5alloc2rcINtB5_2RcINtNtB7_3vec3VecNtCs8M6BBVNvC7a_11proc_macro29TokenTreeEE17clone_from_ref_inCs1SHOYL7dTh6_5quote.exit: ; preds = %bb20.i.i.i.i.i, %bb6.i.i.i.i.i, %_RNvMs4_NtCsdJPVW0sQgAG_5alloc7raw_vecNtB5_11RawVecInner16with_capacity_inCs1SHOYL7dTh6_5quote.exit.thread.i.i.i.i.i
  %23 = phi ptr [ %13, %_RNvMs4_NtCsdJPVW0sQgAG_5alloc7raw_vecNtB5_11RawVecInner16with_capacity_inCs1SHOYL7dTh6_5quote.exit.thread.i.i.i.i.i ], [ %18, %bb6.i.i.i.i.i ], [ %18, %bb20.i.i.i.i.i ]
  %_19.i = getelementptr inbounds nuw i8, ptr %_0.sroa.0.0.i.i.i.i.i.i.i, i64 16
  store i64 %_6.val4, ptr %23, align 8, !noalias !537
  call void @llvm.memcpy.p0.p0.i64(ptr noundef nonnull align 8 dereferenceable(24) %src1.i.i.i, ptr noundef nonnull align 8 dereferenceable(24) %vec.i.i.i.i.i, i64 24, i1 false), !noalias !545
  call void @llvm.lifetime.end.p0(i64 24, ptr nonnull %vec.i.i.i.i.i), !noalias !537
  call void @llvm.lifetime.end.p0(i64 32, ptr nonnull %val.i.i.i.i.i), !noalias !534
  call void @llvm.memcpy.p0.p0.i64(ptr noundef nonnull align 8 dereferenceable(24) %_19.i, ptr noundef nonnull align 8 dereferenceable(24) %src1.i.i.i, i64 24, i1 false)
  call void @llvm.lifetime.end.p0(i64 24, ptr nonnull %src1.i.i.i)
  call void @llvm.lifetime.end.p0(i64 32, ptr nonnull %in_progress.i)
  %_8.i.i = load i64, ptr %_22, align 8, !noalias !546, !noundef !9
  %val.i.i = add i64 %_8.i.i, -1
  store i64 %val.i.i, ptr %_22, align 8, !noalias !546
  %24 = icmp eq i64 %val.i.i, 0
  br i1 %24, label %bb1.i.i, label %bb13.sink.split

bb1.i.i:                                          ; preds = %_RNvMsd_NtCsdJPVW0sQgAG_5alloc2rcINtB5_2RcINtNtB7_3vec3VecNtCs8M6BBVNvC7a_11proc_macro29TokenTreeEE17clone_from_ref_inCs1SHOYL7dTh6_5quote.exit
; invoke <alloc::rc::Rc<alloc::vec::Vec<proc_macro2::TokenTree>>>::drop_slow
  invoke void @_RNvMs6_NtCsdJPVW0sQgAG_5alloc2rcINtB5_2RcINtNtB7_3vec3VecNtCs8M6BBVNvC7a_11proc_macro29TokenTreeEE9drop_slowBV_(ptr noalias noundef nonnull align 8 dereferenceable(8) %this) #25
          to label %bb13.sink.split unwind label %cleanup

bb7:                                              ; preds = %bb6
; call alloc::rc::rc_inner_layout_for_value_layout
  %25 = tail call { i64, i64 } @_RNvNtCsdJPVW0sQgAG_5alloc2rc32rc_inner_layout_for_value_layout(i64 noundef 8, i64 noundef 24), !noalias !551
; call alloc::rc::rc_inner_layout_for_value_layout
  %26 = tail call { i64, i64 } @_RNvNtCsdJPVW0sQgAG_5alloc2rc32rc_inner_layout_for_value_layout(i64 noundef 8, i64 noundef 24), !noalias !551
  %layout.0.i.i.i5 = extractvalue { i64, i64 } %26, 0
  %layout.1.i.i.i6 = extractvalue { i64, i64 } %26, 1
  %27 = icmp eq i64 %layout.1.i.i.i6, 0
  br i1 %27, label %bb2.i.i.i.i.i.i, label %bb4.i.i.i.i.i.i

bb2.i.i.i.i.i.i:                                  ; preds = %bb7
  %_16.i.i.i.i.i.i = inttoptr i64 %layout.0.i.i.i5 to ptr
  br label %_RNCNvMs1N_NtCsdJPVW0sQgAG_5alloc2rcINtB8_14UniqueRcUninitINtNtBa_3vec3VecNtCs8M6BBVNvC7a_11proc_macro29TokenTreeENtNtBa_5alloc6GlobalE3new0Cs1SHOYL7dTh6_5quote.exit.i.i.i

bb4.i.i.i.i.i.i:                                  ; preds = %bb7
; call __rustc::__rust_no_alloc_shim_is_unstable_v2
  tail call void @_RNvCsKhRCbHf33p_7___rustc35___rust_no_alloc_shim_is_unstable_v2() #21, !noalias !551
; call __rustc::__rust_alloc
  %28 = tail call noundef ptr @_RNvCsKhRCbHf33p_7___rustc12___rust_alloc(i64 noundef %layout.1.i.i.i6, i64 noundef range(i64 1, -9223372036854775807) %layout.0.i.i.i5) #21, !noalias !551
  br label %_RNCNvMs1N_NtCsdJPVW0sQgAG_5alloc2rcINtB8_14UniqueRcUninitINtNtBa_3vec3VecNtCs8M6BBVNvC7a_11proc_macro29TokenTreeENtNtBa_5alloc6GlobalE3new0Cs1SHOYL7dTh6_5quote.exit.i.i.i

_RNCNvMs1N_NtCsdJPVW0sQgAG_5alloc2rcINtB8_14UniqueRcUninitINtNtBa_3vec3VecNtCs8M6BBVNvC7a_11proc_macro29TokenTreeENtNtBa_5alloc6GlobalE3new0Cs1SHOYL7dTh6_5quote.exit.i.i.i: ; preds = %bb4.i.i.i.i.i.i, %bb2.i.i.i.i.i.i
  %_0.sroa.0.0.i.i.i.i.i.i = phi ptr [ %_16.i.i.i.i.i.i, %bb2.i.i.i.i.i.i ], [ %28, %bb4.i.i.i.i.i.i ]
  %29 = icmp eq ptr %_0.sroa.0.0.i.i.i.i.i.i, null
  br i1 %29, label %bb9.i.i, label %_RNvMs1N_NtCsdJPVW0sQgAG_5alloc2rcINtB6_14UniqueRcUninitINtNtB8_3vec3VecNtCs8M6BBVNvC7a_11proc_macro29TokenTreeENtNtB8_5alloc6GlobalE7into_rcCs1SHOYL7dTh6_5quote.exit

bb9.i.i:                                          ; preds = %_RNCNvMs1N_NtCsdJPVW0sQgAG_5alloc2rcINtB8_14UniqueRcUninitINtNtBa_3vec3VecNtCs8M6BBVNvC7a_11proc_macro29TokenTreeENtNtBa_5alloc6GlobalE3new0Cs1SHOYL7dTh6_5quote.exit.i.i.i
  %layout.1.i.i = extractvalue { i64, i64 } %25, 1
  %layout.0.i.i = extractvalue { i64, i64 } %25, 0
; call alloc::alloc::handle_alloc_error
  tail call void @_RNvNtCsdJPVW0sQgAG_5alloc5alloc18handle_alloc_error(i64 noundef %layout.0.i.i, i64 noundef %layout.1.i.i) #26, !noalias !551
  unreachable

_RNvMs1N_NtCsdJPVW0sQgAG_5alloc2rcINtB6_14UniqueRcUninitINtNtB8_3vec3VecNtCs8M6BBVNvC7a_11proc_macro29TokenTreeENtNtB8_5alloc6GlobalE7into_rcCs1SHOYL7dTh6_5quote.exit: ; preds = %_RNCNvMs1N_NtCsdJPVW0sQgAG_5alloc2rcINtB8_14UniqueRcUninitINtNtBa_3vec3VecNtCs8M6BBVNvC7a_11proc_macro29TokenTreeENtNtBa_5alloc6GlobalE3new0Cs1SHOYL7dTh6_5quote.exit.i.i.i
  store <2 x i64> splat (i64 1), ptr %_0.sroa.0.0.i.i.i.i.i.i, align 8, !noalias !551
  %self = getelementptr inbounds nuw i8, ptr %_22, i64 16
  %dst = getelementptr inbounds nuw i8, ptr %_0.sroa.0.0.i.i.i.i.i.i, i64 16
  tail call void @llvm.memcpy.p0.p0.i64(ptr noundef nonnull align 1 dereferenceable(24) %dst, ptr noundef nonnull align 1 dereferenceable(24) %self, i64 24, i1 false)
  %30 = load <2 x i64>, ptr %_22, align 8
  %31 = add <2 x i64> %30, splat (i64 -1)
  store <2 x i64> %31, ptr %_22, align 8
  br label %bb13.sink.split

bb13.sink.split:                                  ; preds = %bb1.i.i, %_RNvMsd_NtCsdJPVW0sQgAG_5alloc2rcINtB5_2RcINtNtB7_3vec3VecNtCs8M6BBVNvC7a_11proc_macro29TokenTreeEE17clone_from_ref_inCs1SHOYL7dTh6_5quote.exit, %_RNvMs1N_NtCsdJPVW0sQgAG_5alloc2rcINtB6_14UniqueRcUninitINtNtB8_3vec3VecNtCs8M6BBVNvC7a_11proc_macro29TokenTreeENtNtB8_5alloc6GlobalE7into_rcCs1SHOYL7dTh6_5quote.exit
  %_0.sroa.0.0.i.i.i.i.i.i.sink = phi ptr [ %_0.sroa.0.0.i.i.i.i.i.i, %_RNvMs1N_NtCsdJPVW0sQgAG_5alloc2rcINtB6_14UniqueRcUninitINtNtB8_3vec3VecNtCs8M6BBVNvC7a_11proc_macro29TokenTreeENtNtB8_5alloc6GlobalE7into_rcCs1SHOYL7dTh6_5quote.exit ], [ %_0.sroa.0.0.i.i.i.i.i.i.i, %_RNvMsd_NtCsdJPVW0sQgAG_5alloc2rcINtB5_2RcINtNtB7_3vec3VecNtCs8M6BBVNvC7a_11proc_macro29TokenTreeEE17clone_from_ref_inCs1SHOYL7dTh6_5quote.exit ], [ %_0.sroa.0.0.i.i.i.i.i.i.i, %bb1.i.i ]
  store ptr %_0.sroa.0.0.i.i.i.i.i.i.sink, ptr %this, align 8
  br label %bb13

bb13:                                             ; preds = %bb13.sink.split, %bb6
  %_77 = phi ptr [ %_22, %bb6 ], [ %_0.sroa.0.0.i.i.i.i.i.i.sink, %bb13.sink.split ]
  %_0 = getelementptr inbounds nuw i8, ptr %_77, i64 16
  ret ptr %_0

cleanup:                                          ; preds = %bb1.i.i
  %32 = landingpad { ptr, i32 }
          cleanup
  store ptr %_0.sroa.0.0.i.i.i.i.i.i.i, ptr %this, align 8
  br label %common.resume
}

; quote::spanned::join_spans
; Function Attrs: uwtable
define noundef i32 @_RNvNtCs1SHOYL7dTh6_5quote7spanned10join_spans(ptr dead_on_return noalias noundef readonly align 8 captures(none) dereferenceable(32) %tokens) unnamed_addr #0 personality ptr @rust_eh_personality {
start:
  %_9.i.i = alloca [32 x i8], align 8
  %_5.i = alloca [32 x i8], align 8
  %_20 = alloca [40 x i8], align 8
  %_16 = alloca [32 x i8], align 8
  %_10 = alloca [32 x i8], align 8
  %first = alloca [4 x i8], align 4
  %iter = alloca [40 x i8], align 8
  call void @llvm.lifetime.start.p0(i64 40, ptr nonnull %iter)
; call <proc_macro2::TokenStream as core::iter::traits::collect::IntoIterator>::into_iter
  call void @_RNvXs0_NtCs8M6BBVNvC7a_11proc_macro212token_streamNtB7_11TokenStreamNtNtNtNtCsjMrxcFdYDNN_4core4iter6traits7collect12IntoIterator9into_iter(ptr noalias noundef nonnull sret([40 x i8]) align 8 captures(none) dereferenceable(40) %iter, ptr noalias noundef nonnull readonly align 8 captures(none) dereferenceable(32) %tokens)
  call void @llvm.lifetime.start.p0(i64 32, ptr nonnull %_10)
; invoke <proc_macro2::token_stream::IntoIter as core::iter::traits::iterator::Iterator>::next
  invoke void @_RNvXNtCs8M6BBVNvC7a_11proc_macro212token_streamNtB2_8IntoIterNtNtNtNtCsjMrxcFdYDNN_4core4iter6traits8iterator8Iterator4next(ptr noalias noundef nonnull sret([32 x i8]) align 8 captures(address) dereferenceable(32) %_10, ptr noalias noundef nonnull align 8 dereferenceable(40) %iter)
          to label %bb8 unwind label %bb6

bb8:                                              ; preds = %start
  %0 = load i32, ptr %_10, align 8, !range !502, !noundef !9
  %.not = icmp eq i32 %0, 4
  br i1 %.not, label %bb10, label %bb11

bb11:                                             ; preds = %bb8
  call void @llvm.lifetime.start.p0(i64 32, ptr nonnull %_16)
  call void @llvm.memcpy.p0.p0.i64(ptr noundef nonnull align 8 dereferenceable(32) %_16, ptr noundef nonnull align 8 dereferenceable(32) %_10, i64 32, i1 false)
  %1 = load i32, ptr %_16, align 8, !range !132, !alias.scope !554, !noundef !9
  switch i32 %1, label %default.unreachable [
    i32 0, label %bb5.i.i
    i32 1, label %bb4.i.i
    i32 2, label %bb3.i.i
    i32 3, label %bb2.i.i
  ]

default.unreachable:                              ; preds = %bb3.i, %bb3.peel.i, %bb11
  unreachable

bb5.i.i:                                          ; preds = %bb11
  %2 = getelementptr inbounds nuw i8, ptr %_16, i64 8
  %3 = load i32, ptr %2, align 8, !range !95, !alias.scope !554, !noundef !9
  %4 = trunc nuw i32 %3 to i1
  %5 = getelementptr inbounds nuw i8, ptr %_16, i64 20
  %_18.i.i = load i32, ptr %5, align 4, !range !559, !alias.scope !554
  %_15.sroa.0.0.i.i = select i1 %4, i32 0, i32 %_18.i.i
  br label %bb1.i

bb4.i.i:                                          ; preds = %bb11
  %6 = getelementptr inbounds nuw i8, ptr %_16, i64 24
  %7 = load i8, ptr %6, align 8, !range !180, !alias.scope !554, !noundef !9
  %.not1.i.i = icmp eq i8 %7, 2
  %8 = getelementptr inbounds nuw i8, ptr %_16, i64 12
  %_14.i.i = load i32, ptr %8, align 4, !range !559, !alias.scope !554
  %_11.sroa.0.0.i.i = select i1 %.not1.i.i, i32 %_14.i.i, i32 0
  br label %bb1.i

bb3.i.i:                                          ; preds = %bb11
  %9 = getelementptr inbounds nuw i8, ptr %_16, i64 8
  %10 = load i32, ptr %9, align 8, !alias.scope !554, !noundef !9
  br label %bb1.i

bb2.i.i:                                          ; preds = %bb11
  %11 = getelementptr inbounds nuw i8, ptr %_16, i64 8
  %12 = load i64, ptr %11, align 8, !range !60, !alias.scope !554, !noundef !9
  %.not.i.i = icmp eq i64 %12, -9223372036854775808
  %13 = getelementptr inbounds nuw i8, ptr %_16, i64 20
  %_10.i.i = load i32, ptr %13, align 4, !range !559, !alias.scope !554
  %_7.sroa.0.0.i.i = select i1 %.not.i.i, i32 %_10.i.i, i32 0
  br label %bb1.i

bb1.i:                                            ; preds = %bb2.i.i, %bb3.i.i, %bb4.i.i, %bb5.i.i
  %_0.sroa.0.0.i.i = phi i32 [ %_15.sroa.0.0.i.i, %bb5.i.i ], [ %_11.sroa.0.0.i.i, %bb4.i.i ], [ %10, %bb3.i.i ], [ %_7.sroa.0.0.i.i, %bb2.i.i ]
; invoke core::ptr::drop_in_place::<proc_macro2::TokenTree>
  invoke fastcc void @_RINvNtCsjMrxcFdYDNN_4core3ptr13drop_in_placeNtCs8M6BBVNvC7a_11proc_macro29TokenTreeECs1SHOYL7dTh6_5quote(ptr noalias noundef nonnull align 8 dereferenceable(32) %_16)
          to label %bb12 unwind label %bb6

bb10:                                             ; preds = %bb8
  call void @llvm.lifetime.end.p0(i64 32, ptr nonnull %_10)
; invoke <proc_macro2::Span>::call_site
  %14 = invoke noundef i32 @_RNvMse_Cs8M6BBVNvC7a_11proc_macro2NtB5_4Span9call_site()
          to label %bb2 unwind label %bb6

bb2:                                              ; preds = %bb10
; call core::ptr::drop_in_place::<proc_macro2::token_stream::IntoIter>
  call fastcc void @_RINvNtCsjMrxcFdYDNN_4core3ptr13drop_in_placeNtNtCs8M6BBVNvC7a_11proc_macro212token_stream8IntoIterECs1SHOYL7dTh6_5quote(ptr noalias noundef nonnull readonly align 8 dereferenceable(40) %iter)
  br label %bb4

bb4:                                              ; preds = %bb5.i, %bb5.i.thread, %bb2
  %_0.sroa.0.0 = phi i32 [ %14, %bb2 ], [ %spec.select, %bb5.i ], [ %_0.sroa.0.0.i.i, %bb5.i.thread ]
  call void @llvm.lifetime.end.p0(i64 40, ptr nonnull %iter)
  ret i32 %_0.sroa.0.0

bb12:                                             ; preds = %bb1.i
  call void @llvm.lifetime.end.p0(i64 32, ptr nonnull %_16)
  call void @llvm.lifetime.end.p0(i64 32, ptr nonnull %_10)
  store i32 %_0.sroa.0.0.i.i, ptr %first, align 4
  call void @llvm.memcpy.p0.p0.i64(ptr noundef nonnull align 8 dereferenceable(40) %_20, ptr noundef nonnull align 8 dereferenceable(40) %iter, i64 40, i1 false)
  %15 = getelementptr inbounds nuw i8, ptr %_9.i.i, i64 8
  %16 = getelementptr inbounds nuw i8, ptr %_9.i.i, i64 20
  %17 = getelementptr inbounds nuw i8, ptr %_9.i.i, i64 24
  %18 = getelementptr inbounds nuw i8, ptr %_9.i.i, i64 12
  call void @llvm.lifetime.start.p0(i64 32, ptr nonnull %_5.i), !noalias !560
; invoke <proc_macro2::token_stream::IntoIter as core::iter::traits::iterator::Iterator>::next
  invoke void @_RNvXNtCs8M6BBVNvC7a_11proc_macro212token_streamNtB2_8IntoIterNtNtNtNtCsjMrxcFdYDNN_4core4iter6traits8iterator8Iterator4next(ptr noalias noundef nonnull sret([32 x i8]) align 8 captures(address) dereferenceable(32) %_5.i, ptr noalias noundef nonnull align 8 dereferenceable(40) %_20)
          to label %bb2.peel.i unwind label %cleanup.loopexit.split-lp.i

bb2.peel.i:                                       ; preds = %bb12
  %19 = load i32, ptr %_5.i, align 8, !range !502, !noalias !560, !noundef !9
  %.not.peel.i.not = icmp eq i32 %19, 4
  br i1 %.not.peel.i.not, label %bb5.i.thread, label %bb3.peel.i

bb5.i.thread:                                     ; preds = %bb2.peel.i
  call void @llvm.lifetime.end.p0(i64 32, ptr nonnull %_5.i), !noalias !560
; call core::ptr::drop_in_place::<proc_macro2::token_stream::IntoIter>
  call fastcc void @_RINvNtCsjMrxcFdYDNN_4core3ptr13drop_in_placeNtNtCs8M6BBVNvC7a_11proc_macro212token_stream8IntoIterECs1SHOYL7dTh6_5quote(ptr noalias noundef nonnull align 8 dereferenceable(40) %_20)
  br label %bb4

bb3.peel.i:                                       ; preds = %bb2.peel.i
  call void @llvm.lifetime.start.p0(i64 32, ptr nonnull %_9.i.i), !noalias !563
  call void @llvm.memcpy.p0.p0.i64(ptr noundef nonnull align 8 dereferenceable(32) %_9.i.i, ptr noundef nonnull align 8 dereferenceable(32) %_5.i, i64 32, i1 false), !noalias !560
  %20 = load i32, ptr %_9.i.i, align 8, !range !132, !alias.scope !566, !noalias !563, !noundef !9
  switch i32 %20, label %default.unreachable [
    i32 0, label %bb5.i.i.i.peel.i
    i32 1, label %bb4.i.i.i.peel.i
    i32 2, label %bb3.i.i.i.peel.i
    i32 3, label %bb2.i.i.i.peel.i
  ]

bb2.i.i.i.peel.i:                                 ; preds = %bb3.peel.i
  %21 = load i64, ptr %15, align 8, !range !60, !alias.scope !566, !noalias !563, !noundef !9
  %.not.i.i.i.peel.i = icmp eq i64 %21, -9223372036854775808
  %_10.i.i.i.peel.i = load i32, ptr %16, align 4, !range !559, !alias.scope !566, !noalias !563
  %_7.sroa.0.0.i.i.i.peel.i = select i1 %.not.i.i.i.peel.i, i32 %_10.i.i.i.peel.i, i32 0
  br label %_RNCNvNtCs1SHOYL7dTh6_5quote7spanned10join_spans0B5_.exit.i.peel.i

bb3.i.i.i.peel.i:                                 ; preds = %bb3.peel.i
  %22 = load i32, ptr %15, align 8, !alias.scope !566, !noalias !563, !noundef !9
  br label %_RNCNvNtCs1SHOYL7dTh6_5quote7spanned10join_spans0B5_.exit.i.peel.i

bb4.i.i.i.peel.i:                                 ; preds = %bb3.peel.i
  %23 = load i8, ptr %17, align 8, !range !180, !alias.scope !566, !noalias !563, !noundef !9
  %.not1.i.i.i.peel.i = icmp eq i8 %23, 2
  %_14.i.i.i.peel.i = load i32, ptr %18, align 4, !range !559, !alias.scope !566, !noalias !563
  %_11.sroa.0.0.i.i.i.peel.i = select i1 %.not1.i.i.i.peel.i, i32 %_14.i.i.i.peel.i, i32 0
  br label %_RNCNvNtCs1SHOYL7dTh6_5quote7spanned10join_spans0B5_.exit.i.peel.i

bb5.i.i.i.peel.i:                                 ; preds = %bb3.peel.i
  %24 = load i32, ptr %15, align 8, !range !95, !alias.scope !566, !noalias !563, !noundef !9
  %25 = trunc nuw i32 %24 to i1
  %_18.i.i.i.peel.i = load i32, ptr %16, align 4, !range !559, !alias.scope !566, !noalias !563
  %_15.sroa.0.0.i.i.i.peel.i = select i1 %25, i32 0, i32 %_18.i.i.i.peel.i
  br label %_RNCNvNtCs1SHOYL7dTh6_5quote7spanned10join_spans0B5_.exit.i.peel.i

_RNCNvNtCs1SHOYL7dTh6_5quote7spanned10join_spans0B5_.exit.i.peel.i: ; preds = %bb5.i.i.i.peel.i, %bb4.i.i.i.peel.i, %bb3.i.i.i.peel.i, %bb2.i.i.i.peel.i
  %_0.sroa.0.0.i.i.i.peel.i = phi i32 [ %_15.sroa.0.0.i.i.i.peel.i, %bb5.i.i.i.peel.i ], [ %_11.sroa.0.0.i.i.i.peel.i, %bb4.i.i.i.peel.i ], [ %22, %bb3.i.i.i.peel.i ], [ %_7.sroa.0.0.i.i.i.peel.i, %bb2.i.i.i.peel.i ]
; invoke core::ptr::drop_in_place::<proc_macro2::TokenTree>
  invoke fastcc void @_RINvNtCsjMrxcFdYDNN_4core3ptr13drop_in_placeNtCs8M6BBVNvC7a_11proc_macro29TokenTreeECs1SHOYL7dTh6_5quote(ptr noalias noundef nonnull align 8 dereferenceable(32) %_9.i.i)
          to label %bb1.i3 unwind label %cleanup.loopexit.split-lp.i

bb1.i3:                                           ; preds = %_RNCNvNtCs1SHOYL7dTh6_5quote7spanned10join_spans0B5_.exit.i.peel.i, %_RNCNvNtCs1SHOYL7dTh6_5quote7spanned10join_spans0B5_.exit.i.i
  %accum.sroa.6.0.i = phi i32 [ %_0.sroa.0.0.i.i.i.i, %_RNCNvNtCs1SHOYL7dTh6_5quote7spanned10join_spans0B5_.exit.i.i ], [ %_0.sroa.0.0.i.i.i.peel.i, %_RNCNvNtCs1SHOYL7dTh6_5quote7spanned10join_spans0B5_.exit.i.peel.i ]
  call void @llvm.lifetime.end.p0(i64 32, ptr nonnull %_9.i.i), !noalias !563
  call void @llvm.lifetime.end.p0(i64 32, ptr nonnull %_5.i), !noalias !560
  call void @llvm.lifetime.start.p0(i64 32, ptr nonnull %_5.i), !noalias !560
; invoke <proc_macro2::token_stream::IntoIter as core::iter::traits::iterator::Iterator>::next
  invoke void @_RNvXNtCs8M6BBVNvC7a_11proc_macro212token_streamNtB2_8IntoIterNtNtNtNtCsjMrxcFdYDNN_4core4iter6traits8iterator8Iterator4next(ptr noalias noundef nonnull sret([32 x i8]) align 8 captures(address) dereferenceable(32) %_5.i, ptr noalias noundef nonnull align 8 dereferenceable(40) %_20)
          to label %bb2.i unwind label %cleanup.loopexit.i

cleanup.loopexit.i:                               ; preds = %_RNCNvNtCs1SHOYL7dTh6_5quote7spanned10join_spans0B5_.exit.i.i, %bb1.i3
  %lpad.loopexit.i = landingpad { ptr, i32 }
          cleanup
  br label %cleanup.i

cleanup.loopexit.split-lp.i:                      ; preds = %_RNCNvNtCs1SHOYL7dTh6_5quote7spanned10join_spans0B5_.exit.i.peel.i, %bb12
  %lpad.loopexit.split-lp.i = landingpad { ptr, i32 }
          cleanup
  br label %cleanup.i

cleanup.i:                                        ; preds = %cleanup.loopexit.split-lp.i, %cleanup.loopexit.i
  %lpad.phi.i = phi { ptr, i32 } [ %lpad.loopexit.i, %cleanup.loopexit.i ], [ %lpad.loopexit.split-lp.i, %cleanup.loopexit.split-lp.i ]
; invoke core::ptr::drop_in_place::<proc_macro2::token_stream::IntoIter>
  invoke fastcc void @_RINvNtCsjMrxcFdYDNN_4core3ptr13drop_in_placeNtNtCs8M6BBVNvC7a_11proc_macro212token_stream8IntoIterECs1SHOYL7dTh6_5quote(ptr noalias noundef nonnull align 8 dereferenceable(40) %_20) #22
          to label %bb5 unwind label %terminate.i

bb2.i:                                            ; preds = %bb1.i3
  %26 = load i32, ptr %_5.i, align 8, !range !502, !noalias !560, !noundef !9
  %.not.i = icmp eq i32 %26, 4
  br i1 %.not.i, label %bb5.i, label %bb3.i

bb3.i:                                            ; preds = %bb2.i
  call void @llvm.lifetime.start.p0(i64 32, ptr nonnull %_9.i.i), !noalias !563
  call void @llvm.memcpy.p0.p0.i64(ptr noundef nonnull align 8 dereferenceable(32) %_9.i.i, ptr noundef nonnull align 8 dereferenceable(32) %_5.i, i64 32, i1 false), !noalias !560
  %27 = load i32, ptr %_9.i.i, align 8, !range !132, !alias.scope !566, !noalias !563, !noundef !9
  switch i32 %27, label %default.unreachable [
    i32 0, label %bb5.i.i.i.i
    i32 1, label %bb4.i.i.i.i
    i32 2, label %bb3.i.i.i.i
    i32 3, label %bb2.i.i.i.i
  ]

bb5.i.i.i.i:                                      ; preds = %bb3.i
  %28 = load i32, ptr %15, align 8, !range !95, !alias.scope !566, !noalias !563, !noundef !9
  %29 = trunc nuw i32 %28 to i1
  %_18.i.i.i.i = load i32, ptr %16, align 4, !range !559, !alias.scope !566, !noalias !563
  %_15.sroa.0.0.i.i.i.i = select i1 %29, i32 0, i32 %_18.i.i.i.i
  br label %_RNCNvNtCs1SHOYL7dTh6_5quote7spanned10join_spans0B5_.exit.i.i

bb4.i.i.i.i:                                      ; preds = %bb3.i
  %30 = load i8, ptr %17, align 8, !range !180, !alias.scope !566, !noalias !563, !noundef !9
  %.not1.i.i.i.i = icmp eq i8 %30, 2
  %_14.i.i.i.i = load i32, ptr %18, align 4, !range !559, !alias.scope !566, !noalias !563
  %_11.sroa.0.0.i.i.i.i = select i1 %.not1.i.i.i.i, i32 %_14.i.i.i.i, i32 0
  br label %_RNCNvNtCs1SHOYL7dTh6_5quote7spanned10join_spans0B5_.exit.i.i

bb3.i.i.i.i:                                      ; preds = %bb3.i
  %31 = load i32, ptr %15, align 8, !alias.scope !566, !noalias !563, !noundef !9
  br label %_RNCNvNtCs1SHOYL7dTh6_5quote7spanned10join_spans0B5_.exit.i.i

bb2.i.i.i.i:                                      ; preds = %bb3.i
  %32 = load i64, ptr %15, align 8, !range !60, !alias.scope !566, !noalias !563, !noundef !9
  %.not.i.i.i.i = icmp eq i64 %32, -9223372036854775808
  %_10.i.i.i.i = load i32, ptr %16, align 4, !range !559, !alias.scope !566, !noalias !563
  %_7.sroa.0.0.i.i.i.i = select i1 %.not.i.i.i.i, i32 %_10.i.i.i.i, i32 0
  br label %_RNCNvNtCs1SHOYL7dTh6_5quote7spanned10join_spans0B5_.exit.i.i

_RNCNvNtCs1SHOYL7dTh6_5quote7spanned10join_spans0B5_.exit.i.i: ; preds = %bb2.i.i.i.i, %bb3.i.i.i.i, %bb4.i.i.i.i, %bb5.i.i.i.i
  %_0.sroa.0.0.i.i.i.i = phi i32 [ %_15.sroa.0.0.i.i.i.i, %bb5.i.i.i.i ], [ %_11.sroa.0.0.i.i.i.i, %bb4.i.i.i.i ], [ %31, %bb3.i.i.i.i ], [ %_7.sroa.0.0.i.i.i.i, %bb2.i.i.i.i ]
; invoke core::ptr::drop_in_place::<proc_macro2::TokenTree>
  invoke fastcc void @_RINvNtCsjMrxcFdYDNN_4core3ptr13drop_in_placeNtCs8M6BBVNvC7a_11proc_macro29TokenTreeECs1SHOYL7dTh6_5quote(ptr noalias noundef nonnull align 8 dereferenceable(32) %_9.i.i)
          to label %bb1.i3 unwind label %cleanup.loopexit.i, !llvm.loop !571

bb5.i:                                            ; preds = %bb2.i
  call void @llvm.lifetime.end.p0(i64 32, ptr nonnull %_5.i), !noalias !560
; call core::ptr::drop_in_place::<proc_macro2::token_stream::IntoIter>
  call fastcc void @_RINvNtCsjMrxcFdYDNN_4core3ptr13drop_in_placeNtNtCs8M6BBVNvC7a_11proc_macro212token_stream8IntoIterECs1SHOYL7dTh6_5quote(ptr noalias noundef nonnull align 8 dereferenceable(40) %_20)
; call <proc_macro2::Span>::join
  %33 = call { i32, i32 } @_RNvMse_Cs8M6BBVNvC7a_11proc_macro2NtB5_4Span4join(ptr noalias noundef nonnull readonly align 4 captures(address, read_provenance) dereferenceable(4) %first, i32 noundef %accum.sroa.6.0.i)
  %34 = extractvalue { i32, i32 } %33, 0
  %35 = trunc i32 %34 to i1
  %36 = extractvalue { i32, i32 } %33, 1
  %spec.select = select i1 %35, i32 %36, i32 %_0.sroa.0.0.i.i
  br label %bb4

terminate.i:                                      ; preds = %cleanup.i
  %37 = landingpad { ptr, i32 }
          filter [0 x ptr] zeroinitializer
; call core::panicking::panic_in_cleanup
  call void @_RNvNtCsjMrxcFdYDNN_4core9panicking16panic_in_cleanup() #23
  unreachable

bb5:                                              ; preds = %bb6, %cleanup.i
  %eh.lpad-body7 = phi { ptr, i32 } [ %lpad.phi.i, %cleanup.i ], [ %lpad.thr_comm, %bb6 ]
  resume { ptr, i32 } %eh.lpad-body7

bb6:                                              ; preds = %bb10, %start, %bb1.i
  %lpad.thr_comm = landingpad { ptr, i32 }
          cleanup
; invoke core::ptr::drop_in_place::<proc_macro2::token_stream::IntoIter>
  invoke fastcc void @_RINvNtCsjMrxcFdYDNN_4core3ptr13drop_in_placeNtNtCs8M6BBVNvC7a_11proc_macro212token_stream8IntoIterECs1SHOYL7dTh6_5quote(ptr noalias noundef nonnull readonly align 8 dereferenceable(40) %iter)
          to label %bb5 unwind label %terminate

terminate:                                        ; preds = %bb6
  %38 = landingpad { ptr, i32 }
          filter [0 x ptr] zeroinitializer
; call core::panicking::panic_in_cleanup
  call void @_RNvNtCsjMrxcFdYDNN_4core9panicking16panic_in_cleanup() #23
  unreachable
}

; quote::__private::push_caret
; Function Attrs: uwtable
define void @_RNvNtCs1SHOYL7dTh6_5quote9___private10push_caret(ptr noalias noundef align 8 dereferenceable(32) %tokens) unnamed_addr #0 {
start:
  %_3.i = alloca [32 x i8], align 8
  %_5.sroa.4.0._3.sroa_idx.i = getelementptr inbounds nuw i8, ptr %_3.i, i64 4
  call void @llvm.lifetime.start.p0(i64 32, ptr nonnull %_3.i), !noalias !573
; call <proc_macro2::Punct>::new
  call void @_RNvMsq_Cs8M6BBVNvC7a_11proc_macro2NtB5_5Punct3new(ptr noalias noundef nonnull sret([12 x i8]) align 4 captures(none) dereferenceable(12) %_5.sroa.4.0._3.sroa_idx.i, i32 noundef 94, i1 noundef zeroext false)
  store i32 2, ptr %_3.i, align 8, !noalias !573
; call <proc_macro2::imp::TokenStream as core::iter::traits::collect::Extend<proc_macro2::TokenTree>>::extend::<core::iter::sources::once::Once<proc_macro2::TokenTree>>
  call fastcc void @_RINvXs7_NtCs8M6BBVNvC7a_11proc_macro23impNtB6_11TokenStreamINtNtNtNtCsjMrxcFdYDNN_4core4iter6traits7collect6ExtendNtB8_9TokenTreeE6extendINtNtNtB12_7sources4once4OnceB1O_EECs1SHOYL7dTh6_5quote(ptr noalias noundef nonnull align 8 dereferenceable(32) %tokens, ptr noalias noundef align 8 captures(address) dereferenceable(32) %_3.i), !noalias !577
  call void @llvm.lifetime.end.p0(i64 32, ptr nonnull %_3.i), !noalias !573
  ret void
}

; quote::__private::push_colon
; Function Attrs: uwtable
define void @_RNvNtCs1SHOYL7dTh6_5quote9___private10push_colon(ptr noalias noundef align 8 dereferenceable(32) %tokens) unnamed_addr #0 {
start:
  %_3.i = alloca [32 x i8], align 8
  %_5.sroa.4.0._3.sroa_idx.i = getelementptr inbounds nuw i8, ptr %_3.i, i64 4
  call void @llvm.lifetime.start.p0(i64 32, ptr nonnull %_3.i), !noalias !578
; call <proc_macro2::Punct>::new
  call void @_RNvMsq_Cs8M6BBVNvC7a_11proc_macro2NtB5_5Punct3new(ptr noalias noundef nonnull sret([12 x i8]) align 4 captures(none) dereferenceable(12) %_5.sroa.4.0._3.sroa_idx.i, i32 noundef 58, i1 noundef zeroext false)
  store i32 2, ptr %_3.i, align 8, !noalias !578
; call <proc_macro2::imp::TokenStream as core::iter::traits::collect::Extend<proc_macro2::TokenTree>>::extend::<core::iter::sources::once::Once<proc_macro2::TokenTree>>
  call fastcc void @_RINvXs7_NtCs8M6BBVNvC7a_11proc_macro23impNtB6_11TokenStreamINtNtNtNtCsjMrxcFdYDNN_4core4iter6traits7collect6ExtendNtB8_9TokenTreeE6extendINtNtNtB12_7sources4once4OnceB1O_EECs1SHOYL7dTh6_5quote(ptr noalias noundef nonnull align 8 dereferenceable(32) %tokens, ptr noalias noundef align 8 captures(address) dereferenceable(32) %_3.i), !noalias !582
  call void @llvm.lifetime.end.p0(i64 32, ptr nonnull %_3.i), !noalias !578
  ret void
}

; quote::__private::push_comma
; Function Attrs: uwtable
define void @_RNvNtCs1SHOYL7dTh6_5quote9___private10push_comma(ptr noalias noundef align 8 dereferenceable(32) %tokens) unnamed_addr #0 {
start:
  %_3.i = alloca [32 x i8], align 8
  %_5.sroa.4.0._3.sroa_idx.i = getelementptr inbounds nuw i8, ptr %_3.i, i64 4
  call void @llvm.lifetime.start.p0(i64 32, ptr nonnull %_3.i), !noalias !583
; call <proc_macro2::Punct>::new
  call void @_RNvMsq_Cs8M6BBVNvC7a_11proc_macro2NtB5_5Punct3new(ptr noalias noundef nonnull sret([12 x i8]) align 4 captures(none) dereferenceable(12) %_5.sroa.4.0._3.sroa_idx.i, i32 noundef 44, i1 noundef zeroext false)
  store i32 2, ptr %_3.i, align 8, !noalias !583
; call <proc_macro2::imp::TokenStream as core::iter::traits::collect::Extend<proc_macro2::TokenTree>>::extend::<core::iter::sources::once::Once<proc_macro2::TokenTree>>
  call fastcc void @_RINvXs7_NtCs8M6BBVNvC7a_11proc_macro23impNtB6_11TokenStreamINtNtNtNtCsjMrxcFdYDNN_4core4iter6traits7collect6ExtendNtB8_9TokenTreeE6extendINtNtNtB12_7sources4once4OnceB1O_EECs1SHOYL7dTh6_5quote(ptr noalias noundef nonnull align 8 dereferenceable(32) %tokens, ptr noalias noundef align 8 captures(address) dereferenceable(32) %_3.i), !noalias !587
  call void @llvm.lifetime.end.p0(i64 32, ptr nonnull %_3.i), !noalias !583
  ret void
}

; quote::__private::push_eq_eq
; Function Attrs: uwtable
define void @_RNvNtCs1SHOYL7dTh6_5quote9___private10push_eq_eq(ptr noalias noundef align 8 dereferenceable(32) %tokens) unnamed_addr #0 {
start:
  %_3.i1 = alloca [32 x i8], align 8
  %_3.i = alloca [32 x i8], align 8
  %_5.sroa.4.0._3.sroa_idx.i = getelementptr inbounds nuw i8, ptr %_3.i, i64 4
  call void @llvm.lifetime.start.p0(i64 32, ptr nonnull %_3.i), !noalias !588
; call <proc_macro2::Punct>::new
  call void @_RNvMsq_Cs8M6BBVNvC7a_11proc_macro2NtB5_5Punct3new(ptr noalias noundef nonnull sret([12 x i8]) align 4 captures(none) dereferenceable(12) %_5.sroa.4.0._3.sroa_idx.i, i32 noundef 61, i1 noundef zeroext true)
  store i32 2, ptr %_3.i, align 8, !noalias !588
; call <proc_macro2::imp::TokenStream as core::iter::traits::collect::Extend<proc_macro2::TokenTree>>::extend::<core::iter::sources::once::Once<proc_macro2::TokenTree>>
  call fastcc void @_RINvXs7_NtCs8M6BBVNvC7a_11proc_macro23impNtB6_11TokenStreamINtNtNtNtCsjMrxcFdYDNN_4core4iter6traits7collect6ExtendNtB8_9TokenTreeE6extendINtNtNtB12_7sources4once4OnceB1O_EECs1SHOYL7dTh6_5quote(ptr noalias noundef nonnull align 8 dereferenceable(32) %tokens, ptr noalias noundef align 8 captures(address) dereferenceable(32) %_3.i), !noalias !592
  call void @llvm.lifetime.end.p0(i64 32, ptr nonnull %_3.i), !noalias !588
  %_5.sroa.4.0._3.sroa_idx.i2 = getelementptr inbounds nuw i8, ptr %_3.i1, i64 4
  call void @llvm.lifetime.start.p0(i64 32, ptr nonnull %_3.i1), !noalias !593
; call <proc_macro2::Punct>::new
  call void @_RNvMsq_Cs8M6BBVNvC7a_11proc_macro2NtB5_5Punct3new(ptr noalias noundef nonnull sret([12 x i8]) align 4 captures(none) dereferenceable(12) %_5.sroa.4.0._3.sroa_idx.i2, i32 noundef 61, i1 noundef zeroext false)
  store i32 2, ptr %_3.i1, align 8, !noalias !593
; call <proc_macro2::imp::TokenStream as core::iter::traits::collect::Extend<proc_macro2::TokenTree>>::extend::<core::iter::sources::once::Once<proc_macro2::TokenTree>>
  call fastcc void @_RINvXs7_NtCs8M6BBVNvC7a_11proc_macro23impNtB6_11TokenStreamINtNtNtNtCsjMrxcFdYDNN_4core4iter6traits7collect6ExtendNtB8_9TokenTreeE6extendINtNtNtB12_7sources4once4OnceB1O_EECs1SHOYL7dTh6_5quote(ptr noalias noundef nonnull align 8 dereferenceable(32) %tokens, ptr noalias noundef align 8 captures(address) dereferenceable(32) %_3.i1), !noalias !597
  call void @llvm.lifetime.end.p0(i64 32, ptr nonnull %_3.i1), !noalias !593
  ret void
}

; quote::__private::push_group
; Function Attrs: uwtable
define void @_RNvNtCs1SHOYL7dTh6_5quote9___private10push_group(ptr noalias noundef align 8 dereferenceable(32) %tokens, i8 noundef range(i8 0, 4) %delimiter, ptr dead_on_return noalias noundef readonly align 8 captures(none) dereferenceable(32) %inner) unnamed_addr #0 {
start:
  %_4.sroa.4.i = alloca [28 x i8], align 4
  %_3.i = alloca [32 x i8], align 8
  %_5 = alloca [24 x i8], align 8
  call void @llvm.lifetime.start.p0(i64 24, ptr nonnull %_5)
; call <proc_macro2::Group>::new
  call void @_RNvMsn_Cs8M6BBVNvC7a_11proc_macro2NtB5_5Group3new(ptr noalias noundef nonnull sret([24 x i8]) align 8 captures(none) dereferenceable(24) %_5, i8 noundef %delimiter, ptr noalias noundef nonnull readonly align 8 captures(none) dereferenceable(32) %inner)
  call void @llvm.lifetime.start.p0(i64 28, ptr nonnull %_4.sroa.4.i)
  call void @llvm.lifetime.start.p0(i64 32, ptr nonnull %_3.i), !noalias !598
  %_4.sroa.4.8.sroa_idx.i = getelementptr inbounds nuw i8, ptr %_4.sroa.4.i, i64 4
  call void @llvm.memcpy.p0.p0.i64(ptr noundef nonnull align 4 dereferenceable(24) %_4.sroa.4.8.sroa_idx.i, ptr noundef nonnull readonly align 8 dereferenceable(24) %_5, i64 24, i1 false), !noalias !602
  store i32 0, ptr %_3.i, align 8, !noalias !598
  %_5.sroa.4.0._3.sroa_idx.i = getelementptr inbounds nuw i8, ptr %_3.i, i64 4
  call void @llvm.memcpy.p0.p0.i64(ptr noundef nonnull align 4 dereferenceable(28) %_5.sroa.4.0._3.sroa_idx.i, ptr noundef nonnull align 4 dereferenceable(28) %_4.sroa.4.i, i64 28, i1 false), !noalias !598
; call <proc_macro2::imp::TokenStream as core::iter::traits::collect::Extend<proc_macro2::TokenTree>>::extend::<core::iter::sources::once::Once<proc_macro2::TokenTree>>
  call fastcc void @_RINvXs7_NtCs8M6BBVNvC7a_11proc_macro23impNtB6_11TokenStreamINtNtNtNtCsjMrxcFdYDNN_4core4iter6traits7collect6ExtendNtB8_9TokenTreeE6extendINtNtNtB12_7sources4once4OnceB1O_EECs1SHOYL7dTh6_5quote(ptr noalias noundef nonnull align 8 dereferenceable(32) %tokens, ptr noalias noundef align 8 captures(address) dereferenceable(32) %_3.i), !noalias !603
  call void @llvm.lifetime.end.p0(i64 32, ptr nonnull %_3.i), !noalias !598
  call void @llvm.lifetime.end.p0(i64 28, ptr nonnull %_4.sroa.4.i)
  call void @llvm.lifetime.end.p0(i64 24, ptr nonnull %_5)
  ret void
}

; quote::__private::push_ident
; Function Attrs: uwtable
define void @_RNvNtCs1SHOYL7dTh6_5quote9___private10push_ident(ptr noalias noundef align 8 dereferenceable(32) %tokens, ptr noalias noundef nonnull readonly align 1 captures(address, read_provenance) %s.0, i64 noundef %s.1) unnamed_addr #0 {
start:
  %_4.sroa.4.i.i = alloca [28 x i8], align 4
  %_3.i.i = alloca [32 x i8], align 8
  %_5.i = alloca [24 x i8], align 8
; call <proc_macro2::Span>::call_site
  %span = tail call noundef i32 @_RNvMse_Cs8M6BBVNvC7a_11proc_macro2NtB5_4Span9call_site()
  call void @llvm.lifetime.start.p0(i64 24, ptr nonnull %_5.i), !noalias !604
  %_4.i.i.i = icmp samesign ugt i64 %s.1, 1
  br i1 %_4.i.i.i, label %_RNvMNtCsjMrxcFdYDNN_4core5sliceSh11starts_withCs1SHOYL7dTh6_5quote.exit.i.i, label %bb3.i.i

_RNvMNtCsjMrxcFdYDNN_4core5sliceSh11starts_withCs1SHOYL7dTh6_5quote.exit.i.i: ; preds = %start
  %0 = tail call i32 @memcmp(ptr noundef nonnull dereferenceable(2) @alloc_26741d7be2999f870b5ef1ed52a52387, ptr noundef nonnull readonly align 1 dereferenceable(2) %s.0, i64 2), !noalias !608
  %1 = icmp eq i32 %0, 0
  br i1 %1, label %bb2.i.i, label %bb3.i.i

bb3.i.i:                                          ; preds = %_RNvMNtCsjMrxcFdYDNN_4core5sliceSh11starts_withCs1SHOYL7dTh6_5quote.exit.i.i, %start
; call <proc_macro2::Ident>::new
  call void @_RNvMst_Cs8M6BBVNvC7a_11proc_macro2NtB5_5Ident3new(ptr noalias noundef nonnull sret([24 x i8]) align 8 captures(none) dereferenceable(24) %_5.i, ptr noalias noundef nonnull readonly align 1 captures(address, read_provenance) %s.0, i64 noundef %s.1, i32 noundef %span, ptr noalias noundef readonly align 8 captures(address, read_provenance) dereferenceable(24) @alloc_45cdb82e1f6d7e9f36108024db2c250f), !noalias !611
  br label %_RNvNtCs1SHOYL7dTh6_5quote9___private18push_ident_spanned.exit

bb2.i.i:                                          ; preds = %_RNvMNtCsjMrxcFdYDNN_4core5sliceSh11starts_withCs1SHOYL7dTh6_5quote.exit.i.i
  %_13.i.i = add i64 %s.1, -2
  %_15.i.i = getelementptr inbounds nuw i8, ptr %s.0, i64 2
; call <proc_macro2::Ident>::new_raw
  call void @_RNvMst_Cs8M6BBVNvC7a_11proc_macro2NtB5_5Ident7new_raw(ptr noalias noundef nonnull sret([24 x i8]) align 8 captures(none) dereferenceable(24) %_5.i, ptr noalias noundef nonnull readonly align 1 captures(address, read_provenance) %_15.i.i, i64 noundef %_13.i.i, i32 noundef %span, ptr noalias noundef readonly align 8 captures(address, read_provenance) dereferenceable(24) @alloc_1ab7e69cb0be14b6daa10eaf0accb519), !noalias !611
  br label %_RNvNtCs1SHOYL7dTh6_5quote9___private18push_ident_spanned.exit

_RNvNtCs1SHOYL7dTh6_5quote9___private18push_ident_spanned.exit: ; preds = %bb3.i.i, %bb2.i.i
  call void @llvm.lifetime.start.p0(i64 28, ptr nonnull %_4.sroa.4.i.i)
  call void @llvm.lifetime.start.p0(i64 32, ptr nonnull %_3.i.i), !noalias !612
  %_4.sroa.4.8.sroa_idx.i.i = getelementptr inbounds nuw i8, ptr %_4.sroa.4.i.i, i64 4
  call void @llvm.memcpy.p0.p0.i64(ptr noundef nonnull align 4 dereferenceable(24) %_4.sroa.4.8.sroa_idx.i.i, ptr noundef nonnull readonly align 8 dereferenceable(24) %_5.i, i64 24, i1 false), !noalias !616
  store i32 1, ptr %_3.i.i, align 8, !noalias !612
  %_5.sroa.4.0._3.sroa_idx.i.i = getelementptr inbounds nuw i8, ptr %_3.i.i, i64 4
  call void @llvm.memcpy.p0.p0.i64(ptr noundef nonnull align 4 dereferenceable(28) %_5.sroa.4.0._3.sroa_idx.i.i, ptr noundef nonnull align 4 dereferenceable(28) %_4.sroa.4.i.i, i64 28, i1 false), !noalias !612
; call <proc_macro2::imp::TokenStream as core::iter::traits::collect::Extend<proc_macro2::TokenTree>>::extend::<core::iter::sources::once::Once<proc_macro2::TokenTree>>
  call fastcc void @_RINvXs7_NtCs8M6BBVNvC7a_11proc_macro23impNtB6_11TokenStreamINtNtNtNtCsjMrxcFdYDNN_4core4iter6traits7collect6ExtendNtB8_9TokenTreeE6extendINtNtNtB12_7sources4once4OnceB1O_EECs1SHOYL7dTh6_5quote(ptr noalias noundef nonnull align 8 dereferenceable(32) %tokens, ptr noalias noundef align 8 captures(address) dereferenceable(32) %_3.i.i), !noalias !617
  call void @llvm.lifetime.end.p0(i64 32, ptr nonnull %_3.i.i), !noalias !612
  call void @llvm.lifetime.end.p0(i64 28, ptr nonnull %_4.sroa.4.i.i)
  call void @llvm.lifetime.end.p0(i64 24, ptr nonnull %_5.i), !noalias !604
  ret void
}

; quote::__private::push_or_eq
; Function Attrs: uwtable
define void @_RNvNtCs1SHOYL7dTh6_5quote9___private10push_or_eq(ptr noalias noundef align 8 dereferenceable(32) %tokens) unnamed_addr #0 {
start:
  %_3.i1 = alloca [32 x i8], align 8
  %_3.i = alloca [32 x i8], align 8
  %_5.sroa.4.0._3.sroa_idx.i = getelementptr inbounds nuw i8, ptr %_3.i, i64 4
  call void @llvm.lifetime.start.p0(i64 32, ptr nonnull %_3.i), !noalias !618
; call <proc_macro2::Punct>::new
  call void @_RNvMsq_Cs8M6BBVNvC7a_11proc_macro2NtB5_5Punct3new(ptr noalias noundef nonnull sret([12 x i8]) align 4 captures(none) dereferenceable(12) %_5.sroa.4.0._3.sroa_idx.i, i32 noundef 124, i1 noundef zeroext true)
  store i32 2, ptr %_3.i, align 8, !noalias !618
; call <proc_macro2::imp::TokenStream as core::iter::traits::collect::Extend<proc_macro2::TokenTree>>::extend::<core::iter::sources::once::Once<proc_macro2::TokenTree>>
  call fastcc void @_RINvXs7_NtCs8M6BBVNvC7a_11proc_macro23impNtB6_11TokenStreamINtNtNtNtCsjMrxcFdYDNN_4core4iter6traits7collect6ExtendNtB8_9TokenTreeE6extendINtNtNtB12_7sources4once4OnceB1O_EECs1SHOYL7dTh6_5quote(ptr noalias noundef nonnull align 8 dereferenceable(32) %tokens, ptr noalias noundef align 8 captures(address) dereferenceable(32) %_3.i), !noalias !622
  call void @llvm.lifetime.end.p0(i64 32, ptr nonnull %_3.i), !noalias !618
  %_5.sroa.4.0._3.sroa_idx.i2 = getelementptr inbounds nuw i8, ptr %_3.i1, i64 4
  call void @llvm.lifetime.start.p0(i64 32, ptr nonnull %_3.i1), !noalias !623
; call <proc_macro2::Punct>::new
  call void @_RNvMsq_Cs8M6BBVNvC7a_11proc_macro2NtB5_5Punct3new(ptr noalias noundef nonnull sret([12 x i8]) align 4 captures(none) dereferenceable(12) %_5.sroa.4.0._3.sroa_idx.i2, i32 noundef 61, i1 noundef zeroext false)
  store i32 2, ptr %_3.i1, align 8, !noalias !623
; call <proc_macro2::imp::TokenStream as core::iter::traits::collect::Extend<proc_macro2::TokenTree>>::extend::<core::iter::sources::once::Once<proc_macro2::TokenTree>>
  call fastcc void @_RINvXs7_NtCs8M6BBVNvC7a_11proc_macro23impNtB6_11TokenStreamINtNtNtNtCsjMrxcFdYDNN_4core4iter6traits7collect6ExtendNtB8_9TokenTreeE6extendINtNtNtB12_7sources4once4OnceB1O_EECs1SHOYL7dTh6_5quote(ptr noalias noundef nonnull align 8 dereferenceable(32) %tokens, ptr noalias noundef align 8 captures(address) dereferenceable(32) %_3.i1), !noalias !627
  call void @llvm.lifetime.end.p0(i64 32, ptr nonnull %_3.i1), !noalias !623
  ret void
}

; quote::__private::push_or_or
; Function Attrs: uwtable
define void @_RNvNtCs1SHOYL7dTh6_5quote9___private10push_or_or(ptr noalias noundef align 8 dereferenceable(32) %tokens) unnamed_addr #0 {
start:
  %_3.i1 = alloca [32 x i8], align 8
  %_3.i = alloca [32 x i8], align 8
  %_5.sroa.4.0._3.sroa_idx.i = getelementptr inbounds nuw i8, ptr %_3.i, i64 4
  call void @llvm.lifetime.start.p0(i64 32, ptr nonnull %_3.i), !noalias !628
; call <proc_macro2::Punct>::new
  call void @_RNvMsq_Cs8M6BBVNvC7a_11proc_macro2NtB5_5Punct3new(ptr noalias noundef nonnull sret([12 x i8]) align 4 captures(none) dereferenceable(12) %_5.sroa.4.0._3.sroa_idx.i, i32 noundef 124, i1 noundef zeroext true)
  store i32 2, ptr %_3.i, align 8, !noalias !628
; call <proc_macro2::imp::TokenStream as core::iter::traits::collect::Extend<proc_macro2::TokenTree>>::extend::<core::iter::sources::once::Once<proc_macro2::TokenTree>>
  call fastcc void @_RINvXs7_NtCs8M6BBVNvC7a_11proc_macro23impNtB6_11TokenStreamINtNtNtNtCsjMrxcFdYDNN_4core4iter6traits7collect6ExtendNtB8_9TokenTreeE6extendINtNtNtB12_7sources4once4OnceB1O_EECs1SHOYL7dTh6_5quote(ptr noalias noundef nonnull align 8 dereferenceable(32) %tokens, ptr noalias noundef align 8 captures(address) dereferenceable(32) %_3.i), !noalias !632
  call void @llvm.lifetime.end.p0(i64 32, ptr nonnull %_3.i), !noalias !628
  %_5.sroa.4.0._3.sroa_idx.i2 = getelementptr inbounds nuw i8, ptr %_3.i1, i64 4
  call void @llvm.lifetime.start.p0(i64 32, ptr nonnull %_3.i1), !noalias !633
; call <proc_macro2::Punct>::new
  call void @_RNvMsq_Cs8M6BBVNvC7a_11proc_macro2NtB5_5Punct3new(ptr noalias noundef nonnull sret([12 x i8]) align 4 captures(none) dereferenceable(12) %_5.sroa.4.0._3.sroa_idx.i2, i32 noundef 124, i1 noundef zeroext false)
  store i32 2, ptr %_3.i1, align 8, !noalias !633
; call <proc_macro2::imp::TokenStream as core::iter::traits::collect::Extend<proc_macro2::TokenTree>>::extend::<core::iter::sources::once::Once<proc_macro2::TokenTree>>
  call fastcc void @_RINvXs7_NtCs8M6BBVNvC7a_11proc_macro23impNtB6_11TokenStreamINtNtNtNtCsjMrxcFdYDNN_4core4iter6traits7collect6ExtendNtB8_9TokenTreeE6extendINtNtNtB12_7sources4once4OnceB1O_EECs1SHOYL7dTh6_5quote(ptr noalias noundef nonnull align 8 dereferenceable(32) %tokens, ptr noalias noundef align 8 captures(address) dereferenceable(32) %_3.i1), !noalias !637
  call void @llvm.lifetime.end.p0(i64 32, ptr nonnull %_3.i1), !noalias !633
  ret void
}

; quote::__private::push_pound
; Function Attrs: uwtable
define void @_RNvNtCs1SHOYL7dTh6_5quote9___private10push_pound(ptr noalias noundef align 8 dereferenceable(32) %tokens) unnamed_addr #0 {
start:
  %_3.i = alloca [32 x i8], align 8
  %_5.sroa.4.0._3.sroa_idx.i = getelementptr inbounds nuw i8, ptr %_3.i, i64 4
  call void @llvm.lifetime.start.p0(i64 32, ptr nonnull %_3.i), !noalias !638
; call <proc_macro2::Punct>::new
  call void @_RNvMsq_Cs8M6BBVNvC7a_11proc_macro2NtB5_5Punct3new(ptr noalias noundef nonnull sret([12 x i8]) align 4 captures(none) dereferenceable(12) %_5.sroa.4.0._3.sroa_idx.i, i32 noundef 35, i1 noundef zeroext false)
  store i32 2, ptr %_3.i, align 8, !noalias !638
; call <proc_macro2::imp::TokenStream as core::iter::traits::collect::Extend<proc_macro2::TokenTree>>::extend::<core::iter::sources::once::Once<proc_macro2::TokenTree>>
  call fastcc void @_RINvXs7_NtCs8M6BBVNvC7a_11proc_macro23impNtB6_11TokenStreamINtNtNtNtCsjMrxcFdYDNN_4core4iter6traits7collect6ExtendNtB8_9TokenTreeE6extendINtNtNtB12_7sources4once4OnceB1O_EECs1SHOYL7dTh6_5quote(ptr noalias noundef nonnull align 8 dereferenceable(32) %tokens, ptr noalias noundef align 8 captures(address) dereferenceable(32) %_3.i), !noalias !642
  call void @llvm.lifetime.end.p0(i64 32, ptr nonnull %_3.i), !noalias !638
  ret void
}

; quote::__private::push_add_eq
; Function Attrs: uwtable
define void @_RNvNtCs1SHOYL7dTh6_5quote9___private11push_add_eq(ptr noalias noundef align 8 dereferenceable(32) %tokens) unnamed_addr #0 {
start:
  %_3.i1 = alloca [32 x i8], align 8
  %_3.i = alloca [32 x i8], align 8
  %_5.sroa.4.0._3.sroa_idx.i = getelementptr inbounds nuw i8, ptr %_3.i, i64 4
  call void @llvm.lifetime.start.p0(i64 32, ptr nonnull %_3.i), !noalias !643
; call <proc_macro2::Punct>::new
  call void @_RNvMsq_Cs8M6BBVNvC7a_11proc_macro2NtB5_5Punct3new(ptr noalias noundef nonnull sret([12 x i8]) align 4 captures(none) dereferenceable(12) %_5.sroa.4.0._3.sroa_idx.i, i32 noundef 43, i1 noundef zeroext true)
  store i32 2, ptr %_3.i, align 8, !noalias !643
; call <proc_macro2::imp::TokenStream as core::iter::traits::collect::Extend<proc_macro2::TokenTree>>::extend::<core::iter::sources::once::Once<proc_macro2::TokenTree>>
  call fastcc void @_RINvXs7_NtCs8M6BBVNvC7a_11proc_macro23impNtB6_11TokenStreamINtNtNtNtCsjMrxcFdYDNN_4core4iter6traits7collect6ExtendNtB8_9TokenTreeE6extendINtNtNtB12_7sources4once4OnceB1O_EECs1SHOYL7dTh6_5quote(ptr noalias noundef nonnull align 8 dereferenceable(32) %tokens, ptr noalias noundef align 8 captures(address) dereferenceable(32) %_3.i), !noalias !647
  call void @llvm.lifetime.end.p0(i64 32, ptr nonnull %_3.i), !noalias !643
  %_5.sroa.4.0._3.sroa_idx.i2 = getelementptr inbounds nuw i8, ptr %_3.i1, i64 4
  call void @llvm.lifetime.start.p0(i64 32, ptr nonnull %_3.i1), !noalias !648
; call <proc_macro2::Punct>::new
  call void @_RNvMsq_Cs8M6BBVNvC7a_11proc_macro2NtB5_5Punct3new(ptr noalias noundef nonnull sret([12 x i8]) align 4 captures(none) dereferenceable(12) %_5.sroa.4.0._3.sroa_idx.i2, i32 noundef 61, i1 noundef zeroext false)
  store i32 2, ptr %_3.i1, align 8, !noalias !648
; call <proc_macro2::imp::TokenStream as core::iter::traits::collect::Extend<proc_macro2::TokenTree>>::extend::<core::iter::sources::once::Once<proc_macro2::TokenTree>>
  call fastcc void @_RINvXs7_NtCs8M6BBVNvC7a_11proc_macro23impNtB6_11TokenStreamINtNtNtNtCsjMrxcFdYDNN_4core4iter6traits7collect6ExtendNtB8_9TokenTreeE6extendINtNtNtB12_7sources4once4OnceB1O_EECs1SHOYL7dTh6_5quote(ptr noalias noundef nonnull align 8 dereferenceable(32) %tokens, ptr noalias noundef align 8 captures(address) dereferenceable(32) %_3.i1), !noalias !652
  call void @llvm.lifetime.end.p0(i64 32, ptr nonnull %_3.i1), !noalias !648
  ret void
}

; quote::__private::push_and_eq
; Function Attrs: uwtable
define void @_RNvNtCs1SHOYL7dTh6_5quote9___private11push_and_eq(ptr noalias noundef align 8 dereferenceable(32) %tokens) unnamed_addr #0 {
start:
  %_3.i1 = alloca [32 x i8], align 8
  %_3.i = alloca [32 x i8], align 8
  %_5.sroa.4.0._3.sroa_idx.i = getelementptr inbounds nuw i8, ptr %_3.i, i64 4
  call void @llvm.lifetime.start.p0(i64 32, ptr nonnull %_3.i), !noalias !653
; call <proc_macro2::Punct>::new
  call void @_RNvMsq_Cs8M6BBVNvC7a_11proc_macro2NtB5_5Punct3new(ptr noalias noundef nonnull sret([12 x i8]) align 4 captures(none) dereferenceable(12) %_5.sroa.4.0._3.sroa_idx.i, i32 noundef 38, i1 noundef zeroext true)
  store i32 2, ptr %_3.i, align 8, !noalias !653
; call <proc_macro2::imp::TokenStream as core::iter::traits::collect::Extend<proc_macro2::TokenTree>>::extend::<core::iter::sources::once::Once<proc_macro2::TokenTree>>
  call fastcc void @_RINvXs7_NtCs8M6BBVNvC7a_11proc_macro23impNtB6_11TokenStreamINtNtNtNtCsjMrxcFdYDNN_4core4iter6traits7collect6ExtendNtB8_9TokenTreeE6extendINtNtNtB12_7sources4once4OnceB1O_EECs1SHOYL7dTh6_5quote(ptr noalias noundef nonnull align 8 dereferenceable(32) %tokens, ptr noalias noundef align 8 captures(address) dereferenceable(32) %_3.i), !noalias !657
  call void @llvm.lifetime.end.p0(i64 32, ptr nonnull %_3.i), !noalias !653
  %_5.sroa.4.0._3.sroa_idx.i2 = getelementptr inbounds nuw i8, ptr %_3.i1, i64 4
  call void @llvm.lifetime.start.p0(i64 32, ptr nonnull %_3.i1), !noalias !658
; call <proc_macro2::Punct>::new
  call void @_RNvMsq_Cs8M6BBVNvC7a_11proc_macro2NtB5_5Punct3new(ptr noalias noundef nonnull sret([12 x i8]) align 4 captures(none) dereferenceable(12) %_5.sroa.4.0._3.sroa_idx.i2, i32 noundef 61, i1 noundef zeroext false)
  store i32 2, ptr %_3.i1, align 8, !noalias !658
; call <proc_macro2::imp::TokenStream as core::iter::traits::collect::Extend<proc_macro2::TokenTree>>::extend::<core::iter::sources::once::Once<proc_macro2::TokenTree>>
  call fastcc void @_RINvXs7_NtCs8M6BBVNvC7a_11proc_macro23impNtB6_11TokenStreamINtNtNtNtCsjMrxcFdYDNN_4core4iter6traits7collect6ExtendNtB8_9TokenTreeE6extendINtNtNtB12_7sources4once4OnceB1O_EECs1SHOYL7dTh6_5quote(ptr noalias noundef nonnull align 8 dereferenceable(32) %tokens, ptr noalias noundef align 8 captures(address) dereferenceable(32) %_3.i1), !noalias !662
  call void @llvm.lifetime.end.p0(i64 32, ptr nonnull %_3.i1), !noalias !658
  ret void
}

; quote::__private::push_colon2
; Function Attrs: uwtable
define void @_RNvNtCs1SHOYL7dTh6_5quote9___private11push_colon2(ptr noalias noundef align 8 dereferenceable(32) %tokens) unnamed_addr #0 {
start:
  %_3.i1 = alloca [32 x i8], align 8
  %_3.i = alloca [32 x i8], align 8
  %_5.sroa.4.0._3.sroa_idx.i = getelementptr inbounds nuw i8, ptr %_3.i, i64 4
  call void @llvm.lifetime.start.p0(i64 32, ptr nonnull %_3.i), !noalias !663
; call <proc_macro2::Punct>::new
  call void @_RNvMsq_Cs8M6BBVNvC7a_11proc_macro2NtB5_5Punct3new(ptr noalias noundef nonnull sret([12 x i8]) align 4 captures(none) dereferenceable(12) %_5.sroa.4.0._3.sroa_idx.i, i32 noundef 58, i1 noundef zeroext true)
  store i32 2, ptr %_3.i, align 8, !noalias !663
; call <proc_macro2::imp::TokenStream as core::iter::traits::collect::Extend<proc_macro2::TokenTree>>::extend::<core::iter::sources::once::Once<proc_macro2::TokenTree>>
  call fastcc void @_RINvXs7_NtCs8M6BBVNvC7a_11proc_macro23impNtB6_11TokenStreamINtNtNtNtCsjMrxcFdYDNN_4core4iter6traits7collect6ExtendNtB8_9TokenTreeE6extendINtNtNtB12_7sources4once4OnceB1O_EECs1SHOYL7dTh6_5quote(ptr noalias noundef nonnull align 8 dereferenceable(32) %tokens, ptr noalias noundef align 8 captures(address) dereferenceable(32) %_3.i), !noalias !667
  call void @llvm.lifetime.end.p0(i64 32, ptr nonnull %_3.i), !noalias !663
  %_5.sroa.4.0._3.sroa_idx.i2 = getelementptr inbounds nuw i8, ptr %_3.i1, i64 4
  call void @llvm.lifetime.start.p0(i64 32, ptr nonnull %_3.i1), !noalias !668
; call <proc_macro2::Punct>::new
  call void @_RNvMsq_Cs8M6BBVNvC7a_11proc_macro2NtB5_5Punct3new(ptr noalias noundef nonnull sret([12 x i8]) align 4 captures(none) dereferenceable(12) %_5.sroa.4.0._3.sroa_idx.i2, i32 noundef 58, i1 noundef zeroext false)
  store i32 2, ptr %_3.i1, align 8, !noalias !668
; call <proc_macro2::imp::TokenStream as core::iter::traits::collect::Extend<proc_macro2::TokenTree>>::extend::<core::iter::sources::once::Once<proc_macro2::TokenTree>>
  call fastcc void @_RINvXs7_NtCs8M6BBVNvC7a_11proc_macro23impNtB6_11TokenStreamINtNtNtNtCsjMrxcFdYDNN_4core4iter6traits7collect6ExtendNtB8_9TokenTreeE6extendINtNtNtB12_7sources4once4OnceB1O_EECs1SHOYL7dTh6_5quote(ptr noalias noundef nonnull align 8 dereferenceable(32) %tokens, ptr noalias noundef align 8 captures(address) dereferenceable(32) %_3.i1), !noalias !672
  call void @llvm.lifetime.end.p0(i64 32, ptr nonnull %_3.i1), !noalias !668
  ret void
}

; quote::__private::push_div_eq
; Function Attrs: uwtable
define void @_RNvNtCs1SHOYL7dTh6_5quote9___private11push_div_eq(ptr noalias noundef align 8 dereferenceable(32) %tokens) unnamed_addr #0 {
start:
  %_3.i1 = alloca [32 x i8], align 8
  %_3.i = alloca [32 x i8], align 8
  %_5.sroa.4.0._3.sroa_idx.i = getelementptr inbounds nuw i8, ptr %_3.i, i64 4
  call void @llvm.lifetime.start.p0(i64 32, ptr nonnull %_3.i), !noalias !673
; call <proc_macro2::Punct>::new
  call void @_RNvMsq_Cs8M6BBVNvC7a_11proc_macro2NtB5_5Punct3new(ptr noalias noundef nonnull sret([12 x i8]) align 4 captures(none) dereferenceable(12) %_5.sroa.4.0._3.sroa_idx.i, i32 noundef 47, i1 noundef zeroext true)
  store i32 2, ptr %_3.i, align 8, !noalias !673
; call <proc_macro2::imp::TokenStream as core::iter::traits::collect::Extend<proc_macro2::TokenTree>>::extend::<core::iter::sources::once::Once<proc_macro2::TokenTree>>
  call fastcc void @_RINvXs7_NtCs8M6BBVNvC7a_11proc_macro23impNtB6_11TokenStreamINtNtNtNtCsjMrxcFdYDNN_4core4iter6traits7collect6ExtendNtB8_9TokenTreeE6extendINtNtNtB12_7sources4once4OnceB1O_EECs1SHOYL7dTh6_5quote(ptr noalias noundef nonnull align 8 dereferenceable(32) %tokens, ptr noalias noundef align 8 captures(address) dereferenceable(32) %_3.i), !noalias !677
  call void @llvm.lifetime.end.p0(i64 32, ptr nonnull %_3.i), !noalias !673
  %_5.sroa.4.0._3.sroa_idx.i2 = getelementptr inbounds nuw i8, ptr %_3.i1, i64 4
  call void @llvm.lifetime.start.p0(i64 32, ptr nonnull %_3.i1), !noalias !678
; call <proc_macro2::Punct>::new
  call void @_RNvMsq_Cs8M6BBVNvC7a_11proc_macro2NtB5_5Punct3new(ptr noalias noundef nonnull sret([12 x i8]) align 4 captures(none) dereferenceable(12) %_5.sroa.4.0._3.sroa_idx.i2, i32 noundef 61, i1 noundef zeroext false)
  store i32 2, ptr %_3.i1, align 8, !noalias !678
; call <proc_macro2::imp::TokenStream as core::iter::traits::collect::Extend<proc_macro2::TokenTree>>::extend::<core::iter::sources::once::Once<proc_macro2::TokenTree>>
  call fastcc void @_RINvXs7_NtCs8M6BBVNvC7a_11proc_macro23impNtB6_11TokenStreamINtNtNtNtCsjMrxcFdYDNN_4core4iter6traits7collect6ExtendNtB8_9TokenTreeE6extendINtNtNtB12_7sources4once4OnceB1O_EECs1SHOYL7dTh6_5quote(ptr noalias noundef nonnull align 8 dereferenceable(32) %tokens, ptr noalias noundef align 8 captures(address) dereferenceable(32) %_3.i1), !noalias !682
  call void @llvm.lifetime.end.p0(i64 32, ptr nonnull %_3.i1), !noalias !678
  ret void
}

; quote::__private::push_larrow
; Function Attrs: uwtable
define void @_RNvNtCs1SHOYL7dTh6_5quote9___private11push_larrow(ptr noalias noundef align 8 dereferenceable(32) %tokens) unnamed_addr #0 {
start:
  %_3.i1 = alloca [32 x i8], align 8
  %_3.i = alloca [32 x i8], align 8
  %_5.sroa.4.0._3.sroa_idx.i = getelementptr inbounds nuw i8, ptr %_3.i, i64 4
  call void @llvm.lifetime.start.p0(i64 32, ptr nonnull %_3.i), !noalias !683
; call <proc_macro2::Punct>::new
  call void @_RNvMsq_Cs8M6BBVNvC7a_11proc_macro2NtB5_5Punct3new(ptr noalias noundef nonnull sret([12 x i8]) align 4 captures(none) dereferenceable(12) %_5.sroa.4.0._3.sroa_idx.i, i32 noundef 60, i1 noundef zeroext true)
  store i32 2, ptr %_3.i, align 8, !noalias !683
; call <proc_macro2::imp::TokenStream as core::iter::traits::collect::Extend<proc_macro2::TokenTree>>::extend::<core::iter::sources::once::Once<proc_macro2::TokenTree>>
  call fastcc void @_RINvXs7_NtCs8M6BBVNvC7a_11proc_macro23impNtB6_11TokenStreamINtNtNtNtCsjMrxcFdYDNN_4core4iter6traits7collect6ExtendNtB8_9TokenTreeE6extendINtNtNtB12_7sources4once4OnceB1O_EECs1SHOYL7dTh6_5quote(ptr noalias noundef nonnull align 8 dereferenceable(32) %tokens, ptr noalias noundef align 8 captures(address) dereferenceable(32) %_3.i), !noalias !687
  call void @llvm.lifetime.end.p0(i64 32, ptr nonnull %_3.i), !noalias !683
  %_5.sroa.4.0._3.sroa_idx.i2 = getelementptr inbounds nuw i8, ptr %_3.i1, i64 4
  call void @llvm.lifetime.start.p0(i64 32, ptr nonnull %_3.i1), !noalias !688
; call <proc_macro2::Punct>::new
  call void @_RNvMsq_Cs8M6BBVNvC7a_11proc_macro2NtB5_5Punct3new(ptr noalias noundef nonnull sret([12 x i8]) align 4 captures(none) dereferenceable(12) %_5.sroa.4.0._3.sroa_idx.i2, i32 noundef 45, i1 noundef zeroext false)
  store i32 2, ptr %_3.i1, align 8, !noalias !688
; call <proc_macro2::imp::TokenStream as core::iter::traits::collect::Extend<proc_macro2::TokenTree>>::extend::<core::iter::sources::once::Once<proc_macro2::TokenTree>>
  call fastcc void @_RINvXs7_NtCs8M6BBVNvC7a_11proc_macro23impNtB6_11TokenStreamINtNtNtNtCsjMrxcFdYDNN_4core4iter6traits7collect6ExtendNtB8_9TokenTreeE6extendINtNtNtB12_7sources4once4OnceB1O_EECs1SHOYL7dTh6_5quote(ptr noalias noundef nonnull align 8 dereferenceable(32) %tokens, ptr noalias noundef align 8 captures(address) dereferenceable(32) %_3.i1), !noalias !692
  call void @llvm.lifetime.end.p0(i64 32, ptr nonnull %_3.i1), !noalias !688
  ret void
}

; quote::__private::push_mul_eq
; Function Attrs: uwtable
define void @_RNvNtCs1SHOYL7dTh6_5quote9___private11push_mul_eq(ptr noalias noundef align 8 dereferenceable(32) %tokens) unnamed_addr #0 {
start:
  %_3.i1 = alloca [32 x i8], align 8
  %_3.i = alloca [32 x i8], align 8
  %_5.sroa.4.0._3.sroa_idx.i = getelementptr inbounds nuw i8, ptr %_3.i, i64 4
  call void @llvm.lifetime.start.p0(i64 32, ptr nonnull %_3.i), !noalias !693
; call <proc_macro2::Punct>::new
  call void @_RNvMsq_Cs8M6BBVNvC7a_11proc_macro2NtB5_5Punct3new(ptr noalias noundef nonnull sret([12 x i8]) align 4 captures(none) dereferenceable(12) %_5.sroa.4.0._3.sroa_idx.i, i32 noundef 42, i1 noundef zeroext true)
  store i32 2, ptr %_3.i, align 8, !noalias !693
; call <proc_macro2::imp::TokenStream as core::iter::traits::collect::Extend<proc_macro2::TokenTree>>::extend::<core::iter::sources::once::Once<proc_macro2::TokenTree>>
  call fastcc void @_RINvXs7_NtCs8M6BBVNvC7a_11proc_macro23impNtB6_11TokenStreamINtNtNtNtCsjMrxcFdYDNN_4core4iter6traits7collect6ExtendNtB8_9TokenTreeE6extendINtNtNtB12_7sources4once4OnceB1O_EECs1SHOYL7dTh6_5quote(ptr noalias noundef nonnull align 8 dereferenceable(32) %tokens, ptr noalias noundef align 8 captures(address) dereferenceable(32) %_3.i), !noalias !697
  call void @llvm.lifetime.end.p0(i64 32, ptr nonnull %_3.i), !noalias !693
  %_5.sroa.4.0._3.sroa_idx.i2 = getelementptr inbounds nuw i8, ptr %_3.i1, i64 4
  call void @llvm.lifetime.start.p0(i64 32, ptr nonnull %_3.i1), !noalias !698
; call <proc_macro2::Punct>::new
  call void @_RNvMsq_Cs8M6BBVNvC7a_11proc_macro2NtB5_5Punct3new(ptr noalias noundef nonnull sret([12 x i8]) align 4 captures(none) dereferenceable(12) %_5.sroa.4.0._3.sroa_idx.i2, i32 noundef 61, i1 noundef zeroext false)
  store i32 2, ptr %_3.i1, align 8, !noalias !698
; call <proc_macro2::imp::TokenStream as core::iter::traits::collect::Extend<proc_macro2::TokenTree>>::extend::<core::iter::sources::once::Once<proc_macro2::TokenTree>>
  call fastcc void @_RINvXs7_NtCs8M6BBVNvC7a_11proc_macro23impNtB6_11TokenStreamINtNtNtNtCsjMrxcFdYDNN_4core4iter6traits7collect6ExtendNtB8_9TokenTreeE6extendINtNtNtB12_7sources4once4OnceB1O_EECs1SHOYL7dTh6_5quote(ptr noalias noundef nonnull align 8 dereferenceable(32) %tokens, ptr noalias noundef align 8 captures(address) dereferenceable(32) %_3.i1), !noalias !702
  call void @llvm.lifetime.end.p0(i64 32, ptr nonnull %_3.i1), !noalias !698
  ret void
}

; quote::__private::push_rarrow
; Function Attrs: uwtable
define void @_RNvNtCs1SHOYL7dTh6_5quote9___private11push_rarrow(ptr noalias noundef align 8 dereferenceable(32) %tokens) unnamed_addr #0 {
start:
  %_3.i1 = alloca [32 x i8], align 8
  %_3.i = alloca [32 x i8], align 8
  %_5.sroa.4.0._3.sroa_idx.i = getelementptr inbounds nuw i8, ptr %_3.i, i64 4
  call void @llvm.lifetime.start.p0(i64 32, ptr nonnull %_3.i), !noalias !703
; call <proc_macro2::Punct>::new
  call void @_RNvMsq_Cs8M6BBVNvC7a_11proc_macro2NtB5_5Punct3new(ptr noalias noundef nonnull sret([12 x i8]) align 4 captures(none) dereferenceable(12) %_5.sroa.4.0._3.sroa_idx.i, i32 noundef 45, i1 noundef zeroext true)
  store i32 2, ptr %_3.i, align 8, !noalias !703
; call <proc_macro2::imp::TokenStream as core::iter::traits::collect::Extend<proc_macro2::TokenTree>>::extend::<core::iter::sources::once::Once<proc_macro2::TokenTree>>
  call fastcc void @_RINvXs7_NtCs8M6BBVNvC7a_11proc_macro23impNtB6_11TokenStreamINtNtNtNtCsjMrxcFdYDNN_4core4iter6traits7collect6ExtendNtB8_9TokenTreeE6extendINtNtNtB12_7sources4once4OnceB1O_EECs1SHOYL7dTh6_5quote(ptr noalias noundef nonnull align 8 dereferenceable(32) %tokens, ptr noalias noundef align 8 captures(address) dereferenceable(32) %_3.i), !noalias !707
  call void @llvm.lifetime.end.p0(i64 32, ptr nonnull %_3.i), !noalias !703
  %_5.sroa.4.0._3.sroa_idx.i2 = getelementptr inbounds nuw i8, ptr %_3.i1, i64 4
  call void @llvm.lifetime.start.p0(i64 32, ptr nonnull %_3.i1), !noalias !708
; call <proc_macro2::Punct>::new
  call void @_RNvMsq_Cs8M6BBVNvC7a_11proc_macro2NtB5_5Punct3new(ptr noalias noundef nonnull sret([12 x i8]) align 4 captures(none) dereferenceable(12) %_5.sroa.4.0._3.sroa_idx.i2, i32 noundef 62, i1 noundef zeroext false)
  store i32 2, ptr %_3.i1, align 8, !noalias !708
; call <proc_macro2::imp::TokenStream as core::iter::traits::collect::Extend<proc_macro2::TokenTree>>::extend::<core::iter::sources::once::Once<proc_macro2::TokenTree>>
  call fastcc void @_RINvXs7_NtCs8M6BBVNvC7a_11proc_macro23impNtB6_11TokenStreamINtNtNtNtCsjMrxcFdYDNN_4core4iter6traits7collect6ExtendNtB8_9TokenTreeE6extendINtNtNtB12_7sources4once4OnceB1O_EECs1SHOYL7dTh6_5quote(ptr noalias noundef nonnull align 8 dereferenceable(32) %tokens, ptr noalias noundef align 8 captures(address) dereferenceable(32) %_3.i1), !noalias !712
  call void @llvm.lifetime.end.p0(i64 32, ptr nonnull %_3.i1), !noalias !708
  ret void
}

; quote::__private::push_rem_eq
; Function Attrs: uwtable
define void @_RNvNtCs1SHOYL7dTh6_5quote9___private11push_rem_eq(ptr noalias noundef align 8 dereferenceable(32) %tokens) unnamed_addr #0 {
start:
  %_3.i1 = alloca [32 x i8], align 8
  %_3.i = alloca [32 x i8], align 8
  %_5.sroa.4.0._3.sroa_idx.i = getelementptr inbounds nuw i8, ptr %_3.i, i64 4
  call void @llvm.lifetime.start.p0(i64 32, ptr nonnull %_3.i), !noalias !713
; call <proc_macro2::Punct>::new
  call void @_RNvMsq_Cs8M6BBVNvC7a_11proc_macro2NtB5_5Punct3new(ptr noalias noundef nonnull sret([12 x i8]) align 4 captures(none) dereferenceable(12) %_5.sroa.4.0._3.sroa_idx.i, i32 noundef 37, i1 noundef zeroext true)
  store i32 2, ptr %_3.i, align 8, !noalias !713
; call <proc_macro2::imp::TokenStream as core::iter::traits::collect::Extend<proc_macro2::TokenTree>>::extend::<core::iter::sources::once::Once<proc_macro2::TokenTree>>
  call fastcc void @_RINvXs7_NtCs8M6BBVNvC7a_11proc_macro23impNtB6_11TokenStreamINtNtNtNtCsjMrxcFdYDNN_4core4iter6traits7collect6ExtendNtB8_9TokenTreeE6extendINtNtNtB12_7sources4once4OnceB1O_EECs1SHOYL7dTh6_5quote(ptr noalias noundef nonnull align 8 dereferenceable(32) %tokens, ptr noalias noundef align 8 captures(address) dereferenceable(32) %_3.i), !noalias !717
  call void @llvm.lifetime.end.p0(i64 32, ptr nonnull %_3.i), !noalias !713
  %_5.sroa.4.0._3.sroa_idx.i2 = getelementptr inbounds nuw i8, ptr %_3.i1, i64 4
  call void @llvm.lifetime.start.p0(i64 32, ptr nonnull %_3.i1), !noalias !718
; call <proc_macro2::Punct>::new
  call void @_RNvMsq_Cs8M6BBVNvC7a_11proc_macro2NtB5_5Punct3new(ptr noalias noundef nonnull sret([12 x i8]) align 4 captures(none) dereferenceable(12) %_5.sroa.4.0._3.sroa_idx.i2, i32 noundef 61, i1 noundef zeroext false)
  store i32 2, ptr %_3.i1, align 8, !noalias !718
; call <proc_macro2::imp::TokenStream as core::iter::traits::collect::Extend<proc_macro2::TokenTree>>::extend::<core::iter::sources::once::Once<proc_macro2::TokenTree>>
  call fastcc void @_RINvXs7_NtCs8M6BBVNvC7a_11proc_macro23impNtB6_11TokenStreamINtNtNtNtCsjMrxcFdYDNN_4core4iter6traits7collect6ExtendNtB8_9TokenTreeE6extendINtNtNtB12_7sources4once4OnceB1O_EECs1SHOYL7dTh6_5quote(ptr noalias noundef nonnull align 8 dereferenceable(32) %tokens, ptr noalias noundef align 8 captures(address) dereferenceable(32) %_3.i1), !noalias !722
  call void @llvm.lifetime.end.p0(i64 32, ptr nonnull %_3.i1), !noalias !718
  ret void
}

; quote::__private::push_shl_eq
; Function Attrs: uwtable
define void @_RNvNtCs1SHOYL7dTh6_5quote9___private11push_shl_eq(ptr noalias noundef align 8 dereferenceable(32) %tokens) unnamed_addr #0 {
start:
  %_3.i3 = alloca [32 x i8], align 8
  %_3.i1 = alloca [32 x i8], align 8
  %_3.i = alloca [32 x i8], align 8
  %_5.sroa.4.0._3.sroa_idx.i = getelementptr inbounds nuw i8, ptr %_3.i, i64 4
  call void @llvm.lifetime.start.p0(i64 32, ptr nonnull %_3.i), !noalias !723
; call <proc_macro2::Punct>::new
  call void @_RNvMsq_Cs8M6BBVNvC7a_11proc_macro2NtB5_5Punct3new(ptr noalias noundef nonnull sret([12 x i8]) align 4 captures(none) dereferenceable(12) %_5.sroa.4.0._3.sroa_idx.i, i32 noundef 60, i1 noundef zeroext true)
  store i32 2, ptr %_3.i, align 8, !noalias !723
; call <proc_macro2::imp::TokenStream as core::iter::traits::collect::Extend<proc_macro2::TokenTree>>::extend::<core::iter::sources::once::Once<proc_macro2::TokenTree>>
  call fastcc void @_RINvXs7_NtCs8M6BBVNvC7a_11proc_macro23impNtB6_11TokenStreamINtNtNtNtCsjMrxcFdYDNN_4core4iter6traits7collect6ExtendNtB8_9TokenTreeE6extendINtNtNtB12_7sources4once4OnceB1O_EECs1SHOYL7dTh6_5quote(ptr noalias noundef nonnull align 8 dereferenceable(32) %tokens, ptr noalias noundef align 8 captures(address) dereferenceable(32) %_3.i), !noalias !727
  call void @llvm.lifetime.end.p0(i64 32, ptr nonnull %_3.i), !noalias !723
  %_5.sroa.4.0._3.sroa_idx.i2 = getelementptr inbounds nuw i8, ptr %_3.i1, i64 4
  call void @llvm.lifetime.start.p0(i64 32, ptr nonnull %_3.i1), !noalias !728
; call <proc_macro2::Punct>::new
  call void @_RNvMsq_Cs8M6BBVNvC7a_11proc_macro2NtB5_5Punct3new(ptr noalias noundef nonnull sret([12 x i8]) align 4 captures(none) dereferenceable(12) %_5.sroa.4.0._3.sroa_idx.i2, i32 noundef 60, i1 noundef zeroext true)
  store i32 2, ptr %_3.i1, align 8, !noalias !728
; call <proc_macro2::imp::TokenStream as core::iter::traits::collect::Extend<proc_macro2::TokenTree>>::extend::<core::iter::sources::once::Once<proc_macro2::TokenTree>>
  call fastcc void @_RINvXs7_NtCs8M6BBVNvC7a_11proc_macro23impNtB6_11TokenStreamINtNtNtNtCsjMrxcFdYDNN_4core4iter6traits7collect6ExtendNtB8_9TokenTreeE6extendINtNtNtB12_7sources4once4OnceB1O_EECs1SHOYL7dTh6_5quote(ptr noalias noundef nonnull align 8 dereferenceable(32) %tokens, ptr noalias noundef align 8 captures(address) dereferenceable(32) %_3.i1), !noalias !732
  call void @llvm.lifetime.end.p0(i64 32, ptr nonnull %_3.i1), !noalias !728
  %_5.sroa.4.0._3.sroa_idx.i4 = getelementptr inbounds nuw i8, ptr %_3.i3, i64 4
  call void @llvm.lifetime.start.p0(i64 32, ptr nonnull %_3.i3), !noalias !733
; call <proc_macro2::Punct>::new
  call void @_RNvMsq_Cs8M6BBVNvC7a_11proc_macro2NtB5_5Punct3new(ptr noalias noundef nonnull sret([12 x i8]) align 4 captures(none) dereferenceable(12) %_5.sroa.4.0._3.sroa_idx.i4, i32 noundef 61, i1 noundef zeroext false)
  store i32 2, ptr %_3.i3, align 8, !noalias !733
; call <proc_macro2::imp::TokenStream as core::iter::traits::collect::Extend<proc_macro2::TokenTree>>::extend::<core::iter::sources::once::Once<proc_macro2::TokenTree>>
  call fastcc void @_RINvXs7_NtCs8M6BBVNvC7a_11proc_macro23impNtB6_11TokenStreamINtNtNtNtCsjMrxcFdYDNN_4core4iter6traits7collect6ExtendNtB8_9TokenTreeE6extendINtNtNtB12_7sources4once4OnceB1O_EECs1SHOYL7dTh6_5quote(ptr noalias noundef nonnull align 8 dereferenceable(32) %tokens, ptr noalias noundef align 8 captures(address) dereferenceable(32) %_3.i3), !noalias !737
  call void @llvm.lifetime.end.p0(i64 32, ptr nonnull %_3.i3), !noalias !733
  ret void
}

; quote::__private::push_shr_eq
; Function Attrs: uwtable
define void @_RNvNtCs1SHOYL7dTh6_5quote9___private11push_shr_eq(ptr noalias noundef align 8 dereferenceable(32) %tokens) unnamed_addr #0 {
start:
  %_3.i3 = alloca [32 x i8], align 8
  %_3.i1 = alloca [32 x i8], align 8
  %_3.i = alloca [32 x i8], align 8
  %_5.sroa.4.0._3.sroa_idx.i = getelementptr inbounds nuw i8, ptr %_3.i, i64 4
  call void @llvm.lifetime.start.p0(i64 32, ptr nonnull %_3.i), !noalias !738
; call <proc_macro2::Punct>::new
  call void @_RNvMsq_Cs8M6BBVNvC7a_11proc_macro2NtB5_5Punct3new(ptr noalias noundef nonnull sret([12 x i8]) align 4 captures(none) dereferenceable(12) %_5.sroa.4.0._3.sroa_idx.i, i32 noundef 62, i1 noundef zeroext true)
  store i32 2, ptr %_3.i, align 8, !noalias !738
; call <proc_macro2::imp::TokenStream as core::iter::traits::collect::Extend<proc_macro2::TokenTree>>::extend::<core::iter::sources::once::Once<proc_macro2::TokenTree>>
  call fastcc void @_RINvXs7_NtCs8M6BBVNvC7a_11proc_macro23impNtB6_11TokenStreamINtNtNtNtCsjMrxcFdYDNN_4core4iter6traits7collect6ExtendNtB8_9TokenTreeE6extendINtNtNtB12_7sources4once4OnceB1O_EECs1SHOYL7dTh6_5quote(ptr noalias noundef nonnull align 8 dereferenceable(32) %tokens, ptr noalias noundef align 8 captures(address) dereferenceable(32) %_3.i), !noalias !742
  call void @llvm.lifetime.end.p0(i64 32, ptr nonnull %_3.i), !noalias !738
  %_5.sroa.4.0._3.sroa_idx.i2 = getelementptr inbounds nuw i8, ptr %_3.i1, i64 4
  call void @llvm.lifetime.start.p0(i64 32, ptr nonnull %_3.i1), !noalias !743
; call <proc_macro2::Punct>::new
  call void @_RNvMsq_Cs8M6BBVNvC7a_11proc_macro2NtB5_5Punct3new(ptr noalias noundef nonnull sret([12 x i8]) align 4 captures(none) dereferenceable(12) %_5.sroa.4.0._3.sroa_idx.i2, i32 noundef 62, i1 noundef zeroext true)
  store i32 2, ptr %_3.i1, align 8, !noalias !743
; call <proc_macro2::imp::TokenStream as core::iter::traits::collect::Extend<proc_macro2::TokenTree>>::extend::<core::iter::sources::once::Once<proc_macro2::TokenTree>>
  call fastcc void @_RINvXs7_NtCs8M6BBVNvC7a_11proc_macro23impNtB6_11TokenStreamINtNtNtNtCsjMrxcFdYDNN_4core4iter6traits7collect6ExtendNtB8_9TokenTreeE6extendINtNtNtB12_7sources4once4OnceB1O_EECs1SHOYL7dTh6_5quote(ptr noalias noundef nonnull align 8 dereferenceable(32) %tokens, ptr noalias noundef align 8 captures(address) dereferenceable(32) %_3.i1), !noalias !747
  call void @llvm.lifetime.end.p0(i64 32, ptr nonnull %_3.i1), !noalias !743
  %_5.sroa.4.0._3.sroa_idx.i4 = getelementptr inbounds nuw i8, ptr %_3.i3, i64 4
  call void @llvm.lifetime.start.p0(i64 32, ptr nonnull %_3.i3), !noalias !748
; call <proc_macro2::Punct>::new
  call void @_RNvMsq_Cs8M6BBVNvC7a_11proc_macro2NtB5_5Punct3new(ptr noalias noundef nonnull sret([12 x i8]) align 4 captures(none) dereferenceable(12) %_5.sroa.4.0._3.sroa_idx.i4, i32 noundef 61, i1 noundef zeroext false)
  store i32 2, ptr %_3.i3, align 8, !noalias !748
; call <proc_macro2::imp::TokenStream as core::iter::traits::collect::Extend<proc_macro2::TokenTree>>::extend::<core::iter::sources::once::Once<proc_macro2::TokenTree>>
  call fastcc void @_RINvXs7_NtCs8M6BBVNvC7a_11proc_macro23impNtB6_11TokenStreamINtNtNtNtCsjMrxcFdYDNN_4core4iter6traits7collect6ExtendNtB8_9TokenTreeE6extendINtNtNtB12_7sources4once4OnceB1O_EECs1SHOYL7dTh6_5quote(ptr noalias noundef nonnull align 8 dereferenceable(32) %tokens, ptr noalias noundef align 8 captures(address) dereferenceable(32) %_3.i3), !noalias !752
  call void @llvm.lifetime.end.p0(i64 32, ptr nonnull %_3.i3), !noalias !748
  ret void
}

; quote::__private::push_sub_eq
; Function Attrs: uwtable
define void @_RNvNtCs1SHOYL7dTh6_5quote9___private11push_sub_eq(ptr noalias noundef align 8 dereferenceable(32) %tokens) unnamed_addr #0 {
start:
  %_3.i1 = alloca [32 x i8], align 8
  %_3.i = alloca [32 x i8], align 8
  %_5.sroa.4.0._3.sroa_idx.i = getelementptr inbounds nuw i8, ptr %_3.i, i64 4
  call void @llvm.lifetime.start.p0(i64 32, ptr nonnull %_3.i), !noalias !753
; call <proc_macro2::Punct>::new
  call void @_RNvMsq_Cs8M6BBVNvC7a_11proc_macro2NtB5_5Punct3new(ptr noalias noundef nonnull sret([12 x i8]) align 4 captures(none) dereferenceable(12) %_5.sroa.4.0._3.sroa_idx.i, i32 noundef 45, i1 noundef zeroext true)
  store i32 2, ptr %_3.i, align 8, !noalias !753
; call <proc_macro2::imp::TokenStream as core::iter::traits::collect::Extend<proc_macro2::TokenTree>>::extend::<core::iter::sources::once::Once<proc_macro2::TokenTree>>
  call fastcc void @_RINvXs7_NtCs8M6BBVNvC7a_11proc_macro23impNtB6_11TokenStreamINtNtNtNtCsjMrxcFdYDNN_4core4iter6traits7collect6ExtendNtB8_9TokenTreeE6extendINtNtNtB12_7sources4once4OnceB1O_EECs1SHOYL7dTh6_5quote(ptr noalias noundef nonnull align 8 dereferenceable(32) %tokens, ptr noalias noundef align 8 captures(address) dereferenceable(32) %_3.i), !noalias !757
  call void @llvm.lifetime.end.p0(i64 32, ptr nonnull %_3.i), !noalias !753
  %_5.sroa.4.0._3.sroa_idx.i2 = getelementptr inbounds nuw i8, ptr %_3.i1, i64 4
  call void @llvm.lifetime.start.p0(i64 32, ptr nonnull %_3.i1), !noalias !758
; call <proc_macro2::Punct>::new
  call void @_RNvMsq_Cs8M6BBVNvC7a_11proc_macro2NtB5_5Punct3new(ptr noalias noundef nonnull sret([12 x i8]) align 4 captures(none) dereferenceable(12) %_5.sroa.4.0._3.sroa_idx.i2, i32 noundef 61, i1 noundef zeroext false)
  store i32 2, ptr %_3.i1, align 8, !noalias !758
; call <proc_macro2::imp::TokenStream as core::iter::traits::collect::Extend<proc_macro2::TokenTree>>::extend::<core::iter::sources::once::Once<proc_macro2::TokenTree>>
  call fastcc void @_RINvXs7_NtCs8M6BBVNvC7a_11proc_macro23impNtB6_11TokenStreamINtNtNtNtCsjMrxcFdYDNN_4core4iter6traits7collect6ExtendNtB8_9TokenTreeE6extendINtNtNtB12_7sources4once4OnceB1O_EECs1SHOYL7dTh6_5quote(ptr noalias noundef nonnull align 8 dereferenceable(32) %tokens, ptr noalias noundef align 8 captures(address) dereferenceable(32) %_3.i1), !noalias !762
  call void @llvm.lifetime.end.p0(i64 32, ptr nonnull %_3.i1), !noalias !758
  ret void
}

; quote::__private::push_and_and
; Function Attrs: uwtable
define void @_RNvNtCs1SHOYL7dTh6_5quote9___private12push_and_and(ptr noalias noundef align 8 dereferenceable(32) %tokens) unnamed_addr #0 {
start:
  %_3.i1 = alloca [32 x i8], align 8
  %_3.i = alloca [32 x i8], align 8
  %_5.sroa.4.0._3.sroa_idx.i = getelementptr inbounds nuw i8, ptr %_3.i, i64 4
  call void @llvm.lifetime.start.p0(i64 32, ptr nonnull %_3.i), !noalias !763
; call <proc_macro2::Punct>::new
  call void @_RNvMsq_Cs8M6BBVNvC7a_11proc_macro2NtB5_5Punct3new(ptr noalias noundef nonnull sret([12 x i8]) align 4 captures(none) dereferenceable(12) %_5.sroa.4.0._3.sroa_idx.i, i32 noundef 38, i1 noundef zeroext true)
  store i32 2, ptr %_3.i, align 8, !noalias !763
; call <proc_macro2::imp::TokenStream as core::iter::traits::collect::Extend<proc_macro2::TokenTree>>::extend::<core::iter::sources::once::Once<proc_macro2::TokenTree>>
  call fastcc void @_RINvXs7_NtCs8M6BBVNvC7a_11proc_macro23impNtB6_11TokenStreamINtNtNtNtCsjMrxcFdYDNN_4core4iter6traits7collect6ExtendNtB8_9TokenTreeE6extendINtNtNtB12_7sources4once4OnceB1O_EECs1SHOYL7dTh6_5quote(ptr noalias noundef nonnull align 8 dereferenceable(32) %tokens, ptr noalias noundef align 8 captures(address) dereferenceable(32) %_3.i), !noalias !767
  call void @llvm.lifetime.end.p0(i64 32, ptr nonnull %_3.i), !noalias !763
  %_5.sroa.4.0._3.sroa_idx.i2 = getelementptr inbounds nuw i8, ptr %_3.i1, i64 4
  call void @llvm.lifetime.start.p0(i64 32, ptr nonnull %_3.i1), !noalias !768
; call <proc_macro2::Punct>::new
  call void @_RNvMsq_Cs8M6BBVNvC7a_11proc_macro2NtB5_5Punct3new(ptr noalias noundef nonnull sret([12 x i8]) align 4 captures(none) dereferenceable(12) %_5.sroa.4.0._3.sroa_idx.i2, i32 noundef 38, i1 noundef zeroext false)
  store i32 2, ptr %_3.i1, align 8, !noalias !768
; call <proc_macro2::imp::TokenStream as core::iter::traits::collect::Extend<proc_macro2::TokenTree>>::extend::<core::iter::sources::once::Once<proc_macro2::TokenTree>>
  call fastcc void @_RINvXs7_NtCs8M6BBVNvC7a_11proc_macro23impNtB6_11TokenStreamINtNtNtNtCsjMrxcFdYDNN_4core4iter6traits7collect6ExtendNtB8_9TokenTreeE6extendINtNtNtB12_7sources4once4OnceB1O_EECs1SHOYL7dTh6_5quote(ptr noalias noundef nonnull align 8 dereferenceable(32) %tokens, ptr noalias noundef align 8 captures(address) dereferenceable(32) %_3.i1), !noalias !772
  call void @llvm.lifetime.end.p0(i64 32, ptr nonnull %_3.i1), !noalias !768
  ret void
}

; quote::__private::parse_spanned
; Function Attrs: uwtable
define void @_RNvNtCs1SHOYL7dTh6_5quote9___private13parse_spanned(ptr noalias noundef align 8 dereferenceable(32) %tokens, i32 noundef %span, ptr noalias noundef nonnull readonly align 1 captures(address, read_provenance) %s.0, i64 noundef %s.1) unnamed_addr #0 personality ptr @rust_eh_personality {
start:
  %_3.i = alloca [32 x i8], align 8
  %e.i = alloca [1 x i8], align 1
  %_13 = alloca [32 x i8], align 8
  %token = alloca [32 x i8], align 8
  %_8 = alloca [32 x i8], align 8
  %iter = alloca [40 x i8], align 8
  %_5 = alloca [32 x i8], align 8
  %s = alloca [32 x i8], align 8
  call void @llvm.lifetime.start.p0(i64 32, ptr nonnull %_5)
; call <proc_macro2::TokenStream as core::str::traits::FromStr>::from_str
  call void @_RNvXs0_Cs8M6BBVNvC7a_11proc_macro2NtB5_11TokenStreamNtNtNtCsjMrxcFdYDNN_4core3str6traits7FromStr8from_str(ptr noalias noundef nonnull sret([32 x i8]) align 8 captures(none) dereferenceable(32) %_5, ptr noalias noundef nonnull readonly align 1 captures(address, read_provenance) %s.0, i64 noundef %s.1)
  tail call void @llvm.experimental.noalias.scope.decl(metadata !773)
  tail call void @llvm.experimental.noalias.scope.decl(metadata !776)
  %0 = load i64, ptr %_5, align 8, !range !233, !alias.scope !776, !noalias !778, !noundef !9
  %1 = icmp eq i64 %0, -9223372036854775807
  br i1 %1, label %bb2.i, label %_RNvMNtCsjMrxcFdYDNN_4core6resultINtB2_6ResultNtCs8M6BBVNvC7a_11proc_macro211TokenStreamNtBJ_8LexErrorE6expectCs1SHOYL7dTh6_5quote.exit, !prof !780

bb2.i:                                            ; preds = %start
  call void @llvm.lifetime.start.p0(i64 1, ptr nonnull %e.i), !noalias !781
  %2 = getelementptr inbounds nuw i8, ptr %_5, i64 8
  %3 = load i8, ptr %2, align 8, !range !180, !alias.scope !776, !noalias !778, !noundef !9
  store i8 %3, ptr %e.i, align 1, !noalias !781
; call core::result::unwrap_failed
  call void @_RNvNtCsjMrxcFdYDNN_4core6result13unwrap_failed(ptr noalias noundef nonnull readonly align 1 captures(address, read_provenance) @alloc_34ccc9a2f61247d7615f0501afc88ea6, i64 noundef 20, ptr noundef nonnull align 1 %e.i, ptr noalias noundef readonly align 8 captures(address, read_provenance) dereferenceable(32) @vtable.0, ptr noalias noundef nonnull readonly align 8 captures(address, read_provenance) dereferenceable(24) @alloc_c2b3f6463b0a8a8095dd8eea675c8d69) #26, !noalias !782
  unreachable

_RNvMNtCsjMrxcFdYDNN_4core6resultINtB2_6ResultNtCs8M6BBVNvC7a_11proc_macro211TokenStreamNtBJ_8LexErrorE6expectCs1SHOYL7dTh6_5quote.exit: ; preds = %start
  call void @llvm.memcpy.p0.p0.i64(ptr noundef nonnull align 8 dereferenceable(32) %s, ptr noundef nonnull readonly align 8 dereferenceable(32) %_5, i64 32, i1 false), !alias.scope !782, !noalias !783
  call void @llvm.lifetime.end.p0(i64 32, ptr nonnull %_5)
  call void @llvm.lifetime.start.p0(i64 40, ptr nonnull %iter)
; call <proc_macro2::TokenStream as core::iter::traits::collect::IntoIterator>::into_iter
  call void @_RNvXs0_NtCs8M6BBVNvC7a_11proc_macro212token_streamNtB7_11TokenStreamNtNtNtNtCsjMrxcFdYDNN_4core4iter6traits7collect12IntoIterator9into_iter(ptr noalias noundef nonnull sret([40 x i8]) align 8 captures(none) dereferenceable(40) %iter, ptr noalias noundef nonnull readonly align 8 captures(none) dereferenceable(32) %s)
  br label %bb3

bb3:                                              ; preds = %bb9, %_RNvMNtCsjMrxcFdYDNN_4core6resultINtB2_6ResultNtCs8M6BBVNvC7a_11proc_macro211TokenStreamNtBJ_8LexErrorE6expectCs1SHOYL7dTh6_5quote.exit
  call void @llvm.lifetime.start.p0(i64 32, ptr nonnull %_8)
; invoke <proc_macro2::token_stream::IntoIter as core::iter::traits::iterator::Iterator>::next
  invoke void @_RNvXNtCs8M6BBVNvC7a_11proc_macro212token_streamNtB2_8IntoIterNtNtNtNtCsjMrxcFdYDNN_4core4iter6traits8iterator8Iterator4next(ptr noalias noundef nonnull sret([32 x i8]) align 8 captures(address) dereferenceable(32) %_8, ptr noalias noundef nonnull align 8 dereferenceable(40) %iter)
          to label %bb4 unwind label %cleanup

cleanup:                                          ; preds = %bb8, %bb6, %bb3
  %4 = landingpad { ptr, i32 }
          cleanup
; invoke core::ptr::drop_in_place::<proc_macro2::token_stream::IntoIter>
  invoke fastcc void @_RINvNtCsjMrxcFdYDNN_4core3ptr13drop_in_placeNtNtCs8M6BBVNvC7a_11proc_macro212token_stream8IntoIterECs1SHOYL7dTh6_5quote(ptr noalias noundef align 8 dereferenceable(40) %iter) #22
          to label %bb12 unwind label %terminate

bb4:                                              ; preds = %bb3
  %5 = load i32, ptr %_8, align 8, !range !502, !noundef !9
  %.not = icmp eq i32 %5, 4
  br i1 %.not, label %bb7, label %bb6

bb6:                                              ; preds = %bb4
  call void @llvm.memcpy.p0.p0.i64(ptr noundef nonnull align 8 dereferenceable(32) %token, ptr noundef nonnull align 8 dereferenceable(32) %_8, i64 32, i1 false)
  call void @llvm.lifetime.start.p0(i64 32, ptr nonnull %_13)
; invoke quote::__private::respan_token_tree
  invoke fastcc void @_RNvNtCs1SHOYL7dTh6_5quote9___private17respan_token_tree(ptr noalias noundef align 8 captures(none) dereferenceable(32) %_13, ptr noalias noundef align 8 captures(address) dereferenceable(32) %token, i32 noundef %span)
          to label %bb8 unwind label %cleanup

bb7:                                              ; preds = %bb4
  call void @llvm.lifetime.end.p0(i64 32, ptr nonnull %_8)
; call core::ptr::drop_in_place::<proc_macro2::token_stream::IntoIter>
  call fastcc void @_RINvNtCsjMrxcFdYDNN_4core3ptr13drop_in_placeNtNtCs8M6BBVNvC7a_11proc_macro212token_stream8IntoIterECs1SHOYL7dTh6_5quote(ptr noalias noundef align 8 dereferenceable(40) %iter)
  call void @llvm.lifetime.end.p0(i64 40, ptr nonnull %iter)
  ret void

bb8:                                              ; preds = %bb6
  call void @llvm.lifetime.start.p0(i64 32, ptr nonnull %_3.i), !noalias !784
  call void @llvm.memcpy.p0.p0.i64(ptr noundef nonnull align 8 dereferenceable(32) %_3.i, ptr noundef nonnull readonly align 8 dereferenceable(32) %_13, i64 32, i1 false), !noalias !788
; invoke <proc_macro2::imp::TokenStream as core::iter::traits::collect::Extend<proc_macro2::TokenTree>>::extend::<core::iter::sources::once::Once<proc_macro2::TokenTree>>
  invoke fastcc void @_RINvXs7_NtCs8M6BBVNvC7a_11proc_macro23impNtB6_11TokenStreamINtNtNtNtCsjMrxcFdYDNN_4core4iter6traits7collect6ExtendNtB8_9TokenTreeE6extendINtNtNtB12_7sources4once4OnceB1O_EECs1SHOYL7dTh6_5quote(ptr noalias noundef nonnull align 8 dereferenceable(32) %tokens, ptr noalias noundef align 8 captures(address) dereferenceable(32) %_3.i)
          to label %bb9 unwind label %cleanup

bb9:                                              ; preds = %bb8
  call void @llvm.lifetime.end.p0(i64 32, ptr nonnull %_3.i), !noalias !784
  call void @llvm.lifetime.end.p0(i64 32, ptr nonnull %_13)
  call void @llvm.lifetime.end.p0(i64 32, ptr nonnull %_8)
  br label %bb3

terminate:                                        ; preds = %cleanup
  %6 = landingpad { ptr, i32 }
          filter [0 x ptr] zeroinitializer
; call core::panicking::panic_in_cleanup
  call void @_RNvNtCsjMrxcFdYDNN_4core9panicking16panic_in_cleanup() #23
  unreachable

bb12:                                             ; preds = %cleanup
  resume { ptr, i32 } %4
}

; quote::__private::push_caret_eq
; Function Attrs: uwtable
define void @_RNvNtCs1SHOYL7dTh6_5quote9___private13push_caret_eq(ptr noalias noundef align 8 dereferenceable(32) %tokens) unnamed_addr #0 {
start:
  %_3.i1 = alloca [32 x i8], align 8
  %_3.i = alloca [32 x i8], align 8
  %_5.sroa.4.0._3.sroa_idx.i = getelementptr inbounds nuw i8, ptr %_3.i, i64 4
  call void @llvm.lifetime.start.p0(i64 32, ptr nonnull %_3.i), !noalias !789
; call <proc_macro2::Punct>::new
  call void @_RNvMsq_Cs8M6BBVNvC7a_11proc_macro2NtB5_5Punct3new(ptr noalias noundef nonnull sret([12 x i8]) align 4 captures(none) dereferenceable(12) %_5.sroa.4.0._3.sroa_idx.i, i32 noundef 94, i1 noundef zeroext true)
  store i32 2, ptr %_3.i, align 8, !noalias !789
; call <proc_macro2::imp::TokenStream as core::iter::traits::collect::Extend<proc_macro2::TokenTree>>::extend::<core::iter::sources::once::Once<proc_macro2::TokenTree>>
  call fastcc void @_RINvXs7_NtCs8M6BBVNvC7a_11proc_macro23impNtB6_11TokenStreamINtNtNtNtCsjMrxcFdYDNN_4core4iter6traits7collect6ExtendNtB8_9TokenTreeE6extendINtNtNtB12_7sources4once4OnceB1O_EECs1SHOYL7dTh6_5quote(ptr noalias noundef nonnull align 8 dereferenceable(32) %tokens, ptr noalias noundef align 8 captures(address) dereferenceable(32) %_3.i), !noalias !793
  call void @llvm.lifetime.end.p0(i64 32, ptr nonnull %_3.i), !noalias !789
  %_5.sroa.4.0._3.sroa_idx.i2 = getelementptr inbounds nuw i8, ptr %_3.i1, i64 4
  call void @llvm.lifetime.start.p0(i64 32, ptr nonnull %_3.i1), !noalias !794
; call <proc_macro2::Punct>::new
  call void @_RNvMsq_Cs8M6BBVNvC7a_11proc_macro2NtB5_5Punct3new(ptr noalias noundef nonnull sret([12 x i8]) align 4 captures(none) dereferenceable(12) %_5.sroa.4.0._3.sroa_idx.i2, i32 noundef 61, i1 noundef zeroext false)
  store i32 2, ptr %_3.i1, align 8, !noalias !794
; call <proc_macro2::imp::TokenStream as core::iter::traits::collect::Extend<proc_macro2::TokenTree>>::extend::<core::iter::sources::once::Once<proc_macro2::TokenTree>>
  call fastcc void @_RINvXs7_NtCs8M6BBVNvC7a_11proc_macro23impNtB6_11TokenStreamINtNtNtNtCsjMrxcFdYDNN_4core4iter6traits7collect6ExtendNtB8_9TokenTreeE6extendINtNtNtB12_7sources4once4OnceB1O_EECs1SHOYL7dTh6_5quote(ptr noalias noundef nonnull align 8 dereferenceable(32) %tokens, ptr noalias noundef align 8 captures(address) dereferenceable(32) %_3.i1), !noalias !798
  call void @llvm.lifetime.end.p0(i64 32, ptr nonnull %_3.i1), !noalias !794
  ret void
}

; quote::__private::push_lifetime
; Function Attrs: uwtable
define void @_RNvNtCs1SHOYL7dTh6_5quote9___private13push_lifetime(ptr noalias noundef align 8 dereferenceable(32) %tokens, ptr noalias noundef nonnull readonly align 1 captures(address, read_provenance) %lifetime.0, i64 noundef %lifetime.1) unnamed_addr #0 {
start:
  %_3.i2 = alloca [32 x i8], align 8
  %_3.i = alloca [32 x i8], align 8
  %_8 = alloca [24 x i8], align 8
  %_7.sroa.4 = alloca [28 x i8], align 4
  %_4.sroa.4.0._3.i.sroa_idx = getelementptr inbounds nuw i8, ptr %_3.i, i64 4
  call void @llvm.lifetime.start.p0(i64 32, ptr nonnull %_3.i), !noalias !799
; call <proc_macro2::Punct>::new
  call void @_RNvMsq_Cs8M6BBVNvC7a_11proc_macro2NtB5_5Punct3new(ptr noalias noundef nonnull sret([12 x i8]) align 4 captures(none) dereferenceable(12) %_4.sroa.4.0._3.i.sroa_idx, i32 noundef 39, i1 noundef zeroext true)
  store i32 2, ptr %_3.i, align 8, !noalias !803
; call <proc_macro2::imp::TokenStream as core::iter::traits::collect::Extend<proc_macro2::TokenTree>>::extend::<core::iter::sources::once::Once<proc_macro2::TokenTree>>
  call fastcc void @_RINvXs7_NtCs8M6BBVNvC7a_11proc_macro23impNtB6_11TokenStreamINtNtNtNtCsjMrxcFdYDNN_4core4iter6traits7collect6ExtendNtB8_9TokenTreeE6extendINtNtNtB12_7sources4once4OnceB1O_EECs1SHOYL7dTh6_5quote(ptr noalias noundef nonnull align 8 dereferenceable(32) %tokens, ptr noalias noundef align 8 captures(address) dereferenceable(32) %_3.i), !noalias !804
  call void @llvm.lifetime.end.p0(i64 32, ptr nonnull %_3.i), !noalias !799
  call void @llvm.lifetime.start.p0(i64 28, ptr nonnull %_7.sroa.4)
  call void @llvm.lifetime.start.p0(i64 24, ptr nonnull %_8)
  %_8.i = icmp ult i64 %lifetime.1, 2
  br i1 %_8.i, label %bb6.i, label %_RNvXs9_NtNtCsjMrxcFdYDNN_4core3str6traitsINtNtNtB9_3ops5range9RangeFromjEINtNtNtB9_5slice5index10SliceIndexeE3get.exit

bb6.i:                                            ; preds = %start
  %0 = icmp eq i64 %lifetime.1, 1
  br i1 %0, label %bb9, label %bb8, !prof !14

_RNvXs9_NtNtCsjMrxcFdYDNN_4core3str6traitsINtNtNtB9_3ops5range9RangeFromjEINtNtNtB9_5slice5index10SliceIndexeE3get.exit: ; preds = %start
  %1 = getelementptr inbounds nuw i8, ptr %lifetime.0, i64 1
  %self1.i = load i8, ptr %1, align 1, !alias.scope !805, !noundef !9
  %2 = icmp sgt i8 %self1.i, -65
  br i1 %2, label %bb9, label %bb8, !prof !14

bb9:                                              ; preds = %bb6.i, %_RNvXs9_NtNtCsjMrxcFdYDNN_4core3str6traitsINtNtNtB9_3ops5range9RangeFromjEINtNtNtB9_5slice5index10SliceIndexeE3get.exit
  %data.i = getelementptr inbounds nuw i8, ptr %lifetime.0, i64 1
  %new_len.i = add i64 %lifetime.1, -1
; call <proc_macro2::Span>::call_site
  %_10 = call noundef i32 @_RNvMse_Cs8M6BBVNvC7a_11proc_macro2NtB5_4Span9call_site()
; call <proc_macro2::Ident>::new
  call void @_RNvMst_Cs8M6BBVNvC7a_11proc_macro2NtB5_5Ident3new(ptr noalias noundef nonnull sret([24 x i8]) align 8 captures(none) dereferenceable(24) %_8, ptr noalias noundef nonnull readonly align 1 captures(address, read_provenance) %data.i, i64 noundef %new_len.i, i32 noundef %_10, ptr noalias noundef readonly align 8 captures(address, read_provenance) dereferenceable(24) @alloc_a215eae7f8dd0221659ca93936e57bd6)
  %_7.sroa.4.8.sroa_idx = getelementptr inbounds nuw i8, ptr %_7.sroa.4, i64 4
  call void @llvm.memcpy.p0.p0.i64(ptr noundef nonnull align 4 dereferenceable(24) %_7.sroa.4.8.sroa_idx, ptr noundef nonnull align 8 dereferenceable(24) %_8, i64 24, i1 false)
  call void @llvm.lifetime.end.p0(i64 24, ptr nonnull %_8)
  call void @llvm.lifetime.start.p0(i64 32, ptr nonnull %_3.i2), !noalias !808
  store i32 1, ptr %_3.i2, align 8, !noalias !812
  %_7.sroa.4.0._3.i2.sroa_idx = getelementptr inbounds nuw i8, ptr %_3.i2, i64 4
  call void @llvm.memcpy.p0.p0.i64(ptr noundef nonnull align 4 dereferenceable(28) %_7.sroa.4.0._3.i2.sroa_idx, ptr noundef nonnull align 4 dereferenceable(28) %_7.sroa.4, i64 28, i1 false), !noalias !812
; call <proc_macro2::imp::TokenStream as core::iter::traits::collect::Extend<proc_macro2::TokenTree>>::extend::<core::iter::sources::once::Once<proc_macro2::TokenTree>>
  call fastcc void @_RINvXs7_NtCs8M6BBVNvC7a_11proc_macro23impNtB6_11TokenStreamINtNtNtNtCsjMrxcFdYDNN_4core4iter6traits7collect6ExtendNtB8_9TokenTreeE6extendINtNtNtB12_7sources4once4OnceB1O_EECs1SHOYL7dTh6_5quote(ptr noalias noundef nonnull align 8 dereferenceable(32) %tokens, ptr noalias noundef align 8 captures(address) dereferenceable(32) %_3.i2), !noalias !813
  call void @llvm.lifetime.end.p0(i64 32, ptr nonnull %_3.i2), !noalias !808
  call void @llvm.lifetime.end.p0(i64 28, ptr nonnull %_7.sroa.4)
  ret void

bb8:                                              ; preds = %bb6.i, %_RNvXs9_NtNtCsjMrxcFdYDNN_4core3str6traitsINtNtNtB9_3ops5range9RangeFromjEINtNtNtB9_5slice5index10SliceIndexeE3get.exit
; call core::str::slice_error_fail
  call void @_RNvNtCsjMrxcFdYDNN_4core3str16slice_error_fail(ptr noalias noundef nonnull readonly align 1 captures(address, read_provenance) %lifetime.0, i64 noundef %lifetime.1, i64 noundef 1, i64 noundef %lifetime.1, ptr noalias noundef readonly align 8 captures(address, read_provenance) dereferenceable(24) @alloc_bc590f7bbdf9d5cf9c9fc92d5b74ebb4) #24
  unreachable
}

; quote::__private::push_question
; Function Attrs: uwtable
define void @_RNvNtCs1SHOYL7dTh6_5quote9___private13push_question(ptr noalias noundef align 8 dereferenceable(32) %tokens) unnamed_addr #0 {
start:
  %_3.i = alloca [32 x i8], align 8
