; ModuleID = 'rayon_core.bb0cff9d32d01d60-cgu.0'
source_filename = "rayon_core.bb0cff9d32d01d60-cgu.0"
target datalayout = "e-m:o-p270:32:32-p271:32:32-p272:64:64-i64:64-i128:128-n32:64-S128-Fn32"
target triple = "arm64-apple-macosx11.0.0"

%"core::sync::atomic::AtomicUsize" = type { i64 }
%"std::sys::thread_local::native::lazy::Storage<crossbeam_epoch::collector::LocalHandle, ()>" = type { ptr, i8, [7 x i8] }
%"crossbeam_utils::cache_padded::CachePadded<sleep::WorkerSleepState>" = type { %"sleep::WorkerSleepState", [12 x i64] }
%"sleep::WorkerSleepState" = type { %"std::sync::poison::mutex::Mutex<bool>", %"std::sync::poison::condvar::Condvar" }
%"std::sync::poison::mutex::Mutex<bool>" = type { %"std::sys::sync::mutex::pthread::Mutex", %"std::sync::poison::Flag", i8, [6 x i8] }
%"std::sys::sync::mutex::pthread::Mutex" = type { %"std::sys::sync::once_box::OnceBox<std::sys::pal::unix::sync::mutex::Mutex>" }
%"std::sys::sync::once_box::OnceBox<std::sys::pal::unix::sync::mutex::Mutex>" = type { %"core::sync::atomic::AtomicPtr<std::sys::pal::unix::sync::mutex::Mutex>" }
%"core::sync::atomic::AtomicPtr<std::sys::pal::unix::sync::mutex::Mutex>" = type { ptr }
%"std::sync::poison::Flag" = type { %"core::sync::atomic::AtomicBool" }
%"core::sync::atomic::AtomicBool" = type { i8 }
%"std::sync::poison::condvar::Condvar" = type { %"std::sys::sync::condvar::pthread::Condvar" }
%"std::sys::sync::condvar::pthread::Condvar" = type { %"std::sys::sync::once_box::OnceBox<std::sys::pal::unix::sync::condvar::Condvar>", %"core::sync::atomic::AtomicUsize" }
%"std::sys::sync::once_box::OnceBox<std::sys::pal::unix::sync::condvar::Condvar>" = type { %"core::sync::atomic::AtomicPtr<std::sys::pal::unix::sync::condvar::Condvar>" }
%"core::sync::atomic::AtomicPtr<std::sys::pal::unix::sync::condvar::Condvar>" = type { ptr }
%"crossbeam_deque::deque::Worker<job::JobRef>" = type { ptr, %"core::cell::Cell<crossbeam_deque::deque::Buffer<job::JobRef>>", i8, %"core::marker::PhantomData<*mut ()>", [7 x i8] }
%"core::cell::Cell<crossbeam_deque::deque::Buffer<job::JobRef>>" = type { %"core::cell::UnsafeCell<crossbeam_deque::deque::Buffer<job::JobRef>>" }
%"core::cell::UnsafeCell<crossbeam_deque::deque::Buffer<job::JobRef>>" = type { %"crossbeam_deque::deque::Buffer<job::JobRef>" }
%"crossbeam_deque::deque::Buffer<job::JobRef>" = type { ptr, i64 }
%"core::marker::PhantomData<*mut ()>" = type {}
%"crossbeam_deque::deque::Stealer<job::JobRef>" = type { ptr, i8, [7 x i8] }
%"registry::ThreadInfo" = type { %"latch::LockLatch", %"latch::LockLatch", %"latch::OnceLatch", %"crossbeam_deque::deque::Stealer<job::JobRef>" }
%"latch::LockLatch" = type { %"std::sync::poison::mutex::Mutex<bool>", %"std::sync::poison::condvar::Condvar" }
%"latch::OnceLatch" = type { %"latch::CoreLatch" }
%"latch::CoreLatch" = type { %"core::sync::atomic::AtomicUsize" }
%"alloc::boxed::Box<dyn core::ops::function::FnOnce() + core::marker::Send>" = type { %"core::ptr::unique::Unique<dyn core::ops::function::FnOnce() + core::marker::Send>", %"alloc::alloc::Global" }
%"core::ptr::unique::Unique<dyn core::ops::function::FnOnce() + core::marker::Send>" = type { %"core::ptr::non_null::NonNull<dyn core::ops::function::FnOnce() + core::marker::Send>", %"core::marker::PhantomData<dyn core::ops::function::FnOnce() + core::marker::Send>" }
%"core::ptr::non_null::NonNull<dyn core::ops::function::FnOnce() + core::marker::Send>" = type { { ptr, ptr } }
%"core::marker::PhantomData<dyn core::ops::function::FnOnce() + core::marker::Send>" = type {}
%"alloc::alloc::Global" = type {}
%"job::JobFifo" = type { %"crossbeam_deque::deque::Injector<job::JobRef>" }
%"crossbeam_deque::deque::Injector<job::JobRef>" = type { %"crossbeam_utils::cache_padded::CachePadded<crossbeam_deque::deque::Position<job::JobRef>>", %"crossbeam_utils::cache_padded::CachePadded<crossbeam_deque::deque::Position<job::JobRef>>", %"core::marker::PhantomData<job::JobRef>" }
%"crossbeam_utils::cache_padded::CachePadded<crossbeam_deque::deque::Position<job::JobRef>>" = type { %"crossbeam_deque::deque::Position<job::JobRef>", [14 x i64] }
%"crossbeam_deque::deque::Position<job::JobRef>" = type { %"core::sync::atomic::AtomicUsize", %"core::sync::atomic::AtomicPtr<crossbeam_deque::deque::Block<job::JobRef>>" }
%"core::sync::atomic::AtomicPtr<crossbeam_deque::deque::Block<job::JobRef>>" = type { ptr }
%"core::marker::PhantomData<job::JobRef>" = type {}
%"job::JobRef" = type { ptr, ptr }
%"core::mem::maybe_uninit::MaybeUninit<job::JobRef>" = type { [2 x i64] }
%"crossbeam_deque::deque::Slot<job::JobRef>" = type { %"core::cell::UnsafeCell<core::mem::maybe_uninit::MaybeUninit<job::JobRef>>", %"core::sync::atomic::AtomicUsize" }
%"core::cell::UnsafeCell<core::mem::maybe_uninit::MaybeUninit<job::JobRef>>" = type { %"core::mem::maybe_uninit::MaybeUninit<job::JobRef>" }

@alloc_ad8ebdc9fef660bd40801a5aa2c8a7f4 = private unnamed_addr constant [107 x i8] c"/Users/hongyaotang/.cargo/registry/src/index.crates.io-1949cf8c6b5b557f/rayon-core-1.13.0/src/sleep/mod.rs\00", align 1
@alloc_f92e8cd0d7233266b847a8ed4389fb25 = private unnamed_addr constant <{ ptr, [16 x i8] }> <{ ptr @alloc_ad8ebdc9fef660bd40801a5aa2c8a7f4, [16 x i8] c"j\00\00\00\00\00\00\00\82\00\00\004\00\00\00" }>, align 8
@alloc_207373810a530db275fc80ce2105e6b8 = private unnamed_addr constant <{ ptr, [16 x i8] }> <{ ptr @alloc_ad8ebdc9fef660bd40801a5aa2c8a7f4, [16 x i8] c"j\00\00\00\00\00\00\00\83\00\00\00<\00\00\00" }>, align 8
@alloc_55c0b7a0e489e4f5edd431c218211fc9 = private unnamed_addr constant <{ ptr, [16 x i8] }> <{ ptr @alloc_ad8ebdc9fef660bd40801a5aa2c8a7f4, [16 x i8] c"j\00\00\00\00\00\00\00\BB\00\00\00C\00\00\00" }>, align 8
@vtable.0 = private unnamed_addr constant <{ [24 x i8], ptr, ptr }> <{ [24 x i8] c"\00\00\00\00\00\00\00\00\08\00\00\00\00\00\00\00\08\00\00\00\00\00\00\00", ptr @_RNSNvYNCINvMs0_NtNtCs5sEH5CPMdak_3std4sync4onceNtBd_4Once9call_onceNCINvNtCsg3Flw6CsbJc_10rayon_core8registry19set_global_registryNCINvB18_20init_global_registryNtB18_12DefaultSpawnE0E0E0INtNtNtCsjMrxcFdYDNN_4core3ops8function6FnOnceTRNtBd_9OnceStateEE9call_once6vtableB1a_, ptr @_RNCINvMs0_NtNtCs5sEH5CPMdak_3std4sync4onceNtB8_4Once9call_onceNCINvNtCsg3Flw6CsbJc_10rayon_core8registry19set_global_registryNCINvB13_20init_global_registryNtB13_12DefaultSpawnE0E0E0B15_ }>, align 8
@vtable.1 = private unnamed_addr constant <{ [24 x i8], ptr, ptr }> <{ [24 x i8] c"\00\00\00\00\00\00\00\00\08\00\00\00\00\00\00\00\08\00\00\00\00\00\00\00", ptr @_RNSNvYNCINvMs0_NtNtCs5sEH5CPMdak_3std4sync4onceNtBd_4Once9call_onceNCINvNtCsg3Flw6CsbJc_10rayon_core8registry19set_global_registryNvB18_23default_global_registryE0E0INtNtNtCsjMrxcFdYDNN_4core3ops8function6FnOnceTRNtBd_9OnceStateEE9call_once6vtableB1a_, ptr @_RNCINvMs0_NtNtCs5sEH5CPMdak_3std4sync4onceNtB8_4Once9call_onceNCINvNtCsg3Flw6CsbJc_10rayon_core8registry19set_global_registryNvB13_23default_global_registryE0E0B15_ }>, align 8
@alloc_a500d906b91607583596fa15e63c2ada = private unnamed_addr constant [40 x i8] c"internal error: entered unreachable code", align 1
@alloc_8f5ce6701219aa54b689ae7c15768b67 = private unnamed_addr constant [136 x i8] c"/Users/hongyaotang/.rustup/toolchains/nightly-aarch64-apple-darwin/lib/rustlib/src/rust/library/std/src/sys/thread_local/native/lazy.rs\00", align 1
@alloc_7db782098d0a734a33f632a1b2637c91 = private unnamed_addr constant <{ ptr, [16 x i8] }> <{ ptr @alloc_8f5ce6701219aa54b689ae7c15768b67, [16 x i8] c"\87\00\00\00\00\00\00\00b\00\00\00$\00\00\00" }>, align 8
@alloc_0de61de1cbae6e7f16241fcf50d58306 = private unnamed_addr constant [106 x i8] c"/Users/hongyaotang/.cargo/registry/src/index.crates.io-1949cf8c6b5b557f/rayon-core-1.13.0/src/registry.rs\00", align 1
@alloc_20a7e9138dd757ccdb1470e6d1af84e0 = private unnamed_addr constant <{ ptr, [16 x i8] }> <{ ptr @alloc_0de61de1cbae6e7f16241fcf50d58306, [16 x i8] c"i\00\00\00\00\00\00\004\01\00\006\00\00\00" }>, align 8
@vtable.2 = private unnamed_addr constant <{ ptr, [16 x i8], ptr, ptr, ptr }> <{ ptr @_RINvNtCsjMrxcFdYDNN_4core3ptr13drop_in_placeINtNvNtCs5sEH5CPMdak_3std2io17default_write_fmt7AdapterNtNtNtNtBN_3sys5stdio4unix6StderrEECsg3Flw6CsbJc_10rayon_core, [16 x i8] c"\10\00\00\00\00\00\00\00\08\00\00\00\00\00\00\00", ptr @_RNvXNvNtCs5sEH5CPMdak_3std2io17default_write_fmtINtB2_7AdapterNtNtNtNtB6_3sys5stdio4unix6StderrENtNtCsjMrxcFdYDNN_4core3fmt5Write9write_strCsg3Flw6CsbJc_10rayon_core, ptr @_RNvYINtNvNtCs5sEH5CPMdak_3std2io17default_write_fmt7AdapterNtNtNtNtB9_3sys5stdio4unix6StderrENtNtCsjMrxcFdYDNN_4core3fmt5Write10write_charCsg3Flw6CsbJc_10rayon_core, ptr @_RNvYINtNvNtCs5sEH5CPMdak_3std2io17default_write_fmt7AdapterNtNtNtNtB9_3sys5stdio4unix6StderrENtNtCsjMrxcFdYDNN_4core3fmt5Write9write_fmtCsg3Flw6CsbJc_10rayon_core }>, align 8
@alloc_a439077caaee6bab9af745f1531d72a4 = private unnamed_addr constant [86 x i8] c"a formatting trait implementation returned an error when the underlying stream did not", align 1
@alloc_2bd3b8890b9559f1d5fa47166d6aa71d = private unnamed_addr constant [114 x i8] c"/Users/hongyaotang/.rustup/toolchains/nightly-aarch64-apple-darwin/lib/rustlib/src/rust/library/std/src/io/mod.rs\00", align 1
@alloc_1b42f6056bebe0161fe847429125ca7f = private unnamed_addr constant <{ ptr, [16 x i8] }> <{ ptr @alloc_2bd3b8890b9559f1d5fa47166d6aa71d, [16 x i8] c"q\00\00\00\00\00\00\00\88\02\00\00\11\00\00\00" }>, align 8
@alloc_d1d5af468987e0761bb3ab0725074186 = private unnamed_addr constant <{ ptr, [16 x i8] }> <{ ptr @alloc_0de61de1cbae6e7f16241fcf50d58306, [16 x i8] c"i\00\00\00\00\00\00\00\C3\00\00\00\16\00\00\00" }>, align 8
@vtable.3 = private unnamed_addr constant <{ ptr, [16 x i8], ptr }> <{ ptr @_RINvNtCsjMrxcFdYDNN_4core3ptr13drop_in_placeNCINvNtNtCs5sEH5CPMdak_3std6thread9lifecycle15spawn_uncheckedNCNvXs0_NtCsg3Flw6CsbJc_10rayon_core8registryNtB1N_12DefaultSpawnNtB1N_11ThreadSpawn5spawn0uEs_0EB1P_, [16 x i8] c"\90\00\00\00\00\00\00\00\08\00\00\00\00\00\00\00", ptr @_RNSNvYNCINvNtNtCs5sEH5CPMdak_3std6thread9lifecycle15spawn_uncheckedNCNvXs0_NtCsg3Flw6CsbJc_10rayon_core8registryNtB1b_12DefaultSpawnNtB1b_11ThreadSpawn5spawn0uEs_0INtNtNtCsjMrxcFdYDNN_4core3ops8function6FnOnceuE9call_once6vtableB1d_ }>, align 8
@alloc_8abc8245dd622154cb39537f390f45d3 = private unnamed_addr constant [117 x i8] c"/Users/hongyaotang/.rustup/toolchains/nightly-aarch64-apple-darwin/lib/rustlib/src/rust/library/std/src/sync/once.rs\00", align 1
@alloc_3129176114b12752e73d3989241bb5f0 = private unnamed_addr constant <{ ptr, [16 x i8] }> <{ ptr @alloc_8abc8245dd622154cb39537f390f45d3, [16 x i8] c"t\00\00\00\00\00\00\00\9F\00\00\002\00\00\00" }>, align 8
@_RNvNCNvNtNtCs5sEH5CPMdak_3std6thread9lifecycle15spawn_unchecked03MIN = external local_unnamed_addr global %"core::sync::atomic::AtomicUsize"
@alloc_7a0078e56453c84a4274ce689b2bb39a = private unnamed_addr constant [14 x i8] c"RUST_MIN_STACK", align 1
@_RNvNCNKNvNtCshWjyrkxAz4b_15crossbeam_epoch7default6HANDLE0023___RUST_STD_INTERNAL_VAL = external thread_local global %"std::sys::thread_local::native::lazy::Storage<crossbeam_epoch::collector::LocalHandle, ()>"
@anon.596c7227ed062dde30e4506a5898e3a6.0 = private unnamed_addr constant [64 x i8] c"\A7\AB\AA2\00\00\00\00\00\00\00\00\00\00\00\00\00\00\00\00\00\00\00\00\00\00\00\00\00\00\00\00\00\00\00\00\00\00\00\00\00\00\00\00\00\00\00\00\00\00\00\00\00\00\00\00\00\00\00\00\00\00\00\00", align 8
@anon.596c7227ed062dde30e4506a5898e3a6.1 = private unnamed_addr constant [48 x i8] c"\BB\B1\B0<\00\00\00\00\00\00\00\00\00\00\00\00\00\00\00\00\00\00\00\00\00\00\00\00\00\00\00\00\00\00\00\00\00\00\00\00\00\00\00\00\00\00\00\00", align 8
@alloc_9b4a36537b55085fc0bd41f3892ae5df = private unnamed_addr constant [35 x i8] c"assertion failed: t.get().is_null()", align 1
@alloc_2840dd154d41b27c0dfb5c04542761f9 = private unnamed_addr constant <{ ptr, [16 x i8] }> <{ ptr @alloc_0de61de1cbae6e7f16241fcf50d58306, [16 x i8] c"i\00\00\00\00\00\00\00\C6\02\00\00\0D\00\00\00" }>, align 8
@alloc_e50521afe6b0a1e3858d462f1338a91b = private unnamed_addr constant <{ ptr, [16 x i8] }> <{ ptr @alloc_0de61de1cbae6e7f16241fcf50d58306, [16 x i8] c"i\00\00\00\00\00\00\00{\03\00\00#\00\00\00" }>, align 8
@alloc_c09cf7bf1aefe2fd73db80dc17892105 = private unnamed_addr constant [49 x i8] c"assertion failed: t.get().eq(&(self as *const _))", align 1
@alloc_7bcecbec4d35295675e07d89072aa130 = private unnamed_addr constant <{ ptr, [16 x i8] }> <{ ptr @alloc_0de61de1cbae6e7f16241fcf50d58306, [16 x i8] c"i\00\00\00\00\00\00\00\B3\02\00\00\0D\00\00\00" }>, align 8
@alloc_da079a647005b40153e89830a1b4e2bd = private unnamed_addr constant <{ ptr, [16 x i8], ptr }> <{ ptr @_RINvNtCsjMrxcFdYDNN_4core3ptr13drop_in_placeNtCsg3Flw6CsbJc_10rayon_core20ThreadPoolBuildErrorEBI_, [16 x i8] c"\10\00\00\00\00\00\00\00\08\00\00\00\00\00\00\00", ptr @_RNvXs6_Csg3Flw6CsbJc_10rayon_coreNtB5_20ThreadPoolBuildErrorNtNtCsjMrxcFdYDNN_4core3fmt7Display3fmt }>, align 8
@vtable.4 = private unnamed_addr constant <{ ptr, [16 x i8], ptr, ptr, ptr, ptr, ptr, ptr, ptr, ptr }> <{ ptr @_RINvNtCsjMrxcFdYDNN_4core3ptr13drop_in_placeNtCsg3Flw6CsbJc_10rayon_core20ThreadPoolBuildErrorEBI_, [16 x i8] c"\10\00\00\00\00\00\00\00\08\00\00\00\00\00\00\00", ptr @_RNvXsb_Csg3Flw6CsbJc_10rayon_coreNtB5_20ThreadPoolBuildErrorNtNtCsjMrxcFdYDNN_4core3fmt5Debug3fmt, ptr @_RNvXs6_Csg3Flw6CsbJc_10rayon_coreNtB5_20ThreadPoolBuildErrorNtNtCsjMrxcFdYDNN_4core3fmt7Display3fmt, ptr @alloc_da079a647005b40153e89830a1b4e2bd, ptr @_RNvXs5_Csg3Flw6CsbJc_10rayon_coreNtB5_20ThreadPoolBuildErrorNtNtCsjMrxcFdYDNN_4core5error5Error6source, ptr @_RNvYNtCsg3Flw6CsbJc_10rayon_core20ThreadPoolBuildErrorNtNtCsjMrxcFdYDNN_4core5error5Error7type_idB4_, ptr @_RNvXs5_Csg3Flw6CsbJc_10rayon_coreNtB5_20ThreadPoolBuildErrorNtNtCsjMrxcFdYDNN_4core5error5Error11description, ptr @_RNvYNtCsg3Flw6CsbJc_10rayon_core20ThreadPoolBuildErrorNtNtCsjMrxcFdYDNN_4core5error5Error5causeB4_, ptr @_RNvYNtCsg3Flw6CsbJc_10rayon_core20ThreadPoolBuildErrorNtNtCsjMrxcFdYDNN_4core5error5Error7provideB4_ }>, align 8
@alloc_ce39902073410cc30dbea2b5bf73c94b = private unnamed_addr constant <{ ptr, [16 x i8] }> <{ ptr @alloc_ad8ebdc9fef660bd40801a5aa2c8a7f4, [16 x i8] c"j\00\00\00\00\00\00\00!\01\00\004\00\00\00" }>, align 8
@alloc_66ca14458c5fe80149cd243ab5870e94 = private unnamed_addr constant <{ ptr, [16 x i8] }> <{ ptr @alloc_ad8ebdc9fef660bd40801a5aa2c8a7f4, [16 x i8] c"j\00\00\00\00\00\00\00#\01\00\00<\00\00\00" }>, align 8
@alloc_43812bd9dae4f9830d37c00bf26d2109 = private unnamed_addr constant [42 x i8] c"assertion failed: n_threads <= THREADS_MAX", align 1
@alloc_07de874490d9c7731426526ba6890dcb = private unnamed_addr constant <{ ptr, [16 x i8] }> <{ ptr @alloc_ad8ebdc9fef660bd40801a5aa2c8a7f4, [16 x i8] c"j\00\00\00\00\00\00\00=\00\00\00\09\00\00\00" }>, align 8
@vtable.5 = private unnamed_addr constant <{ ptr, [16 x i8], ptr }> <{ ptr @_RINvNtCsjMrxcFdYDNN_4core3ptr13drop_in_placeINtNtNtCs5sEH5CPMdak_3std4sync6poison11PoisonErrorINtNtBJ_5mutex10MutexGuardbEEECsg3Flw6CsbJc_10rayon_core, [16 x i8] c"\10\00\00\00\00\00\00\00\08\00\00\00\00\00\00\00", ptr @_RNvXs_NtNtCs5sEH5CPMdak_3std4sync6poisonINtB4_11PoisonErrorINtNtB4_5mutex10MutexGuardbEENtNtCsjMrxcFdYDNN_4core3fmt5Debug3fmtCsg3Flw6CsbJc_10rayon_core }>, align 8
@alloc_00ae4b301f7fab8ac9617c03fcbd7274 = private unnamed_addr constant [43 x i8] c"called `Result::unwrap()` on an `Err` value", align 1
@vtable.6 = private unnamed_addr constant <{ ptr, [16 x i8], ptr }> <{ ptr @_RINvNtCsjMrxcFdYDNN_4core3ptr13drop_in_placeNtCsg3Flw6CsbJc_10rayon_core20ThreadPoolBuildErrorEBI_, [16 x i8] c"\10\00\00\00\00\00\00\00\08\00\00\00\00\00\00\00", ptr @_RNvXsb_Csg3Flw6CsbJc_10rayon_coreNtB5_20ThreadPoolBuildErrorNtNtCsjMrxcFdYDNN_4core3fmt5Debug3fmt }>, align 8
@_RNvNtNtCs5sEH5CPMdak_3std9panicking11panic_count18GLOBAL_PANIC_COUNT = external local_unnamed_addr global %"core::sync::atomic::AtomicUsize"
@alloc_da75be5cf355a0c62ad51607063f583d = private unnamed_addr constant [54 x i8] c"attempted to use a condition variable with two mutexes", align 1
@alloc_a0f2a2e696707d28c1bad0bb984af047 = private unnamed_addr constant [132 x i8] c"/Users/hongyaotang/.rustup/toolchains/nightly-aarch64-apple-darwin/lib/rustlib/src/rust/library/std/src/sys/sync/condvar/pthread.rs\00", align 1
@alloc_33c80814996188919076c1dd2d93215e = private unnamed_addr constant <{ ptr, [16 x i8] }> <{ ptr @alloc_a0f2a2e696707d28c1bad0bb984af047, [16 x i8] c"\83\00\00\00\00\00\00\00'\00\00\00\12\00\00\00" }>, align 8
@alloc_5e3d6fdf9d2eef3c5d54ca19a3d4f6e0 = private unnamed_addr constant [17 x i8] c"RAYON_NUM_THREADS", align 1
@alloc_c7189d96bb3cf54a18048bb5cebb563d = private unnamed_addr constant [17 x i8] c"RAYON_RS_NUM_CPUS", align 1
@alloc_561405e4b7ba31015df16a0af69aa63c = private unnamed_addr constant [103 x i8] c"/Users/hongyaotang/.cargo/registry/src/index.crates.io-1949cf8c6b5b557f/rayon-core-1.13.0/src/latch.rs\00", align 1
@alloc_0970775764e50c3d4017f6a3bc6b7b16 = private unnamed_addr constant <{ ptr, [16 x i8] }> <{ ptr @alloc_561405e4b7ba31015df16a0af69aa63c, [16 x i8] c"f\00\00\00\00\00\00\00\F4\00\00\00'\00\00\00" }>, align 8
@alloc_33c4b42c04fa2acc4612dee795ec9f4e = private unnamed_addr constant <{ ptr, [16 x i8] }> <{ ptr @alloc_561405e4b7ba31015df16a0af69aa63c, [16 x i8] c"f\00\00\00\00\00\00\00\F6\00\00\00(\00\00\00" }>, align 8
@alloc_70a9dd4f436071bd58f566a128541a6a = private unnamed_addr constant <{ ptr, [16 x i8] }> <{ ptr @alloc_561405e4b7ba31015df16a0af69aa63c, [16 x i8] c"f\00\00\00\00\00\00\00\FD\00\00\00'\00\00\00" }>, align 8
@alloc_cf92567db8ef2906f505e8381de10aad = private unnamed_addr constant <{ ptr, [16 x i8] }> <{ ptr @alloc_561405e4b7ba31015df16a0af69aa63c, [16 x i8] c"f\00\00\00\00\00\00\00\FF\00\00\00(\00\00\00" }>, align 8
@alloc_85a8b4497d53e3771324b89924f7aab2 = private unnamed_addr constant [30 x i8] c"overflow in registry ref count", align 1
@alloc_6625adafb2fdec8ade71625d29af228d = private unnamed_addr constant <{ ptr, [16 x i8] }> <{ ptr @alloc_0de61de1cbae6e7f16241fcf50d58306, [16 x i8] c"i\00\00\00\00\00\00\00L\02\00\00\09\00\00\00" }>, align 8
@alloc_ca9bafd89d420505367d1f114ba497ce = private unnamed_addr constant [111 x i8] c"/Users/hongyaotang/.cargo/registry/src/index.crates.io-1949cf8c6b5b557f/crossbeam-epoch-0.9.18/src/internal.rs\00", align 1
@alloc_6ce925522e0221e39b5bde413077875f = private unnamed_addr constant <{ ptr, [16 x i8] }> <{ ptr @alloc_ca9bafd89d420505367d1f114ba497ce, [16 x i8] c"n\00\00\00\00\00\00\00\81\01\00\009\00\00\00" }>, align 8
@alloc_28263585e7732f085a20159ec17f9e22 = private unnamed_addr constant [12 x i8] c"owner thread", align 1
@alloc_7a059630b8d10a2cd28c5a5e18cf995e = private unnamed_addr constant <{ ptr, [16 x i8] }> <{ ptr @alloc_561405e4b7ba31015df16a0af69aa63c, [16 x i8] c"f\00\00\00\00\00\00\00\89\01\00\00#\00\00\00" }>, align 8
@alloc_e9525f46b03df7a5291625e7bfb7167e = private unnamed_addr constant <{ ptr, [16 x i8] }> <{ ptr @alloc_0de61de1cbae6e7f16241fcf50d58306, [16 x i8] c"i\00\00\00\00\00\00\008\03\00\00/\00\00\00" }>, align 8
@alloc_e0f8494065c65d263b78ebe90aa9e474 = private unnamed_addr constant <{ ptr, [16 x i8] }> <{ ptr @alloc_0de61de1cbae6e7f16241fcf50d58306, [16 x i8] c"i\00\00\00\00\00\00\00>\03\00\00*\00\00\00" }>, align 8
@alloc_958f1ccbc9adb9c5e951242986d8b65d = private unnamed_addr constant [107 x i8] c"/Users/hongyaotang/.cargo/registry/src/index.crates.io-1949cf8c6b5b557f/crossbeam-deque-0.8.6/src/deque.rs\00", align 1
@alloc_1337f5a035f3718d3fc78e9828c6ea33 = private unnamed_addr constant <{ ptr, [16 x i8] }> <{ ptr @alloc_958f1ccbc9adb9c5e951242986d8b65d, [16 x i8] c"j\00\00\00\00\00\00\00\7F\05\00\00C\00\00\00" }>, align 8
@_RNvNCNKNvNtCsg3Flw6CsbJc_10rayon_core8registry19WORKER_THREAD_STATE0s_023___RUST_STD_INTERNAL_VAL = thread_local local_unnamed_addr global [8 x i8] zeroinitializer, align 8
@_RNvNCNKNvNvMs4_NtCsg3Flw6CsbJc_10rayon_core8registryNtBd_8Registry14in_worker_cold10LOCK_LATCH0023___RUST_STD_INTERNAL_VAL = thread_local local_unnamed_addr global <{ [10 x i8], [6 x i8], [17 x i8], [7 x i8] }> <{ [10 x i8] zeroinitializer, [6 x i8] undef, [17 x i8] zeroinitializer, [7 x i8] undef }>, align 8
@_RNvNtCsg3Flw6CsbJc_10rayon_core8registry12THE_REGISTRY = global [8 x i8] zeroinitializer, align 8
@alloc_f90e4efa62a4578120fe2510ec260b98 = private unnamed_addr constant [48 x i8] c"The global thread pool has not been initialized.", align 1
@alloc_900ae2befbf1acfdb549d5b97bdd10b2 = private unnamed_addr constant <{ ptr, [16 x i8] }> <{ ptr @alloc_0de61de1cbae6e7f16241fcf50d58306, [16 x i8] c"i\00\00\00\00\00\00\00\AB\00\00\00\0A\00\00\00" }>, align 8
@_RNvNtCsg3Flw6CsbJc_10rayon_core8registry16THE_REGISTRY_SET = global [8 x i8] c"\03\00\00\00\00\00\00\00", align 8
@alloc_972431f40a84e70a3027a656a27fc097 = private unnamed_addr constant <{ ptr, [16 x i8] }> <{ ptr @alloc_0de61de1cbae6e7f16241fcf50d58306, [16 x i8] c"i\00\00\00\00\00\00\00\95\03\00\00&\00\00\00" }>, align 8
@_RNvNvMs9_NtCsg3Flw6CsbJc_10rayon_core8registryNtB7_14XorShift64Star3new7COUNTER = internal global [8 x i8] zeroinitializer, align 8
@alloc_628f20395ea753d2afed193ab31a3fa6 = private unnamed_addr constant [43 x i8] c"Rayon: detected unexpected panic; aborting\0A", align 1
@alloc_f669120e3e486c1bafaf3a5c53b19058 = private unnamed_addr constant [61 x i8] c"fatal runtime error: thread local panicked on drop, aborting\0A", align 1
@alloc_76bda19b68840ead91561ad211f023a1 = private unnamed_addr constant [9 x i8] c"<closure>", align 1
@alloc_b4b47029b78ecce2e134280cb52d9ed0 = private unnamed_addr constant [10 x i8] c"ThreadPool", align 1
@vtable.7 = private unnamed_addr constant <{ [24 x i8], ptr }> <{ [24 x i8] c"\00\00\00\00\00\00\00\00\08\00\00\00\00\00\00\00\08\00\00\00\00\00\00\00", ptr @_RNvXsZ_NtNtCsjMrxcFdYDNN_4core3fmt3numjNtB7_5Debug3fmt }>, align 8
@alloc_96401eebf2b16b8be7559af6fc2dfb88 = private unnamed_addr constant [11 x i8] c"num_threads", align 1
@vtable.8 = private unnamed_addr constant <{ [24 x i8], ptr }> <{ [24 x i8] c"\00\00\00\00\00\00\00\00\08\00\00\00\00\00\00\00\08\00\00\00\00\00\00\00", ptr @_RNvXsg_NtCsg3Flw6CsbJc_10rayon_core8registryNtB5_10RegistryIdNtNtCsjMrxcFdYDNN_4core3fmt5Debug3fmt }>, align 8
@alloc_9fb7f5417e63e47f0143f7bd79a45fd4 = private unnamed_addr constant [2 x i8] c"id", align 1
@alloc_58f213f5b48e0bea76ba0b429606a6b5 = private unnamed_addr constant [62 x i8] c"fatal runtime error: thread result panicked on drop, aborting\0A", align 1
@alloc_22d9a1d49025ccf153611da220dbb625 = private unnamed_addr constant [5 x i8] c"Scope", align 1
@alloc_4918065283f70a9c0f384ad78bc6c3ce = private unnamed_addr constant [7 x i8] c"pool_id", align 1
@vtable.9 = private unnamed_addr constant <{ [24 x i8], ptr }> <{ [24 x i8] c"\00\00\00\00\00\00\00\00\08\00\00\00\00\00\00\00\08\00\00\00\00\00\00\00", ptr @_RNvXs8_NtNtCsjMrxcFdYDNN_4core4sync6atomicINtB5_9AtomicPtrINtNtCsdJPVW0sQgAG_5alloc5boxed3BoxDNtNtB9_3any3AnyNtNtB9_6marker4SendEL_EENtNtB9_3fmt5Debug3fmtCsg3Flw6CsbJc_10rayon_core }>, align 8
@alloc_e71e18f064d1e4b47b3e8e4e124b750e = private unnamed_addr constant [5 x i8] c"panic", align 1
@vtable.a = private unnamed_addr constant <{ ptr, [16 x i8], ptr }> <{ ptr @_RINvNtCsjMrxcFdYDNN_4core3ptr13drop_in_placeNtNtCsg3Flw6CsbJc_10rayon_core5latch10CountLatchEBK_, [16 x i8] c"0\00\00\00\00\00\00\00\08\00\00\00\00\00\00\00", ptr @_RNvXsh_NtCsg3Flw6CsbJc_10rayon_core5latchNtB5_10CountLatchNtNtCsjMrxcFdYDNN_4core3fmt5Debug3fmt }>, align 8
@alloc_124c334389640160a46e2a3af6eb524c = private unnamed_addr constant [19 x i8] c"job_completed_latch", align 1
@alloc_7a10e7efdc5ac70fdc5b8e98f8dcdf0c = private unnamed_addr constant [8 x i8] c"\C3 \00\00i\10\00\00", align 1
@alloc_93c353dbfecde7fe3fb6a7b9386711f6 = private unnamed_addr constant [8 x i8] c"Counters", align 1
@vtable.b = private unnamed_addr constant <{ ptr, [16 x i8], ptr }> <{ ptr @_RINvNtCsjMrxcFdYDNN_4core3ptr13drop_in_placeNtNtCsdJPVW0sQgAG_5alloc6string6StringECsg3Flw6CsbJc_10rayon_core, [16 x i8] c"\18\00\00\00\00\00\00\00\08\00\00\00\00\00\00\00", ptr @_RNvXsr_NtCsdJPVW0sQgAG_5alloc6stringNtB5_6StringNtNtCsjMrxcFdYDNN_4core3fmt5Debug3fmt }>, align 8
@alloc_529d5e0f5e33a1d8b189c59c35aa28a4 = private unnamed_addr constant [4 x i8] c"word", align 1
@alloc_c7403f782cd84711d27cb46782cd5a06 = private unnamed_addr constant [4 x i8] c"jobs", align 1
@alloc_395f042de0c44280c74a4f0ab07e49ae = private unnamed_addr constant [8 x i8] c"inactive", align 1
@alloc_e3ccfc14fd6ef083835b556628285960 = private unnamed_addr constant [8 x i8] c"sleeping", align 1
@alloc_0b4f2f48a6060defdbe0bdf2cdb15f61 = private unnamed_addr constant [9 x i8] c"ScopeFifo", align 1
@alloc_e9dae0ae434d37d890204119943492c1 = private unnamed_addr constant [9 x i8] c"num_fifos", align 1
@alloc_aaba5a28799a7636beae7a543c7d5c8c = private unnamed_addr constant <{ ptr, [16 x i8] }> <{ ptr @alloc_561405e4b7ba31015df16a0af69aa63c, [16 x i8] c"f\00\00\00\00\00\00\00\07\01\00\00*\00\00\00" }>, align 8
@alloc_16260629d2e70df1ee1b3910ca4e4803 = private unnamed_addr constant [52 x i8] c"The global thread pool has already been initialized.", align 1
@alloc_14d4080efe33f42805c29a77571ba382 = private unnamed_addr constant [58 x i8] c"The current thread is already part of another thread pool.", align 1
@alloc_04d7ce44d7c86a9a02b346ab945bf155 = private unnamed_addr constant [40 x i8] c"description() is deprecated; use Display", align 1
@alloc_042f92cb4f8839bdce1a95ebac842941 = private unnamed_addr constant <{ ptr, [16 x i8], ptr }> <{ ptr @_RINvNtCsjMrxcFdYDNN_4core3ptr13drop_in_placeNtNtNtCs5sEH5CPMdak_3std2io5error5ErrorECsg3Flw6CsbJc_10rayon_core, [16 x i8] c"\08\00\00\00\00\00\00\00\08\00\00\00\00\00\00\00", ptr @_RNvXs7_NtNtCs5sEH5CPMdak_3std2io5errorNtB5_5ErrorNtNtCsjMrxcFdYDNN_4core3fmt7Display3fmt }>, align 8
@vtable.c = private unnamed_addr constant <{ ptr, [16 x i8], ptr, ptr, ptr, ptr, ptr, ptr, ptr, ptr }> <{ ptr @_RINvNtCsjMrxcFdYDNN_4core3ptr13drop_in_placeNtNtNtCs5sEH5CPMdak_3std2io5error5ErrorECsg3Flw6CsbJc_10rayon_core, [16 x i8] c"\08\00\00\00\00\00\00\00\08\00\00\00\00\00\00\00", ptr @_RNvXNtNtCs5sEH5CPMdak_3std2io5errorNtB2_5ErrorNtNtCsjMrxcFdYDNN_4core3fmt5Debug3fmt, ptr @_RNvXs7_NtNtCs5sEH5CPMdak_3std2io5errorNtB5_5ErrorNtNtCsjMrxcFdYDNN_4core3fmt7Display3fmt, ptr @alloc_042f92cb4f8839bdce1a95ebac842941, ptr @_RNvXs8_NtNtCs5sEH5CPMdak_3std2io5errorNtB5_5ErrorNtNtCsjMrxcFdYDNN_4core5error5Error6source, ptr @_RNvYNtNtNtCs5sEH5CPMdak_3std2io5error5ErrorNtNtCsjMrxcFdYDNN_4core5error5Error7type_idCsg3Flw6CsbJc_10rayon_core, ptr @_RNvYNtNtNtCs5sEH5CPMdak_3std2io5error5ErrorNtNtCsjMrxcFdYDNN_4core5error5Error11descriptionCsg3Flw6CsbJc_10rayon_core, ptr @_RNvXs8_NtNtCs5sEH5CPMdak_3std2io5errorNtB5_5ErrorNtNtCsjMrxcFdYDNN_4core5error5Error5cause, ptr @_RNvYNtCsg3Flw6CsbJc_10rayon_core20ThreadPoolBuildErrorNtNtCsjMrxcFdYDNN_4core5error5Error7provideB4_ }>, align 8
@alloc_e300f74ca1f116403d696eec4f38d989 = private unnamed_addr constant [17 x i8] c"ThreadPoolBuilder", align 1
@vtable.d = private unnamed_addr constant <{ [24 x i8], ptr }> <{ [24 x i8] c"\00\00\00\00\00\00\00\00\01\00\00\00\00\00\00\00\01\00\00\00\00\00\00\00", ptr @_RNvXsf_NtCsjMrxcFdYDNN_4core3fmtbNtB5_5Debug3fmt }>, align 8
@alloc_d8e4ba4d6a06ca1ba960a57ffe0bd97e = private unnamed_addr constant [18 x i8] c"use_current_thread", align 1
@vtable.e = private unnamed_addr constant <{ [24 x i8], ptr }> <{ [24 x i8] c"\00\00\00\00\00\00\00\00\01\00\00\00\00\00\00\00\01\00\00\00\00\00\00\00", ptr @_RNvXsR_NtCsjMrxcFdYDNN_4core6optionINtB5_6OptionNtNvXs7_Csg3Flw6CsbJc_10rayon_coreINtBS_17ThreadPoolBuilderpENtNtB7_3fmt5Debug3fmt18ClosurePlaceholderEB1J_3fmtBS_ }>, align 8
@alloc_1fac0e04fb39b92a91f85aca6e06ed14 = private unnamed_addr constant [15 x i8] c"get_thread_name", align 1
@alloc_3aee8fd7ff457739b6a272f904856607 = private unnamed_addr constant [13 x i8] c"panic_handler", align 1
@vtable.f = private unnamed_addr constant <{ [24 x i8], ptr }> <{ [24 x i8] c"\00\00\00\00\00\00\00\00\08\00\00\00\00\00\00\00\08\00\00\00\00\00\00\00", ptr @_RNvXs1g_NtCsjMrxcFdYDNN_4core3fmtRINtNtB8_6option6OptionjENtB6_5Debug3fmtCsg3Flw6CsbJc_10rayon_core }>, align 8
@alloc_1cda925cdf870115c095f91d54003df6 = private unnamed_addr constant [10 x i8] c"stack_size", align 1
@alloc_6ce4741949e994638cee3bd99e603268 = private unnamed_addr constant [13 x i8] c"start_handler", align 1
@alloc_38e874cae68eebba76d4177a6a574524 = private unnamed_addr constant [12 x i8] c"exit_handler", align 1
@vtable.g = private unnamed_addr constant <{ [24 x i8], ptr }> <{ [24 x i8] c"\00\00\00\00\00\00\00\00\08\00\00\00\00\00\00\00\08\00\00\00\00\00\00\00", ptr @_RNvXs1g_NtCsjMrxcFdYDNN_4core3fmtRbNtB6_5Debug3fmtCsg3Flw6CsbJc_10rayon_core }>, align 8
@alloc_8ee987831c01a1efc40a2a0734b60692 = private unnamed_addr constant [13 x i8] c"breadth_first", align 1
@alloc_d7b0df528d05fb2b8c0ea86398fdb37b = private unnamed_addr constant [8 x i8] c"Stealing", align 1
@vtable.h = private unnamed_addr constant <{ [24 x i8], ptr }> <{ [24 x i8] c"\00\00\00\00\00\00\00\00\08\00\00\00\00\00\00\00\08\00\00\00\00\00\00\00", ptr @_RNvXse_NtCsg3Flw6CsbJc_10rayon_core5latchNtB5_9CoreLatchNtNtCsjMrxcFdYDNN_4core3fmt5Debug3fmt }>, align 8
@alloc_ddb1a18081ac0d0220021c56321ae302 = private unnamed_addr constant [8 x i8] c"Blocking", align 1
@vtable.i = private unnamed_addr constant <{ ptr, [16 x i8], ptr }> <{ ptr @_RINvNtCsjMrxcFdYDNN_4core3ptr13drop_in_placeNtNtCsg3Flw6CsbJc_10rayon_core5latch9LockLatchEBK_, [16 x i8] c" \00\00\00\00\00\00\00\08\00\00\00\00\00\00\00", ptr @_RNvXsf_NtCsg3Flw6CsbJc_10rayon_core5latchNtB5_9LockLatchNtNtCsjMrxcFdYDNN_4core3fmt5Debug3fmt }>, align 8
@alloc_146cdbcee2ca1daae8d2f82a75846c0e = private unnamed_addr constant [5 x i8] c"Mutex", align 1
@alloc_1143f07fefcd705b3d341a339521c9b4 = private unnamed_addr constant [4 x i8] c"data", align 1
@alloc_779f4c4c227c35122e8522ff6a6f2abf = private unnamed_addr constant [8 x i8] c"<locked>", align 1
@alloc_3780a98851c92044f94fcc987715c4d4 = private unnamed_addr constant <{ ptr, [8 x i8] }> <{ ptr @alloc_779f4c4c227c35122e8522ff6a6f2abf, [8 x i8] c"\08\00\00\00\00\00\00\00" }>, align 8
@vtable.j = private unnamed_addr constant <{ [24 x i8], ptr }> <{ [24 x i8] c"\00\00\00\00\00\00\00\00\10\00\00\00\00\00\00\00\08\00\00\00\00\00\00\00", ptr @_RNvXs1g_NtCsjMrxcFdYDNN_4core3fmtReNtB6_5Debug3fmtCsg3Flw6CsbJc_10rayon_core }>, align 8
@alloc_a95dcc2b546265fe51dc710e0ec4e047 = private unnamed_addr constant [8 x i8] c"poisoned", align 1
@alloc_37cc2261712fe3cc7b0db63b1d517856 = private unnamed_addr constant [13 x i8] c"FIFO is empty", align 1
@alloc_b5d439f73a7d1069caa2f072b7170379 = private unnamed_addr constant [101 x i8] c"/Users/hongyaotang/.cargo/registry/src/index.crates.io-1949cf8c6b5b557f/rayon-core-1.13.0/src/job.rs\00", align 1
@alloc_fc90ce4e6671c605e1bba7745e2071e4 = private unnamed_addr constant <{ ptr, [16 x i8] }> <{ ptr @alloc_b5d439f73a7d1069caa2f072b7170379, [16 x i8] c"d\00\00\00\00\00\00\00\09\01\00\00!\00\00\00" }>, align 8
@alloc_37d2e53432a03a1f90b3e7253015eaf9 = private unnamed_addr constant [4 x i8] c"None", align 1
@vtable.k = private unnamed_addr constant <{ [24 x i8], ptr }> <{ [24 x i8] c"\00\00\00\00\00\00\00\00\08\00\00\00\00\00\00\00\08\00\00\00\00\00\00\00", ptr @_RNvXs1g_NtCsjMrxcFdYDNN_4core3fmtRNtNtCsdJPVW0sQgAG_5alloc6string6StringNtB6_5Debug3fmtCsg3Flw6CsbJc_10rayon_core }>, align 8
@alloc_9535bf4c204f3eb9b19ec2c83e446e52 = private unnamed_addr constant [4 x i8] c"Some", align 1
@vtable.l = private unnamed_addr constant <{ [24 x i8], ptr }> <{ [24 x i8] c"\00\00\00\00\00\00\00\00\08\00\00\00\00\00\00\00\08\00\00\00\00\00\00\00", ptr @_RNvXs1g_NtCsjMrxcFdYDNN_4core3fmtRNtNvXs7_Csg3Flw6CsbJc_10rayon_coreINtBE_17ThreadPoolBuilderpENtB6_5Debug3fmt18ClosurePlaceholderB1v_3fmtBE_ }>, align 8
@vtable.m = private unnamed_addr constant <{ [24 x i8], ptr }> <{ [24 x i8] c"\00\00\00\00\00\00\00\00\08\00\00\00\00\00\00\00\08\00\00\00\00\00\00\00", ptr @_RNvXs1g_NtCsjMrxcFdYDNN_4core3fmtRjNtB6_5Debug3fmtCsg3Flw6CsbJc_10rayon_core }>, align 8
@alloc_435685a0a3eeb74e5eb21db2bf0444a0 = private unnamed_addr constant [13 x i8] c"ThreadBuilder", align 1
@alloc_bfc098cb63b041e1e9ec31a95db422e0 = private unnamed_addr constant [4 x i8] c"pool", align 1
@alloc_ce52de59c922b8759e2388a62b9c641f = private unnamed_addr constant [5 x i8] c"index", align 1
@vtable.n = private unnamed_addr constant <{ ptr, [16 x i8], ptr }> <{ ptr @_RINvNtCsjMrxcFdYDNN_4core3ptr13drop_in_placeINtNtB4_6option6OptionNtNtCsdJPVW0sQgAG_5alloc6string6StringEECsg3Flw6CsbJc_10rayon_core, [16 x i8] c"\18\00\00\00\00\00\00\00\08\00\00\00\00\00\00\00", ptr @_RNvXsR_NtCsjMrxcFdYDNN_4core6optionINtB5_6OptionNtNtCsdJPVW0sQgAG_5alloc6string6StringENtNtB7_3fmt5Debug3fmtCsg3Flw6CsbJc_10rayon_core }>, align 8
@alloc_f00db71d77c58f05d86c38101680e143 = private unnamed_addr constant [4 x i8] c"name", align 1
@vtable.o = private unnamed_addr constant <{ [24 x i8], ptr }> <{ [24 x i8] c"\00\00\00\00\00\00\00\00\10\00\00\00\00\00\00\00\08\00\00\00\00\00\00\00", ptr @_RNvXsR_NtCsjMrxcFdYDNN_4core6optionINtB5_6OptionjENtNtB7_3fmt5Debug3fmtCsg3Flw6CsbJc_10rayon_core }>, align 8
@alloc_9f61cf3c35d68fbd913fe9e867a91e5b = private unnamed_addr constant [16 x i8] c"BroadcastContext", align 1
@alloc_8e2410b80645266732854088d21653bc = private unnamed_addr constant [11 x i8] c"PoisonError", align 1
@vtable.p = private unnamed_addr constant <{ [24 x i8], ptr }> <{ [24 x i8] c"\00\00\00\00\00\00\00\00\08\00\00\00\00\00\00\00\08\00\00\00\00\00\00\00", ptr @_RNvXs1g_NtCsjMrxcFdYDNN_4core3fmtRNtCsg3Flw6CsbJc_10rayon_core9ErrorKindNtB6_5Debug3fmtBy_ }>, align 8
@alloc_303489852a7de4bd4123885c4eb0f958 = private unnamed_addr constant [20 x i8] c"ThreadPoolBuildError", align 1
@alloc_a5d866b1768ad3f826bccdb004a1a8ae = private unnamed_addr constant [4 x i8] c"kind", align 1
@alloc_4f7acf5c69571b6b035007ce64fda1ea = private unnamed_addr constant [28 x i8] c"GlobalPoolAlreadyInitialized", align 1
@alloc_f387929862445229f3cf2ea3785e2d1d = private unnamed_addr constant [26 x i8] c"CurrentThreadAlreadyInPool", align 1
@vtable.q = private unnamed_addr constant <{ [24 x i8], ptr }> <{ [24 x i8] c"\00\00\00\00\00\00\00\00\08\00\00\00\00\00\00\00\08\00\00\00\00\00\00\00", ptr @_RNvXs1g_NtCsjMrxcFdYDNN_4core3fmtRNtNtNtCs5sEH5CPMdak_3std2io5error5ErrorNtB6_5Debug3fmtCsg3Flw6CsbJc_10rayon_core }>, align 8
@alloc_f72959ac8890ed8eb0d1a6666bf90f83 = private unnamed_addr constant [7 x i8] c"IOError", align 1
@vtable.r = private unnamed_addr constant <{ [24 x i8], ptr }> <{ [24 x i8] c"\00\00\00\00\00\00\00\00\08\00\00\00\00\00\00\00\08\00\00\00\00\00\00\00", ptr @_RNvXs1g_NtCsjMrxcFdYDNN_4core3fmtRNtNtNtB8_4sync6atomic11AtomicUsizeNtB6_5Debug3fmtCsg3Flw6CsbJc_10rayon_core }>, align 8
@alloc_950ddef1a8a3a9e289219c4bf9ce2ad5 = private unnamed_addr constant [9 x i8] c"CoreLatch", align 1
@alloc_53dc2ae8bb09ccd50a261f689b87edcd = private unnamed_addr constant [5 x i8] c"state", align 1
@vtable.s = private unnamed_addr constant <{ ptr, [16 x i8], ptr }> <{ ptr @_RINvNtCsjMrxcFdYDNN_4core3ptr13drop_in_placeINtNtNtNtCs5sEH5CPMdak_3std4sync6poison5mutex5MutexbEECsg3Flw6CsbJc_10rayon_core, [16 x i8] c"\10\00\00\00\00\00\00\00\08\00\00\00\00\00\00\00", ptr @_RNvXs8_NtNtNtCs5sEH5CPMdak_3std4sync6poison5mutexINtB5_5MutexbENtNtCsjMrxcFdYDNN_4core3fmt5Debug3fmtCsg3Flw6CsbJc_10rayon_core }>, align 8
@vtable.t = private unnamed_addr constant <{ [24 x i8], ptr }> <{ [24 x i8] c"\00\00\00\00\00\00\00\00\08\00\00\00\00\00\00\00\08\00\00\00\00\00\00\00", ptr @_RNvXs1g_NtCsjMrxcFdYDNN_4core3fmtRNtNtNtNtCs5sEH5CPMdak_3std4sync6poison7condvar7CondvarNtB6_5Debug3fmtCsg3Flw6CsbJc_10rayon_core }>, align 8
@alloc_945da18137d1ef2338adf58f48793657 = private unnamed_addr constant [9 x i8] c"LockLatch", align 1
@alloc_db17741ad3337aa0400b53159a3d2f13 = private unnamed_addr constant [1 x i8] c"m", align 1
@alloc_ad33425b23d9045217cdf94842b4a0e1 = private unnamed_addr constant [1 x i8] c"v", align 1
@alloc_f0b9d57f1f52f6c8081ee3127685e1d3 = private unnamed_addr constant [10 x i8] c"RegistryId", align 1
@alloc_54a7bb754f73cc19a80f411dbaeede2b = private unnamed_addr constant [4 x i8] c"addr", align 1
@vtable.u = private unnamed_addr constant <{ [24 x i8], ptr }> <{ [24 x i8] c"\00\00\00\00\00\00\00\00\08\00\00\00\00\00\00\00\08\00\00\00\00\00\00\00", ptr @_RNvXs1F_NtNtCsjMrxcFdYDNN_4core4sync6atomicNtB6_11AtomicUsizeNtNtBa_3fmt5Debug3fmt }>, align 8
@vtable.v = private unnamed_addr constant <{ [24 x i8], ptr }> <{ [24 x i8] c"\00\00\00\00\00\00\00\00\08\00\00\00\00\00\00\00\08\00\00\00\00\00\00\00", ptr @_RNvXs1g_NtCsjMrxcFdYDNN_4core3fmtRNtNtCsg3Flw6CsbJc_10rayon_core5latch14CountLatchKindNtB6_5Debug3fmtBA_ }>, align 8
@alloc_6bd13bdd06aae2bfc338798dfffbf75d = private unnamed_addr constant [10 x i8] c"CountLatch", align 1
@alloc_8827da0b8547ff603d55b67d07b8c6c4 = private unnamed_addr constant [7 x i8] c"counter", align 1
@anon.596c7227ed062dde30e4506a5898e3a6.2 = private unnamed_addr constant <{ ptr, ptr }> <{ ptr inttoptr (i64 1177474603646585958 to ptr), ptr inttoptr (i64 -1426999959831825406 to ptr) }>, align 8
@anon.596c7227ed062dde30e4506a5898e3a6.3 = private unnamed_addr constant <{ ptr, ptr }> <{ ptr inttoptr (i64 -199690759461531251 to ptr), ptr inttoptr (i64 -16825625559297924 to ptr) }>, align 8
@alloc_8d68fcbc011419193bd208f22e2789d1 = private unnamed_addr constant [28 x i8] c"failed to write whole buffer", align 1
@alloc_0c6bd0c1dc63d8d7fb1eb0c800f5dec2 = private unnamed_addr constant <{ ptr, [9 x i8], [7 x i8] }> <{ ptr @alloc_8d68fcbc011419193bd208f22e2789d1, [9 x i8] c"\1C\00\00\00\00\00\00\00\17", [7 x i8] undef }>, align 8
@alloc_79593743b3b0920a7b2e6e6acc5dadf0 = private unnamed_addr constant <{ ptr, [16 x i8] }> <{ ptr @alloc_2bd3b8890b9559f1d5fa47166d6aa71d, [16 x i8] c"q\00\00\00\00\00\00\00Y\07\00\00$\00\00\00" }>, align 8
@switch.table._RNvXs5_Csg3Flw6CsbJc_10rayon_coreNtB5_20ThreadPoolBuildErrorNtNtCsjMrxcFdYDNN_4core5error5Error11description = private unnamed_addr constant [3 x i64] [i64 52, i64 58, i64 40], align 8
@switch.table._RNvXs5_Csg3Flw6CsbJc_10rayon_coreNtB5_20ThreadPoolBuildErrorNtNtCsjMrxcFdYDNN_4core5error5Error11description.202 = private unnamed_addr constant [3 x ptr] [ptr @alloc_16260629d2e70df1ee1b3910ca4e4803, ptr @alloc_14d4080efe33f42805c29a77571ba382, ptr @alloc_04d7ce44d7c86a9a02b346ab945bf155], align 8

; <rayon_core::sleep::Sleep>::sleep::<<rayon_core::registry::WorkerThread>::wait_until_cold::{closure#0}>
; Function Attrs: cold uwtable
define internal fastcc void @_RINvMNtCsg3Flw6CsbJc_10rayon_core5sleepNtB3_5Sleep5sleepNCNvMs8_NtB5_8registryNtB10_12WorkerThread15wait_until_cold0EB5_(ptr noundef nonnull align 8 captures(none) %self, ptr noalias noundef nonnull align 8 captures(none) dereferenceable(24) %idle_state, ptr noundef nonnull align 8 captures(none) %latch, ptr noundef nonnull readonly align 128 captures(none) %has_injected_jobs) unnamed_addr #0 personality ptr @rust_eh_personality {
start:
  %e.i5 = alloca [16 x i8], align 8
  %e.i = alloca [16 x i8], align 8
  %worker_index = load i64, ptr %idle_state, align 8, !noundef !2
  %0 = cmpxchg ptr %latch, i64 0, i64 1 seq_cst monotonic, align 8
  %_8.sroa.18.0.in.i = extractvalue { i64, i1 } %0, 1
  br i1 %_8.sroa.18.0.in.i, label %bb1, label %bb26

bb1:                                              ; preds = %start
  %1 = getelementptr inbounds nuw i8, ptr %self, i64 16
  %_27 = load i64, ptr %1, align 8, !noundef !2
  %_29 = icmp ult i64 %worker_index, %_27
  br i1 %_29, label %bb33, label %panic

bb33:                                             ; preds = %bb1
  %2 = getelementptr inbounds nuw i8, ptr %self, i64 8
  %_28 = load ptr, ptr %2, align 8, !nonnull !2, !noundef !2
  %sleep_state = getelementptr inbounds nuw %"crossbeam_utils::cache_padded::CachePadded<sleep::WorkerSleepState>", ptr %_28, i64 %worker_index
  %3 = load atomic ptr, ptr %sleep_state acquire, align 8, !noalias !3
  %4 = icmp eq ptr %3, null
  br i1 %4, label %bb7.i.i, label %_RINvMNtNtNtCs5sEH5CPMdak_3std3sys4sync8once_boxINtB3_7OnceBoxNtNtNtNtNtB7_3pal4unix4sync5mutex5MutexE11get_or_initNCNvMNtNtB5_5mutex7pthreadNtB1T_5Mutex3get0ECsg3Flw6CsbJc_10rayon_core.exit.i, !prof !6

bb7.i.i:                                          ; preds = %bb33
; call <std::sys::sync::once_box::OnceBox<std::sys::pal::unix::sync::mutex::Mutex>>::initialize::<<std::sys::sync::mutex::pthread::Mutex>::get::{closure#0}>
  %5 = tail call fastcc noundef nonnull align 8 ptr @_RINvMNtNtNtCs5sEH5CPMdak_3std3sys4sync8once_boxINtB3_7OnceBoxNtNtNtNtNtB7_3pal4unix4sync5mutex5MutexE10initializeNCNvMNtNtB5_5mutex7pthreadNtB1S_5Mutex3get0ECsg3Flw6CsbJc_10rayon_core(ptr noundef nonnull align 8 %sleep_state), !noalias !3
  br label %_RINvMNtNtNtCs5sEH5CPMdak_3std3sys4sync8once_boxINtB3_7OnceBoxNtNtNtNtNtB7_3pal4unix4sync5mutex5MutexE11get_or_initNCNvMNtNtB5_5mutex7pthreadNtB1T_5Mutex3get0ECsg3Flw6CsbJc_10rayon_core.exit.i

_RINvMNtNtNtCs5sEH5CPMdak_3std3sys4sync8once_boxINtB3_7OnceBoxNtNtNtNtNtB7_3pal4unix4sync5mutex5MutexE11get_or_initNCNvMNtNtB5_5mutex7pthreadNtB1T_5Mutex3get0ECsg3Flw6CsbJc_10rayon_core.exit.i: ; preds = %bb7.i.i, %bb33
  %_0.sroa.0.0.i.i = phi ptr [ %5, %bb7.i.i ], [ %3, %bb33 ]
; call <std::sys::pal::unix::sync::mutex::Mutex>::lock
  tail call void @_RNvMNtNtNtNtNtCs5sEH5CPMdak_3std3sys3pal4unix4sync5mutexNtB2_5Mutex4lock(ptr noundef nonnull align 8 %_0.sroa.0.0.i.i), !noalias !3
  %6 = load atomic i64, ptr @_RNvNtNtCs5sEH5CPMdak_3std9panicking11panic_count18GLOBAL_PANIC_COUNT monotonic, align 8, !noalias !3
  %_6.i.i = and i64 %6, 9223372036854775807
  %7 = icmp eq i64 %_6.i.i, 0
  br i1 %7, label %_RNvMs5_NtNtNtCs5sEH5CPMdak_3std4sync6poison5mutexINtB5_5MutexbE4lockCsg3Flw6CsbJc_10rayon_core.exit, label %bb6.i.i, !prof !7

bb6.i.i:                                          ; preds = %_RINvMNtNtNtCs5sEH5CPMdak_3std3sys4sync8once_boxINtB3_7OnceBoxNtNtNtNtNtB7_3pal4unix4sync5mutex5MutexE11get_or_initNCNvMNtNtB5_5mutex7pthreadNtB1T_5Mutex3get0ECsg3Flw6CsbJc_10rayon_core.exit.i
; call std::panicking::panic_count::is_zero_slow_path
  %8 = tail call noundef zeroext i1 @_RNvNtNtCs5sEH5CPMdak_3std9panicking11panic_count17is_zero_slow_path() #33, !noalias !3
  %9 = xor i1 %8, true
  br label %_RNvMs5_NtNtNtCs5sEH5CPMdak_3std4sync6poison5mutexINtB5_5MutexbE4lockCsg3Flw6CsbJc_10rayon_core.exit

_RNvMs5_NtNtNtCs5sEH5CPMdak_3std4sync6poison5mutexINtB5_5MutexbE4lockCsg3Flw6CsbJc_10rayon_core.exit: ; preds = %_RINvMNtNtNtCs5sEH5CPMdak_3std3sys4sync8once_boxINtB3_7OnceBoxNtNtNtNtNtB7_3pal4unix4sync5mutex5MutexE11get_or_initNCNvMNtNtB5_5mutex7pthreadNtB1T_5Mutex3get0ECsg3Flw6CsbJc_10rayon_core.exit.i, %bb6.i.i
  %_5.sroa.0.0.off0.i.i = phi i1 [ %9, %bb6.i.i ], [ false, %_RINvMNtNtNtCs5sEH5CPMdak_3std3sys4sync8once_boxINtB3_7OnceBoxNtNtNtNtNtB7_3pal4unix4sync5mutex5MutexE11get_or_initNCNvMNtNtB5_5mutex7pthreadNtB1T_5Mutex3get0ECsg3Flw6CsbJc_10rayon_core.exit.i ]
  %_7.i = getelementptr inbounds nuw i8, ptr %sleep_state, i64 8
  %10 = load atomic i8, ptr %_7.i monotonic, align 1, !noalias !3
  %.not = icmp eq i8 %10, 0
  br i1 %.not, label %bb34, label %bb2.i, !prof !7

bb2.i:                                            ; preds = %_RNvMs5_NtNtNtCs5sEH5CPMdak_3std4sync6poison5mutexINtB5_5MutexbE4lockCsg3Flw6CsbJc_10rayon_core.exit
  %_0.sroa.3.0.i.i = zext i1 %_5.sroa.0.0.off0.i.i to i8
  call void @llvm.lifetime.start.p0(i64 16, ptr nonnull %e.i), !noalias !8
  store ptr %sleep_state, ptr %e.i, align 8, !noalias !8
  %11 = getelementptr inbounds nuw i8, ptr %e.i, i64 8
  store i8 %_0.sroa.3.0.i.i, ptr %11, align 8, !noalias !8
; invoke core::result::unwrap_failed
  invoke void @_RNvNtCsjMrxcFdYDNN_4core6result13unwrap_failed(ptr noalias noundef nonnull readonly align 1 captures(address, read_provenance) @alloc_00ae4b301f7fab8ac9617c03fcbd7274, i64 noundef 43, ptr noundef nonnull align 1 %e.i, ptr noalias noundef readonly align 8 captures(address, read_provenance) dereferenceable(32) @vtable.5, ptr noalias noundef readonly align 8 captures(address, read_provenance) dereferenceable(24) @alloc_207373810a530db275fc80ce2105e6b8) #34
          to label %unreachable.i unwind label %cleanup.i, !noalias !12

cleanup.i:                                        ; preds = %bb2.i
  %12 = landingpad { ptr, i32 }
          cleanup
; invoke core::ptr::drop_in_place::<std::sync::poison::PoisonError<std::sync::poison::mutex::MutexGuard<bool>>>
  invoke void @_RINvNtCsjMrxcFdYDNN_4core3ptr13drop_in_placeINtNtNtCs5sEH5CPMdak_3std4sync6poison11PoisonErrorINtNtBJ_5mutex10MutexGuardbEEECsg3Flw6CsbJc_10rayon_core(ptr noalias noundef nonnull align 8 dereferenceable(16) %e.i) #35
          to label %common.resume unwind label %terminate.i, !noalias !12

unreachable.i:                                    ; preds = %bb2.i
  unreachable

terminate.i:                                      ; preds = %cleanup.i
  %13 = landingpad { ptr, i32 }
          filter [0 x ptr] zeroinitializer
; call core::panicking::panic_in_cleanup
  call void @_RNvNtCsjMrxcFdYDNN_4core9panicking16panic_in_cleanup() #36, !noalias !12
  unreachable

common.resume:                                    ; preds = %cleanup.i30, %cleanup.i10, %cleanup.i
  %common.resume.op = phi { ptr, i32 } [ %12, %cleanup.i ], [ %lpad.phi, %cleanup.i30 ], [ %38, %cleanup.i10 ]
  resume { ptr, i32 } %common.resume.op

panic:                                            ; preds = %bb1
; call core::panicking::panic_bounds_check
  tail call void @_RNvNtCsjMrxcFdYDNN_4core9panicking18panic_bounds_check(i64 noundef %worker_index, i64 noundef %_27, ptr noalias noundef readonly align 8 captures(address, read_provenance) dereferenceable(24) @alloc_f92e8cd0d7233266b847a8ed4389fb25) #34
  unreachable

bb34:                                             ; preds = %_RNvMs5_NtNtNtCs5sEH5CPMdak_3std4sync6poison5mutexINtB5_5MutexbE4lockCsg3Flw6CsbJc_10rayon_core.exit
  %14 = cmpxchg ptr %latch, i64 1, i64 2 seq_cst monotonic, align 8
  %_8.sroa.18.0.in.i20 = extractvalue { i64, i1 } %14, 1
  br i1 %_8.sroa.18.0.in.i20, label %bb35.preheader, label %bb6

bb35.preheader:                                   ; preds = %bb34
  %_36 = getelementptr inbounds nuw i8, ptr %self, i64 24
  %15 = getelementptr inbounds nuw i8, ptr %idle_state, i64 8
  br label %bb35

bb6:                                              ; preds = %bb34
  %16 = getelementptr inbounds nuw i8, ptr %idle_state, i64 16
  store i32 0, ptr %16, align 8
  %17 = getelementptr inbounds nuw i8, ptr %idle_state, i64 8
  store i64 -1, ptr %17, align 8
  br label %bb23

bb35:                                             ; preds = %bb35.preheader, %bb40
  %18 = load atomic i64, ptr %_36 seq_cst, align 8
  %_37 = lshr i64 %18, 32
  %_39 = load i64, ptr %15, align 8, !noundef !2
  %_38.not = icmp eq i64 %_37, %_39
  br i1 %_38.not, label %bb40, label %bb38

bb40:                                             ; preds = %bb35
  %19 = add i64 %18, 1
  %20 = cmpxchg ptr %_36, i64 %18, i64 %19 seq_cst monotonic, align 8
  %_8.sroa.18.0.in.i24 = extractvalue { i64, i1 } %20, 1
  br i1 %_8.sroa.18.0.in.i24, label %bb12, label %bb35

bb12:                                             ; preds = %bb40
  fence seq_cst
  %_3.i.i = getelementptr inbounds nuw i8, ptr %has_injected_jobs, i64 312
  tail call void @llvm.experimental.noalias.scope.decl(metadata !13)
  %_7.i.i.i = load ptr, ptr %_3.i.i, align 8, !alias.scope !13, !nonnull !2, !noundef !2
  %_9.i.i.i = getelementptr inbounds nuw i8, ptr %_7.i.i.i, i64 256
  %21 = load atomic i64, ptr %_9.i.i.i acquire, align 8, !noalias !13
  fence seq_cst
  %_13.i.i.i = getelementptr inbounds nuw i8, ptr %_7.i.i.i, i64 264
  %22 = load atomic i64, ptr %_13.i.i.i acquire, align 8, !noalias !13
  %_5.i.i.i = sub i64 %22, %21
  %_0.i.i.i = icmp slt i64 %_5.i.i.i, 1
  br i1 %_0.i.i.i, label %bb13, label %bb14

bb13:                                             ; preds = %bb12
  %23 = getelementptr inbounds nuw i8, ptr %has_injected_jobs, i64 272
  %_6.i.i29 = load ptr, ptr %23, align 16, !nonnull !2, !noundef !2
  %_4.i.i = getelementptr inbounds nuw i8, ptr %_6.i.i29, i64 128
  %24 = load atomic i64, ptr %_4.i.i seq_cst, align 8
  %_9.i.i.i.i = getelementptr inbounds nuw i8, ptr %_6.i.i29, i64 256
  %25 = load atomic i64, ptr %_9.i.i.i.i seq_cst, align 8
  %_0.unshifted.i.i.i.i = xor i64 %25, %24
  %_0.i.i.i.i = icmp ugt i64 %_0.unshifted.i.i.i.i, 1
  br i1 %_0.i.i.i.i, label %bb14, label %bb15

bb15:                                             ; preds = %bb13
  %_57 = getelementptr inbounds nuw i8, ptr %sleep_state, i64 9
  store i8 1, ptr %_57, align 1
  %_17 = getelementptr inbounds nuw i8, ptr %sleep_state, i64 16
  %_18.i.i.i = getelementptr inbounds nuw i8, ptr %sleep_state, i64 24
  br label %bb16

bb14:                                             ; preds = %bb12, %bb13
  %26 = atomicrmw sub ptr %_36, i64 1 seq_cst, align 8
  br label %bb44

bb16:                                             ; preds = %bb18, %bb15
  %27 = load i8, ptr %_57, align 1, !range !16, !noundef !2
  %_14 = trunc nuw i8 %27 to i1
  br i1 %_14, label %bb17, label %bb44

bb17:                                             ; preds = %bb16
  %28 = load atomic ptr, ptr %sleep_state monotonic, align 8, !noalias !17
  %addr.i.i.i = ptrtoint ptr %28 to i64
  %29 = cmpxchg ptr %_18.i.i.i, i64 0, i64 %addr.i.i.i monotonic monotonic, align 8, !noalias !17
  %_8.sroa.18.0.in.i.i.i.i = extractvalue { i64, i1 } %29, 1
  %_8.sroa.0.0.i.i.i.i = extractvalue { i64, i1 } %29, 0
  %_11.i.i.i = icmp eq i64 %_8.sroa.0.0.i.i.i.i, %addr.i.i.i
  %or.cond.not.not.i.i.i = select i1 %_8.sroa.18.0.in.i.i.i.i, i1 true, i1 %_11.i.i.i
  br i1 %or.cond.not.not.i.i.i, label %_RNvMNtNtNtNtCs5sEH5CPMdak_3std3sys4sync7condvar7pthreadNtB2_7Condvar6verify.exit.i.i, label %bb3.i.i.i, !prof !20

bb3.i.i.i:                                        ; preds = %bb17
; invoke core::panicking::panic_fmt
  invoke void @_RNvNtCsjMrxcFdYDNN_4core9panicking9panic_fmt(ptr noundef nonnull @alloc_da75be5cf355a0c62ad51607063f583d, ptr noundef nonnull inttoptr (i64 109 to ptr), ptr noalias noundef readonly align 8 captures(address, read_provenance) dereferenceable(24) @alloc_33c80814996188919076c1dd2d93215e) #37
          to label %.noexc.i unwind label %cleanup.i30.loopexit.split-lp, !noalias !17

.noexc.i:                                         ; preds = %bb3.i.i.i
  unreachable

_RNvMNtNtNtNtCs5sEH5CPMdak_3std3sys4sync7condvar7pthreadNtB2_7Condvar6verify.exit.i.i: ; preds = %bb17
  %30 = load atomic ptr, ptr %_17 acquire, align 8, !noalias !17
  %31 = icmp eq ptr %30, null
  br i1 %31, label %bb7.i.i.i, label %bb18, !prof !6

bb7.i.i.i:                                        ; preds = %_RNvMNtNtNtNtCs5sEH5CPMdak_3std3sys4sync7condvar7pthreadNtB2_7Condvar6verify.exit.i.i
; invoke <std::sys::sync::once_box::OnceBox<std::sys::pal::unix::sync::condvar::Condvar>>::initialize::<<std::sys::sync::condvar::pthread::Condvar>::get::{closure#0}>
  %32 = invoke fastcc noundef nonnull align 8 ptr @_RINvMNtNtNtCs5sEH5CPMdak_3std3sys4sync8once_boxINtB3_7OnceBoxNtNtNtNtNtB7_3pal4unix4sync7condvar7CondvarE10initializeNCNvMNtNtB5_7condvar7pthreadNtB1W_7Condvar3get0ECsg3Flw6CsbJc_10rayon_core(ptr noundef nonnull align 8 %_17)
          to label %bb18 unwind label %cleanup.i30.loopexit, !noalias !17

cleanup.i30.loopexit:                             ; preds = %bb7.i.i.i
  %lpad.loopexit = landingpad { ptr, i32 }
          cleanup
  br label %cleanup.i30

cleanup.i30.loopexit.split-lp:                    ; preds = %bb3.i.i.i
  %lpad.loopexit.split-lp = landingpad { ptr, i32 }
          cleanup
  br label %cleanup.i30

cleanup.i30:                                      ; preds = %cleanup.i30.loopexit.split-lp, %cleanup.i30.loopexit
  %lpad.phi = phi { ptr, i32 } [ %lpad.loopexit, %cleanup.i30.loopexit ], [ %lpad.loopexit.split-lp, %cleanup.i30.loopexit.split-lp ]
  %33 = zext i1 %_5.sroa.0.0.off0.i.i to i8
; invoke core::ptr::drop_in_place::<std::sync::poison::mutex::MutexGuard<bool>>
  invoke fastcc void @_RINvNtCsjMrxcFdYDNN_4core3ptr13drop_in_placeINtNtNtNtCs5sEH5CPMdak_3std4sync6poison5mutex10MutexGuardbEECsg3Flw6CsbJc_10rayon_core(ptr nonnull align 8 %sleep_state, i8 %33) #35
          to label %common.resume unwind label %terminate.i31, !noalias !17

terminate.i31:                                    ; preds = %cleanup.i30
  %34 = landingpad { ptr, i32 }
          filter [0 x ptr] zeroinitializer
; call core::panicking::panic_in_cleanup
  tail call void @_RNvNtCsjMrxcFdYDNN_4core9panicking16panic_in_cleanup() #36, !noalias !17
  unreachable

bb18:                                             ; preds = %bb7.i.i.i, %_RNvMNtNtNtNtCs5sEH5CPMdak_3std3sys4sync7condvar7pthreadNtB2_7Condvar6verify.exit.i.i
  %_0.sroa.0.0.i.i.i = phi ptr [ %30, %_RNvMNtNtNtNtCs5sEH5CPMdak_3std3sys4sync7condvar7pthreadNtB2_7Condvar6verify.exit.i.i ], [ %32, %bb7.i.i.i ]
  %r.i.i = tail call noundef i32 @pthread_cond_wait(ptr noundef nonnull %_0.sroa.0.0.i.i.i, ptr noundef nonnull %28) #38, !noalias !17
  %35 = load atomic i8, ptr %_7.i monotonic, align 1, !noalias !17
  %.not67 = icmp eq i8 %35, 0
  br i1 %.not67, label %bb16, label %bb2.i9, !prof !7

bb2.i9:                                           ; preds = %bb18
  %36 = zext i1 %_5.sroa.0.0.off0.i.i to i8
  call void @llvm.lifetime.start.p0(i64 16, ptr nonnull %e.i5), !noalias !21
  store ptr %sleep_state, ptr %e.i5, align 8, !noalias !21
  %37 = getelementptr inbounds nuw i8, ptr %e.i5, i64 8
  store i8 %36, ptr %37, align 8, !noalias !21
; invoke core::result::unwrap_failed
  invoke void @_RNvNtCsjMrxcFdYDNN_4core6result13unwrap_failed(ptr noalias noundef nonnull readonly align 1 captures(address, read_provenance) @alloc_00ae4b301f7fab8ac9617c03fcbd7274, i64 noundef 43, ptr noundef nonnull align 1 %e.i5, ptr noalias noundef readonly align 8 captures(address, read_provenance) dereferenceable(32) @vtable.5, ptr noalias noundef readonly align 8 captures(address, read_provenance) dereferenceable(24) @alloc_55c0b7a0e489e4f5edd431c218211fc9) #34
          to label %unreachable.i13 unwind label %cleanup.i10, !noalias !25

cleanup.i10:                                      ; preds = %bb2.i9
  %38 = landingpad { ptr, i32 }
          cleanup
; invoke core::ptr::drop_in_place::<std::sync::poison::PoisonError<std::sync::poison::mutex::MutexGuard<bool>>>
  invoke void @_RINvNtCsjMrxcFdYDNN_4core3ptr13drop_in_placeINtNtNtCs5sEH5CPMdak_3std4sync6poison11PoisonErrorINtNtBJ_5mutex10MutexGuardbEEECsg3Flw6CsbJc_10rayon_core(ptr noalias noundef nonnull align 8 dereferenceable(16) %e.i5) #35
          to label %common.resume unwind label %terminate.i11, !noalias !25

unreachable.i13:                                  ; preds = %bb2.i9
  unreachable

terminate.i11:                                    ; preds = %cleanup.i10
  %39 = landingpad { ptr, i32 }
          filter [0 x ptr] zeroinitializer
; call core::panicking::panic_in_cleanup
  call void @_RNvNtCsjMrxcFdYDNN_4core9panicking16panic_in_cleanup() #36, !noalias !25
  unreachable

bb44:                                             ; preds = %bb16, %bb14
  %40 = getelementptr inbounds nuw i8, ptr %idle_state, i64 16
  store i32 0, ptr %40, align 8
  store i64 -1, ptr %15, align 8
  %41 = load atomic i64, ptr %latch acquire, align 8
  %_61 = icmp eq i64 %41, 3
  br i1 %_61, label %bb43, label %bb42

bb42:                                             ; preds = %bb44
  %42 = cmpxchg ptr %latch, i64 2, i64 0 seq_cst monotonic, align 8
  br label %bb43

bb43:                                             ; preds = %bb42, %bb44
  br i1 %_5.sroa.0.0.off0.i.i, label %bb26.sink.split, label %bb1.i.i.i

bb1.i.i.i:                                        ; preds = %bb43
  %43 = load atomic i64, ptr @_RNvNtNtCs5sEH5CPMdak_3std9panicking11panic_count18GLOBAL_PANIC_COUNT monotonic, align 8
  %_7.i.i.i42 = and i64 %43, 9223372036854775807
  %44 = icmp eq i64 %_7.i.i.i42, 0
  br i1 %44, label %bb26.sink.split, label %bb6.i.i.i, !prof !7

bb6.i.i.i:                                        ; preds = %bb1.i.i.i
; call std::panicking::panic_count::is_zero_slow_path
  %_6.i.i.i = tail call noundef zeroext i1 @_RNvNtNtCs5sEH5CPMdak_3std9panicking11panic_count17is_zero_slow_path() #33
  br i1 %_6.i.i.i, label %bb26.sink.split, label %bb26.sink.split.sink.split

bb26.sink.split.sink.split:                       ; preds = %bb6.i.i.i, %bb6.i.i.i51
  store atomic i8 1, ptr %_7.i monotonic, align 1
  br label %bb26.sink.split

bb26.sink.split:                                  ; preds = %bb26.sink.split.sink.split, %bb6.i.i.i, %bb1.i.i.i, %bb43, %bb6.i.i.i51, %bb1.i.i.i49, %bb23
  %45 = load atomic ptr, ptr %sleep_state monotonic, align 8
; call <std::sys::pal::unix::sync::mutex::Mutex>::unlock
  tail call void @_RNvMNtNtNtNtNtCs5sEH5CPMdak_3std3sys3pal4unix4sync5mutexNtB2_5Mutex6unlock(ptr noundef nonnull align 8 %45)
  br label %bb26

bb26:                                             ; preds = %bb26.sink.split, %start
  ret void

bb38:                                             ; preds = %bb35
  %46 = getelementptr inbounds nuw i8, ptr %idle_state, i64 16
  store i32 32, ptr %46, align 8
  store i64 -1, ptr %15, align 8
  %47 = load atomic i64, ptr %latch acquire, align 8
  %_40 = icmp eq i64 %47, 3
  br i1 %_40, label %bb23, label %bb36

bb36:                                             ; preds = %bb38
  %48 = cmpxchg ptr %latch, i64 2, i64 0 seq_cst monotonic, align 8
  br label %bb23

bb23:                                             ; preds = %bb36, %bb38, %bb6
  br i1 %_5.sroa.0.0.off0.i.i, label %bb26.sink.split, label %bb1.i.i.i49

bb1.i.i.i49:                                      ; preds = %bb23
  %49 = load atomic i64, ptr @_RNvNtNtCs5sEH5CPMdak_3std9panicking11panic_count18GLOBAL_PANIC_COUNT monotonic, align 8
  %_7.i.i.i50 = and i64 %49, 9223372036854775807
  %50 = icmp eq i64 %_7.i.i.i50, 0
  br i1 %50, label %bb26.sink.split, label %bb6.i.i.i51, !prof !7

bb6.i.i.i51:                                      ; preds = %bb1.i.i.i49
; call std::panicking::panic_count::is_zero_slow_path
  %_6.i.i.i52 = tail call noundef zeroext i1 @_RNvNtNtCs5sEH5CPMdak_3std9panicking11panic_count17is_zero_slow_path() #33
  br i1 %_6.i.i.i52, label %bb26.sink.split, label %bb26.sink.split.sink.split
}

; <std::sys::sync::once_box::OnceBox<std::sys::pal::unix::sync::mutex::Mutex>>::initialize::<<std::sys::sync::mutex::pthread::Mutex>::get::{closure#0}>
; Function Attrs: cold uwtable
define internal fastcc noundef nonnull align 8 ptr @_RINvMNtNtNtCs5sEH5CPMdak_3std3sys4sync8once_boxINtB3_7OnceBoxNtNtNtNtNtB7_3pal4unix4sync5mutex5MutexE10initializeNCNvMNtNtB5_5mutex7pthreadNtB1S_5Mutex3get0ECsg3Flw6CsbJc_10rayon_core(ptr noundef nonnull align 8 captures(none) %self) unnamed_addr #0 personality ptr @rust_eh_personality {
start:
  %x.i = alloca [64 x i8], align 8
  call void @llvm.lifetime.start.p0(i64 64, ptr nonnull %x.i)
  call void @llvm.memcpy.p0.p0.i64(ptr noundef nonnull align 8 dereferenceable(64) %x.i, ptr noundef nonnull align 8 dereferenceable(64) @anon.596c7227ed062dde30e4506a5898e3a6.0, i64 64, i1 false)
; call __rustc::__rust_no_alloc_shim_is_unstable_v2
  tail call void @_RNvCsKhRCbHf33p_7___rustc35___rust_no_alloc_shim_is_unstable_v2() #38, !noalias !26
; call __rustc::__rust_alloc
  %0 = tail call noundef align 8 dereferenceable_or_null(64) ptr @_RNvCsKhRCbHf33p_7___rustc12___rust_alloc(i64 noundef 64, i64 noundef range(i64 1, -9223372036854775807) 8) #38, !noalias !26
  %1 = icmp eq ptr %0, null
  br i1 %1, label %bb2.i.i, label %_RNvMNtCsdJPVW0sQgAG_5alloc5boxedINtB2_3BoxNtNtNtNtNtNtCs5sEH5CPMdak_3std3sys3pal4unix4sync5mutex5MutexE3newCsg3Flw6CsbJc_10rayon_core.exit.i, !prof !6

bb2.i.i:                                          ; preds = %start
; invoke alloc::alloc::handle_alloc_error
  invoke void @_RNvNtCsdJPVW0sQgAG_5alloc5alloc18handle_alloc_error(i64 noundef 8, i64 noundef 64) #34
          to label %.noexc.i unwind label %cleanup.i.i

.noexc.i:                                         ; preds = %bb2.i.i
  unreachable

cleanup.i.i:                                      ; preds = %bb2.i.i
  %2 = landingpad { ptr, i32 }
          cleanup
; invoke <std::sys::pal::unix::sync::mutex::Mutex as core::ops::drop::Drop>::drop
  invoke void @_RNvXs2_NtNtNtNtNtCs5sEH5CPMdak_3std3sys3pal4unix4sync5mutexNtB5_5MutexNtNtNtCsjMrxcFdYDNN_4core3ops4drop4Drop4drop(ptr noundef nonnull align 8 dereferenceable(64) %x.i)
          to label %common.resume unwind label %terminate.i.i

terminate.i.i:                                    ; preds = %cleanup.i.i
  %3 = landingpad { ptr, i32 }
          filter [0 x ptr] zeroinitializer
; call core::panicking::panic_in_cleanup
  call void @_RNvNtCsjMrxcFdYDNN_4core9panicking16panic_in_cleanup() #36
  unreachable

common.resume:                                    ; preds = %cleanup.i.i, %cleanup.i, %bb1.i
  %common.resume.op = phi { ptr, i32 } [ %9, %bb1.i ], [ %2, %cleanup.i.i ], [ %4, %cleanup.i ]
  resume { ptr, i32 } %common.resume.op

_RNvMNtCsdJPVW0sQgAG_5alloc5boxedINtB2_3BoxNtNtNtNtNtNtCs5sEH5CPMdak_3std3sys3pal4unix4sync5mutex5MutexE3newCsg3Flw6CsbJc_10rayon_core.exit.i: ; preds = %start
  tail call void @llvm.memcpy.p0.p0.i64(ptr noundef nonnull align 8 dereferenceable(64) %0, ptr noundef nonnull align 8 dereferenceable(64) @anon.596c7227ed062dde30e4506a5898e3a6.0, i64 64, i1 false)
  call void @llvm.lifetime.end.p0(i64 64, ptr nonnull %x.i)
; invoke <std::sys::pal::unix::sync::mutex::Mutex>::init
  invoke void @_RNvMNtNtNtNtNtCs5sEH5CPMdak_3std3sys3pal4unix4sync5mutexNtB2_5Mutex4init(ptr noundef nonnull align 8 %0)
          to label %_RNCNvMNtNtNtNtCs5sEH5CPMdak_3std3sys4sync5mutex7pthreadNtB4_5Mutex3get0Csg3Flw6CsbJc_10rayon_core.exit unwind label %cleanup.i

cleanup.i:                                        ; preds = %_RNvMNtCsdJPVW0sQgAG_5alloc5boxedINtB2_3BoxNtNtNtNtNtNtCs5sEH5CPMdak_3std3sys3pal4unix4sync5mutex5MutexE3newCsg3Flw6CsbJc_10rayon_core.exit.i
  %4 = landingpad { ptr, i32 }
          cleanup
; invoke core::ptr::drop_in_place::<core::pin::Pin<alloc::boxed::Box<std::sys::pal::unix::sync::mutex::Mutex>>>
  invoke fastcc void @_RINvNtCsjMrxcFdYDNN_4core3ptr13drop_in_placeINtNtB4_3pin3PinINtNtCsdJPVW0sQgAG_5alloc5boxed3BoxNtNtNtNtNtNtCs5sEH5CPMdak_3std3sys3pal4unix4sync5mutex5MutexEEECsg3Flw6CsbJc_10rayon_core(ptr %0) #35
          to label %common.resume unwind label %terminate.i

terminate.i:                                      ; preds = %cleanup.i
  %5 = landingpad { ptr, i32 }
          filter [0 x ptr] zeroinitializer
; call core::panicking::panic_in_cleanup
  tail call void @_RNvNtCsjMrxcFdYDNN_4core9panicking16panic_in_cleanup() #36
  unreachable

_RNCNvMNtNtNtNtCs5sEH5CPMdak_3std3sys4sync5mutex7pthreadNtB4_5Mutex3get0Csg3Flw6CsbJc_10rayon_core.exit: ; preds = %_RNvMNtCsdJPVW0sQgAG_5alloc5boxedINtB2_3BoxNtNtNtNtNtNtCs5sEH5CPMdak_3std3sys3pal4unix4sync5mutex5MutexE3newCsg3Flw6CsbJc_10rayon_core.exit.i
  %6 = cmpxchg ptr %self, ptr null, ptr %0 release acquire, align 8
  %7 = extractvalue { ptr, i1 } %6, 1
  %8 = extractvalue { ptr, i1 } %6, 0
  br i1 %7, label %bb5, label %bb3

bb3:                                              ; preds = %_RNCNvMNtNtNtNtCs5sEH5CPMdak_3std3sys4sync5mutex7pthreadNtB4_5Mutex3get0Csg3Flw6CsbJc_10rayon_core.exit
; invoke <std::sys::pal::unix::sync::mutex::Mutex as core::ops::drop::Drop>::drop
  invoke void @_RNvXs2_NtNtNtNtNtCs5sEH5CPMdak_3std3sys3pal4unix4sync5mutexNtB5_5MutexNtNtNtCsjMrxcFdYDNN_4core3ops4drop4Drop4drop(ptr noundef nonnull align 8 %0)
          to label %_RINvNtCsjMrxcFdYDNN_4core3ptr13drop_in_placeINtNtCsdJPVW0sQgAG_5alloc5boxed3BoxNtNtNtNtNtNtCs5sEH5CPMdak_3std3sys3pal4unix4sync5mutex5MutexEECsg3Flw6CsbJc_10rayon_core.exit unwind label %bb1.i

bb1.i:                                            ; preds = %bb3
  %9 = landingpad { ptr, i32 }
          cleanup
; call __rustc::__rust_dealloc
  tail call void @_RNvCsKhRCbHf33p_7___rustc14___rust_dealloc(ptr noundef nonnull %0, i64 noundef 64, i64 noundef 8) #38
  br label %common.resume

_RINvNtCsjMrxcFdYDNN_4core3ptr13drop_in_placeINtNtCsdJPVW0sQgAG_5alloc5boxed3BoxNtNtNtNtNtNtCs5sEH5CPMdak_3std3sys3pal4unix4sync5mutex5MutexEECsg3Flw6CsbJc_10rayon_core.exit: ; preds = %bb3
; call __rustc::__rust_dealloc
  tail call void @_RNvCsKhRCbHf33p_7___rustc14___rust_dealloc(ptr noundef nonnull %0, i64 noundef 64, i64 noundef 8) #38
  br label %bb5

bb5:                                              ; preds = %_RNCNvMNtNtNtNtCs5sEH5CPMdak_3std3sys4sync5mutex7pthreadNtB4_5Mutex3get0Csg3Flw6CsbJc_10rayon_core.exit, %_RINvNtCsjMrxcFdYDNN_4core3ptr13drop_in_placeINtNtCsdJPVW0sQgAG_5alloc5boxed3BoxNtNtNtNtNtNtCs5sEH5CPMdak_3std3sys3pal4unix4sync5mutex5MutexEECsg3Flw6CsbJc_10rayon_core.exit
  %_0.sroa.0.0 = phi ptr [ %8, %_RINvNtCsjMrxcFdYDNN_4core3ptr13drop_in_placeINtNtCsdJPVW0sQgAG_5alloc5boxed3BoxNtNtNtNtNtNtCs5sEH5CPMdak_3std3sys3pal4unix4sync5mutex5MutexEECsg3Flw6CsbJc_10rayon_core.exit ], [ %0, %_RNCNvMNtNtNtNtCs5sEH5CPMdak_3std3sys4sync5mutex7pthreadNtB4_5Mutex3get0Csg3Flw6CsbJc_10rayon_core.exit ]
  %10 = icmp ne ptr %_0.sroa.0.0, null
  tail call void @llvm.assume(i1 %10)
  ret ptr %_0.sroa.0.0
}

; <std::sys::sync::once_box::OnceBox<std::sys::pal::unix::sync::condvar::Condvar>>::initialize::<<std::sys::sync::condvar::pthread::Condvar>::get::{closure#0}>
; Function Attrs: cold uwtable
define internal fastcc noundef nonnull align 8 ptr @_RINvMNtNtNtCs5sEH5CPMdak_3std3sys4sync8once_boxINtB3_7OnceBoxNtNtNtNtNtB7_3pal4unix4sync7condvar7CondvarE10initializeNCNvMNtNtB5_7condvar7pthreadNtB1W_7Condvar3get0ECsg3Flw6CsbJc_10rayon_core(ptr noundef nonnull align 8 captures(none) %self) unnamed_addr #0 personality ptr @rust_eh_personality {
start:
  %x.i = alloca [48 x i8], align 8
  call void @llvm.lifetime.start.p0(i64 48, ptr nonnull %x.i)
  call void @llvm.memcpy.p0.p0.i64(ptr noundef nonnull align 8 dereferenceable(48) %x.i, ptr noundef nonnull align 8 dereferenceable(48) @anon.596c7227ed062dde30e4506a5898e3a6.1, i64 48, i1 false)
; call __rustc::__rust_no_alloc_shim_is_unstable_v2
  tail call void @_RNvCsKhRCbHf33p_7___rustc35___rust_no_alloc_shim_is_unstable_v2() #38, !noalias !29
; call __rustc::__rust_alloc
  %0 = tail call noundef align 8 dereferenceable_or_null(48) ptr @_RNvCsKhRCbHf33p_7___rustc12___rust_alloc(i64 noundef 48, i64 noundef range(i64 1, -9223372036854775807) 8) #38, !noalias !29
  %1 = icmp eq ptr %0, null
  br i1 %1, label %bb2.i.i, label %_RNCNvMNtNtNtNtCs5sEH5CPMdak_3std3sys4sync7condvar7pthreadNtB4_7Condvar3get0Csg3Flw6CsbJc_10rayon_core.exit, !prof !6

bb2.i.i:                                          ; preds = %start
; invoke alloc::alloc::handle_alloc_error
  invoke void @_RNvNtCsdJPVW0sQgAG_5alloc5alloc18handle_alloc_error(i64 noundef 8, i64 noundef 48) #34
          to label %.noexc.i unwind label %bb3.i.i

.noexc.i:                                         ; preds = %bb2.i.i
  unreachable

bb3.i.i:                                          ; preds = %bb2.i.i
  %2 = landingpad { ptr, i32 }
          cleanup
  %r.i.i.i = call noundef i32 @pthread_cond_destroy(ptr noundef nonnull align 8 dereferenceable(48) %x.i) #38
  resume { ptr, i32 } %2

_RNCNvMNtNtNtNtCs5sEH5CPMdak_3std3sys4sync7condvar7pthreadNtB4_7Condvar3get0Csg3Flw6CsbJc_10rayon_core.exit: ; preds = %start
  tail call void @llvm.memcpy.p0.p0.i64(ptr noundef nonnull align 8 dereferenceable(48) %0, ptr noundef nonnull align 8 dereferenceable(48) @anon.596c7227ed062dde30e4506a5898e3a6.1, i64 48, i1 false)
  call void @llvm.lifetime.end.p0(i64 48, ptr nonnull %x.i)
  %3 = cmpxchg ptr %self, ptr null, ptr %0 release acquire, align 8
  %4 = extractvalue { ptr, i1 } %3, 1
  br i1 %4, label %bb5, label %bb3

bb3:                                              ; preds = %_RNCNvMNtNtNtNtCs5sEH5CPMdak_3std3sys4sync7condvar7pthreadNtB4_7Condvar3get0Csg3Flw6CsbJc_10rayon_core.exit
  %5 = extractvalue { ptr, i1 } %3, 0
  %r.i.i.i1 = tail call noundef i32 @pthread_cond_destroy(ptr noundef nonnull align 8 %0) #38
; call __rustc::__rust_dealloc
  tail call void @_RNvCsKhRCbHf33p_7___rustc14___rust_dealloc(ptr noundef nonnull %0, i64 noundef 48, i64 noundef 8) #38
  br label %bb5

bb5:                                              ; preds = %_RNCNvMNtNtNtNtCs5sEH5CPMdak_3std3sys4sync7condvar7pthreadNtB4_7Condvar3get0Csg3Flw6CsbJc_10rayon_core.exit, %bb3
  %_0.sroa.0.0 = phi ptr [ %5, %bb3 ], [ %0, %_RNCNvMNtNtNtNtCs5sEH5CPMdak_3std3sys4sync7condvar7pthreadNtB4_7Condvar3get0Csg3Flw6CsbJc_10rayon_core.exit ]
  %6 = icmp ne ptr %_0.sroa.0.0, null
  tail call void @llvm.assume(i1 %6)
  ret ptr %_0.sroa.0.0
}

; <std::sys::thread_local::native::lazy::Storage<crossbeam_epoch::collector::LocalHandle, ()>>::get_or_init_slow::<crossbeam_epoch::default::HANDLE::__rust_std_internal_init_fn>
; Function Attrs: cold uwtable
define internal fastcc noundef ptr @_RINvMs0_NtNtNtNtCs5sEH5CPMdak_3std3sys12thread_local6native4lazyINtB6_7StorageNtNtCshWjyrkxAz4b_15crossbeam_epoch9collector11LocalHandleuE16get_or_init_slowNvNvNtB1i_7default6HANDLE27___rust_std_internal_init_fnECsg3Flw6CsbJc_10rayon_core(ptr noundef nonnull align 8 %self, ptr noalias noundef align 8 captures(address_is_null) dereferenceable_or_null(16) %0) unnamed_addr #0 {
start:
  %_26 = getelementptr inbounds nuw i8, ptr %self, i64 8
  %_4 = load i8, ptr %_26, align 8, !range !32, !noundef !2
  switch i8 %_4, label %default.unreachable4 [
    i8 0, label %bb4
    i8 1, label %bb10
    i8 2, label %bb2
  ]

default.unreachable4:                             ; preds = %bb13, %start
  unreachable

bb4:                                              ; preds = %start
  %.not = icmp eq ptr %0, null
  br i1 %.not, label %bb13, label %bb12

bb2:                                              ; preds = %start
  br label %bb10

bb12:                                             ; preds = %bb4
  %1 = load i64, ptr %0, align 8, !range !33, !noundef !2
  %2 = getelementptr inbounds nuw i8, ptr %0, i64 8
  %3 = load ptr, ptr %2, align 8
  store i64 0, ptr %0, align 8
  %4 = trunc nuw i64 %1 to i1
  br i1 %4, label %bb13.thread, label %bb13

bb13.thread:                                      ; preds = %bb12
  store ptr %3, ptr %self, align 8
  store i8 1, ptr %_26, align 8
  br label %bb7

bb13:                                             ; preds = %bb12, %bb4
; call crossbeam_epoch::default::collector
  %_1.i.i = tail call noundef nonnull align 8 ptr @_RNvNtCshWjyrkxAz4b_15crossbeam_epoch7default9collector()
; call <crossbeam_epoch::collector::Collector>::register
  %_0.i.i = tail call noundef ptr @_RNvMs1_NtCshWjyrkxAz4b_15crossbeam_epoch9collectorNtB5_9Collector8register(ptr noalias noundef nonnull readonly align 8 captures(address, read_provenance) dereferenceable(8) %_1.i.i)
  %_17.pre = load i8, ptr %_26, align 8, !range !32
  %5 = load ptr, ptr %self, align 8
  store ptr %_0.i.i, ptr %self, align 8
  store i8 1, ptr %_26, align 8
  switch i8 %_17.pre, label %default.unreachable4 [
    i8 0, label %bb7
    i8 1, label %bb6
    i8 2, label %bb5
  ], !prof !34

bb7:                                              ; preds = %bb13.thread, %bb13
; call std::sys::thread_local::destructors::list::register
  tail call void @_RNvNtNtNtNtCs5sEH5CPMdak_3std3sys12thread_local11destructors4list8register(ptr noundef nonnull align 8 %self, ptr noundef nonnull @_RINvNtNtNtNtCs5sEH5CPMdak_3std3sys12thread_local6native4lazy7destroyNtNtCshWjyrkxAz4b_15crossbeam_epoch9collector11LocalHandleECsg3Flw6CsbJc_10rayon_core)
  br label %bb10

bb6:                                              ; preds = %bb13
  %_7.i.i.i = getelementptr inbounds nuw i8, ptr %5, i64 2072
  %guard_count.i.i.i = load i64, ptr %_7.i.i.i, align 8, !noundef !2
  %_9.i.i.i = getelementptr inbounds nuw i8, ptr %5, i64 2080
  %handle_count.i.i.i = load i64, ptr %_9.i.i.i, align 8, !noundef !2
  %_4.i.i.i = add i64 %handle_count.i.i.i, -1
  store i64 %_4.i.i.i, ptr %_9.i.i.i, align 8
  %6 = icmp eq i64 %guard_count.i.i.i, 0
  %7 = icmp eq i64 %handle_count.i.i.i, 1
  %or.cond.i.i.i = and i1 %6, %7
  br i1 %or.cond.i.i.i, label %bb2.i.i.i, label %bb10, !prof !35

bb2.i.i.i:                                        ; preds = %bb6
; call <crossbeam_epoch::internal::Local>::finalize
  tail call void @_RNvMs6_NtCshWjyrkxAz4b_15crossbeam_epoch8internalNtB5_5Local8finalize(ptr noundef nonnull align 128 %5)
  br label %bb10

bb5:                                              ; preds = %bb13
; call core::panicking::panic
  tail call void @_RNvNtCsjMrxcFdYDNN_4core9panicking5panic(ptr noalias noundef nonnull readonly align 1 captures(address, read_provenance) @alloc_a500d906b91607583596fa15e63c2ada, i64 noundef 40, ptr noalias noundef readonly align 8 captures(address, read_provenance) dereferenceable(24) @alloc_7db782098d0a734a33f632a1b2637c91) #37
  unreachable

bb10:                                             ; preds = %bb7, %bb6, %bb2.i.i.i, %start, %bb2
  %_0.sroa.0.0 = phi ptr [ null, %bb2 ], [ %self, %start ], [ %self, %bb2.i.i.i ], [ %self, %bb6 ], [ %self, %bb7 ]
  ret ptr %_0.sroa.0.0
}

; <rayon_core::registry::Registry>::new::<rayon_core::registry::DefaultSpawn>
; Function Attrs: uwtable
define internal fastcc void @_RINvMs4_NtCsg3Flw6CsbJc_10rayon_core8registryNtB6_8Registry3newNtB6_12DefaultSpawnEB8_(ptr dead_on_unwind noalias noundef nonnull writable writeonly align 8 captures(none) dereferenceable(16) %_0, ptr dead_on_return noalias noundef nonnull align 8 captures(none) dereferenceable(96) %builder) unnamed_addr #1 personality ptr @rust_eh_personality {
start:
  %x.i.i.i = alloca [32 x i8], align 8
  %_7.sroa.6.i.i.i.i.i.i.i.i = alloca [22 x i8], align 2
  %_7.sroa.6.i.i.i.i.i.i.i = alloca [32 x i8], align 2
  %_7.sroa.7.i.i.i.i.i.i.i = alloca [30 x i8], align 2
  %worker.i.i.i.i.i.i.i = alloca [32 x i8], align 8
  %_5.sroa.0.i.i.i.i.i.i = alloca [32 x i8], align 8
  %unzipped.i48 = alloca [48 x i8], align 8
  %_22.i.i.i = alloca [384 x i8], align 128
  %worker.i.i = alloca [32 x i8], align 8
  %_7.i.i.i.i.i.sroa.0.i = alloca [32 x i8], align 8
  %unzipped.i = alloca [48 x i8], align 8
  %_13.i = alloca [32 x i8], align 8
  %_7.i = alloca [32 x i8], align 8
  %_99 = alloca [640 x i8], align 128
  %_54 = alloca [384 x i8], align 128
  %_44 = alloca [24 x i8], align 8
  %thread = alloca [104 x i8], align 8
  %stealer = alloca [16 x i8], align 8
  %worker = alloca [32 x i8], align 8
  %iter = alloca [88 x i8], align 8
  %_24.sroa.5 = alloca [31 x i8], align 1
  %_22 = alloca [32 x i8], align 8
  %_19 = alloca [24 x i8], align 8
  %registry = alloca [8 x i8], align 8
  %_15 = alloca [48 x i8], align 8
  %broadcast_stealers = alloca [24 x i8], align 8
  %broadcasts = alloca [24 x i8], align 8
  %_8 = alloca [48 x i8], align 8
  %stealers = alloca [24 x i8], align 8
  %workers = alloca [24 x i8], align 8
  %0 = getelementptr inbounds nuw i8, ptr %builder, i64 16
  %builder.val = load i64, ptr %0, align 8, !noundef !2
  %_2.not.i = icmp eq i64 %builder.val, 0
  br i1 %_2.not.i, label %bb2.i, label %bb2

bb2.i:                                            ; preds = %start
  call void @llvm.lifetime.start.p0(i64 32, ptr nonnull %_7.i)
; invoke std::env::_var
  invoke void @_RNvNtCs5sEH5CPMdak_3std3env4__var(ptr noalias noundef nonnull sret([32 x i8]) align 8 captures(none) dereferenceable(32) %_7.i, ptr noalias noundef nonnull readonly align 1 captures(address, read_provenance) @alloc_5e3d6fdf9d2eef3c5d54ca19a3d4f6e0, i64 noundef 17)
          to label %.noexc unwind label %cleanup

.noexc:                                           ; preds = %bb2.i
  %_17.i = load i64, ptr %_7.i, align 8, !range !33, !noundef !2
  %1 = trunc nuw i64 %_17.i to i1
  br i1 %1, label %bb3.i.i, label %bb22.i

bb3.i.i:                                          ; preds = %.noexc
  tail call void @llvm.experimental.noalias.scope.decl(metadata !36)
  %2 = getelementptr inbounds nuw i8, ptr %_7.i, i64 8
  %.val.i.i = load i64, ptr %2, align 8, !range !39, !alias.scope !36, !noundef !2
  switch i64 %.val.i.i, label %bb1.sink.split.i.i [
    i64 -9223372036854775808, label %bb22.thread.i
    i64 0, label %bb22.thread.i
  ]

bb1.sink.split.i.i:                               ; preds = %bb3.i.i
  %3 = getelementptr inbounds nuw i8, ptr %_7.i, i64 16
  %.val1.i.i = load ptr, ptr %3, align 8, !alias.scope !36, !nonnull !2, !noundef !2
; call __rustc::__rust_dealloc
  tail call void @_RNvCsKhRCbHf33p_7___rustc14___rust_dealloc(ptr noundef nonnull %.val1.i.i, i64 noundef %.val.i.i, i64 noundef range(i64 1, -9223372036854775807) 1) #38, !noalias !36
  br label %bb22.thread.i

bb22.thread.i:                                    ; preds = %bb1.sink.split.i.i, %bb3.i.i, %bb3.i.i
  call void @llvm.lifetime.end.p0(i64 32, ptr nonnull %_7.i)
  br label %bb4.i

bb22.i:                                           ; preds = %.noexc
  %4 = getelementptr inbounds nuw i8, ptr %_7.i, i64 8
  %_18.sroa.0.0.copyload.i = load i64, ptr %4, align 8
  %_18.sroa.4.0..sroa_idx.i = getelementptr inbounds nuw i8, ptr %_7.i, i64 16
  %_18.sroa.4.sroa.0.0.copyload.i = load ptr, ptr %_18.sroa.4.0..sroa_idx.i, align 8
  %_18.sroa.4.sroa.4.0._18.sroa.4.0..sroa_idx.sroa_idx.i = getelementptr inbounds nuw i8, ptr %_7.i, i64 24
  %_18.sroa.4.sroa.4.0.copyload.i = load i64, ptr %_18.sroa.4.sroa.4.0._18.sroa.4.0..sroa_idx.sroa_idx.i, align 8
  call void @llvm.lifetime.end.p0(i64 32, ptr nonnull %_7.i)
  %.not.i = icmp eq i64 %_18.sroa.0.0.copyload.i, -9223372036854775808
  br i1 %.not.i, label %bb4.i, label %bb26.i

bb26.i:                                           ; preds = %bb22.i
  %5 = icmp ne ptr %_18.sroa.4.sroa.0.0.copyload.i, null
  tail call void @llvm.assume(i1 %5)
  switch i64 %_18.sroa.4.sroa.4.0.copyload.i, label %bb9thread-pre-split.i.i.i [
    i64 0, label %bb4.i.i
    i64 1, label %bb7.i.i.i
  ]

bb7.i.i.i:                                        ; preds = %bb26.i
  %6 = load i8, ptr %_18.sroa.4.sroa.0.0.copyload.i, align 1, !alias.scope !40, !noalias !43, !noundef !2
  switch i8 %6, label %bb9.i.i.i [
    i8 43, label %bb4.i.i
    i8 45, label %bb4.i.i
  ]

bb9thread-pre-split.i.i.i:                        ; preds = %bb26.i
  %.pr.i.i.i = load i8, ptr %_18.sroa.4.sroa.0.0.copyload.i, align 1, !alias.scope !40, !noalias !43
  br label %bb9.i.i.i

bb9.i.i.i:                                        ; preds = %bb9thread-pre-split.i.i.i, %bb7.i.i.i
  %7 = phi i8 [ %.pr.i.i.i, %bb9thread-pre-split.i.i.i ], [ %6, %bb7.i.i.i ]
  %cond.i.i.i = icmp eq i8 %7, 43
  %rest.1.i.i.i = sext i1 %cond.i.i.i to i64
  %src.sroa.15.0.i.i.i = add nsw i64 %_18.sroa.4.sroa.4.0.copyload.i, %rest.1.i.i.i
  %src.sroa.0.0.idx.i.i.i = zext i1 %cond.i.i.i to i64
  %src.sroa.0.0.i.i.i = getelementptr inbounds nuw i8, ptr %_18.sroa.4.sroa.0.0.copyload.i, i64 %src.sroa.0.0.idx.i.i.i
  %_10.i.i.i = icmp samesign ult i64 %src.sroa.15.0.i.i.i, 17
  br i1 %_10.i.i.i, label %bb15.preheader.i.i.i, label %bb22.i.i.i

bb15.preheader.i.i.i:                             ; preds = %bb9.i.i.i
  %_13.not56.i.i.i = icmp eq i64 %src.sroa.15.0.i.i.i, 0
  br i1 %_13.not56.i.i.i, label %bb4.i.i, label %bb16.i.i.i

bb22.i.i.i:                                       ; preds = %bb9.i.i.i, %bb33.i.i.i
  %result.sroa.0.0.i.i.i = phi i64 [ %_66.0.i.i.i, %bb33.i.i.i ], [ 0, %bb9.i.i.i ]
  %src.sroa.15.1.i.i.i = phi i64 [ %rest.12.i.i.i, %bb33.i.i.i ], [ %src.sroa.15.0.i.i.i, %bb9.i.i.i ]
  %src.sroa.0.1.i.i.i = phi ptr [ %rest.01.i.i.i, %bb33.i.i.i ], [ %src.sroa.0.0.i.i.i, %bb9.i.i.i ]
  %_30.not.i.not.i.i = icmp eq i64 %src.sroa.15.1.i.i.i, 0
  br i1 %_30.not.i.not.i.i, label %bb4.i.i, label %bb23.i.i.i

bb23.i.i.i:                                       ; preds = %bb22.i.i.i
  %8 = tail call { i64, i1 } @llvm.umul.with.overflow.i64(i64 %result.sroa.0.0.i.i.i, i64 10)
  %_60.1.i.i.i = extractvalue { i64, i1 } %8, 1
  br i1 %_60.1.i.i.i, label %bb4.i.i, label %bb33.i.i.i, !prof !6

bb33.i.i.i:                                       ; preds = %bb23.i.i.i
  %_60.0.i.i.i = extractvalue { i64, i1 } %8, 0
  %rest.12.i.i.i = add nsw i64 %src.sroa.15.1.i.i.i, -1
  %rest.01.i.i.i = getelementptr inbounds nuw i8, ptr %src.sroa.0.1.i.i.i, i64 1
  %9 = load i8, ptr %src.sroa.0.1.i.i.i, align 1, !alias.scope !40, !noalias !43, !noundef !2
  %10 = zext i8 %9 to i32
  %11 = add nsw i32 %10, -48
  %_14.i.i.i.i = icmp ugt i32 %11, 9
  %12 = zext nneg i32 %11 to i64
  %_66.0.i.i.i = add i64 %_60.0.i.i.i, %12
  %_66.1.i.i.i = icmp ult i64 %_66.0.i.i.i, %_60.0.i.i.i
  %or.cond.i.i = select i1 %_14.i.i.i.i, i1 true, i1 %_66.1.i.i.i
  br i1 %or.cond.i.i, label %bb4.i.i, label %bb22.i.i.i, !prof !47

bb16.i.i.i:                                       ; preds = %bb15.preheader.i.i.i, %bb20.i.i.i
  %src.sroa.0.259.i.i.i = phi ptr [ %rest.05.i.i.i, %bb20.i.i.i ], [ %src.sroa.0.0.i.i.i, %bb15.preheader.i.i.i ]
  %src.sroa.15.258.i.i.i = phi i64 [ %rest.16.i.i.i, %bb20.i.i.i ], [ %src.sroa.15.0.i.i.i, %bb15.preheader.i.i.i ]
  %result.sroa.0.257.i.i.i = phi i64 [ %15, %bb20.i.i.i ], [ 0, %bb15.preheader.i.i.i ]
  %_20.i.i.i = load i8, ptr %src.sroa.0.259.i.i.i, align 1, !alias.scope !40, !noalias !43, !noundef !2
  %_19.i.i.i = zext i8 %_20.i.i.i to i32
  %13 = add nsw i32 %_19.i.i.i, -48
  %_14.i46.i.i.i = icmp ult i32 %13, 10
  br i1 %_14.i46.i.i.i, label %bb20.i.i.i, label %bb4.i.i

bb20.i.i.i:                                       ; preds = %bb16.i.i.i
  %14 = mul i64 %result.sroa.0.257.i.i.i, 10
  %rest.16.i.i.i = add nsw i64 %src.sroa.15.258.i.i.i, -1
  %rest.05.i.i.i = getelementptr inbounds nuw i8, ptr %src.sroa.0.259.i.i.i, i64 1
  %_24.i.i.i = zext nneg i32 %13 to i64
  %15 = add i64 %14, %_24.i.i.i
  %_13.not.i.i.i = icmp eq i64 %rest.16.i.i.i, 0
  br i1 %_13.not.i.i.i, label %bb4.i.i, label %bb16.i.i.i

bb4.i.i:                                          ; preds = %bb33.i.i.i, %bb23.i.i.i, %bb22.i.i.i, %bb20.i.i.i, %bb16.i.i.i, %bb15.preheader.i.i.i, %bb7.i.i.i, %bb7.i.i.i, %bb26.i
  %_3.sroa.105.0.i.i = phi i64 [ undef, %bb26.i ], [ undef, %bb7.i.i.i ], [ undef, %bb7.i.i.i ], [ 0, %bb15.preheader.i.i.i ], [ undef, %bb16.i.i.i ], [ %15, %bb20.i.i.i ], [ undef, %bb23.i.i.i ], [ undef, %bb33.i.i.i ], [ %result.sroa.0.0.i.i.i, %bb22.i.i.i ]
  %not..sink.i.off0.i.i = phi i1 [ false, %bb26.i ], [ false, %bb7.i.i.i ], [ false, %bb7.i.i.i ], [ true, %bb15.preheader.i.i.i ], [ %_14.i46.i.i.i, %bb16.i.i.i ], [ %_14.i46.i.i.i, %bb20.i.i.i ], [ %_30.not.i.not.i.i, %bb22.i.i.i ], [ %_30.not.i.not.i.i, %bb23.i.i.i ], [ %_30.not.i.not.i.i, %bb33.i.i.i ]
  %16 = icmp eq i64 %_18.sroa.0.0.copyload.i, 0
  br i1 %16, label %_RNCNvMs2_Csg3Flw6CsbJc_10rayon_coreNtB7_17ThreadPoolBuilder15get_num_threadss_0B7_.exit.i, label %bb2.i.i.i4.i.i2.i.i

bb2.i.i.i4.i.i2.i.i:                              ; preds = %bb4.i.i
; call __rustc::__rust_dealloc
  tail call void @_RNvCsKhRCbHf33p_7___rustc14___rust_dealloc(ptr noundef nonnull %_18.sroa.4.sroa.0.0.copyload.i, i64 noundef %_18.sroa.0.0.copyload.i, i64 noundef range(i64 1, -9223372036854775807) 1) #38, !noalias !48
  br label %_RNCNvMs2_Csg3Flw6CsbJc_10rayon_coreNtB7_17ThreadPoolBuilder15get_num_threadss_0B7_.exit.i

_RNCNvMs2_Csg3Flw6CsbJc_10rayon_coreNtB7_17ThreadPoolBuilder15get_num_threadss_0B7_.exit.i: ; preds = %bb2.i.i.i4.i.i2.i.i, %bb4.i.i
  br i1 %not..sink.i.off0.i.i, label %bb5.i, label %bb4.i

bb4.i:                                            ; preds = %_RNCNvMs2_Csg3Flw6CsbJc_10rayon_coreNtB7_17ThreadPoolBuilder15get_num_threadss_0B7_.exit.i, %bb22.i, %bb22.thread.i
  call void @llvm.lifetime.start.p0(i64 32, ptr nonnull %_13.i)
; invoke std::env::_var
  invoke void @_RNvNtCs5sEH5CPMdak_3std3env4__var(ptr noalias noundef nonnull sret([32 x i8]) align 8 captures(none) dereferenceable(32) %_13.i, ptr noalias noundef nonnull readonly align 1 captures(address, read_provenance) @alloc_c7189d96bb3cf54a18048bb5cebb563d, i64 noundef 17)
          to label %.noexc39 unwind label %cleanup

.noexc39:                                         ; preds = %bb4.i
  %_23.i = load i64, ptr %_13.i, align 8, !range !33, !noundef !2
  %17 = trunc nuw i64 %_23.i to i1
  br i1 %17, label %bb3.i13.i, label %bb30.i

bb5.i:                                            ; preds = %_RNCNvMs2_Csg3Flw6CsbJc_10rayon_coreNtB7_17ThreadPoolBuilder15get_num_threadss_0B7_.exit.i
  %_8.not.i = icmp eq i64 %_3.sroa.105.0.i.i, 0
  br i1 %_8.not.i, label %bb7.i, label %bb2

bb7.i:                                            ; preds = %bb5.i
; invoke std::thread::functions::available_parallelism
  %18 = invoke { i64, ptr } @_RNvNtNtCs5sEH5CPMdak_3std6thread9functions21available_parallelism()
          to label %.noexc40 unwind label %cleanup

.noexc40:                                         ; preds = %bb7.i
  %19 = extractvalue { i64, ptr } %18, 0
  %20 = extractvalue { i64, ptr } %18, 1
  %21 = trunc nuw i64 %19 to i1
  %22 = ptrtoint ptr %20 to i64
  br i1 %21, label %bb2.i.i.i, label %bb2.i11.i

bb2.i11.i:                                        ; preds = %.noexc40
  %23 = icmp ne ptr %20, null
  tail call void @llvm.assume(i1 %23)
  br label %bb2

bb2.i.i.i:                                        ; preds = %.noexc40
  %_5.i.i.i.i.i.i = and i64 %22, 3
  %switch.i.i.i.i.i = icmp eq i64 %_5.i.i.i.i.i.i, 1
  br i1 %switch.i.i.i.i.i, label %bb2.i2.i.i.i.i.i, label %bb2, !prof !51

bb2.i2.i.i.i.i.i:                                 ; preds = %bb2.i.i.i
  %24 = getelementptr i8, ptr %20, i64 -1
  %25 = icmp ne ptr %24, null
  tail call void @llvm.assume(i1 %25)
  %_6.val.i.i.i.i.i.i.i = load ptr, ptr %24, align 8, !noalias !52
  %26 = getelementptr i8, ptr %20, i64 7
  %_6.val1.i.i.i.i.i.i.i = load ptr, ptr %26, align 8, !noalias !52, !nonnull !2, !align !55, !noundef !2
  %27 = load ptr, ptr %_6.val1.i.i.i.i.i.i.i, align 8, !invariant.load !2, !noalias !52
  %.not.i.i.i.i.i.i.i.i.i = icmp eq ptr %27, null
  br i1 %.not.i.i.i.i.i.i.i.i.i, label %bb3.i.i.i.i.i.i.i.i.i, label %is_not_null.i.i.i.i.i.i.i.i.i

is_not_null.i.i.i.i.i.i.i.i.i:                    ; preds = %bb2.i2.i.i.i.i.i
  %28 = icmp ne ptr %_6.val.i.i.i.i.i.i.i, null
  tail call void @llvm.assume(i1 %28)
  invoke void %27(ptr noundef nonnull %_6.val.i.i.i.i.i.i.i)
          to label %bb3.i.i.i.i.i.i.i.i.i unwind label %cleanup.i.i.i.i.i.i.i.i.i, !noalias !52

bb3.i.i.i.i.i.i.i.i.i:                            ; preds = %is_not_null.i.i.i.i.i.i.i.i.i, %bb2.i2.i.i.i.i.i
  %29 = icmp ne ptr %_6.val.i.i.i.i.i.i.i, null
  tail call void @llvm.assume(i1 %29)
  %30 = getelementptr inbounds nuw i8, ptr %_6.val1.i.i.i.i.i.i.i, i64 8
  %31 = load i64, ptr %30, align 8, !range !56, !invariant.load !2, !noalias !52
  %32 = getelementptr inbounds nuw i8, ptr %_6.val1.i.i.i.i.i.i.i, i64 16
  %33 = load i64, ptr %32, align 8, !range !57, !invariant.load !2, !noalias !52
  %34 = add i64 %33, -1
  %35 = icmp sgt i64 %34, -1
  tail call void @llvm.assume(i1 %35)
  %36 = icmp eq i64 %31, 0
  br i1 %36, label %_RINvNtCsjMrxcFdYDNN_4core3ptr13drop_in_placeINtNtCsdJPVW0sQgAG_5alloc5boxed3BoxNtNtNtCs5sEH5CPMdak_3std2io5error6CustomEECsg3Flw6CsbJc_10rayon_core.exit.i.i.i.i.i.i, label %_RNvXs_NtCsdJPVW0sQgAG_5alloc5allocNtB4_6GlobalNtNtCsjMrxcFdYDNN_4core5alloc9Allocator10deallocate.exit.i.i.i.i.i.i.i.i.i.i

_RNvXs_NtCsdJPVW0sQgAG_5alloc5allocNtB4_6GlobalNtNtCsjMrxcFdYDNN_4core5alloc9Allocator10deallocate.exit.i.i.i.i.i.i.i.i.i.i: ; preds = %bb3.i.i.i.i.i.i.i.i.i
; call __rustc::__rust_dealloc
  tail call void @_RNvCsKhRCbHf33p_7___rustc14___rust_dealloc(ptr noundef nonnull %_6.val.i.i.i.i.i.i.i, i64 noundef %31, i64 noundef range(i64 1, -9223372036854775807) %33) #38, !noalias !52
  br label %_RINvNtCsjMrxcFdYDNN_4core3ptr13drop_in_placeINtNtCsdJPVW0sQgAG_5alloc5boxed3BoxNtNtNtCs5sEH5CPMdak_3std2io5error6CustomEECsg3Flw6CsbJc_10rayon_core.exit.i.i.i.i.i.i

cleanup.i.i.i.i.i.i.i.i.i:                        ; preds = %is_not_null.i.i.i.i.i.i.i.i.i
  %37 = landingpad { ptr, i32 }
          cleanup
  %38 = getelementptr inbounds nuw i8, ptr %_6.val1.i.i.i.i.i.i.i, i64 8
  %39 = load i64, ptr %38, align 8, !range !56, !invariant.load !2, !noalias !52
  %40 = getelementptr inbounds nuw i8, ptr %_6.val1.i.i.i.i.i.i.i, i64 16
  %41 = load i64, ptr %40, align 8, !range !57, !invariant.load !2, !noalias !52
  %42 = add i64 %41, -1
  %43 = icmp sgt i64 %42, -1
  tail call void @llvm.assume(i1 %43)
  %44 = icmp eq i64 %39, 0
  br i1 %44, label %common.resume.i, label %_RNvXs_NtCsdJPVW0sQgAG_5alloc5allocNtB4_6GlobalNtNtCsjMrxcFdYDNN_4core5alloc9Allocator10deallocate.exit.i4.i.i.i.i.i.i.i.i.i

_RNvXs_NtCsdJPVW0sQgAG_5alloc5allocNtB4_6GlobalNtNtCsjMrxcFdYDNN_4core5alloc9Allocator10deallocate.exit.i4.i.i.i.i.i.i.i.i.i: ; preds = %cleanup.i.i.i.i.i.i.i.i.i
; call __rustc::__rust_dealloc
  tail call void @_RNvCsKhRCbHf33p_7___rustc14___rust_dealloc(ptr noundef nonnull %_6.val.i.i.i.i.i.i.i, i64 noundef %39, i64 noundef range(i64 1, -9223372036854775807) %41) #38, !noalias !52
  br label %common.resume.i

common.resume.i:                                  ; preds = %_RNvXs_NtCsdJPVW0sQgAG_5alloc5allocNtB4_6GlobalNtNtCsjMrxcFdYDNN_4core5alloc9Allocator10deallocate.exit.i4.i.i.i.i.i.i.i.i81.i, %cleanup.i.i.i.i.i.i.i.i80.i, %_RNvXs_NtCsdJPVW0sQgAG_5alloc5allocNtB4_6GlobalNtNtCsjMrxcFdYDNN_4core5alloc9Allocator10deallocate.exit.i4.i.i.i.i.i.i.i.i.i, %cleanup.i.i.i.i.i.i.i.i.i
  %.sink.i = phi ptr [ %24, %_RNvXs_NtCsdJPVW0sQgAG_5alloc5allocNtB4_6GlobalNtNtCsjMrxcFdYDNN_4core5alloc9Allocator10deallocate.exit.i4.i.i.i.i.i.i.i.i.i ], [ %24, %cleanup.i.i.i.i.i.i.i.i.i ], [ %66, %_RNvXs_NtCsdJPVW0sQgAG_5alloc5allocNtB4_6GlobalNtNtCsjMrxcFdYDNN_4core5alloc9Allocator10deallocate.exit.i4.i.i.i.i.i.i.i.i81.i ], [ %66, %cleanup.i.i.i.i.i.i.i.i80.i ]
  %common.resume.op.i = phi { ptr, i32 } [ %37, %_RNvXs_NtCsdJPVW0sQgAG_5alloc5allocNtB4_6GlobalNtNtCsjMrxcFdYDNN_4core5alloc9Allocator10deallocate.exit.i4.i.i.i.i.i.i.i.i.i ], [ %37, %cleanup.i.i.i.i.i.i.i.i.i ], [ %79, %_RNvXs_NtCsdJPVW0sQgAG_5alloc5allocNtB4_6GlobalNtNtCsjMrxcFdYDNN_4core5alloc9Allocator10deallocate.exit.i4.i.i.i.i.i.i.i.i81.i ], [ %79, %cleanup.i.i.i.i.i.i.i.i80.i ]
; call __rustc::__rust_dealloc
  tail call void @_RNvCsKhRCbHf33p_7___rustc14___rust_dealloc(ptr noundef nonnull %.sink.i, i64 noundef 24, i64 noundef 8) #38, !noalias !2
  br label %bb39

_RINvNtCsjMrxcFdYDNN_4core3ptr13drop_in_placeINtNtCsdJPVW0sQgAG_5alloc5boxed3BoxNtNtNtCs5sEH5CPMdak_3std2io5error6CustomEECsg3Flw6CsbJc_10rayon_core.exit.i.i.i.i.i.i: ; preds = %_RNvXs_NtCsdJPVW0sQgAG_5alloc5allocNtB4_6GlobalNtNtCsjMrxcFdYDNN_4core5alloc9Allocator10deallocate.exit.i.i.i.i.i.i.i.i.i.i, %bb3.i.i.i.i.i.i.i.i.i
; call __rustc::__rust_dealloc
  tail call void @_RNvCsKhRCbHf33p_7___rustc14___rust_dealloc(ptr noundef nonnull %24, i64 noundef 24, i64 noundef 8) #38, !noalias !52
  br label %bb2

bb3.i13.i:                                        ; preds = %.noexc39
  tail call void @llvm.experimental.noalias.scope.decl(metadata !58)
  %45 = getelementptr inbounds nuw i8, ptr %_13.i, i64 8
  %.val.i14.i = load i64, ptr %45, align 8, !range !39, !alias.scope !58, !noundef !2
  switch i64 %.val.i14.i, label %bb1.sink.split.i15.i [
    i64 -9223372036854775808, label %bb30.thread.i
    i64 0, label %bb30.thread.i
  ]

bb1.sink.split.i15.i:                             ; preds = %bb3.i13.i
  %46 = getelementptr inbounds nuw i8, ptr %_13.i, i64 16
  %.val1.i17.i = load ptr, ptr %46, align 8, !alias.scope !58, !nonnull !2, !noundef !2
; call __rustc::__rust_dealloc
  tail call void @_RNvCsKhRCbHf33p_7___rustc14___rust_dealloc(ptr noundef nonnull %.val1.i17.i, i64 noundef %.val.i14.i, i64 noundef range(i64 1, -9223372036854775807) 1) #38, !noalias !58
  br label %bb30.thread.i

bb30.thread.i:                                    ; preds = %bb1.sink.split.i15.i, %bb3.i13.i, %bb3.i13.i
  call void @llvm.lifetime.end.p0(i64 32, ptr nonnull %_13.i)
  br label %bb11.i

bb30.i:                                           ; preds = %.noexc39
  %47 = getelementptr inbounds nuw i8, ptr %_13.i, i64 8
  %_24.sroa.0.0.copyload.i = load i64, ptr %47, align 8
  %_24.sroa.4.0..sroa_idx.i = getelementptr inbounds nuw i8, ptr %_13.i, i64 16
  %_24.sroa.4.sroa.0.0.copyload.i = load ptr, ptr %_24.sroa.4.0..sroa_idx.i, align 8
  %_24.sroa.4.sroa.4.0._24.sroa.4.0..sroa_idx.sroa_idx.i = getelementptr inbounds nuw i8, ptr %_13.i, i64 24
  %_24.sroa.4.sroa.4.0.copyload.i = load i64, ptr %_24.sroa.4.sroa.4.0._24.sroa.4.0..sroa_idx.sroa_idx.i, align 8
  call void @llvm.lifetime.end.p0(i64 32, ptr nonnull %_13.i)
  %.not10.i = icmp eq i64 %_24.sroa.0.0.copyload.i, -9223372036854775808
  br i1 %.not10.i, label %bb11.i, label %bb34.i

bb34.i:                                           ; preds = %bb30.i
  %48 = icmp ne ptr %_24.sroa.4.sroa.0.0.copyload.i, null
  tail call void @llvm.assume(i1 %48)
  switch i64 %_24.sroa.4.sroa.4.0.copyload.i, label %bb9thread-pre-split.i.i68.i [
    i64 0, label %bb4.i24.i
    i64 1, label %bb7.i.i23.i
  ]

bb7.i.i23.i:                                      ; preds = %bb34.i
  %49 = load i8, ptr %_24.sroa.4.sroa.0.0.copyload.i, align 1, !alias.scope !61, !noalias !64, !noundef !2
  switch i8 %49, label %bb9.i.i32.i [
    i8 43, label %bb4.i24.i
    i8 45, label %bb4.i24.i
  ]

bb9thread-pre-split.i.i68.i:                      ; preds = %bb34.i
  %.pr.i.i69.i = load i8, ptr %_24.sroa.4.sroa.0.0.copyload.i, align 1, !alias.scope !61, !noalias !64
  br label %bb9.i.i32.i

bb9.i.i32.i:                                      ; preds = %bb9thread-pre-split.i.i68.i, %bb7.i.i23.i
  %50 = phi i8 [ %.pr.i.i69.i, %bb9thread-pre-split.i.i68.i ], [ %49, %bb7.i.i23.i ]
  %cond.i.i33.i = icmp eq i8 %50, 43
  %rest.1.i.i34.i = sext i1 %cond.i.i33.i to i64
  %src.sroa.15.0.i.i35.i = add nsw i64 %_24.sroa.4.sroa.4.0.copyload.i, %rest.1.i.i34.i
  %src.sroa.0.0.idx.i.i36.i = zext i1 %cond.i.i33.i to i64
  %src.sroa.0.0.i.i37.i = getelementptr inbounds nuw i8, ptr %_24.sroa.4.sroa.0.0.copyload.i, i64 %src.sroa.0.0.idx.i.i36.i
  %_10.i.i38.i = icmp samesign ult i64 %src.sroa.15.0.i.i35.i, 17
  br i1 %_10.i.i38.i, label %bb15.preheader.i.i54.i, label %bb22.i.i39.i

bb15.preheader.i.i54.i:                           ; preds = %bb9.i.i32.i
  %_13.not56.i.i55.i = icmp eq i64 %src.sroa.15.0.i.i35.i, 0
  br i1 %_13.not56.i.i55.i, label %bb4.i24.i, label %bb16.i.i56.i

bb22.i.i39.i:                                     ; preds = %bb9.i.i32.i, %bb33.i.i46.i
  %result.sroa.0.0.i.i40.i = phi i64 [ %_66.0.i.i51.i, %bb33.i.i46.i ], [ 0, %bb9.i.i32.i ]
  %src.sroa.15.1.i.i41.i = phi i64 [ %rest.12.i.i48.i, %bb33.i.i46.i ], [ %src.sroa.15.0.i.i35.i, %bb9.i.i32.i ]
  %src.sroa.0.1.i.i42.i = phi ptr [ %rest.01.i.i49.i, %bb33.i.i46.i ], [ %src.sroa.0.0.i.i37.i, %bb9.i.i32.i ]
  %_30.not.i.not.i43.not.i.not.not = icmp ne i64 %src.sroa.15.1.i.i41.i, 0
  br i1 %_30.not.i.not.i43.not.i.not.not, label %bb23.i.i44.i, label %bb4.i24.i

bb23.i.i44.i:                                     ; preds = %bb22.i.i39.i
  %51 = tail call { i64, i1 } @llvm.umul.with.overflow.i64(i64 %result.sroa.0.0.i.i40.i, i64 10)
  %_60.1.i.i45.i = extractvalue { i64, i1 } %51, 1
  br i1 %_60.1.i.i45.i, label %bb4.i24.i, label %bb33.i.i46.i, !prof !6

bb33.i.i46.i:                                     ; preds = %bb23.i.i44.i
  %_60.0.i.i47.i = extractvalue { i64, i1 } %51, 0
  %rest.12.i.i48.i = add nsw i64 %src.sroa.15.1.i.i41.i, -1
  %rest.01.i.i49.i = getelementptr inbounds nuw i8, ptr %src.sroa.0.1.i.i42.i, i64 1
  %52 = load i8, ptr %src.sroa.0.1.i.i42.i, align 1, !alias.scope !61, !noalias !64, !noundef !2
  %53 = zext i8 %52 to i32
  %54 = add nsw i32 %53, -48
  %_14.i.i.i50.i = icmp ugt i32 %54, 9
  %55 = zext nneg i32 %54 to i64
  %_66.0.i.i51.i = add i64 %_60.0.i.i47.i, %55
  %_66.1.i.i52.i = icmp ult i64 %_66.0.i.i51.i, %_60.0.i.i47.i
  %or.cond.i53.i = select i1 %_14.i.i.i50.i, i1 true, i1 %_66.1.i.i52.i
  br i1 %or.cond.i53.i, label %bb4.i24.i, label %bb22.i.i39.i, !prof !47

bb16.i.i56.i:                                     ; preds = %bb15.preheader.i.i54.i, %bb20.i.i63.i
  %src.sroa.0.259.i.i57.i = phi ptr [ %rest.05.i.i65.i, %bb20.i.i63.i ], [ %src.sroa.0.0.i.i37.i, %bb15.preheader.i.i54.i ]
  %src.sroa.15.258.i.i58.i = phi i64 [ %rest.16.i.i64.i, %bb20.i.i63.i ], [ %src.sroa.15.0.i.i35.i, %bb15.preheader.i.i54.i ]
  %result.sroa.0.257.i.i59.i = phi i64 [ %58, %bb20.i.i63.i ], [ 0, %bb15.preheader.i.i54.i ]
  %_20.i.i60.i = load i8, ptr %src.sroa.0.259.i.i57.i, align 1, !alias.scope !61, !noalias !64, !noundef !2
  %_19.i.i61.i = zext i8 %_20.i.i60.i to i32
  %56 = add nsw i32 %_19.i.i61.i, -48
  %_14.i46.i.i62.i = icmp ugt i32 %56, 9
  br i1 %_14.i46.i.i62.i, label %bb4.i24.i, label %bb20.i.i63.i

bb20.i.i63.i:                                     ; preds = %bb16.i.i56.i
  %57 = mul i64 %result.sroa.0.257.i.i59.i, 10
  %rest.16.i.i64.i = add nsw i64 %src.sroa.15.258.i.i58.i, -1
  %rest.05.i.i65.i = getelementptr inbounds nuw i8, ptr %src.sroa.0.259.i.i57.i, i64 1
  %_24.i.i66.i = zext nneg i32 %56 to i64
  %58 = add i64 %57, %_24.i.i66.i
  %_13.not.i.i67.i = icmp eq i64 %rest.16.i.i64.i, 0
  br i1 %_13.not.i.i67.i, label %bb4.i24.i, label %bb16.i.i56.i

bb4.i24.i:                                        ; preds = %bb33.i.i46.i, %bb23.i.i44.i, %bb22.i.i39.i, %bb20.i.i63.i, %bb16.i.i56.i, %bb15.preheader.i.i54.i, %bb7.i.i23.i, %bb7.i.i23.i, %bb34.i
  %_3.sroa.105.0.i25.i = phi i64 [ undef, %bb34.i ], [ undef, %bb7.i.i23.i ], [ undef, %bb7.i.i23.i ], [ 0, %bb15.preheader.i.i54.i ], [ undef, %bb16.i.i56.i ], [ %58, %bb20.i.i63.i ], [ undef, %bb23.i.i44.i ], [ undef, %bb33.i.i46.i ], [ %result.sroa.0.0.i.i40.i, %bb22.i.i39.i ]
  %.sink.i.off0.i26.i = phi i1 [ true, %bb34.i ], [ true, %bb7.i.i23.i ], [ true, %bb7.i.i23.i ], [ false, %bb15.preheader.i.i54.i ], [ %_14.i46.i.i62.i, %bb16.i.i56.i ], [ %_14.i46.i.i62.i, %bb20.i.i63.i ], [ %_30.not.i.not.i43.not.i.not.not, %bb22.i.i39.i ], [ %_30.not.i.not.i43.not.i.not.not, %bb23.i.i44.i ], [ %_30.not.i.not.i43.not.i.not.not, %bb33.i.i46.i ]
  %59 = icmp eq i64 %_24.sroa.0.0.copyload.i, 0
  br i1 %59, label %_RNCNvMs2_Csg3Flw6CsbJc_10rayon_coreNtB7_17ThreadPoolBuilder15get_num_threadss0_0B7_.exit.i, label %bb2.i.i.i4.i.i2.i28.i

bb2.i.i.i4.i.i2.i28.i:                            ; preds = %bb4.i24.i
; call __rustc::__rust_dealloc
  tail call void @_RNvCsKhRCbHf33p_7___rustc14___rust_dealloc(ptr noundef nonnull %_24.sroa.4.sroa.0.0.copyload.i, i64 noundef %_24.sroa.0.0.copyload.i, i64 noundef range(i64 1, -9223372036854775807) 1) #38, !noalias !68
  br label %_RNCNvMs2_Csg3Flw6CsbJc_10rayon_coreNtB7_17ThreadPoolBuilder15get_num_threadss0_0B7_.exit.i

_RNCNvMs2_Csg3Flw6CsbJc_10rayon_coreNtB7_17ThreadPoolBuilder15get_num_threadss0_0B7_.exit.i: ; preds = %bb2.i.i.i4.i.i2.i28.i, %bb4.i24.i
  %_0.sroa.3.0.i31.i = select i1 %.sink.i.off0.i26.i, i64 undef, i64 %_3.sroa.105.0.i25.i
  %_14.i = icmp eq i64 %_0.sroa.3.0.i31.i, 0
  %or.cond.not.i = select i1 %.sink.i.off0.i26.i, i1 true, i1 %_14.i
  br i1 %or.cond.not.i, label %bb11.i, label %bb2

bb11.i:                                           ; preds = %_RNCNvMs2_Csg3Flw6CsbJc_10rayon_coreNtB7_17ThreadPoolBuilder15get_num_threadss0_0B7_.exit.i, %bb30.i, %bb30.thread.i
; invoke std::thread::functions::available_parallelism
  %60 = invoke { i64, ptr } @_RNvNtNtCs5sEH5CPMdak_3std6thread9functions21available_parallelism()
          to label %.noexc42 unwind label %cleanup

.noexc42:                                         ; preds = %bb11.i
  %61 = extractvalue { i64, ptr } %60, 0
  %62 = extractvalue { i64, ptr } %60, 1
  %63 = trunc nuw i64 %61 to i1
  %64 = ptrtoint ptr %62 to i64
  br i1 %63, label %bb2.i.i72.i, label %bb2.i70.i

bb2.i70.i:                                        ; preds = %.noexc42
  %65 = icmp ne ptr %62, null
  tail call void @llvm.assume(i1 %65)
  br label %bb2

bb2.i.i72.i:                                      ; preds = %.noexc42
  %_5.i.i.i.i.i73.i = and i64 %64, 3
  %switch.i.i.i.i74.i = icmp eq i64 %_5.i.i.i.i.i73.i, 1
  br i1 %switch.i.i.i.i74.i, label %bb2.i2.i.i.i.i75.i, label %bb2, !prof !51

bb2.i2.i.i.i.i75.i:                               ; preds = %bb2.i.i72.i
  %66 = getelementptr i8, ptr %62, i64 -1
  %67 = icmp ne ptr %66, null
  tail call void @llvm.assume(i1 %67)
  %_6.val.i.i.i.i.i.i76.i = load ptr, ptr %66, align 8, !noalias !71
  %68 = getelementptr i8, ptr %62, i64 7
  %_6.val1.i.i.i.i.i.i77.i = load ptr, ptr %68, align 8, !noalias !71, !nonnull !2, !align !55, !noundef !2
  %69 = load ptr, ptr %_6.val1.i.i.i.i.i.i77.i, align 8, !invariant.load !2, !noalias !71
  %.not.i.i.i.i.i.i.i.i78.i = icmp eq ptr %69, null
  br i1 %.not.i.i.i.i.i.i.i.i78.i, label %bb3.i.i.i.i.i.i.i.i83.i, label %is_not_null.i.i.i.i.i.i.i.i79.i

is_not_null.i.i.i.i.i.i.i.i79.i:                  ; preds = %bb2.i2.i.i.i.i75.i
  %70 = icmp ne ptr %_6.val.i.i.i.i.i.i76.i, null
  tail call void @llvm.assume(i1 %70)
  invoke void %69(ptr noundef nonnull %_6.val.i.i.i.i.i.i76.i)
          to label %bb3.i.i.i.i.i.i.i.i83.i unwind label %cleanup.i.i.i.i.i.i.i.i80.i, !noalias !71

bb3.i.i.i.i.i.i.i.i83.i:                          ; preds = %is_not_null.i.i.i.i.i.i.i.i79.i, %bb2.i2.i.i.i.i75.i
  %71 = icmp ne ptr %_6.val.i.i.i.i.i.i76.i, null
  tail call void @llvm.assume(i1 %71)
  %72 = getelementptr inbounds nuw i8, ptr %_6.val1.i.i.i.i.i.i77.i, i64 8
  %73 = load i64, ptr %72, align 8, !range !56, !invariant.load !2, !noalias !71
  %74 = getelementptr inbounds nuw i8, ptr %_6.val1.i.i.i.i.i.i77.i, i64 16
  %75 = load i64, ptr %74, align 8, !range !57, !invariant.load !2, !noalias !71
  %76 = add i64 %75, -1
  %77 = icmp sgt i64 %76, -1
  tail call void @llvm.assume(i1 %77)
  %78 = icmp eq i64 %73, 0
  br i1 %78, label %_RINvNtCsjMrxcFdYDNN_4core3ptr13drop_in_placeINtNtCsdJPVW0sQgAG_5alloc5boxed3BoxNtNtNtCs5sEH5CPMdak_3std2io5error6CustomEECsg3Flw6CsbJc_10rayon_core.exit.i.i.i.i.i85.i, label %_RNvXs_NtCsdJPVW0sQgAG_5alloc5allocNtB4_6GlobalNtNtCsjMrxcFdYDNN_4core5alloc9Allocator10deallocate.exit.i.i.i.i.i.i.i.i.i84.i

_RNvXs_NtCsdJPVW0sQgAG_5alloc5allocNtB4_6GlobalNtNtCsjMrxcFdYDNN_4core5alloc9Allocator10deallocate.exit.i.i.i.i.i.i.i.i.i84.i: ; preds = %bb3.i.i.i.i.i.i.i.i83.i
; call __rustc::__rust_dealloc
  tail call void @_RNvCsKhRCbHf33p_7___rustc14___rust_dealloc(ptr noundef nonnull %_6.val.i.i.i.i.i.i76.i, i64 noundef %73, i64 noundef range(i64 1, -9223372036854775807) %75) #38, !noalias !71
  br label %_RINvNtCsjMrxcFdYDNN_4core3ptr13drop_in_placeINtNtCsdJPVW0sQgAG_5alloc5boxed3BoxNtNtNtCs5sEH5CPMdak_3std2io5error6CustomEECsg3Flw6CsbJc_10rayon_core.exit.i.i.i.i.i85.i

cleanup.i.i.i.i.i.i.i.i80.i:                      ; preds = %is_not_null.i.i.i.i.i.i.i.i79.i
  %79 = landingpad { ptr, i32 }
          cleanup
  %80 = getelementptr inbounds nuw i8, ptr %_6.val1.i.i.i.i.i.i77.i, i64 8
  %81 = load i64, ptr %80, align 8, !range !56, !invariant.load !2, !noalias !71
  %82 = getelementptr inbounds nuw i8, ptr %_6.val1.i.i.i.i.i.i77.i, i64 16
  %83 = load i64, ptr %82, align 8, !range !57, !invariant.load !2, !noalias !71
  %84 = add i64 %83, -1
  %85 = icmp sgt i64 %84, -1
  tail call void @llvm.assume(i1 %85)
  %86 = icmp eq i64 %81, 0
  br i1 %86, label %common.resume.i, label %_RNvXs_NtCsdJPVW0sQgAG_5alloc5allocNtB4_6GlobalNtNtCsjMrxcFdYDNN_4core5alloc9Allocator10deallocate.exit.i4.i.i.i.i.i.i.i.i81.i

_RNvXs_NtCsdJPVW0sQgAG_5alloc5allocNtB4_6GlobalNtNtCsjMrxcFdYDNN_4core5alloc9Allocator10deallocate.exit.i4.i.i.i.i.i.i.i.i81.i: ; preds = %cleanup.i.i.i.i.i.i.i.i80.i
; call __rustc::__rust_dealloc
  tail call void @_RNvCsKhRCbHf33p_7___rustc14___rust_dealloc(ptr noundef nonnull %_6.val.i.i.i.i.i.i76.i, i64 noundef %81, i64 noundef range(i64 1, -9223372036854775807) %83) #38, !noalias !71
  br label %common.resume.i

_RINvNtCsjMrxcFdYDNN_4core3ptr13drop_in_placeINtNtCsdJPVW0sQgAG_5alloc5boxed3BoxNtNtNtCs5sEH5CPMdak_3std2io5error6CustomEECsg3Flw6CsbJc_10rayon_core.exit.i.i.i.i.i85.i: ; preds = %_RNvXs_NtCsdJPVW0sQgAG_5alloc5allocNtB4_6GlobalNtNtCsjMrxcFdYDNN_4core5alloc9Allocator10deallocate.exit.i.i.i.i.i.i.i.i.i84.i, %bb3.i.i.i.i.i.i.i.i83.i
; call __rustc::__rust_dealloc
  tail call void @_RNvCsKhRCbHf33p_7___rustc14___rust_dealloc(ptr noundef nonnull %66, i64 noundef 24, i64 noundef 8) #38, !noalias !71
  br label %bb2

bb39:                                             ; preds = %bb52, %bb2.i.i129, %bb34, %bb48, %common.resume.i, %cleanup1.body.i, %cleanup
  %.pn23.pn.pn.pn.pn.pn.pn = phi { ptr, i32 } [ %.pn23.pn.pn.pn.pn.pn152196, %bb52 ], [ %common.resume.op.i, %common.resume.i ], [ %87, %cleanup ], [ %eh.lpad-body.i, %cleanup1.body.i ], [ %.pn23.pn.pn.pn, %bb2.i.i129 ], [ %.pn23.pn.pn.pn, %bb34 ], [ %126, %bb48 ]
; invoke core::ptr::drop_in_place::<rayon_core::ThreadPoolBuilder>
  invoke fastcc void @_RINvNtCsjMrxcFdYDNN_4core3ptr13drop_in_placeNtCsg3Flw6CsbJc_10rayon_core17ThreadPoolBuilderEBI_(ptr noalias noundef align 8 dereferenceable(96) %builder) #35
          to label %bb40 unwind label %terminate

cleanup:                                          ; preds = %bb11.i, %bb7.i, %bb4.i, %bb2.i
  %87 = landingpad { ptr, i32 }
          cleanup
  br label %bb39

bb2:                                              ; preds = %start, %bb5.i, %bb2.i11.i, %bb2.i.i.i, %_RINvNtCsjMrxcFdYDNN_4core3ptr13drop_in_placeINtNtCsdJPVW0sQgAG_5alloc5boxed3BoxNtNtNtCs5sEH5CPMdak_3std2io5error6CustomEECsg3Flw6CsbJc_10rayon_core.exit.i.i.i.i.i.i, %_RNCNvMs2_Csg3Flw6CsbJc_10rayon_coreNtB7_17ThreadPoolBuilder15get_num_threadss0_0B7_.exit.i, %bb2.i70.i, %bb2.i.i72.i, %_RINvNtCsjMrxcFdYDNN_4core3ptr13drop_in_placeINtNtCsdJPVW0sQgAG_5alloc5boxed3BoxNtNtNtCs5sEH5CPMdak_3std2io5error6CustomEECsg3Flw6CsbJc_10rayon_core.exit.i.i.i.i.i85.i
  %x.sroa.0.1.i = phi i64 [ %builder.val, %start ], [ %_3.sroa.105.0.i.i, %bb5.i ], [ %_0.sroa.3.0.i31.i, %_RNCNvMs2_Csg3Flw6CsbJc_10rayon_coreNtB7_17ThreadPoolBuilder15get_num_threadss0_0B7_.exit.i ], [ %22, %bb2.i11.i ], [ 1, %_RINvNtCsjMrxcFdYDNN_4core3ptr13drop_in_placeINtNtCsdJPVW0sQgAG_5alloc5boxed3BoxNtNtNtCs5sEH5CPMdak_3std2io5error6CustomEECsg3Flw6CsbJc_10rayon_core.exit.i.i.i.i.i.i ], [ 1, %bb2.i.i.i ], [ %64, %bb2.i70.i ], [ 1, %_RINvNtCsjMrxcFdYDNN_4core3ptr13drop_in_placeINtNtCsdJPVW0sQgAG_5alloc5boxed3BoxNtNtNtCs5sEH5CPMdak_3std2io5error6CustomEECsg3Flw6CsbJc_10rayon_core.exit.i.i.i.i.i85.i ], [ 1, %bb2.i.i72.i ]
  %_0.sroa.0.0.i = tail call noundef i64 @llvm.umin.i64(i64 %x.sroa.0.1.i, i64 65535)
  %88 = getelementptr inbounds nuw i8, ptr %builder, i64 89
  %89 = load i8, ptr %88, align 1, !range !16, !noundef !2
  call void @llvm.lifetime.start.p0(i64 48, ptr nonnull %_8)
  call void @llvm.lifetime.start.p0(i64 48, ptr nonnull %unzipped.i), !noalias !74
  store i64 0, ptr %unzipped.i, align 8, !alias.scope !78, !noalias !74
  %_1.sroa.4.0._0.sroa_idx.i.i = getelementptr inbounds nuw i8, ptr %unzipped.i, i64 8
  store ptr inttoptr (i64 8 to ptr), ptr %_1.sroa.4.0._0.sroa_idx.i.i, align 8, !alias.scope !78, !noalias !74
  %_1.sroa.5.0._0.sroa_idx.i.i = getelementptr inbounds nuw i8, ptr %unzipped.i, i64 16
  %x1.sroa.2.0..sroa_idx.i.i = getelementptr inbounds nuw i8, ptr %unzipped.i, i64 32
  call void @llvm.memset.p0.i64(ptr noundef nonnull align 8 dereferenceable(16) %_1.sroa.5.0._0.sroa_idx.i.i, i8 0, i64 16, i1 false), !alias.scope !78, !noalias !74
  store ptr inttoptr (i64 8 to ptr), ptr %x1.sroa.2.0..sroa_idx.i.i, align 8, !alias.scope !78, !noalias !74
  %x1.sroa.3.0..sroa_idx.i.i = getelementptr inbounds nuw i8, ptr %unzipped.i, i64 40
  store i64 0, ptr %x1.sroa.3.0..sroa_idx.i.i, align 8, !alias.scope !78, !noalias !74
  tail call void @llvm.experimental.noalias.scope.decl(metadata !81)
  %_7.not.not.i.i.not = icmp eq i64 %x.sroa.0.1.i, 0
  br i1 %_7.not.not.i.i.not, label %bb6.i.i, label %bb1.i.i.i.i.i

bb1.i.i.i.i.i:                                    ; preds = %bb2
; invoke <alloc::raw_vec::RawVecInner<_>>::reserve::do_reserve_and_handle::<alloc::alloc::Global>
  invoke fastcc void @_RINvNvMs2_NtCsdJPVW0sQgAG_5alloc7raw_vecINtB8_11RawVecInnerpE7reserve21do_reserve_and_handleNtNtBa_5alloc6GlobalECsg3Flw6CsbJc_10rayon_core(ptr noalias noundef nonnull align 8 dereferenceable(48) %unzipped.i, i64 noundef 0, i64 noundef range(i64 1, 0) %_0.sroa.0.0.i, i64 noundef 8, i64 noundef 32)
          to label %_RNvXsi_NtCsdJPVW0sQgAG_5alloc3vecINtB5_3VecINtNtCsd8NfRy8pW7m_15crossbeam_deque5deque6WorkerNtNtCsg3Flw6CsbJc_10rayon_core3job6JobRefEEINtNtNtNtCsjMrxcFdYDNN_4core4iter6traits7collect6ExtendBF_E14extend_reserveB1w_.exit.i.i.i unwind label %cleanup1.loopexit.split-lp.i, !noalias !74

_RNvXsi_NtCsdJPVW0sQgAG_5alloc3vecINtB5_3VecINtNtCsd8NfRy8pW7m_15crossbeam_deque5deque6WorkerNtNtCsg3Flw6CsbJc_10rayon_core3job6JobRefEEINtNtNtNtCsjMrxcFdYDNN_4core4iter6traits7collect6ExtendBF_E14extend_reserveB1w_.exit.i.i.i: ; preds = %bb1.i.i.i.i.i
  %len.i.i1.i.i.pre.i = load i64, ptr %x1.sroa.3.0..sroa_idx.i.i, align 8, !alias.scope !84, !noalias !91
  %_6.i.i.phi.trans.insert.i = getelementptr inbounds nuw i8, ptr %unzipped.i, i64 24
  %self2.i.i2.i.i.pre.i = load i64, ptr %_6.i.i.phi.trans.insert.i, align 8, !range !56, !alias.scope !84, !noalias !91
  %_9.i.i3.i.i.i = sub i64 %self2.i.i2.i.i.pre.i, %len.i.i1.i.i.pre.i
  %_7.i.i4.i.i.i = icmp ugt i64 %_0.sroa.0.0.i, %_9.i.i3.i.i.i
  br i1 %_7.i.i4.i.i.i, label %bb1.i.i5.i.i.i, label %bb3.lr.ph.i.i.i.i.i, !prof !6

bb1.i.i5.i.i.i:                                   ; preds = %_RNvXsi_NtCsdJPVW0sQgAG_5alloc3vecINtB5_3VecINtNtCsd8NfRy8pW7m_15crossbeam_deque5deque6WorkerNtNtCsg3Flw6CsbJc_10rayon_core3job6JobRefEEINtNtNtNtCsjMrxcFdYDNN_4core4iter6traits7collect6ExtendBF_E14extend_reserveB1w_.exit.i.i.i
; invoke <alloc::raw_vec::RawVecInner<_>>::reserve::do_reserve_and_handle::<alloc::alloc::Global>
  invoke fastcc void @_RINvNvMs2_NtCsdJPVW0sQgAG_5alloc7raw_vecINtB8_11RawVecInnerpE7reserve21do_reserve_and_handleNtNtBa_5alloc6GlobalECsg3Flw6CsbJc_10rayon_core(ptr noalias noundef nonnull align 8 dereferenceable(24) %_6.i.i.phi.trans.insert.i, i64 noundef %len.i.i1.i.i.pre.i, i64 noundef range(i64 1, 0) %_0.sroa.0.0.i, i64 noundef 8, i64 noundef 16)
          to label %bb1.i.i5.i.i.bb3.lr.ph.i.i.i.i_crit_edge.i unwind label %cleanup1.loopexit.split-lp.i, !noalias !74

bb1.i.i5.i.i.bb3.lr.ph.i.i.i.i_crit_edge.i:       ; preds = %bb1.i.i5.i.i.i
  %.promoted9.i.i.i.i.pre.i = load i64, ptr %x1.sroa.3.0..sroa_idx.i.i, align 8, !alias.scope !93, !noalias !100
  br label %bb3.lr.ph.i.i.i.i.i

bb6.i.i:                                          ; preds = %bb2
  tail call void @llvm.experimental.noalias.scope.decl(metadata !104)
  tail call void @llvm.experimental.noalias.scope.decl(metadata !105)
  tail call void @llvm.experimental.noalias.scope.decl(metadata !106)
  br label %bb3

bb3.lr.ph.i.i.i.i.i:                              ; preds = %bb1.i.i5.i.i.bb3.lr.ph.i.i.i.i_crit_edge.i, %_RNvXsi_NtCsdJPVW0sQgAG_5alloc3vecINtB5_3VecINtNtCsd8NfRy8pW7m_15crossbeam_deque5deque6WorkerNtNtCsg3Flw6CsbJc_10rayon_core3job6JobRefEEINtNtNtNtCsjMrxcFdYDNN_4core4iter6traits7collect6ExtendBF_E14extend_reserveB1w_.exit.i.i.i
  %.promoted9.i.i.i.i.i = phi i64 [ %.promoted9.i.i.i.i.pre.i, %bb1.i.i5.i.i.bb3.lr.ph.i.i.i.i_crit_edge.i ], [ %len.i.i1.i.i.pre.i, %_RNvXsi_NtCsdJPVW0sQgAG_5alloc3vecINtB5_3VecINtNtCsd8NfRy8pW7m_15crossbeam_deque5deque6WorkerNtNtCsg3Flw6CsbJc_10rayon_core3job6JobRefEEINtNtNtNtCsjMrxcFdYDNN_4core4iter6traits7collect6ExtendBF_E14extend_reserveB1w_.exit.i.i.i ]
  %_8.i.i.i.i.i.i.i.i.i.i = load ptr, ptr %_1.sroa.4.0._0.sroa_idx.i.i, align 8, !alias.scope !93, !noalias !100, !nonnull !2
  %_8.i3.i.i.i.i.i.i.i.i.i = load ptr, ptr %x1.sroa.2.0..sroa_idx.i.i, align 8, !alias.scope !93, !noalias !100, !nonnull !2
  %.promoted.i.i.i.i.i = load i64, ptr %_1.sroa.5.0._0.sroa_idx.i.i, align 8, !alias.scope !93, !noalias !100
  %90 = getelementptr inbounds nuw i8, ptr %_22.i.i.i, i64 128
  %_3.sroa.4.0..sroa_idx.i.i.i = getelementptr inbounds nuw i8, ptr %_22.i.i.i, i64 256
  %91 = getelementptr inbounds nuw i8, ptr %worker.i.i, i64 8
  %92 = getelementptr inbounds nuw i8, ptr %worker.i.i, i64 16
  %93 = getelementptr inbounds nuw i8, ptr %worker.i.i, i64 24
  %_4.i.i = trunc nuw i8 %89 to i1
  br label %bb3.i.i.i.i.i

bb3.i.i.i.i.i:                                    ; preds = %.noexc4.i, %bb3.lr.ph.i.i.i.i.i
  %new_len.i5.i.i.i.i10.i.i.i.i.i = phi i64 [ %.promoted9.i.i.i.i.i, %bb3.lr.ph.i.i.i.i.i ], [ %new_len.i5.i.i.i.i.i.i.i.i.i, %.noexc4.i ]
  %new_len.i.i.i.i.i8.i.i.i.i.i = phi i64 [ %.promoted.i.i.i.i.i, %bb3.lr.ph.i.i.i.i.i ], [ %new_len.i.i.i.i.i.i.i.i.i.i, %.noexc4.i ]
  %self.sroa.0.07.i.i.i.i.i = phi i64 [ 0, %bb3.lr.ph.i.i.i.i.i ], [ %_0.i1.i.i.i.i.i.i.i, %.noexc4.i ]
  %_0.i1.i.i.i.i.i.i.i = add i64 %self.sroa.0.07.i.i.i.i.i, 1
  call void @llvm.lifetime.start.p0(i64 32, ptr nonnull %_7.i.i.i.i.i.sroa.0.i)
  call void @llvm.lifetime.start.p0(i64 32, ptr nonnull %worker.i.i), !noalias !74
  br i1 %_4.i.i, label %bb1.i.i, label %bb2.i5.i

bb2.i5.i:                                         ; preds = %bb3.i.i.i.i.i
  tail call void @llvm.experimental.noalias.scope.decl(metadata !107)
; call __rustc::__rust_no_alloc_shim_is_unstable_v2
  tail call void @_RNvCsKhRCbHf33p_7___rustc35___rust_no_alloc_shim_is_unstable_v2() #38, !noalias !110
; call __rustc::__rust_alloc
  %94 = tail call noundef align 8 dereferenceable_or_null(1024) ptr @_RNvCsKhRCbHf33p_7___rustc12___rust_alloc(i64 noundef 1024, i64 noundef range(i64 1, 129) 8) #38, !noalias !110
  %95 = icmp eq ptr %94, null
  br i1 %95, label %bb3.i.i.i.i.i.i.i.i.i45, label %_RINvXsb_NtNtCsdJPVW0sQgAG_5alloc5boxed4iterINtB8_3BoxSINtNtNtCsjMrxcFdYDNN_4core3mem12maybe_uninit11MaybeUninitNtNtCsg3Flw6CsbJc_10rayon_core3job6JobRefEEINtNtNtNtBX_4iter6traits7collect12FromIteratorBQ_E9from_iterINtNtNtB2z_8adapters3map3MapINtNtNtBX_3ops5range5RangejENCNvMs_NtCsd8NfRy8pW7m_15crossbeam_deque5dequeINtB4r_6BufferB1L_E5alloc0EEB1P_.exit.i.i.i

bb3.i.i.i.i.i.i.i.i.i45:                          ; preds = %bb2.i5.i
  store i64 %new_len.i.i.i.i.i8.i.i.i.i.i, ptr %_1.sroa.5.0._0.sroa_idx.i.i, align 8, !noalias !74
  store i64 %new_len.i5.i.i.i.i10.i.i.i.i.i, ptr %x1.sroa.3.0..sroa_idx.i.i, align 8, !noalias !74
; invoke alloc::raw_vec::handle_error
  invoke void @_RNvNtCsdJPVW0sQgAG_5alloc7raw_vec12handle_error(i64 noundef 8, i64 1024) #34
          to label %.noexc6.i unwind label %cleanup1.loopexit.split-lp.i, !noalias !74

.noexc6.i:                                        ; preds = %bb3.i.i.i.i.i.i.i.i.i45
  unreachable

_RINvXsb_NtNtCsdJPVW0sQgAG_5alloc5boxed4iterINtB8_3BoxSINtNtNtCsjMrxcFdYDNN_4core3mem12maybe_uninit11MaybeUninitNtNtCsg3Flw6CsbJc_10rayon_core3job6JobRefEEINtNtNtNtBX_4iter6traits7collect12FromIteratorBQ_E9from_iterINtNtNtB2z_8adapters3map3MapINtNtNtBX_3ops5range5RangejENCNvMs_NtCsd8NfRy8pW7m_15crossbeam_deque5dequeINtB4r_6BufferB1L_E5alloc0EEB1P_.exit.i.i.i: ; preds = %bb2.i5.i
; call __rustc::__rust_no_alloc_shim_is_unstable_v2
  tail call void @_RNvCsKhRCbHf33p_7___rustc35___rust_no_alloc_shim_is_unstable_v2() #38, !noalias !123
; call __rustc::__rust_alloc
  %96 = tail call noundef align 8 dereferenceable_or_null(16) ptr @_RNvCsKhRCbHf33p_7___rustc12___rust_alloc(i64 noundef 16, i64 noundef range(i64 1, -9223372036854775807) 8) #38, !noalias !123
  %97 = icmp eq ptr %96, null
  br i1 %97, label %bb2.i.i.i.i, label %_RNvNtCsdJPVW0sQgAG_5alloc5alloc15exchange_malloc.exit.i.i.i, !prof !6

bb2.i.i.i.i:                                      ; preds = %_RINvXsb_NtNtCsdJPVW0sQgAG_5alloc5boxed4iterINtB8_3BoxSINtNtNtCsjMrxcFdYDNN_4core3mem12maybe_uninit11MaybeUninitNtNtCsg3Flw6CsbJc_10rayon_core3job6JobRefEEINtNtNtNtBX_4iter6traits7collect12FromIteratorBQ_E9from_iterINtNtNtB2z_8adapters3map3MapINtNtNtBX_3ops5range5RangejENCNvMs_NtCsd8NfRy8pW7m_15crossbeam_deque5dequeINtB4r_6BufferB1L_E5alloc0EEB1P_.exit.i.i.i
  store i64 %new_len.i.i.i.i.i8.i.i.i.i.i, ptr %_1.sroa.5.0._0.sroa_idx.i.i, align 8, !noalias !74
  store i64 %new_len.i5.i.i.i.i10.i.i.i.i.i, ptr %x1.sroa.3.0..sroa_idx.i.i, align 8, !noalias !74
; invoke alloc::alloc::handle_alloc_error
  invoke void @_RNvNtCsdJPVW0sQgAG_5alloc5alloc18handle_alloc_error(i64 noundef 8, i64 noundef 16) #34
          to label %.noexc7.i unwind label %cleanup1.loopexit.split-lp.i, !noalias !74

.noexc7.i:                                        ; preds = %bb2.i.i.i.i
  unreachable

_RNvNtCsdJPVW0sQgAG_5alloc5alloc15exchange_malloc.exit.i.i.i: ; preds = %_RINvXsb_NtNtCsdJPVW0sQgAG_5alloc5boxed4iterINtB8_3BoxSINtNtNtCsjMrxcFdYDNN_4core3mem12maybe_uninit11MaybeUninitNtNtCsg3Flw6CsbJc_10rayon_core3job6JobRefEEINtNtNtNtBX_4iter6traits7collect12FromIteratorBQ_E9from_iterINtNtNtB2z_8adapters3map3MapINtNtNtBX_3ops5range5RangejENCNvMs_NtCsd8NfRy8pW7m_15crossbeam_deque5dequeINtB4r_6BufferB1L_E5alloc0EEB1P_.exit.i.i.i
  store ptr %94, ptr %96, align 8, !noalias !123
  %98 = getelementptr inbounds nuw i8, ptr %96, i64 8
  store i64 64, ptr %98, align 8, !noalias !123
  %_14.i.i.i = ptrtoint ptr %96 to i64
  call void @llvm.lifetime.start.p0(i64 384, ptr nonnull %_22.i.i.i), !noalias !123
  store <2 x i64> splat (i64 1), ptr %_22.i.i.i, align 128, !noalias !123
  store i64 %_14.i.i.i, ptr %90, align 128, !noalias !123
  call void @llvm.memset.p0.i64(ptr noundef nonnull align 128 dereferenceable(16) %_3.sroa.4.0..sroa_idx.i.i.i, i8 0, i64 16, i1 false), !noalias !123
; call __rustc::__rust_no_alloc_shim_is_unstable_v2
  tail call void @_RNvCsKhRCbHf33p_7___rustc35___rust_no_alloc_shim_is_unstable_v2() #38, !noalias !124
; call __rustc::__rust_alloc
  %99 = tail call noundef align 128 dereferenceable_or_null(384) ptr @_RNvCsKhRCbHf33p_7___rustc12___rust_alloc(i64 noundef 384, i64 noundef range(i64 1, -9223372036854775807) 128) #38, !noalias !124
  %100 = icmp eq ptr %99, null
  br i1 %100, label %bb2.i7.i.i.i, label %_RNvMs4_NtCsd8NfRy8pW7m_15crossbeam_deque5dequeINtB5_6WorkerNtNtCsg3Flw6CsbJc_10rayon_core3job6JobRefE8new_lifoBZ_.exit.i.i, !prof !6

bb2.i7.i.i.i:                                     ; preds = %_RNvNtCsdJPVW0sQgAG_5alloc5alloc15exchange_malloc.exit.i.i.i
  store i64 %new_len.i.i.i.i.i8.i.i.i.i.i, ptr %_1.sroa.5.0._0.sroa_idx.i.i, align 8, !noalias !74
  store i64 %new_len.i5.i.i.i.i10.i.i.i.i.i, ptr %x1.sroa.3.0..sroa_idx.i.i, align 8, !noalias !74
; invoke alloc::alloc::handle_alloc_error
  invoke void @_RNvNtCsdJPVW0sQgAG_5alloc5alloc18handle_alloc_error(i64 noundef 128, i64 noundef 384) #34
          to label %.noexc.i.i.i unwind label %cleanup.i.i.i.i, !noalias !123

.noexc.i.i.i:                                     ; preds = %bb2.i7.i.i.i
  unreachable

cleanup.i.i.i.i:                                  ; preds = %bb2.i7.i.i.i
  %101 = landingpad { ptr, i32 }
          cleanup
; call core::ptr::drop_in_place::<alloc::sync::ArcInner<crossbeam_utils::cache_padded::CachePadded<crossbeam_deque::deque::Inner<rayon_core::job::JobRef>>>>
  call fastcc void @_RINvNtCsjMrxcFdYDNN_4core3ptr13drop_in_placeINtNtCsdJPVW0sQgAG_5alloc4sync8ArcInnerINtNtCs8jD91Rl7RDZ_15crossbeam_utils12cache_padded11CachePaddedINtNtCsd8NfRy8pW7m_15crossbeam_deque5deque5InnerNtNtCsg3Flw6CsbJc_10rayon_core3job6JobRefEEEEB3a_(ptr noalias noundef nonnull align 128 dereferenceable(384) %_22.i.i.i) #35, !noalias !123
  br label %cleanup1.body.i

_RNvMs4_NtCsd8NfRy8pW7m_15crossbeam_deque5dequeINtB5_6WorkerNtNtCsg3Flw6CsbJc_10rayon_core3job6JobRefE8new_lifoBZ_.exit.i.i: ; preds = %_RNvNtCsdJPVW0sQgAG_5alloc5alloc15exchange_malloc.exit.i.i.i
  call void @llvm.memcpy.p0.p0.i64(ptr noundef nonnull align 128 dereferenceable(384) %99, ptr noundef nonnull align 128 dereferenceable(384) %_22.i.i.i, i64 384, i1 false), !noalias !123
  call void @llvm.lifetime.end.p0(i64 384, ptr nonnull %_22.i.i.i), !noalias !123
  store ptr %99, ptr %worker.i.i, align 8, !alias.scope !107, !noalias !127
  store ptr %94, ptr %91, align 8, !alias.scope !107, !noalias !127
  store i64 64, ptr %92, align 8, !alias.scope !107, !noalias !127
  store i8 1, ptr %93, align 8, !alias.scope !107, !noalias !127
  br label %bb3.i.i43

bb1.i.i:                                          ; preds = %bb3.i.i.i.i.i
; invoke <crossbeam_deque::deque::Worker<rayon_core::job::JobRef>>::new_fifo
  invoke fastcc void @_RNvMs4_NtCsd8NfRy8pW7m_15crossbeam_deque5dequeINtB5_6WorkerNtNtCsg3Flw6CsbJc_10rayon_core3job6JobRefE8new_fifoBZ_(ptr noalias noundef align 8 captures(none) dereferenceable(32) %worker.i.i)
          to label %.noexc8.i unwind label %cleanup1.loopexit.i, !noalias !74

.noexc8.i:                                        ; preds = %bb1.i.i
  %_14.pre.i.i = load ptr, ptr %worker.i.i, align 8, !noalias !127
  br label %bb3.i.i43

bb3.i.i43:                                        ; preds = %.noexc8.i, %_RNvMs4_NtCsd8NfRy8pW7m_15crossbeam_deque5dequeINtB5_6WorkerNtNtCsg3Flw6CsbJc_10rayon_core3job6JobRefE8new_lifoBZ_.exit.i.i
  %_14.i.i = phi ptr [ %_14.pre.i.i, %.noexc8.i ], [ %99, %_RNvMs4_NtCsd8NfRy8pW7m_15crossbeam_deque5dequeINtB5_6WorkerNtNtCsg3Flw6CsbJc_10rayon_core3job6JobRefE8new_lifoBZ_.exit.i.i ]
  %102 = atomicrmw add ptr %_14.i.i, i64 1 monotonic, align 8, !noalias !127
  %_10.i.i = icmp slt i64 %102, 0
  br i1 %_10.i.i, label %bb4.i.i44, label %.noexc4.i

bb4.i.i44:                                        ; preds = %bb3.i.i43
  tail call void @llvm.trap()
  unreachable

.noexc4.i:                                        ; preds = %bb3.i.i43
  %103 = load i8, ptr %93, align 8, !range !16, !noalias !127, !noundef !2
  call void @llvm.memcpy.p0.p0.i64(ptr noundef nonnull align 8 dereferenceable(32) %_7.i.i.i.i.i.sroa.0.i, ptr noundef nonnull align 8 dereferenceable(32) %worker.i.i, i64 32, i1 false), !noalias !74
  call void @llvm.lifetime.end.p0(i64 32, ptr nonnull %worker.i.i), !noalias !74
  %104 = icmp ne ptr %_14.i.i, null
  tail call void @llvm.assume(i1 %104)
  %_7.i.i.i.i.i.i.i.i.i.i = icmp ult i64 %new_len.i.i.i.i.i8.i.i.i.i.i, 288230376151711744
  tail call void @llvm.assume(i1 %_7.i.i.i.i.i.i.i.i.i.i)
  %dst.i.i.i.i.i.i.i.i.i.i = getelementptr inbounds nuw %"crossbeam_deque::deque::Worker<job::JobRef>", ptr %_8.i.i.i.i.i.i.i.i.i.i, i64 %new_len.i.i.i.i.i8.i.i.i.i.i
  call void @llvm.memcpy.p0.p0.i64(ptr noundef nonnull align 8 dereferenceable(32) %dst.i.i.i.i.i.i.i.i.i.i, ptr noundef nonnull align 8 dereferenceable(32) %_7.i.i.i.i.i.sroa.0.i, i64 32, i1 false), !noalias !128
  %new_len.i.i.i.i.i.i.i.i.i.i = add nuw nsw i64 %new_len.i.i.i.i.i8.i.i.i.i.i, 1
  %_7.i2.i.i.i.i.i.i.i.i.i = icmp ult i64 %new_len.i5.i.i.i.i10.i.i.i.i.i, 576460752303423488
  tail call void @llvm.assume(i1 %_7.i2.i.i.i.i.i.i.i.i.i)
  %dst.i4.i.i.i.i.i.i.i.i.i = getelementptr inbounds nuw %"crossbeam_deque::deque::Stealer<job::JobRef>", ptr %_8.i3.i.i.i.i.i.i.i.i.i, i64 %new_len.i5.i.i.i.i10.i.i.i.i.i
  store ptr %_14.i.i, ptr %dst.i4.i.i.i.i.i.i.i.i.i, align 8, !noalias !129
  %105 = getelementptr inbounds nuw i8, ptr %dst.i4.i.i.i.i.i.i.i.i.i, i64 8
  store i8 %103, ptr %105, align 8, !noalias !129
  %new_len.i5.i.i.i.i.i.i.i.i.i = add nuw nsw i64 %new_len.i5.i.i.i.i10.i.i.i.i.i, 1
  call void @llvm.lifetime.end.p0(i64 32, ptr nonnull %_7.i.i.i.i.i.sroa.0.i)
  %exitcond.not.i.i.i.i.i = icmp eq i64 %_0.i1.i.i.i.i.i.i.i, %_0.sroa.0.0.i
  br i1 %exitcond.not.i.i.i.i.i, label %bb6.loopexit.i, label %bb3.i.i.i.i.i

cleanup1.loopexit.i:                              ; preds = %bb1.i.i
  %lpad.loopexit.i = landingpad { ptr, i32 }
          cleanup
  store i64 %new_len.i.i.i.i.i8.i.i.i.i.i, ptr %_1.sroa.5.0._0.sroa_idx.i.i, align 8, !noalias !74
  store i64 %new_len.i5.i.i.i.i10.i.i.i.i.i, ptr %x1.sroa.3.0..sroa_idx.i.i, align 8, !noalias !74
  br label %cleanup1.body.i

cleanup1.loopexit.split-lp.i:                     ; preds = %bb2.i.i.i.i, %bb3.i.i.i.i.i.i.i.i.i45, %bb1.i.i5.i.i.i, %bb1.i.i.i.i.i
  %lpad.loopexit.split-lp.i = landingpad { ptr, i32 }
          cleanup
  br label %cleanup1.body.i

cleanup1.body.i:                                  ; preds = %cleanup1.loopexit.split-lp.i, %cleanup1.loopexit.i, %cleanup.i.i.i.i
  %eh.lpad-body.i = phi { ptr, i32 } [ %101, %cleanup.i.i.i.i ], [ %lpad.loopexit.i, %cleanup1.loopexit.i ], [ %lpad.loopexit.split-lp.i, %cleanup1.loopexit.split-lp.i ]
; call core::ptr::drop_in_place::<(alloc::vec::Vec<crossbeam_deque::deque::Worker<rayon_core::job::JobRef>>, alloc::vec::Vec<crossbeam_deque::deque::Stealer<rayon_core::job::JobRef>>)>
  call fastcc void @_RINvNtCsjMrxcFdYDNN_4core3ptr13drop_in_placeTINtNtCsdJPVW0sQgAG_5alloc3vec3VecINtNtCsd8NfRy8pW7m_15crossbeam_deque5deque6WorkerNtNtCsg3Flw6CsbJc_10rayon_core3job6JobRefEEIBI_INtB1h_7StealerB21_EEEEB25_(ptr noalias noundef align 8 dereferenceable(48) %unzipped.i) #35, !noalias !74
  br label %bb39

bb6.loopexit.i:                                   ; preds = %.noexc4.i
  store i64 %new_len.i.i.i.i.i.i.i.i.i.i, ptr %_1.sroa.5.0._0.sroa_idx.i.i, align 8, !noalias !74
  store i64 %new_len.i5.i.i.i.i.i.i.i.i.i, ptr %x1.sroa.3.0..sroa_idx.i.i, align 8, !noalias !74
  br label %bb3

bb3:                                              ; preds = %bb6.loopexit.i, %bb6.i.i
  call void @llvm.memcpy.p0.p0.i64(ptr noundef nonnull align 8 dereferenceable(48) %_8, ptr noundef nonnull align 8 dereferenceable(48) %unzipped.i, i64 48, i1 false), !noalias !139
  call void @llvm.lifetime.end.p0(i64 48, ptr nonnull %unzipped.i), !noalias !74
  call void @llvm.lifetime.start.p0(i64 24, ptr nonnull %workers)
  call void @llvm.memcpy.p0.p0.i64(ptr noundef nonnull align 8 dereferenceable(24) %workers, ptr noundef nonnull align 8 dereferenceable(24) %_8, i64 24, i1 false)
  call void @llvm.lifetime.start.p0(i64 24, ptr nonnull %stealers)
  %106 = getelementptr inbounds nuw i8, ptr %_8, i64 24
  call void @llvm.memcpy.p0.p0.i64(ptr noundef nonnull align 8 dereferenceable(24) %stealers, ptr noundef nonnull align 8 dereferenceable(24) %106, i64 24, i1 false)
  call void @llvm.lifetime.end.p0(i64 48, ptr nonnull %_8)
  call void @llvm.lifetime.start.p0(i64 48, ptr nonnull %_15)
  call void @llvm.lifetime.start.p0(i64 48, ptr nonnull %unzipped.i48), !noalias !140
  store i64 0, ptr %unzipped.i48, align 8, !alias.scope !143, !noalias !140
  %_1.sroa.4.0._0.sroa_idx.i.i49 = getelementptr inbounds nuw i8, ptr %unzipped.i48, i64 8
  store ptr inttoptr (i64 8 to ptr), ptr %_1.sroa.4.0._0.sroa_idx.i.i49, align 8, !alias.scope !143, !noalias !140
  %_1.sroa.5.0._0.sroa_idx.i.i50 = getelementptr inbounds nuw i8, ptr %unzipped.i48, i64 16
  %x1.sroa.2.0..sroa_idx.i.i51 = getelementptr inbounds nuw i8, ptr %unzipped.i48, i64 32
  call void @llvm.memset.p0.i64(ptr noundef nonnull align 8 dereferenceable(16) %_1.sroa.5.0._0.sroa_idx.i.i50, i8 0, i64 16, i1 false), !alias.scope !143, !noalias !140
  store ptr inttoptr (i64 8 to ptr), ptr %x1.sroa.2.0..sroa_idx.i.i51, align 8, !alias.scope !143, !noalias !140
  %x1.sroa.3.0..sroa_idx.i.i52 = getelementptr inbounds nuw i8, ptr %unzipped.i48, i64 40
  store i64 0, ptr %x1.sroa.3.0..sroa_idx.i.i52, align 8, !alias.scope !143, !noalias !140
  tail call void @llvm.experimental.noalias.scope.decl(metadata !146)
  br i1 %_7.not.not.i.i.not, label %bb6.i.i83, label %bb1.i.i.i.i.i53

bb1.i.i.i.i.i53:                                  ; preds = %bb3
; invoke <alloc::raw_vec::RawVecInner<_>>::reserve::do_reserve_and_handle::<alloc::alloc::Global>
  invoke fastcc void @_RINvNvMs2_NtCsdJPVW0sQgAG_5alloc7raw_vecINtB8_11RawVecInnerpE7reserve21do_reserve_and_handleNtNtBa_5alloc6GlobalECsg3Flw6CsbJc_10rayon_core(ptr noalias noundef nonnull align 8 dereferenceable(48) %unzipped.i48, i64 noundef 0, i64 noundef range(i64 1, 0) %_0.sroa.0.0.i, i64 noundef 8, i64 noundef 32)
          to label %_RNvXsi_NtCsdJPVW0sQgAG_5alloc3vecINtB5_3VecINtNtCsd8NfRy8pW7m_15crossbeam_deque5deque6WorkerNtNtCsg3Flw6CsbJc_10rayon_core3job6JobRefEEINtNtNtNtCsjMrxcFdYDNN_4core4iter6traits7collect6ExtendBF_E14extend_reserveB1w_.exit.i.i.i56 unwind label %cleanup1.loopexit.split-lp.i54, !noalias !140

_RNvXsi_NtCsdJPVW0sQgAG_5alloc3vecINtB5_3VecINtNtCsd8NfRy8pW7m_15crossbeam_deque5deque6WorkerNtNtCsg3Flw6CsbJc_10rayon_core3job6JobRefEEINtNtNtNtCsjMrxcFdYDNN_4core4iter6traits7collect6ExtendBF_E14extend_reserveB1w_.exit.i.i.i56: ; preds = %bb1.i.i.i.i.i53
  %len.i.i1.i.i.pre.i57 = load i64, ptr %x1.sroa.3.0..sroa_idx.i.i52, align 8, !alias.scope !149, !noalias !140
  %_6.i.i.phi.trans.insert.i58 = getelementptr inbounds nuw i8, ptr %unzipped.i48, i64 24
  %self2.i.i2.i.i.pre.i59 = load i64, ptr %_6.i.i.phi.trans.insert.i58, align 8, !range !56, !alias.scope !149, !noalias !140
  %_9.i.i3.i.i.i60 = sub i64 %self2.i.i2.i.i.pre.i59, %len.i.i1.i.i.pre.i57
  %_7.i.i4.i.i.i61 = icmp ugt i64 %_0.sroa.0.0.i, %_9.i.i3.i.i.i60
  br i1 %_7.i.i4.i.i.i61, label %bb1.i.i5.i.i.i81, label %bb3.lr.ph.i.i.i.i.i62, !prof !6

bb1.i.i5.i.i.i81:                                 ; preds = %_RNvXsi_NtCsdJPVW0sQgAG_5alloc3vecINtB5_3VecINtNtCsd8NfRy8pW7m_15crossbeam_deque5deque6WorkerNtNtCsg3Flw6CsbJc_10rayon_core3job6JobRefEEINtNtNtNtCsjMrxcFdYDNN_4core4iter6traits7collect6ExtendBF_E14extend_reserveB1w_.exit.i.i.i56
; invoke <alloc::raw_vec::RawVecInner<_>>::reserve::do_reserve_and_handle::<alloc::alloc::Global>
  invoke fastcc void @_RINvNvMs2_NtCsdJPVW0sQgAG_5alloc7raw_vecINtB8_11RawVecInnerpE7reserve21do_reserve_and_handleNtNtBa_5alloc6GlobalECsg3Flw6CsbJc_10rayon_core(ptr noalias noundef nonnull align 8 dereferenceable(24) %_6.i.i.phi.trans.insert.i58, i64 noundef %len.i.i1.i.i.pre.i57, i64 noundef range(i64 1, 0) %_0.sroa.0.0.i, i64 noundef 8, i64 noundef 16)
          to label %.noexc3.i unwind label %cleanup1.loopexit.split-lp.i54, !noalias !140

.noexc3.i:                                        ; preds = %bb1.i.i5.i.i.i81
  %.promoted9.i.i.i.pre.i.i = load i64, ptr %x1.sroa.3.0..sroa_idx.i.i52, align 8, !alias.scope !156, !noalias !140
  br label %bb3.lr.ph.i.i.i.i.i62

bb6.i.i83:                                        ; preds = %bb3
  tail call void @llvm.experimental.noalias.scope.decl(metadata !163)
  tail call void @llvm.experimental.noalias.scope.decl(metadata !164)
  tail call void @llvm.experimental.noalias.scope.decl(metadata !165)
  br label %bb4

bb3.lr.ph.i.i.i.i.i62:                            ; preds = %.noexc3.i, %_RNvXsi_NtCsdJPVW0sQgAG_5alloc3vecINtB5_3VecINtNtCsd8NfRy8pW7m_15crossbeam_deque5deque6WorkerNtNtCsg3Flw6CsbJc_10rayon_core3job6JobRefEEINtNtNtNtCsjMrxcFdYDNN_4core4iter6traits7collect6ExtendBF_E14extend_reserveB1w_.exit.i.i.i56
  %x1.sroa.3.0..sroa_idx.i.promoted.i = phi i64 [ %.promoted9.i.i.i.pre.i.i, %.noexc3.i ], [ %len.i.i1.i.i.pre.i57, %_RNvXsi_NtCsdJPVW0sQgAG_5alloc3vecINtB5_3VecINtNtCsd8NfRy8pW7m_15crossbeam_deque5deque6WorkerNtNtCsg3Flw6CsbJc_10rayon_core3job6JobRefEEINtNtNtNtCsjMrxcFdYDNN_4core4iter6traits7collect6ExtendBF_E14extend_reserveB1w_.exit.i.i.i56 ]
  %107 = getelementptr inbounds nuw i8, ptr %worker.i.i.i.i.i.i.i, i64 24
  %_8.i.i.i.i.i.i.i.i.i.i63 = load ptr, ptr %_1.sroa.4.0._0.sroa_idx.i.i49, align 8, !alias.scope !156, !noalias !140, !nonnull !2
  %_8.i3.i.i.i.i.i.i.i.i.i64 = load ptr, ptr %x1.sroa.2.0..sroa_idx.i.i51, align 8, !alias.scope !156, !noalias !140, !nonnull !2
  %.promoted.i.i.i.i.i65 = load i64, ptr %_1.sroa.5.0._0.sroa_idx.i.i50, align 8, !alias.scope !156, !noalias !140
  br label %bb3.i.i.i.i.i66

bb3.i.i.i.i.i66:                                  ; preds = %_RNCINvNtNtNtCsjMrxcFdYDNN_4core4iter8adapters3map8map_foldjTINtNtCsd8NfRy8pW7m_15crossbeam_deque5deque6WorkerNtNtCsg3Flw6CsbJc_10rayon_core3job6JobRefEINtBZ_7StealerB1J_EEuNCINvMs4_NtB1N_8registryNtB2T_8Registry3newNtB2T_12DefaultSpawnEs_0NCINvNvNtNtNtB8_6traits8iterator8Iterator8for_each4callBV_NCINvNvNtB40_7collect14default_extend18unchecked_extenderTINtNtCsdJPVW0sQgAG_5alloc3vec3VecBW_EIB5I_B2p_EEBV_E0E0E0B1N_.exit.i.i.i.i.i, %bb3.lr.ph.i.i.i.i.i62
  %new_len.i5.i.i.i.i.i.i.i.i7.i = phi i64 [ %x1.sroa.3.0..sroa_idx.i.promoted.i, %bb3.lr.ph.i.i.i.i.i62 ], [ %new_len.i5.i.i.i.i.i.i.i.i.i78, %_RNCINvNtNtNtCsjMrxcFdYDNN_4core4iter8adapters3map8map_foldjTINtNtCsd8NfRy8pW7m_15crossbeam_deque5deque6WorkerNtNtCsg3Flw6CsbJc_10rayon_core3job6JobRefEINtBZ_7StealerB1J_EEuNCINvMs4_NtB1N_8registryNtB2T_8Registry3newNtB2T_12DefaultSpawnEs_0NCINvNvNtNtNtB8_6traits8iterator8Iterator8for_each4callBV_NCINvNvNtB40_7collect14default_extend18unchecked_extenderTINtNtCsdJPVW0sQgAG_5alloc3vec3VecBW_EIB5I_B2p_EEBV_E0E0E0B1N_.exit.i.i.i.i.i ]
  %new_len.i.i.i.i.i8.i.i.i.i.i67 = phi i64 [ %.promoted.i.i.i.i.i65, %bb3.lr.ph.i.i.i.i.i62 ], [ %new_len.i.i.i.i.i.i.i.i.i.i75, %_RNCINvNtNtNtCsjMrxcFdYDNN_4core4iter8adapters3map8map_foldjTINtNtCsd8NfRy8pW7m_15crossbeam_deque5deque6WorkerNtNtCsg3Flw6CsbJc_10rayon_core3job6JobRefEINtBZ_7StealerB1J_EEuNCINvMs4_NtB1N_8registryNtB2T_8Registry3newNtB2T_12DefaultSpawnEs_0NCINvNvNtNtNtB8_6traits8iterator8Iterator8for_each4callBV_NCINvNvNtB40_7collect14default_extend18unchecked_extenderTINtNtCsdJPVW0sQgAG_5alloc3vec3VecBW_EIB5I_B2p_EEBV_E0E0E0B1N_.exit.i.i.i.i.i ]
  %self.sroa.0.07.i.i.i.i.i68 = phi i64 [ 0, %bb3.lr.ph.i.i.i.i.i62 ], [ %_0.i1.i.i.i.i.i.i.i72, %_RNCINvNtNtNtCsjMrxcFdYDNN_4core4iter8adapters3map8map_foldjTINtNtCsd8NfRy8pW7m_15crossbeam_deque5deque6WorkerNtNtCsg3Flw6CsbJc_10rayon_core3job6JobRefEINtBZ_7StealerB1J_EEuNCINvMs4_NtB1N_8registryNtB2T_8Registry3newNtB2T_12DefaultSpawnEs_0NCINvNvNtNtNtB8_6traits8iterator8Iterator8for_each4callBV_NCINvNvNtB40_7collect14default_extend18unchecked_extenderTINtNtCsdJPVW0sQgAG_5alloc3vec3VecBW_EIB5I_B2p_EEBV_E0E0E0B1N_.exit.i.i.i.i.i ]
  call void @llvm.lifetime.start.p0(i64 32, ptr nonnull %_5.sroa.0.i.i.i.i.i.i)
  call void @llvm.lifetime.start.p0(i64 32, ptr nonnull %worker.i.i.i.i.i.i.i), !noalias !166
; invoke <crossbeam_deque::deque::Worker<rayon_core::job::JobRef>>::new_fifo
  invoke fastcc void @_RNvMs4_NtCsd8NfRy8pW7m_15crossbeam_deque5dequeINtB5_6WorkerNtNtCsg3Flw6CsbJc_10rayon_core3job6JobRefE8new_fifoBZ_(ptr noalias noundef align 8 captures(none) dereferenceable(32) %worker.i.i.i.i.i.i.i)
          to label %.noexc4.i71 unwind label %cleanup1.loopexit.i69, !noalias !140

.noexc4.i71:                                      ; preds = %bb3.i.i.i.i.i66
  %_11.i.i.i.i.i.i.i = load ptr, ptr %worker.i.i.i.i.i.i.i, align 8, !noalias !167, !nonnull !2, !noundef !2
  %108 = atomicrmw add ptr %_11.i.i.i.i.i.i.i, i64 1 monotonic, align 8, !noalias !167
  %_8.i.i.i.i.i.i.i = icmp slt i64 %108, 0
  br i1 %_8.i.i.i.i.i.i.i, label %bb2.i.i2.i.i.i.i.i, label %_RNCINvNtNtNtCsjMrxcFdYDNN_4core4iter8adapters3map8map_foldjTINtNtCsd8NfRy8pW7m_15crossbeam_deque5deque6WorkerNtNtCsg3Flw6CsbJc_10rayon_core3job6JobRefEINtBZ_7StealerB1J_EEuNCINvMs4_NtB1N_8registryNtB2T_8Registry3newNtB2T_12DefaultSpawnEs_0NCINvNvNtNtNtB8_6traits8iterator8Iterator8for_each4callBV_NCINvNvNtB40_7collect14default_extend18unchecked_extenderTINtNtCsdJPVW0sQgAG_5alloc3vec3VecBW_EIB5I_B2p_EEBV_E0E0E0B1N_.exit.i.i.i.i.i

bb2.i.i2.i.i.i.i.i:                               ; preds = %.noexc4.i71
  tail call void @llvm.trap()
  unreachable

_RNCINvNtNtNtCsjMrxcFdYDNN_4core4iter8adapters3map8map_foldjTINtNtCsd8NfRy8pW7m_15crossbeam_deque5deque6WorkerNtNtCsg3Flw6CsbJc_10rayon_core3job6JobRefEINtBZ_7StealerB1J_EEuNCINvMs4_NtB1N_8registryNtB2T_8Registry3newNtB2T_12DefaultSpawnEs_0NCINvNvNtNtNtB8_6traits8iterator8Iterator8for_each4callBV_NCINvNvNtB40_7collect14default_extend18unchecked_extenderTINtNtCsdJPVW0sQgAG_5alloc3vec3VecBW_EIB5I_B2p_EEBV_E0E0E0B1N_.exit.i.i.i.i.i: ; preds = %.noexc4.i71
  %_0.i1.i.i.i.i.i.i.i72 = add nuw i64 %self.sroa.0.07.i.i.i.i.i68, 1
  %109 = load i8, ptr %107, align 8, !range !16, !noalias !167, !noundef !2
  call void @llvm.memcpy.p0.p0.i64(ptr noundef nonnull align 8 dereferenceable(32) %_5.sroa.0.i.i.i.i.i.i, ptr noundef nonnull align 8 dereferenceable(32) %worker.i.i.i.i.i.i.i, i64 32, i1 false), !noalias !166
  call void @llvm.lifetime.end.p0(i64 32, ptr nonnull %worker.i.i.i.i.i.i.i), !noalias !166
  %_7.i.i.i.i.i.i.i.i.i.i73 = icmp ult i64 %new_len.i.i.i.i.i8.i.i.i.i.i67, 288230376151711744
  tail call void @llvm.assume(i1 %_7.i.i.i.i.i.i.i.i.i.i73)
  %dst.i.i.i.i.i.i.i.i.i.i74 = getelementptr inbounds nuw %"crossbeam_deque::deque::Worker<job::JobRef>", ptr %_8.i.i.i.i.i.i.i.i.i.i63, i64 %new_len.i.i.i.i.i8.i.i.i.i.i67
  call void @llvm.memcpy.p0.p0.i64(ptr noundef nonnull align 8 dereferenceable(32) %dst.i.i.i.i.i.i.i.i.i.i74, ptr noundef nonnull align 8 dereferenceable(32) %_5.sroa.0.i.i.i.i.i.i, i64 32, i1 false), !noalias !170
  %new_len.i.i.i.i.i.i.i.i.i.i75 = add nuw nsw i64 %new_len.i.i.i.i.i8.i.i.i.i.i67, 1
  %_7.i2.i.i.i.i.i.i.i.i.i76 = icmp ult i64 %new_len.i5.i.i.i.i.i.i.i.i7.i, 576460752303423488
  tail call void @llvm.assume(i1 %_7.i2.i.i.i.i.i.i.i.i.i76)
  %dst.i4.i.i.i.i.i.i.i.i.i77 = getelementptr inbounds nuw %"crossbeam_deque::deque::Stealer<job::JobRef>", ptr %_8.i3.i.i.i.i.i.i.i.i.i64, i64 %new_len.i5.i.i.i.i.i.i.i.i7.i
  store ptr %_11.i.i.i.i.i.i.i, ptr %dst.i4.i.i.i.i.i.i.i.i.i77, align 8, !noalias !175
  %110 = getelementptr inbounds nuw i8, ptr %dst.i4.i.i.i.i.i.i.i.i.i77, i64 8
  store i8 %109, ptr %110, align 8, !noalias !175
  %new_len.i5.i.i.i.i.i.i.i.i.i78 = add nuw nsw i64 %new_len.i5.i.i.i.i.i.i.i.i7.i, 1
  call void @llvm.lifetime.end.p0(i64 32, ptr nonnull %_5.sroa.0.i.i.i.i.i.i)
  %exitcond.not.i.i.i.i.i79 = icmp eq i64 %_0.i1.i.i.i.i.i.i.i72, %_0.sroa.0.0.i
  br i1 %exitcond.not.i.i.i.i.i79, label %bb6.loopexit.i80, label %bb3.i.i.i.i.i66

cleanup1.loopexit.i69:                            ; preds = %bb3.i.i.i.i.i66
  %lpad.loopexit.i70 = landingpad { ptr, i32 }
          cleanup
  store i64 %new_len.i.i.i.i.i8.i.i.i.i.i67, ptr %_1.sroa.5.0._0.sroa_idx.i.i50, align 8, !noalias !140
  store i64 %new_len.i5.i.i.i.i.i.i.i.i7.i, ptr %x1.sroa.3.0..sroa_idx.i.i52, align 8, !noalias !140
  br label %cleanup1.i

cleanup1.loopexit.split-lp.i54:                   ; preds = %bb1.i.i5.i.i.i81, %bb1.i.i.i.i.i53
  %lpad.loopexit.split-lp.i55 = landingpad { ptr, i32 }
          cleanup
  br label %cleanup1.i

cleanup1.i:                                       ; preds = %cleanup1.loopexit.split-lp.i54, %cleanup1.loopexit.i69
  %lpad.phi.i = phi { ptr, i32 } [ %lpad.loopexit.i70, %cleanup1.loopexit.i69 ], [ %lpad.loopexit.split-lp.i55, %cleanup1.loopexit.split-lp.i54 ]
; call core::ptr::drop_in_place::<(alloc::vec::Vec<crossbeam_deque::deque::Worker<rayon_core::job::JobRef>>, alloc::vec::Vec<crossbeam_deque::deque::Stealer<rayon_core::job::JobRef>>)>
  call fastcc void @_RINvNtCsjMrxcFdYDNN_4core3ptr13drop_in_placeTINtNtCsdJPVW0sQgAG_5alloc3vec3VecINtNtCsd8NfRy8pW7m_15crossbeam_deque5deque6WorkerNtNtCsg3Flw6CsbJc_10rayon_core3job6JobRefEEIBI_INtB1h_7StealerB21_EEEEB25_(ptr noalias noundef align 8 dereferenceable(48) %unzipped.i48) #35, !noalias !140
; call core::ptr::drop_in_place::<alloc::vec::Vec<crossbeam_deque::deque::Stealer<rayon_core::job::JobRef>>>
  call fastcc void @_RINvNtCsjMrxcFdYDNN_4core3ptr13drop_in_placeINtNtCsdJPVW0sQgAG_5alloc3vec3VecINtNtCsd8NfRy8pW7m_15crossbeam_deque5deque7StealerNtNtCsg3Flw6CsbJc_10rayon_core3job6JobRefEEEB25_(ptr noalias noundef align 8 dereferenceable(24) %stealers) #35
  br label %bb52

bb6.loopexit.i80:                                 ; preds = %_RNCINvNtNtNtCsjMrxcFdYDNN_4core4iter8adapters3map8map_foldjTINtNtCsd8NfRy8pW7m_15crossbeam_deque5deque6WorkerNtNtCsg3Flw6CsbJc_10rayon_core3job6JobRefEINtBZ_7StealerB1J_EEuNCINvMs4_NtB1N_8registryNtB2T_8Registry3newNtB2T_12DefaultSpawnEs_0NCINvNvNtNtNtB8_6traits8iterator8Iterator8for_each4callBV_NCINvNvNtB40_7collect14default_extend18unchecked_extenderTINtNtCsdJPVW0sQgAG_5alloc3vec3VecBW_EIB5I_B2p_EEBV_E0E0E0B1N_.exit.i.i.i.i.i
  store i64 %new_len.i.i.i.i.i.i.i.i.i.i75, ptr %_1.sroa.5.0._0.sroa_idx.i.i50, align 8, !noalias !140
  store i64 %new_len.i5.i.i.i.i.i.i.i.i.i78, ptr %x1.sroa.3.0..sroa_idx.i.i52, align 8, !noalias !140
  br label %bb4

bb4:                                              ; preds = %bb6.loopexit.i80, %bb6.i.i83
  call void @llvm.memcpy.p0.p0.i64(ptr noundef nonnull align 8 dereferenceable(48) %_15, ptr noundef nonnull align 8 dereferenceable(48) %unzipped.i48, i64 48, i1 false)
  call void @llvm.lifetime.end.p0(i64 48, ptr nonnull %unzipped.i48), !noalias !140
  call void @llvm.memcpy.p0.p0.i64(ptr noundef nonnull align 8 dereferenceable(24) %broadcasts, ptr noundef nonnull align 8 dereferenceable(24) %_15, i64 24, i1 false)
  call void @llvm.lifetime.start.p0(i64 24, ptr nonnull %broadcast_stealers)
  %111 = getelementptr inbounds nuw i8, ptr %_15, i64 24
  call void @llvm.memcpy.p0.p0.i64(ptr noundef nonnull align 8 dereferenceable(24) %broadcast_stealers, ptr noundef nonnull align 8 dereferenceable(24) %111, i64 24, i1 false)
  call void @llvm.lifetime.end.p0(i64 48, ptr nonnull %_15)
  call void @llvm.lifetime.start.p0(i64 8, ptr nonnull %registry)
  call void @llvm.lifetime.start.p0(i64 24, ptr nonnull %_19)
  %112 = getelementptr inbounds nuw i8, ptr %stealers, i64 8
  %_135 = load ptr, ptr %112, align 8, !nonnull !2, !noundef !2
  %_133 = load i64, ptr %stealers, align 8, !range !56, !noundef !2
  %113 = getelementptr inbounds nuw i8, ptr %stealers, i64 16
  %_131 = load i64, ptr %113, align 8, !noundef !2
  %_82 = icmp ult i64 %_131, 576460752303423488
  tail call void @llvm.assume(i1 %_82)
  %_79.idx = shl nuw nsw i64 %_131, 4
  %_79 = getelementptr inbounds nuw i8, ptr %_135, i64 %_79.idx
  %_23.i.i.i.i = icmp eq i64 %_131, 0
  br i1 %_23.i.i.i.i, label %bb10.i.i.i.i.i.i, label %bb6.i.i.i.i

bb6.i.i.i.i:                                      ; preds = %bb4
  %_24.i.i.i.i = add nsw i64 %_131, -1
  %or.cond.i = icmp samesign ugt i64 %_24.i.i.i.i, 104811045873349724
  br i1 %or.cond.i, label %bb3.i.i87, label %_RNvXs_NtCsdJPVW0sQgAG_5alloc5allocNtB4_6GlobalNtNtCsjMrxcFdYDNN_4core5alloc9Allocator8allocate.exit.i.i.i, !prof !183

_RNvXs_NtCsdJPVW0sQgAG_5alloc5allocNtB4_6GlobalNtNtCsjMrxcFdYDNN_4core5alloc9Allocator8allocate.exit.i.i.i: ; preds = %bb6.i.i.i.i
  %_27.0.i.i.i.i = mul nuw nsw i64 %_24.i.i.i.i, 88
  %new_size2.i.i.i.i = add nuw nsw i64 %_27.0.i.i.i.i, 88
; call __rustc::__rust_no_alloc_shim_is_unstable_v2
  tail call void @_RNvCsKhRCbHf33p_7___rustc35___rust_no_alloc_shim_is_unstable_v2() #38, !noalias !184
; call __rustc::__rust_alloc
  %114 = tail call noundef align 8 ptr @_RNvCsKhRCbHf33p_7___rustc12___rust_alloc(i64 noundef %new_size2.i.i.i.i, i64 noundef range(i64 1, 129) 8) #38, !noalias !184
  %115 = icmp eq ptr %114, null
  br i1 %115, label %bb3.i.i87, label %bb6.i.i.i.i.i.i.preheader

bb6.i.i.i.i.i.i.preheader:                        ; preds = %_RNvXs_NtCsdJPVW0sQgAG_5alloc5allocNtB4_6GlobalNtNtCsjMrxcFdYDNN_4core5alloc9Allocator8allocate.exit.i.i.i
  %_7.sroa.6.i.i.i.i.i.i.i.6.sroa_idx = getelementptr inbounds nuw i8, ptr %_7.sroa.6.i.i.i.i.i.i.i, i64 6
  %_7.sroa.7.i.i.i.i.i.i.i.6.sroa_idx = getelementptr inbounds nuw i8, ptr %_7.sroa.7.i.i.i.i.i.i.i, i64 6
  br label %bb6.i.i.i.i.i.i

bb3.i.i87:                                        ; preds = %_RNvXs_NtCsdJPVW0sQgAG_5alloc5allocNtB4_6GlobalNtNtCsjMrxcFdYDNN_4core5alloc9Allocator8allocate.exit.i.i.i, %bb6.i.i.i.i
  %_4.sroa.4.0.ph.i.i = phi i64 [ 8, %_RNvXs_NtCsdJPVW0sQgAG_5alloc5allocNtB4_6GlobalNtNtCsjMrxcFdYDNN_4core5alloc9Allocator8allocate.exit.i.i.i ], [ 0, %bb6.i.i.i.i ]
  %_4.sroa.10.0.ph.i.i = phi i64 [ %new_size2.i.i.i.i, %_RNvXs_NtCsdJPVW0sQgAG_5alloc5allocNtB4_6GlobalNtNtCsjMrxcFdYDNN_4core5alloc9Allocator8allocate.exit.i.i.i ], [ undef, %bb6.i.i.i.i ]
; invoke alloc::raw_vec::handle_error
  invoke void @_RNvNtCsdJPVW0sQgAG_5alloc7raw_vec12handle_error(i64 noundef %_4.sroa.4.0.ph.i.i, i64 %_4.sroa.10.0.ph.i.i) #34
          to label %.noexc.i unwind label %bb6.i, !noalias !190

.noexc.i:                                         ; preds = %bb3.i.i87
  unreachable

bb6.i.i.i.i.i.i:                                  ; preds = %bb6.i.i.i.i.i.i.preheader, %bb6.i.i.i.i.i.i
  %116 = phi i64 [ %119, %bb6.i.i.i.i.i.i ], [ 0, %bb6.i.i.i.i.i.i.preheader ]
  %_40810.i.i.i.i.i.i = phi ptr [ %_40.i.i.i.i.i.i, %bb6.i.i.i.i.i.i ], [ %_135, %bb6.i.i.i.i.i.i.preheader ]
  %tmp.0.i.i.i.i.i.i = load ptr, ptr %_40810.i.i.i.i.i.i, align 8, !noalias !191, !nonnull !2, !noundef !2
  %117 = getelementptr inbounds nuw i8, ptr %_40810.i.i.i.i.i.i, i64 8
  %118 = load i8, ptr %117, align 8, !range !16, !noalias !191, !noundef !2
  %_40.i.i.i.i.i.i = getelementptr inbounds nuw i8, ptr %_40810.i.i.i.i.i.i, i64 16
  call void @llvm.lifetime.start.p0(i64 32, ptr nonnull %_7.sroa.6.i.i.i.i.i.i.i)
  call void @llvm.lifetime.start.p0(i64 30, ptr nonnull %_7.sroa.7.i.i.i.i.i.i.i)
  call void @llvm.memset.p0.i64(ptr noundef nonnull align 2 dereferenceable(26) %_7.sroa.6.i.i.i.i.i.i.i.6.sroa_idx, i8 0, i64 26, i1 false), !noalias !207
  call void @llvm.memset.p0.i64(ptr noundef nonnull align 2 dereferenceable(24) %_7.sroa.7.i.i.i.i.i.i.i.6.sroa_idx, i8 0, i64 24, i1 false), !noalias !207
  %_3.i.i.i.i.i.i.i.i.i = getelementptr inbounds nuw %"registry::ThreadInfo", ptr %114, i64 %116
  store i64 0, ptr %_3.i.i.i.i.i.i.i.i.i, align 8, !noalias !210
  %_5.sroa.4.0._3.i.i.sroa_idx.i.i.i.i.i.i.i = getelementptr inbounds nuw i8, ptr %_3.i.i.i.i.i.i.i.i.i, i64 8
  store i8 0, ptr %_5.sroa.4.0._3.i.i.sroa_idx.i.i.i.i.i.i.i, align 8, !noalias !210
  %_5.sroa.5.0._3.i.i.sroa_idx.i.i.i.i.i.i.i = getelementptr inbounds nuw i8, ptr %_3.i.i.i.i.i.i.i.i.i, i64 9
  store i8 0, ptr %_5.sroa.5.0._3.i.i.sroa_idx.i.i.i.i.i.i.i, align 1, !noalias !210
  %_5.sroa.6.0._3.i.i.sroa_idx.i.i.i.i.i.i.i = getelementptr inbounds nuw i8, ptr %_3.i.i.i.i.i.i.i.i.i, i64 10
  call void @llvm.memcpy.p0.p0.i64(ptr noundef nonnull align 2 dereferenceable(32) %_5.sroa.6.0._3.i.i.sroa_idx.i.i.i.i.i.i.i, ptr noundef nonnull align 2 dereferenceable(32) %_7.sroa.6.i.i.i.i.i.i.i, i64 32, i1 false), !noalias !207
  %_5.sroa.7.0._3.i.i.sroa_idx.i.i.i.i.i.i.i = getelementptr inbounds nuw i8, ptr %_3.i.i.i.i.i.i.i.i.i, i64 42
  call void @llvm.memcpy.p0.p0.i64(ptr noundef nonnull align 2 dereferenceable(30) %_5.sroa.7.0._3.i.i.sroa_idx.i.i.i.i.i.i.i, ptr noundef nonnull align 2 dereferenceable(30) %_7.sroa.7.i.i.i.i.i.i.i, i64 30, i1 false), !noalias !207
  %_5.sroa.8.0._3.i.i.sroa_idx.i.i.i.i.i.i.i = getelementptr inbounds nuw i8, ptr %_3.i.i.i.i.i.i.i.i.i, i64 72
  store ptr %tmp.0.i.i.i.i.i.i, ptr %_5.sroa.8.0._3.i.i.sroa_idx.i.i.i.i.i.i.i, align 8, !noalias !210
  %_5.sroa.9.0._3.i.i.sroa_idx.i.i.i.i.i.i.i = getelementptr inbounds nuw i8, ptr %_3.i.i.i.i.i.i.i.i.i, i64 80
  store i8 %118, ptr %_5.sroa.9.0._3.i.i.sroa_idx.i.i.i.i.i.i.i, align 8, !noalias !210
  %119 = add nuw nsw i64 %116, 1
  call void @llvm.lifetime.end.p0(i64 32, ptr nonnull %_7.sroa.6.i.i.i.i.i.i.i)
  call void @llvm.lifetime.end.p0(i64 30, ptr nonnull %_7.sroa.7.i.i.i.i.i.i.i)
  %_35.not.i.i.i.i.i.i = icmp eq ptr %_40.i.i.i.i.i.i, %_79
  br i1 %_35.not.i.i.i.i.i.i, label %bb10.i.i.i.i.i.i, label %bb6.i.i.i.i.i.i

bb10.i.i.i.i.i.i:                                 ; preds = %bb6.i.i.i.i.i.i, %bb4
  %vector.i.sroa.5.0 = phi ptr [ inttoptr (i64 8 to ptr), %bb4 ], [ %114, %bb6.i.i.i.i.i.i ]
  %f.val7.i.i.i.i.i.i = phi i64 [ 0, %bb4 ], [ %119, %bb6.i.i.i.i.i.i ]
  %120 = icmp eq i64 %_133, 0
  br i1 %120, label %bb53, label %bb2.i.i.i.i.i4.i.i.i.i.i.i.i.i

bb2.i.i.i.i.i4.i.i.i.i.i.i.i.i:                   ; preds = %bb10.i.i.i.i.i.i
  %alloc_size.i.i.i.i.i.i6.i.i.i.i.i.i.i.i = shl nuw i64 %_133, 4
; call __rustc::__rust_dealloc
  tail call void @_RNvCsKhRCbHf33p_7___rustc14___rust_dealloc(ptr noundef nonnull %_135, i64 noundef %alloc_size.i.i.i.i.i.i6.i.i.i.i.i.i.i.i, i64 noundef range(i64 1, -9223372036854775807) 8) #38, !noalias !215
  br label %bb53

bb6.i:                                            ; preds = %bb3.i.i87
  %121 = landingpad { ptr, i32 }
          cleanup
  tail call void @llvm.experimental.noalias.scope.decl(metadata !220), !noalias !223
  br label %bb5.i.i.i.i

bb5.i.i.i.i:                                      ; preds = %bb6.i, %_RINvNtCsjMrxcFdYDNN_4core3ptr13drop_in_placeINtNtCsd8NfRy8pW7m_15crossbeam_deque5deque7StealerNtNtCsg3Flw6CsbJc_10rayon_core3job6JobRefEEB1y_.exit.i.i.i.i
  %_3.sroa.0.010.i.i.i.i = phi i64 [ %122, %_RINvNtCsjMrxcFdYDNN_4core3ptr13drop_in_placeINtNtCsd8NfRy8pW7m_15crossbeam_deque5deque7StealerNtNtCsg3Flw6CsbJc_10rayon_core3job6JobRefEEB1y_.exit.i.i.i.i ], [ 0, %bb6.i ]
  %_6.i.i.i.i = getelementptr inbounds nuw %"crossbeam_deque::deque::Stealer<job::JobRef>", ptr %_135, i64 %_3.sroa.0.010.i.i.i.i
  %122 = add nuw i64 %_3.sroa.0.010.i.i.i.i, 1
  tail call void @llvm.experimental.noalias.scope.decl(metadata !224), !noalias !223
  tail call void @llvm.experimental.noalias.scope.decl(metadata !227), !noalias !223
  tail call void @llvm.experimental.noalias.scope.decl(metadata !230), !noalias !223
  %_10.i.i.i.i.i.i.i = load ptr, ptr %_6.i.i.i.i, align 8, !alias.scope !233, !noalias !234, !nonnull !2, !noundef !2
  %123 = atomicrmw sub ptr %_10.i.i.i.i.i.i.i, i64 1 release, align 8, !noalias !241
  %124 = icmp eq i64 %123, 1
  br i1 %124, label %bb2.i.i.i.i.i.i.i, label %_RINvNtCsjMrxcFdYDNN_4core3ptr13drop_in_placeINtNtCsd8NfRy8pW7m_15crossbeam_deque5deque7StealerNtNtCsg3Flw6CsbJc_10rayon_core3job6JobRefEEB1y_.exit.i.i.i.i

bb2.i.i.i.i.i.i.i:                                ; preds = %bb5.i.i.i.i
  fence acquire, !noalias !223
; call <alloc::sync::Arc<crossbeam_utils::cache_padded::CachePadded<crossbeam_deque::deque::Inner<rayon_core::job::JobRef>>>>::drop_slow
  tail call void @_RNvMsn_NtCsdJPVW0sQgAG_5alloc4syncINtB5_3ArcINtNtCs8jD91Rl7RDZ_15crossbeam_utils12cache_padded11CachePaddedINtNtCsd8NfRy8pW7m_15crossbeam_deque5deque5InnerNtNtCsg3Flw6CsbJc_10rayon_core3job6JobRefEEE9drop_slowB2x_(ptr noalias noundef nonnull readonly align 8 dereferenceable(16) %_6.i.i.i.i) #33, !noalias !234
  br label %_RINvNtCsjMrxcFdYDNN_4core3ptr13drop_in_placeINtNtCsd8NfRy8pW7m_15crossbeam_deque5deque7StealerNtNtCsg3Flw6CsbJc_10rayon_core3job6JobRefEEB1y_.exit.i.i.i.i

_RINvNtCsjMrxcFdYDNN_4core3ptr13drop_in_placeINtNtCsd8NfRy8pW7m_15crossbeam_deque5deque7StealerNtNtCsg3Flw6CsbJc_10rayon_core3job6JobRefEEB1y_.exit.i.i.i.i: ; preds = %bb2.i.i.i.i.i.i.i, %bb5.i.i.i.i
  %_7.i.i.i.i = icmp eq i64 %122, %_131
  br i1 %_7.i.i.i.i, label %bb2.i.i.i139, label %bb5.i.i.i.i

bb2.i.i.i139:                                     ; preds = %_RINvNtCsjMrxcFdYDNN_4core3ptr13drop_in_placeINtNtCsd8NfRy8pW7m_15crossbeam_deque5deque7StealerNtNtCsg3Flw6CsbJc_10rayon_core3job6JobRefEEB1y_.exit.i.i.i.i
  %125 = icmp eq i64 %_133, 0
  br i1 %125, label %bb49, label %bb2.i.i.i.i.i4.i.i.i

bb2.i.i.i.i.i4.i.i.i:                             ; preds = %bb2.i.i.i139
  %alloc_size.i.i.i.i.i.i6.i.i.i = shl nuw i64 %_133, 4
; call __rustc::__rust_dealloc
  tail call void @_RNvCsKhRCbHf33p_7___rustc14___rust_dealloc(ptr noundef nonnull %_135, i64 noundef %alloc_size.i.i.i.i.i.i6.i.i.i, i64 noundef range(i64 1, -9223372036854775807) 8) #38, !noalias !234
  br label %bb49

bb48:                                             ; preds = %bb2.i.i132
  %126 = landingpad { ptr, i32 }
          cleanup
  br label %bb39

bb53:                                             ; preds = %bb2.i.i.i.i.i4.i.i.i.i.i.i.i.i, %bb10.i.i.i.i.i.i
  store i64 %_131, ptr %_19, align 8, !noalias !242
  %vector.i.sroa.5.0._19.sroa_idx = getelementptr inbounds nuw i8, ptr %_19, i64 8
  store ptr %vector.i.sroa.5.0, ptr %vector.i.sroa.5.0._19.sroa_idx, align 8, !noalias !242
  %vector.i.sroa.7.0._19.sroa_idx = getelementptr inbounds nuw i8, ptr %_19, i64 16
  store i64 %f.val7.i.i.i.i.i.i, ptr %vector.i.sroa.7.0._19.sroa_idx, align 8, !noalias !242
  call void @llvm.lifetime.start.p0(i64 32, ptr nonnull %_22)
  tail call void @llvm.experimental.noalias.scope.decl(metadata !243)
  br i1 %_7.not.not.i.i.not, label %bb5, label %_RNvXs_NtCsdJPVW0sQgAG_5alloc5allocNtB4_6GlobalNtNtCsjMrxcFdYDNN_4core5alloc9Allocator8allocate.exit.i.i.i.i

_RNvXs_NtCsdJPVW0sQgAG_5alloc5allocNtB4_6GlobalNtNtCsjMrxcFdYDNN_4core5alloc9Allocator8allocate.exit.i.i.i.i: ; preds = %bb53
  %_24.i.i.i.i.i = shl nuw nsw i64 %_0.sroa.0.0.i, 7
; call __rustc::__rust_no_alloc_shim_is_unstable_v2
  tail call void @_RNvCsKhRCbHf33p_7___rustc35___rust_no_alloc_shim_is_unstable_v2() #38, !noalias !246
; call __rustc::__rust_alloc
  %127 = tail call noundef align 128 ptr @_RNvCsKhRCbHf33p_7___rustc12___rust_alloc(i64 noundef %_24.i.i.i.i.i, i64 noundef range(i64 1, 129) 128) #38, !noalias !246
  %128 = icmp eq ptr %127, null
  br i1 %128, label %bb3.i.i.i, label %bb3.i.i.i.i.i.i.i.preheader

bb3.i.i.i.i.i.i.i.preheader:                      ; preds = %_RNvXs_NtCsdJPVW0sQgAG_5alloc5allocNtB4_6GlobalNtNtCsjMrxcFdYDNN_4core5alloc9Allocator8allocate.exit.i.i.i.i
  %_7.sroa.6.i.i.i.i.i.i.i.i.6.sroa_idx = getelementptr inbounds nuw i8, ptr %_7.sroa.6.i.i.i.i.i.i.i.i, i64 6
  br label %bb3.i.i.i.i.i.i.i

bb3.i.i.i:                                        ; preds = %_RNvXs_NtCsdJPVW0sQgAG_5alloc5allocNtB4_6GlobalNtNtCsjMrxcFdYDNN_4core5alloc9Allocator8allocate.exit.i.i.i.i
; invoke alloc::raw_vec::handle_error
  invoke void @_RNvNtCsdJPVW0sQgAG_5alloc7raw_vec12handle_error(i64 noundef 128, i64 %_24.i.i.i.i.i) #34
          to label %.noexc94 unwind label %cleanup3

.noexc94:                                         ; preds = %bb3.i.i.i
  unreachable

bb3.i.i.i.i.i.i.i:                                ; preds = %bb3.i.i.i.i.i.i.i.preheader, %bb3.i.i.i.i.i.i.i
  %129 = phi i64 [ %130, %bb3.i.i.i.i.i.i.i ], [ 0, %bb3.i.i.i.i.i.i.i.preheader ]
  %130 = add nuw nsw i64 %129, 1
  call void @llvm.lifetime.start.p0(i64 22, ptr nonnull %_7.sroa.6.i.i.i.i.i.i.i.i)
  call void @llvm.memset.p0.i64(ptr noundef nonnull align 2 dereferenceable(16) %_7.sroa.6.i.i.i.i.i.i.i.i.6.sroa_idx, i8 0, i64 16, i1 false), !noalias !251
  %_3.i.i.i8.i.i.i.i.i.i.i = getelementptr inbounds nuw %"crossbeam_utils::cache_padded::CachePadded<sleep::WorkerSleepState>", ptr %127, i64 %129
  store i64 0, ptr %_3.i.i.i8.i.i.i.i.i.i.i, align 128, !noalias !264
  %_5.sroa.4.0._3.i.i.sroa_idx.i.i.i.i.i.i.i.i = getelementptr inbounds nuw i8, ptr %_3.i.i.i8.i.i.i.i.i.i.i, i64 8
  store i8 0, ptr %_5.sroa.4.0._3.i.i.sroa_idx.i.i.i.i.i.i.i.i, align 8, !noalias !264
  %_5.sroa.5.0._3.i.i.sroa_idx.i.i.i.i.i.i.i.i = getelementptr inbounds nuw i8, ptr %_3.i.i.i8.i.i.i.i.i.i.i, i64 9
  store i8 0, ptr %_5.sroa.5.0._3.i.i.sroa_idx.i.i.i.i.i.i.i.i, align 1, !noalias !264
  %_5.sroa.6.0._3.i.i.sroa_idx.i.i.i.i.i.i.i.i = getelementptr inbounds nuw i8, ptr %_3.i.i.i8.i.i.i.i.i.i.i, i64 10
  call void @llvm.memcpy.p0.p0.i64(ptr noundef nonnull align 2 dereferenceable(22) %_5.sroa.6.0._3.i.i.sroa_idx.i.i.i.i.i.i.i.i, ptr noundef nonnull align 2 dereferenceable(22) %_7.sroa.6.i.i.i.i.i.i.i.i, i64 22, i1 false), !noalias !251
  call void @llvm.lifetime.end.p0(i64 22, ptr nonnull %_7.sroa.6.i.i.i.i.i.i.i.i)
  %exitcond.not.i.i.i.i.i.i.i = icmp eq i64 %130, %_0.sroa.0.0.i
  br i1 %exitcond.not.i.i.i.i.i.i.i, label %bb5, label %bb3.i.i.i.i.i.i.i

bb36:                                             ; preds = %cleanup4, %cleanup3
  %.pn = phi { ptr, i32 } [ %131, %cleanup3 ], [ %134, %cleanup4 ]
; invoke core::ptr::drop_in_place::<alloc::vec::Vec<rayon_core::registry::ThreadInfo>>
  invoke fastcc void @_RINvNtCsjMrxcFdYDNN_4core3ptr13drop_in_placeINtNtCsdJPVW0sQgAG_5alloc3vec3VecNtNtCsg3Flw6CsbJc_10rayon_core8registry10ThreadInfoEEB1h_(ptr noalias noundef align 8 dereferenceable(24) %_19) #35
          to label %bb49 unwind label %terminate

cleanup3:                                         ; preds = %bb3.i.i.i
  %131 = landingpad { ptr, i32 }
          cleanup
  br label %bb36

bb5:                                              ; preds = %bb3.i.i.i.i.i.i.i, %bb53
  %vector.sroa.5.0.i.i = phi ptr [ inttoptr (i64 128 to ptr), %bb53 ], [ %127, %bb3.i.i.i.i.i.i.i ]
  store i64 %_0.sroa.0.0.i, ptr %_22, align 8, !alias.scope !243
  %_4.sroa.4.0._0.sroa_idx.i = getelementptr inbounds nuw i8, ptr %_22, i64 8
  store ptr %vector.sroa.5.0.i.i, ptr %_4.sroa.4.0._0.sroa_idx.i, align 8, !alias.scope !243
  %_4.sroa.5.0._0.sroa_idx.i = getelementptr inbounds nuw i8, ptr %_22, i64 16
  store i64 %_0.sroa.0.0.i, ptr %_4.sroa.5.0._0.sroa_idx.i, align 8, !alias.scope !243
  %132 = getelementptr inbounds nuw i8, ptr %_22, i64 24
  store i64 0, ptr %132, align 8, !alias.scope !243
; call __rustc::__rust_no_alloc_shim_is_unstable_v2
  tail call void @_RNvCsKhRCbHf33p_7___rustc35___rust_no_alloc_shim_is_unstable_v2() #38
; call __rustc::__rust_alloc_zeroed
  %ptr.i = tail call noundef align 8 dereferenceable_or_null(1520) ptr @_RNvCsKhRCbHf33p_7___rustc19___rust_alloc_zeroed(i64 noundef 1520, i64 noundef 8) #38
  %133 = icmp eq ptr %ptr.i, null
  br i1 %133, label %bb1.i, label %bb54, !prof !6

bb1.i:                                            ; preds = %bb5
; invoke alloc::alloc::handle_alloc_error
  invoke void @_RNvNtCsdJPVW0sQgAG_5alloc5alloc18handle_alloc_error(i64 noundef 8, i64 noundef 1520) #34
          to label %.noexc96 unwind label %cleanup4

.noexc96:                                         ; preds = %bb1.i
  unreachable

cleanup4:                                         ; preds = %bb1.i
  %134 = landingpad { ptr, i32 }
          cleanup
; invoke core::ptr::drop_in_place::<alloc::vec::Vec<crossbeam_utils::cache_padded::CachePadded<rayon_core::sleep::WorkerSleepState>>>
  invoke fastcc void @_RINvNtCsjMrxcFdYDNN_4core3ptr13drop_in_placeINtNtCsdJPVW0sQgAG_5alloc3vec3VecINtNtCs8jD91Rl7RDZ_15crossbeam_utils12cache_padded11CachePaddedNtNtCsg3Flw6CsbJc_10rayon_core5sleep16WorkerSleepStateEEEB2i_(ptr noalias noundef nonnull readonly align 8 dereferenceable(32) %_22)
          to label %bb36 unwind label %terminate

bb54:                                             ; preds = %bb5
  call void @llvm.lifetime.start.p0(i64 31, ptr nonnull %_24.sroa.5)
  %_24.sroa.5.16.sroa_idx = getelementptr inbounds nuw i8, ptr %_24.sroa.5, i64 7
  call void @llvm.memcpy.p0.p0.i64(ptr noundef nonnull align 1 dereferenceable(24) %_24.sroa.5.16.sroa_idx, ptr noundef nonnull align 8 dereferenceable(24) %broadcasts, i64 24, i1 false)
  %135 = getelementptr inbounds nuw i8, ptr %builder, i64 24
  %136 = getelementptr inbounds nuw i8, ptr %builder, i64 56
  %137 = getelementptr inbounds nuw i8, ptr %builder, i64 72
  %_18.sroa.13.0..sroa_idx = getelementptr inbounds nuw i8, ptr %_99, i64 512
  call void @llvm.lifetime.start.p0(i64 640, ptr nonnull %_99)
  call void @llvm.memcpy.p0.p0.i64(ptr noundef nonnull align 128 dereferenceable(24) %_18.sroa.13.0..sroa_idx, ptr noundef nonnull align 8 dereferenceable(24) %_19, i64 24, i1 false)
  %_18.sroa.12.0..sroa_idx = getelementptr inbounds nuw i8, ptr %_99, i64 480
  call void @llvm.memcpy.p0.p0.i64(ptr noundef nonnull align 32 dereferenceable(32) %_18.sroa.12.0..sroa_idx, ptr noundef nonnull align 8 dereferenceable(32) %_22, i64 32, i1 false)
  %_18.sroa.10.sroa.5.0._18.sroa.10.0..sroa_idx.sroa_idx = getelementptr inbounds nuw i8, ptr %_99, i64 441
  call void @llvm.memcpy.p0.p0.i64(ptr noundef nonnull align 1 dereferenceable(31) %_18.sroa.10.sroa.5.0._18.sroa.10.0..sroa_idx.sroa_idx, ptr noundef nonnull align 1 dereferenceable(31) %_24.sroa.5, i64 31, i1 false)
  call void @llvm.lifetime.end.p0(i64 31, ptr nonnull %_24.sroa.5)
  call void @llvm.lifetime.end.p0(i64 32, ptr nonnull %_22)
  call void @llvm.lifetime.end.p0(i64 24, ptr nonnull %_19)
  store <2 x i64> splat (i64 1), ptr %_99, align 128
  %138 = getelementptr inbounds nuw i8, ptr %_99, i64 128
  store i64 0, ptr %138, align 128
  %_18.sroa.0.sroa.4.0..sroa_idx = getelementptr inbounds nuw i8, ptr %_99, i64 136
  store ptr %ptr.i, ptr %_18.sroa.0.sroa.4.0..sroa_idx, align 8
  %_18.sroa.0.sroa.6.0..sroa_idx = getelementptr inbounds nuw i8, ptr %_99, i64 256
  store i64 0, ptr %_18.sroa.0.sroa.6.0..sroa_idx, align 128
  %_18.sroa.0.sroa.7.0..sroa_idx = getelementptr inbounds nuw i8, ptr %_99, i64 264
  store ptr %ptr.i, ptr %_18.sroa.0.sroa.7.0..sroa_idx, align 8
  %_18.sroa.4.0..sroa_idx = getelementptr inbounds nuw i8, ptr %_99, i64 384
  %139 = load <2 x ptr>, ptr %135, align 8
  store ptr null, ptr %135, align 8
  store <2 x ptr> %139, ptr %_18.sroa.4.0..sroa_idx, align 128
  %_18.sroa.6.0..sroa_idx = getelementptr inbounds nuw i8, ptr %_99, i64 400
  %140 = load <2 x ptr>, ptr %136, align 8
  store ptr null, ptr %136, align 8
  store <2 x ptr> %140, ptr %_18.sroa.6.0..sroa_idx, align 16
  %_18.sroa.8.0..sroa_idx = getelementptr inbounds nuw i8, ptr %_99, i64 416
  %141 = load <2 x ptr>, ptr %137, align 8
  store ptr null, ptr %137, align 8
  store <2 x ptr> %141, ptr %_18.sroa.8.0..sroa_idx, align 32
  %_18.sroa.10.0..sroa_idx = getelementptr inbounds nuw i8, ptr %_99, i64 432
  store i64 0, ptr %_18.sroa.10.0..sroa_idx, align 16
  %_18.sroa.10.sroa.4.0._18.sroa.10.0..sroa_idx.sroa_idx = getelementptr inbounds nuw i8, ptr %_99, i64 440
  store i8 0, ptr %_18.sroa.10.sroa.4.0._18.sroa.10.0..sroa_idx.sroa_idx, align 8
  %_18.sroa.11.0..sroa_idx = getelementptr inbounds nuw i8, ptr %_99, i64 472
  store i64 1, ptr %_18.sroa.11.0..sroa_idx, align 8
; call __rustc::__rust_no_alloc_shim_is_unstable_v2
  tail call void @_RNvCsKhRCbHf33p_7___rustc35___rust_no_alloc_shim_is_unstable_v2() #38, !noalias !269
; call __rustc::__rust_alloc
  %142 = tail call noundef align 128 dereferenceable_or_null(640) ptr @_RNvCsKhRCbHf33p_7___rustc12___rust_alloc(i64 noundef 640, i64 noundef range(i64 1, -9223372036854775807) 128) #38, !noalias !269
  %143 = icmp eq ptr %142, null
  br i1 %143, label %bb2.i99, label %bb6, !prof !6

bb2.i99:                                          ; preds = %bb54
; invoke alloc::alloc::handle_alloc_error
  invoke void @_RNvNtCsdJPVW0sQgAG_5alloc5alloc18handle_alloc_error(i64 noundef 128, i64 noundef 640) #34
          to label %.noexc100 unwind label %cleanup.i

.noexc100:                                        ; preds = %bb2.i99
  unreachable

cleanup.i:                                        ; preds = %bb2.i99
  %144 = landingpad { ptr, i32 }
          cleanup
; invoke core::ptr::drop_in_place::<rayon_core::registry::Registry>
  invoke fastcc void @_RINvNtCsjMrxcFdYDNN_4core3ptr13drop_in_placeNtNtCsg3Flw6CsbJc_10rayon_core8registry8RegistryEBK_(ptr noalias noundef align 128 dereferenceable(512) %138)
          to label %bb47 unwind label %terminate.i

terminate.i:                                      ; preds = %cleanup.i
  %145 = landingpad { ptr, i32 }
          filter [0 x ptr] zeroinitializer
; call core::panicking::panic_in_cleanup
  call void @_RNvNtCsjMrxcFdYDNN_4core9panicking16panic_in_cleanup() #36
  unreachable

bb6:                                              ; preds = %bb54
  call void @llvm.memcpy.p0.p0.i64(ptr noundef nonnull align 128 dereferenceable(640) %142, ptr noundef nonnull align 128 dereferenceable(640) %_99, i64 640, i1 false)
  call void @llvm.lifetime.end.p0(i64 640, ptr nonnull %_99)
  store ptr %142, ptr %registry, align 8
  %146 = getelementptr inbounds nuw i8, ptr %workers, i64 8
  %_136 = load ptr, ptr %146, align 8, !nonnull !2, !noundef !2
  %_134 = load i64, ptr %workers, align 8, !range !56, !noundef !2
  %147 = getelementptr inbounds nuw i8, ptr %workers, i64 16
  %_132 = load i64, ptr %147, align 8, !noundef !2
  %_112 = icmp ult i64 %_132, 288230376151711744
  tail call void @llvm.assume(i1 %_112)
  %_109.idx = shl nuw nsw i64 %_132, 5
  %_109 = getelementptr inbounds nuw i8, ptr %_136, i64 %_109.idx
  %_35.sroa.0.0.copyload = load i64, ptr %broadcast_stealers, align 8
  %_35.sroa.4.0.broadcast_stealers.sroa_idx = getelementptr inbounds nuw i8, ptr %broadcast_stealers, i64 8
  %_35.sroa.4.0.copyload = load ptr, ptr %_35.sroa.4.0.broadcast_stealers.sroa_idx, align 8, !nonnull !2, !noundef !2
  %_35.sroa.5.0.broadcast_stealers.sroa_idx = getelementptr inbounds nuw i8, ptr %broadcast_stealers, i64 16
  %_35.sroa.5.0.copyload = load i64, ptr %_35.sroa.5.0.broadcast_stealers.sroa_idx, align 8
  %_33.i.i = icmp ult i64 %_35.sroa.5.0.copyload, 576460752303423488
  tail call void @llvm.assume(i1 %_33.i.i)
  %_16.i.i = getelementptr inbounds nuw %"crossbeam_deque::deque::Stealer<job::JobRef>", ptr %_35.sroa.4.0.copyload, i64 %_35.sroa.5.0.copyload
  %_32.sroa.0.sroa.6.0.iter.sroa_idx = getelementptr inbounds nuw i8, ptr %iter, i64 64
  call void @llvm.lifetime.start.p0(i64 88, ptr nonnull %iter)
  call void @llvm.memset.p0.i64(ptr noundef nonnull align 8 dereferenceable(16) %_32.sroa.0.sroa.6.0.iter.sroa_idx, i8 0, i64 16, i1 false)
  store ptr %_136, ptr %iter, align 8
  %_32.sroa.0.sroa.0.sroa.2.0.iter.sroa_idx = getelementptr inbounds nuw i8, ptr %iter, i64 8
  %_32.sroa.0.sroa.0.sroa.3.0.iter.sroa_idx = getelementptr inbounds nuw i8, ptr %iter, i64 16
  store i64 %_134, ptr %_32.sroa.0.sroa.0.sroa.3.0.iter.sroa_idx, align 8
  %_32.sroa.0.sroa.0.sroa.4.0.iter.sroa_idx = getelementptr inbounds nuw i8, ptr %iter, i64 24
  store ptr %_109, ptr %_32.sroa.0.sroa.0.sroa.4.0.iter.sroa_idx, align 8
  %_32.sroa.0.sroa.2.0.iter.sroa_idx = getelementptr inbounds nuw i8, ptr %iter, i64 32
  store ptr %_35.sroa.4.0.copyload, ptr %_32.sroa.0.sroa.2.0.iter.sroa_idx, align 8
  %_32.sroa.0.sroa.3.0.iter.sroa_idx = getelementptr inbounds nuw i8, ptr %iter, i64 40
  %_32.sroa.0.sroa.4.0.iter.sroa_idx = getelementptr inbounds nuw i8, ptr %iter, i64 48
  store i64 %_35.sroa.0.0.copyload, ptr %_32.sroa.0.sroa.4.0.iter.sroa_idx, align 8
  %_32.sroa.0.sroa.5.0.iter.sroa_idx = getelementptr inbounds nuw i8, ptr %iter, i64 56
  store ptr %_16.i.i, ptr %_32.sroa.0.sroa.5.0.iter.sroa_idx, align 8
  %_32.sroa.2.0.iter.sroa_idx = getelementptr inbounds nuw i8, ptr %iter, i64 80
  call void @llvm.lifetime.start.p0(i64 32, ptr nonnull %x.i.i.i), !noalias !272
  %_9.i.i.i.i280 = icmp eq i64 %_132, 0
  br i1 %_9.i.i.i.i280, label %bb11.loopexit, label %_RNvXs4_NtNtCsdJPVW0sQgAG_5alloc3vec9into_iterINtB5_8IntoIterINtNtCsd8NfRy8pW7m_15crossbeam_deque5deque6WorkerNtNtCsg3Flw6CsbJc_10rayon_core3job6JobRefEENtNtNtNtCsjMrxcFdYDNN_4core4iter6traits8iterator8Iterator4nextB1N_.exit.i.i.i.lr.ph

_RNvXs4_NtNtCsdJPVW0sQgAG_5alloc3vec9into_iterINtB5_8IntoIterINtNtCsd8NfRy8pW7m_15crossbeam_deque5deque6WorkerNtNtCsg3Flw6CsbJc_10rayon_core3job6JobRefEENtNtNtNtCsjMrxcFdYDNN_4core4iter6traits8iterator8Iterator4nextB1N_.exit.i.i.i.lr.ph: ; preds = %bb6
  %val.sroa.5.0.x.sroa_idx.i.i.i = getelementptr inbounds nuw i8, ptr %x.i.i.i, i64 25
  %val.sroa.4.0.x.sroa_idx.i.i.i = getelementptr inbounds nuw i8, ptr %x.i.i.i, i64 24
  %_37.sroa.9.8.worker.sroa_idx = getelementptr inbounds nuw i8, ptr %worker, i64 24
  %_37.sroa.12.8.worker.sroa_idx = getelementptr inbounds nuw i8, ptr %worker, i64 25
  %148 = getelementptr inbounds nuw i8, ptr %stealer, i64 8
  %149 = getelementptr inbounds nuw i8, ptr %builder, i64 40
  %150 = getelementptr inbounds nuw i8, ptr %builder, i64 48
  %_46.0 = load i64, ptr %builder, align 8, !range !33
  %151 = getelementptr inbounds nuw i8, ptr %builder, i64 8
  %_46.1 = load i64, ptr %151, align 8
  %152 = getelementptr inbounds nuw i8, ptr %thread, i64 16
  %153 = getelementptr inbounds nuw i8, ptr %thread, i64 8
  %154 = getelementptr inbounds nuw i8, ptr %thread, i64 56
  %155 = getelementptr inbounds nuw i8, ptr %thread, i64 40
  %156 = getelementptr inbounds nuw i8, ptr %thread, i64 48
  %157 = getelementptr inbounds nuw i8, ptr %thread, i64 88
  %158 = getelementptr inbounds nuw i8, ptr %thread, i64 96
  %159 = getelementptr inbounds nuw i8, ptr %builder, i64 88
  %160 = load i8, ptr %159, align 8, !range !16
  %_50 = trunc nuw i8 %160 to i1
  %_3.i.i.i.i = tail call nonnull align 8 ptr @llvm.threadlocal.address.p0(ptr @_RNvNCNKNvNtCsg3Flw6CsbJc_10rayon_core8registry19WORKER_THREAD_STATE0s_023___RUST_STD_INTERNAL_VAL)
  %161 = getelementptr inbounds nuw i8, ptr %142, i64 528
  %162 = getelementptr inbounds nuw i8, ptr %142, i64 520
  %builder.val37 = load ptr, ptr %149, align 8, !align !282
  %builder.val38 = load ptr, ptr %150, align 8
  %.not.i108 = icmp eq ptr %builder.val37, null
  %163 = icmp ne ptr %builder.val38, null
  %164 = getelementptr inbounds nuw i8, ptr %builder.val38, i64 32
  br label %_RNvXs4_NtNtCsdJPVW0sQgAG_5alloc3vec9into_iterINtB5_8IntoIterINtNtCsd8NfRy8pW7m_15crossbeam_deque5deque6WorkerNtNtCsg3Flw6CsbJc_10rayon_core3job6JobRefEENtNtNtNtCsjMrxcFdYDNN_4core4iter6traits8iterator8Iterator4nextB1N_.exit.i.i.i

_RNvXs4_NtNtCsdJPVW0sQgAG_5alloc3vec9into_iterINtB5_8IntoIterINtNtCsd8NfRy8pW7m_15crossbeam_deque5deque6WorkerNtNtCsg3Flw6CsbJc_10rayon_core3job6JobRefEENtNtNtNtCsjMrxcFdYDNN_4core4iter6traits8iterator8Iterator4nextB1N_.exit.i.i.i: ; preds = %_RNvXs4_NtNtCsdJPVW0sQgAG_5alloc3vec9into_iterINtB5_8IntoIterINtNtCsd8NfRy8pW7m_15crossbeam_deque5deque6WorkerNtNtCsg3Flw6CsbJc_10rayon_core3job6JobRefEENtNtNtNtCsjMrxcFdYDNN_4core4iter6traits8iterator8Iterator4nextB1N_.exit.i.i.i.lr.ph, %bb7.backedge
  %_21.i.i.i.i144284 = phi ptr [ %_136, %_RNvXs4_NtNtCsdJPVW0sQgAG_5alloc3vec9into_iterINtB5_8IntoIterINtNtCsd8NfRy8pW7m_15crossbeam_deque5deque6WorkerNtNtCsg3Flw6CsbJc_10rayon_core3job6JobRefEENtNtNtNtCsjMrxcFdYDNN_4core4iter6traits8iterator8Iterator4nextB1N_.exit.i.i.i.lr.ph ], [ %_23.i.i.i.i104, %bb7.backedge ]
  %_21.i7.i.i.i146283 = phi ptr [ %_35.sroa.4.0.copyload, %_RNvXs4_NtNtCsdJPVW0sQgAG_5alloc3vec9into_iterINtB5_8IntoIterINtNtCsd8NfRy8pW7m_15crossbeam_deque5deque6WorkerNtNtCsg3Flw6CsbJc_10rayon_core3job6JobRefEENtNtNtNtCsjMrxcFdYDNN_4core4iter6traits8iterator8Iterator4nextB1N_.exit.i.i.i.lr.ph ], [ %_23.i10.i.i.i, %bb7.backedge ]
  %165 = phi i64 [ 0, %_RNvXs4_NtNtCsdJPVW0sQgAG_5alloc3vec9into_iterINtB5_8IntoIterINtNtCsd8NfRy8pW7m_15crossbeam_deque5deque6WorkerNtNtCsg3Flw6CsbJc_10rayon_core3job6JobRefEENtNtNtNtCsjMrxcFdYDNN_4core4iter6traits8iterator8Iterator4nextB1N_.exit.i.i.i.lr.ph ], [ %.be, %bb7.backedge ]
  %_8.0.i271281 = phi i64 [ 0, %_RNvXs4_NtNtCsdJPVW0sQgAG_5alloc3vec9into_iterINtB5_8IntoIterINtNtCsd8NfRy8pW7m_15crossbeam_deque5deque6WorkerNtNtCsg3Flw6CsbJc_10rayon_core3job6JobRefEENtNtNtNtCsjMrxcFdYDNN_4core4iter6traits8iterator8Iterator4nextB1N_.exit.i.i.i.lr.ph ], [ %_8.0.i, %bb7.backedge ]
  %_23.i.i.i.i104 = getelementptr inbounds nuw i8, ptr %_21.i.i.i.i144284, i64 32
  %self1.sroa.5.0._21.i.sroa_idx.i.i.i = getelementptr inbounds nuw i8, ptr %_21.i.i.i.i144284, i64 24
  %self1.sroa.5.0.copyload14.i.i.i = load i8, ptr %self1.sroa.5.0._21.i.sroa_idx.i.i.i, align 8, !noalias !283
  %.not.i.i.i = icmp eq i8 %self1.sroa.5.0.copyload14.i.i.i, 2
  br i1 %.not.i.i.i, label %bb11.loopexit, label %bb9.i.i.i105

bb9.i.i.i105:                                     ; preds = %_RNvXs4_NtNtCsdJPVW0sQgAG_5alloc3vec9into_iterINtB5_8IntoIterINtNtCsd8NfRy8pW7m_15crossbeam_deque5deque6WorkerNtNtCsg3Flw6CsbJc_10rayon_core3job6JobRefEENtNtNtNtCsjMrxcFdYDNN_4core4iter6traits8iterator8Iterator4nextB1N_.exit.i.i.i
  %self1.sroa.7.0._21.i.sroa_idx.i.i.i = getelementptr inbounds nuw i8, ptr %_21.i.i.i.i144284, i64 25
  call void @llvm.memcpy.p0.p0.i64(ptr noundef nonnull align 8 dereferenceable(24) %x.i.i.i, ptr noundef nonnull align 8 dereferenceable(24) %_21.i.i.i.i144284, i64 24, i1 false), !noalias !289
  call void @llvm.memcpy.p0.p0.i64(ptr noundef nonnull align 1 dereferenceable(7) %val.sroa.5.0.x.sroa_idx.i.i.i, ptr noundef nonnull align 1 dereferenceable(7) %self1.sroa.7.0._21.i.sroa_idx.i.i.i, i64 7, i1 false), !noalias !289
  store i8 %self1.sroa.5.0.copyload14.i.i.i, ptr %val.sroa.4.0.x.sroa_idx.i.i.i, align 8, !noalias !289
  %_9.i8.i.i.i = icmp eq ptr %_21.i7.i.i.i146283, %_16.i.i
  br i1 %_9.i8.i.i.i, label %bb10.i.i.i, label %bb10

bb10.i.i.i:                                       ; preds = %bb9.i.i.i105
  store ptr %_23.i.i.i.i104, ptr %_32.sroa.0.sroa.0.sroa.2.0.iter.sroa_idx, align 8
  store ptr %_16.i.i, ptr %_32.sroa.0.sroa.3.0.iter.sroa_idx, align 8
  store i64 %_8.0.i271281, ptr %_32.sroa.2.0.iter.sroa_idx, align 8
  call void @llvm.experimental.noalias.scope.decl(metadata !290)
  call void @llvm.experimental.noalias.scope.decl(metadata !293)
  call void @llvm.experimental.noalias.scope.decl(metadata !296)
  %_10.i.i.i11.i.i.i = load ptr, ptr %x.i.i.i, align 8, !alias.scope !299, !noalias !289, !nonnull !2, !noundef !2
  %166 = atomicrmw sub ptr %_10.i.i.i11.i.i.i, i64 1 release, align 8, !noalias !300
  %167 = icmp eq i64 %166, 1
  br i1 %167, label %bb2.i.i.i12.i.i.i, label %bb11

bb2.i.i.i12.i.i.i:                                ; preds = %bb10.i.i.i
  fence acquire
; call <alloc::sync::Arc<crossbeam_utils::cache_padded::CachePadded<crossbeam_deque::deque::Inner<rayon_core::job::JobRef>>>>::drop_slow
  call void @_RNvMsn_NtCsdJPVW0sQgAG_5alloc4syncINtB5_3ArcINtNtCs8jD91Rl7RDZ_15crossbeam_utils12cache_padded11CachePaddedINtNtCsd8NfRy8pW7m_15crossbeam_deque5deque5InnerNtNtCsg3Flw6CsbJc_10rayon_core3job6JobRefEEE9drop_slowB2x_(ptr noalias noundef nonnull readonly align 8 dereferenceable(32) %x.i.i.i) #33, !noalias !289
  br label %bb11

bb33:                                             ; preds = %cleanup8.loopexit, %cleanup8.loopexit.split-lp, %cleanup.i32, %bb2.i.i.i138, %bb45, %bb44
  %.pn23.pn = phi { ptr, i32 } [ %172, %bb44 ], [ %200, %bb45 ], [ %200, %bb2.i.i.i138 ], [ %187, %cleanup.i32 ], [ %lpad.loopexit, %cleanup8.loopexit ], [ %lpad.loopexit.split-lp, %cleanup8.loopexit.split-lp ]
; call core::ptr::drop_in_place::<core::iter::adapters::enumerate::Enumerate<core::iter::adapters::zip::Zip<alloc::vec::into_iter::IntoIter<crossbeam_deque::deque::Worker<rayon_core::job::JobRef>>, alloc::vec::into_iter::IntoIter<crossbeam_deque::deque::Stealer<rayon_core::job::JobRef>>>>>
  call fastcc void @_RINvNtCsjMrxcFdYDNN_4core3ptr13drop_in_placeINtNtNtNtB4_4iter8adapters9enumerate9EnumerateINtNtBL_3zip3ZipINtNtNtCsdJPVW0sQgAG_5alloc3vec9into_iter8IntoIterINtNtCsd8NfRy8pW7m_15crossbeam_deque5deque6WorkerNtNtCsg3Flw6CsbJc_10rayon_core3job6JobRefEEIB1H_INtB2x_7StealerB3h_EEEEEB3l_(ptr noalias noundef align 8 dereferenceable(88) %iter) #35
; invoke core::ptr::drop_in_place::<rayon_core::registry::Terminator>
  invoke fastcc void @_RINvNtCsjMrxcFdYDNN_4core3ptr13drop_in_placeNtNtCsg3Flw6CsbJc_10rayon_core8registry10TerminatorEBK_(ptr nonnull %registry) #35
          to label %bb34 unwind label %terminate

bb10:                                             ; preds = %bb9.i.i.i105
  %_23.i10.i.i.i = getelementptr inbounds nuw i8, ptr %_21.i7.i.i.i146283, i64 16
  %_17.0.i.i.i.i = load ptr, ptr %_21.i7.i.i.i146283, align 8, !noalias !301, !nonnull !2, !noundef !2
  %168 = getelementptr inbounds nuw i8, ptr %_21.i7.i.i.i146283, i64 8
  %169 = load i8, ptr %168, align 8, !range !16, !noalias !301, !noundef !2
  call void @llvm.lifetime.start.p0(i64 32, ptr nonnull %worker)
  call void @llvm.memcpy.p0.p0.i64(ptr noundef nonnull align 8 dereferenceable(24) %worker, ptr noundef nonnull align 8 dereferenceable(24) %_21.i.i.i.i144284, i64 24, i1 false)
  call void @llvm.memcpy.p0.p0.i64(ptr noundef nonnull align 1 dereferenceable(7) %_37.sroa.12.8.worker.sroa_idx, ptr noundef nonnull align 1 dereferenceable(7) %self1.sroa.7.0._21.i.sroa_idx.i.i.i, i64 7, i1 false)
  call void @llvm.lifetime.end.p0(i64 32, ptr nonnull %x.i.i.i), !noalias !289
  %_8.0.i = add i64 %165, 1
  store i8 %self1.sroa.5.0.copyload14.i.i.i, ptr %_37.sroa.9.8.worker.sroa_idx, align 8
  call void @llvm.lifetime.start.p0(i64 16, ptr nonnull %stealer)
  store ptr %_17.0.i.i.i.i, ptr %stealer, align 8
  store i8 %169, ptr %148, align 8
  call void @llvm.lifetime.start.p0(i64 24, ptr nonnull %_44)
  call void @llvm.experimental.noalias.scope.decl(metadata !304)
  br i1 %.not.i108, label %bb3.i111, label %bb4.i109

bb4.i109:                                         ; preds = %bb10
  call void @llvm.assume(i1 %163)
  %170 = load ptr, ptr %164, align 8, !invariant.load !2, !noalias !304, !nonnull !2
  invoke void %170(ptr noalias noundef nonnull sret([24 x i8]) align 8 captures(address) dereferenceable(24) %_44, ptr noundef nonnull align 1 %builder.val37, i64 noundef %165) #39
          to label %bb12 unwind label %bb43

bb3.i111:                                         ; preds = %bb10
  store i64 -9223372036854775808, ptr %_44, align 8, !alias.scope !304
  br label %bb12

bb11.loopexit:                                    ; preds = %bb7.backedge, %_RNvXs4_NtNtCsdJPVW0sQgAG_5alloc3vec9into_iterINtB5_8IntoIterINtNtCsd8NfRy8pW7m_15crossbeam_deque5deque6WorkerNtNtCsg3Flw6CsbJc_10rayon_core3job6JobRefEENtNtNtNtCsjMrxcFdYDNN_4core4iter6traits8iterator8Iterator4nextB1N_.exit.i.i.i, %bb6
  %_8.0.i271.lcssa = phi i64 [ 0, %bb6 ], [ %_8.0.i, %bb7.backedge ], [ %_8.0.i271281, %_RNvXs4_NtNtCsdJPVW0sQgAG_5alloc3vec9into_iterINtB5_8IntoIterINtNtCsd8NfRy8pW7m_15crossbeam_deque5deque6WorkerNtNtCsg3Flw6CsbJc_10rayon_core3job6JobRefEENtNtNtNtCsjMrxcFdYDNN_4core4iter6traits8iterator8Iterator4nextB1N_.exit.i.i.i ]
  %_23.i10.i.i.i262.lcssa = phi ptr [ %_35.sroa.4.0.copyload, %bb6 ], [ %_23.i10.i.i.i, %bb7.backedge ], [ %_21.i7.i.i.i146283, %_RNvXs4_NtNtCsdJPVW0sQgAG_5alloc3vec9into_iterINtB5_8IntoIterINtNtCsd8NfRy8pW7m_15crossbeam_deque5deque6WorkerNtNtCsg3Flw6CsbJc_10rayon_core3job6JobRefEENtNtNtNtCsjMrxcFdYDNN_4core4iter6traits8iterator8Iterator4nextB1N_.exit.i.i.i ]
  %_23.i.i.i.i104253 = phi ptr [ %_136, %bb6 ], [ %_109, %bb7.backedge ], [ %_23.i.i.i.i104, %_RNvXs4_NtNtCsdJPVW0sQgAG_5alloc3vec9into_iterINtB5_8IntoIterINtNtCsd8NfRy8pW7m_15crossbeam_deque5deque6WorkerNtNtCsg3Flw6CsbJc_10rayon_core3job6JobRefEENtNtNtNtCsjMrxcFdYDNN_4core4iter6traits8iterator8Iterator4nextB1N_.exit.i.i.i ]
  store ptr %_23.i.i.i.i104253, ptr %_32.sroa.0.sroa.0.sroa.2.0.iter.sroa_idx, align 8
  store ptr %_23.i10.i.i.i262.lcssa, ptr %_32.sroa.0.sroa.3.0.iter.sroa_idx, align 8
  store i64 %_8.0.i271.lcssa, ptr %_32.sroa.2.0.iter.sroa_idx, align 8
  br label %bb11

bb11:                                             ; preds = %bb11.loopexit, %bb10.i.i.i, %bb2.i.i.i12.i.i.i
  call void @llvm.lifetime.end.p0(i64 32, ptr nonnull %x.i.i.i), !noalias !289
; call core::ptr::drop_in_place::<core::iter::adapters::enumerate::Enumerate<core::iter::adapters::zip::Zip<alloc::vec::into_iter::IntoIter<crossbeam_deque::deque::Worker<rayon_core::job::JobRef>>, alloc::vec::into_iter::IntoIter<crossbeam_deque::deque::Stealer<rayon_core::job::JobRef>>>>>
  call fastcc void @_RINvNtCsjMrxcFdYDNN_4core3ptr13drop_in_placeINtNtNtNtB4_4iter8adapters9enumerate9EnumerateINtNtBL_3zip3ZipINtNtNtCsdJPVW0sQgAG_5alloc3vec9into_iter8IntoIterINtNtCsd8NfRy8pW7m_15crossbeam_deque5deque6WorkerNtNtCsg3Flw6CsbJc_10rayon_core3job6JobRefEEIB1H_INtB2x_7StealerB3h_EEEEEB3l_(ptr noalias noundef align 8 dereferenceable(88) %iter)
  call void @llvm.lifetime.end.p0(i64 88, ptr nonnull %iter)
  %171 = getelementptr inbounds nuw i8, ptr %_0, i64 8
  store ptr %142, ptr %171, align 8
  store i64 3, ptr %_0, align 8
  br label %bb31

bb31:                                             ; preds = %bb2.i.i132, %bb29, %bb11
  call void @llvm.lifetime.end.p0(i64 8, ptr nonnull %registry)
  call void @llvm.lifetime.end.p0(i64 24, ptr nonnull %broadcast_stealers)
  call void @llvm.lifetime.end.p0(i64 24, ptr nonnull %stealers)
  call void @llvm.lifetime.end.p0(i64 24, ptr nonnull %workers)
; call core::ptr::drop_in_place::<rayon_core::ThreadPoolBuilder>
  call fastcc void @_RINvNtCsjMrxcFdYDNN_4core3ptr13drop_in_placeNtCsg3Flw6CsbJc_10rayon_core17ThreadPoolBuilderEBI_(ptr noalias noundef align 8 dereferenceable(96) %builder)
  ret void

bb44:                                             ; preds = %bb2.i.i15.i
  %172 = landingpad { ptr, i32 }
          cleanup
  br label %bb33

bb12:                                             ; preds = %bb3.i111, %bb4.i109
  %173 = atomicrmw add ptr %142, i64 1 monotonic, align 8
  %_114 = icmp slt i64 %173, 0
  br i1 %_114, label %bb56, label %bb57

bb57:                                             ; preds = %bb12
  call void @llvm.memcpy.p0.p0.i64(ptr noundef nonnull align 8 dereferenceable(32) %154, ptr noundef nonnull align 8 dereferenceable(32) %worker, i64 32, i1 false)
  call void @llvm.memcpy.p0.p0.i64(ptr noundef nonnull align 8 dereferenceable(24) %152, ptr noundef nonnull align 8 dereferenceable(24) %_44, i64 24, i1 false)
  store i64 %_46.0, ptr %thread, align 8
  store i64 %_46.1, ptr %153, align 8
  store ptr %_17.0.i.i.i.i, ptr %155, align 8
  store i8 %169, ptr %156, align 8
  store ptr %142, ptr %157, align 8
  store i64 %165, ptr %158, align 8
  call void @llvm.lifetime.end.p0(i64 24, ptr nonnull %_44)
  %174 = icmp eq i64 %165, 0
  %or.cond = select i1 %174, i1 %_50, i1 false
  br i1 %or.cond, label %bb59, label %bb21

bb56:                                             ; preds = %bb12
  call void @llvm.trap()
  unreachable

bb21:                                             ; preds = %bb57
; invoke <rayon_core::registry::DefaultSpawn as rayon_core::registry::ThreadSpawn>::spawn
  %175 = invoke noundef ptr @_RNvXs0_NtCsg3Flw6CsbJc_10rayon_core8registryNtB5_12DefaultSpawnNtB5_11ThreadSpawn5spawn(ptr noalias nonnull align 1 poison, ptr noalias noundef nonnull align 8 captures(address) dereferenceable(104) %thread)
          to label %bb22 unwind label %cleanup8.loopexit

cleanup8.loopexit:                                ; preds = %bb15, %bb60, %bb21
  %lpad.loopexit = landingpad { ptr, i32 }
          cleanup
  store ptr %_23.i.i.i.i104, ptr %_32.sroa.0.sroa.0.sroa.2.0.iter.sroa_idx, align 8
  store ptr %_23.i10.i.i.i, ptr %_32.sroa.0.sroa.3.0.iter.sroa_idx, align 8
  store i64 %_8.0.i, ptr %_32.sroa.2.0.iter.sroa_idx, align 8
  br label %bb33

cleanup8.loopexit.split-lp:                       ; preds = %panic, %bb2.i.i.i.i122
  %lpad.loopexit.split-lp = landingpad { ptr, i32 }
          cleanup
  br label %bb33

bb59:                                             ; preds = %bb57
  %self3.val.i.i = load ptr, ptr %_3.i.i.i.i, align 8, !noundef !2
  %176 = icmp eq ptr %self3.val.i.i, null
  br i1 %176, label %bb15, label %bb16

bb15:                                             ; preds = %bb59
  call void @llvm.lifetime.start.p0(i64 384, ptr nonnull %_54)
; invoke <rayon_core::registry::WorkerThread as core::convert::From<rayon_core::registry::ThreadBuilder>>::from
  invoke void @_RNvXs6_NtCsg3Flw6CsbJc_10rayon_core8registryNtB5_12WorkerThreadINtNtCsjMrxcFdYDNN_4core7convert4FromNtB5_13ThreadBuilderE4from(ptr noalias noundef nonnull sret([384 x i8]) align 128 captures(none) dereferenceable(384) %_54, ptr noalias noundef nonnull align 8 captures(address) dereferenceable(104) %thread)
          to label %bb17 unwind label %cleanup8.loopexit

bb16:                                             ; preds = %bb59
  store ptr %_23.i.i.i.i104, ptr %_32.sroa.0.sroa.0.sroa.2.0.iter.sroa_idx, align 8
  store ptr %_23.i10.i.i.i, ptr %_32.sroa.0.sroa.3.0.iter.sroa_idx, align 8
  store i64 %_8.0.i, ptr %_32.sroa.2.0.iter.sroa_idx, align 8
  store i64 1, ptr %_0, align 8
  %177 = load i64, ptr %152, align 8, !range !39, !noundef !2
  switch i64 %177, label %bb2.i.i.i4.i.i.i.i [
    i64 -9223372036854775808, label %bb8.i113
    i64 0, label %bb8.i113
  ]

bb2.i.i.i4.i.i.i.i:                               ; preds = %bb16
  %178 = getelementptr inbounds nuw i8, ptr %thread, i64 24
  %_1.val1.i.i.i = load ptr, ptr %178, align 8, !nonnull !2, !noundef !2
; call __rustc::__rust_dealloc
  call void @_RNvCsKhRCbHf33p_7___rustc14___rust_dealloc(ptr noundef nonnull %_1.val1.i.i.i, i64 noundef %177, i64 noundef range(i64 1, -9223372036854775807) 1) #38, !noalias !307
  br label %bb8.i113

bb8.i113:                                         ; preds = %bb16, %bb16, %bb2.i.i.i4.i.i.i.i
  %_10.i.i.i6.i = load ptr, ptr %154, align 8, !nonnull !2, !noundef !2
  %179 = atomicrmw sub ptr %_10.i.i.i6.i, i64 1 release, align 8, !noalias !314
  %180 = icmp eq i64 %179, 1
  br i1 %180, label %bb2.i.i.i7.i, label %bb7.i114

bb2.i.i.i7.i:                                     ; preds = %bb8.i113
  fence acquire
; call <alloc::sync::Arc<crossbeam_utils::cache_padded::CachePadded<crossbeam_deque::deque::Inner<rayon_core::job::JobRef>>>>::drop_slow
  call void @_RNvMsn_NtCsdJPVW0sQgAG_5alloc4syncINtB5_3ArcINtNtCs8jD91Rl7RDZ_15crossbeam_utils12cache_padded11CachePaddedINtNtCsd8NfRy8pW7m_15crossbeam_deque5deque5InnerNtNtCsg3Flw6CsbJc_10rayon_core3job6JobRefEEE9drop_slowB2x_(ptr noalias noundef nonnull readonly align 8 dereferenceable(32) %154) #33
  br label %bb7.i114

bb7.i114:                                         ; preds = %bb2.i.i.i7.i, %bb8.i113
  %181 = atomicrmw sub ptr %_17.0.i.i.i.i, i64 1 release, align 8, !noalias !321
  %182 = icmp eq i64 %181, 1
  br i1 %182, label %bb2.i.i.i12.i, label %bb6.i115

bb2.i.i.i12.i:                                    ; preds = %bb7.i114
  fence acquire
; call <alloc::sync::Arc<crossbeam_utils::cache_padded::CachePadded<crossbeam_deque::deque::Inner<rayon_core::job::JobRef>>>>::drop_slow
  call void @_RNvMsn_NtCsdJPVW0sQgAG_5alloc4syncINtB5_3ArcINtNtCs8jD91Rl7RDZ_15crossbeam_utils12cache_padded11CachePaddedINtNtCsd8NfRy8pW7m_15crossbeam_deque5deque5InnerNtNtCsg3Flw6CsbJc_10rayon_core3job6JobRefEEE9drop_slowB2x_(ptr noalias noundef nonnull readonly align 8 dereferenceable(16) %155) #33
  br label %bb6.i115

bb6.i115:                                         ; preds = %bb2.i.i.i12.i, %bb7.i114
  %183 = atomicrmw sub ptr %142, i64 1 release, align 8, !noalias !328
  %184 = icmp eq i64 %183, 1
  br i1 %184, label %bb2.i.i15.i, label %bb27

bb2.i.i15.i:                                      ; preds = %bb6.i115
  fence acquire
; invoke <alloc::sync::Arc<rayon_core::registry::Registry>>::drop_slow
  invoke void @_RNvMsn_NtCsdJPVW0sQgAG_5alloc4syncINtB5_3ArcNtNtCsg3Flw6CsbJc_10rayon_core8registry8RegistryE9drop_slowBK_(ptr noalias noundef nonnull readonly align 8 dereferenceable(8) %157) #33
          to label %bb27 unwind label %bb44

bb17:                                             ; preds = %bb15
; call __rustc::__rust_no_alloc_shim_is_unstable_v2
  call void @_RNvCsKhRCbHf33p_7___rustc35___rust_no_alloc_shim_is_unstable_v2() #38, !noalias !333
; call __rustc::__rust_alloc
  %185 = call noundef align 128 dereferenceable_or_null(384) ptr @_RNvCsKhRCbHf33p_7___rustc12___rust_alloc(i64 noundef 384, i64 noundef range(i64 1, -9223372036854775807) 128) #38, !noalias !333
  %186 = icmp eq ptr %185, null
  br i1 %186, label %bb2.i118, label %bb18, !prof !6

bb2.i118:                                         ; preds = %bb17
  store ptr %_23.i.i.i.i104, ptr %_32.sroa.0.sroa.0.sroa.2.0.iter.sroa_idx, align 8
  store ptr %_23.i10.i.i.i, ptr %_32.sroa.0.sroa.3.0.iter.sroa_idx, align 8
  store i64 %_8.0.i, ptr %_32.sroa.2.0.iter.sroa_idx, align 8
; invoke alloc::alloc::handle_alloc_error
  invoke void @_RNvNtCsdJPVW0sQgAG_5alloc5alloc18handle_alloc_error(i64 noundef 128, i64 noundef 384) #34
          to label %.noexc119 unwind label %cleanup.i32

.noexc119:                                        ; preds = %bb2.i118
  unreachable

cleanup.i32:                                      ; preds = %bb2.i118
  %187 = landingpad { ptr, i32 }
          cleanup
; invoke core::ptr::drop_in_place::<rayon_core::registry::WorkerThread>
  invoke fastcc void @_RINvNtCsjMrxcFdYDNN_4core3ptr13drop_in_placeNtNtCsg3Flw6CsbJc_10rayon_core8registry12WorkerThreadEBK_(ptr noalias noundef nonnull align 128 dereferenceable(384) %_54) #35
          to label %bb33 unwind label %terminate.i33

terminate.i33:                                    ; preds = %cleanup.i32
  %188 = landingpad { ptr, i32 }
          filter [0 x ptr] zeroinitializer
; call core::panicking::panic_in_cleanup
  call void @_RNvNtCsjMrxcFdYDNN_4core9panicking16panic_in_cleanup() #36
  unreachable

bb18:                                             ; preds = %bb17
  call void @llvm.memcpy.p0.p0.i64(ptr noundef nonnull align 128 dereferenceable(384) %185, ptr noundef nonnull align 128 dereferenceable(384) %_54, i64 384, i1 false)
  call void @llvm.lifetime.end.p0(i64 384, ptr nonnull %_54)
  %_3.i.i.i.i121 = load ptr, ptr %_3.i.i.i.i, align 8, !noundef !2
  %189 = icmp eq ptr %_3.i.i.i.i121, null
  br i1 %189, label %bb19, label %bb2.i.i.i.i122, !prof !7

bb2.i.i.i.i122:                                   ; preds = %bb18
  store ptr %_23.i.i.i.i104, ptr %_32.sroa.0.sroa.0.sroa.2.0.iter.sroa_idx, align 8
  store ptr %_23.i10.i.i.i, ptr %_32.sroa.0.sroa.3.0.iter.sroa_idx, align 8
  store i64 %_8.0.i, ptr %_32.sroa.2.0.iter.sroa_idx, align 8
; invoke core::panicking::panic
  invoke void @_RNvNtCsjMrxcFdYDNN_4core9panicking5panic(ptr noalias noundef nonnull readonly align 1 captures(address, read_provenance) @alloc_9b4a36537b55085fc0bd41f3892ae5df, i64 noundef 35, ptr noalias noundef readonly align 8 captures(address, read_provenance) dereferenceable(24) @alloc_2840dd154d41b27c0dfb5c04542761f9) #37
          to label %.noexc123 unwind label %cleanup8.loopexit.split-lp

.noexc123:                                        ; preds = %bb2.i.i.i.i122
  unreachable

bb19:                                             ; preds = %bb18
  store ptr %185, ptr %_3.i.i.i.i, align 8
  %_128 = load i64, ptr %161, align 16, !noundef !2
  %_130.not = icmp eq i64 %_128, 0
  br i1 %_130.not, label %panic, label %bb60

bb60:                                             ; preds = %bb19
  %_129 = load ptr, ptr %162, align 8, !nonnull !2, !noundef !2
; invoke <rayon_core::latch::LockLatch as rayon_core::latch::Latch>::set
  invoke fastcc void @_RNvXs4_NtCsg3Flw6CsbJc_10rayon_core5latchNtB5_9LockLatchNtB5_5Latch3set(ptr noundef %_129)
          to label %bb7.backedge unwind label %cleanup8.loopexit

panic:                                            ; preds = %bb19
  store ptr %_23.i.i.i.i104, ptr %_32.sroa.0.sroa.0.sroa.2.0.iter.sroa_idx, align 8
  store ptr %_23.i10.i.i.i, ptr %_32.sroa.0.sroa.3.0.iter.sroa_idx, align 8
  store i64 %_8.0.i, ptr %_32.sroa.2.0.iter.sroa_idx, align 8
; invoke core::panicking::panic_bounds_check
  invoke void @_RNvNtCsjMrxcFdYDNN_4core9panicking18panic_bounds_check(i64 noundef 0, i64 noundef 0, ptr noalias noundef readonly align 8 captures(address, read_provenance) dereferenceable(24) @alloc_20a7e9138dd757ccdb1470e6d1af84e0) #34
          to label %unreachable unwind label %cleanup8.loopexit.split-lp

unreachable:                                      ; preds = %panic
  unreachable

bb7.backedge:                                     ; preds = %bb60, %bb22
  %.be = phi i64 [ %_8.0.i, %bb22 ], [ 1, %bb60 ]
  call void @llvm.lifetime.end.p0(i64 16, ptr nonnull %stealer)
  call void @llvm.lifetime.end.p0(i64 32, ptr nonnull %worker)
  call void @llvm.lifetime.start.p0(i64 32, ptr nonnull %x.i.i.i), !noalias !336
  %_9.i.i.i.i = icmp eq ptr %_23.i.i.i.i104, %_109
  br i1 %_9.i.i.i.i, label %bb11.loopexit, label %_RNvXs4_NtNtCsdJPVW0sQgAG_5alloc3vec9into_iterINtB5_8IntoIterINtNtCsd8NfRy8pW7m_15crossbeam_deque5deque6WorkerNtNtCsg3Flw6CsbJc_10rayon_core3job6JobRefEENtNtNtNtCsjMrxcFdYDNN_4core4iter6traits8iterator8Iterator4nextB1N_.exit.i.i.i

bb27:                                             ; preds = %bb2.i.i15.i, %bb6.i115, %bb23
  call void @llvm.lifetime.end.p0(i64 16, ptr nonnull %stealer)
  call void @llvm.lifetime.end.p0(i64 32, ptr nonnull %worker)
; call core::ptr::drop_in_place::<core::iter::adapters::enumerate::Enumerate<core::iter::adapters::zip::Zip<alloc::vec::into_iter::IntoIter<crossbeam_deque::deque::Worker<rayon_core::job::JobRef>>, alloc::vec::into_iter::IntoIter<crossbeam_deque::deque::Stealer<rayon_core::job::JobRef>>>>>
  call fastcc void @_RINvNtCsjMrxcFdYDNN_4core3ptr13drop_in_placeINtNtNtNtB4_4iter8adapters9enumerate9EnumerateINtNtBL_3zip3ZipINtNtNtCsdJPVW0sQgAG_5alloc3vec9into_iter8IntoIterINtNtCsd8NfRy8pW7m_15crossbeam_deque5deque6WorkerNtNtCsg3Flw6CsbJc_10rayon_core3job6JobRefEEIB1H_INtB2x_7StealerB3h_EEEEEB3l_(ptr noalias noundef align 8 dereferenceable(88) %iter)
  call void @llvm.lifetime.end.p0(i64 88, ptr nonnull %iter)
  %_12.i.i.i = getelementptr inbounds nuw i8, ptr %142, i64 472
  %190 = atomicrmw sub ptr %_12.i.i.i, i64 1 acq_rel, align 8, !noalias !340
  %191 = icmp eq i64 %190, 1
  br i1 %191, label %bb1.i.i.i, label %bb29

bb22:                                             ; preds = %bb21
  %.not18 = icmp eq ptr %175, null
  br i1 %.not18, label %bb7.backedge, label %bb23

bb23:                                             ; preds = %bb22
  store ptr %_23.i.i.i.i104, ptr %_32.sroa.0.sroa.0.sroa.2.0.iter.sroa_idx, align 8
  store ptr %_23.i10.i.i.i, ptr %_32.sroa.0.sroa.3.0.iter.sroa_idx, align 8
  store i64 %_8.0.i, ptr %_32.sroa.2.0.iter.sroa_idx, align 8
  store i64 2, ptr %_0, align 8
  %192 = getelementptr inbounds nuw i8, ptr %_0, i64 8
  store ptr %175, ptr %192, align 8
  br label %bb27

bb1.i.i.i:                                        ; preds = %bb27
  %_16.i.i.i = load ptr, ptr %162, align 8, !noalias !340, !nonnull !2, !noundef !2
  %_15.i.i.i = load i64, ptr %161, align 16, !noalias !340, !noundef !2
  %_19.idx.i.i.i = mul nuw nsw i64 %_15.i.i.i, 88
  %_19.i.i.i124 = getelementptr inbounds nuw i8, ptr %_16.i.i.i, i64 %_19.idx.i.i.i
  %_6.i.i8.i.i.i = icmp eq i64 %_15.i.i.i, 0
  br i1 %_6.i.i8.i.i.i, label %bb29, label %bb5.lr.ph.i.i.i

bb5.lr.ph.i.i.i:                                  ; preds = %bb1.i.i.i
  %_4.i.i.i.i = getelementptr inbounds nuw i8, ptr %142, i64 480
  br label %bb5.i.i.i

bb5.i.i.i:                                        ; preds = %bb11.i.i.i, %bb5.lr.ph.i.i.i
  %iter.sroa.0.010.i.i.i = phi ptr [ %_16.i.i.i, %bb5.lr.ph.i.i.i ], [ %_16.i.i.i.i.i, %bb11.i.i.i ]
  %iter.sroa.7.09.i.i.i = phi i64 [ 0, %bb5.lr.ph.i.i.i ], [ %_8.0.i.i.i.i, %bb11.i.i.i ]
  %_16.i.i.i.i.i = getelementptr inbounds nuw i8, ptr %iter.sroa.0.010.i.i.i, i64 88
  %_8.0.i.i.i.i = add nuw nsw i64 %iter.sroa.7.09.i.i.i, 1
  %_27.i.i.i = getelementptr inbounds nuw i8, ptr %iter.sroa.0.010.i.i.i, i64 64
  %193 = atomicrmw xchg ptr %_27.i.i.i, i64 3 acq_rel, align 8, !noalias !340
  %_23.i.i.i = icmp eq i64 %193, 2
  br i1 %_23.i.i.i, label %bb10.i.i.i125, label %bb11.i.i.i

bb11.i.i.i:                                       ; preds = %bb10.i.i.i125, %bb5.i.i.i
  %_6.i.i.i.i.i = icmp eq ptr %_16.i.i.i.i.i, %_19.i.i.i124
  br i1 %_6.i.i.i.i.i, label %bb29, label %bb5.i.i.i

bb10.i.i.i125:                                    ; preds = %bb5.i.i.i
; invoke <rayon_core::sleep::Sleep>::wake_specific_thread
  %_3.i.i.i.i.i126127 = invoke fastcc noundef zeroext i1 @_RNvMNtCsg3Flw6CsbJc_10rayon_core5sleepNtB2_5Sleep20wake_specific_thread(ptr noundef nonnull align 8 %_4.i.i.i.i, i64 noundef %iter.sroa.7.09.i.i.i)
          to label %bb11.i.i.i unwind label %cleanup9

bb34:                                             ; preds = %bb33, %cleanup9
  %.pn23.pn.pn.pn = phi { ptr, i32 } [ %.pn23.pn, %bb33 ], [ %196, %cleanup9 ]
  %194 = atomicrmw sub ptr %142, i64 1 release, align 8, !noalias !343
  %195 = icmp eq i64 %194, 1
  br i1 %195, label %bb2.i.i129, label %bb39

bb2.i.i129:                                       ; preds = %bb34
  fence acquire
; invoke <alloc::sync::Arc<rayon_core::registry::Registry>>::drop_slow
  invoke void @_RNvMsn_NtCsdJPVW0sQgAG_5alloc4syncINtB5_3ArcNtNtCsg3Flw6CsbJc_10rayon_core8registry8RegistryE9drop_slowBK_(ptr noalias noundef nonnull readonly align 8 dereferenceable(8) %registry) #33
          to label %bb39 unwind label %terminate

cleanup9:                                         ; preds = %bb10.i.i.i125
  %196 = landingpad { ptr, i32 }
          cleanup
  br label %bb34

bb29:                                             ; preds = %bb11.i.i.i, %bb1.i.i.i, %bb27
  %197 = atomicrmw sub ptr %142, i64 1 release, align 8, !noalias !348
  %198 = icmp eq i64 %197, 1
  br i1 %198, label %bb2.i.i132, label %bb31

bb2.i.i132:                                       ; preds = %bb29
  fence acquire
; invoke <alloc::sync::Arc<rayon_core::registry::Registry>>::drop_slow
  invoke void @_RNvMsn_NtCsdJPVW0sQgAG_5alloc4syncINtB5_3ArcNtNtCsg3Flw6CsbJc_10rayon_core8registry8RegistryE9drop_slowBK_(ptr noalias noundef nonnull readonly align 8 dereferenceable(8) %registry) #33
          to label %bb31 unwind label %bb48

terminate:                                        ; preds = %bb2.i.i129, %cleanup4, %bb33, %bb39, %bb36
  %199 = landingpad { ptr, i32 }
          filter [0 x ptr] zeroinitializer
; call core::panicking::panic_in_cleanup
  call void @_RNvNtCsjMrxcFdYDNN_4core9panicking16panic_in_cleanup() #36
  unreachable

bb43:                                             ; preds = %bb4.i109
  %200 = landingpad { ptr, i32 }
          cleanup
  store ptr %_23.i.i.i.i104, ptr %_32.sroa.0.sroa.0.sroa.2.0.iter.sroa_idx, align 8
  store ptr %_23.i10.i.i.i, ptr %_32.sroa.0.sroa.3.0.iter.sroa_idx, align 8
  store i64 %_8.0.i, ptr %_32.sroa.2.0.iter.sroa_idx, align 8
  %201 = atomicrmw sub ptr %_17.0.i.i.i.i, i64 1 release, align 8, !noalias !353
  %202 = icmp eq i64 %201, 1
  br i1 %202, label %bb2.i.i.i136, label %bb45

bb2.i.i.i136:                                     ; preds = %bb43
  fence acquire
; call <alloc::sync::Arc<crossbeam_utils::cache_padded::CachePadded<crossbeam_deque::deque::Inner<rayon_core::job::JobRef>>>>::drop_slow
  call void @_RNvMsn_NtCsdJPVW0sQgAG_5alloc4syncINtB5_3ArcINtNtCs8jD91Rl7RDZ_15crossbeam_utils12cache_padded11CachePaddedINtNtCsd8NfRy8pW7m_15crossbeam_deque5deque5InnerNtNtCsg3Flw6CsbJc_10rayon_core3job6JobRefEEE9drop_slowB2x_(ptr noalias noundef nonnull readonly align 8 dereferenceable(16) %stealer) #33
  br label %bb45

bb45:                                             ; preds = %bb43, %bb2.i.i.i136
  call void @llvm.experimental.noalias.scope.decl(metadata !360)
  call void @llvm.experimental.noalias.scope.decl(metadata !363)
  call void @llvm.experimental.noalias.scope.decl(metadata !366)
  %_10.i.i.i137 = load ptr, ptr %worker, align 8, !alias.scope !369, !nonnull !2, !noundef !2
  %203 = atomicrmw sub ptr %_10.i.i.i137, i64 1 release, align 8, !noalias !369
  %204 = icmp eq i64 %203, 1
  br i1 %204, label %bb2.i.i.i138, label %bb33

bb2.i.i.i138:                                     ; preds = %bb45
  fence acquire
; call <alloc::sync::Arc<crossbeam_utils::cache_padded::CachePadded<crossbeam_deque::deque::Inner<rayon_core::job::JobRef>>>>::drop_slow
  call void @_RNvMsn_NtCsdJPVW0sQgAG_5alloc4syncINtB5_3ArcINtNtCs8jD91Rl7RDZ_15crossbeam_utils12cache_padded11CachePaddedINtNtCsd8NfRy8pW7m_15crossbeam_deque5deque5InnerNtNtCsg3Flw6CsbJc_10rayon_core3job6JobRefEEE9drop_slowB2x_(ptr noalias noundef nonnull readonly align 8 dereferenceable(32) %worker) #33
  br label %bb33

bb47:                                             ; preds = %cleanup.i
; call core::ptr::drop_in_place::<alloc::vec::Vec<crossbeam_deque::deque::Stealer<rayon_core::job::JobRef>>>
  call fastcc void @_RINvNtCsjMrxcFdYDNN_4core3ptr13drop_in_placeINtNtCsdJPVW0sQgAG_5alloc3vec3VecINtNtCsd8NfRy8pW7m_15crossbeam_deque5deque7StealerNtNtCsg3Flw6CsbJc_10rayon_core3job6JobRefEEEB25_(ptr noalias noundef align 8 dereferenceable(24) %broadcast_stealers) #35
  br label %bb52

bb49:                                             ; preds = %bb36, %bb2.i.i.i139, %bb2.i.i.i.i.i4.i.i.i
  %.pn23.pn.pn.pn.pn161.ph = phi { ptr, i32 } [ %121, %bb2.i.i.i.i.i4.i.i.i ], [ %121, %bb2.i.i.i139 ], [ %.pn, %bb36 ]
; call core::ptr::drop_in_place::<alloc::vec::Vec<crossbeam_deque::deque::Stealer<rayon_core::job::JobRef>>>
  call fastcc void @_RINvNtCsjMrxcFdYDNN_4core3ptr13drop_in_placeINtNtCsdJPVW0sQgAG_5alloc3vec3VecINtNtCsd8NfRy8pW7m_15crossbeam_deque5deque7StealerNtNtCsg3Flw6CsbJc_10rayon_core3job6JobRefEEEB25_(ptr noalias noundef align 8 dereferenceable(24) %broadcast_stealers) #35
; call core::ptr::drop_in_place::<alloc::vec::Vec<crossbeam_deque::deque::Worker<rayon_core::job::JobRef>>>
  call fastcc void @_RINvNtCsjMrxcFdYDNN_4core3ptr13drop_in_placeINtNtCsdJPVW0sQgAG_5alloc3vec3VecINtNtCsd8NfRy8pW7m_15crossbeam_deque5deque6WorkerNtNtCsg3Flw6CsbJc_10rayon_core3job6JobRefEEEB24_(ptr noalias noundef align 8 dereferenceable(24) %broadcasts) #35
  br label %bb52

bb52:                                             ; preds = %bb47, %bb49, %cleanup1.i
  %.pn23.pn.pn.pn.pn.pn152196 = phi { ptr, i32 } [ %lpad.phi.i, %cleanup1.i ], [ %144, %bb47 ], [ %.pn23.pn.pn.pn.pn161.ph, %bb49 ]
; call core::ptr::drop_in_place::<alloc::vec::Vec<crossbeam_deque::deque::Worker<rayon_core::job::JobRef>>>
  call fastcc void @_RINvNtCsjMrxcFdYDNN_4core3ptr13drop_in_placeINtNtCsdJPVW0sQgAG_5alloc3vec3VecINtNtCsd8NfRy8pW7m_15crossbeam_deque5deque6WorkerNtNtCsg3Flw6CsbJc_10rayon_core3job6JobRefEEEB24_(ptr noalias noundef align 8 dereferenceable(24) %workers) #35
  br label %bb39

bb40:                                             ; preds = %bb39
  resume { ptr, i32 } %.pn23.pn.pn.pn.pn.pn.pn
}

; crossbeam_epoch::default::with_handle::<crossbeam_epoch::default::pin::{closure#0}, crossbeam_epoch::guard::Guard>
; Function Attrs: inlinehint uwtable
define internal fastcc noundef ptr @_RINvNtCshWjyrkxAz4b_15crossbeam_epoch7default11with_handleNCNvB2_3pin0NtNtB4_5guard5GuardECsg3Flw6CsbJc_10rayon_core() unnamed_addr #2 personality ptr @rust_eh_personality {
start:
  %guard.i.i.i = alloca [8 x i8], align 8
  %guard.i.i.i.i = alloca [8 x i8], align 8
  %_3.i.i.i = tail call align 8 ptr @llvm.threadlocal.address.p0(ptr @_RNvNCNKNvNtCshWjyrkxAz4b_15crossbeam_epoch7default6HANDLE0023___RUST_STD_INTERNAL_VAL)
  %_12.i.i.i.i = getelementptr inbounds nuw i8, ptr %_3.i.i.i, i64 8
  %_4.i.i.i.i = load i8, ptr %_12.i.i.i.i, align 8, !range !32, !noalias !370, !noundef !2
  %0 = icmp eq i8 %_4.i.i.i.i, 1
  br i1 %0, label %bb8.i, label %_RNvYNCNKNvNtCshWjyrkxAz4b_15crossbeam_epoch7default6HANDLE00INtNtNtCsjMrxcFdYDNN_4core3ops8function6FnOnceTINtNtB13_6option6OptionQIB1I_NtNtBa_9collector11LocalHandleEEEE9call_onceCsg3Flw6CsbJc_10rayon_core.exit.i, !prof !7

_RNvYNCNKNvNtCshWjyrkxAz4b_15crossbeam_epoch7default6HANDLE00INtNtNtCsjMrxcFdYDNN_4core3ops8function6FnOnceTINtNtB13_6option6OptionQIB1I_NtNtBa_9collector11LocalHandleEEEE9call_onceCsg3Flw6CsbJc_10rayon_core.exit.i: ; preds = %start
; call <std::sys::thread_local::native::lazy::Storage<crossbeam_epoch::collector::LocalHandle, ()>>::get_or_init_slow::<crossbeam_epoch::default::HANDLE::__rust_std_internal_init_fn>
  %1 = tail call fastcc noundef ptr @_RINvMs0_NtNtNtNtCs5sEH5CPMdak_3std3sys12thread_local6native4lazyINtB6_7StorageNtNtCshWjyrkxAz4b_15crossbeam_epoch9collector11LocalHandleuE16get_or_init_slowNvNvNtB1i_7default6HANDLE27___rust_std_internal_init_fnECsg3Flw6CsbJc_10rayon_core(ptr noundef nonnull align 8 %_3.i.i.i, ptr noalias noundef align 8 dereferenceable_or_null(16) null)
  %2 = icmp eq ptr %1, null
  br i1 %2, label %bb7, label %bb8.i

bb8.i:                                            ; preds = %_RNvYNCNKNvNtCshWjyrkxAz4b_15crossbeam_epoch7default6HANDLE00INtNtNtCsjMrxcFdYDNN_4core3ops8function6FnOnceTINtNtB13_6option6OptionQIB1I_NtNtBa_9collector11LocalHandleEEEE9call_onceCsg3Flw6CsbJc_10rayon_core.exit.i, %start
  %_0.sroa.0.0.i.i.i2.i = phi ptr [ %1, %_RNvYNCNKNvNtCshWjyrkxAz4b_15crossbeam_epoch7default6HANDLE00INtNtNtCsjMrxcFdYDNN_4core3ops8function6FnOnceTINtNtB13_6option6OptionQIB1I_NtNtBa_9collector11LocalHandleEEEE9call_onceCsg3Flw6CsbJc_10rayon_core.exit.i ], [ %_3.i.i.i, %start ]
  %self3.val.i = load ptr, ptr %_0.sroa.0.0.i.i.i2.i, align 8, !noundef !2
  call void @llvm.lifetime.start.p0(i64 8, ptr nonnull %guard.i.i.i.i)
  store ptr %self3.val.i, ptr %guard.i.i.i.i, align 8
  %_15.i.i.i.i = getelementptr inbounds nuw i8, ptr %self3.val.i, i64 2072
  %guard_count.i.i.i.i = load i64, ptr %_15.i.i.i.i, align 8, !noundef !2
  %_17.1.i.i.i.i = icmp eq i64 %guard_count.i.i.i.i, -1
  br i1 %_17.1.i.i.i.i, label %bb9.i.i.i.i, label %bb11.i.i.i.i, !prof !6

bb11.i.i.i.i:                                     ; preds = %bb8.i
  %_17.0.i.i.i.i = add nuw i64 %guard_count.i.i.i.i, 1
  store i64 %_17.0.i.i.i.i, ptr %_15.i.i.i.i, align 8
  %3 = icmp eq i64 %guard_count.i.i.i.i, 0
  br i1 %3, label %bb2.i.i.i5.i, label %bb8

bb9.i.i.i.i:                                      ; preds = %bb8.i
; invoke core::option::unwrap_failed
  invoke void @_RNvNtCsjMrxcFdYDNN_4core6option13unwrap_failed(ptr noalias noundef readonly align 8 captures(address, read_provenance) dereferenceable(24) @alloc_6ce925522e0221e39b5bde413077875f) #34
          to label %unreachable.i.i.i.i unwind label %cleanup.i.i.i.i

cleanup.i.i.i.i:                                  ; preds = %bb3.i.i.i.i, %bb9.i.i.i.i
  %4 = landingpad { ptr, i32 }
          cleanup
; invoke core::ptr::drop_in_place::<crossbeam_epoch::guard::Guard>
  invoke fastcc void @_RINvNtCsjMrxcFdYDNN_4core3ptr13drop_in_placeNtNtCshWjyrkxAz4b_15crossbeam_epoch5guard5GuardECsg3Flw6CsbJc_10rayon_core(ptr nonnull align 128 %self3.val.i) #35
          to label %common.resume unwind label %terminate.i.i.i.i

bb2.i.i.i5.i:                                     ; preds = %bb11.i.i.i.i
  %_24.i.i.i.i = getelementptr inbounds nuw i8, ptr %self3.val.i, i64 8
  %_26.i.i.i.i = load ptr, ptr %_24.i.i.i.i, align 8, !nonnull !2, !noundef !2
  %_29.i.i.i.i = getelementptr inbounds nuw i8, ptr %_26.i.i.i.i, i64 384
  %5 = load atomic i64, ptr %_29.i.i.i.i monotonic, align 8
  %new_epoch.i.i.i.i = or i64 %5, 1
  %_33.i.i.i.i = getelementptr inbounds nuw i8, ptr %self3.val.i, i64 2176
  store atomic i64 %new_epoch.i.i.i.i, ptr %_33.i.i.i.i monotonic, align 8
  fence seq_cst
  %_35.i.i.i.i = getelementptr inbounds nuw i8, ptr %self3.val.i, i64 2088
  %count.i.i.i.i = load i64, ptr %_35.i.i.i.i, align 8, !noundef !2
  %_36.i.i.i.i = add i64 %count.i.i.i.i, 1
  store i64 %_36.i.i.i.i, ptr %_35.i.i.i.i, align 8
  %_10.i.i.i.i = and i64 %count.i.i.i.i, 127
  %6 = icmp eq i64 %_10.i.i.i.i, 0
  br i1 %6, label %bb3.i.i.i.i, label %bb8, !prof !6

bb3.i.i.i.i:                                      ; preds = %bb2.i.i.i5.i
  %_42.i.i.i.i = load ptr, ptr %_24.i.i.i.i, align 8, !nonnull !2, !noundef !2
  %_12.i.i.i6.i = getelementptr inbounds nuw i8, ptr %_42.i.i.i.i, i64 128
; invoke <crossbeam_epoch::internal::Global>::collect
  invoke void @_RNvMs5_NtCshWjyrkxAz4b_15crossbeam_epoch8internalNtB5_6Global7collect(ptr noundef nonnull align 128 %_12.i.i.i6.i, ptr noalias noundef nonnull readonly align 8 captures(address, read_provenance) dereferenceable(8) %guard.i.i.i.i)
          to label %bb8 unwind label %cleanup.i.i.i.i

unreachable.i.i.i.i:                              ; preds = %bb9.i.i.i.i
  unreachable

terminate.i.i.i.i:                                ; preds = %cleanup.i.i.i.i
  %7 = landingpad { ptr, i32 }
          filter [0 x ptr] zeroinitializer
; call core::panicking::panic_in_cleanup
  call void @_RNvNtCsjMrxcFdYDNN_4core9panicking16panic_in_cleanup() #36
  unreachable

common.resume:                                    ; preds = %cleanup.body.i, %bb2.i.i.i.i, %cleanup.i.i.i.i
  %common.resume.op = phi { ptr, i32 } [ %4, %cleanup.i.i.i.i ], [ %10, %bb2.i.i.i.i ], [ %10, %cleanup.body.i ]
  resume { ptr, i32 } %common.resume.op

bb7:                                              ; preds = %_RNvYNCNKNvNtCshWjyrkxAz4b_15crossbeam_epoch7default6HANDLE00INtNtNtCsjMrxcFdYDNN_4core3ops8function6FnOnceTINtNtB13_6option6OptionQIB1I_NtNtBa_9collector11LocalHandleEEEE9call_onceCsg3Flw6CsbJc_10rayon_core.exit.i
; call crossbeam_epoch::default::collector
  %_6.i = tail call noundef nonnull align 8 ptr @_RNvNtCshWjyrkxAz4b_15crossbeam_epoch7default9collector()
; call <crossbeam_epoch::collector::Collector>::register
  %8 = tail call noundef ptr @_RNvMs1_NtCshWjyrkxAz4b_15crossbeam_epoch9collectorNtB5_9Collector8register(ptr noalias noundef nonnull readonly align 8 captures(address, read_provenance) dereferenceable(8) %_6.i)
  call void @llvm.lifetime.start.p0(i64 8, ptr nonnull %guard.i.i.i)
  store ptr %8, ptr %guard.i.i.i, align 8
  %_15.i.i.i = getelementptr inbounds nuw i8, ptr %8, i64 2072
  %guard_count.i.i.i = load i64, ptr %_15.i.i.i, align 8, !noundef !2
  %_17.1.i.i.i = icmp eq i64 %guard_count.i.i.i, -1
  br i1 %_17.1.i.i.i, label %bb9.i.i.i, label %bb11.i.i.i, !prof !6

bb11.i.i.i:                                       ; preds = %bb7
  %_17.0.i.i.i = add nuw i64 %guard_count.i.i.i, 1
  store i64 %_17.0.i.i.i, ptr %_15.i.i.i, align 8
  %9 = icmp eq i64 %guard_count.i.i.i, 0
  br i1 %9, label %bb2.i.i.i, label %bb3.i

bb9.i.i.i:                                        ; preds = %bb7
; invoke core::option::unwrap_failed
  invoke void @_RNvNtCsjMrxcFdYDNN_4core6option13unwrap_failed(ptr noalias noundef readonly align 8 captures(address, read_provenance) dereferenceable(24) @alloc_6ce925522e0221e39b5bde413077875f) #34
          to label %unreachable.i.i.i unwind label %cleanup.i.i.i

cleanup.i.i.i:                                    ; preds = %bb3.i.i.i, %bb9.i.i.i
  %10 = landingpad { ptr, i32 }
          cleanup
; invoke core::ptr::drop_in_place::<crossbeam_epoch::guard::Guard>
  invoke fastcc void @_RINvNtCsjMrxcFdYDNN_4core3ptr13drop_in_placeNtNtCshWjyrkxAz4b_15crossbeam_epoch5guard5GuardECsg3Flw6CsbJc_10rayon_core(ptr nonnull align 128 %8) #35
          to label %cleanup.body.i unwind label %terminate.i.i.i

bb2.i.i.i:                                        ; preds = %bb11.i.i.i
  %_24.i.i.i = getelementptr inbounds nuw i8, ptr %8, i64 8
  %_26.i.i.i = load ptr, ptr %_24.i.i.i, align 8, !nonnull !2, !noundef !2
  %_29.i.i.i = getelementptr inbounds nuw i8, ptr %_26.i.i.i, i64 384
  %11 = load atomic i64, ptr %_29.i.i.i monotonic, align 8
  %new_epoch.i.i.i = or i64 %11, 1
  %_33.i.i.i = getelementptr inbounds nuw i8, ptr %8, i64 2176
  store atomic i64 %new_epoch.i.i.i, ptr %_33.i.i.i monotonic, align 8
  fence seq_cst
  %_35.i.i.i = getelementptr inbounds nuw i8, ptr %8, i64 2088
  %count.i.i.i = load i64, ptr %_35.i.i.i, align 8, !noundef !2
  %_36.i.i.i = add i64 %count.i.i.i, 1
  store i64 %_36.i.i.i, ptr %_35.i.i.i, align 8
  %_10.i.i.i = and i64 %count.i.i.i, 127
  %12 = icmp eq i64 %_10.i.i.i, 0
  br i1 %12, label %bb3.i.i.i, label %bb3.i, !prof !6

bb3.i.i.i:                                        ; preds = %bb2.i.i.i
  %_42.i.i.i = load ptr, ptr %_24.i.i.i, align 8, !nonnull !2, !noundef !2
  %_12.i.i.i = getelementptr inbounds nuw i8, ptr %_42.i.i.i, i64 128
; invoke <crossbeam_epoch::internal::Global>::collect
  invoke void @_RNvMs5_NtCshWjyrkxAz4b_15crossbeam_epoch8internalNtB5_6Global7collect(ptr noundef nonnull align 128 %_12.i.i.i, ptr noalias noundef nonnull readonly align 8 captures(address, read_provenance) dereferenceable(8) %guard.i.i.i)
          to label %bb3.i unwind label %cleanup.i.i.i

unreachable.i.i.i:                                ; preds = %bb9.i.i.i
  unreachable

terminate.i.i.i:                                  ; preds = %cleanup.i.i.i
  %13 = landingpad { ptr, i32 }
          filter [0 x ptr] zeroinitializer
; call core::panicking::panic_in_cleanup
  call void @_RNvNtCsjMrxcFdYDNN_4core9panicking16panic_in_cleanup() #36
  unreachable

cleanup.body.i:                                   ; preds = %cleanup.i.i.i
  %guard_count.i.i.i.i2 = load i64, ptr %_15.i.i.i, align 8, !noundef !2
  %_9.i.i.i.i = getelementptr inbounds nuw i8, ptr %8, i64 2080
  %handle_count.i.i.i.i = load i64, ptr %_9.i.i.i.i, align 8, !noundef !2
  %_4.i.i.i.i3 = add i64 %handle_count.i.i.i.i, -1
  store i64 %_4.i.i.i.i3, ptr %_9.i.i.i.i, align 8
  %14 = icmp eq i64 %guard_count.i.i.i.i2, 0
  %15 = icmp eq i64 %handle_count.i.i.i.i, 1
  %or.cond.i.i.i.i = and i1 %14, %15
  br i1 %or.cond.i.i.i.i, label %bb2.i.i.i.i, label %common.resume, !prof !35

bb2.i.i.i.i:                                      ; preds = %cleanup.body.i
; invoke <crossbeam_epoch::internal::Local>::finalize
  invoke void @_RNvMs6_NtCshWjyrkxAz4b_15crossbeam_epoch8internalNtB5_5Local8finalize(ptr noundef nonnull align 128 %8)
          to label %common.resume unwind label %terminate.i

bb3.i:                                            ; preds = %bb3.i.i.i, %bb2.i.i.i, %bb11.i.i.i
  call void @llvm.lifetime.end.p0(i64 8, ptr nonnull %guard.i.i.i)
  %guard_count.i.i.i4.i = load i64, ptr %_15.i.i.i, align 8, !noundef !2
  %_9.i.i.i5.i = getelementptr inbounds nuw i8, ptr %8, i64 2080
  %handle_count.i.i.i6.i = load i64, ptr %_9.i.i.i5.i, align 8, !noundef !2
  %_4.i.i.i7.i = add i64 %handle_count.i.i.i6.i, -1
  store i64 %_4.i.i.i7.i, ptr %_9.i.i.i5.i, align 8
  %16 = icmp eq i64 %guard_count.i.i.i4.i, 0
  %17 = icmp eq i64 %handle_count.i.i.i6.i, 1
  %or.cond.i.i.i8.i = and i1 %16, %17
  br i1 %or.cond.i.i.i8.i, label %bb2.i.i.i9.i, label %bb5, !prof !35

bb2.i.i.i9.i:                                     ; preds = %bb3.i
; call <crossbeam_epoch::internal::Local>::finalize
  call void @_RNvMs6_NtCshWjyrkxAz4b_15crossbeam_epoch8internalNtB5_5Local8finalize(ptr noundef nonnull align 128 %8)
  br label %bb5

terminate.i:                                      ; preds = %bb2.i.i.i.i
  %18 = landingpad { ptr, i32 }
          filter [0 x ptr] zeroinitializer
; call core::panicking::panic_in_cleanup
  call void @_RNvNtCsjMrxcFdYDNN_4core9panicking16panic_in_cleanup() #36
  unreachable

bb8:                                              ; preds = %bb3.i.i.i.i, %bb2.i.i.i5.i, %bb11.i.i.i.i
  call void @llvm.lifetime.end.p0(i64 8, ptr nonnull %guard.i.i.i.i)
  br label %bb5

bb5:                                              ; preds = %bb2.i.i.i9.i, %bb3.i, %bb8
  %_0.sroa.0.0 = phi ptr [ %self3.val.i, %bb8 ], [ %8, %bb3.i ], [ %8, %bb2.i.i.i9.i ]
  ret ptr %_0.sroa.0.0
}

; core::ptr::drop_in_place::<core::pin::Pin<alloc::boxed::Box<std::sys::pal::unix::sync::mutex::Mutex>>>
; Function Attrs: uwtable
define internal fastcc void @_RINvNtCsjMrxcFdYDNN_4core3ptr13drop_in_placeINtNtB4_3pin3PinINtNtCsdJPVW0sQgAG_5alloc5boxed3BoxNtNtNtNtNtNtCs5sEH5CPMdak_3std3sys3pal4unix4sync5mutex5MutexEEECsg3Flw6CsbJc_10rayon_core(ptr nonnull %_1.0.val) unnamed_addr #1 personality ptr @rust_eh_personality {
start:
; invoke <std::sys::pal::unix::sync::mutex::Mutex as core::ops::drop::Drop>::drop
  invoke void @_RNvXs2_NtNtNtNtNtCs5sEH5CPMdak_3std3sys3pal4unix4sync5mutexNtB5_5MutexNtNtNtCsjMrxcFdYDNN_4core3ops4drop4Drop4drop(ptr noundef nonnull align 8 %_1.0.val)
          to label %_RINvNtCsjMrxcFdYDNN_4core3ptr13drop_in_placeINtNtCsdJPVW0sQgAG_5alloc5boxed3BoxNtNtNtNtNtNtCs5sEH5CPMdak_3std3sys3pal4unix4sync5mutex5MutexEECsg3Flw6CsbJc_10rayon_core.exit unwind label %bb1.i

bb1.i:                                            ; preds = %start
  %0 = landingpad { ptr, i32 }
          cleanup
; call __rustc::__rust_dealloc
  tail call void @_RNvCsKhRCbHf33p_7___rustc14___rust_dealloc(ptr noundef nonnull %_1.0.val, i64 noundef 64, i64 noundef 8) #38
  resume { ptr, i32 } %0

_RINvNtCsjMrxcFdYDNN_4core3ptr13drop_in_placeINtNtCsdJPVW0sQgAG_5alloc5boxed3BoxNtNtNtNtNtNtCs5sEH5CPMdak_3std3sys3pal4unix4sync5mutex5MutexEECsg3Flw6CsbJc_10rayon_core.exit: ; preds = %start
; call __rustc::__rust_dealloc
  tail call void @_RNvCsKhRCbHf33p_7___rustc14___rust_dealloc(ptr noundef nonnull %_1.0.val, i64 noundef 64, i64 noundef 8) #38
  ret void
}

; core::ptr::drop_in_place::<core::cell::UnsafeCell<core::option::Option<core::result::Result<(), alloc::boxed::Box<dyn core::any::Any + core::marker::Send>>>>>
; Function Attrs: uwtable
define internal fastcc void @_RINvNtCsjMrxcFdYDNN_4core3ptr13drop_in_placeINtNtB4_4cell10UnsafeCellINtNtB4_6option6OptionINtNtB4_6result6ResultuINtNtCsdJPVW0sQgAG_5alloc5boxed3BoxDNtNtB4_3any3AnyNtNtB4_6marker4SendEL_EEEEECsg3Flw6CsbJc_10rayon_core(ptr noalias noundef nonnull readonly align 8 captures(none) dereferenceable(24) %_1) unnamed_addr #1 personality ptr @rust_eh_personality {
start:
  tail call void @llvm.experimental.noalias.scope.decl(metadata !377)
  %_2.i = load i64, ptr %_1, align 8, !range !33, !alias.scope !377, !noundef !2
  %0 = icmp eq i64 %_2.i, 0
  br i1 %0, label %_RINvNtCsjMrxcFdYDNN_4core3ptr13drop_in_placeINtNtB4_6option6OptionINtNtB4_6result6ResultuINtNtCsdJPVW0sQgAG_5alloc5boxed3BoxDNtNtB4_3any3AnyNtNtB4_6marker4SendEL_EEEECsg3Flw6CsbJc_10rayon_core.exit, label %bb2.i

bb2.i:                                            ; preds = %start
  %1 = getelementptr inbounds nuw i8, ptr %_1, i64 8
  %.val.i = load ptr, ptr %1, align 8, !alias.scope !377, !align !282, !noundef !2
  %2 = getelementptr inbounds nuw i8, ptr %_1, i64 16
  %.val1.i = load ptr, ptr %2, align 8, !alias.scope !377
  %3 = icmp eq ptr %.val.i, null
  br i1 %3, label %_RINvNtCsjMrxcFdYDNN_4core3ptr13drop_in_placeINtNtB4_6option6OptionINtNtB4_6result6ResultuINtNtCsdJPVW0sQgAG_5alloc5boxed3BoxDNtNtB4_3any3AnyNtNtB4_6marker4SendEL_EEEECsg3Flw6CsbJc_10rayon_core.exit, label %bb2.i.i

bb2.i.i:                                          ; preds = %bb2.i
  %4 = icmp ne ptr %.val1.i, null
  tail call void @llvm.assume(i1 %4)
  %5 = load ptr, ptr %.val1.i, align 8, !invariant.load !2, !noalias !377
  %.not.i.i.i = icmp eq ptr %5, null
  br i1 %.not.i.i.i, label %bb3.i.i.i, label %is_not_null.i.i.i

is_not_null.i.i.i:                                ; preds = %bb2.i.i
  invoke void %5(ptr noundef nonnull %.val.i)
          to label %bb3.i.i.i unwind label %cleanup.i.i.i, !noalias !377

bb3.i.i.i:                                        ; preds = %is_not_null.i.i.i, %bb2.i.i
  %6 = getelementptr inbounds nuw i8, ptr %.val1.i, i64 8
  %7 = load i64, ptr %6, align 8, !range !56, !invariant.load !2, !noalias !377
  %8 = getelementptr inbounds nuw i8, ptr %.val1.i, i64 16
  %9 = load i64, ptr %8, align 8, !range !57, !invariant.load !2, !noalias !377
  %10 = add i64 %9, -1
  %11 = icmp sgt i64 %10, -1
  tail call void @llvm.assume(i1 %11)
  %12 = icmp eq i64 %7, 0
  br i1 %12, label %_RINvNtCsjMrxcFdYDNN_4core3ptr13drop_in_placeINtNtB4_6option6OptionINtNtB4_6result6ResultuINtNtCsdJPVW0sQgAG_5alloc5boxed3BoxDNtNtB4_3any3AnyNtNtB4_6marker4SendEL_EEEECsg3Flw6CsbJc_10rayon_core.exit, label %_RNvXs_NtCsdJPVW0sQgAG_5alloc5allocNtB4_6GlobalNtNtCsjMrxcFdYDNN_4core5alloc9Allocator10deallocate.exit.i.i.i.i

_RNvXs_NtCsdJPVW0sQgAG_5alloc5allocNtB4_6GlobalNtNtCsjMrxcFdYDNN_4core5alloc9Allocator10deallocate.exit.i.i.i.i: ; preds = %bb3.i.i.i
; call __rustc::__rust_dealloc
  tail call void @_RNvCsKhRCbHf33p_7___rustc14___rust_dealloc(ptr noundef nonnull %.val.i, i64 noundef %7, i64 noundef range(i64 1, -9223372036854775807) %9) #38, !noalias !377
  br label %_RINvNtCsjMrxcFdYDNN_4core3ptr13drop_in_placeINtNtB4_6option6OptionINtNtB4_6result6ResultuINtNtCsdJPVW0sQgAG_5alloc5boxed3BoxDNtNtB4_3any3AnyNtNtB4_6marker4SendEL_EEEECsg3Flw6CsbJc_10rayon_core.exit

cleanup.i.i.i:                                    ; preds = %is_not_null.i.i.i
  %13 = landingpad { ptr, i32 }
          cleanup
  %14 = getelementptr inbounds nuw i8, ptr %.val1.i, i64 8
  %15 = load i64, ptr %14, align 8, !range !56, !invariant.load !2, !noalias !377
  %16 = getelementptr inbounds nuw i8, ptr %.val1.i, i64 16
  %17 = load i64, ptr %16, align 8, !range !57, !invariant.load !2, !noalias !377
  %18 = add i64 %17, -1
  %19 = icmp sgt i64 %18, -1
  tail call void @llvm.assume(i1 %19)
  %20 = icmp eq i64 %15, 0
  br i1 %20, label %bb1.i.i.i, label %_RNvXs_NtCsdJPVW0sQgAG_5alloc5allocNtB4_6GlobalNtNtCsjMrxcFdYDNN_4core5alloc9Allocator10deallocate.exit.i4.i.i.i

_RNvXs_NtCsdJPVW0sQgAG_5alloc5allocNtB4_6GlobalNtNtCsjMrxcFdYDNN_4core5alloc9Allocator10deallocate.exit.i4.i.i.i: ; preds = %cleanup.i.i.i
; call __rustc::__rust_dealloc
  tail call void @_RNvCsKhRCbHf33p_7___rustc14___rust_dealloc(ptr noundef nonnull %.val.i, i64 noundef %15, i64 noundef range(i64 1, -9223372036854775807) %17) #38, !noalias !377
  br label %bb1.i.i.i

bb1.i.i.i:                                        ; preds = %_RNvXs_NtCsdJPVW0sQgAG_5alloc5allocNtB4_6GlobalNtNtCsjMrxcFdYDNN_4core5alloc9Allocator10deallocate.exit.i4.i.i.i, %cleanup.i.i.i
  resume { ptr, i32 } %13

_RINvNtCsjMrxcFdYDNN_4core3ptr13drop_in_placeINtNtB4_6option6OptionINtNtB4_6result6ResultuINtNtCsdJPVW0sQgAG_5alloc5boxed3BoxDNtNtB4_3any3AnyNtNtB4_6marker4SendEL_EEEECsg3Flw6CsbJc_10rayon_core.exit: ; preds = %start, %bb2.i, %bb3.i.i.i, %_RNvXs_NtCsdJPVW0sQgAG_5alloc5allocNtB4_6GlobalNtNtCsjMrxcFdYDNN_4core5alloc9Allocator10deallocate.exit.i.i.i.i
  ret void
}

; core::ptr::drop_in_place::<core::cell::UnsafeCell<alloc::vec::Vec<crossbeam_deque::deque::Worker<rayon_core::job::JobRef>>>>
; Function Attrs: nounwind uwtable
define internal fastcc void @_RINvNtCsjMrxcFdYDNN_4core3ptr13drop_in_placeINtNtB4_4cell10UnsafeCellINtNtCsdJPVW0sQgAG_5alloc3vec3VecINtNtCsd8NfRy8pW7m_15crossbeam_deque5deque6WorkerNtNtCsg3Flw6CsbJc_10rayon_core3job6JobRefEEEEB2t_(ptr noalias noundef nonnull readonly align 8 captures(none) dereferenceable(24) %_1) unnamed_addr #3 personality ptr @rust_eh_personality {
start:
  tail call void @llvm.experimental.noalias.scope.decl(metadata !380)
  %0 = getelementptr inbounds nuw i8, ptr %_1, i64 8
  %_1.val.i = load ptr, ptr %0, align 8, !alias.scope !380, !nonnull !2, !noundef !2
  %1 = getelementptr inbounds nuw i8, ptr %_1, i64 16
  %_1.val1.i = load i64, ptr %1, align 8, !alias.scope !380, !noundef !2
  tail call void @llvm.experimental.noalias.scope.decl(metadata !383)
  %_79.i.i.i = icmp eq i64 %_1.val1.i, 0
  br i1 %_79.i.i.i, label %bb4.i, label %bb5.i.i.i

bb5.i.i.i:                                        ; preds = %start, %_RINvNtCsjMrxcFdYDNN_4core3ptr13drop_in_placeINtNtCsd8NfRy8pW7m_15crossbeam_deque5deque6WorkerNtNtCsg3Flw6CsbJc_10rayon_core3job6JobRefEEB1x_.exit.i.i.i
  %_3.sroa.0.010.i.i.i = phi i64 [ %2, %_RINvNtCsjMrxcFdYDNN_4core3ptr13drop_in_placeINtNtCsd8NfRy8pW7m_15crossbeam_deque5deque6WorkerNtNtCsg3Flw6CsbJc_10rayon_core3job6JobRefEEB1x_.exit.i.i.i ], [ 0, %start ]
  %_6.i.i.i = getelementptr inbounds nuw %"crossbeam_deque::deque::Worker<job::JobRef>", ptr %_1.val.i, i64 %_3.sroa.0.010.i.i.i
  %2 = add nuw i64 %_3.sroa.0.010.i.i.i, 1
  tail call void @llvm.experimental.noalias.scope.decl(metadata !386)
  tail call void @llvm.experimental.noalias.scope.decl(metadata !389)
  tail call void @llvm.experimental.noalias.scope.decl(metadata !392)
  %_10.i.i.i.i.i.i = load ptr, ptr %_6.i.i.i, align 8, !alias.scope !395, !noalias !380, !nonnull !2, !noundef !2
  %3 = atomicrmw sub ptr %_10.i.i.i.i.i.i, i64 1 release, align 8, !noalias !396
  %4 = icmp eq i64 %3, 1
  br i1 %4, label %bb2.i.i.i.i.i.i, label %_RINvNtCsjMrxcFdYDNN_4core3ptr13drop_in_placeINtNtCsd8NfRy8pW7m_15crossbeam_deque5deque6WorkerNtNtCsg3Flw6CsbJc_10rayon_core3job6JobRefEEB1x_.exit.i.i.i

bb2.i.i.i.i.i.i:                                  ; preds = %bb5.i.i.i
  fence acquire
; call <alloc::sync::Arc<crossbeam_utils::cache_padded::CachePadded<crossbeam_deque::deque::Inner<rayon_core::job::JobRef>>>>::drop_slow
  tail call void @_RNvMsn_NtCsdJPVW0sQgAG_5alloc4syncINtB5_3ArcINtNtCs8jD91Rl7RDZ_15crossbeam_utils12cache_padded11CachePaddedINtNtCsd8NfRy8pW7m_15crossbeam_deque5deque5InnerNtNtCsg3Flw6CsbJc_10rayon_core3job6JobRefEEE9drop_slowB2x_(ptr noalias noundef nonnull readonly align 8 dereferenceable(32) %_6.i.i.i) #33, !noalias !380
  br label %_RINvNtCsjMrxcFdYDNN_4core3ptr13drop_in_placeINtNtCsd8NfRy8pW7m_15crossbeam_deque5deque6WorkerNtNtCsg3Flw6CsbJc_10rayon_core3job6JobRefEEB1x_.exit.i.i.i

_RINvNtCsjMrxcFdYDNN_4core3ptr13drop_in_placeINtNtCsd8NfRy8pW7m_15crossbeam_deque5deque6WorkerNtNtCsg3Flw6CsbJc_10rayon_core3job6JobRefEEB1x_.exit.i.i.i: ; preds = %bb2.i.i.i.i.i.i, %bb5.i.i.i
  %_7.i.i.i = icmp eq i64 %2, %_1.val1.i
  br i1 %_7.i.i.i, label %bb4.i, label %bb5.i.i.i

bb4.i:                                            ; preds = %_RINvNtCsjMrxcFdYDNN_4core3ptr13drop_in_placeINtNtCsd8NfRy8pW7m_15crossbeam_deque5deque6WorkerNtNtCsg3Flw6CsbJc_10rayon_core3job6JobRefEEB1x_.exit.i.i.i, %start
  %_1.val4.i = load i64, ptr %_1, align 8, !range !56, !alias.scope !380, !noundef !2
  %5 = icmp eq i64 %_1.val4.i, 0
  br i1 %5, label %_RINvNtCsjMrxcFdYDNN_4core3ptr13drop_in_placeINtNtCsdJPVW0sQgAG_5alloc3vec3VecINtNtCsd8NfRy8pW7m_15crossbeam_deque5deque6WorkerNtNtCsg3Flw6CsbJc_10rayon_core3job6JobRefEEEB24_.exit, label %bb2.i.i.i6.i

bb2.i.i.i6.i:                                     ; preds = %bb4.i
  %alloc_size.i.i.i.i7.i = shl nuw i64 %_1.val4.i, 5
; call __rustc::__rust_dealloc
  tail call void @_RNvCsKhRCbHf33p_7___rustc14___rust_dealloc(ptr noundef nonnull %_1.val.i, i64 noundef %alloc_size.i.i.i.i7.i, i64 noundef range(i64 1, -9223372036854775807) 8) #38, !noalias !380
  br label %_RINvNtCsjMrxcFdYDNN_4core3ptr13drop_in_placeINtNtCsdJPVW0sQgAG_5alloc3vec3VecINtNtCsd8NfRy8pW7m_15crossbeam_deque5deque6WorkerNtNtCsg3Flw6CsbJc_10rayon_core3job6JobRefEEEB24_.exit

_RINvNtCsjMrxcFdYDNN_4core3ptr13drop_in_placeINtNtCsdJPVW0sQgAG_5alloc3vec3VecINtNtCsd8NfRy8pW7m_15crossbeam_deque5deque6WorkerNtNtCsg3Flw6CsbJc_10rayon_core3job6JobRefEEEB24_.exit: ; preds = %bb4.i, %bb2.i.i.i6.i
  ret void
}

; core::ptr::drop_in_place::<core::option::Option<alloc::boxed::Box<dyn core::ops::function::Fn<(alloc::boxed::Box<dyn core::any::Any + core::marker::Send>,), Output = ()> + core::marker::Send + core::marker::Sync>>>
; Function Attrs: uwtable
define internal fastcc void @_RINvNtCsjMrxcFdYDNN_4core3ptr13drop_in_placeINtNtB4_6option6OptionINtNtCsdJPVW0sQgAG_5alloc5boxed3BoxDINtNtNtB4_3ops8function2FnTIB13_DNtNtB4_3any3AnyNtNtB4_6marker4SendEL_EEEp6OutputuB2o_NtB2q_4SyncEL_EEECsg3Flw6CsbJc_10rayon_core(ptr %_1.0.val, ptr readonly captures(address_is_null) %_1.8.val) unnamed_addr #1 personality ptr @rust_eh_personality {
start:
  %0 = icmp eq ptr %_1.0.val, null
  br i1 %0, label %bb1, label %bb2

bb1:                                              ; preds = %_RNvXs_NtCsdJPVW0sQgAG_5alloc5allocNtB4_6GlobalNtNtCsjMrxcFdYDNN_4core5alloc9Allocator10deallocate.exit.i.i, %bb3.i, %start
  ret void

bb2:                                              ; preds = %start
  %1 = icmp ne ptr %_1.8.val, null
  tail call void @llvm.assume(i1 %1)
  %2 = load ptr, ptr %_1.8.val, align 8, !invariant.load !2
  %.not.i = icmp eq ptr %2, null
  br i1 %.not.i, label %bb3.i, label %is_not_null.i

is_not_null.i:                                    ; preds = %bb2
  invoke void %2(ptr noundef nonnull %_1.0.val)
          to label %bb3.i unwind label %cleanup.i

bb3.i:                                            ; preds = %is_not_null.i, %bb2
  %3 = getelementptr inbounds nuw i8, ptr %_1.8.val, i64 8
  %4 = load i64, ptr %3, align 8, !range !56, !invariant.load !2
  %5 = getelementptr inbounds nuw i8, ptr %_1.8.val, i64 16
  %6 = load i64, ptr %5, align 8, !range !57, !invariant.load !2
  %7 = add i64 %6, -1
  %8 = icmp sgt i64 %7, -1
  tail call void @llvm.assume(i1 %8)
  %9 = icmp eq i64 %4, 0
  br i1 %9, label %bb1, label %_RNvXs_NtCsdJPVW0sQgAG_5alloc5allocNtB4_6GlobalNtNtCsjMrxcFdYDNN_4core5alloc9Allocator10deallocate.exit.i.i

_RNvXs_NtCsdJPVW0sQgAG_5alloc5allocNtB4_6GlobalNtNtCsjMrxcFdYDNN_4core5alloc9Allocator10deallocate.exit.i.i: ; preds = %bb3.i
; call __rustc::__rust_dealloc
  tail call void @_RNvCsKhRCbHf33p_7___rustc14___rust_dealloc(ptr noundef nonnull %_1.0.val, i64 noundef %4, i64 noundef range(i64 1, -9223372036854775807) %6) #38
  br label %bb1

cleanup.i:                                        ; preds = %is_not_null.i
  %10 = landingpad { ptr, i32 }
          cleanup
  %11 = getelementptr inbounds nuw i8, ptr %_1.8.val, i64 8
  %12 = load i64, ptr %11, align 8, !range !56, !invariant.load !2
  %13 = getelementptr inbounds nuw i8, ptr %_1.8.val, i64 16
  %14 = load i64, ptr %13, align 8, !range !57, !invariant.load !2
  %15 = add i64 %14, -1
  %16 = icmp sgt i64 %15, -1
  tail call void @llvm.assume(i1 %16)
  %17 = icmp eq i64 %12, 0
  br i1 %17, label %bb1.i, label %_RNvXs_NtCsdJPVW0sQgAG_5alloc5allocNtB4_6GlobalNtNtCsjMrxcFdYDNN_4core5alloc9Allocator10deallocate.exit.i4.i

_RNvXs_NtCsdJPVW0sQgAG_5alloc5allocNtB4_6GlobalNtNtCsjMrxcFdYDNN_4core5alloc9Allocator10deallocate.exit.i4.i: ; preds = %cleanup.i
; call __rustc::__rust_dealloc
  tail call void @_RNvCsKhRCbHf33p_7___rustc14___rust_dealloc(ptr noundef nonnull %_1.0.val, i64 noundef %12, i64 noundef range(i64 1, -9223372036854775807) %14) #38
  br label %bb1.i

bb1.i:                                            ; preds = %_RNvXs_NtCsdJPVW0sQgAG_5alloc5allocNtB4_6GlobalNtNtCsjMrxcFdYDNN_4core5alloc9Allocator10deallocate.exit.i4.i, %cleanup.i
  resume { ptr, i32 } %10
}

; core::ptr::drop_in_place::<core::option::Option<alloc::string::String>>
; Function Attrs: nounwind uwtable
define internal void @_RINvNtCsjMrxcFdYDNN_4core3ptr13drop_in_placeINtNtB4_6option6OptionNtNtCsdJPVW0sQgAG_5alloc6string6StringEECsg3Flw6CsbJc_10rayon_core(ptr noalias noundef readonly align 8 captures(none) dereferenceable(24) %_1) unnamed_addr #3 personality ptr @rust_eh_personality {
start:
  %0 = load i64, ptr %_1, align 8, !range !39, !noundef !2
  %1 = icmp eq i64 %0, -9223372036854775808
  br i1 %1, label %bb1, label %bb2

bb1:                                              ; preds = %bb2.i.i.i4.i.i, %bb2, %start
  ret void

bb2:                                              ; preds = %start
  tail call void @llvm.experimental.noalias.scope.decl(metadata !397)
  %2 = icmp eq i64 %0, 0
  br i1 %2, label %bb1, label %bb2.i.i.i4.i.i

bb2.i.i.i4.i.i:                                   ; preds = %bb2
  %3 = getelementptr inbounds nuw i8, ptr %_1, i64 8
  %_1.val1.i = load ptr, ptr %3, align 8, !alias.scope !397, !nonnull !2, !noundef !2
; call __rustc::__rust_dealloc
  tail call void @_RNvCsKhRCbHf33p_7___rustc14___rust_dealloc(ptr noundef nonnull %_1.val1.i, i64 noundef %0, i64 noundef range(i64 1, -9223372036854775807) 1) #38, !noalias !397
  br label %bb1
}

; core::ptr::drop_in_place::<core::result::Result<alloc::sync::Arc<rayon_core::registry::Registry>, rayon_core::ThreadPoolBuildError>>
; Function Attrs: uwtable
define internal fastcc void @_RINvNtCsjMrxcFdYDNN_4core3ptr13drop_in_placeINtNtB4_6result6ResultINtNtCsdJPVW0sQgAG_5alloc4sync3ArcNtNtCsg3Flw6CsbJc_10rayon_core8registry8RegistryENtB1E_20ThreadPoolBuildErrorEEB1E_(ptr noalias noundef nonnull readonly align 8 captures(none) dereferenceable(16) %_1) unnamed_addr #1 {
start:
  %0 = load i64, ptr %_1, align 8, !range !400, !noundef !2
  %1 = icmp eq i64 %0, 3
  br i1 %1, label %bb2, label %bb3

bb2:                                              ; preds = %start
  %2 = getelementptr inbounds nuw i8, ptr %_1, i64 8
  tail call void @llvm.experimental.noalias.scope.decl(metadata !401)
  tail call void @llvm.experimental.noalias.scope.decl(metadata !404)
  %_10.i.i = load ptr, ptr %2, align 8, !alias.scope !407, !nonnull !2, !noundef !2
  %3 = atomicrmw sub ptr %_10.i.i, i64 1 release, align 8, !noalias !407
  %4 = icmp eq i64 %3, 1
  br i1 %4, label %bb2.i.i, label %bb1

bb2.i.i:                                          ; preds = %bb2
  fence acquire
; call <alloc::sync::Arc<rayon_core::registry::Registry>>::drop_slow
  tail call void @_RNvMsn_NtCsdJPVW0sQgAG_5alloc4syncINtB5_3ArcNtNtCsg3Flw6CsbJc_10rayon_core8registry8RegistryE9drop_slowBK_(ptr noalias noundef nonnull readonly align 8 dereferenceable(8) %2) #33
  br label %bb1

bb3:                                              ; preds = %start
  %switch.i.i = icmp samesign ult i64 %0, 2
  br i1 %switch.i.i, label %bb1, label %bb2.i.i1

bb2.i.i1:                                         ; preds = %bb3
  %5 = getelementptr inbounds nuw i8, ptr %_1, i64 8
; call core::ptr::drop_in_place::<std::io::error::Error>
  tail call void @_RINvNtCsjMrxcFdYDNN_4core3ptr13drop_in_placeNtNtNtCs5sEH5CPMdak_3std2io5error5ErrorECsg3Flw6CsbJc_10rayon_core(ptr noalias noundef nonnull readonly align 8 dereferenceable(8) %5)
  br label %bb1

bb1:                                              ; preds = %bb2.i.i1, %bb3, %bb2.i.i, %bb2
  ret void
}

; core::ptr::drop_in_place::<core::result::Result<(), std::io::error::Error>>
; Function Attrs: uwtable
define internal fastcc void @_RINvNtCsjMrxcFdYDNN_4core3ptr13drop_in_placeINtNtB4_6result6ResultuNtNtNtCs5sEH5CPMdak_3std2io5error5ErrorEECsg3Flw6CsbJc_10rayon_core(ptr noalias noundef nonnull readonly align 8 captures(none) dereferenceable(8) %_1) unnamed_addr #1 {
start:
  %0 = load ptr, ptr %_1, align 8, !noundef !2
  %1 = icmp eq ptr %0, null
  br i1 %1, label %bb1, label %bb2

bb1:                                              ; preds = %bb2, %start
  ret void

bb2:                                              ; preds = %start
; call core::ptr::drop_in_place::<std::io::error::Error>
  tail call void @_RINvNtCsjMrxcFdYDNN_4core3ptr13drop_in_placeNtNtNtCs5sEH5CPMdak_3std2io5error5ErrorECsg3Flw6CsbJc_10rayon_core(ptr noalias noundef nonnull align 8 dereferenceable(8) %_1)
  br label %bb1
}

; core::ptr::drop_in_place::<crossbeam_utils::cache_padded::CachePadded<rayon_core::sleep::WorkerSleepState>>
; Function Attrs: uwtable
define internal fastcc void @_RINvNtCsjMrxcFdYDNN_4core3ptr13drop_in_placeINtNtCs8jD91Rl7RDZ_15crossbeam_utils12cache_padded11CachePaddedNtNtCsg3Flw6CsbJc_10rayon_core5sleep16WorkerSleepStateEEB1L_(ptr noalias noundef nonnull align 128 dereferenceable(128) %_1) unnamed_addr #1 personality ptr @rust_eh_personality {
start:
; invoke <std::sys::sync::mutex::pthread::Mutex as core::ops::drop::Drop>::drop
  invoke void @_RNvXs_NtNtNtNtCs5sEH5CPMdak_3std3sys4sync5mutex7pthreadNtB4_5MutexNtNtNtCsjMrxcFdYDNN_4core3ops4drop4Drop4drop(ptr noalias noundef nonnull align 8 dereferenceable(32) %_1)
          to label %bb4.i.i.i unwind label %cleanup.i.i.i

cleanup.i.i.i:                                    ; preds = %start
  %0 = landingpad { ptr, i32 }
          cleanup
; invoke core::ptr::drop_in_place::<std::sys::sync::once_box::OnceBox<std::sys::pal::unix::sync::mutex::Mutex>>
  invoke fastcc void @_RINvNtCsjMrxcFdYDNN_4core3ptr13drop_in_placeINtNtNtNtCs5sEH5CPMdak_3std3sys4sync8once_box7OnceBoxNtNtNtNtNtBN_3pal4unix4sync5mutex5MutexEECsg3Flw6CsbJc_10rayon_core(ptr noalias noundef nonnull align 8 dereferenceable(32) %_1) #35
          to label %cleanup.body.i unwind label %terminate.i.i.i

bb4.i.i.i:                                        ; preds = %start
  tail call void @llvm.experimental.noalias.scope.decl(metadata !408)
  tail call void @llvm.experimental.noalias.scope.decl(metadata !411)
  %ptr.i.i.i.i.i = load ptr, ptr %_1, align 128, !alias.scope !414, !noundef !2
  store ptr null, ptr %_1, align 128, !alias.scope !414
  %1 = icmp eq ptr %ptr.i.i.i.i.i, null
  br i1 %1, label %bb4.i, label %bb2.i.i.i.i.i.i

bb2.i.i.i.i.i.i:                                  ; preds = %bb4.i.i.i
; invoke <std::sys::pal::unix::sync::mutex::Mutex as core::ops::drop::Drop>::drop
  invoke void @_RNvXs2_NtNtNtNtNtCs5sEH5CPMdak_3std3sys3pal4unix4sync5mutexNtB5_5MutexNtNtNtCsjMrxcFdYDNN_4core3ops4drop4Drop4drop(ptr noundef nonnull align 8 %ptr.i.i.i.i.i)
          to label %_RINvNtCsjMrxcFdYDNN_4core3ptr13drop_in_placeINtNtB4_3pin3PinINtNtCsdJPVW0sQgAG_5alloc5boxed3BoxNtNtNtNtNtNtCs5sEH5CPMdak_3std3sys3pal4unix4sync5mutex5MutexEEECsg3Flw6CsbJc_10rayon_core.exit.i.i.i.i.i.i unwind label %bb1.i.i.i.i.i.i.i.i, !noalias !421

bb1.i.i.i.i.i.i.i.i:                              ; preds = %bb2.i.i.i.i.i.i
  %2 = landingpad { ptr, i32 }
          cleanup
; call __rustc::__rust_dealloc
  tail call void @_RNvCsKhRCbHf33p_7___rustc14___rust_dealloc(ptr noundef nonnull %ptr.i.i.i.i.i, i64 noundef 64, i64 noundef 8) #38, !noalias !421
  br label %cleanup.body.i

_RINvNtCsjMrxcFdYDNN_4core3ptr13drop_in_placeINtNtB4_3pin3PinINtNtCsdJPVW0sQgAG_5alloc5boxed3BoxNtNtNtNtNtNtCs5sEH5CPMdak_3std3sys3pal4unix4sync5mutex5MutexEEECsg3Flw6CsbJc_10rayon_core.exit.i.i.i.i.i.i: ; preds = %bb2.i.i.i.i.i.i
; call __rustc::__rust_dealloc
  tail call void @_RNvCsKhRCbHf33p_7___rustc14___rust_dealloc(ptr noundef nonnull %ptr.i.i.i.i.i, i64 noundef 64, i64 noundef 8) #38, !noalias !421
  br label %bb4.i

terminate.i.i.i:                                  ; preds = %cleanup.i.i.i
  %3 = landingpad { ptr, i32 }
          filter [0 x ptr] zeroinitializer
; call core::panicking::panic_in_cleanup
  tail call void @_RNvNtCsjMrxcFdYDNN_4core9panicking16panic_in_cleanup() #36
  unreachable

cleanup.body.i:                                   ; preds = %bb1.i.i.i.i.i.i.i.i, %cleanup.i.i.i
  %eh.lpad-body.i = phi { ptr, i32 } [ %2, %bb1.i.i.i.i.i.i.i.i ], [ %0, %cleanup.i.i.i ]
  %4 = getelementptr inbounds nuw i8, ptr %_1, i64 16
; call core::ptr::drop_in_place::<std::sync::poison::condvar::Condvar>
  tail call fastcc void @_RINvNtCsjMrxcFdYDNN_4core3ptr13drop_in_placeNtNtNtNtCs5sEH5CPMdak_3std4sync6poison7condvar7CondvarECsg3Flw6CsbJc_10rayon_core(ptr noalias noundef align 8 dereferenceable(16) %4) #35
  resume { ptr, i32 } %eh.lpad-body.i

bb4.i:                                            ; preds = %_RINvNtCsjMrxcFdYDNN_4core3ptr13drop_in_placeINtNtB4_3pin3PinINtNtCsdJPVW0sQgAG_5alloc5boxed3BoxNtNtNtNtNtNtCs5sEH5CPMdak_3std3sys3pal4unix4sync5mutex5MutexEEECsg3Flw6CsbJc_10rayon_core.exit.i.i.i.i.i.i, %bb4.i.i.i
  %5 = getelementptr inbounds nuw i8, ptr %_1, i64 16
  tail call void @llvm.experimental.noalias.scope.decl(metadata !422)
  tail call void @llvm.experimental.noalias.scope.decl(metadata !425)
  tail call void @llvm.experimental.noalias.scope.decl(metadata !428)
  tail call void @llvm.experimental.noalias.scope.decl(metadata !431)
  %ptr.i.i.i.i1.i = load ptr, ptr %5, align 16, !alias.scope !434, !noundef !2
  store ptr null, ptr %5, align 16, !alias.scope !434
  %6 = icmp eq ptr %ptr.i.i.i.i1.i, null
  br i1 %6, label %_RINvNtCsjMrxcFdYDNN_4core3ptr13drop_in_placeNtNtCsg3Flw6CsbJc_10rayon_core5sleep16WorkerSleepStateEBK_.exit, label %bb2.i.i.i.i.i2.i

bb2.i.i.i.i.i2.i:                                 ; preds = %bb4.i
  %r.i.i.i.i.i.i.i.i.i.i = tail call noundef i32 @pthread_cond_destroy(ptr noundef nonnull align 8 %ptr.i.i.i.i1.i) #38, !noalias !435
; call __rustc::__rust_dealloc
  tail call void @_RNvCsKhRCbHf33p_7___rustc14___rust_dealloc(ptr noundef nonnull %ptr.i.i.i.i1.i, i64 noundef 48, i64 noundef 8) #38, !noalias !435
  br label %_RINvNtCsjMrxcFdYDNN_4core3ptr13drop_in_placeNtNtCsg3Flw6CsbJc_10rayon_core5sleep16WorkerSleepStateEBK_.exit

_RINvNtCsjMrxcFdYDNN_4core3ptr13drop_in_placeNtNtCsg3Flw6CsbJc_10rayon_core5sleep16WorkerSleepStateEBK_.exit: ; preds = %bb4.i, %bb2.i.i.i.i.i2.i
  ret void
}

; core::ptr::drop_in_place::<crossbeam_deque::deque::Injector<rayon_core::job::JobRef>>
; Function Attrs: nounwind uwtable
define internal fastcc void @_RINvNtCsjMrxcFdYDNN_4core3ptr13drop_in_placeINtNtCsd8NfRy8pW7m_15crossbeam_deque5deque8InjectorNtNtCsg3Flw6CsbJc_10rayon_core3job6JobRefEEB1z_(ptr noalias noundef nonnull readonly align 128 captures(none) dereferenceable(256) %_1) unnamed_addr #3 personality ptr @rust_eh_personality {
start:
  tail call void @llvm.experimental.noalias.scope.decl(metadata !436)
  %0 = load i64, ptr %_1, align 128, !alias.scope !436, !noundef !2
  %1 = getelementptr inbounds nuw i8, ptr %_1, i64 128
  %2 = load i64, ptr %1, align 128, !alias.scope !436, !noundef !2
  %3 = getelementptr inbounds nuw i8, ptr %_1, i64 8
  %4 = load ptr, ptr %3, align 8, !alias.scope !436, !noundef !2
  %5 = and i64 %0, -2
  %6 = and i64 %2, -2
  %_5.not5.i = icmp eq i64 %5, %6
  br i1 %_5.not5.i, label %_RNvXsh_NtCsd8NfRy8pW7m_15crossbeam_deque5dequeINtB5_8InjectorNtNtCsg3Flw6CsbJc_10rayon_core3job6JobRefENtNtNtCsjMrxcFdYDNN_4core3ops4drop4Drop4dropB11_.exit, label %bb2.i

bb2.i:                                            ; preds = %start, %bb5.i
  %head.sroa.0.07.i = phi i64 [ %_19.i, %bb5.i ], [ %5, %start ]
  %block.sroa.0.06.i = phi ptr [ %block.sroa.0.1.i, %bb5.i ], [ %4, %start ]
  %7 = and i64 %head.sroa.0.07.i, 126
  %_11.not.i = icmp eq i64 %7, 126
  br i1 %_11.not.i, label %bb4.i, label %bb5.i

bb4.i:                                            ; preds = %bb2.i
  %next.i = load ptr, ptr %block.sroa.0.06.i, align 8, !noalias !436, !noundef !2
; call __rustc::__rust_dealloc
  tail call void @_RNvCsKhRCbHf33p_7___rustc14___rust_dealloc(ptr noundef nonnull %block.sroa.0.06.i, i64 noundef 1520, i64 noundef 8) #38, !noalias !436
  br label %bb5.i

bb5.i:                                            ; preds = %bb4.i, %bb2.i
  %block.sroa.0.1.i = phi ptr [ %next.i, %bb4.i ], [ %block.sroa.0.06.i, %bb2.i ]
  %_19.i = add i64 %head.sroa.0.07.i, 2
  %_5.not.i = icmp eq i64 %_19.i, %6
  br i1 %_5.not.i, label %_RNvXsh_NtCsd8NfRy8pW7m_15crossbeam_deque5dequeINtB5_8InjectorNtNtCsg3Flw6CsbJc_10rayon_core3job6JobRefENtNtNtCsjMrxcFdYDNN_4core3ops4drop4Drop4dropB11_.exit, label %bb2.i

_RNvXsh_NtCsd8NfRy8pW7m_15crossbeam_deque5dequeINtB5_8InjectorNtNtCsg3Flw6CsbJc_10rayon_core3job6JobRefENtNtNtCsjMrxcFdYDNN_4core3ops4drop4Drop4dropB11_.exit: ; preds = %bb5.i, %start
  %block.sroa.0.0.lcssa.i = phi ptr [ %4, %start ], [ %block.sroa.0.1.i, %bb5.i ]
  %8 = icmp ne ptr %block.sroa.0.0.lcssa.i, null
  tail call void @llvm.assume(i1 %8)
; call __rustc::__rust_dealloc
  tail call void @_RNvCsKhRCbHf33p_7___rustc14___rust_dealloc(ptr noundef nonnull %block.sroa.0.0.lcssa.i, i64 noundef 1520, i64 noundef 8) #38, !noalias !436
  ret void
}

; core::ptr::drop_in_place::<alloc::vec::Vec<alloc::boxed::Box<dyn core::ops::function::FnOnce<(), Output = ()> + core::marker::Send>>>
; Function Attrs: uwtable
define internal fastcc void @_RINvNtCsjMrxcFdYDNN_4core3ptr13drop_in_placeINtNtCsdJPVW0sQgAG_5alloc3vec3VecINtNtBL_5boxed3BoxDINtNtNtB4_3ops8function6FnOnceuEp6OutputuNtNtB4_6marker4SendEL_EEECsg3Flw6CsbJc_10rayon_core(ptr noalias noundef nonnull readonly align 8 captures(none) dereferenceable(24) %_1) unnamed_addr #1 personality ptr @rust_eh_personality {
start:
  %0 = getelementptr inbounds nuw i8, ptr %_1, i64 8
  %_1.val = load ptr, ptr %0, align 8, !nonnull !2, !noundef !2
  %1 = getelementptr inbounds nuw i8, ptr %_1, i64 16
  %_1.val1 = load i64, ptr %1, align 8, !noundef !2
  tail call void @llvm.experimental.noalias.scope.decl(metadata !439)
  %_78.i.i = icmp eq i64 %_1.val1, 0
  br i1 %_78.i.i, label %bb4, label %bb5.i.i

bb5.i.i:                                          ; preds = %start, %_RINvNtCsjMrxcFdYDNN_4core3ptr13drop_in_placeINtNtCsdJPVW0sQgAG_5alloc5boxed3BoxDINtNtNtB4_3ops8function6FnOnceuEp6OutputuNtNtB4_6marker4SendEL_EECsg3Flw6CsbJc_10rayon_core.exit.i.i
  %_3.sroa.0.09.i.i = phi i64 [ %2, %_RINvNtCsjMrxcFdYDNN_4core3ptr13drop_in_placeINtNtCsdJPVW0sQgAG_5alloc5boxed3BoxDINtNtNtB4_3ops8function6FnOnceuEp6OutputuNtNtB4_6marker4SendEL_EECsg3Flw6CsbJc_10rayon_core.exit.i.i ], [ 0, %start ]
  %_6.i.i = getelementptr inbounds nuw %"alloc::boxed::Box<dyn core::ops::function::FnOnce() + core::marker::Send>", ptr %_1.val, i64 %_3.sroa.0.09.i.i
  %2 = add nuw i64 %_3.sroa.0.09.i.i, 1
  %_6.val.i.i = load ptr, ptr %_6.i.i, align 8, !alias.scope !439
  %3 = getelementptr i8, ptr %_6.i.i, i64 8
  %_6.val7.i.i = load ptr, ptr %3, align 8, !alias.scope !439, !nonnull !2, !align !55, !noundef !2
  %4 = load ptr, ptr %_6.val7.i.i, align 8, !invariant.load !2, !noalias !439
  %.not.i.i.i = icmp eq ptr %4, null
  br i1 %.not.i.i.i, label %bb3.i.i.i, label %is_not_null.i.i.i

is_not_null.i.i.i:                                ; preds = %bb5.i.i
  %5 = icmp ne ptr %_6.val.i.i, null
  tail call void @llvm.assume(i1 %5)
  invoke void %4(ptr noundef nonnull %_6.val.i.i)
          to label %bb3.i.i.i unwind label %cleanup.i.i.i, !noalias !439

bb3.i.i.i:                                        ; preds = %is_not_null.i.i.i, %bb5.i.i
  %6 = icmp ne ptr %_6.val.i.i, null
  tail call void @llvm.assume(i1 %6)
  %7 = getelementptr inbounds nuw i8, ptr %_6.val7.i.i, i64 8
  %8 = load i64, ptr %7, align 8, !range !56, !invariant.load !2, !noalias !439
  %9 = getelementptr inbounds nuw i8, ptr %_6.val7.i.i, i64 16
  %10 = load i64, ptr %9, align 8, !range !57, !invariant.load !2, !noalias !439
  %11 = add i64 %10, -1
  %12 = icmp sgt i64 %11, -1
  tail call void @llvm.assume(i1 %12)
  %13 = icmp eq i64 %8, 0
  br i1 %13, label %_RINvNtCsjMrxcFdYDNN_4core3ptr13drop_in_placeINtNtCsdJPVW0sQgAG_5alloc5boxed3BoxDINtNtNtB4_3ops8function6FnOnceuEp6OutputuNtNtB4_6marker4SendEL_EECsg3Flw6CsbJc_10rayon_core.exit.i.i, label %_RNvXs_NtCsdJPVW0sQgAG_5alloc5allocNtB4_6GlobalNtNtCsjMrxcFdYDNN_4core5alloc9Allocator10deallocate.exit.i.i.i.i

_RNvXs_NtCsdJPVW0sQgAG_5alloc5allocNtB4_6GlobalNtNtCsjMrxcFdYDNN_4core5alloc9Allocator10deallocate.exit.i.i.i.i: ; preds = %bb3.i.i.i
; call __rustc::__rust_dealloc
  tail call void @_RNvCsKhRCbHf33p_7___rustc14___rust_dealloc(ptr noundef nonnull %_6.val.i.i, i64 noundef %8, i64 noundef range(i64 1, -9223372036854775807) %10) #38, !noalias !439
  br label %_RINvNtCsjMrxcFdYDNN_4core3ptr13drop_in_placeINtNtCsdJPVW0sQgAG_5alloc5boxed3BoxDINtNtNtB4_3ops8function6FnOnceuEp6OutputuNtNtB4_6marker4SendEL_EECsg3Flw6CsbJc_10rayon_core.exit.i.i

cleanup.i.i.i:                                    ; preds = %is_not_null.i.i.i
  %14 = landingpad { ptr, i32 }
          cleanup
  %15 = getelementptr inbounds nuw i8, ptr %_6.val7.i.i, i64 8
  %16 = load i64, ptr %15, align 8, !range !56, !invariant.load !2, !noalias !439
  %17 = getelementptr inbounds nuw i8, ptr %_6.val7.i.i, i64 16
  %18 = load i64, ptr %17, align 8, !range !57, !invariant.load !2, !noalias !439
  %19 = add i64 %18, -1
  %20 = icmp sgt i64 %19, -1
  tail call void @llvm.assume(i1 %20)
  %21 = icmp eq i64 %16, 0
  br i1 %21, label %bb4.i.i.preheader, label %_RNvXs_NtCsdJPVW0sQgAG_5alloc5allocNtB4_6GlobalNtNtCsjMrxcFdYDNN_4core5alloc9Allocator10deallocate.exit.i4.i.i.i

bb4.i.i.preheader:                                ; preds = %_RNvXs_NtCsdJPVW0sQgAG_5alloc5allocNtB4_6GlobalNtNtCsjMrxcFdYDNN_4core5alloc9Allocator10deallocate.exit.i4.i.i.i, %cleanup.i.i.i
  br label %bb4.i.i

_RNvXs_NtCsdJPVW0sQgAG_5alloc5allocNtB4_6GlobalNtNtCsjMrxcFdYDNN_4core5alloc9Allocator10deallocate.exit.i4.i.i.i: ; preds = %cleanup.i.i.i
; call __rustc::__rust_dealloc
  tail call void @_RNvCsKhRCbHf33p_7___rustc14___rust_dealloc(ptr noundef nonnull %_6.val.i.i, i64 noundef %16, i64 noundef range(i64 1, -9223372036854775807) %18) #38, !noalias !439
  br label %bb4.i.i.preheader

_RINvNtCsjMrxcFdYDNN_4core3ptr13drop_in_placeINtNtCsdJPVW0sQgAG_5alloc5boxed3BoxDINtNtNtB4_3ops8function6FnOnceuEp6OutputuNtNtB4_6marker4SendEL_EECsg3Flw6CsbJc_10rayon_core.exit.i.i: ; preds = %_RNvXs_NtCsdJPVW0sQgAG_5alloc5allocNtB4_6GlobalNtNtCsjMrxcFdYDNN_4core5alloc9Allocator10deallocate.exit.i.i.i.i, %bb3.i.i.i
  %_7.i.i = icmp eq i64 %2, %_1.val1
  br i1 %_7.i.i, label %bb4, label %bb5.i.i

bb4.i.i:                                          ; preds = %bb4.i.i.preheader, %bb3.i.i
  %_3.sroa.0.1.i.i = phi i64 [ %22, %bb3.i.i ], [ %2, %bb4.i.i.preheader ]
  %_5.i.i = icmp eq i64 %_3.sroa.0.1.i.i, %_1.val1
  br i1 %_5.i.i, label %cleanup.body, label %bb3.i.i

bb3.i.i:                                          ; preds = %bb4.i.i
  %_4.i.i = getelementptr inbounds nuw %"alloc::boxed::Box<dyn core::ops::function::FnOnce() + core::marker::Send>", ptr %_1.val, i64 %_3.sroa.0.1.i.i
  %22 = add i64 %_3.sroa.0.1.i.i, 1
  %_4.val.i.i = load ptr, ptr %_4.i.i, align 8, !alias.scope !439
  %23 = getelementptr i8, ptr %_4.i.i, i64 8
  %_4.val6.i.i = load ptr, ptr %23, align 8, !alias.scope !439, !nonnull !2, !align !55, !noundef !2
; invoke core::ptr::drop_in_place::<alloc::boxed::Box<dyn core::ops::function::FnOnce<(), Output = ()> + core::marker::Send>>
  invoke fastcc void @_RINvNtCsjMrxcFdYDNN_4core3ptr13drop_in_placeINtNtCsdJPVW0sQgAG_5alloc5boxed3BoxDINtNtNtB4_3ops8function6FnOnceuEp6OutputuNtNtB4_6marker4SendEL_EECsg3Flw6CsbJc_10rayon_core(ptr %_4.val.i.i, ptr nonnull %_4.val6.i.i) #35
          to label %bb4.i.i unwind label %terminate.i.i, !noalias !439

terminate.i.i:                                    ; preds = %bb3.i.i
  %24 = landingpad { ptr, i32 }
          filter [0 x ptr] zeroinitializer
; call core::panicking::panic_in_cleanup
  tail call void @_RNvNtCsjMrxcFdYDNN_4core9panicking16panic_in_cleanup() #36, !noalias !439
  unreachable

cleanup.body:                                     ; preds = %bb4.i.i
  %_1.val2 = load i64, ptr %_1, align 8, !range !56, !noundef !2
  %25 = icmp eq i64 %_1.val2, 0
  br i1 %25, label %bb1, label %bb2.i.i.i

bb2.i.i.i:                                        ; preds = %cleanup.body
  %alloc_size.i.i.i.i = shl nuw i64 %_1.val2, 4
; call __rustc::__rust_dealloc
  tail call void @_RNvCsKhRCbHf33p_7___rustc14___rust_dealloc(ptr noundef nonnull %_1.val, i64 noundef %alloc_size.i.i.i.i, i64 noundef range(i64 1, -9223372036854775807) 8) #38
  br label %bb1

bb4:                                              ; preds = %_RINvNtCsjMrxcFdYDNN_4core3ptr13drop_in_placeINtNtCsdJPVW0sQgAG_5alloc5boxed3BoxDINtNtNtB4_3ops8function6FnOnceuEp6OutputuNtNtB4_6marker4SendEL_EECsg3Flw6CsbJc_10rayon_core.exit.i.i, %start
  %_1.val4 = load i64, ptr %_1, align 8, !range !56, !noundef !2
  %26 = icmp eq i64 %_1.val4, 0
  br i1 %26, label %_RINvNtCsjMrxcFdYDNN_4core3ptr13drop_in_placeINtNtCsdJPVW0sQgAG_5alloc7raw_vec6RawVecINtNtBL_5boxed3BoxDINtNtNtB4_3ops8function6FnOnceuEp6OutputuNtNtB4_6marker4SendEL_EEECsg3Flw6CsbJc_10rayon_core.exit8, label %bb2.i.i.i6

bb2.i.i.i6:                                       ; preds = %bb4
  %alloc_size.i.i.i.i7 = shl nuw i64 %_1.val4, 4
; call __rustc::__rust_dealloc
  tail call void @_RNvCsKhRCbHf33p_7___rustc14___rust_dealloc(ptr noundef nonnull %_1.val, i64 noundef %alloc_size.i.i.i.i7, i64 noundef range(i64 1, -9223372036854775807) 8) #38
  br label %_RINvNtCsjMrxcFdYDNN_4core3ptr13drop_in_placeINtNtCsdJPVW0sQgAG_5alloc7raw_vec6RawVecINtNtBL_5boxed3BoxDINtNtNtB4_3ops8function6FnOnceuEp6OutputuNtNtB4_6marker4SendEL_EEECsg3Flw6CsbJc_10rayon_core.exit8

_RINvNtCsjMrxcFdYDNN_4core3ptr13drop_in_placeINtNtCsdJPVW0sQgAG_5alloc7raw_vec6RawVecINtNtBL_5boxed3BoxDINtNtNtB4_3ops8function6FnOnceuEp6OutputuNtNtB4_6marker4SendEL_EEECsg3Flw6CsbJc_10rayon_core.exit8: ; preds = %bb4, %bb2.i.i.i6
  ret void

bb1:                                              ; preds = %bb2.i.i.i, %cleanup.body
  resume { ptr, i32 } %14
}

; core::ptr::drop_in_place::<alloc::vec::Vec<crossbeam_utils::cache_padded::CachePadded<rayon_core::sleep::WorkerSleepState>>>
; Function Attrs: uwtable
define internal fastcc void @_RINvNtCsjMrxcFdYDNN_4core3ptr13drop_in_placeINtNtCsdJPVW0sQgAG_5alloc3vec3VecINtNtCs8jD91Rl7RDZ_15crossbeam_utils12cache_padded11CachePaddedNtNtCsg3Flw6CsbJc_10rayon_core5sleep16WorkerSleepStateEEEB2i_(ptr noalias noundef nonnull readonly align 8 captures(none) dereferenceable(24) %_1) unnamed_addr #1 personality ptr @rust_eh_personality {
start:
  %0 = getelementptr inbounds nuw i8, ptr %_1, i64 8
  %_1.val = load ptr, ptr %0, align 8, !nonnull !2, !noundef !2
  %1 = getelementptr inbounds nuw i8, ptr %_1, i64 16
  %_1.val1 = load i64, ptr %1, align 8, !noundef !2
  br label %bb6.i.i

bb6.i.i:                                          ; preds = %bb5.i.i, %start
  %_3.sroa.0.0.i.i = phi i64 [ 0, %start ], [ %2, %bb5.i.i ]
  %_7.i.i = icmp eq i64 %_3.sroa.0.0.i.i, %_1.val1
  br i1 %_7.i.i, label %bb4, label %bb5.i.i

bb5.i.i:                                          ; preds = %bb6.i.i
  %_6.i.i = getelementptr inbounds nuw %"crossbeam_utils::cache_padded::CachePadded<sleep::WorkerSleepState>", ptr %_1.val, i64 %_3.sroa.0.0.i.i
  %2 = add i64 %_3.sroa.0.0.i.i, 1
