; ModuleID = 'rayon.4e2d29606010a7f2-cgu.0'
source_filename = "rayon.4e2d29606010a7f2-cgu.0"
target datalayout = "e-m:o-p270:32:32-p271:32:32-p272:64:64-i64:64-i128:128-n32:64-S128-Fn32"
target triple = "arm64-apple-macosx11.0.0"

@alloc_4c4fffffc0fd4030ee71dc8553252dbf = private unnamed_addr constant [116 x i8] c"/Users/hongyaotang/.rustup/toolchains/nightly-aarch64-apple-darwin/lib/rustlib/src/rust/library/core/src/str/mod.rs\00", align 1
@alloc_e544298df0c86c838747d07b29de0a9e = private unnamed_addr constant [46 x i8] c"assertion failed: self.is_char_boundary(start)", align 1
@alloc_80d2e1bfcbf7921128061153b325c66a = private unnamed_addr constant [44 x i8] c"assertion failed: self.is_char_boundary(end)", align 1
@alloc_2aeb75438cde1e933b6cdfe025665310 = private unnamed_addr constant [99 x i8] c"/Users/hongyaotang/.cargo/registry/src/index.crates.io-1949cf8c6b5b557f/rayon-1.11.0/src/string.rs\00", align 1
@alloc_d941d93a01edce758f72b5279ebbffa5 = private unnamed_addr constant <{ ptr, [16 x i8] }> <{ ptr @alloc_2aeb75438cde1e933b6cdfe025665310, [16 x i8] c"b\00\00\00\00\00\00\00.\00\00\00\15\00\00\00" }>, align 8
@alloc_83f0bf4aa39c10b3c834df276da2b22b = private unnamed_addr constant <{ ptr, [16 x i8] }> <{ ptr @alloc_4c4fffffc0fd4030ee71dc8553252dbf, [16 x i8] c"s\00\00\00\00\00\00\00A\03\00\00\15\00\00\00" }>, align 8
@alloc_a971c40e7ad6154c2f8a9ac8afdafbdf = private unnamed_addr constant [131 x i8] c"/Users/hongyaotang/.rustup/toolchains/nightly-aarch64-apple-darwin/lib/rustlib/src/rust/library/core/src/iter/traits/exact_size.rs\00", align 1
@alloc_da2ba3549aec1a2e0b10374fba2f3d01 = private unnamed_addr constant <{ ptr, [16 x i8] }> <{ ptr @alloc_a971c40e7ad6154c2f8a9ac8afdafbdf, [16 x i8] c"\82\00\00\00\00\00\00\00z\00\00\00\09\00\00\00" }>, align 8
@alloc_c9080844985d858ed80bda494d71ce81 = private unnamed_addr constant [43 x i8] c"assertion failed: index <= self.range.len()", align 1
@alloc_dffd5a739770691e59af2a5aa8913a3b = private unnamed_addr constant [98 x i8] c"/Users/hongyaotang/.cargo/registry/src/index.crates.io-1949cf8c6b5b557f/rayon-1.11.0/src/range.rs\00", align 1
@alloc_e2d230c97924292fd4549f8cff63212b = private unnamed_addr constant <{ ptr, [16 x i8] }> <{ ptr @alloc_dffd5a739770691e59af2a5aa8913a3b, [16 x i8] c"a\00\00\00\00\00\00\00\1B\01\00\00\01\00\00\00" }>, align 8
@alloc_f8281c28732c1a05782abc7d6b566c4b = private unnamed_addr constant <{ ptr, [16 x i8] }> <{ ptr @alloc_dffd5a739770691e59af2a5aa8913a3b, [16 x i8] c"a\00\00\00\00\00\00\00\1C\01\00\00\01\00\00\00" }>, align 8
@alloc_43b18b607fd50a1d3410659dc5a70f35 = private unnamed_addr constant <{ ptr, [16 x i8] }> <{ ptr @alloc_dffd5a739770691e59af2a5aa8913a3b, [16 x i8] c"a\00\00\00\00\00\00\00\1D\01\00\00\01\00\00\00" }>, align 8
@alloc_b13a900eed8fb1c116b50656695087cc = private unnamed_addr constant <{ ptr, [16 x i8] }> <{ ptr @alloc_dffd5a739770691e59af2a5aa8913a3b, [16 x i8] c"a\00\00\00\00\00\00\00\1E\01\00\00\01\00\00\00" }>, align 8
@alloc_bc6756181a72a930b0e778b9fa29c157 = private unnamed_addr constant <{ ptr, [16 x i8] }> <{ ptr @alloc_dffd5a739770691e59af2a5aa8913a3b, [16 x i8] c"a\00\00\00\00\00\00\00\1F\01\00\00\01\00\00\00" }>, align 8
@alloc_37798e3f494c423ba4622acec985238e = private unnamed_addr constant <{ ptr, [16 x i8] }> <{ ptr @alloc_dffd5a739770691e59af2a5aa8913a3b, [16 x i8] c"a\00\00\00\00\00\00\00 \01\00\00\01\00\00\00" }>, align 8
@alloc_0abcb9bc779d66a14164e6baef4d2566 = private unnamed_addr constant <{ ptr, [16 x i8] }> <{ ptr @alloc_dffd5a739770691e59af2a5aa8913a3b, [16 x i8] c"a\00\00\00\00\00\00\00!\01\00\00\01\00\00\00" }>, align 8
@alloc_a7cf2825a395ae4fecdac4d03227bc65 = private unnamed_addr constant <{ ptr, [16 x i8] }> <{ ptr @alloc_dffd5a739770691e59af2a5aa8913a3b, [16 x i8] c"a\00\00\00\00\00\00\00\22\01\00\00\01\00\00\00" }>, align 8

@_RNvNtNtCs6I88mZlBn6o_5rayon4iter8take_any17checked_decrement = unnamed_addr alias i1 (ptr), ptr @_RNvNtNtCs6I88mZlBn6o_5rayon4iter8skip_any17checked_decrement
@_RNvXs9_NtCs6I88mZlBn6o_5rayon3strNtB5_13BytesProducerNtNtNtB7_4iter8plumbing17UnindexedProducer5split = unnamed_addr alias void (ptr, ptr, i64), ptr @_RNvXs5_NtCs6I88mZlBn6o_5rayon3strNtB5_13CharsProducerNtNtNtB7_4iter8plumbing17UnindexedProducer5split
@_RNvXsb_NtCs6I88mZlBn6o_5rayon3strNtB5_19EncodeUtf16ProducerNtNtNtB7_4iter8plumbing17UnindexedProducer5split = unnamed_addr alias void (ptr, ptr, i64), ptr @_RNvXs5_NtCs6I88mZlBn6o_5rayon3strNtB5_13CharsProducerNtNtNtB7_4iter8plumbing17UnindexedProducer5split

; core::ptr::drop_in_place::<alloc::collections::linked_list::LinkedList<alloc::string::String>>
; Function Attrs: nounwind uwtable
define internal fastcc void @_RINvNtCsjMrxcFdYDNN_4core3ptr13drop_in_placeINtNtNtCsdJPVW0sQgAG_5alloc11collections11linked_list10LinkedListNtNtBN_6string6StringEECs6I88mZlBn6o_5rayon(ptr noalias noundef nonnull align 8 captures(none) dereferenceable(24) %_1) unnamed_addr #0 personality ptr @rust_eh_personality {
start:
  tail call void @llvm.experimental.noalias.scope.decl(metadata !2)
  %f.i = getelementptr inbounds nuw i8, ptr %_1, i64 8
  %f3.i = getelementptr inbounds nuw i8, ptr %_1, i64 16
  %self.promoted.i = load ptr, ptr %_1, align 8, !alias.scope !2
  %.not18.i = icmp eq ptr %self.promoted.i, null
  br i1 %.not18.i, label %_RNvXs7_NtNtCsdJPVW0sQgAG_5alloc11collections11linked_listINtB5_10LinkedListNtNtB9_6string6StringENtNtNtCsjMrxcFdYDNN_4core3ops4drop4Drop4dropCs6I88mZlBn6o_5rayon.exit, label %bb11.preheader.i

bb11.preheader.i:                                 ; preds = %start
  %f3.promoted.i = load i64, ptr %f3.i, align 8, !alias.scope !2
  br label %bb11.i

bb11.i:                                           ; preds = %bb3.i, %bb11.preheader.i
  %_151719.i = phi ptr [ %_15.i, %bb3.i ], [ %self.promoted.i, %bb11.preheader.i ]
  %0 = phi i64 [ %3, %bb3.i ], [ %f3.promoted.i, %bb11.preheader.i ]
  %1 = getelementptr inbounds nuw i8, ptr %_151719.i, i64 24
  %_15.i = load ptr, ptr %1, align 8, !noalias !2, !noundef !5
  store ptr %_15.i, ptr %_1, align 8, !alias.scope !2
  %.not5.i = icmp eq ptr %_15.i, null
  br i1 %.not5.i, label %bb13.i, label %bb12.i

bb12.i:                                           ; preds = %bb11.i
  %2 = getelementptr inbounds nuw i8, ptr %_15.i, i64 32
  store ptr null, ptr %2, align 8, !noalias !2
  br label %bb2.i.i

bb13.i:                                           ; preds = %bb11.i
  store ptr null, ptr %f.i, align 8, !alias.scope !2
  br label %bb2.i.i

bb2.i.i:                                          ; preds = %bb13.i, %bb12.i
  %3 = add i64 %0, -1
  store i64 %3, ptr %f3.i, align 8, !alias.scope !2
  %_6.val.i.i.i = load i64, ptr %_151719.i, align 8, !noalias !2
  %4 = icmp eq i64 %_6.val.i.i.i, 0
  br i1 %4, label %bb3.i, label %_RNvXs_NtCsdJPVW0sQgAG_5alloc5allocNtB4_6GlobalNtNtCsjMrxcFdYDNN_4core5alloc9Allocator10deallocate.exit.i.i.i4.i.i.i.i.i.i

_RNvXs_NtCsdJPVW0sQgAG_5alloc5allocNtB4_6GlobalNtNtCsjMrxcFdYDNN_4core5alloc9Allocator10deallocate.exit.i.i.i4.i.i.i.i.i.i: ; preds = %bb2.i.i
  %5 = getelementptr i8, ptr %_151719.i, i64 8
  %_6.val1.i.i.i = load ptr, ptr %5, align 8, !noalias !2, !nonnull !5, !noundef !5
; call __rustc::__rust_dealloc
  tail call void @_RNvCsKhRCbHf33p_7___rustc14___rust_dealloc(ptr noundef nonnull %_6.val1.i.i.i, i64 noundef %_6.val.i.i.i, i64 noundef range(i64 1, -9223372036854775807) 1) #20, !noalias !2
  br label %bb3.i

bb3.i:                                            ; preds = %_RNvXs_NtCsdJPVW0sQgAG_5alloc5allocNtB4_6GlobalNtNtCsjMrxcFdYDNN_4core5alloc9Allocator10deallocate.exit.i.i.i4.i.i.i.i.i.i, %bb2.i.i
; call __rustc::__rust_dealloc
  tail call void @_RNvCsKhRCbHf33p_7___rustc14___rust_dealloc(ptr noundef nonnull %_151719.i, i64 noundef 40, i64 noundef 8) #20, !noalias !2
  br i1 %.not5.i, label %_RNvXs7_NtNtCsdJPVW0sQgAG_5alloc11collections11linked_listINtB5_10LinkedListNtNtB9_6string6StringENtNtNtCsjMrxcFdYDNN_4core3ops4drop4Drop4dropCs6I88mZlBn6o_5rayon.exit, label %bb11.i

_RNvXs7_NtNtCsdJPVW0sQgAG_5alloc11collections11linked_listINtB5_10LinkedListNtNtB9_6string6StringENtNtNtCsjMrxcFdYDNN_4core3ops4drop4Drop4dropCs6I88mZlBn6o_5rayon.exit: ; preds = %bb3.i, %start
  ret void
}

; <alloc::raw_vec::RawVecInner<_>>::reserve::do_reserve_and_handle::<alloc::alloc::Global>
; Function Attrs: cold uwtable
define internal fastcc void @_RINvNvMs2_NtCsdJPVW0sQgAG_5alloc7raw_vecINtB8_11RawVecInnerpE7reserve21do_reserve_and_handleNtNtBa_5alloc6GlobalECs6I88mZlBn6o_5rayon(ptr noalias noundef nonnull align 8 captures(none) dereferenceable(16) %slf, i64 noundef %len, i64 noundef range(i64 1, 5) %additional) unnamed_addr #1 personality ptr @rust_eh_personality {
start:
  %self3.i = alloca [24 x i8], align 8
  tail call void @llvm.experimental.noalias.scope.decl(metadata !6)
  %_25.0.i = add i64 %additional, %len
  %_25.1.i = icmp ult i64 %_25.0.i, %len
  br i1 %_25.1.i, label %bb2, label %bb9.i

bb9.i:                                            ; preds = %start
  %self5.i = load i64, ptr %slf, align 8, !range !9, !alias.scope !6, !noundef !5
  %v16.i = shl nuw i64 %self5.i, 1
  %_0.sroa.0.0.i.i = tail call noundef i64 @llvm.umax.i64(i64 %_25.0.i, i64 range(i64 0, -1) %v16.i)
  %_0.sroa.0.0.i16.i = tail call noundef i64 @llvm.umax.i64(i64 %_0.sroa.0.0.i.i, i64 8)
  call void @llvm.lifetime.start.p0(i64 24, ptr nonnull %self3.i), !noalias !6
  %0 = getelementptr inbounds nuw i8, ptr %slf, i64 8
  %self.val15.i = load ptr, ptr %0, align 8, !alias.scope !6
; call <alloc::raw_vec::RawVecInner>::finish_grow
  call fastcc void @_RNvMs4_NtCsdJPVW0sQgAG_5alloc7raw_vecNtB5_11RawVecInner11finish_growCs6I88mZlBn6o_5rayon(ptr noalias noundef align 8 captures(none) dereferenceable(24) %self3.i, i64 %self5.i, ptr %self.val15.i, i64 noundef %_0.sroa.0.0.i16.i)
  %_35.i = load i64, ptr %self3.i, align 8, !range !10, !noalias !6, !noundef !5
  %1 = trunc nuw i64 %_35.i to i1
  %2 = getelementptr inbounds nuw i8, ptr %self3.i, i64 8
  br i1 %1, label %bb18.i, label %bb3

bb18.i:                                           ; preds = %bb9.i
  %e.0.i = load i64, ptr %2, align 8, !range !11, !noalias !6, !noundef !5
  %3 = getelementptr inbounds nuw i8, ptr %self3.i, i64 16
  %e.1.i = load i64, ptr %3, align 8, !noalias !6
  call void @llvm.lifetime.end.p0(i64 24, ptr nonnull %self3.i), !noalias !6
  br label %bb2

bb2:                                              ; preds = %bb18.i, %start
  %_0.sroa.5.0.i.ph = phi i64 [ undef, %start ], [ %e.1.i, %bb18.i ]
  %_0.sroa.0.0.i.ph = phi i64 [ 0, %start ], [ %e.0.i, %bb18.i ]
; call alloc::raw_vec::handle_error
  tail call void @_RNvNtCsdJPVW0sQgAG_5alloc7raw_vec12handle_error(i64 noundef %_0.sroa.0.0.i.ph, i64 %_0.sroa.5.0.i.ph) #21
  unreachable

bb3:                                              ; preds = %bb9.i
  %v.0.i = load ptr, ptr %2, align 8, !noalias !6, !nonnull !5, !noundef !5
  call void @llvm.lifetime.end.p0(i64 24, ptr nonnull %self3.i), !noalias !6
  store ptr %v.0.i, ptr %0, align 8, !alias.scope !6
  %4 = icmp sgt i64 %_0.sroa.0.0.i16.i, -1
  tail call void @llvm.assume(i1 %4)
  store i64 %_0.sroa.0.0.i16.i, ptr %slf, align 8, !alias.scope !6
  ret void
}

; <alloc::raw_vec::RawVecInner>::finish_grow
; Function Attrs: cold nounwind uwtable
define internal fastcc void @_RNvMs4_NtCsdJPVW0sQgAG_5alloc7raw_vecNtB5_11RawVecInner11finish_growCs6I88mZlBn6o_5rayon(ptr dead_on_unwind noalias noundef nonnull writable writeonly align 8 captures(none) dereferenceable(24) initializes((0, 8)) %_0, i64 %self.0.val, ptr %self.8.val, i64 noundef %cap) unnamed_addr #2 {
start:
  %_23.i = icmp eq i64 %cap, 0
  br i1 %_23.i, label %bb14.thread, label %bb6.i

bb6.i:                                            ; preds = %start
  %or.cond.not = icmp sgt i64 %cap, 0
  br i1 %or.cond.not, label %bb14, label %bb11, !prof !12

bb14:                                             ; preds = %bb6.i
  %0 = icmp eq i64 %self.0.val, 0
  br i1 %0, label %bb4.i.i11, label %_RNvXs_NtCsdJPVW0sQgAG_5alloc5allocNtB4_6GlobalNtNtCsjMrxcFdYDNN_4core5alloc9Allocator4grow.exit

bb14.thread:                                      ; preds = %start
  %1 = icmp eq i64 %self.0.val, 0
  br i1 %1, label %bb9, label %_RNvXs_NtCsdJPVW0sQgAG_5alloc5allocNtB4_6GlobalNtNtCsjMrxcFdYDNN_4core5alloc9Allocator4grow.exit

_RNvXs_NtCsdJPVW0sQgAG_5alloc5allocNtB4_6GlobalNtNtCsjMrxcFdYDNN_4core5alloc9Allocator4grow.exit: ; preds = %bb14.thread, %bb14
  %2 = icmp ne ptr %self.8.val, null
  tail call void @llvm.assume(i1 %2)
  %cond.i.i = icmp uge i64 %cap, %self.0.val
  tail call void @llvm.assume(i1 %cond.i.i)
; call __rustc::__rust_realloc
  %raw_ptr.i.i = tail call noundef ptr @_RNvCsKhRCbHf33p_7___rustc14___rust_realloc(ptr noundef nonnull %self.8.val, i64 noundef %self.0.val, i64 noundef range(i64 1, -9223372036854775807) 1, i64 noundef %cap) #20
  br label %bb7

bb4.i.i11:                                        ; preds = %bb14
; call __rustc::__rust_no_alloc_shim_is_unstable_v2
  tail call void @_RNvCsKhRCbHf33p_7___rustc35___rust_no_alloc_shim_is_unstable_v2() #20
; call __rustc::__rust_alloc
  %3 = tail call noundef ptr @_RNvCsKhRCbHf33p_7___rustc12___rust_alloc(i64 noundef %cap, i64 noundef range(i64 1, -9223372036854775807) 1) #20
  br label %bb7

bb7:                                              ; preds = %bb4.i.i11, %_RNvXs_NtCsdJPVW0sQgAG_5alloc5allocNtB4_6GlobalNtNtCsjMrxcFdYDNN_4core5alloc9Allocator4grow.exit
  %raw_ptr.i.i.pn = phi ptr [ %raw_ptr.i.i, %_RNvXs_NtCsdJPVW0sQgAG_5alloc5allocNtB4_6GlobalNtNtCsjMrxcFdYDNN_4core5alloc9Allocator4grow.exit ], [ %3, %bb4.i.i11 ]
  %4 = icmp eq ptr %raw_ptr.i.i.pn, null
  br i1 %4, label %bb8, label %bb9

bb8:                                              ; preds = %bb7
  %5 = getelementptr inbounds nuw i8, ptr %_0, i64 8
  store i64 1, ptr %5, align 8
  br label %bb11

bb9:                                              ; preds = %bb14.thread, %bb7
  %raw_ptr.i.i.pn22 = phi ptr [ %raw_ptr.i.i.pn, %bb7 ], [ inttoptr (i64 1 to ptr), %bb14.thread ]
  %_27.sroa.7.01121 = phi i64 [ %cap, %bb7 ], [ 0, %bb14.thread ]
  %6 = getelementptr inbounds nuw i8, ptr %_0, i64 8
  store ptr %raw_ptr.i.i.pn22, ptr %6, align 8
  br label %bb11

bb11:                                             ; preds = %bb6.i, %bb9, %bb8
  %.sink23 = phi i64 [ 16, %bb9 ], [ 16, %bb8 ], [ 8, %bb6.i ]
  %_27.sroa.7.01121.sink = phi i64 [ %_27.sroa.7.01121, %bb9 ], [ %cap, %bb8 ], [ 0, %bb6.i ]
  %storemerge8 = phi i64 [ 0, %bb9 ], [ 1, %bb8 ], [ 1, %bb6.i ]
  %7 = getelementptr inbounds nuw i8, ptr %_0, i64 %.sink23
  store i64 %_27.sroa.7.01121.sink, ptr %7, align 8
  store i64 %storemerge8, ptr %_0, align 8
  ret void
}

; rayon::iter::skip_any::checked_decrement
; Function Attrs: nofree norecurse nounwind memory(argmem: readwrite) uwtable
define noundef zeroext i1 @_RNvNtNtCs6I88mZlBn6o_5rayon4iter8skip_any17checked_decrement(ptr noundef nonnull align 8 captures(none) %u) unnamed_addr #3 personality ptr @rust_eh_personality {
start:
  %0 = load atomic i64, ptr %u monotonic, align 8
  br label %bb1.i

bb1.i:                                            ; preds = %bb3.i, %start
  %prev.sroa.0.0.i = phi i64 [ %0, %start ], [ %3, %bb3.i ]
  %_3.i.not.i.not.not.not.not.not = icmp ne i64 %prev.sroa.0.0.i, 0
  br i1 %_3.i.not.i.not.not.not.not.not, label %bb3.i, label %_RINvMs1H_NtNtCsjMrxcFdYDNN_4core4sync6atomicNtB7_11AtomicUsize12fetch_updateNCNvNtNtCs6I88mZlBn6o_5rayon4iter8skip_any17checked_decrement0EB1k_.exit

bb3.i:                                            ; preds = %bb1.i
  %_4.i.i = add i64 %prev.sroa.0.0.i, -1
  %1 = cmpxchg weak ptr %u, i64 %prev.sroa.0.0.i, i64 %_4.i.i monotonic monotonic, align 8
  %2 = extractvalue { i64, i1 } %1, 1
  %3 = extractvalue { i64, i1 } %1, 0
  br i1 %2, label %_RINvMs1H_NtNtCsjMrxcFdYDNN_4core4sync6atomicNtB7_11AtomicUsize12fetch_updateNCNvNtNtCs6I88mZlBn6o_5rayon4iter8skip_any17checked_decrement0EB1k_.exit, label %bb1.i

_RINvMs1H_NtNtCsjMrxcFdYDNN_4core4sync6atomicNtB7_11AtomicUsize12fetch_updateNCNvNtNtCs6I88mZlBn6o_5rayon4iter8skip_any17checked_decrement0EB1k_.exit: ; preds = %bb1.i, %bb3.i
  ret i1 %_3.i.not.i.not.not.not.not.not
}

; <rayon::string::Drain as core::ops::drop::Drop>::drop
; Function Attrs: uwtable
define void @_RNvXs0_NtCs6I88mZlBn6o_5rayon6stringNtB5_5DrainNtNtNtCsjMrxcFdYDNN_4core3ops4drop4Drop4drop(ptr noalias noundef readonly align 8 captures(none) dereferenceable(24) %self) unnamed_addr #4 personality ptr @rust_eh_personality {
start:
  %_2 = alloca [40 x i8], align 8
  call void @llvm.lifetime.start.p0(i64 40, ptr nonnull %_2)
  %_5 = load ptr, ptr %self, align 8, !nonnull !5, !align !13, !noundef !5
  %_4 = getelementptr inbounds nuw i8, ptr %self, i64 8
  %_4.val = load i64, ptr %_4, align 8, !alias.scope !14, !noundef !5
  %0 = getelementptr inbounds nuw i8, ptr %self, i64 16
  %_4.val1 = load i64, ptr %0, align 8, !alias.scope !17, !noundef !5
  tail call void @llvm.experimental.noalias.scope.decl(metadata !20)
  tail call void @llvm.experimental.noalias.scope.decl(metadata !23)
  %1 = getelementptr inbounds nuw i8, ptr %_5, i64 16
  %_7.i = load i64, ptr %1, align 8, !alias.scope !23, !noalias !20, !noundef !5
  %_18.i = icmp sgt i64 %_7.i, -1
  tail call void @llvm.assume(i1 %_18.i)
  %_10.i.i = icmp ugt i64 %_4.val1, %_7.i
  br i1 %_10.i.i, label %bb8.i.i, label %bb10.i.i, !prof !25

bb10.i.i:                                         ; preds = %start
  %_20.i.i = icmp ugt i64 %_4.val, %_4.val1
  br i1 %_20.i.i, label %bb17.i.i, label %_RINvNtNtCsjMrxcFdYDNN_4core5slice5index5rangeINtNtNtB6_3ops5range5RangejEECs6I88mZlBn6o_5rayon.exit.i, !prof !25

bb8.i.i:                                          ; preds = %start
; call core::slice::index::slice_index_fail
  tail call void @_RNvNtNtCsjMrxcFdYDNN_4core5slice5index16slice_index_fail(i64 noundef 0, i64 noundef %_4.val1, i64 noundef range(i64 0, -9223372036854775808) %_7.i, ptr noalias noundef readonly align 8 captures(address, read_provenance) dereferenceable(24) @alloc_d941d93a01edce758f72b5279ebbffa5) #21, !noalias !26
  unreachable

bb17.i.i:                                         ; preds = %bb10.i.i
; call core::slice::index::slice_index_fail
  tail call void @_RNvNtNtCsjMrxcFdYDNN_4core5slice5index16slice_index_fail(i64 noundef %_4.val, i64 noundef %_4.val1, i64 noundef range(i64 0, -9223372036854775808) %_7.i, ptr noalias noundef readonly align 8 captures(address, read_provenance) dereferenceable(24) @alloc_d941d93a01edce758f72b5279ebbffa5) #21, !noalias !26
  unreachable

_RINvNtNtCsjMrxcFdYDNN_4core5slice5index5rangeINtNtNtB6_3ops5range5RangejEECs6I88mZlBn6o_5rayon.exit.i: ; preds = %bb10.i.i
  %2 = getelementptr inbounds nuw i8, ptr %_5, i64 8
  %_23.i = load ptr, ptr %2, align 8, !alias.scope !23, !noalias !20, !nonnull !5, !noundef !5
  %3 = icmp ne i64 %_4.val, 0
  %_24.not.i = icmp samesign ult i64 %_4.val, %_7.i
  %or.cond.i = select i1 %3, i1 %_24.not.i, i1 false
  br i1 %or.cond.i, label %bb11.i, label %bb2.i

bb2.i:                                            ; preds = %bb11.i, %_RINvNtNtCsjMrxcFdYDNN_4core5slice5index5rangeINtNtNtB6_3ops5range5RangejEECs6I88mZlBn6o_5rayon.exit.i
  %4 = icmp ne i64 %_4.val1, 0
  %_35.not.i = icmp samesign ult i64 %_4.val1, %_7.i
  %or.cond1.i = select i1 %4, i1 %_35.not.i, i1 false
  br i1 %or.cond1.i, label %bb17.i, label %_RINvMNtCsdJPVW0sQgAG_5alloc6stringNtB3_6String5drainINtNtNtCsjMrxcFdYDNN_4core3ops5range5RangejEECs6I88mZlBn6o_5rayon.exit

bb11.i:                                           ; preds = %_RINvNtNtCsjMrxcFdYDNN_4core5slice5index5rangeINtNtNtB6_3ops5range5RangejEECs6I88mZlBn6o_5rayon.exit.i
  %5 = getelementptr inbounds nuw i8, ptr %_23.i, i64 %_4.val
  %self1.i = load i8, ptr %5, align 1, !noalias !26, !noundef !5
  %6 = icmp sgt i8 %self1.i, -65
  br i1 %6, label %bb2.i, label %bb3.i, !prof !27

bb3.i:                                            ; preds = %bb11.i
; call core::panicking::panic
  tail call void @_RNvNtCsjMrxcFdYDNN_4core9panicking5panic(ptr noalias noundef nonnull readonly align 1 captures(address, read_provenance) @alloc_e544298df0c86c838747d07b29de0a9e, i64 noundef 46, ptr noalias noundef readonly align 8 captures(address, read_provenance) dereferenceable(24) @alloc_d941d93a01edce758f72b5279ebbffa5) #22, !noalias !26
  unreachable

bb17.i:                                           ; preds = %bb2.i
  %7 = getelementptr inbounds nuw i8, ptr %_23.i, i64 %_4.val1
  %self3.i = load i8, ptr %7, align 1, !noalias !26, !noundef !5
  %8 = icmp sgt i8 %self3.i, -65
  br i1 %8, label %_RINvMNtCsdJPVW0sQgAG_5alloc6stringNtB3_6String5drainINtNtNtCsjMrxcFdYDNN_4core3ops5range5RangejEECs6I88mZlBn6o_5rayon.exit, label %bb5.i, !prof !27

bb5.i:                                            ; preds = %bb17.i
; call core::panicking::panic
  tail call void @_RNvNtCsjMrxcFdYDNN_4core9panicking5panic(ptr noalias noundef nonnull readonly align 1 captures(address, read_provenance) @alloc_80d2e1bfcbf7921128061153b325c66a, i64 noundef 44, ptr noalias noundef readonly align 8 captures(address, read_provenance) dereferenceable(24) @alloc_d941d93a01edce758f72b5279ebbffa5) #22, !noalias !26
  unreachable

_RINvMNtCsdJPVW0sQgAG_5alloc6stringNtB3_6String5drainINtNtNtCsjMrxcFdYDNN_4core3ops5range5RangejEECs6I88mZlBn6o_5rayon.exit: ; preds = %bb2.i, %bb17.i
  %data.i = getelementptr inbounds nuw i8, ptr %_23.i, i64 %_4.val
  %_60.i = getelementptr inbounds nuw i8, ptr %_23.i, i64 %_4.val1
  %9 = getelementptr inbounds nuw i8, ptr %_2, i64 16
  store ptr %_5, ptr %9, align 8, !alias.scope !20, !noalias !23
  %10 = getelementptr inbounds nuw i8, ptr %_2, i64 24
  store i64 %_4.val, ptr %10, align 8, !alias.scope !20, !noalias !23
  %11 = getelementptr inbounds nuw i8, ptr %_2, i64 32
  store i64 %_4.val1, ptr %11, align 8, !alias.scope !20, !noalias !23
  store ptr %data.i, ptr %_2, align 8, !alias.scope !20, !noalias !23
  %12 = getelementptr inbounds nuw i8, ptr %_2, i64 8
  store ptr %_60.i, ptr %12, align 8, !alias.scope !20, !noalias !23
; call <alloc::string::Drain as core::ops::drop::Drop>::drop
  call void @_RNvXs18_NtCsdJPVW0sQgAG_5alloc6stringNtB6_5DrainNtNtNtCsjMrxcFdYDNN_4core3ops4drop4Drop4drop(ptr noalias noundef nonnull align 8 dereferenceable(40) %_2)
  call void @llvm.lifetime.end.p0(i64 40, ptr nonnull %_2)
  ret void
}

; <rayon::range_inclusive::Iter<char> as rayon::iter::ParallelIterator>::opt_len
; Function Attrs: mustprogress nofree norecurse nosync nounwind willreturn memory(argmem: read) uwtable
define { i64, i64 } @_RNvXs2_NtCs6I88mZlBn6o_5rayon15range_inclusiveINtB5_4ItercENtNtB7_4iter16ParallelIterator7opt_len(ptr noalias noundef readonly align 4 captures(none) dereferenceable(12) %self) unnamed_addr #5 {
start:
  %0 = load i32, ptr %self, align 4, !range !28, !alias.scope !29, !noundef !5
  %1 = getelementptr inbounds nuw i8, ptr %self, i64 4
  %2 = load i32, ptr %1, align 4, !range !28, !alias.scope !29, !noundef !5
  %_0.i.not.i.i = icmp samesign ugt i32 %0, %2
  %3 = getelementptr inbounds nuw i8, ptr %self, i64 8
  %4 = load i8, ptr %3, align 4, !range !34, !alias.scope !29
  %_3.i2.i.i = icmp ne i8 %4, 0
  %.not.i = select i1 %_0.i.not.i.i, i1 true, i1 %_3.i2.i.i
  br i1 %.not.i, label %_RNvXs3_NtCs6I88mZlBn6o_5rayon15range_inclusiveINtB5_4ItercENtNtB7_4iter23IndexedParallelIterator3len.exit, label %bb2.i

bb2.i:                                            ; preds = %start
  %5 = sub nuw nsw i32 %2, %0
  %_9.i = icmp samesign ult i32 %0, 55296
  %_10.i = icmp samesign ugt i32 %2, 57343
  %or.cond.i = and i1 %_9.i, %_10.i
  %6 = add nsw i32 %5, -2048
  %spec.select.i = select i1 %or.cond.i, i32 %6, i32 %5
  %_11.i = add nsw i32 %spec.select.i, 1
  %7 = zext i32 %_11.i to i64
  br label %_RNvXs3_NtCs6I88mZlBn6o_5rayon15range_inclusiveINtB5_4ItercENtNtB7_4iter23IndexedParallelIterator3len.exit

_RNvXs3_NtCs6I88mZlBn6o_5rayon15range_inclusiveINtB5_4ItercENtNtB7_4iter23IndexedParallelIterator3len.exit: ; preds = %start, %bb2.i
  %_0.sroa.0.0.i = phi i64 [ %7, %bb2.i ], [ 0, %start ]
  %8 = insertvalue { i64, i64 } { i64 1, i64 poison }, i64 %_0.sroa.0.0.i, 1
  ret { i64, i64 } %8
}

; <rayon::range_inclusive::Iter<char> as rayon::iter::IndexedParallelIterator>::len
; Function Attrs: mustprogress nofree norecurse nosync nounwind willreturn memory(argmem: read) uwtable
define noundef range(i64 0, 4294967296) i64 @_RNvXs3_NtCs6I88mZlBn6o_5rayon15range_inclusiveINtB5_4ItercENtNtB7_4iter23IndexedParallelIterator3len(ptr noalias noundef readonly align 4 captures(none) dereferenceable(12) %self) unnamed_addr #5 {
start:
  %0 = load i32, ptr %self, align 4, !range !28, !alias.scope !35, !noundef !5
  %1 = getelementptr inbounds nuw i8, ptr %self, i64 4
  %2 = load i32, ptr %1, align 4, !range !28, !alias.scope !35, !noundef !5
  %_0.i.not.i = icmp samesign ugt i32 %0, %2
  %3 = getelementptr inbounds nuw i8, ptr %self, i64 8
  %4 = load i8, ptr %3, align 4, !range !34, !alias.scope !35
  %_3.i2.i = icmp ne i8 %4, 0
  %.not = select i1 %_0.i.not.i, i1 true, i1 %_3.i2.i
  br i1 %.not, label %bb7, label %bb2

bb2:                                              ; preds = %start
  %5 = sub nuw nsw i32 %2, %0
  %_9 = icmp samesign ult i32 %0, 55296
  %_10 = icmp samesign ugt i32 %2, 57343
  %or.cond = and i1 %_9, %_10
  %6 = add nsw i32 %5, -2048
  %spec.select = select i1 %or.cond, i32 %6, i32 %5
  %_11 = add nsw i32 %spec.select, 1
  %7 = zext i32 %_11 to i64
  br label %bb7

bb7:                                              ; preds = %start, %bb2
  %_0.sroa.0.0 = phi i64 [ %7, %bb2 ], [ 0, %start ]
  ret i64 %_0.sroa.0.0
}

; <rayon::str::CharsProducer as rayon::iter::plumbing::UnindexedProducer>::split
; Function Attrs: uwtable
define void @_RNvXs5_NtCs6I88mZlBn6o_5rayon3strNtB5_13CharsProducerNtNtNtB7_4iter8plumbing17UnindexedProducer5split(ptr dead_on_unwind noalias noundef writable writeonly sret([32 x i8]) align 8 captures(none) dereferenceable(32) %_0, ptr noalias noundef nonnull readonly align 1 captures(address, read_provenance) %self.0, i64 noundef %self.1) unnamed_addr #4 personality ptr @rust_eh_personality {
start:
  %mid3.i = lshr i64 %self.1, 1
  %data.i.i.i = getelementptr inbounds nuw i8, ptr %self.0, i64 %mid3.i
  %_19.i = getelementptr inbounds nuw i8, ptr %self.0, i64 %self.1
  %_6.i7.i.i = icmp eq i64 %self.1, 0
  br i1 %_6.i7.i.i, label %bb1.i.i.i.i.preheader, label %bb3.i.i

bb1.i.i.i.i.preheader:                            ; preds = %_RNCINvNtNtNtCsjMrxcFdYDNN_4core4iter8adapters6copied13copy_try_foldhuINtNtNtBa_3ops12control_flow11ControlFlowjENCINvNvNtNtNtB8_6traits8iterator8Iterator8position5checkhNvNtCs6I88mZlBn6o_5rayon3str16is_char_boundaryE0E0B2L_.exit.i.i, %start
  br label %bb1.i.i.i.i

bb3.i.i:                                          ; preds = %start, %_RNCINvNtNtNtCsjMrxcFdYDNN_4core4iter8adapters6copied13copy_try_foldhuINtNtNtBa_3ops12control_flow11ControlFlowjENCINvNvNtNtNtB8_6traits8iterator8Iterator8position5checkhNvNtCs6I88mZlBn6o_5rayon3str16is_char_boundaryE0E0B2L_.exit.i.i
  %_16.i59.i.i = phi ptr [ %_16.i.i.i, %_RNCINvNtNtNtCsjMrxcFdYDNN_4core4iter8adapters6copied13copy_try_foldhuINtNtNtBa_3ops12control_flow11ControlFlowjENCINvNvNtNtNtB8_6traits8iterator8Iterator8position5checkhNvNtCs6I88mZlBn6o_5rayon3str16is_char_boundaryE0E0B2L_.exit.i.i ], [ %data.i.i.i, %start ]
  %_8.0.i.i68.i.i = phi i64 [ %_8.0.i.i.i.i, %_RNCINvNtNtNtCsjMrxcFdYDNN_4core4iter8adapters6copied13copy_try_foldhuINtNtNtBa_3ops12control_flow11ControlFlowjENCINvNvNtNtNtB8_6traits8iterator8Iterator8position5checkhNvNtCs6I88mZlBn6o_5rayon3str16is_char_boundaryE0E0B2L_.exit.i.i ], [ 0, %start ]
  %.val.i.i = load i8, ptr %_16.i59.i.i, align 1, !alias.scope !38, !noalias !41, !noundef !5
  %_0.i.i.i.i.i.i = icmp sgt i8 %.val.i.i, -65
  br i1 %_0.i.i.i.i.i.i, label %bb5.i, label %_RNCINvNtNtNtCsjMrxcFdYDNN_4core4iter8adapters6copied13copy_try_foldhuINtNtNtBa_3ops12control_flow11ControlFlowjENCINvNvNtNtNtB8_6traits8iterator8Iterator8position5checkhNvNtCs6I88mZlBn6o_5rayon3str16is_char_boundaryE0E0B2L_.exit.i.i

_RNCINvNtNtNtCsjMrxcFdYDNN_4core4iter8adapters6copied13copy_try_foldhuINtNtNtBa_3ops12control_flow11ControlFlowjENCINvNvNtNtNtB8_6traits8iterator8Iterator8position5checkhNvNtCs6I88mZlBn6o_5rayon3str16is_char_boundaryE0E0B2L_.exit.i.i: ; preds = %bb3.i.i
  %_16.i.i.i = getelementptr inbounds nuw i8, ptr %_16.i59.i.i, i64 1
  %_8.0.i.i.i.i = add i64 %_8.0.i.i68.i.i, 1
  %_6.i.i.i = icmp eq ptr %_16.i.i.i, %_19.i
  br i1 %_6.i.i.i, label %bb1.i.i.i.i.preheader, label %bb3.i.i

bb5.i:                                            ; preds = %bb3.i.i
  %0 = add i64 %_8.0.i.i68.i.i, %mid3.i
  br label %_RNvNtCs6I88mZlBn6o_5rayon3str18find_char_midpoint.exit

bb1.i.i.i.i:                                      ; preds = %bb1.i.i.i.i.preheader, %bb3.i.i.i.i
  %_23.i7.i.i.i.i = phi ptr [ %_23.i.i.i.i.i, %bb3.i.i.i.i ], [ %data.i.i.i, %bb1.i.i.i.i.preheader ]
  %accum.sroa.0.0.i.i.i.i = phi i64 [ %i1.i.i.i.i.i.i, %bb3.i.i.i.i ], [ %mid3.i, %bb1.i.i.i.i.preheader ]
  %.not.not.not.not.i.not.i = icmp eq ptr %self.0, %_23.i7.i.i.i.i
  br i1 %.not.not.not.not.i.not.i, label %bb2, label %bb3.i.i.i.i

bb3.i.i.i.i:                                      ; preds = %bb1.i.i.i.i
  %_23.i.i.i.i.i = getelementptr inbounds i8, ptr %_23.i7.i.i.i.i, i64 -1
  %.val.i.i.i.i = load i8, ptr %_23.i.i.i.i.i, align 1, !alias.scope !38, !noalias !45, !noundef !5
  %_0.i.i.i.i.i.i.i.i = icmp sgt i8 %.val.i.i.i.i, -65
  %i1.i.i.i.i.i.i = add nsw i64 %accum.sroa.0.0.i.i.i.i, -1
  br i1 %_0.i.i.i.i.i.i.i.i, label %_RNvNtCs6I88mZlBn6o_5rayon3str18find_char_midpoint.exit, label %bb1.i.i.i.i

_RNvNtCs6I88mZlBn6o_5rayon3str18find_char_midpoint.exit: ; preds = %bb3.i.i.i.i, %bb5.i
  %_0.sroa.0.1.i = phi i64 [ %0, %bb5.i ], [ %i1.i.i.i.i.i.i, %bb3.i.i.i.i ]
  %_11.not = icmp eq i64 %_0.sroa.0.1.i, 0
  br i1 %_11.not, label %bb2, label %bb6

bb6:                                              ; preds = %_RNvNtCs6I88mZlBn6o_5rayon3str18find_char_midpoint.exit
  %_5.not.i = icmp ult i64 %_0.sroa.0.1.i, %self.1
  br i1 %_5.not.i, label %bb10.i, label %bb7.i

bb7.i:                                            ; preds = %bb6
  %1 = icmp eq i64 %_0.sroa.0.1.i, %self.1
  br i1 %1, label %bb3, label %bb10

bb10.i:                                           ; preds = %bb6
  %2 = getelementptr inbounds nuw i8, ptr %self.0, i64 %_0.sroa.0.1.i
  %self.i = load i8, ptr %2, align 1, !alias.scope !52, !noalias !55, !noundef !5
  %3 = icmp sgt i8 %self.i, -65
  br i1 %3, label %bb3, label %bb10

bb2:                                              ; preds = %bb1.i.i.i.i, %_RNvNtCs6I88mZlBn6o_5rayon3str18find_char_midpoint.exit
  store ptr %self.0, ptr %_0, align 8
  %4 = getelementptr inbounds nuw i8, ptr %_0, i64 8
  store i64 %self.1, ptr %4, align 8
  %5 = getelementptr inbounds nuw i8, ptr %_0, i64 16
  store ptr null, ptr %5, align 8
  br label %bb4

bb10:                                             ; preds = %bb10.i, %bb7.i
; call core::str::slice_error_fail
  tail call void @_RNvNtCsjMrxcFdYDNN_4core3str16slice_error_fail(ptr noalias noundef nonnull readonly align 1 captures(address, read_provenance) %self.0, i64 noundef %self.1, i64 noundef 0, i64 noundef %_0.sroa.0.1.i, ptr noalias noundef readonly align 8 captures(address, read_provenance) dereferenceable(24) @alloc_83f0bf4aa39c10b3c834df276da2b22b) #22
  unreachable

bb3:                                              ; preds = %bb10.i, %bb7.i
  %data.i.i = getelementptr inbounds nuw i8, ptr %self.0, i64 %_0.sroa.0.1.i
  %len.i.i = sub i64 %self.1, %_0.sroa.0.1.i
  store ptr %self.0, ptr %_0, align 8
  %6 = getelementptr inbounds nuw i8, ptr %_0, i64 8
  store i64 %_0.sroa.0.1.i, ptr %6, align 8
  %7 = getelementptr inbounds nuw i8, ptr %_0, i64 16
  store ptr %data.i.i, ptr %7, align 8
  %8 = getelementptr inbounds nuw i8, ptr %_0, i64 24
  store i64 %len.i.i, ptr %8, align 8
  br label %bb4

bb4:                                              ; preds = %bb3, %bb2
  ret void
}

; <u8 as rayon::range_inclusive::private::IndexedRangeInteger>::len
; Function Attrs: mustprogress nofree norecurse nosync nounwind willreturn memory(argmem: read, inaccessiblemem: readwrite) uwtable
define noundef range(i64 0, 257) i64 @_RNvXs6_NtCs6I88mZlBn6o_5rayon15range_inclusivehNtNtB5_7private19IndexedRangeInteger3len(ptr noalias noundef readonly align 1 captures(none) dereferenceable(3) %iter) unnamed_addr #6 {
start:
  %0 = load i8, ptr %iter, align 1, !range !34, !alias.scope !57, !noalias !60, !noundef !5
  %_10.i = trunc nuw i8 %0 to i1
  br i1 %_10.i, label %bb2, label %bb6.i

bb6.i:                                            ; preds = %start
  %_12.i = getelementptr inbounds nuw i8, ptr %iter, i64 1
  %_13.i = getelementptr inbounds nuw i8, ptr %iter, i64 2
  tail call void @llvm.experimental.noalias.scope.decl(metadata !62)
  tail call void @llvm.experimental.noalias.scope.decl(metadata !65)
  %_3.i.i = load i8, ptr %_12.i, align 1, !alias.scope !67, !noalias !68, !noundef !5
  %_4.i.i = load i8, ptr %_13.i, align 1, !alias.scope !69, !noalias !70, !noundef !5
  %_0.i.not.i = icmp ugt i8 %_3.i.i, %_4.i.i
  br i1 %_0.i.not.i, label %bb2, label %bb9.i

bb9.i:                                            ; preds = %bb6.i
  %_7.i.i = sub nuw i8 %_4.i.i, %_3.i.i
  %steps.i.i = zext i8 %_7.i.i to i64
  %1 = add nuw nsw i64 %steps.i.i, 1
  br label %bb2

bb2:                                              ; preds = %bb9.i, %bb6.i, %start
  %.sink7.i = phi i64 [ %1, %bb9.i ], [ 0, %start ], [ 0, %bb6.i ]
  ret i64 %.sink7.i
}

; <u8 as rayon::range::private::RangeInteger>::opt_len
; Function Attrs: mustprogress nofree norecurse nosync nounwind willreturn memory(argmem: read) uwtable
define { i64, i64 } @_RNvXs6_NtCs6I88mZlBn6o_5rayon5rangehNtNtB5_7private12RangeInteger7opt_len(ptr noalias noundef readonly align 1 captures(none) dereferenceable(2) %iter) unnamed_addr #5 {
start:
  %_10 = load i8, ptr %iter, align 1, !noundef !5
  %0 = getelementptr inbounds nuw i8, ptr %iter, i64 1
  %_11 = load i8, ptr %0, align 1, !noundef !5
  %narrow = tail call i8 @llvm.usub.sat.i8(i8 %_11, i8 %_10)
  %_13.sroa.0.0 = zext i8 %narrow to i64
  %1 = insertvalue { i64, i64 } { i64 1, i64 poison }, i64 %_13.sroa.0.0, 1
  ret { i64, i64 } %1
}

; <u8 as rayon::range_inclusive::private::RangeInteger>::opt_len
; Function Attrs: mustprogress nofree norecurse nosync nounwind willreturn memory(argmem: read) uwtable
define { i64, i64 } @_RNvXs7_NtCs6I88mZlBn6o_5rayon15range_inclusivehNtNtB5_7private12RangeInteger7opt_len(ptr noalias noundef readonly align 1 captures(none) dereferenceable(3) %iter) unnamed_addr #5 personality ptr @rust_eh_personality {
start:
  %0 = getelementptr inbounds nuw i8, ptr %iter, i64 1
  %1 = load i8, ptr %0, align 1, !alias.scope !71, !noundef !5
  %2 = getelementptr inbounds nuw i8, ptr %iter, i64 2
  %3 = load i8, ptr %2, align 1, !alias.scope !71, !noundef !5
  %_0.i.not.i = icmp ugt i8 %1, %3
  %4 = load i8, ptr %iter, align 1, !range !34, !alias.scope !71
  %5 = trunc nuw i8 %4 to i1
  %.not = select i1 %_0.i.not.i, i1 true, i1 %5
  br i1 %.not, label %bb7, label %bb2

bb2:                                              ; preds = %start
  %_17.1 = icmp eq i8 %3, -1
  br i1 %_17.1, label %bb8, label %bb10, !prof !25

bb10:                                             ; preds = %bb2
  %_17.0 = add nuw i8 %3, 1
  %narrow.i = tail call i8 @llvm.usub.sat.i8(i8 %_17.0, i8 %1)
  %_13.sroa.0.0.i = zext i8 %narrow.i to i64
  br label %bb7

bb8:                                              ; preds = %bb2
  %narrow.i.i.i9 = xor i8 %1, -1
  %_13.sroa.0.0.i.i.i = zext i8 %narrow.i.i.i9 to i64
  %_15.0.i = add nuw nsw i64 %_13.sroa.0.0.i.i.i, 1
  br label %bb7

bb7:                                              ; preds = %bb10, %bb8, %start
  %_0.sroa.4.1 = phi i64 [ 0, %start ], [ %_15.0.i, %bb8 ], [ %_13.sroa.0.0.i, %bb10 ]
  %6 = insertvalue { i64, i64 } { i64 1, i64 poison }, i64 %_0.sroa.4.1, 1
  ret { i64, i64 } %6
}

; <rayon::str::CharIndicesProducer as rayon::iter::plumbing::UnindexedProducer>::split
; Function Attrs: uwtable
define void @_RNvXs7_NtCs6I88mZlBn6o_5rayon3strNtB5_19CharIndicesProducerNtNtNtB7_4iter8plumbing17UnindexedProducer5split(ptr dead_on_unwind noalias noundef writable writeonly sret([48 x i8]) align 8 captures(none) dereferenceable(48) %_0, ptr dead_on_return noalias noundef readonly align 8 captures(none) dereferenceable(24) %self) unnamed_addr #4 personality ptr @rust_eh_personality {
start:
  %_13.0 = load ptr, ptr %self, align 8, !nonnull !5, !align !74, !noundef !5
  %0 = getelementptr inbounds nuw i8, ptr %self, i64 8
  %_13.1 = load i64, ptr %0, align 8, !noundef !5
  %mid3.i = lshr i64 %_13.1, 1
  %data.i.i.i = getelementptr inbounds nuw i8, ptr %_13.0, i64 %mid3.i
  %_19.i = getelementptr inbounds nuw i8, ptr %_13.0, i64 %_13.1
  %_6.i7.i.i = icmp eq i64 %_13.1, 0
  br i1 %_6.i7.i.i, label %bb1.i.i.i.i.preheader, label %bb3.i.i

bb1.i.i.i.i.preheader:                            ; preds = %_RNCINvNtNtNtCsjMrxcFdYDNN_4core4iter8adapters6copied13copy_try_foldhuINtNtNtBa_3ops12control_flow11ControlFlowjENCINvNvNtNtNtB8_6traits8iterator8Iterator8position5checkhNvNtCs6I88mZlBn6o_5rayon3str16is_char_boundaryE0E0B2L_.exit.i.i, %start
  br label %bb1.i.i.i.i

bb3.i.i:                                          ; preds = %start, %_RNCINvNtNtNtCsjMrxcFdYDNN_4core4iter8adapters6copied13copy_try_foldhuINtNtNtBa_3ops12control_flow11ControlFlowjENCINvNvNtNtNtB8_6traits8iterator8Iterator8position5checkhNvNtCs6I88mZlBn6o_5rayon3str16is_char_boundaryE0E0B2L_.exit.i.i
  %_16.i59.i.i = phi ptr [ %_16.i.i.i, %_RNCINvNtNtNtCsjMrxcFdYDNN_4core4iter8adapters6copied13copy_try_foldhuINtNtNtBa_3ops12control_flow11ControlFlowjENCINvNvNtNtNtB8_6traits8iterator8Iterator8position5checkhNvNtCs6I88mZlBn6o_5rayon3str16is_char_boundaryE0E0B2L_.exit.i.i ], [ %data.i.i.i, %start ]
  %_8.0.i.i68.i.i = phi i64 [ %_8.0.i.i.i.i, %_RNCINvNtNtNtCsjMrxcFdYDNN_4core4iter8adapters6copied13copy_try_foldhuINtNtNtBa_3ops12control_flow11ControlFlowjENCINvNvNtNtNtB8_6traits8iterator8Iterator8position5checkhNvNtCs6I88mZlBn6o_5rayon3str16is_char_boundaryE0E0B2L_.exit.i.i ], [ 0, %start ]
  %.val.i.i = load i8, ptr %_16.i59.i.i, align 1, !alias.scope !75, !noalias !78, !noundef !5
  %_0.i.i.i.i.i.i = icmp sgt i8 %.val.i.i, -65
  br i1 %_0.i.i.i.i.i.i, label %bb5.i, label %_RNCINvNtNtNtCsjMrxcFdYDNN_4core4iter8adapters6copied13copy_try_foldhuINtNtNtBa_3ops12control_flow11ControlFlowjENCINvNvNtNtNtB8_6traits8iterator8Iterator8position5checkhNvNtCs6I88mZlBn6o_5rayon3str16is_char_boundaryE0E0B2L_.exit.i.i

_RNCINvNtNtNtCsjMrxcFdYDNN_4core4iter8adapters6copied13copy_try_foldhuINtNtNtBa_3ops12control_flow11ControlFlowjENCINvNvNtNtNtB8_6traits8iterator8Iterator8position5checkhNvNtCs6I88mZlBn6o_5rayon3str16is_char_boundaryE0E0B2L_.exit.i.i: ; preds = %bb3.i.i
  %_16.i.i.i = getelementptr inbounds nuw i8, ptr %_16.i59.i.i, i64 1
  %_8.0.i.i.i.i = add i64 %_8.0.i.i68.i.i, 1
  %_6.i.i.i = icmp eq ptr %_16.i.i.i, %_19.i
  br i1 %_6.i.i.i, label %bb1.i.i.i.i.preheader, label %bb3.i.i

bb5.i:                                            ; preds = %bb3.i.i
  %1 = add i64 %_8.0.i.i68.i.i, %mid3.i
  br label %_RNvNtCs6I88mZlBn6o_5rayon3str18find_char_midpoint.exit

bb1.i.i.i.i:                                      ; preds = %bb1.i.i.i.i.preheader, %bb3.i.i.i.i
  %_23.i7.i.i.i.i = phi ptr [ %_23.i.i.i.i.i, %bb3.i.i.i.i ], [ %data.i.i.i, %bb1.i.i.i.i.preheader ]
  %accum.sroa.0.0.i.i.i.i = phi i64 [ %i1.i.i.i.i.i.i, %bb3.i.i.i.i ], [ %mid3.i, %bb1.i.i.i.i.preheader ]
  %.not.not.not.not.i.not.i = icmp eq ptr %_13.0, %_23.i7.i.i.i.i
  br i1 %.not.not.not.not.i.not.i, label %bb2, label %bb3.i.i.i.i

bb3.i.i.i.i:                                      ; preds = %bb1.i.i.i.i
  %_23.i.i.i.i.i = getelementptr inbounds i8, ptr %_23.i7.i.i.i.i, i64 -1
  %.val.i.i.i.i = load i8, ptr %_23.i.i.i.i.i, align 1, !alias.scope !75, !noalias !82, !noundef !5
  %_0.i.i.i.i.i.i.i.i = icmp sgt i8 %.val.i.i.i.i, -65
  %i1.i.i.i.i.i.i = add nsw i64 %accum.sroa.0.0.i.i.i.i, -1
  br i1 %_0.i.i.i.i.i.i.i.i, label %_RNvNtCs6I88mZlBn6o_5rayon3str18find_char_midpoint.exit, label %bb1.i.i.i.i

_RNvNtCs6I88mZlBn6o_5rayon3str18find_char_midpoint.exit: ; preds = %bb3.i.i.i.i, %bb5.i
  %_0.sroa.0.1.i = phi i64 [ %1, %bb5.i ], [ %i1.i.i.i.i.i.i, %bb3.i.i.i.i ]
  %_15.not = icmp eq i64 %_0.sroa.0.1.i, 0
  br i1 %_15.not, label %bb2, label %bb6

bb6:                                              ; preds = %_RNvNtCs6I88mZlBn6o_5rayon3str18find_char_midpoint.exit
  %_5.not.i = icmp ult i64 %_0.sroa.0.1.i, %_13.1
  br i1 %_5.not.i, label %bb10.i, label %bb7.i

bb7.i:                                            ; preds = %bb6
  %2 = icmp eq i64 %_0.sroa.0.1.i, %_13.1
  br i1 %2, label %bb3, label %bb10

bb10.i:                                           ; preds = %bb6
  %3 = getelementptr inbounds nuw i8, ptr %_13.0, i64 %_0.sroa.0.1.i
  %self.i = load i8, ptr %3, align 1, !alias.scope !89, !noalias !92, !noundef !5
  %4 = icmp sgt i8 %self.i, -65
  br i1 %4, label %bb3, label %bb10

bb2:                                              ; preds = %bb1.i.i.i.i, %_RNvNtCs6I88mZlBn6o_5rayon3str18find_char_midpoint.exit
  tail call void @llvm.memcpy.p0.p0.i64(ptr noundef nonnull align 8 dereferenceable(24) %_0, ptr noundef nonnull align 8 dereferenceable(24) %self, i64 24, i1 false)
  %5 = getelementptr inbounds nuw i8, ptr %_0, i64 24
  store ptr null, ptr %5, align 8
  br label %bb4

bb10:                                             ; preds = %bb10.i, %bb7.i
; call core::str::slice_error_fail
  tail call void @_RNvNtCsjMrxcFdYDNN_4core3str16slice_error_fail(ptr noalias noundef nonnull readonly align 1 captures(address, read_provenance) %_13.0, i64 noundef %_13.1, i64 noundef 0, i64 noundef %_0.sroa.0.1.i, ptr noalias noundef readonly align 8 captures(address, read_provenance) dereferenceable(24) @alloc_83f0bf4aa39c10b3c834df276da2b22b) #22
  unreachable

bb3:                                              ; preds = %bb10.i, %bb7.i
  %data.i.i = getelementptr inbounds nuw i8, ptr %_13.0, i64 %_0.sroa.0.1.i
  %len.i.i = sub i64 %_13.1, %_0.sroa.0.1.i
  %6 = getelementptr inbounds nuw i8, ptr %self, i64 16
  %7 = load i64, ptr %6, align 8, !noundef !5
  %_9 = add i64 %7, %_0.sroa.0.1.i
  store ptr %_13.0, ptr %_0, align 8
  %_6.sroa.4.0._0.sroa_idx = getelementptr inbounds nuw i8, ptr %_0, i64 8
  store i64 %_0.sroa.0.1.i, ptr %_6.sroa.4.0._0.sroa_idx, align 8
  %_6.sroa.5.0._0.sroa_idx = getelementptr inbounds nuw i8, ptr %_0, i64 16
  store i64 %7, ptr %_6.sroa.5.0._0.sroa_idx, align 8
  %8 = getelementptr inbounds nuw i8, ptr %_0, i64 24
  store ptr %data.i.i, ptr %8, align 8
  %_7.sroa.4.0..sroa_idx = getelementptr inbounds nuw i8, ptr %_0, i64 32
  store i64 %len.i.i, ptr %_7.sroa.4.0..sroa_idx, align 8
  %_7.sroa.5.0..sroa_idx = getelementptr inbounds nuw i8, ptr %_0, i64 40
  store i64 %_9, ptr %_7.sroa.5.0..sroa_idx, align 8
  br label %bb4

bb4:                                              ; preds = %bb3, %bb2
  ret void
}

; <u8 as rayon::range::private::IndexedRangeInteger>::len
; Function Attrs: mustprogress nofree norecurse nosync nounwind willreturn memory(argmem: read) uwtable
define noundef range(i64 0, 256) i64 @_RNvXs7_NtCs6I88mZlBn6o_5rayon5rangehNtNtB5_7private19IndexedRangeInteger3len(ptr noalias noundef readonly align 1 captures(none) dereferenceable(2) %iter) unnamed_addr #5 {
start:
  %_11 = load i8, ptr %iter, align 1, !noundef !5
  %0 = getelementptr inbounds nuw i8, ptr %iter, i64 1
  %_12 = load i8, ptr %0, align 1, !noundef !5
  %narrow = tail call i8 @llvm.usub.sat.i8(i8 %_12, i8 %_11)
  %_0.sroa.0.0 = zext i8 %narrow to i64
  ret i64 %_0.sroa.0.0
}

; <u16 as rayon::range_inclusive::private::IndexedRangeInteger>::len
; Function Attrs: mustprogress nofree norecurse nosync nounwind willreturn memory(argmem: read, inaccessiblemem: readwrite) uwtable
define noundef range(i64 0, 65537) i64 @_RNvXs8_NtCs6I88mZlBn6o_5rayon15range_inclusivetNtNtB5_7private19IndexedRangeInteger3len(ptr noalias noundef readonly align 2 captures(none) dereferenceable(6) %iter) unnamed_addr #6 {
start:
  %0 = getelementptr inbounds nuw i8, ptr %iter, i64 4
  %1 = load i8, ptr %0, align 2, !range !34, !alias.scope !94, !noalias !97, !noundef !5
  %_10.i = trunc nuw i8 %1 to i1
  br i1 %_10.i, label %bb2, label %bb6.i

bb6.i:                                            ; preds = %start
  %_13.i = getelementptr inbounds nuw i8, ptr %iter, i64 2
  tail call void @llvm.experimental.noalias.scope.decl(metadata !99)
  tail call void @llvm.experimental.noalias.scope.decl(metadata !102)
  %_3.i.i = load i16, ptr %iter, align 2, !alias.scope !104, !noalias !105, !noundef !5
  %_4.i.i = load i16, ptr %_13.i, align 2, !alias.scope !106, !noalias !107, !noundef !5
  %_0.i.not.i = icmp ugt i16 %_3.i.i, %_4.i.i
  br i1 %_0.i.not.i, label %bb2, label %bb9.i

bb9.i:                                            ; preds = %bb6.i
  %_7.i.i = sub nuw i16 %_4.i.i, %_3.i.i
  %steps.i.i = zext i16 %_7.i.i to i64
  %2 = add nuw nsw i64 %steps.i.i, 1
  br label %bb2

bb2:                                              ; preds = %bb9.i, %bb6.i, %start
  %.sink7.i = phi i64 [ %2, %bb9.i ], [ 0, %start ], [ 0, %bb6.i ]
  ret i64 %.sink7.i
}

; <rayon::range::IterProducer<u8> as rayon::iter::plumbing::Producer>::split_at
; Function Attrs: uwtable
define i32 @_RNvXs8_NtCs6I88mZlBn6o_5rayon5rangeINtB5_12IterProducerhENtNtNtB7_4iter8plumbing8Producer8split_at(i8 noundef %self.0, i8 noundef %self.1, i64 noundef %index) unnamed_addr #4 {
start:
  %narrow = tail call i8 @llvm.usub.sat.i8(i8 %self.1, i8 %self.0)
  %_25.sroa.3.0 = zext i8 %narrow to i64
  %_3.not = icmp ugt i64 %index, %_25.sroa.3.0
  br i1 %_3.not, label %bb2, label %bb1, !prof !25

bb2:                                              ; preds = %start
; call core::panicking::panic
  tail call void @_RNvNtCsjMrxcFdYDNN_4core9panicking5panic(ptr noalias noundef nonnull readonly align 1 captures(address, read_provenance) @alloc_c9080844985d858ed80bda494d71ce81, i64 noundef 43, ptr noalias noundef readonly align 8 captures(address, read_provenance) dereferenceable(24) @alloc_e2d230c97924292fd4549f8cff63212b) #22
  unreachable

bb1:                                              ; preds = %start
  %_6 = trunc nuw i64 %index to i8
  %mid = add i8 %self.0, %_6
  %_0.sroa.4.0.insert.ext = zext i8 %self.1 to i32
  %_0.sroa.4.0.insert.shift = shl nuw i32 %_0.sroa.4.0.insert.ext, 24
  %_0.sroa.3.0.insert.ext = zext i8 %mid to i32
  %_0.sroa.3.0.insert.shift = shl nuw nsw i32 %_0.sroa.3.0.insert.ext, 16
  %_0.sroa.3.0.insert.insert = or disjoint i32 %_0.sroa.3.0.insert.shift, %_0.sroa.4.0.insert.shift
  %_0.sroa.2.0.insert.shift = shl nuw nsw i32 %_0.sroa.3.0.insert.ext, 8
  %_0.sroa.2.0.insert.insert = or disjoint i32 %_0.sroa.3.0.insert.insert, %_0.sroa.2.0.insert.shift
  %_0.sroa.0.0.insert.ext = zext i8 %self.0 to i32
  %_0.sroa.0.0.insert.insert = or disjoint i32 %_0.sroa.2.0.insert.insert, %_0.sroa.0.0.insert.ext
  ret i32 %_0.sroa.0.0.insert.insert
}

; <u16 as rayon::range_inclusive::private::RangeInteger>::opt_len
; Function Attrs: mustprogress nofree norecurse nosync nounwind willreturn memory(argmem: read) uwtable
define { i64, i64 } @_RNvXs9_NtCs6I88mZlBn6o_5rayon15range_inclusivetNtNtB5_7private12RangeInteger7opt_len(ptr noalias noundef readonly align 2 captures(none) dereferenceable(6) %iter) unnamed_addr #5 personality ptr @rust_eh_personality {
start:
  %0 = load i16, ptr %iter, align 2, !alias.scope !108, !noundef !5
  %1 = getelementptr inbounds nuw i8, ptr %iter, i64 2
  %2 = load i16, ptr %1, align 2, !alias.scope !108, !noundef !5
  %_0.i.not.i = icmp ugt i16 %0, %2
  %3 = getelementptr inbounds nuw i8, ptr %iter, i64 4
  %4 = load i8, ptr %3, align 2, !range !34, !alias.scope !108
  %5 = trunc nuw i8 %4 to i1
  %.not = select i1 %_0.i.not.i, i1 true, i1 %5
  br i1 %.not, label %bb7, label %bb2

bb2:                                              ; preds = %start
  %_17.1 = icmp eq i16 %2, -1
  br i1 %_17.1, label %bb8, label %bb10, !prof !25

bb10:                                             ; preds = %bb2
  %_17.0 = add nuw i16 %2, 1
  %narrow.i = tail call i16 @llvm.usub.sat.i16(i16 %_17.0, i16 %0)
  %_13.sroa.0.0.i = zext i16 %narrow.i to i64
  br label %bb7

bb8:                                              ; preds = %bb2
  %narrow.i.i.i9 = xor i16 %0, -1
  %_13.sroa.0.0.i.i.i = zext i16 %narrow.i.i.i9 to i64
  %_15.0.i = add nuw nsw i64 %_13.sroa.0.0.i.i.i, 1
  br label %bb7

bb7:                                              ; preds = %bb10, %bb8, %start
  %_0.sroa.4.1 = phi i64 [ 0, %start ], [ %_15.0.i, %bb8 ], [ %_13.sroa.0.0.i, %bb10 ]
  %6 = insertvalue { i64, i64 } { i64 1, i64 poison }, i64 %_0.sroa.4.1, 1
  ret { i64, i64 } %6
}

; <u16 as rayon::range::private::RangeInteger>::opt_len
; Function Attrs: mustprogress nofree norecurse nosync nounwind willreturn memory(argmem: read) uwtable
define { i64, i64 } @_RNvXs9_NtCs6I88mZlBn6o_5rayon5rangetNtNtB5_7private12RangeInteger7opt_len(ptr noalias noundef readonly align 2 captures(none) dereferenceable(4) %iter) unnamed_addr #5 {
start:
  %_10 = load i16, ptr %iter, align 2, !noundef !5
  %0 = getelementptr inbounds nuw i8, ptr %iter, i64 2
  %_11 = load i16, ptr %0, align 2, !noundef !5
  %narrow = tail call i16 @llvm.usub.sat.i16(i16 %_11, i16 %_10)
  %_13.sroa.0.0 = zext i16 %narrow to i64
  %1 = insertvalue { i64, i64 } { i64 1, i64 poison }, i64 %_13.sroa.0.0, 1
  ret { i64, i64 } %1
}

; <i8 as rayon::range_inclusive::private::IndexedRangeInteger>::len
; Function Attrs: uwtable
define noundef range(i64 -254, 257) i64 @_RNvXsa_NtCs6I88mZlBn6o_5rayon15range_inclusiveaNtNtB5_7private19IndexedRangeInteger3len(ptr noalias noundef readonly align 1 captures(none) dereferenceable(3) %iter) unnamed_addr #4 {
start:
  %_7 = alloca [16 x i8], align 8
  %_3 = alloca [16 x i8], align 8
  call void @llvm.lifetime.start.p0(i64 16, ptr nonnull %_3)
  call void @llvm.lifetime.start.p0(i64 16, ptr nonnull %_7)
  %0 = load i8, ptr %iter, align 1, !range !34, !alias.scope !111, !noalias !114, !noundef !5
  %_10.i = trunc nuw i8 %0 to i1
  br i1 %_10.i, label %_RNvXsd_NtNtCsjMrxcFdYDNN_4core4iter5rangeINtNtNtB9_3ops5range14RangeInclusiveaENtNtNtB7_6traits8iterator8Iterator9size_hintCs6I88mZlBn6o_5rayon.exit, label %bb6.i

bb6.i:                                            ; preds = %start
  %_12.i = getelementptr inbounds nuw i8, ptr %iter, i64 1
  %_13.i = getelementptr inbounds nuw i8, ptr %iter, i64 2
  tail call void @llvm.experimental.noalias.scope.decl(metadata !116)
  tail call void @llvm.experimental.noalias.scope.decl(metadata !119)
  %_3.i.i = load i8, ptr %_12.i, align 1, !alias.scope !121, !noalias !122, !noundef !5
  %_4.i.i = load i8, ptr %_13.i, align 1, !alias.scope !123, !noalias !124, !noundef !5
  %_0.i.not.i = icmp sgt i8 %_3.i.i, %_4.i.i
  br i1 %_0.i.not.i, label %_RNvXsd_NtNtCsjMrxcFdYDNN_4core4iter5rangeINtNtNtB9_3ops5range14RangeInclusiveaENtNtNtB7_6traits8iterator8Iterator9size_hintCs6I88mZlBn6o_5rayon.exit, label %bb9.i

bb9.i:                                            ; preds = %bb6.i
  %self.i.i = sext i8 %_4.i.i to i64
  %rhs.i.i = sext i8 %_3.i.i to i64
  %_7.i.i = sub nsw i64 %self.i.i, %rhs.i.i
  %1 = tail call i64 @llvm.uadd.sat.i64(i64 %_7.i.i, i64 1)
  %_17.1.i = icmp ne i64 %_7.i.i, -1
  %_17.0.i = add nsw i64 %_7.i.i, 1
  %spec.select4.i = zext i1 %_17.1.i to i64
  br label %_RNvXsd_NtNtCsjMrxcFdYDNN_4core4iter5rangeINtNtNtB9_3ops5range14RangeInclusiveaENtNtNtB7_6traits8iterator8Iterator9size_hintCs6I88mZlBn6o_5rayon.exit

_RNvXsd_NtNtCsjMrxcFdYDNN_4core4iter5rangeINtNtNtB9_3ops5range14RangeInclusiveaENtNtNtB7_6traits8iterator8Iterator9size_hintCs6I88mZlBn6o_5rayon.exit: ; preds = %start, %bb6.i, %bb9.i
  %.sink8.i = phi i64 [ %1, %bb9.i ], [ 0, %start ], [ 0, %bb6.i ]
  %.sink6.i = phi i64 [ %spec.select4.i, %bb9.i ], [ 1, %start ], [ 1, %bb6.i ]
  %.sink.i = phi i64 [ %_17.0.i, %bb9.i ], [ 0, %start ], [ 0, %bb6.i ]
  store i64 %.sink6.i, ptr %_3, align 8
  %2 = getelementptr inbounds nuw i8, ptr %_3, i64 8
  store i64 %.sink.i, ptr %2, align 8
  %3 = getelementptr inbounds nuw i8, ptr %_7, i64 8
  store i64 %.sink8.i, ptr %3, align 8
  store i64 1, ptr %_7, align 8
  %4 = trunc nuw i64 %.sink6.i to i1
  %_8 = icmp eq i64 %.sink.i, %.sink8.i
  %or.cond = select i1 %4, i1 %_8, i1 false
  br i1 %or.cond, label %bb2, label %bb3, !prof !125

bb3:                                              ; preds = %_RNvXsd_NtNtCsjMrxcFdYDNN_4core4iter5rangeINtNtNtB9_3ops5range14RangeInclusiveaENtNtNtB7_6traits8iterator8Iterator9size_hintCs6I88mZlBn6o_5rayon.exit
; call core::panicking::assert_failed::<core::option::Option<usize>, core::option::Option<usize>>
  call void @_RINvNtCsjMrxcFdYDNN_4core9panicking13assert_failedINtNtB4_6option6OptionjEBM_EB4_(i8 noundef 0, ptr noalias noundef nonnull readonly align 8 captures(address, read_provenance) dereferenceable(16) %_3, ptr noalias noundef nonnull readonly align 8 captures(address, read_provenance) dereferenceable(16) %_7, ptr noundef null, ptr undef, ptr noalias noundef readonly align 8 captures(address, read_provenance) dereferenceable(24) @alloc_da2ba3549aec1a2e0b10374fba2f3d01) #22
  unreachable

bb2:                                              ; preds = %_RNvXsd_NtNtCsjMrxcFdYDNN_4core4iter5rangeINtNtNtB9_3ops5range14RangeInclusiveaENtNtNtB7_6traits8iterator8Iterator9size_hintCs6I88mZlBn6o_5rayon.exit
  call void @llvm.lifetime.end.p0(i64 16, ptr nonnull %_7)
  call void @llvm.lifetime.end.p0(i64 16, ptr nonnull %_3)
  ret i64 %.sink8.i
}

; <u16 as rayon::range::private::IndexedRangeInteger>::len
; Function Attrs: mustprogress nofree norecurse nosync nounwind willreturn memory(argmem: read) uwtable
define noundef range(i64 0, 65536) i64 @_RNvXsa_NtCs6I88mZlBn6o_5rayon5rangetNtNtB5_7private19IndexedRangeInteger3len(ptr noalias noundef readonly align 2 captures(none) dereferenceable(4) %iter) unnamed_addr #5 {
start:
  %_11 = load i16, ptr %iter, align 2, !noundef !5
  %0 = getelementptr inbounds nuw i8, ptr %iter, i64 2
  %_12 = load i16, ptr %0, align 2, !noundef !5
  %narrow = tail call i16 @llvm.usub.sat.i16(i16 %_12, i16 %_11)
  %_0.sroa.0.0 = zext i16 %narrow to i64
  ret i64 %_0.sroa.0.0
}

; <i8 as rayon::range_inclusive::private::RangeInteger>::opt_len
; Function Attrs: mustprogress nofree norecurse nosync nounwind willreturn memory(argmem: read) uwtable
define { i64, i64 } @_RNvXsb_NtCs6I88mZlBn6o_5rayon15range_inclusiveaNtNtB5_7private12RangeInteger7opt_len(ptr noalias noundef readonly align 1 captures(none) dereferenceable(3) %iter) unnamed_addr #5 personality ptr @rust_eh_personality {
start:
  %0 = getelementptr inbounds nuw i8, ptr %iter, i64 1
  %1 = load i8, ptr %0, align 1, !alias.scope !126, !noundef !5
  %2 = getelementptr inbounds nuw i8, ptr %iter, i64 2
  %3 = load i8, ptr %2, align 1, !alias.scope !126, !noundef !5
  %_0.i.not.i = icmp sgt i8 %1, %3
  %4 = load i8, ptr %iter, align 1, !range !34, !alias.scope !126
  %5 = trunc nuw i8 %4 to i1
  %.not = select i1 %_0.i.not.i, i1 true, i1 %5
  br i1 %.not, label %bb7, label %bb2

bb2:                                              ; preds = %start
  %6 = tail call { i8, i1 } @llvm.sadd.with.overflow.i8(i8 %3, i8 1)
  %_18.1 = extractvalue { i8, i1 } %6, 1
  br i1 %_18.1, label %bb8, label %bb10, !prof !25

bb10:                                             ; preds = %bb2
  %_18.0 = extractvalue { i8, i1 } %6, 0
  %_9.i = icmp slt i8 %1, %_18.0
  %_15.i = sext i8 %_18.0 to i64
  %_16.i = sext i8 %1 to i64
  %_14.i = sub nsw i64 %_15.i, %_16.i
  %_13.sroa.0.0.i = select i1 %_9.i, i64 %_14.i, i64 0
  br label %bb7

bb8:                                              ; preds = %bb2
  %_9.i.i.i = icmp slt i8 %1, %3
  %_15.i.i.i = zext nneg i8 %3 to i64
  %_16.i.i.i = sext i8 %1 to i64
  %reass.sub = sub nsw i64 %_15.i.i.i, %_16.i.i.i
  %7 = add nuw nsw i64 %reass.sub, 1
  %_15.0.i = select i1 %_9.i.i.i, i64 %7, i64 1
  br label %bb7

bb7:                                              ; preds = %bb10, %bb8, %start
  %_0.sroa.4.1 = phi i64 [ 0, %start ], [ %_15.0.i, %bb8 ], [ %_13.sroa.0.0.i, %bb10 ]
  %8 = insertvalue { i64, i64 } { i64 1, i64 poison }, i64 %_0.sroa.4.1, 1
  ret { i64, i64 } %8
}

; <rayon::range::IterProducer<u16> as rayon::iter::plumbing::Producer>::split_at
; Function Attrs: uwtable
define i64 @_RNvXsb_NtCs6I88mZlBn6o_5rayon5rangeINtB5_12IterProducertENtNtNtB7_4iter8plumbing8Producer8split_at(i16 noundef %self.0, i16 noundef %self.1, i64 noundef %index) unnamed_addr #4 {
start:
  %narrow = tail call i16 @llvm.usub.sat.i16(i16 %self.1, i16 %self.0)
  %_25.sroa.3.0 = zext i16 %narrow to i64
  %_3.not = icmp ugt i64 %index, %_25.sroa.3.0
  br i1 %_3.not, label %bb2, label %bb1, !prof !25

bb2:                                              ; preds = %start
; call core::panicking::panic
  tail call void @_RNvNtCsjMrxcFdYDNN_4core9panicking5panic(ptr noalias noundef nonnull readonly align 1 captures(address, read_provenance) @alloc_c9080844985d858ed80bda494d71ce81, i64 noundef 43, ptr noalias noundef readonly align 8 captures(address, read_provenance) dereferenceable(24) @alloc_f8281c28732c1a05782abc7d6b566c4b) #22
  unreachable

bb1:                                              ; preds = %start
  %_6 = trunc nuw i64 %index to i16
  %mid = add i16 %self.0, %_6
  %_0.sroa.4.0.insert.ext = zext i16 %self.1 to i64
  %_0.sroa.4.0.insert.shift = shl nuw i64 %_0.sroa.4.0.insert.ext, 48
  %_0.sroa.3.0.insert.ext = zext i16 %mid to i64
  %_0.sroa.3.0.insert.shift = shl nuw nsw i64 %_0.sroa.3.0.insert.ext, 32
  %_0.sroa.3.0.insert.insert = or disjoint i64 %_0.sroa.3.0.insert.shift, %_0.sroa.4.0.insert.shift
  %_0.sroa.2.0.insert.shift = shl nuw nsw i64 %_0.sroa.3.0.insert.ext, 16
  %_0.sroa.2.0.insert.insert = or disjoint i64 %_0.sroa.3.0.insert.insert, %_0.sroa.2.0.insert.shift
  %_0.sroa.0.0.insert.ext = zext i16 %self.0 to i64
  %_0.sroa.0.0.insert.insert = or disjoint i64 %_0.sroa.2.0.insert.insert, %_0.sroa.0.0.insert.ext
  ret i64 %_0.sroa.0.0.insert.insert
}

; <i16 as rayon::range_inclusive::private::IndexedRangeInteger>::len
; Function Attrs: uwtable
define noundef range(i64 -65534, 65537) i64 @_RNvXsc_NtCs6I88mZlBn6o_5rayon15range_inclusivesNtNtB5_7private19IndexedRangeInteger3len(ptr noalias noundef readonly align 2 captures(none) dereferenceable(6) %iter) unnamed_addr #4 {
start:
  %_7 = alloca [16 x i8], align 8
  %_3 = alloca [16 x i8], align 8
  call void @llvm.lifetime.start.p0(i64 16, ptr nonnull %_3)
  call void @llvm.lifetime.start.p0(i64 16, ptr nonnull %_7)
  %0 = getelementptr inbounds nuw i8, ptr %iter, i64 4
  %1 = load i8, ptr %0, align 2, !range !34, !alias.scope !129, !noalias !132, !noundef !5
  %_10.i = trunc nuw i8 %1 to i1
  br i1 %_10.i, label %_RNvXsd_NtNtCsjMrxcFdYDNN_4core4iter5rangeINtNtNtB9_3ops5range14RangeInclusivesENtNtNtB7_6traits8iterator8Iterator9size_hintCs6I88mZlBn6o_5rayon.exit, label %bb6.i

bb6.i:                                            ; preds = %start
  %_13.i = getelementptr inbounds nuw i8, ptr %iter, i64 2
  tail call void @llvm.experimental.noalias.scope.decl(metadata !134)
  tail call void @llvm.experimental.noalias.scope.decl(metadata !137)
  %_3.i.i = load i16, ptr %iter, align 2, !alias.scope !139, !noalias !140, !noundef !5
  %_4.i.i = load i16, ptr %_13.i, align 2, !alias.scope !141, !noalias !142, !noundef !5
  %_0.i.not.i = icmp sgt i16 %_3.i.i, %_4.i.i
  br i1 %_0.i.not.i, label %_RNvXsd_NtNtCsjMrxcFdYDNN_4core4iter5rangeINtNtNtB9_3ops5range14RangeInclusivesENtNtNtB7_6traits8iterator8Iterator9size_hintCs6I88mZlBn6o_5rayon.exit, label %bb9.i

bb9.i:                                            ; preds = %bb6.i
  %self.i.i = sext i16 %_4.i.i to i64
  %rhs.i.i = sext i16 %_3.i.i to i64
  %_7.i.i = sub nsw i64 %self.i.i, %rhs.i.i
  %2 = tail call i64 @llvm.uadd.sat.i64(i64 %_7.i.i, i64 1)
  %_17.1.i = icmp ne i64 %_7.i.i, -1
  %_17.0.i = add nsw i64 %_7.i.i, 1
  %spec.select4.i = zext i1 %_17.1.i to i64
  br label %_RNvXsd_NtNtCsjMrxcFdYDNN_4core4iter5rangeINtNtNtB9_3ops5range14RangeInclusivesENtNtNtB7_6traits8iterator8Iterator9size_hintCs6I88mZlBn6o_5rayon.exit

_RNvXsd_NtNtCsjMrxcFdYDNN_4core4iter5rangeINtNtNtB9_3ops5range14RangeInclusivesENtNtNtB7_6traits8iterator8Iterator9size_hintCs6I88mZlBn6o_5rayon.exit: ; preds = %start, %bb6.i, %bb9.i
  %.sink8.i = phi i64 [ %2, %bb9.i ], [ 0, %start ], [ 0, %bb6.i ]
  %.sink6.i = phi i64 [ %spec.select4.i, %bb9.i ], [ 1, %start ], [ 1, %bb6.i ]
  %.sink.i = phi i64 [ %_17.0.i, %bb9.i ], [ 0, %start ], [ 0, %bb6.i ]
  store i64 %.sink6.i, ptr %_3, align 8
  %3 = getelementptr inbounds nuw i8, ptr %_3, i64 8
  store i64 %.sink.i, ptr %3, align 8
  %4 = getelementptr inbounds nuw i8, ptr %_7, i64 8
  store i64 %.sink8.i, ptr %4, align 8
  store i64 1, ptr %_7, align 8
  %5 = trunc nuw i64 %.sink6.i to i1
  %_8 = icmp eq i64 %.sink.i, %.sink8.i
  %or.cond = select i1 %5, i1 %_8, i1 false
  br i1 %or.cond, label %bb2, label %bb3, !prof !125

bb3:                                              ; preds = %_RNvXsd_NtNtCsjMrxcFdYDNN_4core4iter5rangeINtNtNtB9_3ops5range14RangeInclusivesENtNtNtB7_6traits8iterator8Iterator9size_hintCs6I88mZlBn6o_5rayon.exit
; call core::panicking::assert_failed::<core::option::Option<usize>, core::option::Option<usize>>
  call void @_RINvNtCsjMrxcFdYDNN_4core9panicking13assert_failedINtNtB4_6option6OptionjEBM_EB4_(i8 noundef 0, ptr noalias noundef nonnull readonly align 8 captures(address, read_provenance) dereferenceable(16) %_3, ptr noalias noundef nonnull readonly align 8 captures(address, read_provenance) dereferenceable(16) %_7, ptr noundef null, ptr undef, ptr noalias noundef readonly align 8 captures(address, read_provenance) dereferenceable(24) @alloc_da2ba3549aec1a2e0b10374fba2f3d01) #22
  unreachable

bb2:                                              ; preds = %_RNvXsd_NtNtCsjMrxcFdYDNN_4core4iter5rangeINtNtNtB9_3ops5range14RangeInclusivesENtNtNtB7_6traits8iterator8Iterator9size_hintCs6I88mZlBn6o_5rayon.exit
  call void @llvm.lifetime.end.p0(i64 16, ptr nonnull %_7)
  call void @llvm.lifetime.end.p0(i64 16, ptr nonnull %_3)
  ret i64 %.sink8.i
}

; <u32 as rayon::range::private::RangeInteger>::opt_len
; Function Attrs: mustprogress nofree norecurse nosync nounwind willreturn memory(argmem: read) uwtable
define { i64, i64 } @_RNvXsc_NtCs6I88mZlBn6o_5rayon5rangemNtNtB5_7private12RangeInteger7opt_len(ptr noalias noundef readonly align 4 captures(none) dereferenceable(8) %iter) unnamed_addr #5 {
start:
  %_10 = load i32, ptr %iter, align 4, !noundef !5
  %0 = getelementptr inbounds nuw i8, ptr %iter, i64 4
  %_11 = load i32, ptr %0, align 4, !noundef !5
  %narrow = tail call i32 @llvm.usub.sat.i32(i32 %_11, i32 %_10)
  %_13.sroa.0.0 = zext i32 %narrow to i64
  %1 = insertvalue { i64, i64 } { i64 1, i64 poison }, i64 %_13.sroa.0.0, 1
  ret { i64, i64 } %1
}

; <i16 as rayon::range_inclusive::private::RangeInteger>::opt_len
; Function Attrs: mustprogress nofree norecurse nosync nounwind willreturn memory(argmem: read) uwtable
define { i64, i64 } @_RNvXsd_NtCs6I88mZlBn6o_5rayon15range_inclusivesNtNtB5_7private12RangeInteger7opt_len(ptr noalias noundef readonly align 2 captures(none) dereferenceable(6) %iter) unnamed_addr #5 personality ptr @rust_eh_personality {
start:
  %0 = load i16, ptr %iter, align 2, !alias.scope !143, !noundef !5
  %1 = getelementptr inbounds nuw i8, ptr %iter, i64 2
  %2 = load i16, ptr %1, align 2, !alias.scope !143, !noundef !5
  %_0.i.not.i = icmp sgt i16 %0, %2
  %3 = getelementptr inbounds nuw i8, ptr %iter, i64 4
  %4 = load i8, ptr %3, align 2, !range !34, !alias.scope !143
  %5 = trunc nuw i8 %4 to i1
  %.not = select i1 %_0.i.not.i, i1 true, i1 %5
  br i1 %.not, label %bb7, label %bb2

bb2:                                              ; preds = %start
  %6 = tail call { i16, i1 } @llvm.sadd.with.overflow.i16(i16 %2, i16 1)
  %_18.1 = extractvalue { i16, i1 } %6, 1
  br i1 %_18.1, label %bb8, label %bb10, !prof !25

bb10:                                             ; preds = %bb2
  %_18.0 = extractvalue { i16, i1 } %6, 0
  %_9.i = icmp slt i16 %0, %_18.0
  %_15.i = sext i16 %_18.0 to i64
  %_16.i = sext i16 %0 to i64
  %_14.i = sub nsw i64 %_15.i, %_16.i
  %_13.sroa.0.0.i = select i1 %_9.i, i64 %_14.i, i64 0
  br label %bb7

bb8:                                              ; preds = %bb2
  %_9.i.i.i = icmp slt i16 %0, %2
  %_15.i.i.i = zext nneg i16 %2 to i64
  %_16.i.i.i = sext i16 %0 to i64
  %reass.sub = sub nsw i64 %_15.i.i.i, %_16.i.i.i
  %7 = add nuw nsw i64 %reass.sub, 1
  %_15.0.i = select i1 %_9.i.i.i, i64 %7, i64 1
  br label %bb7

bb7:                                              ; preds = %bb10, %bb8, %start
  %_0.sroa.4.1 = phi i64 [ 0, %start ], [ %_15.0.i, %bb8 ], [ %_13.sroa.0.0.i, %bb10 ]
  %8 = insertvalue { i64, i64 } { i64 1, i64 poison }, i64 %_0.sroa.4.1, 1
  ret { i64, i64 } %8
}

; <u32 as rayon::range::private::IndexedRangeInteger>::len
; Function Attrs: mustprogress nofree norecurse nosync nounwind willreturn memory(argmem: read) uwtable
define noundef range(i64 0, 4294967296) i64 @_RNvXsd_NtCs6I88mZlBn6o_5rayon5rangemNtNtB5_7private19IndexedRangeInteger3len(ptr noalias noundef readonly align 4 captures(none) dereferenceable(8) %iter) unnamed_addr #5 {
start:
  %_11 = load i32, ptr %iter, align 4, !noundef !5
  %0 = getelementptr inbounds nuw i8, ptr %iter, i64 4
  %_12 = load i32, ptr %0, align 4, !noundef !5
  %narrow = tail call i32 @llvm.usub.sat.i32(i32 %_12, i32 %_11)
  %_0.sroa.0.0 = zext i32 %narrow to i64
  ret i64 %_0.sroa.0.0
}

; <usize as rayon::range_inclusive::private::RangeInteger>::opt_len
; Function Attrs: mustprogress nofree norecurse nosync nounwind willreturn memory(argmem: read) uwtable
define { i64, i64 } @_RNvXse_NtCs6I88mZlBn6o_5rayon15range_inclusivejNtNtB5_7private12RangeInteger7opt_len(ptr noalias noundef readonly align 8 captures(none) dereferenceable(24) %iter) unnamed_addr #5 personality ptr @rust_eh_personality {
start:
  %0 = load i64, ptr %iter, align 8, !alias.scope !146, !noalias !149, !noundef !5
  %1 = getelementptr inbounds nuw i8, ptr %iter, i64 8
  %2 = load i64, ptr %1, align 8, !alias.scope !146, !noalias !149, !noundef !5
  %_0.i.not.i = icmp ule i64 %0, %2
  %3 = getelementptr inbounds nuw i8, ptr %iter, i64 16
  %4 = load i8, ptr %3, align 8, !range !34, !alias.scope !146, !noalias !149
  %_3.i2.i = icmp eq i8 %4, 0
  %or.cond.i = select i1 %_0.i.not.i, i1 %_3.i2.i, i1 false
  br i1 %or.cond.i, label %bb2, label %bb7

bb2:                                              ; preds = %start
  %_17.1 = icmp eq i64 %2, -1
  br i1 %_17.1, label %bb8, label %bb10, !prof !25

bb10:                                             ; preds = %bb2
  %_17.0 = add nuw i64 %2, 1
  %_13.sroa.0.0.i = tail call i64 @llvm.usub.sat.i64(i64 %_17.0, i64 %0)
  br label %bb7

bb8:                                              ; preds = %bb2
  %_15.1.i = icmp ne i64 %0, 0
  %_15.0.i = sub i64 0, %0
  %_0.sroa.0.2.i = zext i1 %_15.1.i to i64
  br label %bb7

bb7:                                              ; preds = %bb10, %bb8, %start
  %_0.sroa.4.1 = phi i64 [ 0, %start ], [ %_15.0.i, %bb8 ], [ %_13.sroa.0.0.i, %bb10 ]
  %_0.sroa.0.1 = phi i64 [ 1, %start ], [ %_0.sroa.0.2.i, %bb8 ], [ 1, %bb10 ]
  %5 = insertvalue { i64, i64 } poison, i64 %_0.sroa.0.1, 0
  %6 = insertvalue { i64, i64 } %5, i64 %_0.sroa.4.1, 1
  ret { i64, i64 } %6
}

; <rayon::range::IterProducer<u32> as rayon::iter::plumbing::Producer>::split_at
; Function Attrs: uwtable
define void @_RNvXse_NtCs6I88mZlBn6o_5rayon5rangeINtB5_12IterProducermENtNtNtB7_4iter8plumbing8Producer8split_at(ptr dead_on_unwind noalias noundef writable writeonly sret([16 x i8]) align 4 captures(none) dereferenceable(16) %_0, i32 noundef %self.0, i32 noundef %self.1, i64 noundef %index) unnamed_addr #4 {
start:
  %narrow = tail call i32 @llvm.usub.sat.i32(i32 %self.1, i32 %self.0)
  %_23.sroa.0.0 = zext i32 %narrow to i64
  %_3.not = icmp ugt i64 %index, %_23.sroa.0.0
  br i1 %_3.not, label %bb2, label %bb1, !prof !25

bb2:                                              ; preds = %start
; call core::panicking::panic
  tail call void @_RNvNtCsjMrxcFdYDNN_4core9panicking5panic(ptr noalias noundef nonnull readonly align 1 captures(address, read_provenance) @alloc_c9080844985d858ed80bda494d71ce81, i64 noundef 43, ptr noalias noundef readonly align 8 captures(address, read_provenance) dereferenceable(24) @alloc_43b18b607fd50a1d3410659dc5a70f35) #22
  unreachable

bb1:                                              ; preds = %start
  %_6 = trunc nuw i64 %index to i32
  %mid = add i32 %self.0, %_6
  store i32 %self.0, ptr %_0, align 4
  %0 = getelementptr inbounds nuw i8, ptr %_0, i64 4
  store i32 %mid, ptr %0, align 4
  %1 = getelementptr inbounds nuw i8, ptr %_0, i64 8
  store i32 %mid, ptr %1, align 4
  %2 = getelementptr inbounds nuw i8, ptr %_0, i64 12
  store i32 %self.1, ptr %2, align 4
  ret void
}

; <isize as rayon::range_inclusive::private::RangeInteger>::opt_len
; Function Attrs: mustprogress nofree norecurse nosync nounwind willreturn memory(argmem: read) uwtable
define { i64, i64 } @_RNvXsf_NtCs6I88mZlBn6o_5rayon15range_inclusiveiNtNtB5_7private12RangeInteger7opt_len(ptr noalias noundef readonly align 8 captures(none) dereferenceable(24) %iter) unnamed_addr #5 personality ptr @rust_eh_personality {
start:
  %0 = load i64, ptr %iter, align 8, !alias.scope !151, !noalias !154, !noundef !5
  %1 = getelementptr inbounds nuw i8, ptr %iter, i64 8
  %2 = load i64, ptr %1, align 8, !alias.scope !151, !noalias !154, !noundef !5
  %_0.i.not.i = icmp sle i64 %0, %2
  %3 = getelementptr inbounds nuw i8, ptr %iter, i64 16
  %4 = load i8, ptr %3, align 8, !range !34, !alias.scope !151, !noalias !154
  %_3.i2.i = icmp eq i8 %4, 0
  %or.cond.i = select i1 %_0.i.not.i, i1 %_3.i2.i, i1 false
  br i1 %or.cond.i, label %bb2, label %bb7

bb2:                                              ; preds = %start
  %5 = tail call { i64, i1 } @llvm.sadd.with.overflow.i64(i64 %2, i64 1)
  %_18.1 = extractvalue { i64, i1 } %5, 1
  br i1 %_18.1, label %bb8, label %bb10, !prof !25

bb10:                                             ; preds = %bb2
  %_18.0 = extractvalue { i64, i1 } %5, 0
  %_9.i = icmp slt i64 %0, %_18.0
  %_14.i = sub i64 %_18.0, %0
  %_13.sroa.0.0.i = select i1 %_9.i, i64 %_14.i, i64 0
  br label %bb7

bb8:                                              ; preds = %bb2
  %_9.i.i.i = icmp slt i64 %0, %2
  %_14.i.i.i = sub i64 %2, %0
  %_13.sroa.0.0.i.i.i = select i1 %_9.i.i.i, i64 %_14.i.i.i, i64 0
  %_15.1.i = icmp ne i64 %_13.sroa.0.0.i.i.i, -1
  %_15.0.i = add i64 %_13.sroa.0.0.i.i.i, 1
  %_0.sroa.0.2.i = zext i1 %_15.1.i to i64
  br label %bb7

bb7:                                              ; preds = %bb10, %bb8, %start
  %_0.sroa.4.1 = phi i64 [ 0, %start ], [ %_15.0.i, %bb8 ], [ %_13.sroa.0.0.i, %bb10 ]
  %_0.sroa.0.1 = phi i64 [ 1, %start ], [ %_0.sroa.0.2.i, %bb8 ], [ 1, %bb10 ]
  %6 = insertvalue { i64, i64 } poison, i64 %_0.sroa.0.1, 0
  %7 = insertvalue { i64, i64 } %6, i64 %_0.sroa.4.1, 1
  ret { i64, i64 } %7
}

; <usize as rayon::range::private::RangeInteger>::opt_len
; Function Attrs: mustprogress nofree norecurse nosync nounwind willreturn memory(argmem: read) uwtable
define { i64, i64 } @_RNvXsf_NtCs6I88mZlBn6o_5rayon5rangejNtNtB5_7private12RangeInteger7opt_len(ptr noalias noundef readonly align 8 captures(none) dereferenceable(16) %iter) unnamed_addr #5 {
start:
  %_10 = load i64, ptr %iter, align 8, !noundef !5
  %0 = getelementptr inbounds nuw i8, ptr %iter, i64 8
  %_11 = load i64, ptr %0, align 8, !noundef !5
  %_13.sroa.0.0 = tail call i64 @llvm.usub.sat.i64(i64 %_11, i64 %_10)
  %1 = insertvalue { i64, i64 } { i64 1, i64 poison }, i64 %_13.sroa.0.0, 1
  ret { i64, i64 } %1
}

; <u32 as rayon::range_inclusive::private::RangeInteger>::opt_len
; Function Attrs: mustprogress nofree norecurse nosync nounwind willreturn memory(argmem: read) uwtable
define { i64, i64 } @_RNvXsg_NtCs6I88mZlBn6o_5rayon15range_inclusivemNtNtB5_7private12RangeInteger7opt_len(ptr noalias noundef readonly align 4 captures(none) dereferenceable(12) %iter) unnamed_addr #5 personality ptr @rust_eh_personality {
start:
  %0 = load i32, ptr %iter, align 4, !alias.scope !156, !noalias !159, !noundef !5
  %1 = getelementptr inbounds nuw i8, ptr %iter, i64 4
  %2 = load i32, ptr %1, align 4, !alias.scope !156, !noalias !159, !noundef !5
  %_0.i.not.i = icmp ule i32 %0, %2
  %3 = getelementptr inbounds nuw i8, ptr %iter, i64 8
  %4 = load i8, ptr %3, align 4, !range !34, !alias.scope !156, !noalias !159
  %_3.i2.i = icmp eq i8 %4, 0
  %or.cond.i = select i1 %_0.i.not.i, i1 %_3.i2.i, i1 false
  br i1 %or.cond.i, label %bb2, label %bb7

bb2:                                              ; preds = %start
  %_17.1 = icmp eq i32 %2, -1
  br i1 %_17.1, label %bb8, label %bb10, !prof !25

bb10:                                             ; preds = %bb2
  %_17.0 = add nuw i32 %2, 1
  %narrow.i = tail call i32 @llvm.usub.sat.i32(i32 %_17.0, i32 %0)
  %_13.sroa.0.0.i = zext i32 %narrow.i to i64
  br label %bb7

bb8:                                              ; preds = %bb2
  %narrow.i.i.i5 = xor i32 %0, -1
  %_13.sroa.0.0.i.i.i = zext i32 %narrow.i.i.i5 to i64
  %_15.0.i = add nuw nsw i64 %_13.sroa.0.0.i.i.i, 1
  br label %bb7

bb7:                                              ; preds = %bb10, %bb8, %start
  %_0.sroa.4.1 = phi i64 [ 0, %start ], [ %_15.0.i, %bb8 ], [ %_13.sroa.0.0.i, %bb10 ]
  %5 = insertvalue { i64, i64 } { i64 1, i64 poison }, i64 %_0.sroa.4.1, 1
  ret { i64, i64 } %5
}

; <usize as rayon::range::private::IndexedRangeInteger>::len
; Function Attrs: mustprogress nofree norecurse nosync nounwind willreturn memory(argmem: read) uwtable
define noundef i64 @_RNvXsg_NtCs6I88mZlBn6o_5rayon5rangejNtNtB5_7private19IndexedRangeInteger3len(ptr noalias noundef readonly align 8 captures(none) dereferenceable(16) %iter) unnamed_addr #5 {
start:
  %_11 = load i64, ptr %iter, align 8, !noundef !5
  %0 = getelementptr inbounds nuw i8, ptr %iter, i64 8
  %_12 = load i64, ptr %0, align 8, !noundef !5
  %_0.sroa.0.0 = tail call i64 @llvm.usub.sat.i64(i64 %_12, i64 %_11)
  ret i64 %_0.sroa.0.0
}

; <i32 as rayon::range_inclusive::private::RangeInteger>::opt_len
; Function Attrs: mustprogress nofree norecurse nosync nounwind willreturn memory(argmem: read) uwtable
define { i64, i64 } @_RNvXsh_NtCs6I88mZlBn6o_5rayon15range_inclusivelNtNtB5_7private12RangeInteger7opt_len(ptr noalias noundef readonly align 4 captures(none) dereferenceable(12) %iter) unnamed_addr #5 personality ptr @rust_eh_personality {
start:
  %0 = load i32, ptr %iter, align 4, !alias.scope !161, !noalias !164, !noundef !5
  %1 = getelementptr inbounds nuw i8, ptr %iter, i64 4
  %2 = load i32, ptr %1, align 4, !alias.scope !161, !noalias !164, !noundef !5
  %_0.i.not.i = icmp sle i32 %0, %2
  %3 = getelementptr inbounds nuw i8, ptr %iter, i64 8
  %4 = load i8, ptr %3, align 4, !range !34, !alias.scope !161, !noalias !164
  %_3.i2.i = icmp eq i8 %4, 0
  %or.cond.i = select i1 %_0.i.not.i, i1 %_3.i2.i, i1 false
  br i1 %or.cond.i, label %bb2, label %bb7

bb2:                                              ; preds = %start
  %5 = tail call { i32, i1 } @llvm.sadd.with.overflow.i32(i32 %2, i32 1)
  %_18.1 = extractvalue { i32, i1 } %5, 1
  br i1 %_18.1, label %bb8, label %bb10, !prof !25

bb10:                                             ; preds = %bb2
  %_18.0 = extractvalue { i32, i1 } %5, 0
  %_9.i = icmp slt i32 %0, %_18.0
  %_15.i = sext i32 %_18.0 to i64
  %_16.i = sext i32 %0 to i64
  %_14.i = sub nsw i64 %_15.i, %_16.i
  %_13.sroa.0.0.i = select i1 %_9.i, i64 %_14.i, i64 0
  br label %bb7

bb8:                                              ; preds = %bb2
  %_9.i.i.i = icmp slt i32 %0, %2
  %_15.i.i.i = zext nneg i32 %2 to i64
  %_16.i.i.i = sext i32 %0 to i64
  %reass.sub = sub nsw i64 %_15.i.i.i, %_16.i.i.i
  %6 = add nuw nsw i64 %reass.sub, 1
  %_15.0.i = select i1 %_9.i.i.i, i64 %6, i64 1
  br label %bb7

bb7:                                              ; preds = %bb10, %bb8, %start
  %_0.sroa.4.1 = phi i64 [ 0, %start ], [ %_15.0.i, %bb8 ], [ %_13.sroa.0.0.i, %bb10 ]
  %7 = insertvalue { i64, i64 } { i64 1, i64 poison }, i64 %_0.sroa.4.1, 1
  ret { i64, i64 } %7
}

; <rayon::range::IterProducer<usize> as rayon::iter::plumbing::Producer>::split_at
; Function Attrs: uwtable
define void @_RNvXsh_NtCs6I88mZlBn6o_5rayon5rangeINtB5_12IterProducerjENtNtNtB7_4iter8plumbing8Producer8split_at(ptr dead_on_unwind noalias noundef writable writeonly sret([32 x i8]) align 8 captures(none) dereferenceable(32) %_0, i64 noundef %self.0, i64 noundef %self.1, i64 noundef %index) unnamed_addr #4 {
start:
  %_22.sroa.0.0 = tail call i64 @llvm.usub.sat.i64(i64 %self.1, i64 %self.0)
  %_3.not = icmp ugt i64 %index, %_22.sroa.0.0
  br i1 %_3.not, label %bb2, label %bb1, !prof !25

bb2:                                              ; preds = %start
; call core::panicking::panic
  tail call void @_RNvNtCsjMrxcFdYDNN_4core9panicking5panic(ptr noalias noundef nonnull readonly align 1 captures(address, read_provenance) @alloc_c9080844985d858ed80bda494d71ce81, i64 noundef 43, ptr noalias noundef readonly align 8 captures(address, read_provenance) dereferenceable(24) @alloc_b13a900eed8fb1c116b50656695087cc) #22
  unreachable

bb1:                                              ; preds = %start
  %mid = add i64 %index, %self.0
  store i64 %self.0, ptr %_0, align 8
  %0 = getelementptr inbounds nuw i8, ptr %_0, i64 8
  store i64 %mid, ptr %0, align 8
  %1 = getelementptr inbounds nuw i8, ptr %_0, i64 16
  store i64 %mid, ptr %1, align 8
  %2 = getelementptr inbounds nuw i8, ptr %_0, i64 24
  store i64 %self.1, ptr %2, align 8
  ret void
}

; <u64 as rayon::range_inclusive::private::RangeInteger>::opt_len
; Function Attrs: mustprogress nofree norecurse nosync nounwind willreturn memory(argmem: read) uwtable
define { i64, i64 } @_RNvXsi_NtCs6I88mZlBn6o_5rayon15range_inclusiveyNtNtB5_7private12RangeInteger7opt_len(ptr noalias noundef readonly align 8 captures(none) dereferenceable(24) %iter) unnamed_addr #5 personality ptr @rust_eh_personality {
start:
  %0 = load i64, ptr %iter, align 8, !alias.scope !166, !noalias !169, !noundef !5
  %1 = getelementptr inbounds nuw i8, ptr %iter, i64 8
  %2 = load i64, ptr %1, align 8, !alias.scope !166, !noalias !169, !noundef !5
  %_0.i.not.i = icmp ule i64 %0, %2
  %3 = getelementptr inbounds nuw i8, ptr %iter, i64 16
  %4 = load i8, ptr %3, align 8, !range !34, !alias.scope !166, !noalias !169
  %_3.i2.i = icmp eq i8 %4, 0
  %or.cond.i = select i1 %_0.i.not.i, i1 %_3.i2.i, i1 false
  br i1 %or.cond.i, label %bb2, label %bb7

bb2:                                              ; preds = %start
  %_14.1 = icmp eq i64 %2, -1
  br i1 %_14.1, label %bb8, label %bb10, !prof !25

bb10:                                             ; preds = %bb2
  %_14.0 = add nuw i64 %2, 1
  %_17.sroa.0.0 = tail call i64 @llvm.usub.sat.i64(i64 %_14.0, i64 %0)
  br label %bb7

bb8:                                              ; preds = %bb2
  %_15.1.i = icmp ne i64 %0, 0
  %_15.0.i = sub i64 0, %0
  %_0.sroa.0.2.i = zext i1 %_15.1.i to i64
  br label %bb7

bb7:                                              ; preds = %start, %bb10, %bb8
  %_0.sroa.4.1 = phi i64 [ %_15.0.i, %bb8 ], [ %_17.sroa.0.0, %bb10 ], [ 0, %start ]
  %_0.sroa.0.1 = phi i64 [ %_0.sroa.0.2.i, %bb8 ], [ 1, %bb10 ], [ 1, %start ]
  %5 = insertvalue { i64, i64 } poison, i64 %_0.sroa.0.1, 0
  %6 = insertvalue { i64, i64 } %5, i64 %_0.sroa.4.1, 1
  ret { i64, i64 } %6
}

; <i8 as rayon::range::private::RangeInteger>::opt_len
; Function Attrs: mustprogress nofree norecurse nosync nounwind willreturn memory(argmem: read) uwtable
define { i64, i64 } @_RNvXsi_NtCs6I88mZlBn6o_5rayon5rangeaNtNtB5_7private12RangeInteger7opt_len(ptr noalias noundef readonly align 1 captures(none) dereferenceable(2) %iter) unnamed_addr #5 {
start:
  %_10 = load i8, ptr %iter, align 1, !noundef !5
  %0 = getelementptr inbounds nuw i8, ptr %iter, i64 1
  %_11 = load i8, ptr %0, align 1, !noundef !5
  %_9 = icmp slt i8 %_10, %_11
  %_15 = sext i8 %_11 to i64
  %_16 = sext i8 %_10 to i64
  %_14 = sub nsw i64 %_15, %_16
  %_13.sroa.0.0 = select i1 %_9, i64 %_14, i64 0
  %1 = insertvalue { i64, i64 } { i64 1, i64 poison }, i64 %_13.sroa.0.0, 1
  ret { i64, i64 } %1
}

; <i64 as rayon::range_inclusive::private::RangeInteger>::opt_len
; Function Attrs: mustprogress nofree norecurse nosync nounwind willreturn memory(argmem: read) uwtable
define { i64, i64 } @_RNvXsj_NtCs6I88mZlBn6o_5rayon15range_inclusivexNtNtB5_7private12RangeInteger7opt_len(ptr noalias noundef readonly align 8 captures(none) dereferenceable(24) %iter) unnamed_addr #5 personality ptr @rust_eh_personality {
start:
  %0 = load i64, ptr %iter, align 8, !alias.scope !171, !noalias !174, !noundef !5
  %1 = getelementptr inbounds nuw i8, ptr %iter, i64 8
  %2 = load i64, ptr %1, align 8, !alias.scope !171, !noalias !174, !noundef !5
  %_0.i.not.i = icmp sle i64 %0, %2
  %3 = getelementptr inbounds nuw i8, ptr %iter, i64 16
  %4 = load i8, ptr %3, align 8, !range !34, !alias.scope !171, !noalias !174
  %_3.i2.i = icmp eq i8 %4, 0
  %or.cond.i = select i1 %_0.i.not.i, i1 %_3.i2.i, i1 false
  br i1 %or.cond.i, label %bb2, label %bb7

bb2:                                              ; preds = %start
  %5 = tail call { i64, i1 } @llvm.sadd.with.overflow.i64(i64 %2, i64 1)
  %_15.1 = extractvalue { i64, i1 } %5, 1
  br i1 %_15.1, label %bb8, label %bb10, !prof !25

bb10:                                             ; preds = %bb2
  %_15.0 = extractvalue { i64, i1 } %5, 0
  %_18 = icmp sgt i64 %_15.0, %0
  %_19 = sub i64 %_15.0, %0
  %_17.sroa.0.0 = select i1 %_18, i64 %_19, i64 0
  br label %bb7

bb8:                                              ; preds = %bb2
  %_5.i.i.i = icmp sgt i64 %2, %0
  %_6.i.i.i = sub i64 %2, %0
  %_2.sroa.0.0.i.i.i = select i1 %_5.i.i.i, i64 %_6.i.i.i, i64 0
  %_15.1.i = icmp ne i64 %_2.sroa.0.0.i.i.i, -1
  %_15.0.i = add i64 %_2.sroa.0.0.i.i.i, 1
  %_0.sroa.0.2.i = zext i1 %_15.1.i to i64
  br label %bb7

bb7:                                              ; preds = %start, %bb10, %bb8
  %_0.sroa.4.1 = phi i64 [ %_15.0.i, %bb8 ], [ %_17.sroa.0.0, %bb10 ], [ 0, %start ]
  %_0.sroa.0.1 = phi i64 [ %_0.sroa.0.2.i, %bb8 ], [ 1, %bb10 ], [ 1, %start ]
  %6 = insertvalue { i64, i64 } poison, i64 %_0.sroa.0.1, 0
  %7 = insertvalue { i64, i64 } %6, i64 %_0.sroa.4.1, 1
  ret { i64, i64 } %7
}

; <i8 as rayon::range::private::IndexedRangeInteger>::len
; Function Attrs: mustprogress nofree norecurse nosync nounwind willreturn memory(argmem: read) uwtable
define noundef range(i64 -255, 256) i64 @_RNvXsj_NtCs6I88mZlBn6o_5rayon5rangeaNtNtB5_7private19IndexedRangeInteger3len(ptr noalias noundef readonly align 1 captures(none) dereferenceable(2) %iter) unnamed_addr #5 {
start:
  %_11 = load i8, ptr %iter, align 1, !noundef !5
  %0 = getelementptr inbounds nuw i8, ptr %iter, i64 1
  %_12 = load i8, ptr %0, align 1, !noundef !5
  %_10 = icmp slt i8 %_11, %_12
  %_15 = sext i8 %_12 to i64
  %_16 = sext i8 %_11 to i64
  %_14 = sub nsw i64 %_15, %_16
  %_0.sroa.0.0 = select i1 %_10, i64 %_14, i64 0
  ret i64 %_0.sroa.0.0
}

; <u128 as rayon::range_inclusive::private::RangeInteger>::opt_len
; Function Attrs: mustprogress nofree norecurse nosync nounwind willreturn memory(argmem: read) uwtable
define { i64, i64 } @_RNvXsk_NtCs6I88mZlBn6o_5rayon15range_inclusiveoNtNtB5_7private12RangeInteger7opt_len(ptr noalias noundef readonly align 16 captures(none) dereferenceable(48) %iter) unnamed_addr #5 personality ptr @rust_eh_personality {
start:
  %0 = load i128, ptr %iter, align 16, !alias.scope !176, !noalias !179, !noundef !5
  %1 = getelementptr inbounds nuw i8, ptr %iter, i64 16
  %2 = load i128, ptr %1, align 16, !alias.scope !176, !noalias !179, !noundef !5
  %_0.i.not.i = icmp ule i128 %0, %2
  %3 = getelementptr inbounds nuw i8, ptr %iter, i64 32
  %4 = load i8, ptr %3, align 16, !range !34, !alias.scope !176, !noalias !179
  %_3.i2.i = icmp eq i8 %4, 0
  %or.cond.i = select i1 %_0.i.not.i, i1 %_3.i2.i, i1 false
  br i1 %or.cond.i, label %bb2, label %bb7

bb2:                                              ; preds = %start
  %_14.1 = icmp eq i128 %2, -1
  br i1 %_14.1, label %bb8, label %bb10, !prof !25

bb10:                                             ; preds = %bb2
  %_14.0 = add nuw i128 %2, 1
  %_17.sroa.0.0 = tail call i128 @llvm.usub.sat.i128(i128 %_14.0, i128 %0)
  %_19 = icmp ult i128 %_17.sroa.0.0, 18446744073709551616
  %_20 = trunc nuw i128 %_17.sroa.0.0 to i64
  %spec.select = select i1 %_19, i64 %_20, i64 undef
  br label %bb7

bb8:                                              ; preds = %bb2
  %_7.i.i.i = icmp ugt i128 %0, -18446744073709551617
  %5 = trunc i128 %0 to i64
  %_15.1.i = icmp ne i64 %5, 0
  %_15.0.i = sub i64 0, %5
  %narrow.i = and i1 %_7.i.i.i, %_15.1.i
  br label %bb7

bb7:                                              ; preds = %start, %bb10, %bb8
  %_0.sroa.5.1 = phi i64 [ %_15.0.i, %bb8 ], [ %spec.select, %bb10 ], [ 0, %start ]
  %_0.sroa.0.1.shrunk = phi i1 [ %narrow.i, %bb8 ], [ %_19, %bb10 ], [ true, %start ]
  %_0.sroa.0.1 = zext i1 %_0.sroa.0.1.shrunk to i64
  %6 = insertvalue { i64, i64 } poison, i64 %_0.sroa.0.1, 0
  %7 = insertvalue { i64, i64 } %6, i64 %_0.sroa.5.1, 1
  ret { i64, i64 } %7
}

; <rayon::range::IterProducer<i8> as rayon::iter::plumbing::Producer>::split_at
; Function Attrs: uwtable
define i32 @_RNvXsk_NtCs6I88mZlBn6o_5rayon5rangeINtB5_12IterProduceraENtNtNtB7_4iter8plumbing8Producer8split_at(i8 noundef %self.0, i8 noundef %self.1, i64 noundef %index) unnamed_addr #4 {
start:
  %_19 = icmp slt i8 %self.0, %self.1
  %_25 = sext i8 %self.1 to i64
  %_26 = sext i8 %self.0 to i64
  %_24 = sub nsw i64 %_25, %_26
  %_27.sroa.3.0 = select i1 %_19, i64 %_24, i64 0
  %_3.not = icmp ugt i64 %index, %_27.sroa.3.0
  br i1 %_3.not, label %bb2, label %bb1, !prof !25

bb2:                                              ; preds = %start
; call core::panicking::panic
  tail call void @_RNvNtCsjMrxcFdYDNN_4core9panicking5panic(ptr noalias noundef nonnull readonly align 1 captures(address, read_provenance) @alloc_c9080844985d858ed80bda494d71ce81, i64 noundef 43, ptr noalias noundef readonly align 8 captures(address, read_provenance) dereferenceable(24) @alloc_bc6756181a72a930b0e778b9fa29c157) #22
  unreachable

bb1:                                              ; preds = %start
  %_6 = trunc i64 %index to i8
  %mid = add i8 %self.0, %_6
  %_0.sroa.4.0.insert.ext = zext i8 %self.1 to i32
  %_0.sroa.4.0.insert.shift = shl nuw i32 %_0.sroa.4.0.insert.ext, 24
  %_0.sroa.3.0.insert.ext = zext i8 %mid to i32
  %_0.sroa.3.0.insert.shift = shl nuw nsw i32 %_0.sroa.3.0.insert.ext, 16
  %_0.sroa.3.0.insert.insert = or disjoint i32 %_0.sroa.3.0.insert.shift, %_0.sroa.4.0.insert.shift
  %_0.sroa.2.0.insert.shift = shl nuw nsw i32 %_0.sroa.3.0.insert.ext, 8
  %_0.sroa.2.0.insert.insert = or disjoint i32 %_0.sroa.3.0.insert.insert, %_0.sroa.2.0.insert.shift
  %_0.sroa.0.0.insert.ext = zext i8 %self.0 to i32
  %_0.sroa.0.0.insert.insert = or disjoint i32 %_0.sroa.2.0.insert.insert, %_0.sroa.0.0.insert.ext
  ret i32 %_0.sroa.0.0.insert.insert
}

; <i128 as rayon::range_inclusive::private::RangeInteger>::opt_len
; Function Attrs: mustprogress nofree norecurse nosync nounwind willreturn memory(argmem: read) uwtable
define { i64, i64 } @_RNvXsl_NtCs6I88mZlBn6o_5rayon15range_inclusivenNtNtB5_7private12RangeInteger7opt_len(ptr noalias noundef readonly align 16 captures(none) dereferenceable(48) %iter) unnamed_addr #5 personality ptr @rust_eh_personality {
start:
  %0 = load i128, ptr %iter, align 16, !alias.scope !181, !noalias !184, !noundef !5
  %1 = getelementptr inbounds nuw i8, ptr %iter, i64 16
  %2 = load i128, ptr %1, align 16, !alias.scope !181, !noalias !184, !noundef !5
  %_0.i.not.i = icmp sle i128 %0, %2
  %3 = getelementptr inbounds nuw i8, ptr %iter, i64 32
  %4 = load i8, ptr %3, align 16, !range !34, !alias.scope !181, !noalias !184
  %_3.i2.i = icmp eq i8 %4, 0
  %or.cond.i = select i1 %_0.i.not.i, i1 %_3.i2.i, i1 false
  br i1 %or.cond.i, label %bb2, label %bb7

bb2:                                              ; preds = %start
  %5 = tail call { i128, i1 } @llvm.sadd.with.overflow.i128(i128 %2, i128 1)
  %_15.1 = extractvalue { i128, i1 } %5, 1
  br i1 %_15.1, label %bb8, label %bb10, !prof !25

bb10:                                             ; preds = %bb2
  %_15.0 = extractvalue { i128, i1 } %5, 0
  %_18 = icmp sgt i128 %_15.0, %0
  %_19 = sub i128 %_15.0, %0
  %_17.sroa.0.0 = select i1 %_18, i128 %_19, i128 0
  %_20 = icmp ult i128 %_17.sroa.0.0, 18446744073709551616
  %_21 = trunc nuw i128 %_17.sroa.0.0 to i64
  %spec.select = select i1 %_20, i64 %_21, i64 undef
  br label %bb7

bb8:                                              ; preds = %bb2
  %_6.i.i.i = icmp sgt i128 %2, %0
  %_7.i.i.i = sub i128 %2, %0
  %_3.sroa.0.0.i.i.i = select i1 %_6.i.i.i, i128 %_7.i.i.i, i128 0
  %_8.i.i.i = icmp ult i128 %_3.sroa.0.0.i.i.i, 18446744073709551616
  %_9.i.i.i = trunc nuw i128 %_3.sroa.0.0.i.i.i to i64
  %_15.1.i = icmp ne i64 %_9.i.i.i, -1
  %_15.0.i = add i64 %_9.i.i.i, 1
  %_0.sroa.5.1.i = select i1 %_8.i.i.i, i64 %_15.0.i, i64 undef
  %narrow.i = select i1 %_8.i.i.i, i1 %_15.1.i, i1 false
  br label %bb7

bb7:                                              ; preds = %start, %bb10, %bb8
  %_0.sroa.5.1 = phi i64 [ %_0.sroa.5.1.i, %bb8 ], [ %spec.select, %bb10 ], [ 0, %start ]
  %_0.sroa.0.1.shrunk = phi i1 [ %narrow.i, %bb8 ], [ %_20, %bb10 ], [ true, %start ]
  %_0.sroa.0.1 = zext i1 %_0.sroa.0.1.shrunk to i64
  %6 = insertvalue { i64, i64 } poison, i64 %_0.sroa.0.1, 0
  %7 = insertvalue { i64, i64 } %6, i64 %_0.sroa.5.1, 1
  ret { i64, i64 } %7
}

; <i16 as rayon::range::private::RangeInteger>::opt_len
; Function Attrs: mustprogress nofree norecurse nosync nounwind willreturn memory(argmem: read) uwtable
define { i64, i64 } @_RNvXsl_NtCs6I88mZlBn6o_5rayon5rangesNtNtB5_7private12RangeInteger7opt_len(ptr noalias noundef readonly align 2 captures(none) dereferenceable(4) %iter) unnamed_addr #5 {
start:
  %_10 = load i16, ptr %iter, align 2, !noundef !5
  %0 = getelementptr inbounds nuw i8, ptr %iter, i64 2
  %_11 = load i16, ptr %0, align 2, !noundef !5
  %_9 = icmp slt i16 %_10, %_11
  %_15 = sext i16 %_11 to i64
  %_16 = sext i16 %_10 to i64
  %_14 = sub nsw i64 %_15, %_16
  %_13.sroa.0.0 = select i1 %_9, i64 %_14, i64 0
  %1 = insertvalue { i64, i64 } { i64 1, i64 poison }, i64 %_13.sroa.0.0, 1
  ret { i64, i64 } %1
}

; <i16 as rayon::range::private::IndexedRangeInteger>::len
; Function Attrs: mustprogress nofree norecurse nosync nounwind willreturn memory(argmem: read) uwtable
define noundef range(i64 -65535, 65536) i64 @_RNvXsm_NtCs6I88mZlBn6o_5rayon5rangesNtNtB5_7private19IndexedRangeInteger3len(ptr noalias noundef readonly align 2 captures(none) dereferenceable(4) %iter) unnamed_addr #5 {
start:
  %_11 = load i16, ptr %iter, align 2, !noundef !5
  %0 = getelementptr inbounds nuw i8, ptr %iter, i64 2
  %_12 = load i16, ptr %0, align 2, !noundef !5
  %_10 = icmp slt i16 %_11, %_12
  %_15 = sext i16 %_12 to i64
  %_16 = sext i16 %_11 to i64
  %_14 = sub nsw i64 %_15, %_16
  %_0.sroa.0.0 = select i1 %_10, i64 %_14, i64 0
  ret i64 %_0.sroa.0.0
}

; <rayon::range::IterProducer<i16> as rayon::iter::plumbing::Producer>::split_at
; Function Attrs: uwtable
define i64 @_RNvXsn_NtCs6I88mZlBn6o_5rayon5rangeINtB5_12IterProducersENtNtNtB7_4iter8plumbing8Producer8split_at(i16 noundef %self.0, i16 noundef %self.1, i64 noundef %index) unnamed_addr #4 {
start:
  %_19 = icmp slt i16 %self.0, %self.1
  %_25 = sext i16 %self.1 to i64
  %_26 = sext i16 %self.0 to i64
  %_24 = sub nsw i64 %_25, %_26
  %_27.sroa.3.0 = select i1 %_19, i64 %_24, i64 0
  %_3.not = icmp ugt i64 %index, %_27.sroa.3.0
  br i1 %_3.not, label %bb2, label %bb1, !prof !25

bb2:                                              ; preds = %start
; call core::panicking::panic
  tail call void @_RNvNtCsjMrxcFdYDNN_4core9panicking5panic(ptr noalias noundef nonnull readonly align 1 captures(address, read_provenance) @alloc_c9080844985d858ed80bda494d71ce81, i64 noundef 43, ptr noalias noundef readonly align 8 captures(address, read_provenance) dereferenceable(24) @alloc_37798e3f494c423ba4622acec985238e) #22
  unreachable

bb1:                                              ; preds = %start
  %_6 = trunc i64 %index to i16
  %mid = add i16 %self.0, %_6
  %_0.sroa.4.0.insert.ext = zext i16 %self.1 to i64
  %_0.sroa.4.0.insert.shift = shl nuw i64 %_0.sroa.4.0.insert.ext, 48
  %_0.sroa.3.0.insert.ext = zext i16 %mid to i64
  %_0.sroa.3.0.insert.shift = shl nuw nsw i64 %_0.sroa.3.0.insert.ext, 32
  %_0.sroa.3.0.insert.insert = or disjoint i64 %_0.sroa.3.0.insert.shift, %_0.sroa.4.0.insert.shift
  %_0.sroa.2.0.insert.shift = shl nuw nsw i64 %_0.sroa.3.0.insert.ext, 16
  %_0.sroa.2.0.insert.insert = or disjoint i64 %_0.sroa.3.0.insert.insert, %_0.sroa.2.0.insert.shift
  %_0.sroa.0.0.insert.ext = zext i16 %self.0 to i64
  %_0.sroa.0.0.insert.insert = or disjoint i64 %_0.sroa.2.0.insert.insert, %_0.sroa.0.0.insert.ext
  ret i64 %_0.sroa.0.0.insert.insert
}

; <i32 as rayon::range::private::RangeInteger>::opt_len
; Function Attrs: mustprogress nofree norecurse nosync nounwind willreturn memory(argmem: read) uwtable
define { i64, i64 } @_RNvXso_NtCs6I88mZlBn6o_5rayon5rangelNtNtB5_7private12RangeInteger7opt_len(ptr noalias noundef readonly align 4 captures(none) dereferenceable(8) %iter) unnamed_addr #5 {
start:
  %_10 = load i32, ptr %iter, align 4, !noundef !5
  %0 = getelementptr inbounds nuw i8, ptr %iter, i64 4
  %_11 = load i32, ptr %0, align 4, !noundef !5
  %_9 = icmp slt i32 %_10, %_11
  %_15 = sext i32 %_11 to i64
  %_16 = sext i32 %_10 to i64
  %_14 = sub nsw i64 %_15, %_16
  %_13.sroa.0.0 = select i1 %_9, i64 %_14, i64 0
  %1 = insertvalue { i64, i64 } { i64 1, i64 poison }, i64 %_13.sroa.0.0, 1
  ret { i64, i64 } %1
}

; <rayon::iter::extend::ListStringFolder as rayon::iter::plumbing::Folder<char>>::consume
; Function Attrs: uwtable
define void @_RNvXso_NtNtCs6I88mZlBn6o_5rayon4iter6extendNtB5_16ListStringFolderINtNtB7_8plumbing6FoldercE7consume(ptr dead_on_unwind noalias noundef writable writeonly sret([24 x i8]) align 8 captures(none) dereferenceable(24) %_0, ptr dead_on_return noalias noundef align 8 captures(none) dereferenceable(24) %self, i32 noundef range(i32 0, 1114112) %item) unnamed_addr #4 personality ptr @rust_eh_personality {
start:
  tail call void @llvm.experimental.noalias.scope.decl(metadata !186)
  %0 = getelementptr inbounds nuw i8, ptr %self, i64 16
  %len.i = load i64, ptr %0, align 8, !alias.scope !186, !noundef !5
  %_14.i = icmp sgt i64 %len.i, -1
  tail call void @llvm.assume(i1 %_14.i)
  %_16.i = icmp samesign ult i32 %item, 128
  br i1 %_16.i, label %bb2.i, label %bb3.i

bb3.i:                                            ; preds = %start
  %_17.i = icmp samesign ult i32 %item, 2048
  br i1 %_17.i, label %bb2.i, label %bb4.i

bb4.i:                                            ; preds = %bb3.i
  %_18.i = icmp samesign ult i32 %item, 65536
  %..i = select i1 %_18.i, i64 3, i64 4
  br label %bb2.i

bb2.i:                                            ; preds = %bb4.i, %bb3.i, %start
  %ch_len.sroa.0.0.i = phi i64 [ 1, %start ], [ %..i, %bb4.i ], [ 2, %bb3.i ]
  %self2.i.i = load i64, ptr %self, align 8, !range !9, !alias.scope !189, !noundef !5
  %_9.i.i = sub nsw i64 %self2.i.i, %len.i
  %_7.i.i = icmp ugt i64 %ch_len.sroa.0.0.i, %_9.i.i
  br i1 %_7.i.i, label %bb1.i.i, label %_RNvMs_NtCsdJPVW0sQgAG_5alloc3vecINtB4_3VechE7reserveCs6I88mZlBn6o_5rayon.exit.i, !prof !25

bb1.i.i:                                          ; preds = %bb2.i
; invoke <alloc::raw_vec::RawVecInner<_>>::reserve::do_reserve_and_handle::<alloc::alloc::Global>
  invoke fastcc void @_RINvNvMs2_NtCsdJPVW0sQgAG_5alloc7raw_vecINtB8_11RawVecInnerpE7reserve21do_reserve_and_handleNtNtBa_5alloc6GlobalECs6I88mZlBn6o_5rayon(ptr noalias noundef nonnull align 8 dereferenceable(24) %self, i64 noundef %len.i, i64 noundef range(i64 1, 5) %ch_len.sroa.0.0.i)
          to label %.noexc unwind label %cleanup

.noexc:                                           ; preds = %bb1.i.i
  %count.pre.i = load i64, ptr %0, align 8, !alias.scope !186
  br label %_RNvMs_NtCsdJPVW0sQgAG_5alloc3vecINtB4_3VechE7reserveCs6I88mZlBn6o_5rayon.exit.i

_RNvMs_NtCsdJPVW0sQgAG_5alloc3vecINtB4_3VechE7reserveCs6I88mZlBn6o_5rayon.exit.i: ; preds = %.noexc, %bb2.i
  %count.i = phi i64 [ %len.i, %bb2.i ], [ %count.pre.i, %.noexc ]
  %1 = getelementptr inbounds nuw i8, ptr %self, i64 8
  %_20.i = load ptr, ptr %1, align 8, !alias.scope !186, !nonnull !5, !noundef !5
  %_21.i = icmp sgt i64 %count.i, -1
  tail call void @llvm.assume(i1 %_21.i)
  %_8.i = getelementptr inbounds nuw i8, ptr %_20.i, i64 %count.i
  br i1 %_16.i, label %bb12.i.i, label %bb7.i.i

bb7.i.i:                                          ; preds = %_RNvMs_NtCsdJPVW0sQgAG_5alloc3vecINtB4_3VechE7reserveCs6I88mZlBn6o_5rayon.exit.i
  %_27.i.i = icmp samesign ult i32 %item, 2048
  %2 = trunc i32 %item to i8
  %_5.i.i = and i8 %2, 63
  %last1.i.i = or disjoint i8 %_5.i.i, -128
  %_10.i.i = lshr i32 %item, 6
  %3 = trunc i32 %_10.i.i to i8
  %_8.i.i = and i8 %3, 63
  %last2.i.i = or disjoint i8 %_8.i.i, -128
  %_14.i.i = lshr i32 %item, 12
  %4 = trunc i32 %_14.i.i to i8
  %_12.i.i = and i8 %4, 63
  %last3.i.i = or disjoint i8 %_12.i.i, -128
  %_18.i.i = lshr i32 %item, 18
  %_16.i.i = trunc nuw nsw i32 %_18.i.i to i8
  %last4.i.i = or disjoint i8 %_16.i.i, -16
  br i1 %_27.i.i, label %bb1.i2.i, label %bb2.i.i

bb12.i.i:                                         ; preds = %_RNvMs_NtCsdJPVW0sQgAG_5alloc3vecINtB4_3VechE7reserveCs6I88mZlBn6o_5rayon.exit.i
  %5 = trunc nuw nsw i32 %item to i8
  store i8 %5, ptr %_8.i, align 1, !noalias !186
  br label %bb1

bb1.i2.i:                                         ; preds = %bb7.i.i
  %6 = or disjoint i8 %3, -64
  store i8 %6, ptr %_8.i, align 1, !noalias !186
  %_20.i.i = getelementptr inbounds nuw i8, ptr %_8.i, i64 1
  store i8 %last1.i.i, ptr %_20.i.i, align 1, !noalias !186
  br label %bb1

bb2.i.i:                                          ; preds = %bb7.i.i
  %_28.i.i = icmp samesign ult i32 %item, 65536
  br i1 %_28.i.i, label %bb3.i.i, label %bb4.i.i

bb3.i.i:                                          ; preds = %bb2.i.i
  %7 = or disjoint i8 %4, -32
  store i8 %7, ptr %_8.i, align 1, !noalias !186
  %_21.i.i = getelementptr inbounds nuw i8, ptr %_8.i, i64 1
  store i8 %last2.i.i, ptr %_21.i.i, align 1, !noalias !186
  %_22.i.i = getelementptr inbounds nuw i8, ptr %_8.i, i64 2
  store i8 %last1.i.i, ptr %_22.i.i, align 1, !noalias !186
  br label %bb1

bb4.i.i:                                          ; preds = %bb2.i.i
  store i8 %last4.i.i, ptr %_8.i, align 1, !noalias !186
  %_23.i.i = getelementptr inbounds nuw i8, ptr %_8.i, i64 1
  store i8 %last3.i.i, ptr %_23.i.i, align 1, !noalias !186
  %_24.i.i = getelementptr inbounds nuw i8, ptr %_8.i, i64 2
  store i8 %last2.i.i, ptr %_24.i.i, align 1, !noalias !186
  %_25.i.i = getelementptr inbounds nuw i8, ptr %_8.i, i64 3
  store i8 %last1.i.i, ptr %_25.i.i, align 1, !noalias !186
  br label %bb1

cleanup:                                          ; preds = %bb1.i.i
  %8 = landingpad { ptr, i32 }
          cleanup
  %self.val = load i64, ptr %self, align 8
  %9 = icmp eq i64 %self.val, 0
  br i1 %9, label %bb3, label %_RNvXs_NtCsdJPVW0sQgAG_5alloc5allocNtB4_6GlobalNtNtCsjMrxcFdYDNN_4core5alloc9Allocator10deallocate.exit.i.i.i4.i.i.i

_RNvXs_NtCsdJPVW0sQgAG_5alloc5allocNtB4_6GlobalNtNtCsjMrxcFdYDNN_4core5alloc9Allocator10deallocate.exit.i.i.i4.i.i.i: ; preds = %cleanup
  %10 = getelementptr inbounds nuw i8, ptr %self, i64 8
  %self.val1 = load ptr, ptr %10, align 8, !nonnull !5, !noundef !5
; call __rustc::__rust_dealloc
  tail call void @_RNvCsKhRCbHf33p_7___rustc14___rust_dealloc(ptr noundef nonnull %self.val1, i64 noundef %self.val, i64 noundef range(i64 1, -9223372036854775807) 1) #20
  br label %bb3

bb1:                                              ; preds = %bb4.i.i, %bb3.i.i, %bb1.i2.i, %bb12.i.i
  %new_len.i = add nuw i64 %ch_len.sroa.0.0.i, %len.i
  store i64 %new_len.i, ptr %0, align 8, !alias.scope !186
  tail call void @llvm.memcpy.p0.p0.i64(ptr noundef nonnull align 8 dereferenceable(24) %_0, ptr noundef nonnull align 8 dereferenceable(24) %self, i64 24, i1 false)
  ret void

bb3:                                              ; preds = %_RNvXs_NtCsdJPVW0sQgAG_5alloc5allocNtB4_6GlobalNtNtCsjMrxcFdYDNN_4core5alloc9Allocator10deallocate.exit.i.i.i4.i.i.i, %cleanup
  resume { ptr, i32 } %8
}

; <rayon::iter::extend::ListStringFolder as rayon::iter::plumbing::Folder<char>>::complete
; Function Attrs: uwtable
define void @_RNvXso_NtNtCs6I88mZlBn6o_5rayon4iter6extendNtB5_16ListStringFolderINtNtB7_8plumbing6FoldercE8complete(ptr dead_on_unwind noalias noundef writable writeonly sret([24 x i8]) align 8 captures(none) dereferenceable(24) %_0, ptr dead_on_return noalias noundef readonly align 8 captures(none) dereferenceable(24) %self) unnamed_addr #4 personality ptr @rust_eh_personality {
start:
  %list = alloca [24 x i8], align 8
  call void @llvm.lifetime.start.p0(i64 24, ptr nonnull %list)
  %0 = getelementptr inbounds nuw i8, ptr %list, i64 8
  %1 = getelementptr inbounds nuw i8, ptr %list, i64 16
  %2 = getelementptr inbounds nuw i8, ptr %self, i64 16
  call void @llvm.memset.p0.i64(ptr noundef nonnull align 8 dereferenceable(24) %list, i8 0, i64 24, i1 false)
  %_6 = load i64, ptr %2, align 8, !noundef !5
  %_7 = icmp sgt i64 %_6, -1
  tail call void @llvm.assume(i1 %_7)
  %3 = icmp eq i64 %_6, 0
  br i1 %3, label %bb1, label %bb2

bb1:                                              ; preds = %start
  tail call void @llvm.memset.p0.i64(ptr noundef nonnull align 8 dereferenceable(24) %_0, i8 0, i64 24, i1 false)
  call void @llvm.lifetime.end.p0(i64 24, ptr nonnull %list)
  %self.val = load i64, ptr %self, align 8
  %4 = icmp eq i64 %self.val, 0
  br i1 %4, label %bb5, label %_RNvXs_NtCsdJPVW0sQgAG_5alloc5allocNtB4_6GlobalNtNtCsjMrxcFdYDNN_4core5alloc9Allocator10deallocate.exit.i.i.i4.i.i

_RNvXs_NtCsdJPVW0sQgAG_5alloc5allocNtB4_6GlobalNtNtCsjMrxcFdYDNN_4core5alloc9Allocator10deallocate.exit.i.i.i4.i.i: ; preds = %bb1
  %5 = getelementptr inbounds nuw i8, ptr %self, i64 8
  %self.val1 = load ptr, ptr %5, align 8, !nonnull !5, !noundef !5
; call __rustc::__rust_dealloc
  tail call void @_RNvCsKhRCbHf33p_7___rustc14___rust_dealloc(ptr noundef nonnull %self.val1, i64 noundef %self.val, i64 noundef range(i64 1, -9223372036854775807) 1) #20
  br label %bb5

bb2:                                              ; preds = %start
  %_4.sroa.0.0.copyload = load i64, ptr %self, align 8
  %_4.sroa.4.0.self.sroa_idx = getelementptr inbounds nuw i8, ptr %self, i64 8
  %_4.sroa.4.0.copyload = load ptr, ptr %_4.sroa.4.0.self.sroa_idx, align 8
  tail call void @llvm.experimental.noalias.scope.decl(metadata !192)
; call __rustc::__rust_no_alloc_shim_is_unstable_v2
  tail call void @_RNvCsKhRCbHf33p_7___rustc35___rust_no_alloc_shim_is_unstable_v2() #20, !noalias !195
; call __rustc::__rust_alloc
  %6 = tail call noundef align 8 dereferenceable_or_null(40) ptr @_RNvCsKhRCbHf33p_7___rustc12___rust_alloc(i64 noundef 40, i64 noundef range(i64 1, -9223372036854775807) 8) #20, !noalias !195
  %7 = icmp eq ptr %6, null
  br i1 %7, label %bb3.i.i.i, label %bb8, !prof !25

bb3.i.i.i:                                        ; preds = %bb2
; invoke alloc::alloc::handle_alloc_error
  invoke void @_RNvNtCsdJPVW0sQgAG_5alloc5alloc18handle_alloc_error(i64 noundef 8, i64 noundef 40) #21
          to label %.noexc.i.i unwind label %cleanup.i.i, !noalias !204

.noexc.i.i:                                       ; preds = %bb3.i.i.i
  unreachable

cleanup.i.i:                                      ; preds = %bb3.i.i.i
  %8 = landingpad { ptr, i32 }
          cleanup
  %9 = icmp eq i64 %_4.sroa.0.0.copyload, 0
  br i1 %9, label %cleanup.body, label %_RNvXs_NtCsdJPVW0sQgAG_5alloc5allocNtB4_6GlobalNtNtCsjMrxcFdYDNN_4core5alloc9Allocator10deallocate.exit.i.i.i4.i.i.i.i.i

_RNvXs_NtCsdJPVW0sQgAG_5alloc5allocNtB4_6GlobalNtNtCsjMrxcFdYDNN_4core5alloc9Allocator10deallocate.exit.i.i.i4.i.i.i.i.i: ; preds = %cleanup.i.i
  %10 = icmp ne ptr %_4.sroa.4.0.copyload, null
  tail call void @llvm.assume(i1 %10)
; call __rustc::__rust_dealloc
  tail call void @_RNvCsKhRCbHf33p_7___rustc14___rust_dealloc(ptr noundef nonnull %_4.sroa.4.0.copyload, i64 noundef %_4.sroa.0.0.copyload, i64 noundef range(i64 1, -9223372036854775807) 1) #20, !noalias !204
  br label %cleanup.body

bb5:                                              ; preds = %_RNvXs_NtCsdJPVW0sQgAG_5alloc5allocNtB4_6GlobalNtNtCsjMrxcFdYDNN_4core5alloc9Allocator10deallocate.exit.i.i.i4.i.i, %bb1, %bb8
  ret void

cleanup.body:                                     ; preds = %cleanup.i.i, %_RNvXs_NtCsdJPVW0sQgAG_5alloc5allocNtB4_6GlobalNtNtCsjMrxcFdYDNN_4core5alloc9Allocator10deallocate.exit.i.i.i4.i.i.i.i.i
; call core::ptr::drop_in_place::<alloc::collections::linked_list::LinkedList<alloc::string::String>>
  call fastcc void @_RINvNtCsjMrxcFdYDNN_4core3ptr13drop_in_placeINtNtNtCsdJPVW0sQgAG_5alloc11collections11linked_list10LinkedListNtNtBN_6string6StringEECs6I88mZlBn6o_5rayon(ptr noalias noundef align 8 dereferenceable(24) %list) #23
  resume { ptr, i32 } %8

bb8:                                              ; preds = %bb2
  store i64 %_4.sroa.0.0.copyload, ptr %6, align 8, !noalias !205
  %_4.sroa.5.0..sroa_idx.i = getelementptr inbounds nuw i8, ptr %6, i64 8
  store ptr %_4.sroa.4.0.copyload, ptr %_4.sroa.5.0..sroa_idx.i, align 8, !noalias !205
  %_4.sroa.6.0..sroa_idx.i = getelementptr inbounds nuw i8, ptr %6, i64 16
  store i64 %_6, ptr %_4.sroa.6.0..sroa_idx.i, align 8, !noalias !205
  %_4.sroa.64.0..sroa_idx.i = getelementptr inbounds nuw i8, ptr %6, i64 24
  tail call void @llvm.memset.p0.i64(ptr noundef nonnull align 8 dereferenceable(16) %_4.sroa.64.0..sroa_idx.i, i8 0, i64 16, i1 false)
  store ptr %6, ptr %list, align 8, !alias.scope !192, !noalias !206
  store ptr %6, ptr %0, align 8, !alias.scope !192, !noalias !206
  store i64 1, ptr %1, align 8, !alias.scope !192, !noalias !206
  call void @llvm.memcpy.p0.p0.i64(ptr noundef nonnull align 8 dereferenceable(24) %_0, ptr noundef nonnull align 8 dereferenceable(24) %list, i64 24, i1 false)
  call void @llvm.lifetime.end.p0(i64 24, ptr nonnull %list)
  br label %bb5
}

; <i32 as rayon::range::private::IndexedRangeInteger>::len
; Function Attrs: mustprogress nofree norecurse nosync nounwind willreturn memory(argmem: read) uwtable
define noundef range(i64 -4294967295, 4294967296) i64 @_RNvXsp_NtCs6I88mZlBn6o_5rayon5rangelNtNtB5_7private19IndexedRangeInteger3len(ptr noalias noundef readonly align 4 captures(none) dereferenceable(8) %iter) unnamed_addr #5 {
start:
  %_11 = load i32, ptr %iter, align 4, !noundef !5
  %0 = getelementptr inbounds nuw i8, ptr %iter, i64 4
  %_12 = load i32, ptr %0, align 4, !noundef !5
  %_10 = icmp slt i32 %_11, %_12
  %_15 = sext i32 %_12 to i64
  %_16 = sext i32 %_11 to i64
  %_14 = sub nsw i64 %_15, %_16
  %_0.sroa.0.0 = select i1 %_10, i64 %_14, i64 0
  ret i64 %_0.sroa.0.0
}

; <rayon::range::IterProducer<i32> as rayon::iter::plumbing::Producer>::split_at
; Function Attrs: uwtable
define void @_RNvXsq_NtCs6I88mZlBn6o_5rayon5rangeINtB5_12IterProducerlENtNtNtB7_4iter8plumbing8Producer8split_at(ptr dead_on_unwind noalias noundef writable writeonly sret([16 x i8]) align 4 captures(none) dereferenceable(16) %_0, i32 noundef %self.0, i32 noundef %self.1, i64 noundef %index) unnamed_addr #4 {
start:
  %_19 = icmp slt i32 %self.0, %self.1
  %_25 = sext i32 %self.1 to i64
  %_26 = sext i32 %self.0 to i64
  %_24 = sub nsw i64 %_25, %_26
  %_23.sroa.0.0 = select i1 %_19, i64 %_24, i64 0
  %_3.not = icmp ugt i64 %index, %_23.sroa.0.0
  br i1 %_3.not, label %bb2, label %bb1, !prof !25

bb2:                                              ; preds = %start
; call core::panicking::panic
  tail call void @_RNvNtCsjMrxcFdYDNN_4core9panicking5panic(ptr noalias noundef nonnull readonly align 1 captures(address, read_provenance) @alloc_c9080844985d858ed80bda494d71ce81, i64 noundef 43, ptr noalias noundef readonly align 8 captures(address, read_provenance) dereferenceable(24) @alloc_0abcb9bc779d66a14164e6baef4d2566) #22
  unreachable

bb1:                                              ; preds = %start
  %_6 = trunc i64 %index to i32
  %mid = add i32 %self.0, %_6
  store i32 %self.0, ptr %_0, align 4
  %0 = getelementptr inbounds nuw i8, ptr %_0, i64 4
  store i32 %mid, ptr %0, align 4
  %1 = getelementptr inbounds nuw i8, ptr %_0, i64 8
  store i32 %mid, ptr %1, align 4
  %2 = getelementptr inbounds nuw i8, ptr %_0, i64 12
  store i32 %self.1, ptr %2, align 4
  ret void
}

; <isize as rayon::range::private::RangeInteger>::opt_len
; Function Attrs: mustprogress nofree norecurse nosync nounwind willreturn memory(argmem: read) uwtable
define { i64, i64 } @_RNvXsr_NtCs6I88mZlBn6o_5rayon5rangeiNtNtB5_7private12RangeInteger7opt_len(ptr noalias noundef readonly align 8 captures(none) dereferenceable(16) %iter) unnamed_addr #5 {
start:
  %_10 = load i64, ptr %iter, align 8, !noundef !5
  %0 = getelementptr inbounds nuw i8, ptr %iter, i64 8
  %_11 = load i64, ptr %0, align 8, !noundef !5
  %_9 = icmp slt i64 %_10, %_11
  %_14 = sub i64 %_11, %_10
  %_13.sroa.0.0 = select i1 %_9, i64 %_14, i64 0
  %1 = insertvalue { i64, i64 } { i64 1, i64 poison }, i64 %_13.sroa.0.0, 1
  ret { i64, i64 } %1
}

; <isize as rayon::range::private::IndexedRangeInteger>::len
; Function Attrs: mustprogress nofree norecurse nosync nounwind willreturn memory(argmem: read) uwtable
define noundef i64 @_RNvXss_NtCs6I88mZlBn6o_5rayon5rangeiNtNtB5_7private19IndexedRangeInteger3len(ptr noalias noundef readonly align 8 captures(none) dereferenceable(16) %iter) unnamed_addr #5 {
start:
  %_11 = load i64, ptr %iter, align 8, !noundef !5
  %0 = getelementptr inbounds nuw i8, ptr %iter, i64 8
  %_12 = load i64, ptr %0, align 8, !noundef !5
  %_10 = icmp slt i64 %_11, %_12
  %_14 = sub i64 %_12, %_11
  %_0.sroa.0.0 = select i1 %_10, i64 %_14, i64 0
  ret i64 %_0.sroa.0.0
}

; <rayon::range::IterProducer<isize> as rayon::iter::plumbing::Producer>::split_at
; Function Attrs: uwtable
define void @_RNvXst_NtCs6I88mZlBn6o_5rayon5rangeINtB5_12IterProduceriENtNtNtB7_4iter8plumbing8Producer8split_at(ptr dead_on_unwind noalias noundef writable writeonly sret([32 x i8]) align 8 captures(none) dereferenceable(32) %_0, i64 noundef %self.0, i64 noundef %self.1, i64 noundef %index) unnamed_addr #4 {
start:
  %_19 = icmp slt i64 %self.0, %self.1
  %_24 = sub i64 %self.1, %self.0
  %_23.sroa.0.0 = select i1 %_19, i64 %_24, i64 0
  %_3.not = icmp ugt i64 %index, %_23.sroa.0.0
  br i1 %_3.not, label %bb2, label %bb1, !prof !25

bb2:                                              ; preds = %start
; call core::panicking::panic
  tail call void @_RNvNtCsjMrxcFdYDNN_4core9panicking5panic(ptr noalias noundef nonnull readonly align 1 captures(address, read_provenance) @alloc_c9080844985d858ed80bda494d71ce81, i64 noundef 43, ptr noalias noundef readonly align 8 captures(address, read_provenance) dereferenceable(24) @alloc_a7cf2825a395ae4fecdac4d03227bc65) #22
  unreachable

bb1:                                              ; preds = %start
  %mid = add i64 %index, %self.0
  store i64 %self.0, ptr %_0, align 8
  %0 = getelementptr inbounds nuw i8, ptr %_0, i64 8
  store i64 %mid, ptr %0, align 8
  %1 = getelementptr inbounds nuw i8, ptr %_0, i64 16
  store i64 %mid, ptr %1, align 8
  %2 = getelementptr inbounds nuw i8, ptr %_0, i64 24
  store i64 %self.1, ptr %2, align 8
  ret void
}

; Function Attrs: mustprogress nocallback nofree nosync nounwind willreturn memory(inaccessiblemem: write)
declare void @llvm.assume(i1 noundef) #7

; Function Attrs: mustprogress nocallback nofree nosync nounwind willreturn memory(argmem: readwrite)
declare void @llvm.lifetime.start.p0(i64 immarg, ptr captures(none)) #8

; core::panicking::panic
; Function Attrs: cold noinline noreturn uwtable
declare void @_RNvNtCsjMrxcFdYDNN_4core9panicking5panic(ptr noalias noundef nonnull readonly align 1 captures(address, read_provenance), i64 noundef, ptr noalias noundef readonly align 8 captures(address, read_provenance) dereferenceable(24)) unnamed_addr #9

; Function Attrs: mustprogress nocallback nofree nosync nounwind willreturn memory(argmem: readwrite)
declare void @llvm.lifetime.end.p0(i64 immarg, ptr captures(none)) #8

; Function Attrs: nounwind uwtable
declare noundef range(i32 0, 10) i32 @rust_eh_personality(i32 noundef, i32 noundef, i64 noundef, ptr noundef, ptr noundef) unnamed_addr #0

; <alloc::string::Drain as core::ops::drop::Drop>::drop
; Function Attrs: uwtable
declare void @_RNvXs18_NtCsdJPVW0sQgAG_5alloc6stringNtB6_5DrainNtNtNtCsjMrxcFdYDNN_4core3ops4drop4Drop4drop(ptr noalias noundef align 8 dereferenceable(40)) unnamed_addr #4

; core::slice::index::slice_index_fail
; Function Attrs: cold noinline noreturn uwtable
declare void @_RNvNtNtCsjMrxcFdYDNN_4core5slice5index16slice_index_fail(i64 noundef, i64 noundef, i64 noundef, ptr noalias noundef readonly align 8 captures(address, read_provenance) dereferenceable(24)) unnamed_addr #9

; alloc::raw_vec::handle_error
; Function Attrs: cold minsize noreturn optsize uwtable
declare void @_RNvNtCsdJPVW0sQgAG_5alloc7raw_vec12handle_error(i64 noundef range(i64 0, -9223372036854775807), i64) unnamed_addr #10

; Function Attrs: mustprogress nocallback nofree nounwind willreturn memory(argmem: readwrite)
declare void @llvm.memcpy.p0.p0.i64(ptr noalias writeonly captures(none), ptr noalias readonly captures(none), i64, i1 immarg) #11

; __rustc::__rust_dealloc
; Function Attrs: nounwind allockind("free") uwtable
declare void @_RNvCsKhRCbHf33p_7___rustc14___rust_dealloc(ptr allocptr noundef, i64 noundef, i64 noundef) unnamed_addr #12

; __rustc::__rust_realloc
; Function Attrs: nounwind allockind("realloc,aligned") allocsize(3) uwtable
declare noalias noundef ptr @_RNvCsKhRCbHf33p_7___rustc14___rust_realloc(ptr allocptr noundef, i64 noundef, i64 allocalign noundef, i64 noundef) unnamed_addr #13

; __rustc::__rust_no_alloc_shim_is_unstable_v2
; Function Attrs: nounwind uwtable
declare void @_RNvCsKhRCbHf33p_7___rustc35___rust_no_alloc_shim_is_unstable_v2() unnamed_addr #0

; __rustc::__rust_alloc
; Function Attrs: nounwind allockind("alloc,uninitialized,aligned") allocsize(0) uwtable
declare noalias noundef ptr @_RNvCsKhRCbHf33p_7___rustc12___rust_alloc(i64 noundef, i64 allocalign noundef) unnamed_addr #14

; alloc::alloc::handle_alloc_error
; Function Attrs: cold minsize noreturn optsize uwtable
declare void @_RNvNtCsdJPVW0sQgAG_5alloc5alloc18handle_alloc_error(i64 noundef range(i64 1, -9223372036854775807), i64 noundef) unnamed_addr #10

; core::str::slice_error_fail
; Function Attrs: cold noinline noreturn uwtable
declare void @_RNvNtCsjMrxcFdYDNN_4core3str16slice_error_fail(ptr noalias noundef nonnull readonly align 1 captures(address, read_provenance), i64 noundef, i64 noundef, i64 noundef, ptr noalias noundef readonly align 8 captures(address, read_provenance) dereferenceable(24)) unnamed_addr #9

; core::panicking::assert_failed::<core::option::Option<usize>, core::option::Option<usize>>
; Function Attrs: cold minsize noinline noreturn optsize uwtable
declare void @_RINvNtCsjMrxcFdYDNN_4core9panicking13assert_failedINtNtB4_6option6OptionjEBM_EB4_(i8 noundef range(i8 0, 3), ptr noalias noundef readonly align 8 captures(address, read_provenance) dereferenceable(16), ptr noalias noundef readonly align 8 captures(address, read_provenance) dereferenceable(16), ptr noundef, ptr, ptr noalias noundef readonly align 8 captures(address, read_provenance) dereferenceable(24)) unnamed_addr #15

; Function Attrs: mustprogress nocallback nofree nosync nounwind speculatable willreturn memory(none)
declare { i8, i1 } @llvm.sadd.with.overflow.i8(i8, i8) #16

; Function Attrs: mustprogress nocallback nofree nosync nounwind speculatable willreturn memory(none)
declare { i16, i1 } @llvm.sadd.with.overflow.i16(i16, i16) #16

; Function Attrs: mustprogress nocallback nofree nosync nounwind speculatable willreturn memory(none)
declare i64 @llvm.uadd.sat.i64(i64, i64) #16

; Function Attrs: mustprogress nocallback nofree nosync nounwind speculatable willreturn memory(none)
declare { i64, i1 } @llvm.sadd.with.overflow.i64(i64, i64) #16

; Function Attrs: mustprogress nocallback nofree nosync nounwind speculatable willreturn memory(none)
declare { i32, i1 } @llvm.sadd.with.overflow.i32(i32, i32) #16

; Function Attrs: mustprogress nocallback nofree nosync nounwind speculatable willreturn memory(none)
declare { i128, i1 } @llvm.sadd.with.overflow.i128(i128, i128) #16

; Function Attrs: nocallback nofree nosync nounwind willreturn memory(inaccessiblemem: readwrite)
declare void @llvm.experimental.noalias.scope.decl(metadata) #17

; Function Attrs: nocallback nofree nosync nounwind speculatable willreturn memory(none)
declare i8 @llvm.usub.sat.i8(i8, i8) #18

; Function Attrs: nocallback nofree nosync nounwind speculatable willreturn memory(none)
declare i16 @llvm.usub.sat.i16(i16, i16) #18

; Function Attrs: nocallback nofree nosync nounwind speculatable willreturn memory(none)
declare i32 @llvm.usub.sat.i32(i32, i32) #18

; Function Attrs: nocallback nofree nosync nounwind speculatable willreturn memory(none)
declare i64 @llvm.usub.sat.i64(i64, i64) #18

; Function Attrs: nocallback nofree nosync nounwind speculatable willreturn memory(none)
declare i128 @llvm.usub.sat.i128(i128, i128) #18

; Function Attrs: nocallback nofree nosync nounwind speculatable willreturn memory(none)
declare i64 @llvm.umax.i64(i64, i64) #18

; Function Attrs: nocallback nofree nounwind willreturn memory(argmem: write)
declare void @llvm.memset.p0.i64(ptr writeonly captures(none), i8, i64, i1 immarg) #19

attributes #0 = { nounwind uwtable "frame-pointer"="non-leaf" "probe-stack"="inline-asm" "target-cpu"="apple-m1" }
attributes #1 = { cold uwtable "frame-pointer"="non-leaf" "probe-stack"="inline-asm" "target-cpu"="apple-m1" }
attributes #2 = { cold nounwind uwtable "frame-pointer"="non-leaf" "probe-stack"="inline-asm" "target-cpu"="apple-m1" }
attributes #3 = { nofree norecurse nounwind memory(argmem: readwrite) uwtable "frame-pointer"="non-leaf" "probe-stack"="inline-asm" "target-cpu"="apple-m1" }
attributes #4 = { uwtable "frame-pointer"="non-leaf" "probe-stack"="inline-asm" "target-cpu"="apple-m1" }
attributes #5 = { mustprogress nofree norecurse nosync nounwind willreturn memory(argmem: read) uwtable "frame-pointer"="non-leaf" "probe-stack"="inline-asm" "target-cpu"="apple-m1" }
attributes #6 = { mustprogress nofree norecurse nosync nounwind willreturn memory(argmem: read, inaccessiblemem: readwrite) uwtable "frame-pointer"="non-leaf" "probe-stack"="inline-asm" "target-cpu"="apple-m1" }
attributes #7 = { mustprogress nocallback nofree nosync nounwind willreturn memory(inaccessiblemem: write) }
attributes #8 = { mustprogress nocallback nofree nosync nounwind willreturn memory(argmem: readwrite) }
attributes #9 = { cold noinline noreturn uwtable "frame-pointer"="non-leaf" "probe-stack"="inline-asm" "target-cpu"="apple-m1" }
attributes #10 = { cold minsize noreturn optsize uwtable "frame-pointer"="non-leaf" "probe-stack"="inline-asm" "target-cpu"="apple-m1" }
attributes #11 = { mustprogress nocallback nofree nounwind willreturn memory(argmem: readwrite) }
attributes #12 = { nounwind allockind("free") uwtable "alloc-family"="__rust_alloc" "frame-pointer"="non-leaf" "probe-stack"="inline-asm" "target-cpu"="apple-m1" }
attributes #13 = { nounwind allockind("realloc,aligned") allocsize(3) uwtable "alloc-family"="__rust_alloc" "frame-pointer"="non-leaf" "probe-stack"="inline-asm" "target-cpu"="apple-m1" }
attributes #14 = { nounwind allockind("alloc,uninitialized,aligned") allocsize(0) uwtable "alloc-family"="__rust_alloc" "alloc-variant-zeroed"="_RNvCsKhRCbHf33p_7___rustc19___rust_alloc_zeroed" "frame-pointer"="non-leaf" "probe-stack"="inline-asm" "target-cpu"="apple-m1" }
attributes #15 = { cold minsize noinline noreturn optsize uwtable "frame-pointer"="non-leaf" "probe-stack"="inline-asm" "target-cpu"="apple-m1" }
attributes #16 = { mustprogress nocallback nofree nosync nounwind speculatable willreturn memory(none) }
attributes #17 = { nocallback nofree nosync nounwind willreturn memory(inaccessiblemem: readwrite) }
attributes #18 = { nocallback nofree nosync nounwind speculatable willreturn memory(none) }
attributes #19 = { nocallback nofree nounwind willreturn memory(argmem: write) }
attributes #20 = { nounwind }
attributes #21 = { noreturn }
attributes #22 = { noinline noreturn }
attributes #23 = { cold }

!llvm.module.flags = !{!0}
!llvm.ident = !{!1}

!0 = !{i32 8, !"PIC Level", i32 2}
!1 = !{!"rustc version 1.95.0-nightly (39052daf9 2026-01-22)"}
!2 = !{!3}
!3 = distinct !{!3, !4, !"_RNvXs7_NtNtCsdJPVW0sQgAG_5alloc11collections11linked_listINtB5_10LinkedListNtNtB9_6string6StringENtNtNtCsjMrxcFdYDNN_4core3ops4drop4Drop4dropCs6I88mZlBn6o_5rayon: %self"}
!4 = distinct !{!4, !"_RNvXs7_NtNtCsdJPVW0sQgAG_5alloc11collections11linked_listINtB5_10LinkedListNtNtB9_6string6StringENtNtNtCsjMrxcFdYDNN_4core3ops4drop4Drop4dropCs6I88mZlBn6o_5rayon"}
!5 = !{}
!6 = !{!7}
!7 = distinct !{!7, !8, !"_RNvMs4_NtCsdJPVW0sQgAG_5alloc7raw_vecNtB5_11RawVecInner14grow_amortizedCs6I88mZlBn6o_5rayon: %self"}
!8 = distinct !{!8, !"_RNvMs4_NtCsdJPVW0sQgAG_5alloc7raw_vecNtB5_11RawVecInner14grow_amortizedCs6I88mZlBn6o_5rayon"}
!9 = !{i64 0, i64 -9223372036854775808}
!10 = !{i64 0, i64 2}
!11 = !{i64 0, i64 -9223372036854775807}
!12 = !{!"branch_weights", i32 2000, i32 6004}
!13 = !{i64 8}
!14 = !{!15}
!15 = distinct !{!15, !16, !"_RNvXs7_NtNtCsjMrxcFdYDNN_4core5clone5implsjNtB7_5Clone5clone: %self"}
!16 = distinct !{!16, !"_RNvXs7_NtNtCsjMrxcFdYDNN_4core5clone5implsjNtB7_5Clone5clone"}
!17 = !{!18}
!18 = distinct !{!18, !19, !"_RNvXs7_NtNtCsjMrxcFdYDNN_4core5clone5implsjNtB7_5Clone5clone: %self"}
!19 = distinct !{!19, !"_RNvXs7_NtNtCsjMrxcFdYDNN_4core5clone5implsjNtB7_5Clone5clone"}
!20 = !{!21}
!21 = distinct !{!21, !22, !"_RINvMNtCsdJPVW0sQgAG_5alloc6stringNtB3_6String5drainINtNtNtCsjMrxcFdYDNN_4core3ops5range5RangejEECs6I88mZlBn6o_5rayon: %_0"}
!22 = distinct !{!22, !"_RINvMNtCsdJPVW0sQgAG_5alloc6stringNtB3_6String5drainINtNtNtCsjMrxcFdYDNN_4core3ops5range5RangejEECs6I88mZlBn6o_5rayon"}
!23 = !{!24}
!24 = distinct !{!24, !22, !"_RINvMNtCsdJPVW0sQgAG_5alloc6stringNtB3_6String5drainINtNtNtCsjMrxcFdYDNN_4core3ops5range5RangejEECs6I88mZlBn6o_5rayon: %self"}
!25 = !{!"branch_weights", !"expected", i32 1, i32 2000}
!26 = !{!21, !24}
!27 = !{!"branch_weights", !"expected", i32 2000, i32 1}
!28 = !{i32 0, i32 1114112}
!29 = !{!30, !32}
!30 = distinct !{!30, !31, !"_RNvMNtCs6I88mZlBn6o_5rayon15range_inclusiveINtB2_4ItercE6boundsB4_: %self"}
!31 = distinct !{!31, !"_RNvMNtCs6I88mZlBn6o_5rayon15range_inclusiveINtB2_4ItercE6boundsB4_"}
!32 = distinct !{!32, !33, !"_RNvXs3_NtCs6I88mZlBn6o_5rayon15range_inclusiveINtB5_4ItercENtNtB7_4iter23IndexedParallelIterator3len: %self"}
!33 = distinct !{!33, !"_RNvXs3_NtCs6I88mZlBn6o_5rayon15range_inclusiveINtB5_4ItercENtNtB7_4iter23IndexedParallelIterator3len"}
!34 = !{i8 0, i8 2}
!35 = !{!36}
!36 = distinct !{!36, !37, !"_RNvMNtCs6I88mZlBn6o_5rayon15range_inclusiveINtB2_4ItercE6boundsB4_: %self"}
!37 = distinct !{!37, !"_RNvMNtCs6I88mZlBn6o_5rayon15range_inclusiveINtB2_4ItercE6boundsB4_"}
!38 = !{!39}
!39 = distinct !{!39, !40, !"_RNvNtCs6I88mZlBn6o_5rayon3str18find_char_midpoint: %chars.0"}
!40 = distinct !{!40, !"_RNvNtCs6I88mZlBn6o_5rayon3str18find_char_midpoint"}
!41 = !{!42, !44}
!42 = distinct !{!42, !43, !"_RINvYINtNtNtCsjMrxcFdYDNN_4core5slice4iter4IterhENtNtNtNtBa_4iter6traits8iterator8Iterator8try_folduNCINvNtNtBR_8adapters6copied13copy_try_foldhuINtNtNtBa_3ops12control_flow11ControlFlowjENCINvNvBL_8position5checkhNvNtCs6I88mZlBn6o_5rayon3str16is_char_boundaryE0E0B2j_EB3u_: %self"}
!43 = distinct !{!43, !"_RINvYINtNtNtCsjMrxcFdYDNN_4core5slice4iter4IterhENtNtNtNtBa_4iter6traits8iterator8Iterator8try_folduNCINvNtNtBR_8adapters6copied13copy_try_foldhuINtNtNtBa_3ops12control_flow11ControlFlowjENCINvNvBL_8position5checkhNvNtCs6I88mZlBn6o_5rayon3str16is_char_boundaryE0E0B2j_EB3u_"}
!44 = distinct !{!44, !43, !"_RINvYINtNtNtCsjMrxcFdYDNN_4core5slice4iter4IterhENtNtNtNtBa_4iter6traits8iterator8Iterator8try_folduNCINvNtNtBR_8adapters6copied13copy_try_foldhuINtNtNtBa_3ops12control_flow11ControlFlowjENCINvNvBL_8position5checkhNvNtCs6I88mZlBn6o_5rayon3str16is_char_boundaryE0E0B2j_EB3u_: argument 1"}
!45 = !{!46, !48, !50}
!46 = distinct !{!46, !47, !"_RINvYINtNtNtCsjMrxcFdYDNN_4core5slice4iter4IterhENtNtNtNtBa_4iter6traits12double_ended19DoubleEndedIterator9try_rfoldjNCINvNtNtBR_8adapters6copied13copy_try_foldhjINtNtNtBa_3ops12control_flow11ControlFlowjjENCINvNvNtNtBP_8iterator8Iterator9rposition5checkhNvNtCs6I88mZlBn6o_5rayon3str16is_char_boundaryE0E0B2B_EB4a_: %self"}
!47 = distinct !{!47, !"_RINvYINtNtNtCsjMrxcFdYDNN_4core5slice4iter4IterhENtNtNtNtBa_4iter6traits12double_ended19DoubleEndedIterator9try_rfoldjNCINvNtNtBR_8adapters6copied13copy_try_foldhjINtNtNtBa_3ops12control_flow11ControlFlowjjENCINvNvNtNtBP_8iterator8Iterator9rposition5checkhNvNtCs6I88mZlBn6o_5rayon3str16is_char_boundaryE0E0B2B_EB4a_"}
!48 = distinct !{!48, !49, !"_RINvXs0_NtNtNtCsjMrxcFdYDNN_4core4iter8adapters6copiedINtB6_6CopiedINtNtNtBc_5slice4iter4IterhEENtNtNtBa_6traits12double_ended19DoubleEndedIterator9try_rfoldjNCINvNvNtNtB1A_8iterator8Iterator9rposition5checkhNvNtCs6I88mZlBn6o_5rayon3str16is_char_boundaryE0INtNtNtBc_3ops12control_flow11ControlFlowjjEEB3o_: %self"}
!49 = distinct !{!49, !"_RINvXs0_NtNtNtCsjMrxcFdYDNN_4core4iter8adapters6copiedINtB6_6CopiedINtNtNtBc_5slice4iter4IterhEENtNtNtBa_6traits12double_ended19DoubleEndedIterator9try_rfoldjNCINvNvNtNtB1A_8iterator8Iterator9rposition5checkhNvNtCs6I88mZlBn6o_5rayon3str16is_char_boundaryE0INtNtNtBc_3ops12control_flow11ControlFlowjjEEB3o_"}
!50 = distinct !{!50, !51, !"_RINvYINtNtNtNtCsjMrxcFdYDNN_4core4iter8adapters6copied6CopiedINtNtNtBc_5slice4iter4IterhEENtNtNtBa_6traits8iterator8Iterator9rpositionNvNtCs6I88mZlBn6o_5rayon3str16is_char_boundaryEB2c_: %self"}
!51 = distinct !{!51, !"_RINvYINtNtNtNtCsjMrxcFdYDNN_4core4iter8adapters6copied6CopiedINtNtNtBc_5slice4iter4IterhEENtNtNtBa_6traits8iterator8Iterator9rpositionNvNtCs6I88mZlBn6o_5rayon3str16is_char_boundaryEB2c_"}
!52 = !{!53}
!53 = distinct !{!53, !54, !"_RNvMNtCsjMrxcFdYDNN_4core3stre16split_at_checked: %self.0"}
!54 = distinct !{!54, !"_RNvMNtCsjMrxcFdYDNN_4core3stre16split_at_checked"}
!55 = !{!56}
!56 = distinct !{!56, !54, !"_RNvMNtCsjMrxcFdYDNN_4core3stre16split_at_checked: %_0"}
!57 = !{!58}
!58 = distinct !{!58, !59, !"_RNvXsd_NtNtCsjMrxcFdYDNN_4core4iter5rangeINtNtNtB9_3ops5range14RangeInclusivehENtNtNtB7_6traits8iterator8Iterator9size_hintCs6I88mZlBn6o_5rayon: %self"}
!59 = distinct !{!59, !"_RNvXsd_NtNtCsjMrxcFdYDNN_4core4iter5rangeINtNtNtB9_3ops5range14RangeInclusivehENtNtNtB7_6traits8iterator8Iterator9size_hintCs6I88mZlBn6o_5rayon"}
!60 = !{!61}
!61 = distinct !{!61, !59, !"_RNvXsd_NtNtCsjMrxcFdYDNN_4core4iter5rangeINtNtNtB9_3ops5range14RangeInclusivehENtNtNtB7_6traits8iterator8Iterator9size_hintCs6I88mZlBn6o_5rayon: %_0"}
!62 = !{!63}
!63 = distinct !{!63, !64, !"_RNvXsW_NtNtCsjMrxcFdYDNN_4core3cmp5implshNtB7_10PartialOrd2le: %self"}
!64 = distinct !{!64, !"_RNvXsW_NtNtCsjMrxcFdYDNN_4core3cmp5implshNtB7_10PartialOrd2le"}
!65 = !{!66}
!66 = distinct !{!66, !64, !"_RNvXsW_NtNtCsjMrxcFdYDNN_4core3cmp5implshNtB7_10PartialOrd2le: %other"}
!67 = !{!63, !58}
!68 = !{!66, !61}
!69 = !{!66, !58}
!70 = !{!63, !61}
!71 = !{!72}
!72 = distinct !{!72, !73, !"_RNvMNtCs6I88mZlBn6o_5rayon15range_inclusiveINtB2_4IterhE6boundsB4_: %self"}
!73 = distinct !{!73, !"_RNvMNtCs6I88mZlBn6o_5rayon15range_inclusiveINtB2_4IterhE6boundsB4_"}
!74 = !{i64 1}
!75 = !{!76}
!76 = distinct !{!76, !77, !"_RNvNtCs6I88mZlBn6o_5rayon3str18find_char_midpoint: %chars.0"}
!77 = distinct !{!77, !"_RNvNtCs6I88mZlBn6o_5rayon3str18find_char_midpoint"}
!78 = !{!79, !81}
!79 = distinct !{!79, !80, !"_RINvYINtNtNtCsjMrxcFdYDNN_4core5slice4iter4IterhENtNtNtNtBa_4iter6traits8iterator8Iterator8try_folduNCINvNtNtBR_8adapters6copied13copy_try_foldhuINtNtNtBa_3ops12control_flow11ControlFlowjENCINvNvBL_8position5checkhNvNtCs6I88mZlBn6o_5rayon3str16is_char_boundaryE0E0B2j_EB3u_: %self"}
!80 = distinct !{!80, !"_RINvYINtNtNtCsjMrxcFdYDNN_4core5slice4iter4IterhENtNtNtNtBa_4iter6traits8iterator8Iterator8try_folduNCINvNtNtBR_8adapters6copied13copy_try_foldhuINtNtNtBa_3ops12control_flow11ControlFlowjENCINvNvBL_8position5checkhNvNtCs6I88mZlBn6o_5rayon3str16is_char_boundaryE0E0B2j_EB3u_"}
!81 = distinct !{!81, !80, !"_RINvYINtNtNtCsjMrxcFdYDNN_4core5slice4iter4IterhENtNtNtNtBa_4iter6traits8iterator8Iterator8try_folduNCINvNtNtBR_8adapters6copied13copy_try_foldhuINtNtNtBa_3ops12control_flow11ControlFlowjENCINvNvBL_8position5checkhNvNtCs6I88mZlBn6o_5rayon3str16is_char_boundaryE0E0B2j_EB3u_: argument 1"}
!82 = !{!83, !85, !87}
!83 = distinct !{!83, !84, !"_RINvYINtNtNtCsjMrxcFdYDNN_4core5slice4iter4IterhENtNtNtNtBa_4iter6traits12double_ended19DoubleEndedIterator9try_rfoldjNCINvNtNtBR_8adapters6copied13copy_try_foldhjINtNtNtBa_3ops12control_flow11ControlFlowjjENCINvNvNtNtBP_8iterator8Iterator9rposition5checkhNvNtCs6I88mZlBn6o_5rayon3str16is_char_boundaryE0E0B2B_EB4a_: %self"}
!84 = distinct !{!84, !"_RINvYINtNtNtCsjMrxcFdYDNN_4core5slice4iter4IterhENtNtNtNtBa_4iter6traits12double_ended19DoubleEndedIterator9try_rfoldjNCINvNtNtBR_8adapters6copied13copy_try_foldhjINtNtNtBa_3ops12control_flow11ControlFlowjjENCINvNvNtNtBP_8iterator8Iterator9rposition5checkhNvNtCs6I88mZlBn6o_5rayon3str16is_char_boundaryE0E0B2B_EB4a_"}
!85 = distinct !{!85, !86, !"_RINvXs0_NtNtNtCsjMrxcFdYDNN_4core4iter8adapters6copiedINtB6_6CopiedINtNtNtBc_5slice4iter4IterhEENtNtNtBa_6traits12double_ended19DoubleEndedIterator9try_rfoldjNCINvNvNtNtB1A_8iterator8Iterator9rposition5checkhNvNtCs6I88mZlBn6o_5rayon3str16is_char_boundaryE0INtNtNtBc_3ops12control_flow11ControlFlowjjEEB3o_: %self"}
!86 = distinct !{!86, !"_RINvXs0_NtNtNtCsjMrxcFdYDNN_4core4iter8adapters6copiedINtB6_6CopiedINtNtNtBc_5slice4iter4IterhEENtNtNtBa_6traits12double_ended19DoubleEndedIterator9try_rfoldjNCINvNvNtNtB1A_8iterator8Iterator9rposition5checkhNvNtCs6I88mZlBn6o_5rayon3str16is_char_boundaryE0INtNtNtBc_3ops12control_flow11ControlFlowjjEEB3o_"}
!87 = distinct !{!87, !88, !"_RINvYINtNtNtNtCsjMrxcFdYDNN_4core4iter8adapters6copied6CopiedINtNtNtBc_5slice4iter4IterhEENtNtNtBa_6traits8iterator8Iterator9rpositionNvNtCs6I88mZlBn6o_5rayon3str16is_char_boundaryEB2c_: %self"}
!88 = distinct !{!88, !"_RINvYINtNtNtNtCsjMrxcFdYDNN_4core4iter8adapters6copied6CopiedINtNtNtBc_5slice4iter4IterhEENtNtNtBa_6traits8iterator8Iterator9rpositionNvNtCs6I88mZlBn6o_5rayon3str16is_char_boundaryEB2c_"}
!89 = !{!90}
!90 = distinct !{!90, !91, !"_RNvMNtCsjMrxcFdYDNN_4core3stre16split_at_checked: %self.0"}
!91 = distinct !{!91, !"_RNvMNtCsjMrxcFdYDNN_4core3stre16split_at_checked"}
!92 = !{!93}
!93 = distinct !{!93, !91, !"_RNvMNtCsjMrxcFdYDNN_4core3stre16split_at_checked: %_0"}
!94 = !{!95}
!95 = distinct !{!95, !96, !"_RNvXsd_NtNtCsjMrxcFdYDNN_4core4iter5rangeINtNtNtB9_3ops5range14RangeInclusivetENtNtNtB7_6traits8iterator8Iterator9size_hintCs6I88mZlBn6o_5rayon: %self"}
!96 = distinct !{!96, !"_RNvXsd_NtNtCsjMrxcFdYDNN_4core4iter5rangeINtNtNtB9_3ops5range14RangeInclusivetENtNtNtB7_6traits8iterator8Iterator9size_hintCs6I88mZlBn6o_5rayon"}
!97 = !{!98}
!98 = distinct !{!98, !96, !"_RNvXsd_NtNtCsjMrxcFdYDNN_4core4iter5rangeINtNtNtB9_3ops5range14RangeInclusivetENtNtNtB7_6traits8iterator8Iterator9size_hintCs6I88mZlBn6o_5rayon: %_0"}
!99 = !{!100}
!100 = distinct !{!100, !101, !"_RNvXsY_NtNtCsjMrxcFdYDNN_4core3cmp5implstNtB7_10PartialOrd2le: %self"}
!101 = distinct !{!101, !"_RNvXsY_NtNtCsjMrxcFdYDNN_4core3cmp5implstNtB7_10PartialOrd2le"}
!102 = !{!103}
!103 = distinct !{!103, !101, !"_RNvXsY_NtNtCsjMrxcFdYDNN_4core3cmp5implstNtB7_10PartialOrd2le: %other"}
!104 = !{!100, !95}
!105 = !{!103, !98}
!106 = !{!103, !95}
!107 = !{!100, !98}
!108 = !{!109}
!109 = distinct !{!109, !110, !"_RNvMNtCs6I88mZlBn6o_5rayon15range_inclusiveINtB2_4ItertE6boundsB4_: %self"}
!110 = distinct !{!110, !"_RNvMNtCs6I88mZlBn6o_5rayon15range_inclusiveINtB2_4ItertE6boundsB4_"}
!111 = !{!112}
!112 = distinct !{!112, !113, !"_RNvXsd_NtNtCsjMrxcFdYDNN_4core4iter5rangeINtNtNtB9_3ops5range14RangeInclusiveaENtNtNtB7_6traits8iterator8Iterator9size_hintCs6I88mZlBn6o_5rayon: %self"}
!113 = distinct !{!113, !"_RNvXsd_NtNtCsjMrxcFdYDNN_4core4iter5rangeINtNtNtB9_3ops5range14RangeInclusiveaENtNtNtB7_6traits8iterator8Iterator9size_hintCs6I88mZlBn6o_5rayon"}
!114 = !{!115}
!115 = distinct !{!115, !113, !"_RNvXsd_NtNtCsjMrxcFdYDNN_4core4iter5rangeINtNtNtB9_3ops5range14RangeInclusiveaENtNtNtB7_6traits8iterator8Iterator9size_hintCs6I88mZlBn6o_5rayon: %_0"}
!116 = !{!117}
!117 = distinct !{!117, !118, !"_RNvXs18_NtNtCsjMrxcFdYDNN_4core3cmp5implsaNtB8_10PartialOrd2le: %self"}
!118 = distinct !{!118, !"_RNvXs18_NtNtCsjMrxcFdYDNN_4core3cmp5implsaNtB8_10PartialOrd2le"}
!119 = !{!120}
!120 = distinct !{!120, !118, !"_RNvXs18_NtNtCsjMrxcFdYDNN_4core3cmp5implsaNtB8_10PartialOrd2le: %other"}
!121 = !{!117, !112}
!122 = !{!120, !115}
!123 = !{!120, !112}
!124 = !{!117, !115}
!125 = !{!"branch_weights", i32 4000000, i32 4001}
!126 = !{!127}
!127 = distinct !{!127, !128, !"_RNvMNtCs6I88mZlBn6o_5rayon15range_inclusiveINtB2_4IteraE6boundsB4_: %self"}
!128 = distinct !{!128, !"_RNvMNtCs6I88mZlBn6o_5rayon15range_inclusiveINtB2_4IteraE6boundsB4_"}
!129 = !{!130}
!130 = distinct !{!130, !131, !"_RNvXsd_NtNtCsjMrxcFdYDNN_4core4iter5rangeINtNtNtB9_3ops5range14RangeInclusivesENtNtNtB7_6traits8iterator8Iterator9size_hintCs6I88mZlBn6o_5rayon: %self"}
!131 = distinct !{!131, !"_RNvXsd_NtNtCsjMrxcFdYDNN_4core4iter5rangeINtNtNtB9_3ops5range14RangeInclusivesENtNtNtB7_6traits8iterator8Iterator9size_hintCs6I88mZlBn6o_5rayon"}
!132 = !{!133}
!133 = distinct !{!133, !131, !"_RNvXsd_NtNtCsjMrxcFdYDNN_4core4iter5rangeINtNtNtB9_3ops5range14RangeInclusivesENtNtNtB7_6traits8iterator8Iterator9size_hintCs6I88mZlBn6o_5rayon: %_0"}
!134 = !{!135}
!135 = distinct !{!135, !136, !"_RNvXs1a_NtNtCsjMrxcFdYDNN_4core3cmp5implssNtB8_10PartialOrd2le: %self"}
!136 = distinct !{!136, !"_RNvXs1a_NtNtCsjMrxcFdYDNN_4core3cmp5implssNtB8_10PartialOrd2le"}
!137 = !{!138}
!138 = distinct !{!138, !136, !"_RNvXs1a_NtNtCsjMrxcFdYDNN_4core3cmp5implssNtB8_10PartialOrd2le: %other"}
!139 = !{!135, !130}
!140 = !{!138, !133}
!141 = !{!138, !130}
!142 = !{!135, !133}
!143 = !{!144}
!144 = distinct !{!144, !145, !"_RNvMNtCs6I88mZlBn6o_5rayon15range_inclusiveINtB2_4ItersE6boundsB4_: %self"}
!145 = distinct !{!145, !"_RNvMNtCs6I88mZlBn6o_5rayon15range_inclusiveINtB2_4ItersE6boundsB4_"}
!146 = !{!147}
!147 = distinct !{!147, !148, !"_RNvMNtCs6I88mZlBn6o_5rayon15range_inclusiveINtB2_4IterjE6boundsB4_: %self"}
!148 = distinct !{!148, !"_RNvMNtCs6I88mZlBn6o_5rayon15range_inclusiveINtB2_4IterjE6boundsB4_"}
!149 = !{!150}
!150 = distinct !{!150, !148, !"_RNvMNtCs6I88mZlBn6o_5rayon15range_inclusiveINtB2_4IterjE6boundsB4_: %_0"}
!151 = !{!152}
!152 = distinct !{!152, !153, !"_RNvMNtCs6I88mZlBn6o_5rayon15range_inclusiveINtB2_4IteriE6boundsB4_: %self"}
!153 = distinct !{!153, !"_RNvMNtCs6I88mZlBn6o_5rayon15range_inclusiveINtB2_4IteriE6boundsB4_"}
!154 = !{!155}
!155 = distinct !{!155, !153, !"_RNvMNtCs6I88mZlBn6o_5rayon15range_inclusiveINtB2_4IteriE6boundsB4_: %_0"}
!156 = !{!157}
!157 = distinct !{!157, !158, !"_RNvMNtCs6I88mZlBn6o_5rayon15range_inclusiveINtB2_4ItermE6boundsB4_: %self"}
!158 = distinct !{!158, !"_RNvMNtCs6I88mZlBn6o_5rayon15range_inclusiveINtB2_4ItermE6boundsB4_"}
!159 = !{!160}
!160 = distinct !{!160, !158, !"_RNvMNtCs6I88mZlBn6o_5rayon15range_inclusiveINtB2_4ItermE6boundsB4_: %_0"}
!161 = !{!162}
!162 = distinct !{!162, !163, !"_RNvMNtCs6I88mZlBn6o_5rayon15range_inclusiveINtB2_4IterlE6boundsB4_: %self"}
!163 = distinct !{!163, !"_RNvMNtCs6I88mZlBn6o_5rayon15range_inclusiveINtB2_4IterlE6boundsB4_"}
!164 = !{!165}
!165 = distinct !{!165, !163, !"_RNvMNtCs6I88mZlBn6o_5rayon15range_inclusiveINtB2_4IterlE6boundsB4_: %_0"}
!166 = !{!167}
!167 = distinct !{!167, !168, !"_RNvMNtCs6I88mZlBn6o_5rayon15range_inclusiveINtB2_4IteryE6boundsB4_: %self"}
!168 = distinct !{!168, !"_RNvMNtCs6I88mZlBn6o_5rayon15range_inclusiveINtB2_4IteryE6boundsB4_"}
!169 = !{!170}
!170 = distinct !{!170, !168, !"_RNvMNtCs6I88mZlBn6o_5rayon15range_inclusiveINtB2_4IteryE6boundsB4_: %_0"}
!171 = !{!172}
!172 = distinct !{!172, !173, !"_RNvMNtCs6I88mZlBn6o_5rayon15range_inclusiveINtB2_4IterxE6boundsB4_: %self"}
!173 = distinct !{!173, !"_RNvMNtCs6I88mZlBn6o_5rayon15range_inclusiveINtB2_4IterxE6boundsB4_"}
!174 = !{!175}
!175 = distinct !{!175, !173, !"_RNvMNtCs6I88mZlBn6o_5rayon15range_inclusiveINtB2_4IterxE6boundsB4_: %_0"}
!176 = !{!177}
!177 = distinct !{!177, !178, !"_RNvMNtCs6I88mZlBn6o_5rayon15range_inclusiveINtB2_4IteroE6boundsB4_: %self"}
!178 = distinct !{!178, !"_RNvMNtCs6I88mZlBn6o_5rayon15range_inclusiveINtB2_4IteroE6boundsB4_"}
!179 = !{!180}
!180 = distinct !{!180, !178, !"_RNvMNtCs6I88mZlBn6o_5rayon15range_inclusiveINtB2_4IteroE6boundsB4_: %_0"}
!181 = !{!182}
!182 = distinct !{!182, !183, !"_RNvMNtCs6I88mZlBn6o_5rayon15range_inclusiveINtB2_4IternE6boundsB4_: %self"}
!183 = distinct !{!183, !"_RNvMNtCs6I88mZlBn6o_5rayon15range_inclusiveINtB2_4IternE6boundsB4_"}
!184 = !{!185}
!185 = distinct !{!185, !183, !"_RNvMNtCs6I88mZlBn6o_5rayon15range_inclusiveINtB2_4IternE6boundsB4_: %_0"}
!186 = !{!187}
!187 = distinct !{!187, !188, !"_RNvMNtCsdJPVW0sQgAG_5alloc6stringNtB2_6String4push: %self"}
!188 = distinct !{!188, !"_RNvMNtCsdJPVW0sQgAG_5alloc6stringNtB2_6String4push"}
!189 = !{!190, !187}
!190 = distinct !{!190, !191, !"_RNvMs_NtCsdJPVW0sQgAG_5alloc3vecINtB4_3VechE7reserveCs6I88mZlBn6o_5rayon: %self"}
!191 = distinct !{!191, !"_RNvMs_NtCsdJPVW0sQgAG_5alloc3vecINtB4_3VechE7reserveCs6I88mZlBn6o_5rayon"}
!192 = !{!193}
!193 = distinct !{!193, !194, !"_RNvMs6_NtNtCsdJPVW0sQgAG_5alloc11collections11linked_listINtB5_10LinkedListNtNtB9_6string6StringE13push_back_mutCs6I88mZlBn6o_5rayon: %self"}
!194 = distinct !{!194, !"_RNvMs6_NtNtCsdJPVW0sQgAG_5alloc11collections11linked_listINtB5_10LinkedListNtNtB9_6string6StringE13push_back_mutCs6I88mZlBn6o_5rayon"}
!195 = !{!196, !198, !200, !202, !193, !203}
!196 = distinct !{!196, !197, !"_RNvMs_NtCsdJPVW0sQgAG_5alloc5boxedINtB4_3BoxINtNtNtB6_11collections11linked_list4NodeNtNtB6_6string6StringERNtNtB6_5alloc6GlobalE17try_new_uninit_inCs6I88mZlBn6o_5rayon: argument 0"}
!197 = distinct !{!197, !"_RNvMs_NtCsdJPVW0sQgAG_5alloc5boxedINtB4_3BoxINtNtNtB6_11collections11linked_list4NodeNtNtB6_6string6StringERNtNtB6_5alloc6GlobalE17try_new_uninit_inCs6I88mZlBn6o_5rayon"}
!198 = distinct !{!198, !199, !"_RNvMs_NtCsdJPVW0sQgAG_5alloc5boxedINtB4_3BoxINtNtNtB6_11collections11linked_list4NodeNtNtB6_6string6StringERNtNtB6_5alloc6GlobalE13new_uninit_inCs6I88mZlBn6o_5rayon: %alloc"}
!199 = distinct !{!199, !"_RNvMs_NtCsdJPVW0sQgAG_5alloc5boxedINtB4_3BoxINtNtNtB6_11collections11linked_list4NodeNtNtB6_6string6StringERNtNtB6_5alloc6GlobalE13new_uninit_inCs6I88mZlBn6o_5rayon"}
!200 = distinct !{!200, !201, !"_RNvMs_NtCsdJPVW0sQgAG_5alloc5boxedINtB4_3BoxINtNtNtB6_11collections11linked_list4NodeNtNtB6_6string6StringERNtNtB6_5alloc6GlobalE6new_inCs6I88mZlBn6o_5rayon: %x"}
!201 = distinct !{!201, !"_RNvMs_NtCsdJPVW0sQgAG_5alloc5boxedINtB4_3BoxINtNtNtB6_11collections11linked_list4NodeNtNtB6_6string6StringERNtNtB6_5alloc6GlobalE6new_inCs6I88mZlBn6o_5rayon"}
!202 = distinct !{!202, !201, !"_RNvMs_NtCsdJPVW0sQgAG_5alloc5boxedINtB4_3BoxINtNtNtB6_11collections11linked_list4NodeNtNtB6_6string6StringERNtNtB6_5alloc6GlobalE6new_inCs6I88mZlBn6o_5rayon: %alloc"}
!203 = distinct !{!203, !194, !"_RNvMs6_NtNtCsdJPVW0sQgAG_5alloc11collections11linked_listINtB5_10LinkedListNtNtB9_6string6StringE13push_back_mutCs6I88mZlBn6o_5rayon: %elt"}
!204 = !{!200, !202, !193, !203}
!205 = !{!193, !203}
!206 = !{!203}
