; ModuleID = 'regex.af63f462bde266eb-cgu.0'
source_filename = "regex.af63f462bde266eb-cgu.0"
target datalayout = "e-m:o-p270:32:32-p271:32:32-p272:64:64-i64:64-i128:128-n32:64-S128-Fn32"
target triple = "arm64-apple-macosx11.0.0"

%"alloc::string::String" = type { %"alloc::vec::Vec<u8>" }
%"alloc::vec::Vec<u8>" = type { %"alloc::raw_vec::RawVec<u8>", i64 }
%"alloc::raw_vec::RawVec<u8>" = type { %"alloc::raw_vec::RawVecInner", %"core::marker::PhantomData<u8>" }
%"alloc::raw_vec::RawVecInner" = type { i64, ptr, %"alloc::alloc::Global" }
%"alloc::alloc::Global" = type {}
%"core::marker::PhantomData<u8>" = type {}
%"regex_syntax::ast::Ast" = type { i64, [1 x i64] }
%"regex_syntax::hir::Hir" = type { %"regex_syntax::hir::HirKind", ptr }
%"regex_syntax::hir::HirKind" = type { i64, [4 x i64] }
%"regex_syntax::hir::translate::HirFrame" = type { i64, [5 x i64] }
%"regex_syntax::ast::CaptureName" = type { %"alloc::string::String", %"regex_syntax::ast::Span", i32, [1 x i32] }
%"regex_syntax::ast::Span" = type { %"regex_syntax::ast::Position", %"regex_syntax::ast::Position" }
%"regex_syntax::ast::Position" = type { i64, i64, i64 }
%"regex_syntax::ast::parse::ClassState" = type { i64, [35 x i64] }
%"regex_syntax::ast::parse::GroupState" = type { i64, [27 x i64] }
%"regex_automata::util::pool::inner::CacheLine<std::sync::poison::mutex::Mutex<alloc::vec::Vec<alloc::boxed::Box<regex_automata::meta::regex::Cache>>>>" = type { %"std::sync::poison::mutex::Mutex<alloc::vec::Vec<alloc::boxed::Box<regex_automata::meta::regex::Cache>>>", [3 x i64] }
%"std::sync::poison::mutex::Mutex<alloc::vec::Vec<alloc::boxed::Box<regex_automata::meta::regex::Cache>>>" = type { %"std::sys::sync::mutex::pthread::Mutex", %"std::sync::poison::Flag", [7 x i8], %"core::cell::UnsafeCell<alloc::vec::Vec<alloc::boxed::Box<regex_automata::meta::regex::Cache>>>" }
%"std::sys::sync::mutex::pthread::Mutex" = type { %"std::sys::sync::once_box::OnceBox<std::sys::pal::unix::sync::mutex::Mutex>" }
%"std::sys::sync::once_box::OnceBox<std::sys::pal::unix::sync::mutex::Mutex>" = type { %"core::sync::atomic::AtomicPtr<std::sys::pal::unix::sync::mutex::Mutex>" }
%"core::sync::atomic::AtomicPtr<std::sys::pal::unix::sync::mutex::Mutex>" = type { ptr }
%"std::sync::poison::Flag" = type { %"core::sync::atomic::AtomicBool" }
%"core::sync::atomic::AtomicBool" = type { i8 }
%"core::cell::UnsafeCell<alloc::vec::Vec<alloc::boxed::Box<regex_automata::meta::regex::Cache>>>" = type { %"alloc::vec::Vec<alloc::boxed::Box<regex_automata::meta::regex::Cache>>" }
%"alloc::vec::Vec<alloc::boxed::Box<regex_automata::meta::regex::Cache>>" = type { %"alloc::raw_vec::RawVec<alloc::boxed::Box<regex_automata::meta::regex::Cache>>", i64 }
%"alloc::raw_vec::RawVec<alloc::boxed::Box<regex_automata::meta::regex::Cache>>" = type { %"alloc::raw_vec::RawVecInner", %"core::marker::PhantomData<alloc::boxed::Box<regex_automata::meta::regex::Cache>>" }
%"core::marker::PhantomData<alloc::boxed::Box<regex_automata::meta::regex::Cache>>" = type {}
%"regex_automata::util::determinize::state::State" = type { %"alloc::sync::Arc<[u8]>" }
%"alloc::sync::Arc<[u8]>" = type { %"core::ptr::non_null::NonNull<alloc::sync::ArcInner<[u8]>>", %"core::marker::PhantomData<alloc::sync::ArcInner<[u8]>>", %"alloc::alloc::Global" }
%"core::ptr::non_null::NonNull<alloc::sync::ArcInner<[u8]>>" = type { { ptr, i64 } }
%"core::marker::PhantomData<alloc::sync::ArcInner<[u8]>>" = type {}
%"regex_syntax::ast::Comment" = type { %"alloc::string::String", %"regex_syntax::ast::Span" }
%"regex_syntax::ast::ClassSetItem" = type { [38 x i32], i32, [1 x i32] }

@vtable.0 = private unnamed_addr constant <{ [24 x i8], ptr }> <{ [24 x i8] c"\00\00\00\00\00\00\00\00\08\00\00\00\00\00\00\00\08\00\00\00\00\00\00\00", ptr @_RNvXs1g_NtCsjMrxcFdYDNN_4core3fmtRNtNtCsdJPVW0sQgAG_5alloc6string6StringNtB6_5Debug3fmtCsf3B9tbXe5WF_5regex }>, align 8
@vtable.1 = private unnamed_addr constant <{ ptr, [16 x i8], ptr, ptr, ptr }> <{ ptr @_RINvNtCsjMrxcFdYDNN_4core3ptr13drop_in_placeNCINvMsj_NtNtCsbJQShvh9aPA_14regex_automata4meta5regexNtBP_7Builder19build_many_from_hirNtNtCs4jgOJqAujFa_12regex_syntax3hir3HirEs_0ECsf3B9tbXe5WF_5regex, [16 x i8] c"\10\00\00\00\00\00\00\00\08\00\00\00\00\00\00\00", ptr @_RNSNvYNCINvMsj_NtNtCsbJQShvh9aPA_14regex_automata4meta5regexNtBd_7Builder19build_many_from_hirNtNtCs4jgOJqAujFa_12regex_syntax3hir3HirEs_0INtNtNtCsjMrxcFdYDNN_4core3ops8function6FnOnceuE9call_once6vtableCsf3B9tbXe5WF_5regex, ptr @_RNCINvMsj_NtNtCsbJQShvh9aPA_14regex_automata4meta5regexNtB8_7Builder19build_many_from_hirNtNtCs4jgOJqAujFa_12regex_syntax3hir3HirEs_0Csf3B9tbXe5WF_5regex, ptr @_RNCINvMsj_NtNtCsbJQShvh9aPA_14regex_automata4meta5regexNtB8_7Builder19build_many_from_hirNtNtCs4jgOJqAujFa_12regex_syntax3hir3HirEs_0Csf3B9tbXe5WF_5regex }>, align 8
@vtable.2 = private unnamed_addr constant <{ [24 x i8], ptr }> <{ [24 x i8] c"\00\00\00\00\00\00\00\00\00\00\00\00\00\00\00\00\01\00\00\00\00\00\00\00", ptr @_RNvXsd_NtNtCsjMrxcFdYDNN_4core5alloc6layoutNtB5_11LayoutErrorNtNtB9_3fmt5Debug3fmt }>, align 8
@alloc_00ae4b301f7fab8ac9617c03fcbd7274 = private unnamed_addr constant [43 x i8] c"called `Result::unwrap()` on an `Err` value", align 1
@vtable.3 = private unnamed_addr constant <{ ptr, [16 x i8], ptr }> <{ ptr @_RINvNtCsjMrxcFdYDNN_4core3ptr13drop_in_placeNtNtCsf3B9tbXe5WF_5regex5error5ErrorEBK_, [16 x i8] c"\18\00\00\00\00\00\00\00\08\00\00\00\00\00\00\00", ptr @_RNvXs1_NtCsf3B9tbXe5WF_5regex5errorNtB5_5ErrorNtNtCsjMrxcFdYDNN_4core3fmt5Debug3fmt }>, align 8
@vtable.4 = private unnamed_addr constant <{ [24 x i8], ptr }> <{ [24 x i8] c"\00\00\00\00\00\00\00\00\00\00\00\00\00\00\00\00\01\00\00\00\00\00\00\00", ptr @_RNvXsK_NtCsjMrxcFdYDNN_4core3fmtNtB5_5ErrorNtB5_5Debug3fmt }>, align 8
@alloc_3756dc58686d18d7ab65fddc526bcd37 = private unnamed_addr constant [107 x i8] c"/Users/hongyaotang/.cargo/registry/src/index.crates.io-1949cf8c6b5b557f/regex-1.12.2/src/regexset/bytes.rs\00", align 1
@alloc_e1dc5a8e97dcf9c36ebea6fba69e4f1a = private unnamed_addr constant <{ ptr, [16 x i8] }> <{ ptr @alloc_3756dc58686d18d7ab65fddc526bcd37, [16 x i8] c"j\00\00\00\00\00\00\00\B9\00\00\00-\00\00\00" }>, align 8
@alloc_12206ec48b9bfffbc15c73914d027c00 = private unnamed_addr constant [108 x i8] c"/Users/hongyaotang/.cargo/registry/src/index.crates.io-1949cf8c6b5b557f/regex-1.12.2/src/regexset/string.rs\00", align 1
@alloc_a5572488a6091e28103866a61c6a46df = private unnamed_addr constant <{ ptr, [16 x i8] }> <{ ptr @alloc_12206ec48b9bfffbc15c73914d027c00, [16 x i8] c"k\00\00\00\00\00\00\00\B5\00\00\00-\00\00\00" }>, align 8
@alloc_edb3ed16ed07237eac14eb16826c52e0 = private unnamed_addr constant [8 x i8] c"\01\00\00\00\00\00\00\00", align 8
@alloc_d1e447cfb4d3775a369be32517f5adea = private unnamed_addr constant [101 x i8] c"/Users/hongyaotang/.cargo/registry/src/index.crates.io-1949cf8c6b5b557f/regex-1.12.2/src/builders.rs\00", align 1
@alloc_aca7254c462c99ddde089b765856f4c8 = private unnamed_addr constant <{ ptr, [16 x i8] }> <{ ptr @alloc_d1e447cfb4d3775a369be32517f5adea, [16 x i8] c"d\00\00\00\00\00\00\00X\00\00\00\09\00\00\00" }>, align 8
@alloc_d24939d107839d98e3c588384a494c80 = private unnamed_addr constant <{ ptr, [16 x i8] }> <{ ptr @alloc_d1e447cfb4d3775a369be32517f5adea, [16 x i8] c"d\00\00\00\00\00\00\00G\00\00\00\09\00\00\00" }>, align 8
@alloc_de6108075f40490fc4da5a2ffa6ad09d = private unnamed_addr constant [114 x i8] c"/Users/hongyaotang/.rustup/toolchains/nightly-aarch64-apple-darwin/lib/rustlib/src/rust/library/alloc/src/sync.rs\00", align 1
@alloc_8d3f04787262a218d98e1165052cbb5c = private unnamed_addr constant <{ ptr, [16 x i8] }> <{ ptr @alloc_de6108075f40490fc4da5a2ffa6ad09d, [16 x i8] c"q\00\00\00\00\00\00\00\C8\08\00\00)\00\00\00" }>, align 8
@alloc_0c812808379efded5a4fb82d2790b556 = private unnamed_addr constant [2 x i8] c"\C0\00", align 1
@vtable.5 = private unnamed_addr constant <{ [24 x i8], ptr }> <{ [24 x i8] c"\00\00\00\00\00\00\00\00\18\00\00\00\00\00\00\00\08\00\00\00\00\00\00\00", ptr @_RNvXs_NvXsb_NtNtCsf3B9tbXe5WF_5regex5regex5bytesNtBa_8CapturesNtNtCsjMrxcFdYDNN_4core3fmt5Debug3fmtNtB4_3KeyBY_3fmt }>, align 8
@alloc_914b2c69d7eca30497b9feaf15ac92f1 = private unnamed_addr constant [1 x i8] zeroinitializer, align 1
@vtable.6 = private unnamed_addr constant <{ [24 x i8], ptr }> <{ [24 x i8] c"\00\00\00\00\00\00\00\00\01\00\00\00\00\00\00\00\01\00\00\00\00\00\00\00", ptr @_RNvXsR_NtCsjMrxcFdYDNN_4core6optionINtB5_6OptionuENtNtB7_3fmt5Debug3fmtCsf3B9tbXe5WF_5regex }>, align 8
@vtable.7 = private unnamed_addr constant <{ [24 x i8], ptr }> <{ [24 x i8] c"\00\00\00\00\00\00\00\00 \00\00\00\00\00\00\00\08\00\00\00\00\00\00\00", ptr @_RNvXs0_NvXsb_NtNtCsf3B9tbXe5WF_5regex5regex5bytesNtBb_8CapturesNtNtCsjMrxcFdYDNN_4core3fmt5Debug3fmtNtB5_5ValueBZ_3fmt }>, align 8
@vtable.8 = private unnamed_addr constant <{ [24 x i8], ptr }> <{ [24 x i8] c"\00\00\00\00\00\00\00\00\18\00\00\00\00\00\00\00\08\00\00\00\00\00\00\00", ptr @_RNvXs_NvXsb_NtNtCsf3B9tbXe5WF_5regex5regex5bytesNtBa_8CapturesNtNtCsjMrxcFdYDNN_4core3fmt5Debug3fmtNtB4_3KeyBY_3fmt }>, align 8
@vtable.9 = private unnamed_addr constant <{ [24 x i8], ptr }> <{ [24 x i8] c"\00\00\00\00\00\00\00\00 \00\00\00\00\00\00\00\08\00\00\00\00\00\00\00", ptr @_RNvXs0_NvXsb_NtNtCsf3B9tbXe5WF_5regex5regex6stringNtBb_8CapturesNtNtCsjMrxcFdYDNN_4core3fmt5Debug3fmtNtB5_5ValueB10_3fmt }>, align 8
@alloc_b94ed8ba5d96edcabe8518c8441f91bd = private unnamed_addr constant [48 x i8] c"%Compiled regex exceeds size limit of \C0\07 bytes.\00", align 1
@alloc_c45006437e218ec3db21e5d4cc6c8cc3 = private unnamed_addr constant [9 x i8] c"\C0\02..\C0\01/\C0\00", align 1
@alloc_4b3b93fab154550dd584c559426df557 = private unnamed_addr constant [104 x i8] c"/Users/hongyaotang/.cargo/registry/src/index.crates.io-1949cf8c6b5b557f/regex-1.12.2/src/regex/bytes.rs\00", align 1
@alloc_6fde1f8ce173faf823894bfbeaafa221 = private unnamed_addr constant <{ ptr, [16 x i8] }> <{ ptr @alloc_4b3b93fab154550dd584c559426df557, [16 x i8] c"g\00\00\00\00\00\00\00\0A\06\00\00\17\00\00\00" }>, align 8
@alloc_28dfc97c5f8a564aa82106a487f04d8a = private unnamed_addr constant [105 x i8] c"/Users/hongyaotang/.cargo/registry/src/index.crates.io-1949cf8c6b5b557f/regex-1.12.2/src/regex/string.rs\00", align 1
@alloc_3f44db9f5b246cdca20513329c49d594 = private unnamed_addr constant <{ ptr, [16 x i8] }> <{ ptr @alloc_28dfc97c5f8a564aa82106a487f04d8a, [16 x i8] c"h\00\00\00\00\00\00\00\17\06\00\00\17\00\00\00" }>, align 8
@alloc_8ee683e82b3f7895f2f5e3b350b7f886 = private unnamed_addr constant [8 x i8] c"Syntax(\0A", align 1
@alloc_61247b90e1706a3f65e71312b599d3d1 = private unnamed_addr constant [4 x i8] c"\C0\01\0A\00", align 1
@alloc_9e3f62b0e6490cc45676dc85f910c2d0 = private unnamed_addr constant [1 x i8] c")", align 1
@alloc_640269415edb8215d71aea24042c38db = private unnamed_addr constant [14 x i8] c"CompiledTooBig", align 1
@vtable.a = private unnamed_addr constant <{ [24 x i8], ptr }> <{ [24 x i8] c"\00\00\00\00\00\00\00\00\08\00\00\00\00\00\00\00\08\00\00\00\00\00\00\00", ptr @_RNvXsZ_NtNtCsjMrxcFdYDNN_4core3fmt3numjNtB7_5Debug3fmt }>, align 8
@alloc_611ff3d515f753aed582dab34f533e68 = private unnamed_addr constant [117 x i8] c"/Users/hongyaotang/.cargo/registry/src/index.crates.io-1949cf8c6b5b557f/regex-automata-0.4.13/src/util/primitives.rs\00", align 1
@alloc_57232c587ff8846c3318602822183508 = private unnamed_addr constant <{ ptr, [16 x i8] }> <{ ptr @alloc_611ff3d515f753aed582dab34f533e68, [16 x i8] c"t\00\00\00\00\00\00\00\F1\02\00\00\01\00\00\00" }>, align 8
@alloc_e16092e01445ea73d5c64926ff1db9fa = private unnamed_addr constant [5 x i8] c"Match", align 1
@alloc_dda0bcc3ff1fdfc3398ecd472e0ca67c = private unnamed_addr constant [5 x i8] c"start", align 1
@alloc_9672b1932218b44e93e08186e7aebf39 = private unnamed_addr constant [3 x i8] c"end", align 1
@vtable.b = private unnamed_addr constant <{ [24 x i8], ptr }> <{ [24 x i8] c"\00\00\00\00\00\00\00\00\10\00\00\00\00\00\00\00\08\00\00\00\00\00\00\00", ptr @_RNvXs_NtNtCsbJQShvh9aPA_14regex_automata4util6escapeNtB4_13DebugHaystackNtNtCsjMrxcFdYDNN_4core3fmt5Debug3fmt }>, align 8
@alloc_dd4ffb6a82fadbcfa53fa009063078f4 = private unnamed_addr constant [5 x i8] c"bytes", align 1
@vtable.c = private unnamed_addr constant <{ [24 x i8], ptr }> <{ [24 x i8] c"\00\00\00\00\00\00\00\00\10\00\00\00\00\00\00\00\08\00\00\00\00\00\00\00", ptr @_RNvXs1g_NtCsjMrxcFdYDNN_4core3fmtReNtB6_5Debug3fmtCsf3B9tbXe5WF_5regex }>, align 8
@alloc_cf3ed130eaac04f7756610ea20f33fce = private unnamed_addr constant [6 x i8] c"string", align 1
@alloc_bd598733641b24e5efc134c89e224462 = private unnamed_addr constant [14 x i8] c"\09RegexSet(\C0\01)\00", align 1
@vtable.d = private unnamed_addr constant <{ ptr, [16 x i8], ptr, ptr, ptr }> <{ ptr @_RINvNtCsjMrxcFdYDNN_4core3ptr13drop_in_placeNtNtCsdJPVW0sQgAG_5alloc6string6StringECsf3B9tbXe5WF_5regex, [16 x i8] c"\18\00\00\00\00\00\00\00\08\00\00\00\00\00\00\00", ptr @_RNvXsZ_NtCsdJPVW0sQgAG_5alloc6stringNtB5_6StringNtNtCsjMrxcFdYDNN_4core3fmt5Write9write_str, ptr @_RNvXsZ_NtCsdJPVW0sQgAG_5alloc6stringNtB5_6StringNtNtCsjMrxcFdYDNN_4core3fmt5Write10write_char, ptr @_RNvYNtNtCsdJPVW0sQgAG_5alloc6string6StringNtNtCsjMrxcFdYDNN_4core3fmt5Write9write_fmtCsf3B9tbXe5WF_5regex }>, align 8
@alloc_cc656815297f75969399c3f4b1ad3de4 = private unnamed_addr constant [55 x i8] c"a Display implementation returned an error unexpectedly", align 1
@alloc_82687d2573a6ed8a4d1fcf733f159466 = private unnamed_addr constant [116 x i8] c"/Users/hongyaotang/.rustup/toolchains/nightly-aarch64-apple-darwin/lib/rustlib/src/rust/library/alloc/src/string.rs\00", align 1
@alloc_f3c70bf9d2724ff8f638341943ddf3c8 = private unnamed_addr constant <{ ptr, [16 x i8] }> <{ ptr @alloc_82687d2573a6ed8a4d1fcf733f159466, [16 x i8] c"s\00\00\00\00\00\00\00f\0B\00\00\0E\00\00\00" }>, align 8
@alloc_99ac8a81a24cac863217ce4a5cbfabea = private unnamed_addr constant [5 x i8] c"Error", align 1
@alloc_37d2e53432a03a1f90b3e7253015eaf9 = private unnamed_addr constant [4 x i8] c"None", align 1
@vtable.e = private unnamed_addr constant <{ [24 x i8], ptr }> <{ [24 x i8] c"\00\00\00\00\00\00\00\00\08\00\00\00\00\00\00\00\08\00\00\00\00\00\00\00", ptr @_RNvXs1g_NtCsjMrxcFdYDNN_4core3fmtRuNtB6_5Debug3fmtCsf3B9tbXe5WF_5regex }>, align 8
@alloc_9535bf4c204f3eb9b19ec2c83e446e52 = private unnamed_addr constant [4 x i8] c"Some", align 1
@alloc_7e2483d568f28146f9ce2ebf024a74f4 = private unnamed_addr constant [5 x i8] c"Regex", align 1
@alloc_0dd69f24d9d9169ca13b07ba4b55ebbe = private unnamed_addr constant [4 x i8] c"\01/\C0\00", align 1
@alloc_61a67dc8178b5142878619404bef6caa = private unnamed_addr constant [8 x i8] c"Captures", align 1
@vtable.f = private unnamed_addr constant <{ [24 x i8], ptr }> <{ [24 x i8] c"\00\00\00\00\00\00\00\00\08\00\00\00\00\00\00\00\08\00\00\00\00\00\00\00", ptr @_RNvXNvXsb_NtNtCsf3B9tbXe5WF_5regex5regex5bytesNtB8_8CapturesNtNtCsjMrxcFdYDNN_4core3fmt5Debug3fmtNtB2_16CapturesDebugMapBW_3fmt }>, align 8
@vtable.g = private unnamed_addr constant <{ [24 x i8], ptr }> <{ [24 x i8] c"\00\00\00\00\00\00\00\00\08\00\00\00\00\00\00\00\08\00\00\00\00\00\00\00", ptr @_RNvXNvXsb_NtNtCsf3B9tbXe5WF_5regex5regex6stringNtB8_8CapturesNtNtCsjMrxcFdYDNN_4core3fmt5Debug3fmtNtB2_16CapturesDebugMapBX_3fmt }>, align 8
@alloc_27f88f66b32035bcfe811f43ac2a1a92 = private unnamed_addr constant [24 x i8] c"\13no group at index '\C0\01'\00", align 1
@alloc_b3ce4279e6cddd9953a48196b9e76eb7 = private unnamed_addr constant <{ ptr, [16 x i8] }> <{ ptr @alloc_4b3b93fab154550dd584c559426df557, [16 x i8] c"g\00\00\00\00\00\00\00\DF\07\00\00 \00\00\00" }>, align 8
@alloc_e9d554427f39839678903bb2e978c476 = private unnamed_addr constant <{ ptr, [16 x i8] }> <{ ptr @alloc_28dfc97c5f8a564aa82106a487f04d8a, [16 x i8] c"h\00\00\00\00\00\00\00\E8\07\00\00 \00\00\00" }>, align 8
@alloc_39b270b5044f518710b322d4e5d32a19 = private unnamed_addr constant [21 x i8] c"\10no group named '\C0\01'\00", align 1
@alloc_dc760b483361f8ddf2adce8106c60adc = private unnamed_addr constant <{ ptr, [16 x i8] }> <{ ptr @alloc_4b3b93fab154550dd584c559426df557, [16 x i8] c"g\00\00\00\00\00\00\00\F9\07\00\00 \00\00\00" }>, align 8
@alloc_d9e47937c6b84ad5a8566b051974c29a = private unnamed_addr constant <{ ptr, [16 x i8] }> <{ ptr @alloc_28dfc97c5f8a564aa82106a487f04d8a, [16 x i8] c"h\00\00\00\00\00\00\00\02\08\00\00 \00\00\00" }>, align 8
@alloc_477d6fd19596379e27b9bd4358550877 = private unnamed_addr constant [11 x i8] c"LayoutError", align 1
@alloc_ae6dc619079e3c3b08144a35532ecff7 = private unnamed_addr constant [2 x i8] c"()", align 1

@_RNvXsw_NtNtCsf3B9tbXe5WF_5regex5regex5bytesRINtNtCsdJPVW0sQgAG_5alloc3vec3VechENtB5_8Replacer12no_expansion = unnamed_addr alias void (ptr, ptr), ptr @_RNvXsu_NtNtCsf3B9tbXe5WF_5regex5regex6stringRNtNtCsdJPVW0sQgAG_5alloc6string6StringNtB5_8Replacer12no_expansion
@_RNvXsz_NtNtCsf3B9tbXe5WF_5regex5regex5bytesRINtNtCsdJPVW0sQgAG_5alloc6borrow3CowShENtB5_8Replacer12no_expansion = unnamed_addr alias void (ptr, ptr), ptr @_RNvXsx_NtNtCsf3B9tbXe5WF_5regex5regex6stringRINtNtCsdJPVW0sQgAG_5alloc6borrow3CoweENtB5_8Replacer12no_expansion
@_RNvXsx_NtNtCsf3B9tbXe5WF_5regex5regex5bytesINtNtCsdJPVW0sQgAG_5alloc3vec3VechENtB5_8Replacer12no_expansion = unnamed_addr alias void (ptr, ptr), ptr @_RNvXsv_NtNtCsf3B9tbXe5WF_5regex5regex6stringNtNtCsdJPVW0sQgAG_5alloc6string6StringNtB5_8Replacer12no_expansion
@_RNvXsy_NtNtCsf3B9tbXe5WF_5regex5regex5bytesINtNtCsdJPVW0sQgAG_5alloc6borrow3CowShENtB5_8Replacer12no_expansion = unnamed_addr alias void (ptr, ptr), ptr @_RNvXsw_NtNtCsf3B9tbXe5WF_5regex5regex6stringINtNtCsdJPVW0sQgAG_5alloc6borrow3CoweENtB5_8Replacer12no_expansion
@_RNvXs_NvXsb_NtNtCsf3B9tbXe5WF_5regex5regex6stringNtBa_8CapturesNtNtCsjMrxcFdYDNN_4core3fmt5Debug3fmtNtB4_3KeyBZ_3fmt = unnamed_addr alias i1 (ptr, ptr), ptr @_RNvXs_NvXsb_NtNtCsf3B9tbXe5WF_5regex5regex5bytesNtBa_8CapturesNtNtCsjMrxcFdYDNN_4core3fmt5Debug3fmtNtB4_3KeyBY_3fmt
@_RNvXsC_NtNtCsf3B9tbXe5WF_5regex5regex5bytesNtB5_8NoExpandNtB5_8Replacer14replace_append = unnamed_addr alias void (ptr, ptr, ptr), ptr @_RNvXsA_NtNtCsf3B9tbXe5WF_5regex5regex6stringNtB5_8NoExpandNtB5_8Replacer14replace_append
@_RNvXsy_NtNtCsf3B9tbXe5WF_5regex5regex5bytesINtNtCsdJPVW0sQgAG_5alloc6borrow3CowShENtB5_8Replacer14replace_append = unnamed_addr alias void (ptr, ptr, ptr), ptr @_RNvXsx_NtNtCsf3B9tbXe5WF_5regex5regex5bytesINtNtCsdJPVW0sQgAG_5alloc3vec3VechENtB5_8Replacer14replace_append
@_RNvXs6_NtNtCsf3B9tbXe5WF_5regex8regexset6stringNtB5_14SetMatchesIterNtNtNtNtCsjMrxcFdYDNN_4core4iter6traits8iterator8Iterator4next = unnamed_addr alias { i64, i64 } (ptr), ptr @_RNvXs6_NtNtCsf3B9tbXe5WF_5regex8regexset5bytesNtB5_14SetMatchesIterNtNtNtNtCsjMrxcFdYDNN_4core4iter6traits8iterator8Iterator4next
@_RNvXs7_NtNtCsf3B9tbXe5WF_5regex8regexset6stringNtB5_14SetMatchesIterNtNtNtNtCsjMrxcFdYDNN_4core4iter6traits12double_ended19DoubleEndedIterator9next_back = unnamed_addr alias { i64, i64 } (ptr), ptr @_RNvXs7_NtNtCsf3B9tbXe5WF_5regex8regexset5bytesNtB5_14SetMatchesIterNtNtNtNtCsjMrxcFdYDNN_4core4iter6traits12double_ended19DoubleEndedIterator9next_back
@_RNvXsv_NtNtCsf3B9tbXe5WF_5regex5regex5bytesRShNtB5_8Replacer12no_expansion = unnamed_addr alias void (ptr, ptr), ptr @_RNvXst_NtNtCsf3B9tbXe5WF_5regex5regex6stringReNtB5_8Replacer12no_expansion
@_RNvMNtNtCsf3B9tbXe5WF_5regex8builders6stringNtB2_12RegexBuilder3new = unnamed_addr alias void (ptr, ptr, i64), ptr @_RNvMNtNtCsf3B9tbXe5WF_5regex8builders5bytesNtB2_12RegexBuilder3new
@_RNvXNtNtCsf3B9tbXe5WF_5regex5regex6stringNtB2_5RegexNtNtCsjMrxcFdYDNN_4core3fmt7Display3fmt = unnamed_addr alias i1 (ptr, ptr), ptr @_RNvXNtNtCsf3B9tbXe5WF_5regex5regex5bytesNtB2_5RegexNtNtCsjMrxcFdYDNN_4core3fmt7Display3fmt
@_RNvXs9_NtNtCsf3B9tbXe5WF_5regex8regexset6stringNtB5_8RegexSetNtNtCsjMrxcFdYDNN_4core3fmt5Debug3fmt = unnamed_addr alias i1 (ptr, ptr), ptr @_RNvXs9_NtNtCsf3B9tbXe5WF_5regex8regexset5bytesNtB5_8RegexSetNtNtCsjMrxcFdYDNN_4core3fmt5Debug3fmt
@_RNvXsx_NtNtCsf3B9tbXe5WF_5regex5regex6stringRINtNtCsdJPVW0sQgAG_5alloc6borrow3CoweENtB5_8Replacer14replace_append = unnamed_addr alias void (ptr, ptr, ptr), ptr @_RNvXsu_NtNtCsf3B9tbXe5WF_5regex5regex6stringRNtNtCsdJPVW0sQgAG_5alloc6string6StringNtB5_8Replacer14replace_append
@_RNvXsz_NtNtCsf3B9tbXe5WF_5regex5regex5bytesRINtNtCsdJPVW0sQgAG_5alloc6borrow3CowShENtB5_8Replacer14replace_append = unnamed_addr alias void (ptr, ptr, ptr), ptr @_RNvXsw_NtNtCsf3B9tbXe5WF_5regex5regex5bytesRINtNtCsdJPVW0sQgAG_5alloc3vec3VechENtB5_8Replacer14replace_append
@_RNvMNtNtCsf3B9tbXe5WF_5regex8builders6stringNtB2_12RegexBuilder10size_limit = unnamed_addr alias ptr (ptr, i64), ptr @_RNvMNtNtCsf3B9tbXe5WF_5regex8builders5bytesNtB2_12RegexBuilder10size_limit
@_RNvMNtNtCsf3B9tbXe5WF_5regex8builders6stringNtB2_12RegexBuilder14dfa_size_limit = unnamed_addr alias ptr (ptr, i64), ptr @_RNvMNtNtCsf3B9tbXe5WF_5regex8builders5bytesNtB2_12RegexBuilder14dfa_size_limit
@_RNvMNtNtCsf3B9tbXe5WF_5regex8builders6stringNtB2_12RegexBuilder15line_terminator = unnamed_addr alias ptr (ptr, i8), ptr @_RNvMNtNtCsf3B9tbXe5WF_5regex8builders5bytesNtB2_12RegexBuilder15line_terminator
@_RNvMs_NtNtCsf3B9tbXe5WF_5regex8builders5bytesNtB4_15RegexSetBuilder10size_limit = unnamed_addr alias ptr (ptr, i64), ptr @_RNvMNtNtCsf3B9tbXe5WF_5regex8builders5bytesNtB2_12RegexBuilder10size_limit
@_RNvMs_NtNtCsf3B9tbXe5WF_5regex8builders5bytesNtB4_15RegexSetBuilder14dfa_size_limit = unnamed_addr alias ptr (ptr, i64), ptr @_RNvMNtNtCsf3B9tbXe5WF_5regex8builders5bytesNtB2_12RegexBuilder14dfa_size_limit
@_RNvMs_NtNtCsf3B9tbXe5WF_5regex8builders5bytesNtB4_15RegexSetBuilder15line_terminator = unnamed_addr alias ptr (ptr, i8), ptr @_RNvMNtNtCsf3B9tbXe5WF_5regex8builders5bytesNtB2_12RegexBuilder15line_terminator
@_RNvMs_NtNtCsf3B9tbXe5WF_5regex8builders6stringNtB4_15RegexSetBuilder10size_limit = unnamed_addr alias ptr (ptr, i64), ptr @_RNvMNtNtCsf3B9tbXe5WF_5regex8builders5bytesNtB2_12RegexBuilder10size_limit
@_RNvMs_NtNtCsf3B9tbXe5WF_5regex8builders6stringNtB4_15RegexSetBuilder14dfa_size_limit = unnamed_addr alias ptr (ptr, i64), ptr @_RNvMNtNtCsf3B9tbXe5WF_5regex8builders5bytesNtB2_12RegexBuilder14dfa_size_limit
@_RNvMs_NtNtCsf3B9tbXe5WF_5regex8builders6stringNtB4_15RegexSetBuilder15line_terminator = unnamed_addr alias ptr (ptr, i8), ptr @_RNvMNtNtCsf3B9tbXe5WF_5regex8builders5bytesNtB2_12RegexBuilder15line_terminator
@_RNvXs1_NtNtCsf3B9tbXe5WF_5regex5regex5bytesNtB5_5RegexINtNtCsjMrxcFdYDNN_4core7convert7TryFromReE8try_from = unnamed_addr alias void (ptr, ptr, i64), ptr @_RNvXs0_NtNtCsf3B9tbXe5WF_5regex5regex5bytesNtB5_5RegexNtNtNtCsjMrxcFdYDNN_4core3str6traits7FromStr8from_str
@_RNvXs1_NtNtCsf3B9tbXe5WF_5regex5regex6stringNtB5_5RegexINtNtCsjMrxcFdYDNN_4core7convert7TryFromReE8try_from = unnamed_addr alias void (ptr, ptr, i64), ptr @_RNvXs0_NtNtCsf3B9tbXe5WF_5regex5regex6stringNtB5_5RegexNtNtNtCsjMrxcFdYDNN_4core3str6traits7FromStr8from_str
@_RNvXs_NtNtCsf3B9tbXe5WF_5regex5regex6stringNtB4_5RegexNtNtCsjMrxcFdYDNN_4core3fmt5Debug3fmt = unnamed_addr alias i1 (ptr, ptr), ptr @_RNvXs_NtNtCsf3B9tbXe5WF_5regex5regex5bytesNtB4_5RegexNtNtCsjMrxcFdYDNN_4core3fmt5Debug3fmt

; <regex::builders::Builder>::new::<[&str; 1], &str>
; Function Attrs: cold uwtable
define internal fastcc void @_RINvMs_NtCsf3B9tbXe5WF_5regex8buildersNtB5_7Builder3newARej1_BS_EB7_(ptr dead_on_unwind noalias noundef nonnull writable writeonly align 8 captures(none) dereferenceable(168) %_0, ptr dead_on_return noalias noundef nonnull readonly align 8 captures(none) dereferenceable(16) %patterns) unnamed_addr #0 personality ptr @rust_eh_personality {
bb1.i.i.i:
  %b = alloca [168 x i8], align 16
  call void @llvm.lifetime.start.p0(i64 168, ptr nonnull %b)
  %0 = getelementptr inbounds nuw i8, ptr %b, i64 128
  store i64 0, ptr %0, align 16
  %_8.sroa.4.0..sroa_idx = getelementptr inbounds nuw i8, ptr %b, i64 136
  store ptr inttoptr (i64 8 to ptr), ptr %_8.sroa.4.0..sroa_idx, align 8
  %_8.sroa.5.0..sroa_idx = getelementptr inbounds nuw i8, ptr %b, i64 144
  store i64 0, ptr %_8.sroa.5.0..sroa_idx, align 16
  store <2 x i64> <i64 1, i64 2097152>, ptr %b, align 16
  %_7.sroa.5.0.b.sroa_idx = getelementptr inbounds nuw i8, ptr %b, i64 16
  store <2 x i64> <i64 1, i64 10485760>, ptr %_7.sroa.5.0.b.sroa_idx, align 16
  %_7.sroa.7.0.b.sroa_idx = getelementptr inbounds nuw i8, ptr %b, i64 32
  store i64 2, ptr %_7.sroa.7.0.b.sroa_idx, align 16
  %_7.sroa.9.0.b.sroa_idx = getelementptr inbounds nuw i8, ptr %b, i64 48
  store i64 2, ptr %_7.sroa.9.0.b.sroa_idx, align 16
  %_7.sroa.11.0.b.sroa_idx = getelementptr inbounds nuw i8, ptr %b, i64 64
  store i64 2, ptr %_7.sroa.11.0.b.sroa_idx, align 16
  %_7.sroa.13.sroa.4.0._7.sroa.13.0.b.sroa_idx.sroa_idx = getelementptr inbounds nuw i8, ptr %b, i64 104
  store i8 3, ptr %_7.sroa.13.sroa.4.0._7.sroa.13.0.b.sroa_idx.sroa_idx, align 8
  %_7.sroa.14.0.b.sroa_idx = getelementptr inbounds nuw i8, ptr %b, i64 112
  store i8 0, ptr %_7.sroa.14.0.b.sroa_idx, align 16
  %_7.sroa.16.0.b.sroa_idx = getelementptr inbounds nuw i8, ptr %b, i64 114
  %_7.sroa.24.0.b.sroa_idx = getelementptr inbounds nuw i8, ptr %b, i64 122
  store i64 144680345676153346, ptr %_7.sroa.16.0.b.sroa_idx, align 2
  store i8 3, ptr %_7.sroa.24.0.b.sroa_idx, align 2
  %1 = getelementptr inbounds nuw i8, ptr %b, i64 152
  store i32 250, ptr %1, align 8
  %_9.sroa.4.0..sroa_idx = getelementptr inbounds nuw i8, ptr %b, i64 156
  store i8 10, ptr %_9.sroa.4.0..sroa_idx, align 4
  %_9.sroa.5.0..sroa_idx = getelementptr inbounds nuw i8, ptr %b, i64 157
  %_9.sroa.11.0..sroa_idx = getelementptr inbounds nuw i8, ptr %b, i64 163
  call void @llvm.memset.p0.i64(ptr noundef nonnull align 1 dereferenceable(6) %_9.sroa.5.0..sroa_idx, i8 0, i64 6, i1 false)
  store i8 1, ptr %_9.sroa.11.0..sroa_idx, align 1
  %_9.sroa.12.0..sroa_idx = getelementptr inbounds nuw i8, ptr %b, i64 164
  store i8 1, ptr %_9.sroa.12.0..sroa_idx, align 4
  %_9.sroa.13.0..sroa_idx = getelementptr inbounds nuw i8, ptr %b, i64 165
  store i8 0, ptr %_9.sroa.13.0..sroa_idx, align 1
  %_6.sroa.6.16.copyload = load ptr, ptr %patterns, align 8, !alias.scope !2
  %_6.sroa.8.16.patterns.sroa_idx = getelementptr inbounds nuw i8, ptr %patterns, i64 8
  %_6.sroa.8.16.copyload = load i64, ptr %_6.sroa.8.16.patterns.sroa_idx, align 8, !alias.scope !2
  tail call void @llvm.experimental.noalias.scope.decl(metadata !6)
  tail call void @llvm.experimental.noalias.scope.decl(metadata !9)
; invoke <alloc::raw_vec::RawVecInner<_>>::reserve::do_reserve_and_handle::<alloc::alloc::Global>
  invoke fastcc void @_RINvNvMs2_NtCsdJPVW0sQgAG_5alloc7raw_vecINtB8_11RawVecInnerpE7reserve21do_reserve_and_handleNtNtBa_5alloc6GlobalECsf3B9tbXe5WF_5regex(ptr noalias noundef nonnull align 8 dereferenceable(24) %0, i64 noundef 0, i64 noundef 1, i64 noundef 8, i64 noundef 24)
          to label %bb2.i.us.i.i.i.i.i unwind label %cleanup

cleanup:                                          ; preds = %bb7.i.i.i.i.i.i.i.i.i.i, %bb1.i.i.i
  %2 = landingpad { ptr, i32 }
          cleanup
; invoke core::ptr::drop_in_place::<regex::builders::Builder>
  invoke fastcc void @_RINvNtCsjMrxcFdYDNN_4core3ptr13drop_in_placeNtNtCsf3B9tbXe5WF_5regex8builders7BuilderEBK_(ptr noalias noundef align 8 dereferenceable(168) %b) #25
          to label %bb4 unwind label %terminate

bb2.i.us.i.i.i.i.i:                               ; preds = %bb1.i.i.i
  %_27.pre.i.i = load i64, ptr %_8.sroa.5.0..sroa_idx, align 16, !alias.scope !12, !noalias !13
  %_26.i.i.pre = load ptr, ptr %_8.sroa.4.0..sroa_idx, align 8, !alias.scope !12, !noalias !13
  %3 = icmp ne ptr %_6.sroa.6.16.copyload, null
  tail call void @llvm.assume(i1 %3)
  %_23.i.i.i.i.i.i.i.us.not.i.i.i.i.i = icmp eq i64 %_6.sroa.8.16.copyload, 0
  br i1 %_23.i.i.i.i.i.i.i.us.not.i.i.i.i.i, label %bb5, label %bb6.i.i.i.i.i.i.i.us.i.i.i.i.i

bb6.i.i.i.i.i.i.i.us.i.i.i.i.i:                   ; preds = %bb2.i.us.i.i.i.i.i
  %or.cond.not.i.i.i.i.i.us.i.i.i.i.i = icmp sgt i64 %_6.sroa.8.16.copyload, 0
  br i1 %or.cond.not.i.i.i.i.i.us.i.i.i.i.i, label %_RNvXs_NtCsdJPVW0sQgAG_5alloc5allocNtB4_6GlobalNtNtCsjMrxcFdYDNN_4core5alloc9Allocator8allocate.exit.i.i.i.i.i.i.us.i.i.i.i.i, label %bb7.i.i.i.i.i.i.i.i.i.i, !prof !16

_RNvXs_NtCsdJPVW0sQgAG_5alloc5allocNtB4_6GlobalNtNtCsjMrxcFdYDNN_4core5alloc9Allocator8allocate.exit.i.i.i.i.i.i.us.i.i.i.i.i: ; preds = %bb6.i.i.i.i.i.i.i.us.i.i.i.i.i
; call __rustc::__rust_no_alloc_shim_is_unstable_v2
  tail call void @_RNvCsKhRCbHf33p_7___rustc35___rust_no_alloc_shim_is_unstable_v2() #26, !noalias !17
; call __rustc::__rust_alloc
  %4 = tail call noundef ptr @_RNvCsKhRCbHf33p_7___rustc12___rust_alloc(i64 noundef %_6.sroa.8.16.copyload, i64 noundef range(i64 1, -9223372036854775807) 1) #26, !noalias !17
  %5 = icmp eq ptr %4, null
  br i1 %5, label %bb7.i.i.i.i.i.i.i.i.i.i, label %bb10.i.i.i.i.i.i.us.i.i.i.i.i

bb10.i.i.i.i.i.i.us.i.i.i.i.i:                    ; preds = %_RNvXs_NtCsdJPVW0sQgAG_5alloc5allocNtB4_6GlobalNtNtCsjMrxcFdYDNN_4core5alloc9Allocator8allocate.exit.i.i.i.i.i.i.us.i.i.i.i.i
  %6 = ptrtoint ptr %4 to i64
  br label %bb5

bb7.i.i.i.i.i.i.i.i.i.i:                          ; preds = %_RNvXs_NtCsdJPVW0sQgAG_5alloc5allocNtB4_6GlobalNtNtCsjMrxcFdYDNN_4core5alloc9Allocator8allocate.exit.i.i.i.i.i.i.us.i.i.i.i.i, %bb6.i.i.i.i.i.i.i.us.i.i.i.i.i
  %.us-phi4.i.i.i.i.i = phi i64 [ 1, %_RNvXs_NtCsdJPVW0sQgAG_5alloc5allocNtB4_6GlobalNtNtCsjMrxcFdYDNN_4core5alloc9Allocator8allocate.exit.i.i.i.i.i.i.us.i.i.i.i.i ], [ 0, %bb6.i.i.i.i.i.i.i.us.i.i.i.i.i ]
; invoke alloc::raw_vec::handle_error
  invoke void @_RNvNtCsdJPVW0sQgAG_5alloc7raw_vec12handle_error(i64 noundef %.us-phi4.i.i.i.i.i, i64 %_6.sroa.8.16.copyload) #27
          to label %.noexc1 unwind label %cleanup

.noexc1:                                          ; preds = %bb7.i.i.i.i.i.i.i.i.i.i
  unreachable

bb5:                                              ; preds = %bb10.i.i.i.i.i.i.us.i.i.i.i.i, %bb2.i.us.i.i.i.i.i
  %_14.sroa.10.0.i.i.i.i.i.us.i.i.i.i.i = phi i64 [ %6, %bb10.i.i.i.i.i.i.us.i.i.i.i.i ], [ 1, %bb2.i.us.i.i.i.i.i ]
  %7 = inttoptr i64 %_14.sroa.10.0.i.i.i.i.i.us.i.i.i.i.i to ptr
  tail call void @llvm.memcpy.p0.p0.i64(ptr nonnull align 1 %7, ptr nonnull readonly align 1 %_6.sroa.6.16.copyload, i64 %_6.sroa.8.16.copyload, i1 false), !noalias !43
  %_3.i.i.i.i.i.i.us.i.i.i.i.i = getelementptr inbounds nuw %"alloc::string::String", ptr %_26.i.i.pre, i64 %_27.pre.i.i
  store i64 %_6.sroa.8.16.copyload, ptr %_3.i.i.i.i.i.i.us.i.i.i.i.i, align 8, !noalias !44
  %_5.sroa.4.0._3.i.i.sroa_idx.i.i.i.i.us.i.i.i.i.i = getelementptr inbounds nuw i8, ptr %_3.i.i.i.i.i.i.us.i.i.i.i.i, i64 8
  store ptr %7, ptr %_5.sroa.4.0._3.i.i.sroa_idx.i.i.i.i.us.i.i.i.i.i, align 8, !noalias !44
  %_5.sroa.5.0._3.i.i.sroa_idx.i.i.i.i.us.i.i.i.i.i = getelementptr inbounds nuw i8, ptr %_3.i.i.i.i.i.i.us.i.i.i.i.i, i64 16
  store i64 %_6.sroa.8.16.copyload, ptr %_5.sroa.5.0._3.i.i.sroa_idx.i.i.i.i.us.i.i.i.i.i, align 8, !noalias !44
  %8 = add i64 %_27.pre.i.i, 1
  store i64 %8, ptr %_8.sroa.5.0..sroa_idx, align 16, !alias.scope !12, !noalias !49
  call void @llvm.memcpy.p0.p0.i64(ptr noundef nonnull align 8 dereferenceable(168) %_0, ptr noundef nonnull align 8 dereferenceable(168) %b, i64 168, i1 false)
  call void @llvm.lifetime.end.p0(i64 168, ptr nonnull %b)
  ret void

terminate:                                        ; preds = %cleanup
  %9 = landingpad { ptr, i32 }
          filter [0 x ptr] zeroinitializer
; call core::panicking::panic_in_cleanup
  call void @_RNvNtCsjMrxcFdYDNN_4core9panicking16panic_in_cleanup() #28
  unreachable

bb4:                                              ; preds = %cleanup
  resume { ptr, i32 } %2
}

; <regex_automata::meta::regex::Builder>::build_many::<alloc::string::String>
; Function Attrs: uwtable
define internal fastcc void @_RINvMsj_NtNtCsbJQShvh9aPA_14regex_automata4meta5regexNtB6_7Builder10build_manyNtNtCsdJPVW0sQgAG_5alloc6string6StringECsf3B9tbXe5WF_5regex(ptr dead_on_unwind noalias noundef nonnull writable writeonly align 8 captures(none) dereferenceable(136) %_0, ptr noalias noundef nonnull readonly align 8 captures(none) dereferenceable(144) %self, ptr noalias noundef nonnull readonly align 8 captures(address, read_provenance) %patterns.0, i64 noundef range(i64 0, 384307168202282326) %patterns.1) unnamed_addr #1 personality ptr @rust_eh_personality {
start:
  %value.i = alloca [16 x i8], align 8
  %_3.i.i = alloca [1448 x i8], align 8
  %x.i.i = alloca [16 x i8], align 8
  %_61.i = alloca [40 x i8], align 16
  %_13.i = alloca [136 x i8], align 8
  %strat.i = alloca [16 x i8], align 8
  %_9.i39 = alloca [128 x i8], align 8
  %info.i = alloca [8 x i8], align 8
  %config.i = alloca [128 x i8], align 8
  %_52 = alloca [48 x i8], align 8
  %_45 = alloca [40 x i8], align 8
  %_43 = alloca [80 x i8], align 8
  %_42.sroa.6 = alloca [48 x i8], align 8
  %_41.sroa.6 = alloca [48 x i8], align 8
  %hir = alloca [48 x i8], align 8
  %_34.sroa.6155 = alloca i64, align 8
  %_34.sroa.11 = alloca i64, align 8
  %_20 = alloca [200 x i8], align 8
  %_18 = alloca [128 x i8], align 8
  %ast = alloca [16 x i8], align 8
  %hirs = alloca [24 x i8], align 8
  %asts = alloca [24 x i8], align 8
  call void @llvm.lifetime.start.p0(i64 24, ptr nonnull %asts)
  store i64 0, ptr %asts, align 8
  %_5.sroa.2.0.asts.sroa_idx = getelementptr inbounds nuw i8, ptr %asts, i64 8
  store ptr inttoptr (i64 8 to ptr), ptr %_5.sroa.2.0.asts.sroa_idx, align 8
  %_5.sroa.3.0.asts.sroa_idx = getelementptr inbounds nuw i8, ptr %asts, i64 16
  store i64 0, ptr %_5.sroa.3.0.asts.sroa_idx, align 8
  call void @llvm.lifetime.start.p0(i64 24, ptr nonnull %hirs)
  store i64 0, ptr %hirs, align 8
  %_6.sroa.2.0.hirs.sroa_idx = getelementptr inbounds nuw i8, ptr %hirs, i64 8
  store ptr inttoptr (i64 8 to ptr), ptr %_6.sroa.2.0.hirs.sroa_idx, align 8
  %_6.sroa.3.0.hirs.sroa_idx = getelementptr inbounds nuw i8, ptr %hirs, i64 16
  store i64 0, ptr %_6.sroa.3.0.hirs.sroa_idx, align 8
  %_59.idx = mul nuw nsw i64 %patterns.1, 24
  %_59 = getelementptr inbounds nuw i8, ptr %patterns.0, i64 %_59.idx
; invoke <regex_automata::util::primitives::PatternID>::iter
  %0 = invoke { i64, i64 } @_RNvMs10_NtNtCsbJQShvh9aPA_14regex_automata4util10primitivesNtB6_9PatternID4iter(i64 noundef %patterns.1)
          to label %bb1 unwind label %cleanup

bb30:                                             ; preds = %cleanup.i115, %cleanup.body.i.i.i.i81, %bb2.i.i.i.i.i.i.i83, %cleanup.i62, %bb12.i, %bb2.i.i.i4.i.i, %bb18.i, %cleanup, %cleanup9, %bb35, %cleanup6, %bb33
  %.pn = phi { ptr, i32 } [ %193, %cleanup9 ], [ %201, %bb35 ], [ %153, %cleanup6 ], [ %.pn.i.i, %bb33 ], [ %1, %cleanup ], [ %143, %bb18.i ], [ %.pn13.i, %bb2.i.i.i4.i.i ], [ %.pn13.i, %bb12.i ], [ %179, %cleanup.i62 ], [ %185, %bb2.i.i.i.i.i.i.i83 ], [ %185, %cleanup.body.i.i.i.i81 ], [ %197, %cleanup.i115 ]
; invoke core::ptr::drop_in_place::<alloc::vec::Vec<regex_syntax::hir::Hir>>
  invoke fastcc void @_RINvNtCsjMrxcFdYDNN_4core3ptr13drop_in_placeINtNtCsdJPVW0sQgAG_5alloc3vec3VecNtNtCs4jgOJqAujFa_12regex_syntax3hir3HirEECsf3B9tbXe5WF_5regex(ptr noalias noundef align 8 dereferenceable(24) %hirs) #25
          to label %bb31 unwind label %terminate

cleanup:                                          ; preds = %bb8.i.i.invoke, %bb6, %start, %bb45
  %1 = landingpad { ptr, i32 }
          cleanup
  br label %bb30

bb1:                                              ; preds = %start
  %_6.i.i203 = icmp eq i64 %patterns.1, 0
  br i1 %_6.i.i203, label %bb6, label %bb7.i.lr.ph

bb7.i.lr.ph:                                      ; preds = %bb1
  %ids.1.i.i = extractvalue { i64, i64 } %0, 1
  %ids.0.i.i = extractvalue { i64, i64 } %0, 0
  %_21 = getelementptr inbounds nuw i8, ptr %self, i64 136
  %_4.i = load i32, ptr %_21, align 8
  %2 = getelementptr inbounds nuw i8, ptr %self, i64 141
  %3 = load i8, ptr %2, align 1, !range !50
  %4 = getelementptr inbounds nuw i8, ptr %self, i64 142
  %5 = load i8, ptr %4, align 2, !range !50
  %6 = getelementptr inbounds nuw i8, ptr %self, i64 140
  %7 = load i8, ptr %6, align 4, !range !50
  %_2.sroa.4.0..sroa_idx.i = getelementptr inbounds nuw i8, ptr %_20, i64 168
  %8 = getelementptr inbounds nuw i8, ptr %_20, i64 184
  %9 = getelementptr inbounds nuw i8, ptr %_20, i64 188
  %10 = getelementptr inbounds nuw i8, ptr %_20, i64 193
  %11 = getelementptr inbounds nuw i8, ptr %_20, i64 194
  %12 = getelementptr inbounds nuw i8, ptr %_20, i64 195
  %13 = getelementptr inbounds nuw i8, ptr %_20, i64 192
  %_9.sroa.4.sroa.4.0._9.sroa.4.0._0.sroa_idx.sroa_idx.i = getelementptr inbounds nuw i8, ptr %_20, i64 16
  %_9.sroa.4.sroa.5.0._9.sroa.4.0._0.sroa_idx.sroa_idx.i = getelementptr inbounds nuw i8, ptr %_20, i64 24
  %_11.sroa.4.sroa.4.0._11.sroa.4.0..sroa_idx.sroa_idx.i = getelementptr inbounds nuw i8, ptr %_20, i64 48
  %_11.sroa.4.sroa.5.0._11.sroa.4.0..sroa_idx.sroa_idx.i = getelementptr inbounds nuw i8, ptr %_20, i64 56
  %_13.sroa.4.sroa.4.0._13.sroa.4.0..sroa_idx.sroa_idx.i = getelementptr inbounds nuw i8, ptr %_20, i64 80
  %_13.sroa.4.sroa.5.0._13.sroa.4.0..sroa_idx.sroa_idx.i = getelementptr inbounds nuw i8, ptr %_20, i64 88
  %_15.sroa.4.sroa.4.0._15.sroa.4.0..sroa_idx.sroa_idx.i = getelementptr inbounds nuw i8, ptr %_20, i64 112
  %_15.sroa.4.sroa.5.0._15.sroa.4.0..sroa_idx.sroa_idx.i = getelementptr inbounds nuw i8, ptr %_20, i64 120
  %_17.sroa.4.sroa.4.0._17.sroa.4.0..sroa_idx.sroa_idx.i = getelementptr inbounds nuw i8, ptr %_20, i64 144
  %_17.sroa.4.sroa.5.0._17.sroa.4.0..sroa_idx.sroa_idx.i = getelementptr inbounds nuw i8, ptr %_20, i64 152
  %14 = getelementptr inbounds nuw i8, ptr %_18, i64 8
  %15 = getelementptr inbounds nuw i8, ptr %_18, i64 16
  %16 = getelementptr inbounds nuw i8, ptr %ast, i64 8
  %17 = getelementptr inbounds nuw i8, ptr %value.i, i64 8
  %umax = tail call i64 @llvm.umax.i64(i64 %ids.0.i.i, i64 %ids.1.i.i)
  br label %bb7.i

bb7.i:                                            ; preds = %bb7.i.lr.ph, %bb46
  %iter.sroa.0.0205 = phi ptr [ %patterns.0, %bb7.i.lr.ph ], [ %_16.i.i, %bb46 ]
  %iter.sroa.8.0204 = phi i64 [ %ids.0.i.i, %bb7.i.lr.ph ], [ %_16.i, %bb46 ]
  %_16.i.i = getelementptr inbounds nuw i8, ptr %iter.sroa.0.0205, i64 24
  %exitcond.not = icmp eq i64 %iter.sroa.8.0204, %umax
  br i1 %exitcond.not, label %bb8.i.i.invoke, label %bb8, !prof !51

bb6:                                              ; preds = %bb46, %bb1
; invoke <regex_automata::util::primitives::PatternID>::iter
  %18 = invoke { i64, i64 } @_RNvMs10_NtNtCsbJQShvh9aPA_14regex_automata4util10primitivesNtB6_9PatternID4iter(i64 noundef %patterns.1)
          to label %bb12 unwind label %cleanup

bb12:                                             ; preds = %bb6
  %ids.0.i.i29 = extractvalue { i64, i64 } %18, 0
  %ids.1.i.i30 = extractvalue { i64, i64 } %18, 1
  %_82 = load ptr, ptr %_5.sroa.2.0.asts.sroa_idx, align 8, !nonnull !52, !noundef !52
  %_81 = load i64, ptr %_5.sroa.3.0.asts.sroa_idx, align 8, !noundef !52
  %_85 = getelementptr inbounds nuw %"regex_syntax::ast::Ast", ptr %_82, i64 %_81
  %19 = getelementptr inbounds nuw i8, ptr %self, i64 128
  %20 = getelementptr inbounds nuw i8, ptr %self, i64 129
  %21 = load i8, ptr %19, align 8, !range !50
  %22 = getelementptr inbounds nuw i8, ptr %self, i64 135
  %_94 = load i8, ptr %22, align 1
  %_89.sroa.4.0._45.sroa_idx = getelementptr inbounds nuw i8, ptr %_45, i64 8
  %_89.sroa.4.sroa.4.0._89.sroa.4.0._45.sroa_idx.sroa_idx = getelementptr inbounds nuw i8, ptr %_45, i64 16
  %_89.sroa.4.sroa.5.0._89.sroa.4.0._45.sroa_idx.sroa_idx = getelementptr inbounds nuw i8, ptr %_45, i64 24
  %23 = getelementptr inbounds nuw i8, ptr %_45, i64 32
  %24 = getelementptr inbounds nuw i8, ptr %_45, i64 39
  %25 = getelementptr inbounds nuw i8, ptr %_45, i64 38
  %26 = getelementptr inbounds nuw i8, ptr %_43, i64 8
  br label %bb13

bb13:                                             ; preds = %bb51, %bb12
  %iter1.sroa.0.0 = phi ptr [ %patterns.0, %bb12 ], [ %iter1.sroa.0.1, %bb51 ]
  %iter1.sroa.8.0 = phi i64 [ %ids.0.i.i29, %bb12 ], [ %iter1.sroa.8.1, %bb51 ]
  %iter1.sroa.13.0 = phi ptr [ %_82, %bb12 ], [ %iter1.sroa.13.1, %bb51 ]
  %_34.sroa.0.0 = phi i32 [ undef, %bb12 ], [ %_34.sroa.0.1, %bb51 ]
  call void @llvm.lifetime.start.p0(i64 8, ptr nonnull %_34.sroa.6155)
  call void @llvm.lifetime.start.p0(i64 8, ptr nonnull %_34.sroa.11)
  %_6.i.i.i = icmp eq ptr %iter1.sroa.0.0, %_59
  br i1 %_6.i.i.i, label %bb47, label %bb7.i.i

bb7.i.i:                                          ; preds = %bb13
  %_16.i.i.i = getelementptr inbounds nuw i8, ptr %iter1.sroa.0.0, i64 24
  %_13.not.i.i = icmp ult i64 %iter1.sroa.8.0, %ids.1.i.i30
  br i1 %_13.not.i.i, label %bb9.i33, label %bb8.i.i.invoke, !prof !53

bb8.i.i.invoke:                                   ; preds = %bb7.i, %bb7.i.i
; invoke core::option::unwrap_failed
  invoke void @_RNvNtCsjMrxcFdYDNN_4core6option13unwrap_failed(ptr noalias noundef readonly align 8 captures(address, read_provenance) dereferenceable(24) @alloc_57232c587ff8846c3318602822183508) #27
          to label %bb8.i.i.cont unwind label %cleanup

bb8.i.i.cont:                                     ; preds = %bb8.i.i.invoke
  unreachable

bb9.i33:                                          ; preds = %bb7.i.i
  %_16.i.i34 = add nuw i64 %iter1.sroa.8.0, 1
  %_6.i.i37 = icmp eq ptr %iter1.sroa.13.0, %_85
  br i1 %_6.i.i37, label %bb47, label %bb11.i

bb11.i:                                           ; preds = %bb9.i33
  %_20.i.i = trunc i64 %iter1.sroa.8.0 to i32
  %_16.i8.i = getelementptr inbounds nuw i8, ptr %iter1.sroa.13.0, i64 16
  %27 = ptrtoint ptr %iter1.sroa.0.0 to i64
  store i64 %27, ptr %_34.sroa.6155, align 8, !alias.scope !54, !noalias !57
  br label %bb47

bb47:                                             ; preds = %bb11.i, %bb9.i33, %bb13
  %iter1.sroa.0.1 = phi ptr [ %_59, %bb13 ], [ %_16.i.i.i, %bb9.i33 ], [ %_16.i.i.i, %bb11.i ]
  %iter1.sroa.8.1 = phi i64 [ %iter1.sroa.8.0, %bb13 ], [ %_16.i.i34, %bb9.i33 ], [ %_16.i.i34, %bb11.i ]
  %iter1.sroa.13.1 = phi ptr [ %iter1.sroa.13.0, %bb13 ], [ %_85, %bb9.i33 ], [ %_16.i8.i, %bb11.i ]
  %_34.sroa.0.1 = phi i32 [ %_34.sroa.0.0, %bb13 ], [ %_34.sroa.0.0, %bb9.i33 ], [ %_20.i.i, %bb11.i ]
  %.sink17.i.sroa.phi = phi ptr [ %_34.sroa.6155, %bb13 ], [ %_34.sroa.6155, %bb9.i33 ], [ %_34.sroa.11, %bb11.i ]
  %.sink.i = phi ptr [ null, %bb13 ], [ null, %bb9.i33 ], [ %iter1.sroa.13.0, %bb11.i ]
  store ptr %.sink.i, ptr %.sink17.i.sroa.phi, align 8, !alias.scope !54, !noalias !57
  %_34.sroa.6155.0._34.sroa.6155.0._34.sroa.6155.0._34.sroa.6155.8. = load i64, ptr %_34.sroa.6155, align 8, !noundef !52
  %.not21 = icmp eq i64 %_34.sroa.6155.0._34.sroa.6155.0._34.sroa.6155.0._34.sroa.6155.8., 0
  br i1 %.not21, label %bb15, label %bb16

bb15:                                             ; preds = %bb47
  call void @llvm.lifetime.end.p0(i64 8, ptr nonnull %_34.sroa.6155)
  call void @llvm.lifetime.end.p0(i64 8, ptr nonnull %_34.sroa.11)
  %_100 = load ptr, ptr %_6.sroa.2.0.hirs.sroa_idx, align 8, !nonnull !52, !noundef !52
  %_99 = load i64, ptr %_6.sroa.3.0.hirs.sroa_idx, align 8, !noundef !52
  call void @llvm.experimental.noalias.scope.decl(metadata !59)
  call void @llvm.experimental.noalias.scope.decl(metadata !62)
  call void @llvm.lifetime.start.p0(i64 128, ptr nonnull %config.i), !noalias !64
  call void @llvm.experimental.noalias.scope.decl(metadata !66)
  call void @llvm.experimental.noalias.scope.decl(metadata !69)
  %28 = getelementptr inbounds nuw i8, ptr %self, i64 114
  %29 = load i8, ptr %28, align 2, !range !71, !alias.scope !72, !noalias !73, !noundef !52
  %30 = getelementptr inbounds nuw i8, ptr %self, i64 115
  %31 = load i8, ptr %30, align 1, !range !71, !alias.scope !72, !noalias !73, !noundef !52
  %32 = getelementptr inbounds nuw i8, ptr %self, i64 116
  %33 = load i8, ptr %32, align 4, !range !71, !alias.scope !72, !noalias !73, !noundef !52
  %34 = getelementptr inbounds nuw i8, ptr %self, i64 104
  %35 = load i8, ptr %34, align 8, !range !74, !alias.scope !72, !noalias !73, !noundef !52
  %.not3.i.i = icmp eq i8 %35, 3
  br i1 %.not3.i.i, label %_RNvXsw_NtNtCsbJQShvh9aPA_14regex_automata4meta5regexNtB5_6ConfigNtNtCsjMrxcFdYDNN_4core5clone5Clone5clone.exit.i, label %bb15.i.i

bb15.i.i:                                         ; preds = %bb15
  call void @llvm.experimental.noalias.scope.decl(metadata !75)
  %.not.i.i.i = icmp eq i8 %35, 2
  br i1 %.not.i.i.i, label %_RNvXsw_NtNtCsbJQShvh9aPA_14regex_automata4meta5regexNtB5_6ConfigNtNtCsjMrxcFdYDNN_4core5clone5Clone5clone.exit.i, label %bb3.i.i.i

bb3.i.i.i:                                        ; preds = %bb15.i.i
  %36 = getelementptr inbounds nuw i8, ptr %self, i64 80
  call void @llvm.experimental.noalias.scope.decl(metadata !78)
  %_10.0.i.i.i.i = load ptr, ptr %36, align 8, !alias.scope !81, !noalias !82, !nonnull !52, !noundef !52
  %37 = atomicrmw add ptr %_10.0.i.i.i.i, i64 1 monotonic, align 8, !noalias !85
  %_6.i.i.i.i = icmp slt i64 %37, 0
  br i1 %_6.i.i.i.i, label %bb1.i.i.i.i, label %_RNvXs1_NtNtCsbJQShvh9aPA_14regex_automata4util9prefilterNtB5_9PrefilterNtNtCsjMrxcFdYDNN_4core5clone5Clone5clone.exit.i.i.i

bb1.i.i.i.i:                                      ; preds = %bb3.i.i.i
  call void @llvm.trap()
  unreachable

_RNvXs1_NtNtCsbJQShvh9aPA_14regex_automata4util9prefilterNtB5_9PrefilterNtNtCsjMrxcFdYDNN_4core5clone5Clone5clone.exit.i.i.i: ; preds = %bb3.i.i.i
  %38 = getelementptr inbounds nuw i8, ptr %self, i64 88
  %_8.1.i.i.i.i = load ptr, ptr %38, align 8, !alias.scope !81, !noalias !82, !nonnull !52, !align !86, !noundef !52
  %39 = getelementptr inbounds nuw i8, ptr %self, i64 96
  %_4.i.i.i.i = load i64, ptr %39, align 8, !alias.scope !81, !noalias !82, !noundef !52
  br label %_RNvXsw_NtNtCsbJQShvh9aPA_14regex_automata4meta5regexNtB5_6ConfigNtNtCsjMrxcFdYDNN_4core5clone5Clone5clone.exit.i

_RNvXsw_NtNtCsbJQShvh9aPA_14regex_automata4meta5regexNtB5_6ConfigNtNtCsjMrxcFdYDNN_4core5clone5Clone5clone.exit.i: ; preds = %_RNvXs1_NtNtCsbJQShvh9aPA_14regex_automata4util9prefilterNtB5_9PrefilterNtNtCsjMrxcFdYDNN_4core5clone5Clone5clone.exit.i.i.i, %bb15.i.i, %bb15
  %_5.sroa.5.0.i.i = phi i64 [ undef, %bb15.i.i ], [ %_4.i.i.i.i, %_RNvXs1_NtNtCsbJQShvh9aPA_14regex_automata4util9prefilterNtB5_9PrefilterNtNtCsjMrxcFdYDNN_4core5clone5Clone5clone.exit.i.i.i ], [ undef, %bb15 ]
  %_5.sroa.4.0.i.i = phi ptr [ undef, %bb15.i.i ], [ %_8.1.i.i.i.i, %_RNvXs1_NtNtCsbJQShvh9aPA_14regex_automata4util9prefilterNtB5_9PrefilterNtNtCsjMrxcFdYDNN_4core5clone5Clone5clone.exit.i.i.i ], [ undef, %bb15 ]
  %_5.sroa.0.0.i.i = phi ptr [ undef, %bb15.i.i ], [ %_10.0.i.i.i.i, %_RNvXs1_NtNtCsbJQShvh9aPA_14regex_automata4util9prefilterNtB5_9PrefilterNtNtCsjMrxcFdYDNN_4core5clone5Clone5clone.exit.i.i.i ], [ undef, %bb15 ]
  %40 = getelementptr inbounds nuw i8, ptr %self, i64 122
  %41 = load i8, ptr %40, align 2, !range !74, !alias.scope !72, !noalias !73, !noundef !52
  %42 = getelementptr inbounds nuw i8, ptr %self, i64 16
  %43 = load i64, ptr %42, align 8, !range !87, !alias.scope !72, !noalias !73, !noundef !52
  %.not5.i.i = icmp eq i64 %43, 2
  %44 = getelementptr inbounds nuw i8, ptr %self, i64 24
  %.val22.i.i = load i64, ptr %44, align 8, !alias.scope !72, !noalias !73
  %45 = trunc nuw i64 %43 to i1
  %spec.select.i.i.i = select i1 %45, i64 %.val22.i.i, i64 undef
  %_7.sroa.5.0.i.i = select i1 %.not5.i.i, i64 undef, i64 %spec.select.i.i.i
  %46 = getelementptr inbounds nuw i8, ptr %self, i64 32
  %47 = load i64, ptr %46, align 8, !range !87, !alias.scope !72, !noalias !73, !noundef !52
  %.not6.i.i = icmp eq i64 %47, 2
  %48 = getelementptr inbounds nuw i8, ptr %self, i64 40
  %.val20.i.i = load i64, ptr %48, align 8, !alias.scope !72, !noalias !73
  %49 = trunc nuw i64 %47 to i1
  %spec.select.i23.i.i = select i1 %49, i64 %.val20.i.i, i64 undef
  %_8.sroa.5.0.i.i = select i1 %.not6.i.i, i64 undef, i64 %spec.select.i23.i.i
  %_31.i.i = load i64, ptr %self, align 8, !range !88, !alias.scope !72, !noalias !73, !noundef !52
  %50 = getelementptr inbounds nuw i8, ptr %self, i64 8
  %51 = load i64, ptr %50, align 8, !alias.scope !72, !noalias !73
  %52 = getelementptr inbounds nuw i8, ptr %self, i64 117
  %53 = getelementptr inbounds nuw i8, ptr %self, i64 48
  %54 = load i64, ptr %53, align 8, !range !87, !alias.scope !72, !noalias !73, !noundef !52
  %.not9.i.i = icmp eq i64 %54, 2
  %55 = getelementptr inbounds nuw i8, ptr %self, i64 56
  %.val18.i.i = load i64, ptr %55, align 8, !alias.scope !72, !noalias !73
  %56 = trunc nuw i64 %54 to i1
  %spec.select.i25.i.i = select i1 %56, i64 %.val18.i.i, i64 undef
  %_12.sroa.5.0.i.i = select i1 %.not9.i.i, i64 undef, i64 %spec.select.i25.i.i
  %57 = getelementptr inbounds nuw i8, ptr %self, i64 64
  %58 = load i64, ptr %57, align 8, !range !87, !alias.scope !72, !noalias !73, !noundef !52
  %.not10.i.i = icmp eq i64 %58, 2
  %59 = getelementptr inbounds nuw i8, ptr %self, i64 72
  %.val16.i.i = load i64, ptr %59, align 8, !alias.scope !72, !noalias !73
  %60 = trunc nuw i64 %58 to i1
  %spec.select.i27.i.i = select i1 %60, i64 %.val16.i.i, i64 undef
  %_13.sroa.5.0.i.i = select i1 %.not10.i.i, i64 undef, i64 %spec.select.i27.i.i
  %61 = trunc nuw i64 %_31.i.i to i1
  %_9.sroa.5.0.i.i = select i1 %61, i64 %51, i64 undef
  %62 = getelementptr inbounds nuw i8, ptr %self, i64 121
  %63 = load i8, ptr %62, align 1, !range !71, !alias.scope !72, !noalias !73, !noundef !52
  %64 = getelementptr inbounds nuw i8, ptr %self, i64 112
  %65 = load i8, ptr %64, align 8, !range !50, !alias.scope !72, !noalias !73, !noundef !52
  %66 = trunc nuw i8 %65 to i1
  %67 = getelementptr inbounds nuw i8, ptr %self, i64 113
  %68 = load i8, ptr %67, align 1, !alias.scope !72, !noalias !73
  %_17.sroa.5.0.i.i = select i1 %66, i8 %68, i8 undef
  %69 = getelementptr inbounds nuw i8, ptr %config.i, i64 114
  store i8 %29, ptr %69, align 2, !alias.scope !66, !noalias !89
  %70 = getelementptr inbounds nuw i8, ptr %config.i, i64 115
  store i8 %31, ptr %70, align 1, !alias.scope !66, !noalias !89
  %71 = getelementptr inbounds nuw i8, ptr %config.i, i64 116
  store i8 %33, ptr %71, align 4, !alias.scope !66, !noalias !89
  %72 = getelementptr inbounds nuw i8, ptr %config.i, i64 80
  store ptr %_5.sroa.0.0.i.i, ptr %72, align 8, !alias.scope !66, !noalias !89
  %_5.sroa.4.0..sroa_idx.i.i = getelementptr inbounds nuw i8, ptr %config.i, i64 88
  store ptr %_5.sroa.4.0.i.i, ptr %_5.sroa.4.0..sroa_idx.i.i, align 8, !alias.scope !66, !noalias !89
  %_5.sroa.5.0..sroa_idx.i.i = getelementptr inbounds nuw i8, ptr %config.i, i64 96
  store i64 %_5.sroa.5.0.i.i, ptr %_5.sroa.5.0..sroa_idx.i.i, align 8, !alias.scope !66, !noalias !89
  %_5.sroa.6.0..sroa_idx.i.i = getelementptr inbounds nuw i8, ptr %config.i, i64 104
  store i8 %35, ptr %_5.sroa.6.0..sroa_idx.i.i, align 8, !alias.scope !66, !noalias !89
  %73 = getelementptr inbounds nuw i8, ptr %config.i, i64 122
  store i8 %41, ptr %73, align 2, !alias.scope !66, !noalias !89
  %74 = getelementptr inbounds nuw i8, ptr %config.i, i64 16
  store i64 %43, ptr %74, align 8, !alias.scope !66, !noalias !89
  %75 = getelementptr inbounds nuw i8, ptr %config.i, i64 24
  store i64 %_7.sroa.5.0.i.i, ptr %75, align 8, !alias.scope !66, !noalias !89
  %76 = getelementptr inbounds nuw i8, ptr %config.i, i64 32
  store i64 %47, ptr %76, align 8, !alias.scope !66, !noalias !89
  %77 = getelementptr inbounds nuw i8, ptr %config.i, i64 40
  store i64 %_8.sroa.5.0.i.i, ptr %77, align 8, !alias.scope !66, !noalias !89
  store i64 %_31.i.i, ptr %config.i, align 8, !alias.scope !66, !noalias !89
  %78 = getelementptr inbounds nuw i8, ptr %config.i, i64 8
  store i64 %_9.sroa.5.0.i.i, ptr %78, align 8, !alias.scope !66, !noalias !89
  %79 = getelementptr inbounds nuw i8, ptr %config.i, i64 117
  %80 = getelementptr inbounds nuw i8, ptr %config.i, i64 48
  store i64 %54, ptr %80, align 8, !alias.scope !66, !noalias !89
  %81 = getelementptr inbounds nuw i8, ptr %config.i, i64 56
  store i64 %_12.sroa.5.0.i.i, ptr %81, align 8, !alias.scope !66, !noalias !89
  %82 = getelementptr inbounds nuw i8, ptr %config.i, i64 64
  store i64 %58, ptr %82, align 8, !alias.scope !66, !noalias !89
  %83 = getelementptr inbounds nuw i8, ptr %config.i, i64 72
  store i64 %_13.sroa.5.0.i.i, ptr %83, align 8, !alias.scope !66, !noalias !89
  %84 = load <4 x i8>, ptr %52, align 1, !alias.scope !72, !noalias !73
  store <4 x i8> %84, ptr %79, align 1, !alias.scope !66, !noalias !89
  %85 = getelementptr inbounds nuw i8, ptr %config.i, i64 121
  store i8 %63, ptr %85, align 1, !alias.scope !66, !noalias !89
  %86 = getelementptr inbounds nuw i8, ptr %config.i, i64 112
  store i8 %65, ptr %86, align 8, !alias.scope !66, !noalias !89
  %87 = getelementptr inbounds nuw i8, ptr %config.i, i64 113
  store i8 %_17.sroa.5.0.i.i, ptr %87, align 1, !alias.scope !66, !noalias !89
  %_23.i.i.i.i.i.i = icmp eq i64 %_99, 0
  br i1 %_23.i.i.i.i.i.i, label %bb23.i, label %_RNvXs_NtCsdJPVW0sQgAG_5alloc5allocNtB4_6GlobalNtNtCsjMrxcFdYDNN_4core5alloc9Allocator8allocate.exit.i.i.i.i.i

_RNvXs_NtCsdJPVW0sQgAG_5alloc5allocNtB4_6GlobalNtNtCsjMrxcFdYDNN_4core5alloc9Allocator8allocate.exit.i.i.i.i.i: ; preds = %_RNvXsw_NtNtCsbJQShvh9aPA_14regex_automata4meta5regexNtB5_6ConfigNtNtCsjMrxcFdYDNN_4core5clone5Clone5clone.exit.i
  %_24.i.i.i.i.i.i = shl nuw nsw i64 %_99, 3
; call __rustc::__rust_no_alloc_shim_is_unstable_v2
  call void @_RNvCsKhRCbHf33p_7___rustc35___rust_no_alloc_shim_is_unstable_v2() #26, !noalias !90
; call __rustc::__rust_alloc
  %88 = call noundef align 8 ptr @_RNvCsKhRCbHf33p_7___rustc12___rust_alloc(i64 noundef %_24.i.i.i.i.i.i, i64 noundef range(i64 1, -9223372036854775807) 8) #26, !noalias !90
  %89 = icmp eq ptr %88, null
  br i1 %89, label %bb3.i.i.i.i, label %bb28.i.i.i.i.i.i.i.i.preheader

bb28.i.i.i.i.i.i.i.i.preheader:                   ; preds = %_RNvXs_NtCsdJPVW0sQgAG_5alloc5allocNtB4_6GlobalNtNtCsjMrxcFdYDNN_4core5alloc9Allocator8allocate.exit.i.i.i.i.i
  %min.iters.check = icmp ult i64 %_99, 8
  br i1 %min.iters.check, label %bb28.i.i.i.i.i.i.i.i.preheader293, label %vector.ph

vector.ph:                                        ; preds = %bb28.i.i.i.i.i.i.i.i.preheader
  %n.vec = and i64 %_99, -8
  br label %vector.body

vector.body:                                      ; preds = %vector.body, %vector.ph
  %index = phi i64 [ 0, %vector.ph ], [ %index.next, %vector.body ]
  %vec.ind = phi <2 x i64> [ <i64 0, i64 1>, %vector.ph ], [ %vec.ind.next, %vector.body ]
  %step.add = add <2 x i64> %vec.ind, splat (i64 2)
  %step.add.2 = add <2 x i64> %vec.ind, splat (i64 4)
  %step.add.3 = add <2 x i64> %vec.ind, splat (i64 6)
  %90 = getelementptr inbounds nuw %"regex_syntax::hir::Hir", ptr %_100, <2 x i64> %vec.ind
  %91 = getelementptr inbounds nuw %"regex_syntax::hir::Hir", ptr %_100, <2 x i64> %step.add
  %92 = getelementptr inbounds nuw %"regex_syntax::hir::Hir", ptr %_100, <2 x i64> %step.add.2
  %93 = getelementptr inbounds nuw %"regex_syntax::hir::Hir", ptr %_100, <2 x i64> %step.add.3
  %94 = getelementptr inbounds nuw ptr, ptr %88, i64 %index
  %95 = getelementptr inbounds nuw i8, ptr %94, i64 16
  %96 = getelementptr inbounds nuw i8, ptr %94, i64 32
  %97 = getelementptr inbounds nuw i8, ptr %94, i64 48
  store <2 x ptr> %90, ptr %94, align 8, !noalias !97
  store <2 x ptr> %91, ptr %95, align 8, !noalias !97
  store <2 x ptr> %92, ptr %96, align 8, !noalias !97
  store <2 x ptr> %93, ptr %97, align 8, !noalias !97
  %index.next = add nuw i64 %index, 8
  %vec.ind.next = add <2 x i64> %vec.ind, splat (i64 8)
  %98 = icmp eq i64 %index.next, %n.vec
  br i1 %98, label %middle.block, label %vector.body, !llvm.loop !117

middle.block:                                     ; preds = %vector.body
  %cmp.n = icmp eq i64 %_99, %n.vec
  br i1 %cmp.n, label %bb23.i, label %bb28.i.i.i.i.i.i.i.i.preheader293

bb28.i.i.i.i.i.i.i.i.preheader293:                ; preds = %bb28.i.i.i.i.i.i.i.i.preheader, %middle.block
  %.ph = phi i64 [ 0, %bb28.i.i.i.i.i.i.i.i.preheader ], [ %n.vec, %middle.block ]
  br label %bb28.i.i.i.i.i.i.i.i

bb3.i.i.i.i:                                      ; preds = %_RNvXs_NtCsdJPVW0sQgAG_5alloc5allocNtB4_6GlobalNtNtCsjMrxcFdYDNN_4core5alloc9Allocator8allocate.exit.i.i.i.i.i
; invoke alloc::raw_vec::handle_error
  invoke void @_RNvNtCsdJPVW0sQgAG_5alloc7raw_vec12handle_error(i64 noundef 8, i64 %_24.i.i.i.i.i.i) #27
          to label %.noexc.i unwind label %bb18.i, !noalias !120

.noexc.i:                                         ; preds = %bb3.i.i.i.i
  unreachable

bb28.i.i.i.i.i.i.i.i:                             ; preds = %bb28.i.i.i.i.i.i.i.i.preheader293, %bb28.i.i.i.i.i.i.i.i
  %99 = phi i64 [ %100, %bb28.i.i.i.i.i.i.i.i ], [ %.ph, %bb28.i.i.i.i.i.i.i.i.preheader293 ]
  %_46.i.i.i.i.i.i.i.i = getelementptr inbounds nuw %"regex_syntax::hir::Hir", ptr %_100, i64 %99
  %_3.i.i.i.i.i.i.i.i.i.i.i = getelementptr inbounds nuw ptr, ptr %88, i64 %99
  store ptr %_46.i.i.i.i.i.i.i.i, ptr %_3.i.i.i.i.i.i.i.i.i.i.i, align 8, !noalias !97
  %100 = add nuw nsw i64 %99, 1
  %_28.i.i.i.i.i.i.i.i = icmp eq i64 %100, %_99
  br i1 %_28.i.i.i.i.i.i.i.i, label %bb23.i, label %bb28.i.i.i.i.i.i.i.i, !llvm.loop !121

bb23.i:                                           ; preds = %bb28.i.i.i.i.i.i.i.i, %middle.block, %_RNvXsw_NtNtCsbJQShvh9aPA_14regex_automata4meta5regexNtB5_6ConfigNtNtCsjMrxcFdYDNN_4core5clone5Clone5clone.exit.i
  %101 = phi ptr [ inttoptr (i64 8 to ptr), %_RNvXsw_NtNtCsbJQShvh9aPA_14regex_automata4meta5regexNtB5_6ConfigNtNtCsjMrxcFdYDNN_4core5clone5Clone5clone.exit.i ], [ %88, %middle.block ], [ %88, %bb28.i.i.i.i.i.i.i.i ]
  call void @llvm.lifetime.start.p0(i64 8, ptr nonnull %info.i), !noalias !64
  call void @llvm.lifetime.start.p0(i64 128, ptr nonnull %_9.i39), !noalias !64
  call void @llvm.memcpy.p0.p0.i64(ptr noundef nonnull align 8 dereferenceable(128) %_9.i39, ptr noundef nonnull align 8 dereferenceable(128) %config.i, i64 128, i1 false), !noalias !64
; invoke <regex_automata::meta::regex::RegexInfo>::new
  %102 = invoke noundef nonnull ptr @_RNvMs4_NtNtCsbJQShvh9aPA_14regex_automata4meta5regexNtB5_9RegexInfo3new(ptr noalias noundef nonnull align 8 captures(address) dereferenceable(128) %_9.i39, ptr noalias noundef nonnull readonly align 8 captures(address, read_provenance) %101, i64 noundef range(i64 0, 192153584101141163) %_99)
          to label %bb2.i unwind label %cleanup1.i, !noalias !120

bb12.i:                                           ; preds = %bb2.i.i.i48.i, %bb16.i, %cleanup4.body.i, %cleanup1.i
  %.pn13.i = phi { ptr, i32 } [ %103, %cleanup1.i ], [ %134, %cleanup4.body.i ], [ %.pn.pn.ph.i, %bb2.i.i.i48.i ], [ %.pn.pn.ph.i, %bb16.i ]
  br i1 %_23.i.i.i.i.i.i, label %bb30, label %bb2.i.i.i4.i.i

bb2.i.i.i4.i.i:                                   ; preds = %bb12.i
  %alloc_size.i.i.i.i5.i.i = shl nuw nsw i64 %_99, 3
; call __rustc::__rust_dealloc
  call void @_RNvCsKhRCbHf33p_7___rustc14___rust_dealloc(ptr noundef nonnull %101, i64 noundef %alloc_size.i.i.i.i5.i.i, i64 noundef range(i64 1, -9223372036854775807) 8) #26, !noalias !120
  br label %bb30

cleanup1.i:                                       ; preds = %bb2.i.i.i.i, %bb23.i
  %103 = landingpad { ptr, i32 }
          cleanup
  br label %bb12.i

bb2.i:                                            ; preds = %bb23.i
  store ptr %102, ptr %info.i, align 8, !noalias !64
  call void @llvm.lifetime.end.p0(i64 128, ptr nonnull %_9.i39), !noalias !64
  call void @llvm.lifetime.start.p0(i64 16, ptr nonnull %strat.i), !noalias !64
  call void @llvm.lifetime.start.p0(i64 136, ptr nonnull %_13.i), !noalias !64
; invoke regex_automata::meta::strategy::new
  invoke void @_RNvNtNtCsbJQShvh9aPA_14regex_automata4meta8strategy3new(ptr noalias noundef nonnull sret([136 x i8]) align 8 captures(none) dereferenceable(136) %_13.i, ptr noalias noundef nonnull readonly align 8 captures(address, read_provenance) dereferenceable(8) %info.i, ptr noalias noundef nonnull readonly align 8 captures(address, read_provenance) %101, i64 noundef range(i64 0, 192153584101141163) %_99)
          to label %bb3.i unwind label %cleanup2.i, !noalias !120

cleanup2.i:                                       ; preds = %bb2.i
  %104 = landingpad { ptr, i32 }
          cleanup
  br label %bb16.i

bb3.i:                                            ; preds = %bb2.i
  %105 = load i64, ptr %_13.i, align 8, !range !122, !noalias !64, !noundef !52
  %.not.i = icmp eq i64 %105, -9223372036854775806
  %106 = getelementptr inbounds nuw i8, ptr %_13.i, i64 8
  %_48.0.i = load ptr, ptr %106, align 8, !noalias !64
  %107 = getelementptr inbounds nuw i8, ptr %_13.i, i64 16
  %_48.1.i = load ptr, ptr %107, align 8, !noalias !64
  br i1 %.not.i, label %bb25.i, label %bb24.i

bb24.i:                                           ; preds = %bb3.i
  %_49.sroa.7.0._13.sroa_idx.i = getelementptr inbounds nuw i8, ptr %_13.i, i64 24
  %_59.sroa.4.0._0.sroa_idx.i = getelementptr inbounds nuw i8, ptr %_0, i64 24
  call void @llvm.memcpy.p0.p0.i64(ptr noundef nonnull align 8 dereferenceable(112) %_59.sroa.4.0._0.sroa_idx.i, ptr noundef nonnull align 8 dereferenceable(112) %_49.sroa.7.0._13.sroa_idx.i, i64 112, i1 false), !noalias !123
  call void @llvm.lifetime.end.p0(i64 136, ptr nonnull %_13.i), !noalias !64
  store i64 %105, ptr %_0, align 8, !alias.scope !59, !noalias !123
  %_59.sroa.2.0._0.sroa_idx.i = getelementptr inbounds nuw i8, ptr %_0, i64 8
  store ptr %_48.0.i, ptr %_59.sroa.2.0._0.sroa_idx.i, align 8, !alias.scope !59, !noalias !123
  %_59.sroa.3.0._0.sroa_idx.i = getelementptr inbounds nuw i8, ptr %_0, i64 16
  store ptr %_48.1.i, ptr %_59.sroa.3.0._0.sroa_idx.i, align 8, !alias.scope !59, !noalias !123
  call void @llvm.lifetime.end.p0(i64 16, ptr nonnull %strat.i), !noalias !64
  call void @llvm.experimental.noalias.scope.decl(metadata !124)
  call void @llvm.experimental.noalias.scope.decl(metadata !127)
  call void @llvm.experimental.noalias.scope.decl(metadata !130)
  %_10.i.i.i.i = load ptr, ptr %info.i, align 8, !alias.scope !133, !noalias !64, !nonnull !52, !noundef !52
  %108 = atomicrmw sub ptr %_10.i.i.i.i, i64 1 release, align 8, !noalias !134
  %109 = icmp eq i64 %108, 1
  br i1 %109, label %bb2.i.i.i.i, label %bb8.i40

bb2.i.i.i.i:                                      ; preds = %bb24.i
  fence acquire
; invoke <alloc::sync::Arc<regex_automata::meta::regex::RegexInfoI>>::drop_slow
  invoke void @_RNvMsn_NtCsdJPVW0sQgAG_5alloc4syncINtB5_3ArcNtNtNtCsbJQShvh9aPA_14regex_automata4meta5regex10RegexInfoIE9drop_slowBM_(ptr noalias noundef nonnull align 8 dereferenceable(8) %info.i) #29
          to label %bb8.i40 unwind label %cleanup1.i, !noalias !120

bb25.i:                                           ; preds = %bb3.i
  call void @llvm.lifetime.end.p0(i64 136, ptr nonnull %_13.i), !noalias !64
  store ptr %_48.0.i, ptr %strat.i, align 8, !noalias !64
  %110 = getelementptr inbounds nuw i8, ptr %strat.i, i64 8
  store ptr %_48.1.i, ptr %110, align 8, !noalias !64
  %111 = atomicrmw add ptr %_48.0.i, i64 1 monotonic, align 8, !noalias !120
  %_52.i = icmp slt i64 %111, 0
  br i1 %_52.i, label %bb26.i, label %bb27.i

bb27.i:                                           ; preds = %bb25.i
  call void @llvm.lifetime.start.p0(i64 16, ptr nonnull %x.i.i), !noalias !64
  store ptr %_48.0.i, ptr %x.i.i, align 8, !noalias !135
  %112 = getelementptr inbounds nuw i8, ptr %x.i.i, i64 8
  store ptr %_48.1.i, ptr %112, align 8, !noalias !135
; call __rustc::__rust_no_alloc_shim_is_unstable_v2
  call void @_RNvCsKhRCbHf33p_7___rustc35___rust_no_alloc_shim_is_unstable_v2() #26, !noalias !120
; call __rustc::__rust_alloc
  %113 = call noundef align 8 dereferenceable_or_null(16) ptr @_RNvCsKhRCbHf33p_7___rustc12___rust_alloc(i64 noundef 16, i64 noundef 8) #26, !noalias !120
  %114 = icmp eq ptr %113, null
  br i1 %114, label %bb2.i.i, label %bb5.i, !prof !51

bb2.i.i:                                          ; preds = %bb27.i
; invoke alloc::alloc::handle_alloc_error
  invoke void @_RNvNtCsdJPVW0sQgAG_5alloc5alloc18handle_alloc_error(i64 noundef 8, i64 noundef 16) #27
          to label %.noexc29.i unwind label %cleanup.i18.i, !noalias !120

.noexc29.i:                                       ; preds = %bb2.i.i
  unreachable

cleanup.i18.i:                                    ; preds = %bb2.i.i
  %115 = landingpad { ptr, i32 }
          cleanup
  %116 = atomicrmw sub ptr %_48.0.i, i64 1 release, align 8, !noalias !138
  %117 = icmp eq i64 %116, 1
  br i1 %117, label %bb2.i.i.i31.i, label %bb14.i

bb2.i.i.i31.i:                                    ; preds = %cleanup.i18.i
  fence acquire
; invoke <alloc::sync::Arc<dyn regex_automata::meta::strategy::Strategy>>::drop_slow
  invoke void @_RNvMsn_NtCsdJPVW0sQgAG_5alloc4syncINtB5_3ArcDNtNtNtCsbJQShvh9aPA_14regex_automata4meta8strategy8StrategyEL_E9drop_slowBN_(ptr noalias noundef nonnull align 8 dereferenceable(16) %x.i.i) #29
          to label %bb14.i unwind label %terminate.i19.i, !noalias !120

terminate.i19.i:                                  ; preds = %bb2.i.i.i31.i
  %118 = landingpad { ptr, i32 }
          filter [0 x ptr] zeroinitializer
; call core::panicking::panic_in_cleanup
  call void @_RNvNtCsjMrxcFdYDNN_4core9panicking16panic_in_cleanup() #28, !noalias !120
  unreachable

bb26.i:                                           ; preds = %bb25.i
  call void @llvm.trap()
  unreachable

bb5.i:                                            ; preds = %bb27.i
  store ptr %_48.0.i, ptr %113, align 8, !noalias !120
  %119 = getelementptr inbounds nuw i8, ptr %113, i64 8
  store ptr %_48.1.i, ptr %119, align 8, !noalias !120
  call void @llvm.lifetime.end.p0(i64 16, ptr nonnull %x.i.i), !noalias !64
  call void @llvm.lifetime.start.p0(i64 1448, ptr nonnull %_3.i.i), !noalias !64
  call void @llvm.experimental.noalias.scope.decl(metadata !145)
; call __rustc::__rust_no_alloc_shim_is_unstable_v2
  call void @_RNvCsKhRCbHf33p_7___rustc35___rust_no_alloc_shim_is_unstable_v2() #26, !noalias !148
; call __rustc::__rust_alloc
  %120 = call noundef align 64 dereferenceable_or_null(512) ptr @_RNvCsKhRCbHf33p_7___rustc12___rust_alloc(i64 noundef 512, i64 noundef range(i64 1, -9223372036854775807) 64) #26, !noalias !148
  %121 = icmp eq ptr %120, null
  br i1 %121, label %bb7.i.i.i, label %_RNvMs1_NtNtNtCsbJQShvh9aPA_14regex_automata4util4pool5innerINtB5_4PoolNtNtNtBb_4meta5regex5CacheINtNtCsdJPVW0sQgAG_5alloc5boxed3BoxDINtNtNtCsjMrxcFdYDNN_4core3ops8function2FnuEp6OutputB16_NtNtB2d_6marker4SendNtNtNtB2d_5panic11unwind_safe10UnwindSafeNtB32_4SyncNtB3m_13RefUnwindSafeEL_EE3newCsf3B9tbXe5WF_5regex.exit.i.i

bb4.i.i.i:                                        ; preds = %bb7.i.i.i
  %122 = landingpad { ptr, i32 }
          cleanup
; invoke core::ptr::drop_in_place::<alloc::boxed::Box<dyn core::ops::function::Fn<(), Output = regex_automata::meta::regex::Cache> + core::marker::Send + core::panic::unwind_safe::UnwindSafe + core::marker::Sync + core::panic::unwind_safe::RefUnwindSafe>>
  invoke fastcc void @_RINvNtCsjMrxcFdYDNN_4core3ptr13drop_in_placeINtNtCsdJPVW0sQgAG_5alloc5boxed3BoxDINtNtNtB4_3ops8function2FnuEp6OutputNtNtNtCsbJQShvh9aPA_14regex_automata4meta5regex5CacheNtNtB4_6marker4SendNtNtNtB4_5panic11unwind_safe10UnwindSafeNtB2J_4SyncNtB32_13RefUnwindSafeEL_EECsf3B9tbXe5WF_5regex(ptr nonnull align 1 %113, ptr nonnull @vtable.1) #25
          to label %bb14.i unwind label %terminate.i1.i.i, !noalias !151

bb7.i.i.i:                                        ; preds = %bb5.i
; invoke alloc::raw_vec::handle_error
  invoke void @_RNvNtCsdJPVW0sQgAG_5alloc7raw_vec12handle_error(i64 noundef 64, i64 512) #27
          to label %unreachable.i.i.i unwind label %bb4.i.i.i, !noalias !151

terminate.i1.i.i:                                 ; preds = %bb4.i.i.i
  %123 = landingpad { ptr, i32 }
          filter [0 x ptr] zeroinitializer
; call core::panicking::panic_in_cleanup
  call void @_RNvNtCsjMrxcFdYDNN_4core9panicking16panic_in_cleanup() #28, !noalias !151
  unreachable

unreachable.i.i.i:                                ; preds = %bb7.i.i.i
  unreachable

_RNvMs1_NtNtNtCsbJQShvh9aPA_14regex_automata4util4pool5innerINtB5_4PoolNtNtNtBb_4meta5regex5CacheINtNtCsdJPVW0sQgAG_5alloc5boxed3BoxDINtNtNtCsjMrxcFdYDNN_4core3ops8function2FnuEp6OutputB16_NtNtB2d_6marker4SendNtNtNtB2d_5panic11unwind_safe10UnwindSafeNtB32_4SyncNtB3m_13RefUnwindSafeEL_EE3newCsf3B9tbXe5WF_5regex.exit.i.i: ; preds = %bb5.i
  store i64 0, ptr %120, align 64, !noalias !151
  %_5.i.sroa.32.0..sroa_idx.i.i = getelementptr inbounds nuw i8, ptr %120, i64 8
  store i8 0, ptr %_5.i.sroa.32.0..sroa_idx.i.i, align 8, !noalias !151
  %_5.i.sroa.4015.0..sroa_idx.i.i = getelementptr inbounds nuw i8, ptr %120, i64 16
  store i64 0, ptr %_5.i.sroa.4015.0..sroa_idx.i.i, align 16, !noalias !151
  %_5.i.sroa.48.0..sroa_idx.i.i = getelementptr inbounds nuw i8, ptr %120, i64 24
  store ptr inttoptr (i64 8 to ptr), ptr %_5.i.sroa.48.0..sroa_idx.i.i, align 8, !noalias !151
  %_5.i.sroa.56.0..sroa_idx.i.i = getelementptr inbounds nuw i8, ptr %120, i64 32
  store i64 0, ptr %_5.i.sroa.56.0..sroa_idx.i.i, align 32, !noalias !151
  %end.i.1.i.i.i = getelementptr inbounds nuw i8, ptr %120, i64 64
  store i64 0, ptr %end.i.1.i.i.i, align 64, !noalias !151
  %_5.i.sroa.32.0.end.i.1.i.sroa_idx.i.i = getelementptr inbounds nuw i8, ptr %120, i64 72
  store i8 0, ptr %_5.i.sroa.32.0.end.i.1.i.sroa_idx.i.i, align 8, !noalias !151
  %_5.i.sroa.4015.0.end.i.1.i.sroa_idx.i.i = getelementptr inbounds nuw i8, ptr %120, i64 80
  store i64 0, ptr %_5.i.sroa.4015.0.end.i.1.i.sroa_idx.i.i, align 16, !noalias !151
  %_5.i.sroa.48.0.end.i.1.i.sroa_idx.i.i = getelementptr inbounds nuw i8, ptr %120, i64 88
  store ptr inttoptr (i64 8 to ptr), ptr %_5.i.sroa.48.0.end.i.1.i.sroa_idx.i.i, align 8, !noalias !151
  %_5.i.sroa.56.0.end.i.1.i.sroa_idx.i.i = getelementptr inbounds nuw i8, ptr %120, i64 96
  store i64 0, ptr %_5.i.sroa.56.0.end.i.1.i.sroa_idx.i.i, align 32, !noalias !151
  %end.i.2.i.i.i = getelementptr inbounds nuw i8, ptr %120, i64 128
  store i64 0, ptr %end.i.2.i.i.i, align 64, !noalias !151
  %_5.i.sroa.32.0.end.i.2.i.sroa_idx.i.i = getelementptr inbounds nuw i8, ptr %120, i64 136
  store i8 0, ptr %_5.i.sroa.32.0.end.i.2.i.sroa_idx.i.i, align 8, !noalias !151
  %_5.i.sroa.4015.0.end.i.2.i.sroa_idx.i.i = getelementptr inbounds nuw i8, ptr %120, i64 144
  store i64 0, ptr %_5.i.sroa.4015.0.end.i.2.i.sroa_idx.i.i, align 16, !noalias !151
  %_5.i.sroa.48.0.end.i.2.i.sroa_idx.i.i = getelementptr inbounds nuw i8, ptr %120, i64 152
  store ptr inttoptr (i64 8 to ptr), ptr %_5.i.sroa.48.0.end.i.2.i.sroa_idx.i.i, align 8, !noalias !151
  %_5.i.sroa.56.0.end.i.2.i.sroa_idx.i.i = getelementptr inbounds nuw i8, ptr %120, i64 160
  store i64 0, ptr %_5.i.sroa.56.0.end.i.2.i.sroa_idx.i.i, align 32, !noalias !151
  %end.i.3.i.i.i = getelementptr inbounds nuw i8, ptr %120, i64 192
  store i64 0, ptr %end.i.3.i.i.i, align 64, !noalias !151
  %_5.i.sroa.32.0.end.i.3.i.sroa_idx.i.i = getelementptr inbounds nuw i8, ptr %120, i64 200
  store i8 0, ptr %_5.i.sroa.32.0.end.i.3.i.sroa_idx.i.i, align 8, !noalias !151
  %_5.i.sroa.4015.0.end.i.3.i.sroa_idx.i.i = getelementptr inbounds nuw i8, ptr %120, i64 208
  store i64 0, ptr %_5.i.sroa.4015.0.end.i.3.i.sroa_idx.i.i, align 16, !noalias !151
  %_5.i.sroa.48.0.end.i.3.i.sroa_idx.i.i = getelementptr inbounds nuw i8, ptr %120, i64 216
  store ptr inttoptr (i64 8 to ptr), ptr %_5.i.sroa.48.0.end.i.3.i.sroa_idx.i.i, align 8, !noalias !151
  %_5.i.sroa.56.0.end.i.3.i.sroa_idx.i.i = getelementptr inbounds nuw i8, ptr %120, i64 224
  store i64 0, ptr %_5.i.sroa.56.0.end.i.3.i.sroa_idx.i.i, align 32, !noalias !151
  %end.i.4.i.i.i = getelementptr inbounds nuw i8, ptr %120, i64 256
  store i64 0, ptr %end.i.4.i.i.i, align 64, !noalias !151
  %_5.i.sroa.32.0.end.i.4.i.sroa_idx.i.i = getelementptr inbounds nuw i8, ptr %120, i64 264
  store i8 0, ptr %_5.i.sroa.32.0.end.i.4.i.sroa_idx.i.i, align 8, !noalias !151
  %_5.i.sroa.4015.0.end.i.4.i.sroa_idx.i.i = getelementptr inbounds nuw i8, ptr %120, i64 272
  store i64 0, ptr %_5.i.sroa.4015.0.end.i.4.i.sroa_idx.i.i, align 16, !noalias !151
  %_5.i.sroa.48.0.end.i.4.i.sroa_idx.i.i = getelementptr inbounds nuw i8, ptr %120, i64 280
  store ptr inttoptr (i64 8 to ptr), ptr %_5.i.sroa.48.0.end.i.4.i.sroa_idx.i.i, align 8, !noalias !151
  %_5.i.sroa.56.0.end.i.4.i.sroa_idx.i.i = getelementptr inbounds nuw i8, ptr %120, i64 288
  store i64 0, ptr %_5.i.sroa.56.0.end.i.4.i.sroa_idx.i.i, align 32, !noalias !151
  %end.i.5.i.i.i = getelementptr inbounds nuw i8, ptr %120, i64 320
  store i64 0, ptr %end.i.5.i.i.i, align 64, !noalias !151
  %_5.i.sroa.32.0.end.i.5.i.sroa_idx.i.i = getelementptr inbounds nuw i8, ptr %120, i64 328
  store i8 0, ptr %_5.i.sroa.32.0.end.i.5.i.sroa_idx.i.i, align 8, !noalias !151
  %_5.i.sroa.4015.0.end.i.5.i.sroa_idx.i.i = getelementptr inbounds nuw i8, ptr %120, i64 336
  store i64 0, ptr %_5.i.sroa.4015.0.end.i.5.i.sroa_idx.i.i, align 16, !noalias !151
  %_5.i.sroa.48.0.end.i.5.i.sroa_idx.i.i = getelementptr inbounds nuw i8, ptr %120, i64 344
  store ptr inttoptr (i64 8 to ptr), ptr %_5.i.sroa.48.0.end.i.5.i.sroa_idx.i.i, align 8, !noalias !151
  %_5.i.sroa.56.0.end.i.5.i.sroa_idx.i.i = getelementptr inbounds nuw i8, ptr %120, i64 352
  store i64 0, ptr %_5.i.sroa.56.0.end.i.5.i.sroa_idx.i.i, align 32, !noalias !151
  %end.i.6.i.i.i = getelementptr inbounds nuw i8, ptr %120, i64 384
  store i64 0, ptr %end.i.6.i.i.i, align 64, !noalias !151
  %_5.i.sroa.32.0.end.i.6.i.sroa_idx.i.i = getelementptr inbounds nuw i8, ptr %120, i64 392
  store i8 0, ptr %_5.i.sroa.32.0.end.i.6.i.sroa_idx.i.i, align 8, !noalias !151
  %_5.i.sroa.4015.0.end.i.6.i.sroa_idx.i.i = getelementptr inbounds nuw i8, ptr %120, i64 400
  store i64 0, ptr %_5.i.sroa.4015.0.end.i.6.i.sroa_idx.i.i, align 16, !noalias !151
  %_5.i.sroa.48.0.end.i.6.i.sroa_idx.i.i = getelementptr inbounds nuw i8, ptr %120, i64 408
  store ptr inttoptr (i64 8 to ptr), ptr %_5.i.sroa.48.0.end.i.6.i.sroa_idx.i.i, align 8, !noalias !151
  %_5.i.sroa.56.0.end.i.6.i.sroa_idx.i.i = getelementptr inbounds nuw i8, ptr %120, i64 416
  store i64 0, ptr %_5.i.sroa.56.0.end.i.6.i.sroa_idx.i.i, align 32, !noalias !151
  %end.i.7.i.i.i = getelementptr inbounds nuw i8, ptr %120, i64 448
  store i64 0, ptr %end.i.7.i.i.i, align 64, !noalias !151
  %_5.i.sroa.32.0.end.i.7.i.sroa_idx.i.i = getelementptr inbounds nuw i8, ptr %120, i64 456
  store i8 0, ptr %_5.i.sroa.32.0.end.i.7.i.sroa_idx.i.i, align 8, !noalias !151
  %_5.i.sroa.4015.0.end.i.7.i.sroa_idx.i.i = getelementptr inbounds nuw i8, ptr %120, i64 464
  store i64 0, ptr %_5.i.sroa.4015.0.end.i.7.i.sroa_idx.i.i, align 16, !noalias !151
  %_5.i.sroa.48.0.end.i.7.i.sroa_idx.i.i = getelementptr inbounds nuw i8, ptr %120, i64 472
  store ptr inttoptr (i64 8 to ptr), ptr %_5.i.sroa.48.0.end.i.7.i.sroa_idx.i.i, align 8, !noalias !151
  %_5.i.sroa.56.0.end.i.7.i.sroa_idx.i.i = getelementptr inbounds nuw i8, ptr %120, i64 480
  store i64 0, ptr %_5.i.sroa.56.0.end.i.7.i.sroa_idx.i.i, align 32, !noalias !151
  %124 = getelementptr inbounds nuw i8, ptr %_3.i.i, i64 24
  store ptr %113, ptr %124, align 8, !alias.scope !145, !noalias !64
  %125 = getelementptr inbounds nuw i8, ptr %_3.i.i, i64 32
  store ptr @vtable.1, ptr %125, align 8, !alias.scope !145, !noalias !64
  store i64 8, ptr %_3.i.i, align 8, !noalias !64
  %stacks.i.sroa.4.0._3.sroa_idx.i.i = getelementptr inbounds nuw i8, ptr %_3.i.i, i64 8
  store ptr %120, ptr %stacks.i.sroa.4.0._3.sroa_idx.i.i, align 8, !noalias !64
  %stacks.i.sroa.5.0._3.sroa_idx.i.i = getelementptr inbounds nuw i8, ptr %_3.i.i, i64 16
  store i64 8, ptr %stacks.i.sroa.5.0._3.sroa_idx.i.i, align 8, !noalias !64
  %126 = getelementptr inbounds nuw i8, ptr %_3.i.i, i64 40
  store <2 x i64> <i64 0, i64 3>, ptr %126, align 8, !alias.scope !145, !noalias !64
; call __rustc::__rust_no_alloc_shim_is_unstable_v2
  call void @_RNvCsKhRCbHf33p_7___rustc35___rust_no_alloc_shim_is_unstable_v2() #26, !noalias !152
; call __rustc::__rust_alloc
  %127 = call noundef align 8 dereferenceable_or_null(1448) ptr @_RNvCsKhRCbHf33p_7___rustc12___rust_alloc(i64 noundef 1448, i64 noundef 8) #26, !noalias !152
  %128 = icmp eq ptr %127, null
  br i1 %128, label %bb2.i.i.i, label %bb6.i, !prof !51

bb2.i.i.i:                                        ; preds = %_RNvMs1_NtNtNtCsbJQShvh9aPA_14regex_automata4util4pool5innerINtB5_4PoolNtNtNtBb_4meta5regex5CacheINtNtCsdJPVW0sQgAG_5alloc5boxed3BoxDINtNtNtCsjMrxcFdYDNN_4core3ops8function2FnuEp6OutputB16_NtNtB2d_6marker4SendNtNtNtB2d_5panic11unwind_safe10UnwindSafeNtB32_4SyncNtB3m_13RefUnwindSafeEL_EE3newCsf3B9tbXe5WF_5regex.exit.i.i
; invoke alloc::alloc::handle_alloc_error
  invoke void @_RNvNtCsdJPVW0sQgAG_5alloc5alloc18handle_alloc_error(i64 noundef 8, i64 noundef 1448) #27
          to label %.noexc.i.i unwind label %cleanup.i.i.i, !noalias !120

.noexc.i.i:                                       ; preds = %bb2.i.i.i
  unreachable

cleanup.i.i.i:                                    ; preds = %bb2.i.i.i
  %129 = landingpad { ptr, i32 }
          cleanup
; invoke core::ptr::drop_in_place::<regex_automata::util::pool::inner::Pool<regex_automata::meta::regex::Cache, alloc::boxed::Box<dyn core::ops::function::Fn<(), Output = regex_automata::meta::regex::Cache> + core::marker::Send + core::panic::unwind_safe::UnwindSafe + core::marker::Sync + core::panic::unwind_safe::RefUnwindSafe>>>
  invoke fastcc void @_RINvNtCsjMrxcFdYDNN_4core3ptr13drop_in_placeINtNtNtNtCsbJQShvh9aPA_14regex_automata4util4pool5inner4PoolNtNtNtBP_4meta5regex5CacheINtNtCsdJPVW0sQgAG_5alloc5boxed3BoxDINtNtNtB4_3ops8function2FnuEp6OutputB1E_NtNtB4_6marker4SendNtNtNtB4_5panic11unwind_safe10UnwindSafeNtB3k_4SyncNtB3D_13RefUnwindSafeEL_EEECsf3B9tbXe5WF_5regex(ptr noalias noundef nonnull align 8 dereferenceable(1448) %_3.i.i) #25
          to label %bb14.i unwind label %terminate.i.i.i, !noalias !120

terminate.i.i.i:                                  ; preds = %cleanup.i.i.i
  %130 = landingpad { ptr, i32 }
          filter [0 x ptr] zeroinitializer
; call core::panicking::panic_in_cleanup
  call void @_RNvNtCsjMrxcFdYDNN_4core9panicking16panic_in_cleanup() #28, !noalias !120
  unreachable

bb6.i:                                            ; preds = %_RNvMs1_NtNtNtCsbJQShvh9aPA_14regex_automata4util4pool5innerINtB5_4PoolNtNtNtBb_4meta5regex5CacheINtNtCsdJPVW0sQgAG_5alloc5boxed3BoxDINtNtNtCsjMrxcFdYDNN_4core3ops8function2FnuEp6OutputB16_NtNtB2d_6marker4SendNtNtNtB2d_5panic11unwind_safe10UnwindSafeNtB32_4SyncNtB3m_13RefUnwindSafeEL_EE3newCsf3B9tbXe5WF_5regex.exit.i.i
  call void @llvm.memcpy.p0.p0.i64(ptr noundef nonnull align 8 dereferenceable(1448) %127, ptr noundef nonnull align 8 dereferenceable(1448) %_3.i.i, i64 1448, i1 false), !noalias !120
  call void @llvm.lifetime.end.p0(i64 1448, ptr nonnull %_3.i.i), !noalias !64
  %_27.i = load ptr, ptr %info.i, align 8, !noalias !64, !nonnull !52, !noundef !52
  call void @llvm.lifetime.start.p0(i64 40, ptr nonnull %_61.i), !noalias !64
  store <2 x i64> splat (i64 1), ptr %_61.i, align 16, !noalias !64
  %131 = getelementptr inbounds nuw i8, ptr %_61.i, i64 16
  store ptr %_48.0.i, ptr %131, align 16, !noalias !64
  %_25.sroa.4.0..sroa_idx.i = getelementptr inbounds nuw i8, ptr %_61.i, i64 24
  store ptr %_48.1.i, ptr %_25.sroa.4.0..sroa_idx.i, align 8, !noalias !64
  %_25.sroa.5.0..sroa_idx.i = getelementptr inbounds nuw i8, ptr %_61.i, i64 32
  store ptr %_27.i, ptr %_25.sroa.5.0..sroa_idx.i, align 16, !noalias !64
; call __rustc::__rust_no_alloc_shim_is_unstable_v2
  call void @_RNvCsKhRCbHf33p_7___rustc35___rust_no_alloc_shim_is_unstable_v2() #26, !noalias !155
; call __rustc::__rust_alloc
  %132 = call noundef align 8 dereferenceable_or_null(40) ptr @_RNvCsKhRCbHf33p_7___rustc12___rust_alloc(i64 noundef 40, i64 noundef 8) #26, !noalias !155
  %133 = icmp eq ptr %132, null
  br i1 %133, label %bb2.i36.i, label %bb29.i, !prof !51

bb2.i36.i:                                        ; preds = %bb6.i
; invoke alloc::alloc::handle_alloc_error
  invoke void @_RNvNtCsdJPVW0sQgAG_5alloc5alloc18handle_alloc_error(i64 noundef 8, i64 noundef 40) #27
          to label %.noexc37.i unwind label %cleanup.i.i, !noalias !120

.noexc37.i:                                       ; preds = %bb2.i36.i
  unreachable

cleanup.i.i:                                      ; preds = %bb2.i36.i
  %134 = landingpad { ptr, i32 }
          cleanup
; invoke core::ptr::drop_in_place::<alloc::sync::ArcInner<regex_automata::meta::regex::RegexI>>
  invoke fastcc void @_RINvNtCsjMrxcFdYDNN_4core3ptr13drop_in_placeINtNtCsdJPVW0sQgAG_5alloc4sync8ArcInnerNtNtNtCsbJQShvh9aPA_14regex_automata4meta5regex6RegexIEECsf3B9tbXe5WF_5regex(ptr noalias noundef nonnull align 8 dereferenceable(40) %_61.i) #25
          to label %cleanup4.body.i unwind label %terminate.i.i, !noalias !120

terminate.i.i:                                    ; preds = %cleanup.i.i
  %135 = landingpad { ptr, i32 }
          filter [0 x ptr] zeroinitializer
; call core::panicking::panic_in_cleanup
  call void @_RNvNtCsjMrxcFdYDNN_4core9panicking16panic_in_cleanup() #28, !noalias !120
  unreachable

cleanup4.body.i:                                  ; preds = %cleanup.i.i
; invoke core::ptr::drop_in_place::<regex_automata::util::pool::Pool<regex_automata::meta::regex::Cache, alloc::boxed::Box<dyn core::ops::function::Fn<(), Output = regex_automata::meta::regex::Cache> + core::marker::Send + core::panic::unwind_safe::UnwindSafe + core::marker::Sync + core::panic::unwind_safe::RefUnwindSafe>>>
  invoke fastcc void @_RINvNtCsjMrxcFdYDNN_4core3ptr13drop_in_placeINtNtNtCsbJQShvh9aPA_14regex_automata4util4pool4PoolNtNtNtBN_4meta5regex5CacheINtNtCsdJPVW0sQgAG_5alloc5boxed3BoxDINtNtNtB4_3ops8function2FnuEp6OutputB1w_NtNtB4_6marker4SendNtNtNtB4_5panic11unwind_safe10UnwindSafeNtB3c_4SyncNtB3v_13RefUnwindSafeEL_EEECsf3B9tbXe5WF_5regex(ptr %127) #25
          to label %bb12.i unwind label %terminate.i, !noalias !120

bb29.i:                                           ; preds = %bb6.i
  call void @llvm.memcpy.p0.p0.i64(ptr noundef nonnull align 8 dereferenceable(40) %132, ptr noundef nonnull align 16 dereferenceable(40) %_61.i, i64 40, i1 false), !noalias !120
  call void @llvm.lifetime.end.p0(i64 40, ptr nonnull %_61.i), !noalias !64
  %136 = getelementptr inbounds nuw i8, ptr %_0, i64 8
  store ptr %132, ptr %136, align 8, !alias.scope !59, !noalias !123
  %137 = getelementptr inbounds nuw i8, ptr %_0, i64 16
  store ptr %127, ptr %137, align 8, !alias.scope !59, !noalias !123
  store i64 -9223372036854775806, ptr %_0, align 8, !alias.scope !59, !noalias !123
  call void @llvm.lifetime.end.p0(i64 16, ptr nonnull %strat.i), !noalias !64
  call void @llvm.lifetime.end.p0(i64 8, ptr nonnull %info.i), !noalias !64
  br i1 %_23.i.i.i.i.i.i, label %bb19, label %bb10.sink.split.i

bb10.sink.split.i:                                ; preds = %bb8.i40, %bb29.i
  %alloc_size.i.i.i.i5.i40.i = shl nuw nsw i64 %_99, 3
; call __rustc::__rust_dealloc
  call void @_RNvCsKhRCbHf33p_7___rustc14___rust_dealloc(ptr noundef nonnull %101, i64 noundef %alloc_size.i.i.i.i5.i40.i, i64 noundef range(i64 1, -9223372036854775807) 8) #26, !noalias !120
  br label %bb19

terminate.i:                                      ; preds = %bb18.i, %bb2.i.i.i48.i, %bb2.i.i42.i, %cleanup4.body.i
  %138 = landingpad { ptr, i32 }
          filter [0 x ptr] zeroinitializer
; call core::panicking::panic_in_cleanup
  call void @_RNvNtCsjMrxcFdYDNN_4core9panicking16panic_in_cleanup() #28, !noalias !120
  unreachable

bb14.i:                                           ; preds = %cleanup.i.i.i, %bb4.i.i.i, %bb2.i.i.i31.i, %cleanup.i18.i
  %eh.lpad-body21.i = phi { ptr, i32 } [ %115, %cleanup.i18.i ], [ %115, %bb2.i.i.i31.i ], [ %122, %bb4.i.i.i ], [ %129, %cleanup.i.i.i ]
  call void @llvm.experimental.noalias.scope.decl(metadata !158)
  call void @llvm.experimental.noalias.scope.decl(metadata !161)
  %_10.0.i.i.i = load ptr, ptr %strat.i, align 8, !alias.scope !164, !noalias !64, !nonnull !52, !noundef !52
  %139 = atomicrmw sub ptr %_10.0.i.i.i, i64 1 release, align 8, !noalias !165
  %140 = icmp eq i64 %139, 1
  br i1 %140, label %bb2.i.i42.i, label %bb16.i

bb2.i.i42.i:                                      ; preds = %bb14.i
  fence acquire
; invoke <alloc::sync::Arc<dyn regex_automata::meta::strategy::Strategy>>::drop_slow
  invoke void @_RNvMsn_NtCsdJPVW0sQgAG_5alloc4syncINtB5_3ArcDNtNtNtCsbJQShvh9aPA_14regex_automata4meta8strategy8StrategyEL_E9drop_slowBN_(ptr noalias noundef nonnull align 8 dereferenceable(16) %strat.i) #29
          to label %bb16.i unwind label %terminate.i, !noalias !120

bb8.i40:                                          ; preds = %bb2.i.i.i.i, %bb24.i
  call void @llvm.lifetime.end.p0(i64 8, ptr nonnull %info.i), !noalias !64
  br i1 %_23.i.i.i.i.i.i, label %bb19, label %bb10.sink.split.i

bb16.i:                                           ; preds = %bb2.i.i42.i, %bb14.i, %cleanup2.i
  %.pn.pn.ph.i = phi { ptr, i32 } [ %104, %cleanup2.i ], [ %eh.lpad-body21.i, %bb2.i.i42.i ], [ %eh.lpad-body21.i, %bb14.i ]
  call void @llvm.experimental.noalias.scope.decl(metadata !166)
  call void @llvm.experimental.noalias.scope.decl(metadata !169)
  call void @llvm.experimental.noalias.scope.decl(metadata !172)
  %_10.i.i.i47.i = load ptr, ptr %info.i, align 8, !alias.scope !175, !noalias !64, !nonnull !52, !noundef !52
  %141 = atomicrmw sub ptr %_10.i.i.i47.i, i64 1 release, align 8, !noalias !176
  %142 = icmp eq i64 %141, 1
  br i1 %142, label %bb2.i.i.i48.i, label %bb12.i

bb2.i.i.i48.i:                                    ; preds = %bb16.i
  fence acquire
; invoke <alloc::sync::Arc<regex_automata::meta::regex::RegexInfoI>>::drop_slow
  invoke void @_RNvMsn_NtCsdJPVW0sQgAG_5alloc4syncINtB5_3ArcNtNtNtCsbJQShvh9aPA_14regex_automata4meta5regex10RegexInfoIE9drop_slowBM_(ptr noalias noundef nonnull align 8 dereferenceable(8) %info.i) #29
          to label %bb12.i unwind label %terminate.i, !noalias !120

bb18.i:                                           ; preds = %bb3.i.i.i.i
  %143 = landingpad { ptr, i32 }
          cleanup
; invoke core::ptr::drop_in_place::<regex_automata::meta::regex::Config>
  invoke fastcc void @_RINvNtCsjMrxcFdYDNN_4core3ptr13drop_in_placeNtNtNtCsbJQShvh9aPA_14regex_automata4meta5regex6ConfigECsf3B9tbXe5WF_5regex(ptr noalias noundef align 8 dereferenceable(128) %config.i) #25
          to label %bb30 unwind label %terminate.i, !noalias !120

bb19:                                             ; preds = %bb8.i40, %bb10.sink.split.i, %bb29.i
  call void @llvm.lifetime.end.p0(i64 128, ptr nonnull %config.i), !noalias !64
  call void @llvm.experimental.noalias.scope.decl(metadata !177)
  %_5.i.i = load ptr, ptr %_6.sroa.2.0.hirs.sroa_idx, align 8, !alias.scope !180, !nonnull !52, !noundef !52
  %len.i.i = load i64, ptr %_6.sroa.3.0.hirs.sroa_idx, align 8, !alias.scope !180, !noundef !52
; invoke core::ptr::drop_in_place::<[regex_syntax::hir::Hir]>
  invoke fastcc void @_RINvNtCsjMrxcFdYDNN_4core3ptr13drop_in_placeSNtNtCs4jgOJqAujFa_12regex_syntax3hir3HirECsf3B9tbXe5WF_5regex(ptr noalias noundef nonnull align 8 %_5.i.i, i64 noundef %len.i.i)
          to label %bb4.i unwind label %cleanup.i, !noalias !177

cleanup.i:                                        ; preds = %bb19
  %144 = landingpad { ptr, i32 }
          cleanup
  %_1.val.i = load i64, ptr %hirs, align 8, !range !183, !alias.scope !177, !noundef !52
  %145 = icmp eq i64 %_1.val.i, 0
  br i1 %145, label %bb31, label %bb31.sink.split

bb4.i:                                            ; preds = %bb19
  %_1.val2.i = load i64, ptr %hirs, align 8, !range !183, !alias.scope !177, !noundef !52
  %146 = icmp eq i64 %_1.val2.i, 0
  br i1 %146, label %bb20, label %bb2.i.i.i4.i

bb2.i.i.i4.i:                                     ; preds = %bb4.i
  %alloc_size.i.i.i.i5.i = mul nuw i64 %_1.val2.i, 48
; call __rustc::__rust_dealloc
  call void @_RNvCsKhRCbHf33p_7___rustc14___rust_dealloc(ptr noundef nonnull %_5.i.i, i64 noundef %alloc_size.i.i.i.i5.i, i64 noundef range(i64 1, -9223372036854775807) 8) #26, !noalias !177
  br label %bb20

bb31.sink.split:                                  ; preds = %cleanup.i, %cleanup.i95
  %_1.val.i96.sink = phi i64 [ %_1.val.i96, %cleanup.i95 ], [ %_1.val.i, %cleanup.i ]
  %_5.i.i93.sink = phi ptr [ %_5.i.i93, %cleanup.i95 ], [ %_5.i.i, %cleanup.i ]
  %.pn25.ph = phi { ptr, i32 } [ %190, %cleanup.i95 ], [ %144, %cleanup.i ]
  %alloc_size.i.i.i.i.i98 = mul nuw i64 %_1.val.i96.sink, 48
; call __rustc::__rust_dealloc
  call void @_RNvCsKhRCbHf33p_7___rustc14___rust_dealloc(ptr noundef nonnull %_5.i.i93.sink, i64 noundef %alloc_size.i.i.i.i.i98, i64 noundef range(i64 1, -9223372036854775807) 8) #26, !noalias !52
  br label %bb31

bb31:                                             ; preds = %bb31.sink.split, %cleanup.i95, %cleanup.i, %bb30
  %.pn25 = phi { ptr, i32 } [ %.pn, %bb30 ], [ %144, %cleanup.i ], [ %190, %cleanup.i95 ], [ %.pn25.ph, %bb31.sink.split ]
; invoke core::ptr::drop_in_place::<alloc::vec::Vec<regex_syntax::ast::Ast>>
  invoke fastcc void @_RINvNtCsjMrxcFdYDNN_4core3ptr13drop_in_placeINtNtCsdJPVW0sQgAG_5alloc3vec3VecNtNtCs4jgOJqAujFa_12regex_syntax3ast3AstEECsf3B9tbXe5WF_5regex(ptr noalias noundef align 8 dereferenceable(24) %asts) #25
          to label %common.resume unwind label %terminate

bb20:                                             ; preds = %bb2.i.i.i4.i, %bb4.i
  call void @llvm.lifetime.end.p0(i64 24, ptr nonnull %hirs)
  call void @llvm.experimental.noalias.scope.decl(metadata !184)
  %_5.i.i43 = load ptr, ptr %_5.sroa.2.0.asts.sroa_idx, align 8, !alias.scope !187, !nonnull !52, !noundef !52
  %len.i.i44 = load i64, ptr %_5.sroa.3.0.asts.sroa_idx, align 8, !alias.scope !187, !noundef !52
  br label %bb6.i.i

bb6.i.i:                                          ; preds = %bb5.i.i, %bb20
  %_3.sroa.0.0.i.i = phi i64 [ 0, %bb20 ], [ %147, %bb5.i.i ]
  %_7.i.i = icmp eq i64 %_3.sroa.0.0.i.i, %len.i.i44
  br i1 %_7.i.i, label %bb4.i52, label %bb5.i.i

bb5.i.i:                                          ; preds = %bb6.i.i
  %_6.i.i45 = getelementptr inbounds nuw %"regex_syntax::ast::Ast", ptr %_5.i.i43, i64 %_3.sroa.0.0.i.i
  %147 = add i64 %_3.sroa.0.0.i.i, 1
; invoke core::ptr::drop_in_place::<regex_syntax::ast::Ast>
  invoke fastcc void @_RINvNtCsjMrxcFdYDNN_4core3ptr13drop_in_placeNtNtCs4jgOJqAujFa_12regex_syntax3ast3AstECsf3B9tbXe5WF_5regex(ptr noalias noundef align 8 dereferenceable(16) %_6.i.i45) #30
          to label %bb6.i.i unwind label %cleanup.i.i46, !noalias !184

bb4.i.i:                                          ; preds = %bb3.i.i, %cleanup.i.i46
  %_3.sroa.0.1.i.i = phi i64 [ %147, %cleanup.i.i46 ], [ %149, %bb3.i.i ]
  %_5.i7.i = icmp eq i64 %_3.sroa.0.1.i.i, %len.i.i44
  br i1 %_5.i7.i, label %cleanup.body.i, label %bb3.i.i

cleanup.i.i46:                                    ; preds = %bb5.i.i
  %148 = landingpad { ptr, i32 }
          cleanup
  br label %bb4.i.i

bb3.i.i:                                          ; preds = %bb4.i.i
  %_4.i.i = getelementptr inbounds nuw %"regex_syntax::ast::Ast", ptr %_5.i.i43, i64 %_3.sroa.0.1.i.i
  %149 = add i64 %_3.sroa.0.1.i.i, 1
; invoke core::ptr::drop_in_place::<regex_syntax::ast::Ast>
  invoke fastcc void @_RINvNtCsjMrxcFdYDNN_4core3ptr13drop_in_placeNtNtCs4jgOJqAujFa_12regex_syntax3ast3AstECsf3B9tbXe5WF_5regex(ptr noalias noundef align 8 dereferenceable(16) %_4.i.i) #31
          to label %bb4.i.i unwind label %terminate.i.i47, !noalias !184

terminate.i.i47:                                  ; preds = %bb3.i.i
  %150 = landingpad { ptr, i32 }
          filter [0 x ptr] zeroinitializer
; call core::panicking::panic_in_cleanup
  call void @_RNvNtCsjMrxcFdYDNN_4core9panicking16panic_in_cleanup() #28, !noalias !184
  unreachable

cleanup.body.i:                                   ; preds = %bb4.i.i
  %_1.val.i48 = load i64, ptr %asts, align 8, !range !183, !alias.scope !184, !noundef !52
  %151 = icmp eq i64 %_1.val.i48, 0
  br i1 %151, label %common.resume, label %common.resume.sink.split

bb4.i52:                                          ; preds = %bb6.i.i
  %_1.val2.i53 = load i64, ptr %asts, align 8, !range !183, !alias.scope !184, !noundef !52
  %152 = icmp eq i64 %_1.val2.i53, 0
  br i1 %152, label %bb27, label %bb27.sink.split

common.resume.sink.split:                         ; preds = %cleanup.body.i, %cleanup.body.i133
  %_1.val.i134.sink = phi i64 [ %_1.val.i134, %cleanup.body.i133 ], [ %_1.val.i48, %cleanup.body.i ]
  %_5.i.i119.sink = phi ptr [ %_5.i.i119, %cleanup.body.i133 ], [ %_5.i.i43, %cleanup.body.i ]
  %common.resume.op.ph = phi { ptr, i32 } [ %203, %cleanup.body.i133 ], [ %148, %cleanup.body.i ]
  %alloc_size.i.i.i.i.i136 = shl nuw i64 %_1.val.i134.sink, 4
; call __rustc::__rust_dealloc
  call void @_RNvCsKhRCbHf33p_7___rustc14___rust_dealloc(ptr noundef nonnull %_5.i.i119.sink, i64 noundef %alloc_size.i.i.i.i.i136, i64 noundef range(i64 1, -9223372036854775807) 8) #26, !noalias !52
  br label %common.resume

common.resume:                                    ; preds = %common.resume.sink.split, %bb31, %cleanup.body.i133, %cleanup.body.i
  %common.resume.op = phi { ptr, i32 } [ %148, %cleanup.body.i ], [ %203, %cleanup.body.i133 ], [ %.pn25, %bb31 ], [ %common.resume.op.ph, %common.resume.sink.split ]
  resume { ptr, i32 } %common.resume.op

bb27.sink.split:                                  ; preds = %bb4.i52, %bb4.i138
  %_1.val2.i53.sink = phi i64 [ %_1.val2.i139, %bb4.i138 ], [ %_1.val2.i53, %bb4.i52 ]
  %_5.i.i43.sink = phi ptr [ %_5.i.i119, %bb4.i138 ], [ %_5.i.i43, %bb4.i52 ]
  %alloc_size.i.i.i.i5.i55 = shl nuw i64 %_1.val2.i53.sink, 4
; call __rustc::__rust_dealloc
  call void @_RNvCsKhRCbHf33p_7___rustc14___rust_dealloc(ptr noundef nonnull %_5.i.i43.sink, i64 noundef %alloc_size.i.i.i.i5.i55, i64 noundef range(i64 1, -9223372036854775807) 8) #26, !noalias !52
  br label %bb27

bb27:                                             ; preds = %bb27.sink.split, %bb4.i52, %bb4.i138
  call void @llvm.lifetime.end.p0(i64 24, ptr nonnull %asts)
  ret void

cleanup6:                                         ; preds = %bb16
  %153 = landingpad { ptr, i32 }
          cleanup
; invoke core::ptr::drop_in_place::<regex_syntax::hir::translate::Translator>
  invoke fastcc void @_RINvNtCsjMrxcFdYDNN_4core3ptr13drop_in_placeNtNtNtCs4jgOJqAujFa_12regex_syntax3hir9translate10TranslatorECsf3B9tbXe5WF_5regex(ptr noalias noundef align 8 dereferenceable(40) %_45) #25
          to label %bb30 unwind label %terminate

bb16:                                             ; preds = %bb47
  %154 = inttoptr i64 %_34.sroa.6155.0._34.sroa.6155.0._34.sroa.6155.0._34.sroa.6155.8. to ptr
  %_34.sroa.11.0._34.sroa.11.0._34.sroa.11.0._34.sroa.11.16.ast5 = load i64, ptr %_34.sroa.11, align 8, !range !190, !noundef !52
  %155 = inttoptr i64 %_34.sroa.11.0._34.sroa.11.0._34.sroa.11.0._34.sroa.11.16.ast5 to ptr
  call void @llvm.lifetime.start.p0(i64 48, ptr nonnull %hir)
  call void @llvm.lifetime.start.p0(i64 48, ptr nonnull %_41.sroa.6)
  call void @llvm.lifetime.start.p0(i64 48, ptr nonnull %_42.sroa.6)
  call void @llvm.lifetime.start.p0(i64 80, ptr nonnull %_43)
  call void @llvm.lifetime.start.p0(i64 40, ptr nonnull %_45)
  call void @llvm.memcpy.p0.p0.i64(ptr noundef nonnull align 8 dereferenceable(6) %23, ptr noundef nonnull align 1 dereferenceable(6) %20, i64 6, i1 false)
  call void @llvm.memset.p0.i64(ptr noundef nonnull align 8 dereferenceable(16) %_45, i8 0, i64 16, i1 false)
  store ptr inttoptr (i64 8 to ptr), ptr %_89.sroa.4.sroa.4.0._89.sroa.4.0._45.sroa_idx.sroa_idx, align 8
  store i64 0, ptr %_89.sroa.4.sroa.5.0._89.sroa.4.0._45.sroa_idx.sroa_idx, align 8
  store i8 %21, ptr %24, align 1
  store i8 %_94, ptr %25, align 2
  %156 = getelementptr i8, ptr %154, i64 8
  %p.val = load ptr, ptr %156, align 8, !nonnull !52, !noundef !52
  %157 = getelementptr i8, ptr %154, i64 16
  %p.val28 = load i64, ptr %157, align 8, !noundef !52
; invoke <regex_syntax::hir::translate::Translator>::translate
  invoke void @_RNvMs0_NtNtCs4jgOJqAujFa_12regex_syntax3hir9translateNtB5_10Translator9translate(ptr noalias noundef nonnull sret([80 x i8]) align 8 captures(address) dereferenceable(80) %_43, ptr noalias noundef nonnull align 8 dereferenceable(40) %_45, ptr noalias noundef nonnull readonly align 1 captures(address, read_provenance) %p.val, i64 noundef %p.val28, ptr noalias noundef nonnull readonly align 8 captures(address, read_provenance) dereferenceable(16) %155)
          to label %bb17 unwind label %cleanup6

bb17:                                             ; preds = %bb16
  %158 = load i64, ptr %_43, align 8, !range !191, !noundef !52
  %.not22 = icmp eq i64 %158, -9223372036854775808
  br i1 %.not22, label %bb49, label %bb50

bb49:                                             ; preds = %bb17
  call void @llvm.memcpy.p0.p0.i64(ptr noundef nonnull align 8 dereferenceable(48) %_42.sroa.6, ptr noundef nonnull align 8 dereferenceable(48) %26, i64 48, i1 false)
  call void @llvm.lifetime.end.p0(i64 80, ptr nonnull %_43)
  call void @llvm.memcpy.p0.p0.i64(ptr noundef nonnull align 8 dereferenceable(48) %_41.sroa.6, ptr noundef nonnull align 8 dereferenceable(48) %_42.sroa.6, i64 48, i1 false)
  call void @llvm.lifetime.end.p0(i64 48, ptr nonnull %_42.sroa.6)
  call void @llvm.memcpy.p0.p0.i64(ptr noundef nonnull align 8 dereferenceable(48) %hir, ptr noundef nonnull align 8 dereferenceable(48) %_41.sroa.6, i64 48, i1 false)
  call void @llvm.experimental.noalias.scope.decl(metadata !192)
  call void @llvm.experimental.noalias.scope.decl(metadata !195)
  call void @llvm.experimental.noalias.scope.decl(metadata !198)
  call void @llvm.experimental.noalias.scope.decl(metadata !201)
  %_1.val.i.i.i.i = load ptr, ptr %_89.sroa.4.sroa.4.0._89.sroa.4.0._45.sroa_idx.sroa_idx, align 8, !alias.scope !204, !nonnull !52, !noundef !52
  %_1.val1.i.i.i.i = load i64, ptr %_89.sroa.4.sroa.5.0._89.sroa.4.0._45.sroa_idx.sroa_idx, align 8, !alias.scope !204, !noundef !52
  %_7.i.i.i.i.i.i206 = icmp eq i64 %_1.val1.i.i.i.i, 0
  br i1 %_7.i.i.i.i.i.i206, label %bb4.i.i.i.i, label %bb5.i.i.i.i.i.i

bb5.i.i.i.i.i.i:                                  ; preds = %bb49, %_RINvNtCsjMrxcFdYDNN_4core3ptr13drop_in_placeNtNtNtCs4jgOJqAujFa_12regex_syntax3hir9translate8HirFrameECsf3B9tbXe5WF_5regex.exit
  %_3.sroa.0.0.i.i.i.i.i.i207 = phi i64 [ %159, %_RINvNtCsjMrxcFdYDNN_4core3ptr13drop_in_placeNtNtNtCs4jgOJqAujFa_12regex_syntax3hir9translate8HirFrameECsf3B9tbXe5WF_5regex.exit ], [ 0, %bb49 ]
  %_6.i.i.i.i.i.i = getelementptr inbounds nuw %"regex_syntax::hir::translate::HirFrame", ptr %_1.val.i.i.i.i, i64 %_3.sroa.0.0.i.i.i.i.i.i207
  %159 = add nuw i64 %_3.sroa.0.0.i.i.i.i.i.i207, 1
  call void @llvm.experimental.noalias.scope.decl(metadata !205)
  %160 = load i64, ptr %_6.i.i.i.i.i.i, align 8, !range !208, !alias.scope !205, !noalias !204, !noundef !52
  %_2.i = call i64 @llvm.usub.sat.i64(i64 %160, i64 9)
  switch i64 %_2.i, label %_RINvNtCsjMrxcFdYDNN_4core3ptr13drop_in_placeNtNtNtCs4jgOJqAujFa_12regex_syntax3hir9translate8HirFrameECsf3B9tbXe5WF_5regex.exit [
    i64 0, label %bb2.i148
    i64 1, label %bb3.i146
    i64 2, label %bb4.i145
    i64 3, label %bb5.i143
  ]

bb2.i148:                                         ; preds = %bb5.i.i.i.i.i.i
; invoke <regex_syntax::hir::Hir as core::ops::drop::Drop>::drop
  invoke void @_RNvXsm_NtCs4jgOJqAujFa_12regex_syntax3hirNtB5_3HirNtNtNtCsjMrxcFdYDNN_4core3ops4drop4Drop4drop(ptr noalias noundef nonnull align 8 dereferenceable(48) %_6.i.i.i.i.i.i)
          to label %bb6.i.i151 unwind label %cleanup.i.i149, !noalias !204

cleanup.i.i149:                                   ; preds = %bb2.i148
  %161 = landingpad { ptr, i32 }
          cleanup
; invoke core::ptr::drop_in_place::<regex_syntax::hir::HirKind>
  invoke fastcc void @_RINvNtCsjMrxcFdYDNN_4core3ptr13drop_in_placeNtNtCs4jgOJqAujFa_12regex_syntax3hir7HirKindECsf3B9tbXe5WF_5regex(ptr noalias noundef nonnull align 8 dereferenceable(48) %_6.i.i.i.i.i.i) #31
          to label %bb1.i.i unwind label %terminate.i.i150, !noalias !204

bb6.i.i151:                                       ; preds = %bb2.i148
; invoke core::ptr::drop_in_place::<regex_syntax::hir::HirKind>
  invoke fastcc void @_RINvNtCsjMrxcFdYDNN_4core3ptr13drop_in_placeNtNtCs4jgOJqAujFa_12regex_syntax3hir7HirKindECsf3B9tbXe5WF_5regex(ptr noalias noundef nonnull align 8 dereferenceable(48) %_6.i.i.i.i.i.i) #30
          to label %_RINvNtCsjMrxcFdYDNN_4core3ptr13drop_in_placeNtNtCs4jgOJqAujFa_12regex_syntax3hir3HirECsf3B9tbXe5WF_5regex.exit.i unwind label %cleanup1.i.i, !noalias !204

cleanup1.i.i:                                     ; preds = %bb6.i.i151
  %162 = landingpad { ptr, i32 }
          cleanup
  br label %bb1.i.i

terminate.i.i150:                                 ; preds = %cleanup.i.i149
  %163 = landingpad { ptr, i32 }
          filter [0 x ptr] zeroinitializer
; call core::panicking::panic_in_cleanup
  call void @_RNvNtCsjMrxcFdYDNN_4core9panicking16panic_in_cleanup() #28, !noalias !204
  unreachable

bb1.i.i:                                          ; preds = %cleanup1.i.i, %cleanup.i.i149
  %.pn.i.i = phi { ptr, i32 } [ %162, %cleanup1.i.i ], [ %161, %cleanup.i.i149 ]
  %164 = getelementptr inbounds nuw i8, ptr %_6.i.i.i.i.i.i, i64 40
  %.val.i.i = load ptr, ptr %164, align 8, !alias.scope !209, !noalias !204, !nonnull !52, !noundef !52
; call __rustc::__rust_dealloc
  call void @_RNvCsKhRCbHf33p_7___rustc14___rust_dealloc(ptr noundef nonnull %.val.i.i, i64 noundef 80, i64 noundef 8) #26, !noalias !204
  br label %bb4.i.i.i.i.i.i

_RINvNtCsjMrxcFdYDNN_4core3ptr13drop_in_placeNtNtCs4jgOJqAujFa_12regex_syntax3hir3HirECsf3B9tbXe5WF_5regex.exit.i: ; preds = %bb6.i.i151
  %165 = getelementptr inbounds nuw i8, ptr %_6.i.i.i.i.i.i, i64 40
  %.val3.i.i = load ptr, ptr %165, align 8, !alias.scope !209, !noalias !204, !nonnull !52, !noundef !52
; call __rustc::__rust_dealloc
  call void @_RNvCsKhRCbHf33p_7___rustc14___rust_dealloc(ptr noundef nonnull %.val3.i.i, i64 noundef 80, i64 noundef 8) #26, !noalias !204
  br label %_RINvNtCsjMrxcFdYDNN_4core3ptr13drop_in_placeNtNtNtCs4jgOJqAujFa_12regex_syntax3hir9translate8HirFrameECsf3B9tbXe5WF_5regex.exit

bb3.i146:                                         ; preds = %bb5.i.i.i.i.i.i
  %166 = getelementptr inbounds nuw i8, ptr %_6.i.i.i.i.i.i, i64 8
  %.val.i = load i64, ptr %166, align 8, !alias.scope !205, !noalias !204
  %167 = icmp eq i64 %.val.i, 0
  br i1 %167, label %_RINvNtCsjMrxcFdYDNN_4core3ptr13drop_in_placeNtNtNtCs4jgOJqAujFa_12regex_syntax3hir9translate8HirFrameECsf3B9tbXe5WF_5regex.exit, label %bb2.i.i.i4.i.i147

bb2.i.i.i4.i.i147:                                ; preds = %bb3.i146
  %168 = getelementptr inbounds nuw i8, ptr %_6.i.i.i.i.i.i, i64 16
  %.val1.i = load ptr, ptr %168, align 8, !alias.scope !205, !noalias !204, !nonnull !52, !noundef !52
; call __rustc::__rust_dealloc
  call void @_RNvCsKhRCbHf33p_7___rustc14___rust_dealloc(ptr noundef nonnull %.val1.i, i64 noundef %.val.i, i64 noundef range(i64 1, -9223372036854775807) 1) #26, !noalias !212
  br label %_RINvNtCsjMrxcFdYDNN_4core3ptr13drop_in_placeNtNtNtCs4jgOJqAujFa_12regex_syntax3hir9translate8HirFrameECsf3B9tbXe5WF_5regex.exit

bb4.i145:                                         ; preds = %bb5.i.i.i.i.i.i
  %169 = getelementptr inbounds nuw i8, ptr %_6.i.i.i.i.i.i, i64 8
  %.val2.i = load i64, ptr %169, align 8, !alias.scope !205, !noalias !204
  %170 = icmp eq i64 %.val2.i, 0
  br i1 %170, label %_RINvNtCsjMrxcFdYDNN_4core3ptr13drop_in_placeNtNtNtCs4jgOJqAujFa_12regex_syntax3hir9translate8HirFrameECsf3B9tbXe5WF_5regex.exit, label %bb2.i.i.i4.i.i.i.i

bb2.i.i.i4.i.i.i.i:                               ; preds = %bb4.i145
  %171 = getelementptr inbounds nuw i8, ptr %_6.i.i.i.i.i.i, i64 16
  %.val3.i = load ptr, ptr %171, align 8, !alias.scope !205, !noalias !204, !nonnull !52, !noundef !52
  %alloc_size.i.i.i.i5.i.i.i.i = shl nuw i64 %.val2.i, 3
; call __rustc::__rust_dealloc
  call void @_RNvCsKhRCbHf33p_7___rustc14___rust_dealloc(ptr noundef nonnull %.val3.i, i64 noundef %alloc_size.i.i.i.i5.i.i.i.i, i64 noundef range(i64 1, -9223372036854775807) 4) #26, !noalias !212
  br label %_RINvNtCsjMrxcFdYDNN_4core3ptr13drop_in_placeNtNtNtCs4jgOJqAujFa_12regex_syntax3hir9translate8HirFrameECsf3B9tbXe5WF_5regex.exit

bb5.i143:                                         ; preds = %bb5.i.i.i.i.i.i
  %172 = getelementptr inbounds nuw i8, ptr %_6.i.i.i.i.i.i, i64 8
  %.val4.i = load i64, ptr %172, align 8, !alias.scope !205, !noalias !204
  %173 = icmp eq i64 %.val4.i, 0
  br i1 %173, label %_RINvNtCsjMrxcFdYDNN_4core3ptr13drop_in_placeNtNtNtCs4jgOJqAujFa_12regex_syntax3hir9translate8HirFrameECsf3B9tbXe5WF_5regex.exit, label %bb2.i.i.i4.i.i.i6.i

bb2.i.i.i4.i.i.i6.i:                              ; preds = %bb5.i143
  %174 = getelementptr inbounds nuw i8, ptr %_6.i.i.i.i.i.i, i64 16
  %.val5.i = load ptr, ptr %174, align 8, !alias.scope !205, !noalias !204, !nonnull !52, !noundef !52
  %alloc_size.i.i.i.i5.i.i.i7.i = shl nuw i64 %.val4.i, 1
; call __rustc::__rust_dealloc
  call void @_RNvCsKhRCbHf33p_7___rustc14___rust_dealloc(ptr noundef nonnull %.val5.i, i64 noundef %alloc_size.i.i.i.i5.i.i.i7.i, i64 noundef range(i64 1, -9223372036854775807) 1) #26, !noalias !212
  br label %_RINvNtCsjMrxcFdYDNN_4core3ptr13drop_in_placeNtNtNtCs4jgOJqAujFa_12regex_syntax3hir9translate8HirFrameECsf3B9tbXe5WF_5regex.exit

_RINvNtCsjMrxcFdYDNN_4core3ptr13drop_in_placeNtNtNtCs4jgOJqAujFa_12regex_syntax3hir9translate8HirFrameECsf3B9tbXe5WF_5regex.exit: ; preds = %bb5.i.i.i.i.i.i, %_RINvNtCsjMrxcFdYDNN_4core3ptr13drop_in_placeNtNtCs4jgOJqAujFa_12regex_syntax3hir3HirECsf3B9tbXe5WF_5regex.exit.i, %bb3.i146, %bb2.i.i.i4.i.i147, %bb4.i145, %bb2.i.i.i4.i.i.i.i, %bb5.i143, %bb2.i.i.i4.i.i.i6.i
  %_7.i.i.i.i.i.i = icmp eq i64 %159, %_1.val1.i.i.i.i
  br i1 %_7.i.i.i.i.i.i, label %bb4.i.i.i.i, label %bb5.i.i.i.i.i.i

bb4.i.i.i.i.i.i:                                  ; preds = %bb3.i.i.i.i.i.i, %bb1.i.i
  %_3.sroa.0.1.i.i.i.i.i.i = phi i64 [ %159, %bb1.i.i ], [ %175, %bb3.i.i.i.i.i.i ]
  %_5.i.i.i.i.i.i = icmp eq i64 %_3.sroa.0.1.i.i.i.i.i.i, %_1.val1.i.i.i.i
  br i1 %_5.i.i.i.i.i.i, label %cleanup.body.i.i.i.i, label %bb3.i.i.i.i.i.i

bb3.i.i.i.i.i.i:                                  ; preds = %bb4.i.i.i.i.i.i
  %_4.i.i.i.i.i.i = getelementptr inbounds nuw %"regex_syntax::hir::translate::HirFrame", ptr %_1.val.i.i.i.i, i64 %_3.sroa.0.1.i.i.i.i.i.i
  %175 = add i64 %_3.sroa.0.1.i.i.i.i.i.i, 1
; invoke core::ptr::drop_in_place::<regex_syntax::hir::translate::HirFrame>
  invoke fastcc void @_RINvNtCsjMrxcFdYDNN_4core3ptr13drop_in_placeNtNtNtCs4jgOJqAujFa_12regex_syntax3hir9translate8HirFrameECsf3B9tbXe5WF_5regex(ptr noalias noundef align 8 dereferenceable(48) %_4.i.i.i.i.i.i) #25
          to label %bb4.i.i.i.i.i.i unwind label %terminate.i.i.i.i.i.i, !noalias !204

terminate.i.i.i.i.i.i:                            ; preds = %bb3.i.i.i.i.i.i
  %176 = landingpad { ptr, i32 }
          filter [0 x ptr] zeroinitializer
; call core::panicking::panic_in_cleanup
  call void @_RNvNtCsjMrxcFdYDNN_4core9panicking16panic_in_cleanup() #28, !noalias !204
  unreachable

cleanup.body.i.i.i.i:                             ; preds = %bb4.i.i.i.i.i.i
  %_1.val2.i.i.i.i = load i64, ptr %_89.sroa.4.0._45.sroa_idx, align 8, !range !183, !alias.scope !204, !noundef !52
  %177 = icmp eq i64 %_1.val2.i.i.i.i, 0
  br i1 %177, label %bb33, label %bb2.i.i.i.i.i.i.i

bb2.i.i.i.i.i.i.i:                                ; preds = %cleanup.body.i.i.i.i
  %alloc_size.i.i.i.i.i.i.i.i = mul nuw i64 %_1.val2.i.i.i.i, 48
; call __rustc::__rust_dealloc
  call void @_RNvCsKhRCbHf33p_7___rustc14___rust_dealloc(ptr noundef nonnull %_1.val.i.i.i.i, i64 noundef %alloc_size.i.i.i.i.i.i.i.i, i64 noundef range(i64 1, -9223372036854775807) 8) #26, !noalias !204
  br label %bb33

bb4.i.i.i.i:                                      ; preds = %_RINvNtCsjMrxcFdYDNN_4core3ptr13drop_in_placeNtNtNtCs4jgOJqAujFa_12regex_syntax3hir9translate8HirFrameECsf3B9tbXe5WF_5regex.exit, %bb49
  %_1.val4.i.i.i.i = load i64, ptr %_89.sroa.4.0._45.sroa_idx, align 8, !range !183, !alias.scope !204, !noundef !52
  %178 = icmp eq i64 %_1.val4.i.i.i.i, 0
  br i1 %178, label %bb18, label %bb2.i.i.i6.i.i.i.i

bb2.i.i.i6.i.i.i.i:                               ; preds = %bb4.i.i.i.i
  %alloc_size.i.i.i.i7.i.i.i.i = mul nuw i64 %_1.val4.i.i.i.i, 48
; call __rustc::__rust_dealloc
  call void @_RNvCsKhRCbHf33p_7___rustc14___rust_dealloc(ptr noundef nonnull %_1.val.i.i.i.i, i64 noundef %alloc_size.i.i.i.i7.i.i.i.i, i64 noundef range(i64 1, -9223372036854775807) 8) #26, !noalias !204
  br label %bb18

bb18:                                             ; preds = %bb2.i.i.i6.i.i.i.i, %bb4.i.i.i.i
  call void @llvm.lifetime.end.p0(i64 40, ptr nonnull %_45)
  call void @llvm.lifetime.end.p0(i64 48, ptr nonnull %_41.sroa.6)
  call void @llvm.lifetime.start.p0(i64 48, ptr nonnull %_52)
  call void @llvm.memcpy.p0.p0.i64(ptr noundef nonnull align 8 dereferenceable(48) %_52, ptr noundef nonnull align 8 dereferenceable(48) %hir, i64 48, i1 false)
  %len.i = load i64, ptr %_6.sroa.3.0.hirs.sroa_idx, align 8, !alias.scope !213, !noalias !216, !noundef !52
  %self1.i = load i64, ptr %hirs, align 8, !range !183, !alias.scope !213, !noalias !216, !noundef !52
  %_4.i58 = icmp eq i64 %len.i, %self1.i
  br i1 %_4.i58, label %bb1.i61, label %bb51

bb1.i61:                                          ; preds = %bb18
; invoke <alloc::raw_vec::RawVec<regex_syntax::hir::Hir>>::grow_one
  invoke void @_RNvMs3_NtCsdJPVW0sQgAG_5alloc7raw_vecINtB5_6RawVecNtNtCs4jgOJqAujFa_12regex_syntax3hir3HirE8grow_oneBQ_(ptr noalias noundef nonnull align 8 dereferenceable(24) %hirs)
          to label %bb51 unwind label %cleanup.i62, !noalias !216

cleanup.i62:                                      ; preds = %bb1.i61
  %179 = landingpad { ptr, i32 }
          cleanup
; invoke core::ptr::drop_in_place::<regex_syntax::hir::Hir>
  invoke fastcc void @_RINvNtCsjMrxcFdYDNN_4core3ptr13drop_in_placeNtNtCs4jgOJqAujFa_12regex_syntax3hir3HirECsf3B9tbXe5WF_5regex(ptr noalias noundef nonnull align 8 dereferenceable(48) %_52) #25
          to label %bb30 unwind label %terminate.i63

terminate.i63:                                    ; preds = %cleanup.i62
  %180 = landingpad { ptr, i32 }
          filter [0 x ptr] zeroinitializer
; call core::panicking::panic_in_cleanup
  call void @_RNvNtCsjMrxcFdYDNN_4core9panicking16panic_in_cleanup() #28
  unreachable

bb51:                                             ; preds = %bb1.i61, %bb18
  %_14.i60 = load ptr, ptr %_6.sroa.2.0.hirs.sroa_idx, align 8, !alias.scope !213, !noalias !216, !nonnull !52, !noundef !52
  %end.i = getelementptr inbounds nuw %"regex_syntax::hir::Hir", ptr %_14.i60, i64 %len.i
  call void @llvm.memcpy.p0.p0.i64(ptr noundef nonnull align 8 dereferenceable(48) %end.i, ptr noundef nonnull align 8 dereferenceable(48) %hir, i64 48, i1 false)
  %181 = add i64 %len.i, 1
  store i64 %181, ptr %_6.sroa.3.0.hirs.sroa_idx, align 8, !alias.scope !213, !noalias !216
  call void @llvm.lifetime.end.p0(i64 48, ptr nonnull %_52)
  call void @llvm.lifetime.end.p0(i64 48, ptr nonnull %hir)
  call void @llvm.lifetime.end.p0(i64 8, ptr nonnull %_34.sroa.6155)
  call void @llvm.lifetime.end.p0(i64 8, ptr nonnull %_34.sroa.11)
  br label %bb13

bb33:                                             ; preds = %bb2.i.i.i.i.i.i.i, %cleanup.body.i.i.i.i
; invoke core::ptr::drop_in_place::<regex_syntax::hir::Hir>
  invoke fastcc void @_RINvNtCsjMrxcFdYDNN_4core3ptr13drop_in_placeNtNtCs4jgOJqAujFa_12regex_syntax3hir3HirECsf3B9tbXe5WF_5regex(ptr noalias noundef align 8 dereferenceable(48) %hir) #25
          to label %bb30 unwind label %terminate

terminate:                                        ; preds = %bb31, %bb30, %cleanup9, %bb35, %cleanup6, %bb33
  %182 = landingpad { ptr, i32 }
          filter [0 x ptr] zeroinitializer
; call core::panicking::panic_in_cleanup
  call void @_RNvNtCsjMrxcFdYDNN_4core9panicking16panic_in_cleanup() #28
  unreachable

bb50:                                             ; preds = %bb17
  call void @llvm.memcpy.p0.p0.i64(ptr noundef nonnull align 8 dereferenceable(48) %_42.sroa.6, ptr noundef nonnull align 8 dereferenceable(48) %_43, i64 48, i1 false)
  %183 = getelementptr inbounds nuw i8, ptr %_43, i64 48
  %_109.sroa.3.0._0.sroa_idx = getelementptr inbounds nuw i8, ptr %_0, i64 56
  call void @llvm.memcpy.p0.p0.i64(ptr noundef nonnull align 8 dereferenceable(32) %_109.sroa.3.0._0.sroa_idx, ptr noundef nonnull align 8 dereferenceable(32) %183, i64 32, i1 false)
  call void @llvm.lifetime.end.p0(i64 80, ptr nonnull %_43)
  call void @llvm.memcpy.p0.p0.i64(ptr noundef nonnull align 8 dereferenceable(48) %_41.sroa.6, ptr noundef nonnull align 8 dereferenceable(48) %_42.sroa.6, i64 48, i1 false)
  call void @llvm.lifetime.end.p0(i64 48, ptr nonnull %_42.sroa.6)
  %_109.sroa.2.0._0.sroa_idx = getelementptr inbounds nuw i8, ptr %_0, i64 8
  call void @llvm.memcpy.p0.p0.i64(ptr noundef nonnull align 8 dereferenceable(48) %_109.sroa.2.0._0.sroa_idx, ptr noundef nonnull align 8 dereferenceable(48) %_41.sroa.6, i64 48, i1 false)
  store i64 -9223372036854775808, ptr %_0, align 8
  %_109.sroa.3.sroa.2.0._109.sroa.3.0._0.sroa_idx.sroa_idx = getelementptr inbounds nuw i8, ptr %_0, i64 128
  store i32 %_34.sroa.0.1, ptr %_109.sroa.3.sroa.2.0._109.sroa.3.0._0.sroa_idx.sroa_idx, align 8
  call void @llvm.experimental.noalias.scope.decl(metadata !218)
  call void @llvm.experimental.noalias.scope.decl(metadata !221)
  call void @llvm.experimental.noalias.scope.decl(metadata !224)
  call void @llvm.experimental.noalias.scope.decl(metadata !227)
  %_1.val.i.i.i.i67 = load ptr, ptr %_89.sroa.4.sroa.4.0._89.sroa.4.0._45.sroa_idx.sroa_idx, align 8, !alias.scope !230, !nonnull !52, !noundef !52
  %_1.val1.i.i.i.i68 = load i64, ptr %_89.sroa.4.sroa.5.0._89.sroa.4.0._45.sroa_idx.sroa_idx, align 8, !alias.scope !230, !noundef !52
  br label %bb6.i.i.i.i.i.i69

bb6.i.i.i.i.i.i69:                                ; preds = %bb5.i.i.i.i.i.i72, %bb50
  %_3.sroa.0.0.i.i.i.i.i.i70 = phi i64 [ 0, %bb50 ], [ %184, %bb5.i.i.i.i.i.i72 ]
  %_7.i.i.i.i.i.i71 = icmp eq i64 %_3.sroa.0.0.i.i.i.i.i.i70, %_1.val1.i.i.i.i68
  br i1 %_7.i.i.i.i.i.i71, label %bb4.i.i.i.i86, label %bb5.i.i.i.i.i.i72

bb5.i.i.i.i.i.i72:                                ; preds = %bb6.i.i.i.i.i.i69
  %_6.i.i.i.i.i.i73 = getelementptr inbounds nuw %"regex_syntax::hir::translate::HirFrame", ptr %_1.val.i.i.i.i67, i64 %_3.sroa.0.0.i.i.i.i.i.i70
  %184 = add i64 %_3.sroa.0.0.i.i.i.i.i.i70, 1
; invoke core::ptr::drop_in_place::<regex_syntax::hir::translate::HirFrame>
  invoke fastcc void @_RINvNtCsjMrxcFdYDNN_4core3ptr13drop_in_placeNtNtNtCs4jgOJqAujFa_12regex_syntax3hir9translate8HirFrameECsf3B9tbXe5WF_5regex(ptr noalias noundef align 8 dereferenceable(48) %_6.i.i.i.i.i.i73)
          to label %bb6.i.i.i.i.i.i69 unwind label %cleanup.i.i.i.i.i.i74, !noalias !230

bb4.i.i.i.i.i.i75:                                ; preds = %bb3.i.i.i.i.i.i78, %cleanup.i.i.i.i.i.i74
  %_3.sroa.0.1.i.i.i.i.i.i76 = phi i64 [ %184, %cleanup.i.i.i.i.i.i74 ], [ %186, %bb3.i.i.i.i.i.i78 ]
  %_5.i.i.i.i.i.i77 = icmp eq i64 %_3.sroa.0.1.i.i.i.i.i.i76, %_1.val1.i.i.i.i68
  br i1 %_5.i.i.i.i.i.i77, label %cleanup.body.i.i.i.i81, label %bb3.i.i.i.i.i.i78

cleanup.i.i.i.i.i.i74:                            ; preds = %bb5.i.i.i.i.i.i72
  %185 = landingpad { ptr, i32 }
          cleanup
  br label %bb4.i.i.i.i.i.i75

bb3.i.i.i.i.i.i78:                                ; preds = %bb4.i.i.i.i.i.i75
  %_4.i.i.i.i.i.i79 = getelementptr inbounds nuw %"regex_syntax::hir::translate::HirFrame", ptr %_1.val.i.i.i.i67, i64 %_3.sroa.0.1.i.i.i.i.i.i76
  %186 = add i64 %_3.sroa.0.1.i.i.i.i.i.i76, 1
; invoke core::ptr::drop_in_place::<regex_syntax::hir::translate::HirFrame>
  invoke fastcc void @_RINvNtCsjMrxcFdYDNN_4core3ptr13drop_in_placeNtNtNtCs4jgOJqAujFa_12regex_syntax3hir9translate8HirFrameECsf3B9tbXe5WF_5regex(ptr noalias noundef align 8 dereferenceable(48) %_4.i.i.i.i.i.i79) #25
          to label %bb4.i.i.i.i.i.i75 unwind label %terminate.i.i.i.i.i.i80, !noalias !230

terminate.i.i.i.i.i.i80:                          ; preds = %bb3.i.i.i.i.i.i78
  %187 = landingpad { ptr, i32 }
          filter [0 x ptr] zeroinitializer
; call core::panicking::panic_in_cleanup
  call void @_RNvNtCsjMrxcFdYDNN_4core9panicking16panic_in_cleanup() #28, !noalias !230
  unreachable

cleanup.body.i.i.i.i81:                           ; preds = %bb4.i.i.i.i.i.i75
  %_1.val2.i.i.i.i82 = load i64, ptr %_89.sroa.4.0._45.sroa_idx, align 8, !range !183, !alias.scope !230, !noundef !52
  %188 = icmp eq i64 %_1.val2.i.i.i.i82, 0
  br i1 %188, label %bb30, label %bb2.i.i.i.i.i.i.i83

bb2.i.i.i.i.i.i.i83:                              ; preds = %cleanup.body.i.i.i.i81
  %alloc_size.i.i.i.i.i.i.i.i84 = mul nuw i64 %_1.val2.i.i.i.i82, 48
; call __rustc::__rust_dealloc
  call void @_RNvCsKhRCbHf33p_7___rustc14___rust_dealloc(ptr noundef nonnull %_1.val.i.i.i.i67, i64 noundef %alloc_size.i.i.i.i.i.i.i.i84, i64 noundef range(i64 1, -9223372036854775807) 8) #26, !noalias !230
  br label %bb30

bb4.i.i.i.i86:                                    ; preds = %bb6.i.i.i.i.i.i69
  %_1.val4.i.i.i.i87 = load i64, ptr %_89.sroa.4.0._45.sroa_idx, align 8, !range !183, !alias.scope !230, !noundef !52
  %189 = icmp eq i64 %_1.val4.i.i.i.i87, 0
  br i1 %189, label %bb22, label %bb2.i.i.i6.i.i.i.i88

bb2.i.i.i6.i.i.i.i88:                             ; preds = %bb4.i.i.i.i86
  %alloc_size.i.i.i.i7.i.i.i.i89 = mul nuw i64 %_1.val4.i.i.i.i87, 48
; call __rustc::__rust_dealloc
  call void @_RNvCsKhRCbHf33p_7___rustc14___rust_dealloc(ptr noundef nonnull %_1.val.i.i.i.i67, i64 noundef %alloc_size.i.i.i.i7.i.i.i.i89, i64 noundef range(i64 1, -9223372036854775807) 8) #26, !noalias !230
  br label %bb22

bb22:                                             ; preds = %bb2.i.i.i6.i.i.i.i88, %bb4.i.i.i.i86
  call void @llvm.lifetime.end.p0(i64 40, ptr nonnull %_45)
  call void @llvm.lifetime.end.p0(i64 48, ptr nonnull %_41.sroa.6)
  call void @llvm.lifetime.end.p0(i64 48, ptr nonnull %hir)
  call void @llvm.lifetime.end.p0(i64 8, ptr nonnull %_34.sroa.6155)
  call void @llvm.lifetime.end.p0(i64 8, ptr nonnull %_34.sroa.11)
  br label %bb24

bb24:                                             ; preds = %bb23, %bb22
  call void @llvm.experimental.noalias.scope.decl(metadata !231)
  %_5.i.i93 = load ptr, ptr %_6.sroa.2.0.hirs.sroa_idx, align 8, !alias.scope !234, !nonnull !52, !noundef !52
  %len.i.i94 = load i64, ptr %_6.sroa.3.0.hirs.sroa_idx, align 8, !alias.scope !234, !noundef !52
; invoke core::ptr::drop_in_place::<[regex_syntax::hir::Hir]>
  invoke fastcc void @_RINvNtCsjMrxcFdYDNN_4core3ptr13drop_in_placeSNtNtCs4jgOJqAujFa_12regex_syntax3hir3HirECsf3B9tbXe5WF_5regex(ptr noalias noundef nonnull align 8 %_5.i.i93, i64 noundef %len.i.i94)
          to label %bb4.i100 unwind label %cleanup.i95, !noalias !231

cleanup.i95:                                      ; preds = %bb24
  %190 = landingpad { ptr, i32 }
          cleanup
  %_1.val.i96 = load i64, ptr %hirs, align 8, !range !183, !alias.scope !231, !noundef !52
  %191 = icmp eq i64 %_1.val.i96, 0
  br i1 %191, label %bb31, label %bb31.sink.split

bb4.i100:                                         ; preds = %bb24
  %_1.val2.i101 = load i64, ptr %hirs, align 8, !range !183, !alias.scope !231, !noundef !52
  %192 = icmp eq i64 %_1.val2.i101, 0
  br i1 %192, label %bb25, label %bb2.i.i.i4.i102

bb2.i.i.i4.i102:                                  ; preds = %bb4.i100
  %alloc_size.i.i.i.i5.i103 = mul nuw i64 %_1.val2.i101, 48
; call __rustc::__rust_dealloc
  call void @_RNvCsKhRCbHf33p_7___rustc14___rust_dealloc(ptr noundef nonnull %_5.i.i93, i64 noundef %alloc_size.i.i.i.i5.i103, i64 noundef range(i64 1, -9223372036854775807) 8) #26, !noalias !231
  br label %bb25

cleanup9:                                         ; preds = %bb8
  %193 = landingpad { ptr, i32 }
          cleanup
; invoke core::ptr::drop_in_place::<regex_syntax::ast::parse::Parser>
  invoke fastcc void @_RINvNtCsjMrxcFdYDNN_4core3ptr13drop_in_placeNtNtNtCs4jgOJqAujFa_12regex_syntax3ast5parse6ParserECsf3B9tbXe5WF_5regex(ptr noalias noundef align 8 dereferenceable(200) %_20) #25
          to label %bb30 unwind label %terminate

bb8:                                              ; preds = %bb7.i
  %_16.i = add i64 %iter.sroa.8.0204, 1
  call void @llvm.lifetime.start.p0(i64 16, ptr nonnull %ast)
  call void @llvm.lifetime.start.p0(i64 128, ptr nonnull %_18)
  call void @llvm.lifetime.start.p0(i64 200, ptr nonnull %_20)
  store <2 x i64> splat (i64 1), ptr %_2.sroa.4.0..sroa_idx.i, align 8, !alias.scope !237, !noalias !240
  store i32 0, ptr %8, align 8, !alias.scope !237, !noalias !240
  store i32 %_4.i, ptr %9, align 4, !alias.scope !237, !noalias !240
  store i8 %3, ptr %10, align 1, !alias.scope !237, !noalias !240
  store i8 %7, ptr %11, align 2, !alias.scope !237, !noalias !240
  store i8 %5, ptr %12, align 1, !alias.scope !237, !noalias !240
  store i8 %7, ptr %13, align 8, !alias.scope !237, !noalias !240
  call void @llvm.memset.p0.i64(ptr noundef nonnull align 8 dereferenceable(200) %_20, i8 0, i64 16, i1 false), !alias.scope !237, !noalias !240
  store ptr inttoptr (i64 8 to ptr), ptr %_9.sroa.4.sroa.4.0._9.sroa.4.0._0.sroa_idx.sroa_idx.i, align 8, !alias.scope !237, !noalias !240
  call void @llvm.memset.p0.i64(ptr noundef nonnull align 8 dereferenceable(24) %_9.sroa.4.sroa.5.0._9.sroa.4.0._0.sroa_idx.sroa_idx.i, i8 0, i64 24, i1 false), !alias.scope !237, !noalias !240
  store ptr inttoptr (i64 8 to ptr), ptr %_11.sroa.4.sroa.4.0._11.sroa.4.0..sroa_idx.sroa_idx.i, align 8, !alias.scope !237, !noalias !240
  call void @llvm.memset.p0.i64(ptr noundef nonnull align 8 dereferenceable(24) %_11.sroa.4.sroa.5.0._11.sroa.4.0..sroa_idx.sroa_idx.i, i8 0, i64 24, i1 false), !alias.scope !237, !noalias !240
  store ptr inttoptr (i64 8 to ptr), ptr %_13.sroa.4.sroa.4.0._13.sroa.4.0..sroa_idx.sroa_idx.i, align 8, !alias.scope !237, !noalias !240
  call void @llvm.memset.p0.i64(ptr noundef nonnull align 8 dereferenceable(24) %_13.sroa.4.sroa.5.0._13.sroa.4.0..sroa_idx.sroa_idx.i, i8 0, i64 24, i1 false), !alias.scope !237, !noalias !240
  store ptr inttoptr (i64 8 to ptr), ptr %_15.sroa.4.sroa.4.0._15.sroa.4.0..sroa_idx.sroa_idx.i, align 8, !alias.scope !237, !noalias !240
  call void @llvm.memset.p0.i64(ptr noundef nonnull align 8 dereferenceable(24) %_15.sroa.4.sroa.5.0._15.sroa.4.0..sroa_idx.sroa_idx.i, i8 0, i64 24, i1 false), !alias.scope !237, !noalias !240
  store ptr inttoptr (i64 1 to ptr), ptr %_17.sroa.4.sroa.4.0._17.sroa.4.0..sroa_idx.sroa_idx.i, align 8, !alias.scope !237, !noalias !240
  store <2 x i64> zeroinitializer, ptr %_17.sroa.4.sroa.5.0._17.sroa.4.0..sroa_idx.sroa_idx.i, align 8, !alias.scope !237, !noalias !240
  %194 = getelementptr i8, ptr %iter.sroa.0.0205, i64 8
  %.val = load ptr, ptr %194, align 8, !nonnull !52, !noundef !52
  %195 = getelementptr i8, ptr %iter.sroa.0.0205, i64 16
  %.val27 = load i64, ptr %195, align 8, !noundef !52
; invoke <regex_syntax::ast::parse::Parser>::parse
  invoke void @_RNvMs1_NtNtCs4jgOJqAujFa_12regex_syntax3ast5parseNtB5_6Parser5parse(ptr noalias noundef nonnull sret([128 x i8]) align 8 captures(address) dereferenceable(128) %_18, ptr noalias noundef nonnull align 8 dereferenceable(200) %_20, ptr noalias noundef nonnull readonly align 1 captures(address, read_provenance) %.val, i64 noundef %.val27)
          to label %bb9 unwind label %cleanup9

bb9:                                              ; preds = %bb8
  %196 = load i64, ptr %_18, align 8, !range !191, !noundef !52
  %.not23 = icmp eq i64 %196, -9223372036854775808
  br i1 %.not23, label %bb44, label %bb45

bb44:                                             ; preds = %bb9
  %_70.0 = load i64, ptr %14, align 8, !range !242, !noundef !52
  %_70.1 = load ptr, ptr %15, align 8, !noundef !52
  call void @llvm.lifetime.end.p0(i64 128, ptr nonnull %_18)
  store i64 %_70.0, ptr %ast, align 8
  store ptr %_70.1, ptr %16, align 8
; invoke core::ptr::drop_in_place::<regex_syntax::ast::parse::Parser>
  invoke fastcc void @_RINvNtCsjMrxcFdYDNN_4core3ptr13drop_in_placeNtNtNtCs4jgOJqAujFa_12regex_syntax3ast5parse6ParserECsf3B9tbXe5WF_5regex(ptr noalias noundef align 8 dereferenceable(200) %_20)
          to label %bb10 unwind label %bb35

bb10:                                             ; preds = %bb44
  call void @llvm.lifetime.end.p0(i64 200, ptr nonnull %_20)
  call void @llvm.experimental.noalias.scope.decl(metadata !243)
  call void @llvm.lifetime.start.p0(i64 16, ptr nonnull %value.i)
  store i64 %_70.0, ptr %value.i, align 8, !noalias !243
  store ptr %_70.1, ptr %17, align 8, !noalias !243
  %len.i108 = load i64, ptr %_5.sroa.3.0.asts.sroa_idx, align 8, !alias.scope !243, !noundef !52
  %self1.i109 = load i64, ptr %asts, align 8, !range !183, !alias.scope !243, !noundef !52
  %_4.i110 = icmp eq i64 %len.i108, %self1.i109
  br i1 %_4.i110, label %bb1.i114, label %bb46

bb1.i114:                                         ; preds = %bb10
; invoke <alloc::raw_vec::RawVec<regex_syntax::ast::Ast>>::grow_one
  invoke void @_RNvMs3_NtCsdJPVW0sQgAG_5alloc7raw_vecINtB5_6RawVecNtNtCs4jgOJqAujFa_12regex_syntax3ast3AstE8grow_oneBQ_(ptr noalias noundef nonnull align 8 dereferenceable(24) %asts)
          to label %bb46 unwind label %cleanup.i115

cleanup.i115:                                     ; preds = %bb1.i114
  %197 = landingpad { ptr, i32 }
          cleanup
; invoke core::ptr::drop_in_place::<regex_syntax::ast::Ast>
  invoke fastcc void @_RINvNtCsjMrxcFdYDNN_4core3ptr13drop_in_placeNtNtCs4jgOJqAujFa_12regex_syntax3ast3AstECsf3B9tbXe5WF_5regex(ptr noalias noundef align 8 dereferenceable(16) %value.i) #25
          to label %bb30 unwind label %terminate.i116

terminate.i116:                                   ; preds = %cleanup.i115
  %198 = landingpad { ptr, i32 }
          filter [0 x ptr] zeroinitializer
; call core::panicking::panic_in_cleanup
  call void @_RNvNtCsjMrxcFdYDNN_4core9panicking16panic_in_cleanup() #28
  unreachable

bb46:                                             ; preds = %bb1.i114, %bb10
  %_14.i112 = load ptr, ptr %_5.sroa.2.0.asts.sroa_idx, align 8, !alias.scope !243, !nonnull !52, !noundef !52
  %end.i113 = getelementptr inbounds nuw %"regex_syntax::ast::Ast", ptr %_14.i112, i64 %len.i108
  store i64 %_70.0, ptr %end.i113, align 8
  %199 = getelementptr inbounds nuw i8, ptr %end.i113, i64 8
  store ptr %_70.1, ptr %199, align 8
  %200 = add i64 %len.i108, 1
  store i64 %200, ptr %_5.sroa.3.0.asts.sroa_idx, align 8, !alias.scope !243
  call void @llvm.lifetime.end.p0(i64 16, ptr nonnull %value.i)
  call void @llvm.lifetime.end.p0(i64 16, ptr nonnull %ast)
  %_6.i.i = icmp eq ptr %_16.i.i, %_59
  br i1 %_6.i.i, label %bb6, label %bb7.i

bb35:                                             ; preds = %bb44
  %201 = landingpad { ptr, i32 }
          cleanup
; invoke core::ptr::drop_in_place::<regex_syntax::ast::Ast>
  invoke fastcc void @_RINvNtCsjMrxcFdYDNN_4core3ptr13drop_in_placeNtNtCs4jgOJqAujFa_12regex_syntax3ast3AstECsf3B9tbXe5WF_5regex(ptr noalias noundef align 8 dereferenceable(16) %ast) #25
          to label %bb30 unwind label %terminate

bb45:                                             ; preds = %bb9
  %_20.i.le = trunc i64 %iter.sroa.8.0204 to i32
  %_71.sroa.5.0.copyload = load i64, ptr %14, align 8
  %_71.sroa.6.0.copyload = load ptr, ptr %15, align 8
  %_71.sroa.7.0._18.sroa_idx = getelementptr inbounds nuw i8, ptr %_18, i64 24
  %_77.sroa.4.0._0.sroa_idx = getelementptr inbounds nuw i8, ptr %_0, i64 24
  call void @llvm.memcpy.p0.p0.i64(ptr noundef nonnull align 8 dereferenceable(104) %_77.sroa.4.0._0.sroa_idx, ptr noundef nonnull align 8 dereferenceable(104) %_71.sroa.7.0._18.sroa_idx, i64 104, i1 false)
  call void @llvm.lifetime.end.p0(i64 128, ptr nonnull %_18)
  store i64 %196, ptr %_0, align 8
  %_77.sroa.2.0._0.sroa_idx = getelementptr inbounds nuw i8, ptr %_0, i64 8
  store i64 %_71.sroa.5.0.copyload, ptr %_77.sroa.2.0._0.sroa_idx, align 8
  %_77.sroa.3.0._0.sroa_idx = getelementptr inbounds nuw i8, ptr %_0, i64 16
  store ptr %_71.sroa.6.0.copyload, ptr %_77.sroa.3.0._0.sroa_idx, align 8
  %_77.sroa.4.sroa.2.0._77.sroa.4.0._0.sroa_idx.sroa_idx = getelementptr inbounds nuw i8, ptr %_0, i64 128
  store i32 %_20.i.le, ptr %_77.sroa.4.sroa.2.0._77.sroa.4.0._0.sroa_idx.sroa_idx, align 8
; invoke core::ptr::drop_in_place::<regex_syntax::ast::parse::Parser>
  invoke fastcc void @_RINvNtCsjMrxcFdYDNN_4core3ptr13drop_in_placeNtNtNtCs4jgOJqAujFa_12regex_syntax3ast5parse6ParserECsf3B9tbXe5WF_5regex(ptr noalias noundef align 8 dereferenceable(200) %_20)
          to label %bb23 unwind label %cleanup

bb23:                                             ; preds = %bb45
  call void @llvm.lifetime.end.p0(i64 200, ptr nonnull %_20)
  call void @llvm.lifetime.end.p0(i64 16, ptr nonnull %ast)
  br label %bb24

bb25:                                             ; preds = %bb2.i.i.i4.i102, %bb4.i100
  call void @llvm.lifetime.end.p0(i64 24, ptr nonnull %hirs)
  call void @llvm.experimental.noalias.scope.decl(metadata !246)
  %_5.i.i119 = load ptr, ptr %_5.sroa.2.0.asts.sroa_idx, align 8, !alias.scope !249, !nonnull !52, !noundef !52
  %len.i.i120 = load i64, ptr %_5.sroa.3.0.asts.sroa_idx, align 8, !alias.scope !249, !noundef !52
  br label %bb6.i.i121

bb6.i.i121:                                       ; preds = %bb5.i.i124, %bb25
  %_3.sroa.0.0.i.i122 = phi i64 [ 0, %bb25 ], [ %202, %bb5.i.i124 ]
  %_7.i.i123 = icmp eq i64 %_3.sroa.0.0.i.i122, %len.i.i120
  br i1 %_7.i.i123, label %bb4.i138, label %bb5.i.i124

bb5.i.i124:                                       ; preds = %bb6.i.i121
  %_6.i.i125 = getelementptr inbounds nuw %"regex_syntax::ast::Ast", ptr %_5.i.i119, i64 %_3.sroa.0.0.i.i122
  %202 = add i64 %_3.sroa.0.0.i.i122, 1
; invoke core::ptr::drop_in_place::<regex_syntax::ast::Ast>
  invoke fastcc void @_RINvNtCsjMrxcFdYDNN_4core3ptr13drop_in_placeNtNtCs4jgOJqAujFa_12regex_syntax3ast3AstECsf3B9tbXe5WF_5regex(ptr noalias noundef align 8 dereferenceable(16) %_6.i.i125) #30
          to label %bb6.i.i121 unwind label %cleanup.i.i126, !noalias !246

bb4.i.i127:                                       ; preds = %bb3.i.i130, %cleanup.i.i126
  %_3.sroa.0.1.i.i128 = phi i64 [ %202, %cleanup.i.i126 ], [ %204, %bb3.i.i130 ]
  %_5.i7.i129 = icmp eq i64 %_3.sroa.0.1.i.i128, %len.i.i120
  br i1 %_5.i7.i129, label %cleanup.body.i133, label %bb3.i.i130

cleanup.i.i126:                                   ; preds = %bb5.i.i124
  %203 = landingpad { ptr, i32 }
          cleanup
  br label %bb4.i.i127

bb3.i.i130:                                       ; preds = %bb4.i.i127
  %_4.i.i131 = getelementptr inbounds nuw %"regex_syntax::ast::Ast", ptr %_5.i.i119, i64 %_3.sroa.0.1.i.i128
  %204 = add i64 %_3.sroa.0.1.i.i128, 1
; invoke core::ptr::drop_in_place::<regex_syntax::ast::Ast>
  invoke fastcc void @_RINvNtCsjMrxcFdYDNN_4core3ptr13drop_in_placeNtNtCs4jgOJqAujFa_12regex_syntax3ast3AstECsf3B9tbXe5WF_5regex(ptr noalias noundef align 8 dereferenceable(16) %_4.i.i131) #31
          to label %bb4.i.i127 unwind label %terminate.i.i132, !noalias !246

terminate.i.i132:                                 ; preds = %bb3.i.i130
  %205 = landingpad { ptr, i32 }
          filter [0 x ptr] zeroinitializer
; call core::panicking::panic_in_cleanup
  call void @_RNvNtCsjMrxcFdYDNN_4core9panicking16panic_in_cleanup() #28, !noalias !246
  unreachable

cleanup.body.i133:                                ; preds = %bb4.i.i127
  %_1.val.i134 = load i64, ptr %asts, align 8, !range !183, !alias.scope !246, !noundef !52
  %206 = icmp eq i64 %_1.val.i134, 0
  br i1 %206, label %common.resume, label %common.resume.sink.split

bb4.i138:                                         ; preds = %bb6.i.i121
  %_1.val2.i139 = load i64, ptr %asts, align 8, !range !183, !alias.scope !246, !noundef !52
  %207 = icmp eq i64 %_1.val2.i139, 0
  br i1 %207, label %bb27, label %bb27.sink.split
}

; <alloc::sync::Arc<[alloc::string::String]>>::from_iter_exact::<core::iter::adapters::cloned::Cloned<core::slice::iter::Iter<alloc::string::String>>>
; Function Attrs: uwtable
define internal fastcc { ptr, i64 } @_RINvMsq_NtCsdJPVW0sQgAG_5alloc4syncINtB6_3ArcSNtNtB8_6string6StringE15from_iter_exactINtNtNtNtCsjMrxcFdYDNN_4core4iter8adapters6cloned6ClonedINtNtNtB1u_5slice4iter4IterBI_EEECsf3B9tbXe5WF_5regex(ptr noundef nonnull captures(address, read_provenance) %iter.0, ptr noundef nonnull readnone captures(address) %iter.1, i64 noundef %len) unnamed_addr #1 personality ptr @rust_eh_personality {
start:
  %e.i.i = alloca [0 x i8], align 1
  %self1.i = alloca [24 x i8], align 8
  %item.sroa.2 = alloca [16 x i8], align 8
  %guard = alloca [40 x i8], align 8
  %_4.i.i = icmp ugt i64 %len, 384307168202282325
  call void @llvm.lifetime.start.p0(i64 0, ptr nonnull %e.i.i)
  br i1 %_4.i.i, label %bb2.i.i, label %_RNvMNtCsjMrxcFdYDNN_4core6resultINtB2_6ResultNtNtNtB4_5alloc6layout6LayoutNtBJ_11LayoutErrorE6unwrapCsf3B9tbXe5WF_5regex.exit.i, !prof !51

bb2.i.i:                                          ; preds = %start
; call core::result::unwrap_failed
  call void @_RNvNtCsjMrxcFdYDNN_4core6result13unwrap_failed(ptr noalias noundef nonnull readonly align 1 captures(address, read_provenance) @alloc_00ae4b301f7fab8ac9617c03fcbd7274, i64 noundef 43, ptr noundef nonnull align 1 %e.i.i, ptr noalias noundef readonly align 8 captures(address, read_provenance) dereferenceable(32) @vtable.2, ptr noalias noundef readonly align 8 captures(address, read_provenance) dereferenceable(24) @alloc_8d3f04787262a218d98e1165052cbb5c) #27
  unreachable

_RNvMNtCsjMrxcFdYDNN_4core6resultINtB2_6ResultNtNtNtB4_5alloc6layout6LayoutNtBJ_11LayoutErrorE6unwrapCsf3B9tbXe5WF_5regex.exit.i: ; preds = %start
  %array_size.i.i = mul nuw nsw i64 %len, 24
  call void @llvm.lifetime.end.p0(i64 0, ptr nonnull %e.i.i)
; call alloc::sync::arcinner_layout_for_value_layout
  %0 = tail call { i64, i64 } @_RNvNtCsdJPVW0sQgAG_5alloc4sync32arcinner_layout_for_value_layout(i64 noundef range(i64 1, 9) 8, i64 noundef %array_size.i.i)
  %layout.0.i.i = extractvalue { i64, i64 } %0, 0
  %layout.1.i.i = extractvalue { i64, i64 } %0, 1
  %1 = icmp eq i64 %layout.1.i.i, 0
  br i1 %1, label %bb2.i.i.i.i, label %bb4.i.i.i.i

bb2.i.i.i.i:                                      ; preds = %_RNvMNtCsjMrxcFdYDNN_4core6resultINtB2_6ResultNtNtNtB4_5alloc6layout6LayoutNtBJ_11LayoutErrorE6unwrapCsf3B9tbXe5WF_5regex.exit.i
  %_16.i.i.i.i = inttoptr i64 %layout.0.i.i to ptr
  br label %_RNCNvMsq_NtCsdJPVW0sQgAG_5alloc4syncINtB7_3ArcSNtNtB9_6string6StringE18allocate_for_slice0Csf3B9tbXe5WF_5regex.exit.i.i

bb4.i.i.i.i:                                      ; preds = %_RNvMNtCsjMrxcFdYDNN_4core6resultINtB2_6ResultNtNtNtB4_5alloc6layout6LayoutNtBJ_11LayoutErrorE6unwrapCsf3B9tbXe5WF_5regex.exit.i
; call __rustc::__rust_no_alloc_shim_is_unstable_v2
  tail call void @_RNvCsKhRCbHf33p_7___rustc35___rust_no_alloc_shim_is_unstable_v2() #26
; call __rustc::__rust_alloc
  %2 = tail call noundef ptr @_RNvCsKhRCbHf33p_7___rustc12___rust_alloc(i64 noundef %layout.1.i.i, i64 noundef range(i64 1, -9223372036854775807) %layout.0.i.i) #26
  br label %_RNCNvMsq_NtCsdJPVW0sQgAG_5alloc4syncINtB7_3ArcSNtNtB9_6string6StringE18allocate_for_slice0Csf3B9tbXe5WF_5regex.exit.i.i

_RNCNvMsq_NtCsdJPVW0sQgAG_5alloc4syncINtB7_3ArcSNtNtB9_6string6StringE18allocate_for_slice0Csf3B9tbXe5WF_5regex.exit.i.i: ; preds = %bb4.i.i.i.i, %bb2.i.i.i.i
  %_0.sroa.0.0.i.i.i.i = phi ptr [ %_16.i.i.i.i, %bb2.i.i.i.i ], [ %2, %bb4.i.i.i.i ]
  %3 = icmp eq ptr %_0.sroa.0.0.i.i.i.i, null
  br i1 %3, label %bb9.i.i, label %bb2, !prof !51

bb9.i.i:                                          ; preds = %_RNCNvMsq_NtCsdJPVW0sQgAG_5alloc4syncINtB7_3ArcSNtNtB9_6string6StringE18allocate_for_slice0Csf3B9tbXe5WF_5regex.exit.i.i
; call alloc::alloc::handle_alloc_error
  tail call void @_RNvNtCsdJPVW0sQgAG_5alloc5alloc18handle_alloc_error(i64 noundef %layout.0.i.i, i64 noundef %layout.1.i.i) #27
  unreachable

bb2:                                              ; preds = %_RNCNvMsq_NtCsdJPVW0sQgAG_5alloc4syncINtB7_3ArcSNtNtB9_6string6StringE18allocate_for_slice0Csf3B9tbXe5WF_5regex.exit.i.i
  store <2 x i64> splat (i64 1), ptr %_0.sroa.0.0.i.i.i.i, align 8
  %4 = add nuw i64 %array_size.i.i, 23
  %5 = and i64 %4, -8
  %_8.0 = getelementptr inbounds nuw i8, ptr %_0.sroa.0.0.i.i.i.i, i64 16
  call void @llvm.lifetime.start.p0(i64 40, ptr nonnull %guard)
  %6 = getelementptr inbounds nuw i8, ptr %guard, i64 16
  store ptr %_0.sroa.0.0.i.i.i.i, ptr %6, align 8
  %7 = getelementptr inbounds nuw i8, ptr %guard, i64 24
  store ptr %_8.0, ptr %7, align 8
  store i64 8, ptr %guard, align 8
  %8 = getelementptr inbounds nuw i8, ptr %guard, i64 8
  store i64 %5, ptr %8, align 8
  call void @llvm.lifetime.start.p0(i64 24, ptr nonnull %self1.i), !noalias !252
  %_6.i.i.i18 = icmp eq ptr %iter.0, %iter.1
  br i1 %_6.i.i.i18, label %bb7, label %_RNvXs_NtNtNtCsjMrxcFdYDNN_4core4iter8adapters6clonedINtB4_6ClonedINtNtNtBa_5slice4iter4IterNtNtCsdJPVW0sQgAG_5alloc6string6StringEENtNtNtB8_6traits8iterator8Iterator4nextCsf3B9tbXe5WF_5regex.exit.i.lr.ph

_RNvXs_NtNtNtCsjMrxcFdYDNN_4core4iter8adapters6clonedINtB4_6ClonedINtNtNtBa_5slice4iter4IterNtNtCsdJPVW0sQgAG_5alloc6string6StringEENtNtNtB8_6traits8iterator8Iterator4nextCsf3B9tbXe5WF_5regex.exit.i.lr.ph: ; preds = %bb2
  %_14.sroa.9.8.self1.i.sroa_idx = getelementptr inbounds nuw i8, ptr %self1.i, i64 8
  br label %_RNvXs_NtNtNtCsjMrxcFdYDNN_4core4iter8adapters6clonedINtB4_6ClonedINtNtNtBa_5slice4iter4IterNtNtCsdJPVW0sQgAG_5alloc6string6StringEENtNtNtB8_6traits8iterator8Iterator4nextCsf3B9tbXe5WF_5regex.exit.i

_RNvXs_NtNtNtCsjMrxcFdYDNN_4core4iter8adapters6clonedINtB4_6ClonedINtNtNtBa_5slice4iter4IterNtNtCsdJPVW0sQgAG_5alloc6string6StringEENtNtNtB8_6traits8iterator8Iterator4nextCsf3B9tbXe5WF_5regex.exit.i: ; preds = %_RNvXs_NtNtNtCsjMrxcFdYDNN_4core4iter8adapters6clonedINtB4_6ClonedINtNtNtBa_5slice4iter4IterNtNtCsdJPVW0sQgAG_5alloc6string6StringEENtNtNtB8_6traits8iterator8Iterator4nextCsf3B9tbXe5WF_5regex.exit.i.lr.ph, %bb6
  %iter.sroa.7.020 = phi i64 [ 0, %_RNvXs_NtNtNtCsjMrxcFdYDNN_4core4iter8adapters6clonedINtB4_6ClonedINtNtNtBa_5slice4iter4IterNtNtCsdJPVW0sQgAG_5alloc6string6StringEENtNtNtB8_6traits8iterator8Iterator4nextCsf3B9tbXe5WF_5regex.exit.i.lr.ph ], [ %_8.0.i, %bb6 ]
  %iter.sroa.0.019 = phi ptr [ %iter.0, %_RNvXs_NtNtNtCsjMrxcFdYDNN_4core4iter8adapters6clonedINtB4_6ClonedINtNtNtBa_5slice4iter4IterNtNtCsdJPVW0sQgAG_5alloc6string6StringEENtNtNtB8_6traits8iterator8Iterator4nextCsf3B9tbXe5WF_5regex.exit.i.lr.ph ], [ %_16.i.i.i, %bb6 ]
  %_16.i.i.i = getelementptr inbounds nuw i8, ptr %iter.sroa.0.019, i64 24
; invoke <alloc::string::String as core::clone::Clone>::clone
  invoke void @_RNvXs4_NtCsdJPVW0sQgAG_5alloc6stringNtB5_6StringNtNtCsjMrxcFdYDNN_4core5clone5Clone5clone(ptr noalias noundef nonnull sret([24 x i8]) align 8 captures(none) dereferenceable(24) %self1.i, ptr noalias noundef nonnull readonly align 8 captures(address, read_provenance) dereferenceable(24) %iter.sroa.0.019)
          to label %.noexc unwind label %cleanup2

.noexc:                                           ; preds = %_RNvXs_NtNtNtCsjMrxcFdYDNN_4core4iter8adapters6clonedINtB4_6ClonedINtNtNtBa_5slice4iter4IterNtNtCsdJPVW0sQgAG_5alloc6string6StringEENtNtNtB8_6traits8iterator8Iterator4nextCsf3B9tbXe5WF_5regex.exit.i
  %.pr.i = load i64, ptr %self1.i, align 8, !noalias !252
  %.not.i = icmp eq i64 %.pr.i, -9223372036854775808
  br i1 %.not.i, label %bb7, label %bb6

cleanup2:                                         ; preds = %_RNvXs_NtNtNtCsjMrxcFdYDNN_4core4iter8adapters6clonedINtB4_6ClonedINtNtNtBa_5slice4iter4IterNtNtCsdJPVW0sQgAG_5alloc6string6StringEENtNtNtB8_6traits8iterator8Iterator4nextCsf3B9tbXe5WF_5regex.exit.i
  %9 = landingpad { ptr, i32 }
          cleanup
  %10 = getelementptr inbounds nuw i8, ptr %guard, i64 32
  store i64 %iter.sroa.7.020, ptr %10, align 8
; call core::ptr::drop_in_place::<<alloc::sync::Arc<[_]>>::from_iter_exact::Guard<alloc::string::String>>
  call fastcc void @_RINvNtCsjMrxcFdYDNN_4core3ptr13drop_in_placeINtNvMsq_NtCsdJPVW0sQgAG_5alloc4syncINtBP_3ArcSpE15from_iter_exact5GuardNtNtBR_6string6StringEECsf3B9tbXe5WF_5regex(ptr noalias noundef align 8 dereferenceable(40) %guard) #25
  resume { ptr, i32 } %9

bb6:                                              ; preds = %.noexc
  call void @llvm.memcpy.p0.p0.i64(ptr noundef nonnull align 8 dereferenceable(16) %item.sroa.2, ptr noundef nonnull align 8 dereferenceable(16) %_14.sroa.9.8.self1.i.sroa_idx, i64 16, i1 false)
  call void @llvm.lifetime.end.p0(i64 24, ptr nonnull %self1.i), !noalias !252
  %_8.0.i = add i64 %iter.sroa.7.020, 1
  %dst = getelementptr inbounds nuw %"alloc::string::String", ptr %_8.0, i64 %iter.sroa.7.020
  store i64 %.pr.i, ptr %dst, align 8
  %item.sroa.2.0.dst.sroa_idx = getelementptr inbounds nuw i8, ptr %dst, i64 8
  call void @llvm.memcpy.p0.p0.i64(ptr noundef nonnull align 8 dereferenceable(16) %item.sroa.2.0.dst.sroa_idx, ptr noundef nonnull align 8 dereferenceable(16) %item.sroa.2, i64 16, i1 false)
  call void @llvm.lifetime.start.p0(i64 24, ptr nonnull %self1.i), !noalias !252
  %_6.i.i.i = icmp eq ptr %_16.i.i.i, %iter.1
  br i1 %_6.i.i.i, label %bb7, label %_RNvXs_NtNtNtCsjMrxcFdYDNN_4core4iter8adapters6clonedINtB4_6ClonedINtNtNtBa_5slice4iter4IterNtNtCsdJPVW0sQgAG_5alloc6string6StringEENtNtNtB8_6traits8iterator8Iterator4nextCsf3B9tbXe5WF_5regex.exit.i

bb7:                                              ; preds = %bb6, %.noexc, %bb2
  %11 = insertvalue { ptr, i64 } poison, ptr %_0.sroa.0.0.i.i.i.i, 0
  %12 = insertvalue { ptr, i64 } %11, i64 %len, 1
  call void @llvm.lifetime.end.p0(i64 24, ptr nonnull %self1.i), !noalias !252
  call void @llvm.lifetime.end.p0(i64 40, ptr nonnull %guard)
  ret { ptr, i64 } %12
}

; core::ptr::drop_in_place::<core::cell::UnsafeCell<alloc::vec::Vec<alloc::boxed::Box<regex_automata::meta::regex::Cache>>>>
; Function Attrs: uwtable
define internal fastcc void @_RINvNtCsjMrxcFdYDNN_4core3ptr13drop_in_placeINtNtB4_4cell10UnsafeCellINtNtCsdJPVW0sQgAG_5alloc3vec3VecINtNtB1a_5boxed3BoxNtNtNtCsbJQShvh9aPA_14regex_automata4meta5regex5CacheEEEECsf3B9tbXe5WF_5regex(ptr noalias noundef nonnull readonly align 8 captures(none) dereferenceable(24) %_1) unnamed_addr #1 personality ptr @rust_eh_personality {
start:
  tail call void @llvm.experimental.noalias.scope.decl(metadata !256)
  %0 = getelementptr inbounds nuw i8, ptr %_1, i64 8
  %_1.val.i = load ptr, ptr %0, align 8, !alias.scope !256, !nonnull !52, !noundef !52
  %1 = getelementptr inbounds nuw i8, ptr %_1, i64 16
  %_1.val1.i = load i64, ptr %1, align 8, !alias.scope !256, !noundef !52
  tail call void @llvm.experimental.noalias.scope.decl(metadata !259)
  %_76.i.i.i = icmp eq i64 %_1.val1.i, 0
  br i1 %_76.i.i.i, label %bb4.i, label %bb5.i.i.i

bb5.i.i.i:                                        ; preds = %start, %_RINvNtCsjMrxcFdYDNN_4core3ptr13drop_in_placeINtNtCsdJPVW0sQgAG_5alloc5boxed3BoxNtNtNtCsbJQShvh9aPA_14regex_automata4meta5regex5CacheEECsf3B9tbXe5WF_5regex.exit.i.i.i
  %_3.sroa.0.07.i.i.i = phi i64 [ %2, %_RINvNtCsjMrxcFdYDNN_4core3ptr13drop_in_placeINtNtCsdJPVW0sQgAG_5alloc5boxed3BoxNtNtNtCsbJQShvh9aPA_14regex_automata4meta5regex5CacheEECsf3B9tbXe5WF_5regex.exit.i.i.i ], [ 0, %start ]
  %_6.i.i.i = getelementptr inbounds nuw ptr, ptr %_1.val.i, i64 %_3.sroa.0.07.i.i.i
  %2 = add nuw i64 %_3.sroa.0.07.i.i.i, 1
  %_6.val.i.i.i = load ptr, ptr %_6.i.i.i, align 8, !alias.scope !259, !noalias !256, !nonnull !52, !noundef !52
; invoke core::ptr::drop_in_place::<regex_automata::meta::regex::Cache>
  invoke fastcc void @_RINvNtCsjMrxcFdYDNN_4core3ptr13drop_in_placeNtNtNtCsbJQShvh9aPA_14regex_automata4meta5regex5CacheECsf3B9tbXe5WF_5regex(ptr noalias noundef nonnull align 8 dereferenceable(1400) %_6.val.i.i.i)
          to label %_RINvNtCsjMrxcFdYDNN_4core3ptr13drop_in_placeINtNtCsdJPVW0sQgAG_5alloc5boxed3BoxNtNtNtCsbJQShvh9aPA_14regex_automata4meta5regex5CacheEECsf3B9tbXe5WF_5regex.exit.i.i.i unwind label %bb1.i.i.i.i, !noalias !262

bb1.i.i.i.i:                                      ; preds = %bb5.i.i.i
  %3 = landingpad { ptr, i32 }
          cleanup
; call __rustc::__rust_dealloc
  tail call void @_RNvCsKhRCbHf33p_7___rustc14___rust_dealloc(ptr noundef nonnull %_6.val.i.i.i, i64 noundef 1400, i64 noundef 8) #26, !noalias !262
  br label %bb4.i.i.i

_RINvNtCsjMrxcFdYDNN_4core3ptr13drop_in_placeINtNtCsdJPVW0sQgAG_5alloc5boxed3BoxNtNtNtCsbJQShvh9aPA_14regex_automata4meta5regex5CacheEECsf3B9tbXe5WF_5regex.exit.i.i.i: ; preds = %bb5.i.i.i
; call __rustc::__rust_dealloc
  tail call void @_RNvCsKhRCbHf33p_7___rustc14___rust_dealloc(ptr noundef nonnull %_6.val.i.i.i, i64 noundef 1400, i64 noundef 8) #26, !noalias !262
  %_7.i.i.i = icmp eq i64 %2, %_1.val1.i
  br i1 %_7.i.i.i, label %bb4.i, label %bb5.i.i.i

bb4.i.i.i:                                        ; preds = %bb3.i.i.i, %bb1.i.i.i.i
  %_3.sroa.0.1.i.i.i = phi i64 [ %2, %bb1.i.i.i.i ], [ %4, %bb3.i.i.i ]
  %_5.i.i.i = icmp eq i64 %_3.sroa.0.1.i.i.i, %_1.val1.i
  br i1 %_5.i.i.i, label %cleanup.body.i, label %bb3.i.i.i

bb3.i.i.i:                                        ; preds = %bb4.i.i.i
  %_4.i.i.i = getelementptr inbounds nuw ptr, ptr %_1.val.i, i64 %_3.sroa.0.1.i.i.i
  %4 = add i64 %_3.sroa.0.1.i.i.i, 1
  %_4.val.i.i.i = load ptr, ptr %_4.i.i.i, align 8, !alias.scope !259, !noalias !256, !nonnull !52, !noundef !52
; invoke core::ptr::drop_in_place::<alloc::boxed::Box<regex_automata::meta::regex::Cache>>
  invoke fastcc void @_RINvNtCsjMrxcFdYDNN_4core3ptr13drop_in_placeINtNtCsdJPVW0sQgAG_5alloc5boxed3BoxNtNtNtCsbJQShvh9aPA_14regex_automata4meta5regex5CacheEECsf3B9tbXe5WF_5regex(ptr %_4.val.i.i.i) #25
          to label %bb4.i.i.i unwind label %terminate.i.i.i, !noalias !262

terminate.i.i.i:                                  ; preds = %bb3.i.i.i
  %5 = landingpad { ptr, i32 }
          filter [0 x ptr] zeroinitializer
; call core::panicking::panic_in_cleanup
  tail call void @_RNvNtCsjMrxcFdYDNN_4core9panicking16panic_in_cleanup() #28, !noalias !262
  unreachable

cleanup.body.i:                                   ; preds = %bb4.i.i.i
  %_1.val2.i = load i64, ptr %_1, align 8, !range !183, !alias.scope !256, !noundef !52
  %6 = icmp eq i64 %_1.val2.i, 0
  br i1 %6, label %bb1.i, label %bb2.i.i.i.i

bb2.i.i.i.i:                                      ; preds = %cleanup.body.i
  %alloc_size.i.i.i.i.i = shl nuw i64 %_1.val2.i, 3
; call __rustc::__rust_dealloc
  tail call void @_RNvCsKhRCbHf33p_7___rustc14___rust_dealloc(ptr noundef nonnull %_1.val.i, i64 noundef %alloc_size.i.i.i.i.i, i64 noundef range(i64 1, -9223372036854775807) 8) #26, !noalias !256
  br label %bb1.i

bb4.i:                                            ; preds = %_RINvNtCsjMrxcFdYDNN_4core3ptr13drop_in_placeINtNtCsdJPVW0sQgAG_5alloc5boxed3BoxNtNtNtCsbJQShvh9aPA_14regex_automata4meta5regex5CacheEECsf3B9tbXe5WF_5regex.exit.i.i.i, %start
  %_1.val4.i = load i64, ptr %_1, align 8, !range !183, !alias.scope !256, !noundef !52
  %7 = icmp eq i64 %_1.val4.i, 0
  br i1 %7, label %_RINvNtCsjMrxcFdYDNN_4core3ptr13drop_in_placeINtNtCsdJPVW0sQgAG_5alloc3vec3VecINtNtBL_5boxed3BoxNtNtNtCsbJQShvh9aPA_14regex_automata4meta5regex5CacheEEECsf3B9tbXe5WF_5regex.exit, label %bb2.i.i.i6.i

bb2.i.i.i6.i:                                     ; preds = %bb4.i
  %alloc_size.i.i.i.i7.i = shl nuw i64 %_1.val4.i, 3
; call __rustc::__rust_dealloc
  tail call void @_RNvCsKhRCbHf33p_7___rustc14___rust_dealloc(ptr noundef nonnull %_1.val.i, i64 noundef %alloc_size.i.i.i.i7.i, i64 noundef range(i64 1, -9223372036854775807) 8) #26, !noalias !256
  br label %_RINvNtCsjMrxcFdYDNN_4core3ptr13drop_in_placeINtNtCsdJPVW0sQgAG_5alloc3vec3VecINtNtBL_5boxed3BoxNtNtNtCsbJQShvh9aPA_14regex_automata4meta5regex5CacheEEECsf3B9tbXe5WF_5regex.exit

bb1.i:                                            ; preds = %bb2.i.i.i.i, %cleanup.body.i
  resume { ptr, i32 } %3

_RINvNtCsjMrxcFdYDNN_4core3ptr13drop_in_placeINtNtCsdJPVW0sQgAG_5alloc3vec3VecINtNtBL_5boxed3BoxNtNtNtCsbJQShvh9aPA_14regex_automata4meta5regex5CacheEEECsf3B9tbXe5WF_5regex.exit: ; preds = %bb4.i, %bb2.i.i.i6.i
  ret void
}

; core::ptr::drop_in_place::<core::cell::RefCell<alloc::vec::Vec<regex_syntax::ast::CaptureName>>>
; Function Attrs: nounwind uwtable
define internal fastcc void @_RINvNtCsjMrxcFdYDNN_4core3ptr13drop_in_placeINtNtB4_4cell7RefCellINtNtCsdJPVW0sQgAG_5alloc3vec3VecNtNtCs4jgOJqAujFa_12regex_syntax3ast11CaptureNameEEECsf3B9tbXe5WF_5regex(ptr noalias noundef nonnull readonly align 8 captures(none) dereferenceable(32) %_1) unnamed_addr #2 personality ptr @rust_eh_personality {
start:
  %0 = getelementptr inbounds nuw i8, ptr %_1, i64 8
  tail call void @llvm.experimental.noalias.scope.decl(metadata !263)
  tail call void @llvm.experimental.noalias.scope.decl(metadata !266)
  %1 = getelementptr inbounds nuw i8, ptr %_1, i64 16
  %_1.val.i.i = load ptr, ptr %1, align 8, !alias.scope !269, !nonnull !52, !noundef !52
  %2 = getelementptr inbounds nuw i8, ptr %_1, i64 24
  %_1.val1.i.i = load i64, ptr %2, align 8, !alias.scope !269, !noundef !52
  tail call void @llvm.experimental.noalias.scope.decl(metadata !270)
  %_710.i.i.i.i = icmp eq i64 %_1.val1.i.i, 0
  br i1 %_710.i.i.i.i, label %bb4.i.i, label %bb5.i.i.i.i

bb5.i.i.i.i:                                      ; preds = %start, %_RINvNtCsjMrxcFdYDNN_4core3ptr13drop_in_placeNtNtCs4jgOJqAujFa_12regex_syntax3ast11CaptureNameECsf3B9tbXe5WF_5regex.exit.i.i.i.i
  %_3.sroa.0.011.i.i.i.i = phi i64 [ %3, %_RINvNtCsjMrxcFdYDNN_4core3ptr13drop_in_placeNtNtCs4jgOJqAujFa_12regex_syntax3ast11CaptureNameECsf3B9tbXe5WF_5regex.exit.i.i.i.i ], [ 0, %start ]
  %_6.i.i.i.i = getelementptr inbounds nuw %"regex_syntax::ast::CaptureName", ptr %_1.val.i.i, i64 %_3.sroa.0.011.i.i.i.i
  %3 = add nuw i64 %_3.sroa.0.011.i.i.i.i, 1
  %_6.val.i.i.i.i = load i64, ptr %_6.i.i.i.i, align 8, !alias.scope !273, !noalias !269
  %4 = icmp eq i64 %_6.val.i.i.i.i, 0
  br i1 %4, label %_RINvNtCsjMrxcFdYDNN_4core3ptr13drop_in_placeNtNtCs4jgOJqAujFa_12regex_syntax3ast11CaptureNameECsf3B9tbXe5WF_5regex.exit.i.i.i.i, label %bb2.i.i.i4.i.i.i.i.i.i.i

bb2.i.i.i4.i.i.i.i.i.i.i:                         ; preds = %bb5.i.i.i.i
  %5 = getelementptr i8, ptr %_6.i.i.i.i, i64 8
  %_6.val7.i.i.i.i = load ptr, ptr %5, align 8, !alias.scope !270, !noalias !269, !nonnull !52, !noundef !52
; call __rustc::__rust_dealloc
  tail call void @_RNvCsKhRCbHf33p_7___rustc14___rust_dealloc(ptr noundef nonnull %_6.val7.i.i.i.i, i64 noundef %_6.val.i.i.i.i, i64 noundef range(i64 1, -9223372036854775807) 1) #26, !noalias !276
  br label %_RINvNtCsjMrxcFdYDNN_4core3ptr13drop_in_placeNtNtCs4jgOJqAujFa_12regex_syntax3ast11CaptureNameECsf3B9tbXe5WF_5regex.exit.i.i.i.i

_RINvNtCsjMrxcFdYDNN_4core3ptr13drop_in_placeNtNtCs4jgOJqAujFa_12regex_syntax3ast11CaptureNameECsf3B9tbXe5WF_5regex.exit.i.i.i.i: ; preds = %bb2.i.i.i4.i.i.i.i.i.i.i, %bb5.i.i.i.i
  %_7.i.i.i.i = icmp eq i64 %3, %_1.val1.i.i
  br i1 %_7.i.i.i.i, label %bb4.i.i, label %bb5.i.i.i.i

bb4.i.i:                                          ; preds = %_RINvNtCsjMrxcFdYDNN_4core3ptr13drop_in_placeNtNtCs4jgOJqAujFa_12regex_syntax3ast11CaptureNameECsf3B9tbXe5WF_5regex.exit.i.i.i.i, %start
  %_1.val4.i.i = load i64, ptr %0, align 8, !range !183, !alias.scope !269, !noundef !52
  %6 = icmp eq i64 %_1.val4.i.i, 0
  br i1 %6, label %_RINvNtCsjMrxcFdYDNN_4core3ptr13drop_in_placeINtNtB4_4cell10UnsafeCellINtNtCsdJPVW0sQgAG_5alloc3vec3VecNtNtCs4jgOJqAujFa_12regex_syntax3ast11CaptureNameEEECsf3B9tbXe5WF_5regex.exit, label %bb2.i.i.i6.i.i

bb2.i.i.i6.i.i:                                   ; preds = %bb4.i.i
  %alloc_size.i.i.i.i7.i.i = mul nuw i64 %_1.val4.i.i, 80
; call __rustc::__rust_dealloc
  tail call void @_RNvCsKhRCbHf33p_7___rustc14___rust_dealloc(ptr noundef nonnull %_1.val.i.i, i64 noundef %alloc_size.i.i.i.i7.i.i, i64 noundef range(i64 1, -9223372036854775807) 8) #26, !noalias !269
  br label %_RINvNtCsjMrxcFdYDNN_4core3ptr13drop_in_placeINtNtB4_4cell10UnsafeCellINtNtCsdJPVW0sQgAG_5alloc3vec3VecNtNtCs4jgOJqAujFa_12regex_syntax3ast11CaptureNameEEECsf3B9tbXe5WF_5regex.exit

_RINvNtCsjMrxcFdYDNN_4core3ptr13drop_in_placeINtNtB4_4cell10UnsafeCellINtNtCsdJPVW0sQgAG_5alloc3vec3VecNtNtCs4jgOJqAujFa_12regex_syntax3ast11CaptureNameEEECsf3B9tbXe5WF_5regex.exit: ; preds = %bb4.i.i, %bb2.i.i.i6.i.i
  ret void
}

; core::ptr::drop_in_place::<core::cell::RefCell<alloc::vec::Vec<regex_syntax::ast::parse::ClassState>>>
; Function Attrs: uwtable
define internal fastcc void @_RINvNtCsjMrxcFdYDNN_4core3ptr13drop_in_placeINtNtB4_4cell7RefCellINtNtCsdJPVW0sQgAG_5alloc3vec3VecNtNtNtCs4jgOJqAujFa_12regex_syntax3ast5parse10ClassStateEEECsf3B9tbXe5WF_5regex(ptr noalias noundef nonnull readonly align 8 captures(none) dereferenceable(32) %_1) unnamed_addr #1 personality ptr @rust_eh_personality {
start:
  %0 = getelementptr inbounds nuw i8, ptr %_1, i64 8
  tail call void @llvm.experimental.noalias.scope.decl(metadata !279)
  tail call void @llvm.experimental.noalias.scope.decl(metadata !282)
  %1 = getelementptr inbounds nuw i8, ptr %_1, i64 16
  %_1.val.i.i = load ptr, ptr %1, align 8, !alias.scope !285, !nonnull !52, !noundef !52
  %2 = getelementptr inbounds nuw i8, ptr %_1, i64 24
  %_1.val1.i.i = load i64, ptr %2, align 8, !alias.scope !285, !noundef !52
  br label %bb6.i.i.i.i

bb6.i.i.i.i:                                      ; preds = %bb5.i.i.i.i, %start
  %_3.sroa.0.0.i.i.i.i = phi i64 [ 0, %start ], [ %3, %bb5.i.i.i.i ]
  %_7.i.i.i.i = icmp eq i64 %_3.sroa.0.0.i.i.i.i, %_1.val1.i.i
  br i1 %_7.i.i.i.i, label %bb4.i.i, label %bb5.i.i.i.i

bb5.i.i.i.i:                                      ; preds = %bb6.i.i.i.i
  %_6.i.i.i.i = getelementptr inbounds nuw %"regex_syntax::ast::parse::ClassState", ptr %_1.val.i.i, i64 %_3.sroa.0.0.i.i.i.i
  %3 = add i64 %_3.sroa.0.0.i.i.i.i, 1
; invoke core::ptr::drop_in_place::<regex_syntax::ast::parse::ClassState>
  invoke fastcc void @_RINvNtCsjMrxcFdYDNN_4core3ptr13drop_in_placeNtNtNtCs4jgOJqAujFa_12regex_syntax3ast5parse10ClassStateECsf3B9tbXe5WF_5regex(ptr noalias noundef align 8 dereferenceable(288) %_6.i.i.i.i)
          to label %bb6.i.i.i.i unwind label %cleanup.i.i.i.i, !noalias !285

bb4.i.i.i.i:                                      ; preds = %bb3.i.i.i.i, %cleanup.i.i.i.i
  %_3.sroa.0.1.i.i.i.i = phi i64 [ %3, %cleanup.i.i.i.i ], [ %5, %bb3.i.i.i.i ]
  %_5.i.i.i.i = icmp eq i64 %_3.sroa.0.1.i.i.i.i, %_1.val1.i.i
  br i1 %_5.i.i.i.i, label %cleanup.body.i.i, label %bb3.i.i.i.i

cleanup.i.i.i.i:                                  ; preds = %bb5.i.i.i.i
  %4 = landingpad { ptr, i32 }
          cleanup
  br label %bb4.i.i.i.i

bb3.i.i.i.i:                                      ; preds = %bb4.i.i.i.i
  %_4.i.i.i.i = getelementptr inbounds nuw %"regex_syntax::ast::parse::ClassState", ptr %_1.val.i.i, i64 %_3.sroa.0.1.i.i.i.i
  %5 = add i64 %_3.sroa.0.1.i.i.i.i, 1
; invoke core::ptr::drop_in_place::<regex_syntax::ast::parse::ClassState>
  invoke fastcc void @_RINvNtCsjMrxcFdYDNN_4core3ptr13drop_in_placeNtNtNtCs4jgOJqAujFa_12regex_syntax3ast5parse10ClassStateECsf3B9tbXe5WF_5regex(ptr noalias noundef align 8 dereferenceable(288) %_4.i.i.i.i) #25
          to label %bb4.i.i.i.i unwind label %terminate.i.i.i.i, !noalias !285

terminate.i.i.i.i:                                ; preds = %bb3.i.i.i.i
  %6 = landingpad { ptr, i32 }
          filter [0 x ptr] zeroinitializer
; call core::panicking::panic_in_cleanup
  tail call void @_RNvNtCsjMrxcFdYDNN_4core9panicking16panic_in_cleanup() #28, !noalias !285
  unreachable

cleanup.body.i.i:                                 ; preds = %bb4.i.i.i.i
  %_1.val2.i.i = load i64, ptr %0, align 8, !range !183, !alias.scope !285, !noundef !52
  %7 = icmp eq i64 %_1.val2.i.i, 0
  br i1 %7, label %bb1.i.i, label %bb2.i.i.i.i.i

bb2.i.i.i.i.i:                                    ; preds = %cleanup.body.i.i
  %alloc_size.i.i.i.i.i.i = mul nuw i64 %_1.val2.i.i, 288
; call __rustc::__rust_dealloc
  tail call void @_RNvCsKhRCbHf33p_7___rustc14___rust_dealloc(ptr noundef nonnull %_1.val.i.i, i64 noundef %alloc_size.i.i.i.i.i.i, i64 noundef range(i64 1, -9223372036854775807) 8) #26, !noalias !285
  br label %bb1.i.i

bb4.i.i:                                          ; preds = %bb6.i.i.i.i
  %_1.val4.i.i = load i64, ptr %0, align 8, !range !183, !alias.scope !285, !noundef !52
  %8 = icmp eq i64 %_1.val4.i.i, 0
  br i1 %8, label %_RINvNtCsjMrxcFdYDNN_4core3ptr13drop_in_placeINtNtB4_4cell10UnsafeCellINtNtCsdJPVW0sQgAG_5alloc3vec3VecNtNtNtCs4jgOJqAujFa_12regex_syntax3ast5parse10ClassStateEEECsf3B9tbXe5WF_5regex.exit, label %bb2.i.i.i6.i.i

bb2.i.i.i6.i.i:                                   ; preds = %bb4.i.i
  %alloc_size.i.i.i.i7.i.i = mul nuw i64 %_1.val4.i.i, 288
; call __rustc::__rust_dealloc
  tail call void @_RNvCsKhRCbHf33p_7___rustc14___rust_dealloc(ptr noundef nonnull %_1.val.i.i, i64 noundef %alloc_size.i.i.i.i7.i.i, i64 noundef range(i64 1, -9223372036854775807) 8) #26, !noalias !285
  br label %_RINvNtCsjMrxcFdYDNN_4core3ptr13drop_in_placeINtNtB4_4cell10UnsafeCellINtNtCsdJPVW0sQgAG_5alloc3vec3VecNtNtNtCs4jgOJqAujFa_12regex_syntax3ast5parse10ClassStateEEECsf3B9tbXe5WF_5regex.exit

bb1.i.i:                                          ; preds = %bb2.i.i.i.i.i, %cleanup.body.i.i
  resume { ptr, i32 } %4

_RINvNtCsjMrxcFdYDNN_4core3ptr13drop_in_placeINtNtB4_4cell10UnsafeCellINtNtCsdJPVW0sQgAG_5alloc3vec3VecNtNtNtCs4jgOJqAujFa_12regex_syntax3ast5parse10ClassStateEEECsf3B9tbXe5WF_5regex.exit: ; preds = %bb4.i.i, %bb2.i.i.i6.i.i
  ret void
}

; core::ptr::drop_in_place::<core::cell::RefCell<alloc::vec::Vec<regex_syntax::ast::parse::GroupState>>>
; Function Attrs: uwtable
define internal fastcc void @_RINvNtCsjMrxcFdYDNN_4core3ptr13drop_in_placeINtNtB4_4cell7RefCellINtNtCsdJPVW0sQgAG_5alloc3vec3VecNtNtNtCs4jgOJqAujFa_12regex_syntax3ast5parse10GroupStateEEECsf3B9tbXe5WF_5regex(ptr noalias noundef nonnull readonly align 8 captures(none) dereferenceable(32) %_1) unnamed_addr #1 personality ptr @rust_eh_personality {
start:
  %0 = getelementptr inbounds nuw i8, ptr %_1, i64 8
  tail call void @llvm.experimental.noalias.scope.decl(metadata !286)
  tail call void @llvm.experimental.noalias.scope.decl(metadata !289)
  %1 = getelementptr inbounds nuw i8, ptr %_1, i64 16
  %_1.val.i.i = load ptr, ptr %1, align 8, !alias.scope !292, !nonnull !52, !noundef !52
  %2 = getelementptr inbounds nuw i8, ptr %_1, i64 24
  %_1.val1.i.i = load i64, ptr %2, align 8, !alias.scope !292, !noundef !52
  br label %bb6.i.i.i.i

bb6.i.i.i.i:                                      ; preds = %bb5.i.i.i.i, %start
  %_3.sroa.0.0.i.i.i.i = phi i64 [ 0, %start ], [ %3, %bb5.i.i.i.i ]
  %_7.i.i.i.i = icmp eq i64 %_3.sroa.0.0.i.i.i.i, %_1.val1.i.i
  br i1 %_7.i.i.i.i, label %bb4.i.i, label %bb5.i.i.i.i

bb5.i.i.i.i:                                      ; preds = %bb6.i.i.i.i
  %_6.i.i.i.i = getelementptr inbounds nuw %"regex_syntax::ast::parse::GroupState", ptr %_1.val.i.i, i64 %_3.sroa.0.0.i.i.i.i
  %3 = add i64 %_3.sroa.0.0.i.i.i.i, 1
; invoke core::ptr::drop_in_place::<regex_syntax::ast::parse::GroupState>
  invoke fastcc void @_RINvNtCsjMrxcFdYDNN_4core3ptr13drop_in_placeNtNtNtCs4jgOJqAujFa_12regex_syntax3ast5parse10GroupStateECsf3B9tbXe5WF_5regex(ptr noalias noundef readonly align 8 dereferenceable(224) %_6.i.i.i.i)
          to label %bb6.i.i.i.i unwind label %cleanup.i.i.i.i, !noalias !292

bb4.i.i.i.i:                                      ; preds = %bb3.i.i.i.i, %cleanup.i.i.i.i
  %_3.sroa.0.1.i.i.i.i = phi i64 [ %3, %cleanup.i.i.i.i ], [ %5, %bb3.i.i.i.i ]
  %_5.i.i.i.i = icmp eq i64 %_3.sroa.0.1.i.i.i.i, %_1.val1.i.i
  br i1 %_5.i.i.i.i, label %cleanup.body.i.i, label %bb3.i.i.i.i

cleanup.i.i.i.i:                                  ; preds = %bb5.i.i.i.i
  %4 = landingpad { ptr, i32 }
          cleanup
  br label %bb4.i.i.i.i

bb3.i.i.i.i:                                      ; preds = %bb4.i.i.i.i
  %_4.i.i.i.i = getelementptr inbounds nuw %"regex_syntax::ast::parse::GroupState", ptr %_1.val.i.i, i64 %_3.sroa.0.1.i.i.i.i
  %5 = add i64 %_3.sroa.0.1.i.i.i.i, 1
; invoke core::ptr::drop_in_place::<regex_syntax::ast::parse::GroupState>
  invoke fastcc void @_RINvNtCsjMrxcFdYDNN_4core3ptr13drop_in_placeNtNtNtCs4jgOJqAujFa_12regex_syntax3ast5parse10GroupStateECsf3B9tbXe5WF_5regex(ptr noalias noundef readonly align 8 dereferenceable(224) %_4.i.i.i.i) #25
          to label %bb4.i.i.i.i unwind label %terminate.i.i.i.i, !noalias !292

terminate.i.i.i.i:                                ; preds = %bb3.i.i.i.i
  %6 = landingpad { ptr, i32 }
          filter [0 x ptr] zeroinitializer
; call core::panicking::panic_in_cleanup
  tail call void @_RNvNtCsjMrxcFdYDNN_4core9panicking16panic_in_cleanup() #28, !noalias !293
  unreachable

cleanup.body.i.i:                                 ; preds = %bb4.i.i.i.i
  %_1.val2.i.i = load i64, ptr %0, align 8, !range !183, !alias.scope !292, !noundef !52
  %7 = icmp eq i64 %_1.val2.i.i, 0
  br i1 %7, label %bb1.i.i, label %bb2.i.i.i.i.i

bb2.i.i.i.i.i:                                    ; preds = %cleanup.body.i.i
  %alloc_size.i.i.i.i.i.i = mul nuw i64 %_1.val2.i.i, 224
; call __rustc::__rust_dealloc
  tail call void @_RNvCsKhRCbHf33p_7___rustc14___rust_dealloc(ptr noundef nonnull %_1.val.i.i, i64 noundef %alloc_size.i.i.i.i.i.i, i64 noundef range(i64 1, -9223372036854775807) 8) #26, !noalias !292
  br label %bb1.i.i

bb4.i.i:                                          ; preds = %bb6.i.i.i.i
  %_1.val4.i.i = load i64, ptr %0, align 8, !range !183, !alias.scope !292, !noundef !52
  %8 = icmp eq i64 %_1.val4.i.i, 0
  br i1 %8, label %_RINvNtCsjMrxcFdYDNN_4core3ptr13drop_in_placeINtNtB4_4cell10UnsafeCellINtNtCsdJPVW0sQgAG_5alloc3vec3VecNtNtNtCs4jgOJqAujFa_12regex_syntax3ast5parse10GroupStateEEECsf3B9tbXe5WF_5regex.exit, label %bb2.i.i.i6.i.i

bb2.i.i.i6.i.i:                                   ; preds = %bb4.i.i
  %alloc_size.i.i.i.i7.i.i = mul nuw i64 %_1.val4.i.i, 224
; call __rustc::__rust_dealloc
  tail call void @_RNvCsKhRCbHf33p_7___rustc14___rust_dealloc(ptr noundef nonnull %_1.val.i.i, i64 noundef %alloc_size.i.i.i.i7.i.i, i64 noundef range(i64 1, -9223372036854775807) 8) #26, !noalias !292
  br label %_RINvNtCsjMrxcFdYDNN_4core3ptr13drop_in_placeINtNtB4_4cell10UnsafeCellINtNtCsdJPVW0sQgAG_5alloc3vec3VecNtNtNtCs4jgOJqAujFa_12regex_syntax3ast5parse10GroupStateEEECsf3B9tbXe5WF_5regex.exit

bb1.i.i:                                          ; preds = %bb2.i.i.i.i.i, %cleanup.body.i.i
  resume { ptr, i32 } %4

_RINvNtCsjMrxcFdYDNN_4core3ptr13drop_in_placeINtNtB4_4cell10UnsafeCellINtNtCsdJPVW0sQgAG_5alloc3vec3VecNtNtNtCs4jgOJqAujFa_12regex_syntax3ast5parse10GroupStateEEECsf3B9tbXe5WF_5regex.exit: ; preds = %bb4.i.i, %bb2.i.i.i6.i.i
  ret void
}

; core::ptr::drop_in_place::<alloc::vec::Vec<regex_automata::util::pool::inner::CacheLine<std::sync::poison::mutex::Mutex<alloc::vec::Vec<alloc::boxed::Box<regex_automata::meta::regex::Cache>>>>>>
; Function Attrs: uwtable
define internal fastcc void @_RINvNtCsjMrxcFdYDNN_4core3ptr13drop_in_placeINtNtCsdJPVW0sQgAG_5alloc3vec3VecINtNtNtNtCsbJQShvh9aPA_14regex_automata4util4pool5inner9CacheLineINtNtNtNtCs5sEH5CPMdak_3std4sync6poison5mutex5MutexIBH_INtNtBL_5boxed3BoxNtNtNtB1m_4meta5regex5CacheEEEEEECsf3B9tbXe5WF_5regex(ptr noalias noundef nonnull readonly align 8 captures(none) dereferenceable(24) %_1) unnamed_addr #1 personality ptr @rust_eh_personality {
start:
  %0 = getelementptr inbounds nuw i8, ptr %_1, i64 8
  %_1.val = load ptr, ptr %0, align 8, !nonnull !52, !noundef !52
  %1 = getelementptr inbounds nuw i8, ptr %_1, i64 16
  %_1.val1 = load i64, ptr %1, align 8, !noundef !52
  br label %bb6.i.i

bb6.i.i:                                          ; preds = %bb5.i.i, %start
  %_3.sroa.0.0.i.i = phi i64 [ 0, %start ], [ %2, %bb5.i.i ]
  %_7.i.i = icmp eq i64 %_3.sroa.0.0.i.i, %_1.val1
  br i1 %_7.i.i, label %bb4, label %bb5.i.i

bb5.i.i:                                          ; preds = %bb6.i.i
  %_6.i.i = getelementptr inbounds nuw %"regex_automata::util::pool::inner::CacheLine<std::sync::poison::mutex::Mutex<alloc::vec::Vec<alloc::boxed::Box<regex_automata::meta::regex::Cache>>>>", ptr %_1.val, i64 %_3.sroa.0.0.i.i
  %2 = add i64 %_3.sroa.0.0.i.i, 1
; invoke core::ptr::drop_in_place::<regex_automata::util::pool::inner::CacheLine<std::sync::poison::mutex::Mutex<alloc::vec::Vec<alloc::boxed::Box<regex_automata::meta::regex::Cache>>>>>
  invoke fastcc void @_RINvNtCsjMrxcFdYDNN_4core3ptr13drop_in_placeINtNtNtNtCsbJQShvh9aPA_14regex_automata4util4pool5inner9CacheLineINtNtNtNtCs5sEH5CPMdak_3std4sync6poison5mutex5MutexINtNtCsdJPVW0sQgAG_5alloc3vec3VecINtNtB2D_5boxed3BoxNtNtNtBP_4meta5regex5CacheEEEEECsf3B9tbXe5WF_5regex(ptr noalias noundef align 64 dereferenceable(64) %_6.i.i)
          to label %bb6.i.i unwind label %cleanup.i.i

bb4.i.i:                                          ; preds = %bb3.i.i, %cleanup.i.i
  %_3.sroa.0.1.i.i = phi i64 [ %2, %cleanup.i.i ], [ %4, %bb3.i.i ]
  %_5.i.i = icmp eq i64 %_3.sroa.0.1.i.i, %_1.val1
  br i1 %_5.i.i, label %cleanup.body, label %bb3.i.i

cleanup.i.i:                                      ; preds = %bb5.i.i
  %3 = landingpad { ptr, i32 }
          cleanup
  br label %bb4.i.i

bb3.i.i:                                          ; preds = %bb4.i.i
  %_4.i.i = getelementptr inbounds nuw %"regex_automata::util::pool::inner::CacheLine<std::sync::poison::mutex::Mutex<alloc::vec::Vec<alloc::boxed::Box<regex_automata::meta::regex::Cache>>>>", ptr %_1.val, i64 %_3.sroa.0.1.i.i
  %4 = add i64 %_3.sroa.0.1.i.i, 1
; invoke core::ptr::drop_in_place::<regex_automata::util::pool::inner::CacheLine<std::sync::poison::mutex::Mutex<alloc::vec::Vec<alloc::boxed::Box<regex_automata::meta::regex::Cache>>>>>
  invoke fastcc void @_RINvNtCsjMrxcFdYDNN_4core3ptr13drop_in_placeINtNtNtNtCsbJQShvh9aPA_14regex_automata4util4pool5inner9CacheLineINtNtNtNtCs5sEH5CPMdak_3std4sync6poison5mutex5MutexINtNtCsdJPVW0sQgAG_5alloc3vec3VecINtNtB2D_5boxed3BoxNtNtNtBP_4meta5regex5CacheEEEEECsf3B9tbXe5WF_5regex(ptr noalias noundef align 64 dereferenceable(64) %_4.i.i) #25
          to label %bb4.i.i unwind label %terminate.i.i

terminate.i.i:                                    ; preds = %bb3.i.i
  %5 = landingpad { ptr, i32 }
          filter [0 x ptr] zeroinitializer
; call core::panicking::panic_in_cleanup
  tail call void @_RNvNtCsjMrxcFdYDNN_4core9panicking16panic_in_cleanup() #28
  unreachable

cleanup.body:                                     ; preds = %bb4.i.i
  %_1.val2 = load i64, ptr %_1, align 8, !range !183, !noundef !52
  %6 = icmp eq i64 %_1.val2, 0
  br i1 %6, label %bb1, label %bb2.i.i.i

bb2.i.i.i:                                        ; preds = %cleanup.body
  %alloc_size.i.i.i.i = shl nuw i64 %_1.val2, 6
; call __rustc::__rust_dealloc
  tail call void @_RNvCsKhRCbHf33p_7___rustc14___rust_dealloc(ptr noundef nonnull %_1.val, i64 noundef %alloc_size.i.i.i.i, i64 noundef range(i64 1, -9223372036854775807) 64) #26
  br label %bb1

bb4:                                              ; preds = %bb6.i.i
  %_1.val4 = load i64, ptr %_1, align 8, !range !183, !noundef !52
  %7 = icmp eq i64 %_1.val4, 0
  br i1 %7, label %_RINvNtCsjMrxcFdYDNN_4core3ptr13drop_in_placeINtNtCsdJPVW0sQgAG_5alloc7raw_vec6RawVecINtNtNtNtCsbJQShvh9aPA_14regex_automata4util4pool5inner9CacheLineINtNtNtNtCs5sEH5CPMdak_3std4sync6poison5mutex5MutexINtNtBL_3vec3VecINtNtBL_5boxed3BoxNtNtNtB1t_4meta5regex5CacheEEEEEECsf3B9tbXe5WF_5regex.exit8, label %bb2.i.i.i6

bb2.i.i.i6:                                       ; preds = %bb4
  %alloc_size.i.i.i.i7 = shl nuw i64 %_1.val4, 6
; call __rustc::__rust_dealloc
  tail call void @_RNvCsKhRCbHf33p_7___rustc14___rust_dealloc(ptr noundef nonnull %_1.val, i64 noundef %alloc_size.i.i.i.i7, i64 noundef range(i64 1, -9223372036854775807) 64) #26
  br label %_RINvNtCsjMrxcFdYDNN_4core3ptr13drop_in_placeINtNtCsdJPVW0sQgAG_5alloc7raw_vec6RawVecINtNtNtNtCsbJQShvh9aPA_14regex_automata4util4pool5inner9CacheLineINtNtNtNtCs5sEH5CPMdak_3std4sync6poison5mutex5MutexINtNtBL_3vec3VecINtNtBL_5boxed3BoxNtNtNtB1t_4meta5regex5CacheEEEEEECsf3B9tbXe5WF_5regex.exit8

_RINvNtCsjMrxcFdYDNN_4core3ptr13drop_in_placeINtNtCsdJPVW0sQgAG_5alloc7raw_vec6RawVecINtNtNtNtCsbJQShvh9aPA_14regex_automata4util4pool5inner9CacheLineINtNtNtNtCs5sEH5CPMdak_3std4sync6poison5mutex5MutexINtNtBL_3vec3VecINtNtBL_5boxed3BoxNtNtNtB1t_4meta5regex5CacheEEEEEECsf3B9tbXe5WF_5regex.exit8: ; preds = %bb4, %bb2.i.i.i6
  ret void

bb1:                                              ; preds = %bb2.i.i.i, %cleanup.body
  resume { ptr, i32 } %3
}

; core::ptr::drop_in_place::<alloc::vec::Vec<regex_syntax::ast::ClassSetItem>>
; Function Attrs: uwtable
define internal fastcc void @_RINvNtCsjMrxcFdYDNN_4core3ptr13drop_in_placeINtNtCsdJPVW0sQgAG_5alloc3vec3VecNtNtCs4jgOJqAujFa_12regex_syntax3ast12ClassSetItemEECsf3B9tbXe5WF_5regex(ptr noalias noundef nonnull readonly align 8 captures(none) dereferenceable(24) %_1) unnamed_addr #1 personality ptr @rust_eh_personality {
start:
  %0 = getelementptr inbounds nuw i8, ptr %_1, i64 8
  %_5.i = load ptr, ptr %0, align 8, !alias.scope !296, !nonnull !52, !noundef !52
  %1 = getelementptr inbounds nuw i8, ptr %_1, i64 16
  %len.i = load i64, ptr %1, align 8, !alias.scope !296, !noundef !52
; invoke core::ptr::drop_in_place::<[regex_syntax::ast::ClassSetItem]>
  invoke fastcc void @_RINvNtCsjMrxcFdYDNN_4core3ptr13drop_in_placeSNtNtCs4jgOJqAujFa_12regex_syntax3ast12ClassSetItemECsf3B9tbXe5WF_5regex(ptr noalias noundef nonnull align 8 %_5.i, i64 noundef %len.i)
          to label %bb4 unwind label %cleanup

cleanup:                                          ; preds = %start
  %2 = landingpad { ptr, i32 }
          cleanup
  %_1.val = load i64, ptr %_1, align 8, !range !183, !noundef !52
  %3 = icmp eq i64 %_1.val, 0
  br i1 %3, label %bb1, label %bb2.i.i.i

bb2.i.i.i:                                        ; preds = %cleanup
  %alloc_size.i.i.i.i = mul nuw i64 %_1.val, 160
; call __rustc::__rust_dealloc
  tail call void @_RNvCsKhRCbHf33p_7___rustc14___rust_dealloc(ptr noundef nonnull %_5.i, i64 noundef %alloc_size.i.i.i.i, i64 noundef range(i64 1, -9223372036854775807) 8) #26
  br label %bb1

bb4:                                              ; preds = %start
  %_1.val2 = load i64, ptr %_1, align 8, !range !183, !noundef !52
  %4 = icmp eq i64 %_1.val2, 0
  br i1 %4, label %_RINvNtCsjMrxcFdYDNN_4core3ptr13drop_in_placeINtNtCsdJPVW0sQgAG_5alloc7raw_vec6RawVecNtNtCs4jgOJqAujFa_12regex_syntax3ast12ClassSetItemEECsf3B9tbXe5WF_5regex.exit6, label %bb2.i.i.i4

bb2.i.i.i4:                                       ; preds = %bb4
  %alloc_size.i.i.i.i5 = mul nuw i64 %_1.val2, 160
; call __rustc::__rust_dealloc
  tail call void @_RNvCsKhRCbHf33p_7___rustc14___rust_dealloc(ptr noundef nonnull %_5.i, i64 noundef %alloc_size.i.i.i.i5, i64 noundef range(i64 1, -9223372036854775807) 8) #26
  br label %_RINvNtCsjMrxcFdYDNN_4core3ptr13drop_in_placeINtNtCsdJPVW0sQgAG_5alloc7raw_vec6RawVecNtNtCs4jgOJqAujFa_12regex_syntax3ast12ClassSetItemEECsf3B9tbXe5WF_5regex.exit6

_RINvNtCsjMrxcFdYDNN_4core3ptr13drop_in_placeINtNtCsdJPVW0sQgAG_5alloc7raw_vec6RawVecNtNtCs4jgOJqAujFa_12regex_syntax3ast12ClassSetItemEECsf3B9tbXe5WF_5regex.exit6: ; preds = %bb4, %bb2.i.i.i4
  ret void

bb1:                                              ; preds = %bb2.i.i.i, %cleanup
  resume { ptr, i32 } %2
}

; core::ptr::drop_in_place::<alloc::vec::Vec<regex_syntax::ast::Ast>>
; Function Attrs: uwtable
define internal fastcc void @_RINvNtCsjMrxcFdYDNN_4core3ptr13drop_in_placeINtNtCsdJPVW0sQgAG_5alloc3vec3VecNtNtCs4jgOJqAujFa_12regex_syntax3ast3AstEECsf3B9tbXe5WF_5regex(ptr noalias noundef nonnull readonly align 8 captures(none) dereferenceable(24) %_1) unnamed_addr #1 personality ptr @rust_eh_personality {
start:
  %0 = getelementptr inbounds nuw i8, ptr %_1, i64 8
  %_5.i = load ptr, ptr %0, align 8, !alias.scope !299, !nonnull !52, !noundef !52
  %1 = getelementptr inbounds nuw i8, ptr %_1, i64 16
  %len.i = load i64, ptr %1, align 8, !alias.scope !299, !noundef !52
  br label %bb6.i

bb6.i:                                            ; preds = %bb5.i, %start
  %_3.sroa.0.0.i = phi i64 [ 0, %start ], [ %2, %bb5.i ]
  %_7.i = icmp eq i64 %_3.sroa.0.0.i, %len.i
  br i1 %_7.i, label %bb4, label %bb5.i

bb5.i:                                            ; preds = %bb6.i
  %_6.i = getelementptr inbounds nuw %"regex_syntax::ast::Ast", ptr %_5.i, i64 %_3.sroa.0.0.i
  %2 = add i64 %_3.sroa.0.0.i, 1
; invoke core::ptr::drop_in_place::<regex_syntax::ast::Ast>
  invoke fastcc void @_RINvNtCsjMrxcFdYDNN_4core3ptr13drop_in_placeNtNtCs4jgOJqAujFa_12regex_syntax3ast3AstECsf3B9tbXe5WF_5regex(ptr noalias noundef align 8 dereferenceable(16) %_6.i)
          to label %bb6.i unwind label %cleanup.i

bb4.i:                                            ; preds = %bb3.i, %cleanup.i
  %_3.sroa.0.1.i = phi i64 [ %2, %cleanup.i ], [ %4, %bb3.i ]
  %_5.i7 = icmp eq i64 %_3.sroa.0.1.i, %len.i
  br i1 %_5.i7, label %cleanup.body, label %bb3.i

cleanup.i:                                        ; preds = %bb5.i
  %3 = landingpad { ptr, i32 }
          cleanup
  br label %bb4.i

bb3.i:                                            ; preds = %bb4.i
  %_4.i = getelementptr inbounds nuw %"regex_syntax::ast::Ast", ptr %_5.i, i64 %_3.sroa.0.1.i
  %4 = add i64 %_3.sroa.0.1.i, 1
; invoke core::ptr::drop_in_place::<regex_syntax::ast::Ast>
  invoke fastcc void @_RINvNtCsjMrxcFdYDNN_4core3ptr13drop_in_placeNtNtCs4jgOJqAujFa_12regex_syntax3ast3AstECsf3B9tbXe5WF_5regex(ptr noalias noundef align 8 dereferenceable(16) %_4.i) #25
          to label %bb4.i unwind label %terminate.i

terminate.i:                                      ; preds = %bb3.i
  %5 = landingpad { ptr, i32 }
          filter [0 x ptr] zeroinitializer
; call core::panicking::panic_in_cleanup
  tail call void @_RNvNtCsjMrxcFdYDNN_4core9panicking16panic_in_cleanup() #28
  unreachable

cleanup.body:                                     ; preds = %bb4.i
  %_1.val = load i64, ptr %_1, align 8, !range !183, !noundef !52
  %6 = icmp eq i64 %_1.val, 0
  br i1 %6, label %bb1, label %bb2.i.i.i

bb2.i.i.i:                                        ; preds = %cleanup.body
  %alloc_size.i.i.i.i = shl nuw i64 %_1.val, 4
; call __rustc::__rust_dealloc
  tail call void @_RNvCsKhRCbHf33p_7___rustc14___rust_dealloc(ptr noundef nonnull %_5.i, i64 noundef %alloc_size.i.i.i.i, i64 noundef range(i64 1, -9223372036854775807) 8) #26
  br label %bb1

bb4:                                              ; preds = %bb6.i
  %_1.val2 = load i64, ptr %_1, align 8, !range !183, !noundef !52
  %7 = icmp eq i64 %_1.val2, 0
  br i1 %7, label %_RINvNtCsjMrxcFdYDNN_4core3ptr13drop_in_placeINtNtCsdJPVW0sQgAG_5alloc7raw_vec6RawVecNtNtCs4jgOJqAujFa_12regex_syntax3ast3AstEECsf3B9tbXe5WF_5regex.exit6, label %bb2.i.i.i4

bb2.i.i.i4:                                       ; preds = %bb4
  %alloc_size.i.i.i.i5 = shl nuw i64 %_1.val2, 4
; call __rustc::__rust_dealloc
  tail call void @_RNvCsKhRCbHf33p_7___rustc14___rust_dealloc(ptr noundef nonnull %_5.i, i64 noundef %alloc_size.i.i.i.i5, i64 noundef range(i64 1, -9223372036854775807) 8) #26
  br label %_RINvNtCsjMrxcFdYDNN_4core3ptr13drop_in_placeINtNtCsdJPVW0sQgAG_5alloc7raw_vec6RawVecNtNtCs4jgOJqAujFa_12regex_syntax3ast3AstEECsf3B9tbXe5WF_5regex.exit6

_RINvNtCsjMrxcFdYDNN_4core3ptr13drop_in_placeINtNtCsdJPVW0sQgAG_5alloc7raw_vec6RawVecNtNtCs4jgOJqAujFa_12regex_syntax3ast3AstEECsf3B9tbXe5WF_5regex.exit6: ; preds = %bb4, %bb2.i.i.i4
  ret void

bb1:                                              ; preds = %bb2.i.i.i, %cleanup.body
  resume { ptr, i32 } %3
}

; core::ptr::drop_in_place::<alloc::vec::Vec<regex_syntax::hir::Hir>>
; Function Attrs: uwtable
define internal fastcc void @_RINvNtCsjMrxcFdYDNN_4core3ptr13drop_in_placeINtNtCsdJPVW0sQgAG_5alloc3vec3VecNtNtCs4jgOJqAujFa_12regex_syntax3hir3HirEECsf3B9tbXe5WF_5regex(ptr noalias noundef nonnull readonly align 8 captures(none) dereferenceable(24) %_1) unnamed_addr #1 personality ptr @rust_eh_personality {
start:
  %0 = getelementptr inbounds nuw i8, ptr %_1, i64 8
  %_5.i = load ptr, ptr %0, align 8, !alias.scope !302, !nonnull !52, !noundef !52
  %1 = getelementptr inbounds nuw i8, ptr %_1, i64 16
  %len.i = load i64, ptr %1, align 8, !alias.scope !302, !noundef !52
; invoke core::ptr::drop_in_place::<[regex_syntax::hir::Hir]>
  invoke fastcc void @_RINvNtCsjMrxcFdYDNN_4core3ptr13drop_in_placeSNtNtCs4jgOJqAujFa_12regex_syntax3hir3HirECsf3B9tbXe5WF_5regex(ptr noalias noundef nonnull align 8 %_5.i, i64 noundef %len.i)
          to label %bb4 unwind label %cleanup

cleanup:                                          ; preds = %start
  %2 = landingpad { ptr, i32 }
          cleanup
  %_1.val = load i64, ptr %_1, align 8, !range !183, !noundef !52
  %3 = icmp eq i64 %_1.val, 0
  br i1 %3, label %bb1, label %bb2.i.i.i

bb2.i.i.i:                                        ; preds = %cleanup
  %alloc_size.i.i.i.i = mul nuw i64 %_1.val, 48
; call __rustc::__rust_dealloc
  tail call void @_RNvCsKhRCbHf33p_7___rustc14___rust_dealloc(ptr noundef nonnull %_5.i, i64 noundef %alloc_size.i.i.i.i, i64 noundef range(i64 1, -9223372036854775807) 8) #26
  br label %bb1

bb4:                                              ; preds = %start
  %_1.val2 = load i64, ptr %_1, align 8, !range !183, !noundef !52
  %4 = icmp eq i64 %_1.val2, 0
  br i1 %4, label %_RINvNtCsjMrxcFdYDNN_4core3ptr13drop_in_placeINtNtCsdJPVW0sQgAG_5alloc7raw_vec6RawVecNtNtCs4jgOJqAujFa_12regex_syntax3hir3HirEECsf3B9tbXe5WF_5regex.exit6, label %bb2.i.i.i4

bb2.i.i.i4:                                       ; preds = %bb4
  %alloc_size.i.i.i.i5 = mul nuw i64 %_1.val2, 48
; call __rustc::__rust_dealloc
  tail call void @_RNvCsKhRCbHf33p_7___rustc14___rust_dealloc(ptr noundef nonnull %_5.i, i64 noundef %alloc_size.i.i.i.i5, i64 noundef range(i64 1, -9223372036854775807) 8) #26
  br label %_RINvNtCsjMrxcFdYDNN_4core3ptr13drop_in_placeINtNtCsdJPVW0sQgAG_5alloc7raw_vec6RawVecNtNtCs4jgOJqAujFa_12regex_syntax3hir3HirEECsf3B9tbXe5WF_5regex.exit6

_RINvNtCsjMrxcFdYDNN_4core3ptr13drop_in_placeINtNtCsdJPVW0sQgAG_5alloc7raw_vec6RawVecNtNtCs4jgOJqAujFa_12regex_syntax3hir3HirEECsf3B9tbXe5WF_5regex.exit6: ; preds = %bb4, %bb2.i.i.i4
  ret void

bb1:                                              ; preds = %bb2.i.i.i, %cleanup
  resume { ptr, i32 } %2
}

; core::ptr::drop_in_place::<alloc::vec::Vec<regex_automata::util::determinize::state::State>>
; Function Attrs: uwtable
define internal fastcc void @_RINvNtCsjMrxcFdYDNN_4core3ptr13drop_in_placeINtNtCsdJPVW0sQgAG_5alloc3vec3VecNtNtNtNtCsbJQShvh9aPA_14regex_automata4util11determinize5state5StateEECsf3B9tbXe5WF_5regex(ptr noalias noundef nonnull readonly align 8 captures(none) dereferenceable(24) %_1) unnamed_addr #1 personality ptr @rust_eh_personality {
start:
  %0 = getelementptr inbounds nuw i8, ptr %_1, i64 8
  %_1.val = load ptr, ptr %0, align 8, !nonnull !52, !noundef !52
  %1 = getelementptr inbounds nuw i8, ptr %_1, i64 16
  %_1.val1 = load i64, ptr %1, align 8, !noundef !52
  %_710.i.i = icmp eq i64 %_1.val1, 0
  br i1 %_710.i.i, label %bb4, label %bb5.i.i

bb5.i.i:                                          ; preds = %start, %_RINvNtCsjMrxcFdYDNN_4core3ptr13drop_in_placeNtNtNtNtCsbJQShvh9aPA_14regex_automata4util11determinize5state5StateECsf3B9tbXe5WF_5regex.exit.i.i
  %_3.sroa.0.011.i.i = phi i64 [ %2, %_RINvNtCsjMrxcFdYDNN_4core3ptr13drop_in_placeNtNtNtNtCsbJQShvh9aPA_14regex_automata4util11determinize5state5StateECsf3B9tbXe5WF_5regex.exit.i.i ], [ 0, %start ]
  %_6.i.i = getelementptr inbounds nuw %"regex_automata::util::determinize::state::State", ptr %_1.val, i64 %_3.sroa.0.011.i.i
  %2 = add nuw i64 %_3.sroa.0.011.i.i, 1
  tail call void @llvm.experimental.noalias.scope.decl(metadata !305)
  tail call void @llvm.experimental.noalias.scope.decl(metadata !308)
  tail call void @llvm.experimental.noalias.scope.decl(metadata !311)
  %_10.0.i.i.i.i.i = load ptr, ptr %_6.i.i, align 8, !alias.scope !314, !nonnull !52, !noundef !52
  %3 = atomicrmw sub ptr %_10.0.i.i.i.i.i, i64 1 release, align 8, !noalias !317
  %4 = icmp eq i64 %3, 1
  br i1 %4, label %bb2.i.i.i.i.i, label %_RINvNtCsjMrxcFdYDNN_4core3ptr13drop_in_placeNtNtNtNtCsbJQShvh9aPA_14regex_automata4util11determinize5state5StateECsf3B9tbXe5WF_5regex.exit.i.i

bb2.i.i.i.i.i:                                    ; preds = %bb5.i.i
  fence acquire
; invoke <alloc::sync::Arc<[u8]>>::drop_slow
  invoke void @_RNvMsn_NtCsdJPVW0sQgAG_5alloc4syncINtB5_3ArcShE9drop_slowCsbJQShvh9aPA_14regex_automata(ptr noalias noundef nonnull align 8 dereferenceable(16) %_6.i.i) #29
          to label %_RINvNtCsjMrxcFdYDNN_4core3ptr13drop_in_placeNtNtNtNtCsbJQShvh9aPA_14regex_automata4util11determinize5state5StateECsf3B9tbXe5WF_5regex.exit.i.i unwind label %cleanup.i.i

_RINvNtCsjMrxcFdYDNN_4core3ptr13drop_in_placeNtNtNtNtCsbJQShvh9aPA_14regex_automata4util11determinize5state5StateECsf3B9tbXe5WF_5regex.exit.i.i: ; preds = %bb2.i.i.i.i.i, %bb5.i.i
  %_7.i.i = icmp eq i64 %2, %_1.val1
  br i1 %_7.i.i, label %bb4, label %bb5.i.i

cleanup.i.i:                                      ; preds = %bb2.i.i.i.i.i
  %5 = landingpad { ptr, i32 }
          cleanup
  %_512.i.i = icmp eq i64 %2, %_1.val1
  br i1 %_512.i.i, label %cleanup.body, label %bb3.i.i

bb3.i.i:                                          ; preds = %cleanup.i.i, %_RINvNtCsjMrxcFdYDNN_4core3ptr13drop_in_placeNtNtNtNtCsbJQShvh9aPA_14regex_automata4util11determinize5state5StateECsf3B9tbXe5WF_5regex.exit9.i.i
  %_3.sroa.0.113.i.i = phi i64 [ %6, %_RINvNtCsjMrxcFdYDNN_4core3ptr13drop_in_placeNtNtNtNtCsbJQShvh9aPA_14regex_automata4util11determinize5state5StateECsf3B9tbXe5WF_5regex.exit9.i.i ], [ %2, %cleanup.i.i ]
  %_4.i.i = getelementptr inbounds nuw %"regex_automata::util::determinize::state::State", ptr %_1.val, i64 %_3.sroa.0.113.i.i
  %6 = add i64 %_3.sroa.0.113.i.i, 1
  tail call void @llvm.experimental.noalias.scope.decl(metadata !318)
  tail call void @llvm.experimental.noalias.scope.decl(metadata !321)
  tail call void @llvm.experimental.noalias.scope.decl(metadata !324)
  %_10.0.i.i.i6.i.i = load ptr, ptr %_4.i.i, align 8, !alias.scope !327, !nonnull !52, !noundef !52
  %7 = atomicrmw sub ptr %_10.0.i.i.i6.i.i, i64 1 release, align 8, !noalias !328
  %8 = icmp eq i64 %7, 1
  br i1 %8, label %bb2.i.i.i7.i.i, label %_RINvNtCsjMrxcFdYDNN_4core3ptr13drop_in_placeNtNtNtNtCsbJQShvh9aPA_14regex_automata4util11determinize5state5StateECsf3B9tbXe5WF_5regex.exit9.i.i

bb2.i.i.i7.i.i:                                   ; preds = %bb3.i.i
  fence acquire
; invoke <alloc::sync::Arc<[u8]>>::drop_slow
  invoke void @_RNvMsn_NtCsdJPVW0sQgAG_5alloc4syncINtB5_3ArcShE9drop_slowCsbJQShvh9aPA_14regex_automata(ptr noalias noundef nonnull align 8 dereferenceable(16) %_4.i.i) #29
          to label %_RINvNtCsjMrxcFdYDNN_4core3ptr13drop_in_placeNtNtNtNtCsbJQShvh9aPA_14regex_automata4util11determinize5state5StateECsf3B9tbXe5WF_5regex.exit9.i.i unwind label %terminate.i.i

_RINvNtCsjMrxcFdYDNN_4core3ptr13drop_in_placeNtNtNtNtCsbJQShvh9aPA_14regex_automata4util11determinize5state5StateECsf3B9tbXe5WF_5regex.exit9.i.i: ; preds = %bb2.i.i.i7.i.i, %bb3.i.i
  %_5.i.i = icmp eq i64 %6, %_1.val1
  br i1 %_5.i.i, label %cleanup.body, label %bb3.i.i

terminate.i.i:                                    ; preds = %bb2.i.i.i7.i.i
  %9 = landingpad { ptr, i32 }
          filter [0 x ptr] zeroinitializer
; call core::panicking::panic_in_cleanup
  tail call void @_RNvNtCsjMrxcFdYDNN_4core9panicking16panic_in_cleanup() #28
  unreachable

cleanup.body:                                     ; preds = %_RINvNtCsjMrxcFdYDNN_4core3ptr13drop_in_placeNtNtNtNtCsbJQShvh9aPA_14regex_automata4util11determinize5state5StateECsf3B9tbXe5WF_5regex.exit9.i.i, %cleanup.i.i
  %_1.val2 = load i64, ptr %_1, align 8, !range !183, !noundef !52
  %10 = icmp eq i64 %_1.val2, 0
  br i1 %10, label %bb1, label %bb2.i.i.i

bb2.i.i.i:                                        ; preds = %cleanup.body
  %alloc_size.i.i.i.i = shl nuw i64 %_1.val2, 4
; call __rustc::__rust_dealloc
  tail call void @_RNvCsKhRCbHf33p_7___rustc14___rust_dealloc(ptr noundef nonnull %_1.val, i64 noundef %alloc_size.i.i.i.i, i64 noundef range(i64 1, -9223372036854775807) 8) #26
  br label %bb1

bb4:                                              ; preds = %_RINvNtCsjMrxcFdYDNN_4core3ptr13drop_in_placeNtNtNtNtCsbJQShvh9aPA_14regex_automata4util11determinize5state5StateECsf3B9tbXe5WF_5regex.exit.i.i, %start
  %_1.val4 = load i64, ptr %_1, align 8, !range !183, !noundef !52
  %11 = icmp eq i64 %_1.val4, 0
  br i1 %11, label %_RINvNtCsjMrxcFdYDNN_4core3ptr13drop_in_placeINtNtCsdJPVW0sQgAG_5alloc7raw_vec6RawVecNtNtNtNtCsbJQShvh9aPA_14regex_automata4util11determinize5state5StateEECsf3B9tbXe5WF_5regex.exit8, label %bb2.i.i.i6

bb2.i.i.i6:                                       ; preds = %bb4
  %alloc_size.i.i.i.i7 = shl nuw i64 %_1.val4, 4
; call __rustc::__rust_dealloc
  tail call void @_RNvCsKhRCbHf33p_7___rustc14___rust_dealloc(ptr noundef nonnull %_1.val, i64 noundef %alloc_size.i.i.i.i7, i64 noundef range(i64 1, -9223372036854775807) 8) #26
  br label %_RINvNtCsjMrxcFdYDNN_4core3ptr13drop_in_placeINtNtCsdJPVW0sQgAG_5alloc7raw_vec6RawVecNtNtNtNtCsbJQShvh9aPA_14regex_automata4util11determinize5state5StateEECsf3B9tbXe5WF_5regex.exit8

_RINvNtCsjMrxcFdYDNN_4core3ptr13drop_in_placeINtNtCsdJPVW0sQgAG_5alloc7raw_vec6RawVecNtNtNtNtCsbJQShvh9aPA_14regex_automata4util11determinize5state5StateEECsf3B9tbXe5WF_5regex.exit8: ; preds = %bb4, %bb2.i.i.i6
  ret void

bb1:                                              ; preds = %bb2.i.i.i, %cleanup.body
  resume { ptr, i32 } %5
}

; core::ptr::drop_in_place::<alloc::sync::ArcInner<regex_automata::meta::regex::RegexI>>
; Function Attrs: uwtable
define internal fastcc void @_RINvNtCsjMrxcFdYDNN_4core3ptr13drop_in_placeINtNtCsdJPVW0sQgAG_5alloc4sync8ArcInnerNtNtNtCsbJQShvh9aPA_14regex_automata4meta5regex6RegexIEECsf3B9tbXe5WF_5regex(ptr noalias noundef nonnull align 8 dereferenceable(40) %_1) unnamed_addr #1 personality ptr @rust_eh_personality {
start:
  %0 = getelementptr inbounds nuw i8, ptr %_1, i64 16
  tail call void @llvm.experimental.noalias.scope.decl(metadata !329)
  tail call void @llvm.experimental.noalias.scope.decl(metadata !332)
  tail call void @llvm.experimental.noalias.scope.decl(metadata !335)
  %_10.0.i.i.i = load ptr, ptr %0, align 8, !alias.scope !338, !nonnull !52, !noundef !52
  %1 = atomicrmw sub ptr %_10.0.i.i.i, i64 1 release, align 8, !noalias !338
  %2 = icmp eq i64 %1, 1
  br i1 %2, label %bb2.i.i.i, label %bb4.i

bb2.i.i.i:                                        ; preds = %start
  fence acquire
; invoke <alloc::sync::Arc<dyn regex_automata::meta::strategy::Strategy>>::drop_slow
  invoke void @_RNvMsn_NtCsdJPVW0sQgAG_5alloc4syncINtB5_3ArcDNtNtNtCsbJQShvh9aPA_14regex_automata4meta8strategy8StrategyEL_E9drop_slowBN_(ptr noalias noundef nonnull align 8 dereferenceable(24) %0) #29
          to label %bb4.i unwind label %cleanup.i

cleanup.i:                                        ; preds = %bb2.i.i.i
  %3 = landingpad { ptr, i32 }
          cleanup
  %4 = getelementptr inbounds nuw i8, ptr %_1, i64 32
  tail call void @llvm.experimental.noalias.scope.decl(metadata !339)
  tail call void @llvm.experimental.noalias.scope.decl(metadata !342)
  tail call void @llvm.experimental.noalias.scope.decl(metadata !345)
  %_10.i.i.i.i = load ptr, ptr %4, align 8, !alias.scope !348, !nonnull !52, !noundef !52
  %5 = atomicrmw sub ptr %_10.i.i.i.i, i64 1 release, align 8, !noalias !349
  %6 = icmp eq i64 %5, 1
  br i1 %6, label %bb2.i.i.i.i, label %bb1.i

bb2.i.i.i.i:                                      ; preds = %cleanup.i
  fence acquire
; invoke <alloc::sync::Arc<regex_automata::meta::regex::RegexInfoI>>::drop_slow
  invoke void @_RNvMsn_NtCsdJPVW0sQgAG_5alloc4syncINtB5_3ArcNtNtNtCsbJQShvh9aPA_14regex_automata4meta5regex10RegexInfoIE9drop_slowBM_(ptr noalias noundef nonnull align 8 dereferenceable(8) %4) #29
          to label %bb1.i unwind label %terminate.i

bb4.i:                                            ; preds = %bb2.i.i.i, %start
  %7 = getelementptr inbounds nuw i8, ptr %_1, i64 32
  tail call void @llvm.experimental.noalias.scope.decl(metadata !350)
  tail call void @llvm.experimental.noalias.scope.decl(metadata !353)
  tail call void @llvm.experimental.noalias.scope.decl(metadata !356)
  %_10.i.i.i2.i = load ptr, ptr %7, align 8, !alias.scope !359, !nonnull !52, !noundef !52
  %8 = atomicrmw sub ptr %_10.i.i.i2.i, i64 1 release, align 8, !noalias !360
  %9 = icmp eq i64 %8, 1
  br i1 %9, label %bb2.i.i.i3.i, label %_RINvNtCsjMrxcFdYDNN_4core3ptr13drop_in_placeNtNtNtCsbJQShvh9aPA_14regex_automata4meta5regex6RegexIECsf3B9tbXe5WF_5regex.exit

bb2.i.i.i3.i:                                     ; preds = %bb4.i
  fence acquire
; call <alloc::sync::Arc<regex_automata::meta::regex::RegexInfoI>>::drop_slow
  tail call void @_RNvMsn_NtCsdJPVW0sQgAG_5alloc4syncINtB5_3ArcNtNtNtCsbJQShvh9aPA_14regex_automata4meta5regex10RegexInfoIE9drop_slowBM_(ptr noalias noundef nonnull align 8 dereferenceable(8) %7) #29
  br label %_RINvNtCsjMrxcFdYDNN_4core3ptr13drop_in_placeNtNtNtCsbJQShvh9aPA_14regex_automata4meta5regex6RegexIECsf3B9tbXe5WF_5regex.exit

terminate.i:                                      ; preds = %bb2.i.i.i.i
  %10 = landingpad { ptr, i32 }
          filter [0 x ptr] zeroinitializer
; call core::panicking::panic_in_cleanup
  tail call void @_RNvNtCsjMrxcFdYDNN_4core9panicking16panic_in_cleanup() #28
  unreachable

bb1.i:                                            ; preds = %bb2.i.i.i.i, %cleanup.i
  resume { ptr, i32 } %3

_RINvNtCsjMrxcFdYDNN_4core3ptr13drop_in_placeNtNtNtCsbJQShvh9aPA_14regex_automata4meta5regex6RegexIECsf3B9tbXe5WF_5regex.exit: ; preds = %bb4.i, %bb2.i.i.i3.i
  ret void
}

; core::ptr::drop_in_place::<alloc::boxed::Box<dyn core::ops::function::Fn<(), Output = regex_automata::meta::regex::Cache> + core::marker::Send + core::panic::unwind_safe::UnwindSafe + core::marker::Sync + core::panic::unwind_safe::RefUnwindSafe>>
; Function Attrs: uwtable
define internal fastcc void @_RINvNtCsjMrxcFdYDNN_4core3ptr13drop_in_placeINtNtCsdJPVW0sQgAG_5alloc5boxed3BoxDINtNtNtB4_3ops8function2FnuEp6OutputNtNtNtCsbJQShvh9aPA_14regex_automata4meta5regex5CacheNtNtB4_6marker4SendNtNtNtB4_5panic11unwind_safe10UnwindSafeNtB2J_4SyncNtB32_13RefUnwindSafeEL_EECsf3B9tbXe5WF_5regex(ptr %_1.0.val, ptr readonly captures(address_is_null) %_1.8.val) unnamed_addr #1 personality ptr @rust_eh_personality {
start:
  %0 = icmp ne ptr %_1.8.val, null
  tail call void @llvm.assume(i1 %0)
  %1 = load ptr, ptr %_1.8.val, align 8, !invariant.load !52
  %.not = icmp eq ptr %1, null
  br i1 %.not, label %bb3, label %is_not_null

is_not_null:                                      ; preds = %start
  %2 = icmp ne ptr %_1.0.val, null
  tail call void @llvm.assume(i1 %2)
  invoke void %1(ptr noundef nonnull %_1.0.val)
          to label %bb3 unwind label %cleanup

bb3:                                              ; preds = %is_not_null, %start
  %3 = icmp ne ptr %_1.0.val, null
  tail call void @llvm.assume(i1 %3)
  %4 = getelementptr inbounds nuw i8, ptr %_1.8.val, i64 8
  %5 = load i64, ptr %4, align 8, !range !183, !invariant.load !52
  %6 = getelementptr inbounds nuw i8, ptr %_1.8.val, i64 16
  %7 = load i64, ptr %6, align 8, !range !190, !invariant.load !52
  %8 = add i64 %7, -1
  %9 = icmp sgt i64 %8, -1
  tail call void @llvm.assume(i1 %9)
  %10 = icmp eq i64 %5, 0
  br i1 %10, label %_RNvXs8_NtCsdJPVW0sQgAG_5alloc5boxedINtB5_3BoxDINtNtNtCsjMrxcFdYDNN_4core3ops8function2FnuEp6OutputNtNtNtCsbJQShvh9aPA_14regex_automata4meta5regex5CacheNtNtBP_6marker4SendNtNtNtBP_5panic11unwind_safe10UnwindSafeNtB2r_4SyncNtB2K_13RefUnwindSafeEL_ENtNtBN_4drop4Drop4dropCsf3B9tbXe5WF_5regex.exit, label %_RNvXs_NtCsdJPVW0sQgAG_5alloc5allocNtB4_6GlobalNtNtCsjMrxcFdYDNN_4core5alloc9Allocator10deallocate.exit.i

_RNvXs_NtCsdJPVW0sQgAG_5alloc5allocNtB4_6GlobalNtNtCsjMrxcFdYDNN_4core5alloc9Allocator10deallocate.exit.i: ; preds = %bb3
; call __rustc::__rust_dealloc
  tail call void @_RNvCsKhRCbHf33p_7___rustc14___rust_dealloc(ptr noundef nonnull %_1.0.val, i64 noundef %5, i64 noundef range(i64 1, -9223372036854775807) %7) #26
  br label %_RNvXs8_NtCsdJPVW0sQgAG_5alloc5boxedINtB5_3BoxDINtNtNtCsjMrxcFdYDNN_4core3ops8function2FnuEp6OutputNtNtNtCsbJQShvh9aPA_14regex_automata4meta5regex5CacheNtNtBP_6marker4SendNtNtNtBP_5panic11unwind_safe10UnwindSafeNtB2r_4SyncNtB2K_13RefUnwindSafeEL_ENtNtBN_4drop4Drop4dropCsf3B9tbXe5WF_5regex.exit

_RNvXs8_NtCsdJPVW0sQgAG_5alloc5boxedINtB5_3BoxDINtNtNtCsjMrxcFdYDNN_4core3ops8function2FnuEp6OutputNtNtNtCsbJQShvh9aPA_14regex_automata4meta5regex5CacheNtNtBP_6marker4SendNtNtNtBP_5panic11unwind_safe10UnwindSafeNtB2r_4SyncNtB2K_13RefUnwindSafeEL_ENtNtBN_4drop4Drop4dropCsf3B9tbXe5WF_5regex.exit: ; preds = %bb3, %_RNvXs_NtCsdJPVW0sQgAG_5alloc5allocNtB4_6GlobalNtNtCsjMrxcFdYDNN_4core5alloc9Allocator10deallocate.exit.i
  ret void

cleanup:                                          ; preds = %is_not_null
  %11 = landingpad { ptr, i32 }
          cleanup
  %12 = getelementptr inbounds nuw i8, ptr %_1.8.val, i64 8
  %13 = load i64, ptr %12, align 8, !range !183, !invariant.load !52
  %14 = getelementptr inbounds nuw i8, ptr %_1.8.val, i64 16
  %15 = load i64, ptr %14, align 8, !range !190, !invariant.load !52
  %16 = add i64 %15, -1
  %17 = icmp sgt i64 %16, -1
  tail call void @llvm.assume(i1 %17)
  %18 = icmp eq i64 %13, 0
  br i1 %18, label %bb1, label %_RNvXs_NtCsdJPVW0sQgAG_5alloc5allocNtB4_6GlobalNtNtCsjMrxcFdYDNN_4core5alloc9Allocator10deallocate.exit.i4

_RNvXs_NtCsdJPVW0sQgAG_5alloc5allocNtB4_6GlobalNtNtCsjMrxcFdYDNN_4core5alloc9Allocator10deallocate.exit.i4: ; preds = %cleanup
; call __rustc::__rust_dealloc
  tail call void @_RNvCsKhRCbHf33p_7___rustc14___rust_dealloc(ptr noundef nonnull %_1.0.val, i64 noundef %13, i64 noundef range(i64 1, -9223372036854775807) %15) #26
  br label %bb1

bb1:                                              ; preds = %_RNvXs_NtCsdJPVW0sQgAG_5alloc5allocNtB4_6GlobalNtNtCsjMrxcFdYDNN_4core5alloc9Allocator10deallocate.exit.i4, %cleanup
  resume { ptr, i32 } %11
}

; core::ptr::drop_in_place::<alloc::boxed::Box<regex_syntax::ast::Repetition>>
; Function Attrs: uwtable
define internal fastcc void @_RINvNtCsjMrxcFdYDNN_4core3ptr13drop_in_placeINtNtCsdJPVW0sQgAG_5alloc5boxed3BoxNtNtCs4jgOJqAujFa_12regex_syntax3ast10RepetitionEECsf3B9tbXe5WF_5regex(ptr noalias noundef nonnull readonly align 8 captures(none) dereferenceable(8) %_1) unnamed_addr #1 personality ptr @rust_eh_personality {
start:
  %_6 = load ptr, ptr %_1, align 8, !nonnull !52, !noundef !52
  %0 = getelementptr inbounds nuw i8, ptr %_6, i64 48
; invoke core::ptr::drop_in_place::<alloc::boxed::Box<regex_syntax::ast::Ast>>
  invoke fastcc void @_RINvNtCsjMrxcFdYDNN_4core3ptr13drop_in_placeINtNtCsdJPVW0sQgAG_5alloc5boxed3BoxNtNtCs4jgOJqAujFa_12regex_syntax3ast3AstEECsf3B9tbXe5WF_5regex(ptr noalias noundef align 8 dereferenceable(8) %0)
          to label %bb3 unwind label %bb1

bb3:                                              ; preds = %start
; call __rustc::__rust_dealloc
  tail call void @_RNvCsKhRCbHf33p_7___rustc14___rust_dealloc(ptr noundef nonnull %_6, i64 noundef 128, i64 noundef 8) #26
  ret void

bb1:                                              ; preds = %start
  %1 = landingpad { ptr, i32 }
          cleanup
; call __rustc::__rust_dealloc
  tail call void @_RNvCsKhRCbHf33p_7___rustc14___rust_dealloc(ptr noundef nonnull %_6, i64 noundef 128, i64 noundef 8) #26
  resume { ptr, i32 } %1
}

; core::ptr::drop_in_place::<alloc::boxed::Box<regex_syntax::ast::Alternation>>
; Function Attrs: uwtable
define internal fastcc void @_RINvNtCsjMrxcFdYDNN_4core3ptr13drop_in_placeINtNtCsdJPVW0sQgAG_5alloc5boxed3BoxNtNtCs4jgOJqAujFa_12regex_syntax3ast11AlternationEECsf3B9tbXe5WF_5regex(ptr noalias noundef nonnull readonly align 8 captures(none) dereferenceable(8) %_1) unnamed_addr #1 personality ptr @rust_eh_personality {
start:
  %_6 = load ptr, ptr %_1, align 8, !nonnull !52, !noundef !52
; invoke core::ptr::drop_in_place::<alloc::vec::Vec<regex_syntax::ast::Ast>>
  invoke fastcc void @_RINvNtCsjMrxcFdYDNN_4core3ptr13drop_in_placeINtNtCsdJPVW0sQgAG_5alloc3vec3VecNtNtCs4jgOJqAujFa_12regex_syntax3ast3AstEECsf3B9tbXe5WF_5regex(ptr noalias noundef nonnull align 8 dereferenceable(72) %_6)
          to label %bb3 unwind label %bb1

bb3:                                              ; preds = %start
; call __rustc::__rust_dealloc
  tail call void @_RNvCsKhRCbHf33p_7___rustc14___rust_dealloc(ptr noundef nonnull %_6, i64 noundef 72, i64 noundef 8) #26
  ret void

bb1:                                              ; preds = %start
  %0 = landingpad { ptr, i32 }
          cleanup
; call __rustc::__rust_dealloc
  tail call void @_RNvCsKhRCbHf33p_7___rustc14___rust_dealloc(ptr noundef nonnull %_6, i64 noundef 72, i64 noundef 8) #26
  resume { ptr, i32 } %0
}

; core::ptr::drop_in_place::<alloc::boxed::Box<regex_syntax::ast::ClassUnicode>>
; Function Attrs: nounwind uwtable
define internal fastcc void @_RINvNtCsjMrxcFdYDNN_4core3ptr13drop_in_placeINtNtCsdJPVW0sQgAG_5alloc5boxed3BoxNtNtCs4jgOJqAujFa_12regex_syntax3ast12ClassUnicodeEECsf3B9tbXe5WF_5regex(ptr %_1.0.val) unnamed_addr #2 personality ptr @rust_eh_personality {
start:
  %0 = icmp ne ptr %_1.0.val, null
  tail call void @llvm.assume(i1 %0)
  tail call void @llvm.experimental.noalias.scope.decl(metadata !361)
  tail call void @llvm.experimental.noalias.scope.decl(metadata !364)
  %1 = load i64, ptr %_1.0.val, align 8, !range !367, !alias.scope !368, !noundef !52
  %2 = xor i64 %1, -9223372036854775808
  %3 = icmp slt i64 %1, 0
  %_2.i.i = select i1 %3, i64 %2, i64 2
  switch i64 %_2.i.i, label %bb6.i.i [
    i64 0, label %bb3
    i64 1, label %bb3.i.i
  ]

bb6.i.i:                                          ; preds = %start
  tail call void @llvm.experimental.noalias.scope.decl(metadata !369)
  %4 = icmp eq i64 %1, 0
  br i1 %4, label %bb5.i.i, label %bb2.i.i.i4.i.i.i.i

bb2.i.i.i4.i.i.i.i:                               ; preds = %bb6.i.i
  %5 = getelementptr inbounds nuw i8, ptr %_1.0.val, i64 8
  %_1.val1.i.i.i = load ptr, ptr %5, align 8, !alias.scope !372, !nonnull !52, !noundef !52
; call __rustc::__rust_dealloc
  tail call void @_RNvCsKhRCbHf33p_7___rustc14___rust_dealloc(ptr noundef nonnull %_1.val1.i.i.i, i64 noundef %1, i64 noundef range(i64 1, -9223372036854775807) 1) #26, !noalias !372
  br label %bb5.i.i

bb2.sink.split.i.i:                               ; preds = %bb5.i.i, %bb3.i.i
  %.sink13.i.i = phi i64 [ 16, %bb3.i.i ], [ 32, %bb5.i.i ]
  %_1.val.i9.sink.i.i = phi i64 [ %_1.val.i1.i.i, %bb3.i.i ], [ %_1.val.i9.i.i, %bb5.i.i ]
  %6 = getelementptr inbounds nuw i8, ptr %_1.0.val, i64 %.sink13.i.i
  %_1.val1.i11.i.i = load ptr, ptr %6, align 8, !alias.scope !368, !nonnull !52, !noundef !52
; call __rustc::__rust_dealloc
  tail call void @_RNvCsKhRCbHf33p_7___rustc14___rust_dealloc(ptr noundef nonnull %_1.val1.i11.i.i, i64 noundef %_1.val.i9.sink.i.i, i64 noundef range(i64 1, -9223372036854775807) 1) #26, !noalias !368
  br label %bb3

bb3.i.i:                                          ; preds = %start
  %7 = getelementptr inbounds nuw i8, ptr %_1.0.val, i64 8
  %_1.val.i1.i.i = load i64, ptr %7, align 8, !alias.scope !373
  %8 = icmp eq i64 %_1.val.i1.i.i, 0
  br i1 %8, label %bb3, label %bb2.sink.split.i.i

bb5.i.i:                                          ; preds = %bb2.i.i.i4.i.i.i.i, %bb6.i.i
  %9 = getelementptr inbounds nuw i8, ptr %_1.0.val, i64 24
  %_1.val.i9.i.i = load i64, ptr %9, align 8, !alias.scope !376
  %10 = icmp eq i64 %_1.val.i9.i.i, 0
  br i1 %10, label %bb3, label %bb2.sink.split.i.i

bb3:                                              ; preds = %bb5.i.i, %bb3.i.i, %bb2.sink.split.i.i, %start
; call __rustc::__rust_dealloc
  tail call void @_RNvCsKhRCbHf33p_7___rustc14___rust_dealloc(ptr noundef nonnull %_1.0.val, i64 noundef 112, i64 noundef 8) #26
  ret void
}

; core::ptr::drop_in_place::<alloc::boxed::Box<regex_syntax::ast::ClassBracketed>>
; Function Attrs: uwtable
define internal fastcc void @_RINvNtCsjMrxcFdYDNN_4core3ptr13drop_in_placeINtNtCsdJPVW0sQgAG_5alloc5boxed3BoxNtNtCs4jgOJqAujFa_12regex_syntax3ast14ClassBracketedEECsf3B9tbXe5WF_5regex(ptr noalias noundef nonnull readonly align 8 captures(none) dereferenceable(8) %_1) unnamed_addr #1 personality ptr @rust_eh_personality {
start:
  %_6 = load ptr, ptr %_1, align 8, !nonnull !52, !noundef !52
  %0 = getelementptr inbounds nuw i8, ptr %_6, i64 48
; invoke core::ptr::drop_in_place::<regex_syntax::ast::ClassSet>
  invoke fastcc void @_RINvNtCsjMrxcFdYDNN_4core3ptr13drop_in_placeNtNtCs4jgOJqAujFa_12regex_syntax3ast8ClassSetECsf3B9tbXe5WF_5regex(ptr noalias noundef align 8 dereferenceable(160) %0)
          to label %bb3 unwind label %bb1

bb3:                                              ; preds = %start
; call __rustc::__rust_dealloc
  tail call void @_RNvCsKhRCbHf33p_7___rustc14___rust_dealloc(ptr noundef nonnull %_6, i64 noundef 216, i64 noundef 8) #26
  ret void

bb1:                                              ; preds = %start
  %1 = landingpad { ptr, i32 }
          cleanup
; call __rustc::__rust_dealloc
  tail call void @_RNvCsKhRCbHf33p_7___rustc14___rust_dealloc(ptr noundef nonnull %_6, i64 noundef 216, i64 noundef 8) #26
  resume { ptr, i32 } %1
}

; core::ptr::drop_in_place::<alloc::boxed::Box<regex_syntax::ast::Ast>>
; Function Attrs: uwtable
define internal fastcc void @_RINvNtCsjMrxcFdYDNN_4core3ptr13drop_in_placeINtNtCsdJPVW0sQgAG_5alloc5boxed3BoxNtNtCs4jgOJqAujFa_12regex_syntax3ast3AstEECsf3B9tbXe5WF_5regex(ptr noalias noundef nonnull readonly align 8 captures(none) dereferenceable(8) %_1) unnamed_addr #1 personality ptr @rust_eh_personality {
start:
  %_6 = load ptr, ptr %_1, align 8, !nonnull !52, !noundef !52
; invoke core::ptr::drop_in_place::<regex_syntax::ast::Ast>
  invoke fastcc void @_RINvNtCsjMrxcFdYDNN_4core3ptr13drop_in_placeNtNtCs4jgOJqAujFa_12regex_syntax3ast3AstECsf3B9tbXe5WF_5regex(ptr noalias noundef align 8 dereferenceable(16) %_6)
          to label %bb3 unwind label %bb1

bb3:                                              ; preds = %start
; call __rustc::__rust_dealloc
  tail call void @_RNvCsKhRCbHf33p_7___rustc14___rust_dealloc(ptr noundef nonnull %_6, i64 noundef 16, i64 noundef 8) #26
  ret void

bb1:                                              ; preds = %start
  %0 = landingpad { ptr, i32 }
          cleanup
; call __rustc::__rust_dealloc
  tail call void @_RNvCsKhRCbHf33p_7___rustc14___rust_dealloc(ptr noundef nonnull %_6, i64 noundef 16, i64 noundef 8) #26
  resume { ptr, i32 } %0
}

; core::ptr::drop_in_place::<alloc::boxed::Box<regex_syntax::ast::Group>>
; Function Attrs: uwtable
define internal fastcc void @_RINvNtCsjMrxcFdYDNN_4core3ptr13drop_in_placeINtNtCsdJPVW0sQgAG_5alloc5boxed3BoxNtNtCs4jgOJqAujFa_12regex_syntax3ast5GroupEECsf3B9tbXe5WF_5regex(ptr noalias noundef nonnull readonly align 8 captures(none) dereferenceable(8) %_1) unnamed_addr #1 personality ptr @rust_eh_personality {
start:
  %_6 = load ptr, ptr %_1, align 8, !nonnull !52, !noundef !52
  tail call void @llvm.experimental.noalias.scope.decl(metadata !379)
  %0 = load i64, ptr %_6, align 8, !range !122, !alias.scope !379, !noundef !52
  %1 = icmp ne i64 %0, -9223372036854775807
  tail call void @llvm.assume(i1 %1)
  %2 = xor i64 %0, -9223372036854775808
  %3 = icmp slt i64 %0, 0
  %_2.i = select i1 %3, i64 %2, i64 1
  switch i64 %_2.i, label %bb3.i [
    i64 0, label %bb4.i
    i64 1, label %bb2.i
  ]

bb3.i:                                            ; preds = %start
  %4 = getelementptr inbounds nuw i8, ptr %_6, i64 8
  %.val.i = load i64, ptr %4, align 8, !alias.scope !379
  %5 = icmp eq i64 %.val.i, 0
  br i1 %5, label %bb4.i, label %bb2.i.i.i4.i.i.i

bb2.i.i.i4.i.i.i:                                 ; preds = %bb3.i
  %6 = getelementptr inbounds nuw i8, ptr %_6, i64 16
  %.val1.i = load ptr, ptr %6, align 8, !alias.scope !379, !nonnull !52, !noundef !52
  %alloc_size.i.i.i.i5.i.i.i = mul nuw i64 %.val.i, 56
; call __rustc::__rust_dealloc
  tail call void @_RNvCsKhRCbHf33p_7___rustc14___rust_dealloc(ptr noundef nonnull %.val1.i, i64 noundef %alloc_size.i.i.i.i5.i.i.i, i64 noundef range(i64 1, -9223372036854775807) 8) #26, !noalias !379
  br label %bb4.i

bb2.i:                                            ; preds = %start
  %7 = icmp eq i64 %0, 0
  br i1 %7, label %bb4.i, label %bb2.i.i.i4.i.i.i.i

bb2.i.i.i4.i.i.i.i:                               ; preds = %bb2.i
  %8 = getelementptr inbounds nuw i8, ptr %_6, i64 8
  %_1.val2.i = load ptr, ptr %8, align 8, !alias.scope !379, !nonnull !52, !noundef !52
; call __rustc::__rust_dealloc
  tail call void @_RNvCsKhRCbHf33p_7___rustc14___rust_dealloc(ptr noundef nonnull %_1.val2.i, i64 noundef %0, i64 noundef range(i64 1, -9223372036854775807) 1) #26, !noalias !382
  br label %bb4.i

bb4.i:                                            ; preds = %bb2.i.i.i4.i.i.i.i, %bb2.i, %bb2.i.i.i4.i.i.i, %bb3.i, %start
  %9 = getelementptr inbounds nuw i8, ptr %_6, i64 88
; invoke core::ptr::drop_in_place::<alloc::boxed::Box<regex_syntax::ast::Ast>>
  invoke fastcc void @_RINvNtCsjMrxcFdYDNN_4core3ptr13drop_in_placeINtNtCsdJPVW0sQgAG_5alloc5boxed3BoxNtNtCs4jgOJqAujFa_12regex_syntax3ast3AstEECsf3B9tbXe5WF_5regex(ptr noalias noundef align 8 dereferenceable(8) %9)
          to label %bb3 unwind label %cleanup

cleanup:                                          ; preds = %bb4.i
  %10 = landingpad { ptr, i32 }
          cleanup
; call __rustc::__rust_dealloc
  tail call void @_RNvCsKhRCbHf33p_7___rustc14___rust_dealloc(ptr noundef nonnull %_6, i64 noundef 144, i64 noundef 8) #26
  resume { ptr, i32 } %10

bb3:                                              ; preds = %bb4.i
; call __rustc::__rust_dealloc
  tail call void @_RNvCsKhRCbHf33p_7___rustc14___rust_dealloc(ptr noundef nonnull %_6, i64 noundef 144, i64 noundef 8) #26
  ret void
}

; core::ptr::drop_in_place::<alloc::boxed::Box<regex_syntax::ast::ClassSet>>
; Function Attrs: uwtable
define internal fastcc void @_RINvNtCsjMrxcFdYDNN_4core3ptr13drop_in_placeINtNtCsdJPVW0sQgAG_5alloc5boxed3BoxNtNtCs4jgOJqAujFa_12regex_syntax3ast8ClassSetEECsf3B9tbXe5WF_5regex(ptr noalias noundef nonnull readonly align 8 captures(none) dereferenceable(8) %_1) unnamed_addr #1 personality ptr @rust_eh_personality {
start:
  %_6 = load ptr, ptr %_1, align 8, !nonnull !52, !noundef !52
; invoke core::ptr::drop_in_place::<regex_syntax::ast::ClassSet>
  invoke fastcc void @_RINvNtCsjMrxcFdYDNN_4core3ptr13drop_in_placeNtNtCs4jgOJqAujFa_12regex_syntax3ast8ClassSetECsf3B9tbXe5WF_5regex(ptr noalias noundef align 8 dereferenceable(160) %_6)
          to label %bb3 unwind label %bb1

bb3:                                              ; preds = %start
; call __rustc::__rust_dealloc
  tail call void @_RNvCsKhRCbHf33p_7___rustc14___rust_dealloc(ptr noundef nonnull %_6, i64 noundef 160, i64 noundef 8) #26
  ret void

bb1:                                              ; preds = %start
  %0 = landingpad { ptr, i32 }
          cleanup
; call __rustc::__rust_dealloc
  tail call void @_RNvCsKhRCbHf33p_7___rustc14___rust_dealloc(ptr noundef nonnull %_6, i64 noundef 160, i64 noundef 8) #26
  resume { ptr, i32 } %0
}

; core::ptr::drop_in_place::<alloc::boxed::Box<regex_syntax::ast::SetFlags>>
; Function Attrs: nounwind uwtable
define internal fastcc void @_RINvNtCsjMrxcFdYDNN_4core3ptr13drop_in_placeINtNtCsdJPVW0sQgAG_5alloc5boxed3BoxNtNtCs4jgOJqAujFa_12regex_syntax3ast8SetFlagsEECsf3B9tbXe5WF_5regex(ptr %_1.0.val) unnamed_addr #2 personality ptr @rust_eh_personality {
start:
  %0 = icmp ne ptr %_1.0.val, null
  tail call void @llvm.assume(i1 %0)
  %_6.val = load i64, ptr %_1.0.val, align 8
  %1 = icmp eq i64 %_6.val, 0
  br i1 %1, label %bb3, label %bb2.i.i.i4.i.i.i

bb2.i.i.i4.i.i.i:                                 ; preds = %start
  %2 = getelementptr i8, ptr %_1.0.val, i64 8
  %_6.val1 = load ptr, ptr %2, align 8, !nonnull !52, !noundef !52
  %alloc_size.i.i.i.i5.i.i.i = mul nuw i64 %_6.val, 56
; call __rustc::__rust_dealloc
  tail call void @_RNvCsKhRCbHf33p_7___rustc14___rust_dealloc(ptr noundef nonnull %_6.val1, i64 noundef %alloc_size.i.i.i.i5.i.i.i, i64 noundef range(i64 1, -9223372036854775807) 8) #26
  br label %bb3

bb3:                                              ; preds = %bb2.i.i.i4.i.i.i, %start
; call __rustc::__rust_dealloc
  tail call void @_RNvCsKhRCbHf33p_7___rustc14___rust_dealloc(ptr noundef nonnull %_1.0.val, i64 noundef 120, i64 noundef 8) #26
  ret void
}

; core::ptr::drop_in_place::<alloc::boxed::Box<regex_syntax::hir::Hir>>
; Function Attrs: uwtable
define internal fastcc void @_RINvNtCsjMrxcFdYDNN_4core3ptr13drop_in_placeINtNtCsdJPVW0sQgAG_5alloc5boxed3BoxNtNtCs4jgOJqAujFa_12regex_syntax3hir3HirEECsf3B9tbXe5WF_5regex(ptr noalias noundef nonnull readonly align 8 captures(none) dereferenceable(8) %_1) unnamed_addr #1 personality ptr @rust_eh_personality {
start:
  %_6 = load ptr, ptr %_1, align 8, !nonnull !52, !noundef !52
; invoke <regex_syntax::hir::Hir as core::ops::drop::Drop>::drop
  invoke void @_RNvXsm_NtCs4jgOJqAujFa_12regex_syntax3hirNtB5_3HirNtNtNtCsjMrxcFdYDNN_4core3ops4drop4Drop4drop(ptr noalias noundef nonnull align 8 dereferenceable(48) %_6)
          to label %bb6.i unwind label %cleanup.i

cleanup.i:                                        ; preds = %start
  %0 = landingpad { ptr, i32 }
          cleanup
; invoke core::ptr::drop_in_place::<regex_syntax::hir::HirKind>
  invoke fastcc void @_RINvNtCsjMrxcFdYDNN_4core3ptr13drop_in_placeNtNtCs4jgOJqAujFa_12regex_syntax3hir7HirKindECsf3B9tbXe5WF_5regex(ptr noalias noundef nonnull align 8 dereferenceable(48) %_6) #25
          to label %bb3.i unwind label %terminate.i

bb6.i:                                            ; preds = %start
; invoke core::ptr::drop_in_place::<regex_syntax::hir::HirKind>
  invoke fastcc void @_RINvNtCsjMrxcFdYDNN_4core3ptr13drop_in_placeNtNtCs4jgOJqAujFa_12regex_syntax3hir7HirKindECsf3B9tbXe5WF_5regex(ptr noalias noundef nonnull align 8 dereferenceable(48) %_6)
          to label %bb3 unwind label %cleanup1.i

bb3.i:                                            ; preds = %cleanup1.i, %cleanup.i
  %.pn.i = phi { ptr, i32 } [ %2, %cleanup1.i ], [ %0, %cleanup.i ]
  %1 = getelementptr inbounds nuw i8, ptr %_6, i64 40
  %.val.i = load ptr, ptr %1, align 8, !alias.scope !385, !nonnull !52, !noundef !52
; call __rustc::__rust_dealloc
  tail call void @_RNvCsKhRCbHf33p_7___rustc14___rust_dealloc(ptr noundef nonnull %.val.i, i64 noundef 80, i64 noundef 8) #26
; call __rustc::__rust_dealloc
  tail call void @_RNvCsKhRCbHf33p_7___rustc14___rust_dealloc(ptr noundef nonnull %_6, i64 noundef 48, i64 noundef 8) #26
  resume { ptr, i32 } %.pn.i

cleanup1.i:                                       ; preds = %bb6.i
  %2 = landingpad { ptr, i32 }
          cleanup
  br label %bb3.i

terminate.i:                                      ; preds = %cleanup.i
  %3 = landingpad { ptr, i32 }
          filter [0 x ptr] zeroinitializer
; call core::panicking::panic_in_cleanup
  tail call void @_RNvNtCsjMrxcFdYDNN_4core9panicking16panic_in_cleanup() #28
  unreachable

bb3:                                              ; preds = %bb6.i
  %4 = getelementptr inbounds nuw i8, ptr %_6, i64 40
  %.val3.i = load ptr, ptr %4, align 8, !alias.scope !385, !nonnull !52, !noundef !52
; call __rustc::__rust_dealloc
  tail call void @_RNvCsKhRCbHf33p_7___rustc14___rust_dealloc(ptr noundef nonnull %.val3.i, i64 noundef 80, i64 noundef 8) #26
; call __rustc::__rust_dealloc
  tail call void @_RNvCsKhRCbHf33p_7___rustc14___rust_dealloc(ptr noundef nonnull %_6, i64 noundef 48, i64 noundef 8) #26
  ret void
}

; core::ptr::drop_in_place::<alloc::boxed::Box<regex_automata::meta::regex::Cache>>
; Function Attrs: uwtable
define internal fastcc void @_RINvNtCsjMrxcFdYDNN_4core3ptr13drop_in_placeINtNtCsdJPVW0sQgAG_5alloc5boxed3BoxNtNtNtCsbJQShvh9aPA_14regex_automata4meta5regex5CacheEECsf3B9tbXe5WF_5regex(ptr nonnull %_1.0.val) unnamed_addr #1 personality ptr @rust_eh_personality {
start:
; invoke core::ptr::drop_in_place::<regex_automata::meta::regex::Cache>
  invoke fastcc void @_RINvNtCsjMrxcFdYDNN_4core3ptr13drop_in_placeNtNtNtCsbJQShvh9aPA_14regex_automata4meta5regex5CacheECsf3B9tbXe5WF_5regex(ptr noalias noundef align 8 dereferenceable(1400) %_1.0.val)
          to label %bb3 unwind label %bb1

bb3:                                              ; preds = %start
; call __rustc::__rust_dealloc
  tail call void @_RNvCsKhRCbHf33p_7___rustc14___rust_dealloc(ptr noundef nonnull %_1.0.val, i64 noundef 1400, i64 noundef 8) #26
  ret void

bb1:                                              ; preds = %start
  %0 = landingpad { ptr, i32 }
          cleanup
; call __rustc::__rust_dealloc
  tail call void @_RNvCsKhRCbHf33p_7___rustc14___rust_dealloc(ptr noundef nonnull %_1.0.val, i64 noundef 1400, i64 noundef 8) #26
  resume { ptr, i32 } %0
}

; core::ptr::drop_in_place::<regex_automata::util::pool::Pool<regex_automata::meta::regex::Cache, alloc::boxed::Box<dyn core::ops::function::Fn<(), Output = regex_automata::meta::regex::Cache> + core::marker::Send + core::panic::unwind_safe::UnwindSafe + core::marker::Sync + core::panic::unwind_safe::RefUnwindSafe>>>
; Function Attrs: uwtable
define internal fastcc void @_RINvNtCsjMrxcFdYDNN_4core3ptr13drop_in_placeINtNtNtCsbJQShvh9aPA_14regex_automata4util4pool4PoolNtNtNtBN_4meta5regex5CacheINtNtCsdJPVW0sQgAG_5alloc5boxed3BoxDINtNtNtB4_3ops8function2FnuEp6OutputB1w_NtNtB4_6marker4SendNtNtNtB4_5panic11unwind_safe10UnwindSafeNtB3c_4SyncNtB3v_13RefUnwindSafeEL_EEECsf3B9tbXe5WF_5regex(ptr nonnull %_1.0.val) unnamed_addr #1 personality ptr @rust_eh_personality {
start:
; invoke core::ptr::drop_in_place::<regex_automata::util::pool::inner::Pool<regex_automata::meta::regex::Cache, alloc::boxed::Box<dyn core::ops::function::Fn<(), Output = regex_automata::meta::regex::Cache> + core::marker::Send + core::panic::unwind_safe::UnwindSafe + core::marker::Sync + core::panic::unwind_safe::RefUnwindSafe>>>
  invoke fastcc void @_RINvNtCsjMrxcFdYDNN_4core3ptr13drop_in_placeINtNtNtNtCsbJQShvh9aPA_14regex_automata4util4pool5inner4PoolNtNtNtBP_4meta5regex5CacheINtNtCsdJPVW0sQgAG_5alloc5boxed3BoxDINtNtNtB4_3ops8function2FnuEp6OutputB1E_NtNtB4_6marker4SendNtNtNtB4_5panic11unwind_safe10UnwindSafeNtB3k_4SyncNtB3D_13RefUnwindSafeEL_EEECsf3B9tbXe5WF_5regex(ptr noalias noundef nonnull align 8 dereferenceable(1448) %_1.0.val)
          to label %_RINvNtCsjMrxcFdYDNN_4core3ptr13drop_in_placeINtNtCsdJPVW0sQgAG_5alloc5boxed3BoxINtNtNtNtCsbJQShvh9aPA_14regex_automata4util4pool5inner4PoolNtNtNtB1o_4meta5regex5CacheIBH_DINtNtNtB4_3ops8function2FnuEp6OutputB2d_NtNtB4_6marker4SendNtNtNtB4_5panic11unwind_safe10UnwindSafeNtB3p_4SyncNtB3I_13RefUnwindSafeEL_EEEECsf3B9tbXe5WF_5regex.exit unwind label %bb1.i

bb1.i:                                            ; preds = %start
  %0 = landingpad { ptr, i32 }
          cleanup
; call __rustc::__rust_dealloc
  tail call void @_RNvCsKhRCbHf33p_7___rustc14___rust_dealloc(ptr noundef nonnull %_1.0.val, i64 noundef 1448, i64 noundef 8) #26
  resume { ptr, i32 } %0

_RINvNtCsjMrxcFdYDNN_4core3ptr13drop_in_placeINtNtCsdJPVW0sQgAG_5alloc5boxed3BoxINtNtNtNtCsbJQShvh9aPA_14regex_automata4util4pool5inner4PoolNtNtNtB1o_4meta5regex5CacheIBH_DINtNtNtB4_3ops8function2FnuEp6OutputB2d_NtNtB4_6marker4SendNtNtNtB4_5panic11unwind_safe10UnwindSafeNtB3p_4SyncNtB3I_13RefUnwindSafeEL_EEEECsf3B9tbXe5WF_5regex.exit: ; preds = %start
; call __rustc::__rust_dealloc
  tail call void @_RNvCsKhRCbHf33p_7___rustc14___rust_dealloc(ptr noundef nonnull %_1.0.val, i64 noundef 1448, i64 noundef 8) #26
  ret void
}

; core::ptr::drop_in_place::<std::collections::hash::map::HashMap<regex_automata::util::determinize::state::State, regex_automata::hybrid::id::LazyStateID>>
; Function Attrs: uwtable
define internal fastcc void @_RINvNtCsjMrxcFdYDNN_4core3ptr13drop_in_placeINtNtNtNtCs5sEH5CPMdak_3std11collections4hash3map7HashMapNtNtNtNtCsbJQShvh9aPA_14regex_automata4util11determinize5state5StateNtNtNtB1J_6hybrid2id11LazyStateIDEECsf3B9tbXe5WF_5regex(ptr noalias noundef nonnull readonly align 8 captures(none) dereferenceable(48) %_1) unnamed_addr #1 {
start:
  tail call void @llvm.experimental.noalias.scope.decl(metadata !388)
  tail call void @llvm.experimental.noalias.scope.decl(metadata !391)
  tail call void @llvm.experimental.noalias.scope.decl(metadata !394)
  tail call void @llvm.experimental.noalias.scope.decl(metadata !397)
  %0 = getelementptr inbounds nuw i8, ptr %_1, i64 8
  %_5.i.i.i.i = load i64, ptr %0, align 8, !alias.scope !400, !noundef !52
  %1 = icmp eq i64 %_5.i.i.i.i, 0
  br i1 %1, label %_RINvNtCsjMrxcFdYDNN_4core3ptr13drop_in_placeINtNtCsh9QrOU9e3Ke_9hashbrown3map7HashMapNtNtNtNtCsbJQShvh9aPA_14regex_automata4util11determinize5state5StateNtNtNtB1t_6hybrid2id11LazyStateIDNtNtNtCs5sEH5CPMdak_3std4hash6random11RandomStateEECsf3B9tbXe5WF_5regex.exit, label %bb2.i.i.i.i

bb2.i.i.i.i:                                      ; preds = %start
  tail call void @llvm.experimental.noalias.scope.decl(metadata !401)
  %2 = getelementptr inbounds nuw i8, ptr %_1, i64 24
  %_2.i.i.i.i.i = load i64, ptr %2, align 8, !alias.scope !404, !noundef !52
  %3 = icmp eq i64 %_2.i.i.i.i.i, 0
  br i1 %3, label %_RINvMsa_NtCsh9QrOU9e3Ke_9hashbrown3rawNtB6_13RawTableInner13drop_elementsTNtNtNtNtCsbJQShvh9aPA_14regex_automata4util11determinize5state5StateNtNtNtB1i_6hybrid2id11LazyStateIDEECsf3B9tbXe5WF_5regex.exit.i.i.i.i, label %bb2.i.i.i.i.i

bb2.i.i.i.i.i:                                    ; preds = %bb2.i.i.i.i
  %self3.i.i.i.i.i = load ptr, ptr %_1, align 8, !alias.scope !404, !nonnull !52, !noundef !52
  %tmp.sroa.0.0.copyload.i.i.i.i.i.i.i.i = load <8 x i8>, ptr %self3.i.i.i.i.i, align 1, !noalias !405
  %4 = icmp sgt <8 x i8> %tmp.sroa.0.0.copyload.i.i.i.i.i.i.i.i, splat (i8 -1)
  %5 = sext <8 x i1> %4 to <8 x i8>
  %6 = bitcast <8 x i8> %5 to i64
  %next_ctrl.i.i.i.i.i.i = getelementptr inbounds nuw i8, ptr %self3.i.i.i.i.i, i64 8
  %_21.i.i.i.i.i.i = and i64 %6, -9187201950435737472
  br label %bb14.i.i.i.i.i

bb14.i.i.i.i.i:                                   ; preds = %_RINvNtCsjMrxcFdYDNN_4core3ptr13drop_in_placeTNtNtNtNtCsbJQShvh9aPA_14regex_automata4util11determinize5state5StateNtNtNtBP_6hybrid2id11LazyStateIDEECsf3B9tbXe5WF_5regex.exit.i.i.i.i.i, %bb2.i.i.i.i.i
  %iter.sroa.0.010.i.i.i.i.i = phi ptr [ %self3.i.i.i.i.i, %bb2.i.i.i.i.i ], [ %iter.sroa.0.1.i.i.i.i.i, %_RINvNtCsjMrxcFdYDNN_4core3ptr13drop_in_placeTNtNtNtNtCsbJQShvh9aPA_14regex_automata4util11determinize5state5StateNtNtNtBP_6hybrid2id11LazyStateIDEECsf3B9tbXe5WF_5regex.exit.i.i.i.i.i ]
  %iter.sroa.6.09.i.i.i.i.i = phi i64 [ %_21.i.i.i.i.i.i, %bb2.i.i.i.i.i ], [ %_34.i.i.i.i.i.i, %_RINvNtCsjMrxcFdYDNN_4core3ptr13drop_in_placeTNtNtNtNtCsbJQShvh9aPA_14regex_automata4util11determinize5state5StateNtNtNtBP_6hybrid2id11LazyStateIDEECsf3B9tbXe5WF_5regex.exit.i.i.i.i.i ]
  %iter.sroa.8.08.i.i.i.i.i = phi ptr [ %next_ctrl.i.i.i.i.i.i, %bb2.i.i.i.i.i ], [ %iter.sroa.8.1.i.i.i.i.i, %_RINvNtCsjMrxcFdYDNN_4core3ptr13drop_in_placeTNtNtNtNtCsbJQShvh9aPA_14regex_automata4util11determinize5state5StateNtNtNtBP_6hybrid2id11LazyStateIDEECsf3B9tbXe5WF_5regex.exit.i.i.i.i.i ]
  %iter.sroa.105.07.i.i.i.i.i = phi i64 [ %_2.i.i.i.i.i, %bb2.i.i.i.i.i ], [ %15, %_RINvNtCsjMrxcFdYDNN_4core3ptr13drop_in_placeTNtNtNtNtCsbJQShvh9aPA_14regex_automata4util11determinize5state5StateNtNtNtBP_6hybrid2id11LazyStateIDEECsf3B9tbXe5WF_5regex.exit.i.i.i.i.i ]
  %.not14.i.i.i.i.i.i = icmp eq i64 %iter.sroa.6.09.i.i.i.i.i, 0
  br i1 %.not14.i.i.i.i.i.i, label %bb10.i.i.i.i.i.i, label %_RINvMsi_NtCsh9QrOU9e3Ke_9hashbrown3rawINtB6_12RawIterRangeTNtNtNtNtCsbJQShvh9aPA_14regex_automata4util11determinize5state5StateNtNtNtB13_6hybrid2id11LazyStateIDEE9next_implKb0_ECsf3B9tbXe5WF_5regex.exit.i.i.i.i.i

bb10.i.i.i.i.i.i:                                 ; preds = %bb14.i.i.i.i.i, %bb10.i.i.i.i.i.i
  %_1717.i.i.i.i.i.i = phi ptr [ %_17.i.i.i.i.i.i, %bb10.i.i.i.i.i.i ], [ %iter.sroa.8.08.i.i.i.i.i, %bb14.i.i.i.i.i ]
  %7 = phi ptr [ %11, %bb10.i.i.i.i.i.i ], [ %iter.sroa.0.010.i.i.i.i.i, %bb14.i.i.i.i.i ]
  %tmp.sroa.0.0.copyload.i.i.i4.i.i.i.i.i = load <8 x i8>, ptr %_1717.i.i.i.i.i.i, align 1, !noalias !412
  %8 = icmp sgt <8 x i8> %tmp.sroa.0.0.copyload.i.i.i4.i.i.i.i.i, splat (i8 -1)
  %9 = sext <8 x i1> %8 to <8 x i8>
  %10 = bitcast <8 x i8> %9 to i64
  %_54.i.i.i.i.i.i = and i64 %10, -9187201950435737472
  %11 = getelementptr inbounds i8, ptr %7, i64 -192
  %_17.i.i.i.i.i.i = getelementptr inbounds nuw i8, ptr %_1717.i.i.i.i.i.i, i64 8
  %.not.i.i.i.i.i.i = icmp eq i64 %_54.i.i.i.i.i.i, 0
  br i1 %.not.i.i.i.i.i.i, label %bb10.i.i.i.i.i.i, label %_RINvMsi_NtCsh9QrOU9e3Ke_9hashbrown3rawINtB6_12RawIterRangeTNtNtNtNtCsbJQShvh9aPA_14regex_automata4util11determinize5state5StateNtNtNtB13_6hybrid2id11LazyStateIDEE9next_implKb0_ECsf3B9tbXe5WF_5regex.exit.i.i.i.i.i

_RINvMsi_NtCsh9QrOU9e3Ke_9hashbrown3rawINtB6_12RawIterRangeTNtNtNtNtCsbJQShvh9aPA_14regex_automata4util11determinize5state5StateNtNtNtB13_6hybrid2id11LazyStateIDEE9next_implKb0_ECsf3B9tbXe5WF_5regex.exit.i.i.i.i.i: ; preds = %bb10.i.i.i.i.i.i, %bb14.i.i.i.i.i
  %iter.sroa.8.1.i.i.i.i.i = phi ptr [ %iter.sroa.8.08.i.i.i.i.i, %bb14.i.i.i.i.i ], [ %_17.i.i.i.i.i.i, %bb10.i.i.i.i.i.i ]
  %iter.sroa.0.1.i.i.i.i.i = phi ptr [ %iter.sroa.0.010.i.i.i.i.i, %bb14.i.i.i.i.i ], [ %11, %bb10.i.i.i.i.i.i ]
  %self3.lcssa.i.i.i.i.i.i = phi i64 [ %iter.sroa.6.09.i.i.i.i.i, %bb14.i.i.i.i.i ], [ %_54.i.i.i.i.i.i, %bb10.i.i.i.i.i.i ]
  %12 = add i64 %self3.lcssa.i.i.i.i.i.i, -1
  %13 = tail call range(i64 0, 65) i64 @llvm.cttz.i64(i64 %self3.lcssa.i.i.i.i.i.i, i1 true)
  %_2411.i.i.i.i.i.i = lshr i64 %13, 3
  %_34.i.i.i.i.i.i = and i64 %12, %self3.lcssa.i.i.i.i.i.i
  %_46.i.i.i.i.i.i = sub nsw i64 0, %_2411.i.i.i.i.i.i
  %14 = getelementptr inbounds { %"regex_automata::util::determinize::state::State", i32, [1 x i32] }, ptr %iter.sroa.0.1.i.i.i.i.i, i64 %_46.i.i.i.i.i.i
  %15 = add i64 %iter.sroa.105.07.i.i.i.i.i, -1
  %16 = getelementptr inbounds i8, ptr %14, i64 -24
  tail call void @llvm.experimental.noalias.scope.decl(metadata !419)
  tail call void @llvm.experimental.noalias.scope.decl(metadata !422)
  tail call void @llvm.experimental.noalias.scope.decl(metadata !425)
  tail call void @llvm.experimental.noalias.scope.decl(metadata !428)
  %_10.0.i.i.i.i.i.i.i.i.i = load ptr, ptr %16, align 8, !alias.scope !431, !noalias !404, !nonnull !52, !noundef !52
  %17 = atomicrmw sub ptr %_10.0.i.i.i.i.i.i.i.i.i, i64 1 release, align 8, !noalias !432
  %18 = icmp eq i64 %17, 1
  br i1 %18, label %bb2.i.i.i.i.i.i.i.i.i, label %_RINvNtCsjMrxcFdYDNN_4core3ptr13drop_in_placeTNtNtNtNtCsbJQShvh9aPA_14regex_automata4util11determinize5state5StateNtNtNtBP_6hybrid2id11LazyStateIDEECsf3B9tbXe5WF_5regex.exit.i.i.i.i.i

bb2.i.i.i.i.i.i.i.i.i:                            ; preds = %_RINvMsi_NtCsh9QrOU9e3Ke_9hashbrown3rawINtB6_12RawIterRangeTNtNtNtNtCsbJQShvh9aPA_14regex_automata4util11determinize5state5StateNtNtNtB13_6hybrid2id11LazyStateIDEE9next_implKb0_ECsf3B9tbXe5WF_5regex.exit.i.i.i.i.i
  fence acquire
; call <alloc::sync::Arc<[u8]>>::drop_slow
  tail call void @_RNvMsn_NtCsdJPVW0sQgAG_5alloc4syncINtB5_3ArcShE9drop_slowCsbJQShvh9aPA_14regex_automata(ptr noalias noundef nonnull align 8 dereferenceable(24) %16) #29, !noalias !404
  br label %_RINvNtCsjMrxcFdYDNN_4core3ptr13drop_in_placeTNtNtNtNtCsbJQShvh9aPA_14regex_automata4util11determinize5state5StateNtNtNtBP_6hybrid2id11LazyStateIDEECsf3B9tbXe5WF_5regex.exit.i.i.i.i.i

_RINvNtCsjMrxcFdYDNN_4core3ptr13drop_in_placeTNtNtNtNtCsbJQShvh9aPA_14regex_automata4util11determinize5state5StateNtNtNtBP_6hybrid2id11LazyStateIDEECsf3B9tbXe5WF_5regex.exit.i.i.i.i.i: ; preds = %bb2.i.i.i.i.i.i.i.i.i, %_RINvMsi_NtCsh9QrOU9e3Ke_9hashbrown3rawINtB6_12RawIterRangeTNtNtNtNtCsbJQShvh9aPA_14regex_automata4util11determinize5state5StateNtNtNtB13_6hybrid2id11LazyStateIDEE9next_implKb0_ECsf3B9tbXe5WF_5regex.exit.i.i.i.i.i
  %19 = icmp eq i64 %15, 0
  br i1 %19, label %_RINvMsa_NtCsh9QrOU9e3Ke_9hashbrown3rawNtB6_13RawTableInner13drop_elementsTNtNtNtNtCsbJQShvh9aPA_14regex_automata4util11determinize5state5StateNtNtNtB1i_6hybrid2id11LazyStateIDEECsf3B9tbXe5WF_5regex.exit.i.i.i.i, label %bb14.i.i.i.i.i

_RINvMsa_NtCsh9QrOU9e3Ke_9hashbrown3rawNtB6_13RawTableInner13drop_elementsTNtNtNtNtCsbJQShvh9aPA_14regex_automata4util11determinize5state5StateNtNtNtB1i_6hybrid2id11LazyStateIDEECsf3B9tbXe5WF_5regex.exit.i.i.i.i: ; preds = %_RINvNtCsjMrxcFdYDNN_4core3ptr13drop_in_placeTNtNtNtNtCsbJQShvh9aPA_14regex_automata4util11determinize5state5StateNtNtNtBP_6hybrid2id11LazyStateIDEECsf3B9tbXe5WF_5regex.exit.i.i.i.i.i, %bb2.i.i.i.i
  %20 = mul i64 %_5.i.i.i.i, 24
  %21 = add i64 %20, 24
  %rhs5.i.i.i.i.i = add i64 %_5.i.i.i.i, 9
  %_37.0.i.i.i.i.i = add i64 %rhs5.i.i.i.i.i, %21
  %_37.1.i.i.i.i.i = icmp uge i64 %_37.0.i.i.i.i.i, %21
  %_19.i.i.i.i.i = icmp ult i64 %_37.0.i.i.i.i.i, 9223372036854775801
  tail call void @llvm.assume(i1 %_37.1.i.i.i.i.i)
  tail call void @llvm.assume(i1 %_19.i.i.i.i.i)
  %22 = icmp eq i64 %_37.0.i.i.i.i.i, 0
  br i1 %22, label %_RINvNtCsjMrxcFdYDNN_4core3ptr13drop_in_placeINtNtCsh9QrOU9e3Ke_9hashbrown3map7HashMapNtNtNtNtCsbJQShvh9aPA_14regex_automata4util11determinize5state5StateNtNtNtB1t_6hybrid2id11LazyStateIDNtNtNtCs5sEH5CPMdak_3std4hash6random11RandomStateEECsf3B9tbXe5WF_5regex.exit, label %bb1.i4.i.i.i.i

bb1.i4.i.i.i.i:                                   ; preds = %_RINvMsa_NtCsh9QrOU9e3Ke_9hashbrown3rawNtB6_13RawTableInner13drop_elementsTNtNtNtNtCsbJQShvh9aPA_14regex_automata4util11determinize5state5StateNtNtNtB1i_6hybrid2id11LazyStateIDEECsf3B9tbXe5WF_5regex.exit.i.i.i.i
  %self1.i.i.i.i = load ptr, ptr %_1, align 8, !alias.scope !400, !nonnull !52, !noundef !52
  %_17.i.i.i.i = sub i64 -24, %20
  %ptr.i.i.i.i = getelementptr inbounds i8, ptr %self1.i.i.i.i, i64 %_17.i.i.i.i
; call __rustc::__rust_dealloc
  tail call void @_RNvCsKhRCbHf33p_7___rustc14___rust_dealloc(ptr noundef nonnull %ptr.i.i.i.i, i64 noundef %_37.0.i.i.i.i.i, i64 noundef range(i64 1, -9223372036854775807) 8) #26, !noalias !400
  br label %_RINvNtCsjMrxcFdYDNN_4core3ptr13drop_in_placeINtNtCsh9QrOU9e3Ke_9hashbrown3map7HashMapNtNtNtNtCsbJQShvh9aPA_14regex_automata4util11determinize5state5StateNtNtNtB1t_6hybrid2id11LazyStateIDNtNtNtCs5sEH5CPMdak_3std4hash6random11RandomStateEECsf3B9tbXe5WF_5regex.exit

_RINvNtCsjMrxcFdYDNN_4core3ptr13drop_in_placeINtNtCsh9QrOU9e3Ke_9hashbrown3map7HashMapNtNtNtNtCsbJQShvh9aPA_14regex_automata4util11determinize5state5StateNtNtNtB1t_6hybrid2id11LazyStateIDNtNtNtCs5sEH5CPMdak_3std4hash6random11RandomStateEECsf3B9tbXe5WF_5regex.exit: ; preds = %start, %_RINvMsa_NtCsh9QrOU9e3Ke_9hashbrown3rawNtB6_13RawTableInner13drop_elementsTNtNtNtNtCsbJQShvh9aPA_14regex_automata4util11determinize5state5StateNtNtNtB1i_6hybrid2id11LazyStateIDEECsf3B9tbXe5WF_5regex.exit.i.i.i.i, %bb1.i4.i.i.i.i
  ret void
}

; core::ptr::drop_in_place::<std::sys::sync::once_box::OnceBox<std::sys::pal::unix::sync::mutex::Mutex>>
; Function Attrs: uwtable
define internal fastcc void @_RINvNtCsjMrxcFdYDNN_4core3ptr13drop_in_placeINtNtNtNtCs5sEH5CPMdak_3std3sys4sync8once_box7OnceBoxNtNtNtNtNtBN_3pal4unix4sync5mutex5MutexEECsf3B9tbXe5WF_5regex(ptr noalias noundef nonnull align 8 captures(none) dereferenceable(8) %_1) unnamed_addr #1 personality ptr @rust_eh_personality {
start:
  tail call void @llvm.experimental.noalias.scope.decl(metadata !433)
  %ptr.i = load ptr, ptr %_1, align 8, !alias.scope !433, !noundef !52
  store ptr null, ptr %_1, align 8, !alias.scope !433
  %0 = icmp eq ptr %ptr.i, null
  br i1 %0, label %_RNvXs1_NtNtNtCs5sEH5CPMdak_3std3sys4sync8once_boxINtB5_7OnceBoxNtNtNtNtNtB9_3pal4unix4sync5mutex5MutexENtNtNtCsjMrxcFdYDNN_4core3ops4drop4Drop4dropCsf3B9tbXe5WF_5regex.exit, label %bb2.i.i

bb2.i.i:                                          ; preds = %start
; invoke <std::sys::pal::unix::sync::mutex::Mutex as core::ops::drop::Drop>::drop
  invoke void @_RNvXs2_NtNtNtNtNtCs5sEH5CPMdak_3std3sys3pal4unix4sync5mutexNtB5_5MutexNtNtNtCsjMrxcFdYDNN_4core3ops4drop4Drop4drop(ptr noundef nonnull align 8 %ptr.i)
          to label %_RINvNtCsjMrxcFdYDNN_4core3ptr13drop_in_placeINtNtB4_3pin3PinINtNtCsdJPVW0sQgAG_5alloc5boxed3BoxNtNtNtNtNtNtCs5sEH5CPMdak_3std3sys3pal4unix4sync5mutex5MutexEEECsf3B9tbXe5WF_5regex.exit.i.i unwind label %bb1.i.i.i.i, !noalias !433

bb1.i.i.i.i:                                      ; preds = %bb2.i.i
  %1 = landingpad { ptr, i32 }
          cleanup
; call __rustc::__rust_dealloc
  tail call void @_RNvCsKhRCbHf33p_7___rustc14___rust_dealloc(ptr noundef nonnull %ptr.i, i64 noundef 64, i64 noundef 8) #26, !noalias !433
  resume { ptr, i32 } %1

_RINvNtCsjMrxcFdYDNN_4core3ptr13drop_in_placeINtNtB4_3pin3PinINtNtCsdJPVW0sQgAG_5alloc5boxed3BoxNtNtNtNtNtNtCs5sEH5CPMdak_3std3sys3pal4unix4sync5mutex5MutexEEECsf3B9tbXe5WF_5regex.exit.i.i: ; preds = %bb2.i.i
; call __rustc::__rust_dealloc
  tail call void @_RNvCsKhRCbHf33p_7___rustc14___rust_dealloc(ptr noundef nonnull %ptr.i, i64 noundef 64, i64 noundef 8) #26, !noalias !433
  br label %_RNvXs1_NtNtNtCs5sEH5CPMdak_3std3sys4sync8once_boxINtB5_7OnceBoxNtNtNtNtNtB9_3pal4unix4sync5mutex5MutexENtNtNtCsjMrxcFdYDNN_4core3ops4drop4Drop4dropCsf3B9tbXe5WF_5regex.exit

_RNvXs1_NtNtNtCs5sEH5CPMdak_3std3sys4sync8once_boxINtB5_7OnceBoxNtNtNtNtNtB9_3pal4unix4sync5mutex5MutexENtNtNtCsjMrxcFdYDNN_4core3ops4drop4Drop4dropCsf3B9tbXe5WF_5regex.exit: ; preds = %start, %_RINvNtCsjMrxcFdYDNN_4core3ptr13drop_in_placeINtNtB4_3pin3PinINtNtCsdJPVW0sQgAG_5alloc5boxed3BoxNtNtNtNtNtNtCs5sEH5CPMdak_3std3sys3pal4unix4sync5mutex5MutexEEECsf3B9tbXe5WF_5regex.exit.i.i
  ret void
}

; core::ptr::drop_in_place::<regex_automata::util::pool::inner::Pool<regex_automata::meta::regex::Cache, alloc::boxed::Box<dyn core::ops::function::Fn<(), Output = regex_automata::meta::regex::Cache> + core::marker::Send + core::panic::unwind_safe::UnwindSafe + core::marker::Sync + core::panic::unwind_safe::RefUnwindSafe>>>
; Function Attrs: uwtable
define internal fastcc void @_RINvNtCsjMrxcFdYDNN_4core3ptr13drop_in_placeINtNtNtNtCsbJQShvh9aPA_14regex_automata4util4pool5inner4PoolNtNtNtBP_4meta5regex5CacheINtNtCsdJPVW0sQgAG_5alloc5boxed3BoxDINtNtNtB4_3ops8function2FnuEp6OutputB1E_NtNtB4_6marker4SendNtNtNtB4_5panic11unwind_safe10UnwindSafeNtB3k_4SyncNtB3D_13RefUnwindSafeEL_EEECsf3B9tbXe5WF_5regex(ptr noalias noundef nonnull align 8 dereferenceable(1448) %_1) unnamed_addr #1 personality ptr @rust_eh_personality {
start:
  %0 = getelementptr inbounds nuw i8, ptr %_1, i64 24
  %.val = load ptr, ptr %0, align 8
  %1 = getelementptr inbounds nuw i8, ptr %_1, i64 32
  %.val3 = load ptr, ptr %1, align 8, !nonnull !52, !align !86, !noundef !52
  %2 = load ptr, ptr %.val3, align 8, !invariant.load !52
  %.not.i = icmp eq ptr %2, null
  br i1 %.not.i, label %bb3.i, label %is_not_null.i

is_not_null.i:                                    ; preds = %start
  %3 = icmp ne ptr %.val, null
  tail call void @llvm.assume(i1 %3)
  invoke void %2(ptr noundef nonnull %.val)
          to label %bb3.i unwind label %cleanup.i

bb3.i:                                            ; preds = %is_not_null.i, %start
  %4 = icmp ne ptr %.val, null
  tail call void @llvm.assume(i1 %4)
  %5 = getelementptr inbounds nuw i8, ptr %.val3, i64 8
  %6 = load i64, ptr %5, align 8, !range !183, !invariant.load !52
  %7 = getelementptr inbounds nuw i8, ptr %.val3, i64 16
  %8 = load i64, ptr %7, align 8, !range !190, !invariant.load !52
  %9 = add i64 %8, -1
  %10 = icmp sgt i64 %9, -1
  tail call void @llvm.assume(i1 %10)
  %11 = icmp eq i64 %6, 0
  br i1 %11, label %bb6, label %_RNvXs_NtCsdJPVW0sQgAG_5alloc5allocNtB4_6GlobalNtNtCsjMrxcFdYDNN_4core5alloc9Allocator10deallocate.exit.i.i

_RNvXs_NtCsdJPVW0sQgAG_5alloc5allocNtB4_6GlobalNtNtCsjMrxcFdYDNN_4core5alloc9Allocator10deallocate.exit.i.i: ; preds = %bb3.i
; call __rustc::__rust_dealloc
  tail call void @_RNvCsKhRCbHf33p_7___rustc14___rust_dealloc(ptr noundef nonnull %.val, i64 noundef %6, i64 noundef range(i64 1, -9223372036854775807) %8) #26
  br label %bb6

cleanup.i:                                        ; preds = %is_not_null.i
  %12 = landingpad { ptr, i32 }
          cleanup
  %13 = getelementptr inbounds nuw i8, ptr %.val3, i64 8
  %14 = load i64, ptr %13, align 8, !range !183, !invariant.load !52
  %15 = getelementptr inbounds nuw i8, ptr %.val3, i64 16
  %16 = load i64, ptr %15, align 8, !range !190, !invariant.load !52
  %17 = add i64 %16, -1
  %18 = icmp sgt i64 %17, -1
  tail call void @llvm.assume(i1 %18)
  %19 = icmp eq i64 %14, 0
  br i1 %19, label %cleanup.body, label %_RNvXs_NtCsdJPVW0sQgAG_5alloc5allocNtB4_6GlobalNtNtCsjMrxcFdYDNN_4core5alloc9Allocator10deallocate.exit.i4.i

_RNvXs_NtCsdJPVW0sQgAG_5alloc5allocNtB4_6GlobalNtNtCsjMrxcFdYDNN_4core5alloc9Allocator10deallocate.exit.i4.i: ; preds = %cleanup.i
; call __rustc::__rust_dealloc
  tail call void @_RNvCsKhRCbHf33p_7___rustc14___rust_dealloc(ptr noundef nonnull %.val, i64 noundef %14, i64 noundef range(i64 1, -9223372036854775807) %16) #26
  br label %cleanup.body

cleanup.body:                                     ; preds = %cleanup.i, %_RNvXs_NtCsdJPVW0sQgAG_5alloc5allocNtB4_6GlobalNtNtCsjMrxcFdYDNN_4core5alloc9Allocator10deallocate.exit.i4.i
; invoke core::ptr::drop_in_place::<alloc::vec::Vec<regex_automata::util::pool::inner::CacheLine<std::sync::poison::mutex::Mutex<alloc::vec::Vec<alloc::boxed::Box<regex_automata::meta::regex::Cache>>>>>>
  invoke fastcc void @_RINvNtCsjMrxcFdYDNN_4core3ptr13drop_in_placeINtNtCsdJPVW0sQgAG_5alloc3vec3VecINtNtNtNtCsbJQShvh9aPA_14regex_automata4util4pool5inner9CacheLineINtNtNtNtCs5sEH5CPMdak_3std4sync6poison5mutex5MutexIBH_INtNtBL_5boxed3BoxNtNtNtB1m_4meta5regex5CacheEEEEEECsf3B9tbXe5WF_5regex(ptr noalias noundef align 8 dereferenceable(24) %_1) #25
          to label %bb3 unwind label %terminate

bb6:                                              ; preds = %_RNvXs_NtCsdJPVW0sQgAG_5alloc5allocNtB4_6GlobalNtNtCsjMrxcFdYDNN_4core5alloc9Allocator10deallocate.exit.i.i, %bb3.i
; invoke core::ptr::drop_in_place::<alloc::vec::Vec<regex_automata::util::pool::inner::CacheLine<std::sync::poison::mutex::Mutex<alloc::vec::Vec<alloc::boxed::Box<regex_automata::meta::regex::Cache>>>>>>
  invoke fastcc void @_RINvNtCsjMrxcFdYDNN_4core3ptr13drop_in_placeINtNtCsdJPVW0sQgAG_5alloc3vec3VecINtNtNtNtCsbJQShvh9aPA_14regex_automata4util4pool5inner9CacheLineINtNtNtNtCs5sEH5CPMdak_3std4sync6poison5mutex5MutexIBH_INtNtBL_5boxed3BoxNtNtNtB1m_4meta5regex5CacheEEEEEECsf3B9tbXe5WF_5regex(ptr noalias noundef align 8 dereferenceable(24) %_1)
          to label %bb5 unwind label %cleanup1

bb3:                                              ; preds = %cleanup.body, %cleanup1
  %.pn = phi { ptr, i32 } [ %23, %cleanup1 ], [ %12, %cleanup.body ]
  %20 = getelementptr inbounds nuw i8, ptr %_1, i64 48
  %21 = load i64, ptr %20, align 8, !range !436, !alias.scope !437, !noundef !52
  %22 = icmp eq i64 %21, 3
  br i1 %22, label %bb1, label %bb2.i.i

bb2.i.i:                                          ; preds = %bb3
; invoke core::ptr::drop_in_place::<regex_automata::meta::regex::Cache>
  invoke fastcc void @_RINvNtCsjMrxcFdYDNN_4core3ptr13drop_in_placeNtNtNtCsbJQShvh9aPA_14regex_automata4meta5regex5CacheECsf3B9tbXe5WF_5regex(ptr noalias noundef nonnull align 8 dereferenceable(1400) %20)
          to label %bb1 unwind label %terminate

cleanup1:                                         ; preds = %bb6
  %23 = landingpad { ptr, i32 }
          cleanup
  br label %bb3

bb5:                                              ; preds = %bb6
  %24 = getelementptr inbounds nuw i8, ptr %_1, i64 48
  %25 = load i64, ptr %24, align 8, !range !436, !alias.scope !442, !noundef !52
  %26 = icmp eq i64 %25, 3
  br i1 %26, label %_RINvNtCsjMrxcFdYDNN_4core3ptr13drop_in_placeINtNtB4_4cell10UnsafeCellINtNtB4_6option6OptionNtNtNtCsbJQShvh9aPA_14regex_automata4meta5regex5CacheEEECsf3B9tbXe5WF_5regex.exit5, label %bb2.i.i4

bb2.i.i4:                                         ; preds = %bb5
; call core::ptr::drop_in_place::<regex_automata::meta::regex::Cache>
  tail call fastcc void @_RINvNtCsjMrxcFdYDNN_4core3ptr13drop_in_placeNtNtNtCsbJQShvh9aPA_14regex_automata4meta5regex5CacheECsf3B9tbXe5WF_5regex(ptr noalias noundef nonnull align 8 dereferenceable(1400) %24)
  br label %_RINvNtCsjMrxcFdYDNN_4core3ptr13drop_in_placeINtNtB4_4cell10UnsafeCellINtNtB4_6option6OptionNtNtNtCsbJQShvh9aPA_14regex_automata4meta5regex5CacheEEECsf3B9tbXe5WF_5regex.exit5

_RINvNtCsjMrxcFdYDNN_4core3ptr13drop_in_placeINtNtB4_4cell10UnsafeCellINtNtB4_6option6OptionNtNtNtCsbJQShvh9aPA_14regex_automata4meta5regex5CacheEEECsf3B9tbXe5WF_5regex.exit5: ; preds = %bb5, %bb2.i.i4
  ret void

terminate:                                        ; preds = %bb2.i.i, %cleanup.body
  %27 = landingpad { ptr, i32 }
          filter [0 x ptr] zeroinitializer
; call core::panicking::panic_in_cleanup
  tail call void @_RNvNtCsjMrxcFdYDNN_4core9panicking16panic_in_cleanup() #28
  unreachable

bb1:                                              ; preds = %bb3, %bb2.i.i
  resume { ptr, i32 } %.pn
}

; core::ptr::drop_in_place::<regex_automata::util::pool::inner::CacheLine<std::sync::poison::mutex::Mutex<alloc::vec::Vec<alloc::boxed::Box<regex_automata::meta::regex::Cache>>>>>
; Function Attrs: uwtable
define internal fastcc void @_RINvNtCsjMrxcFdYDNN_4core3ptr13drop_in_placeINtNtNtNtCsbJQShvh9aPA_14regex_automata4util4pool5inner9CacheLineINtNtNtNtCs5sEH5CPMdak_3std4sync6poison5mutex5MutexINtNtCsdJPVW0sQgAG_5alloc3vec3VecINtNtB2D_5boxed3BoxNtNtNtBP_4meta5regex5CacheEEEEECsf3B9tbXe5WF_5regex(ptr noalias noundef nonnull align 64 dereferenceable(64) %_1) unnamed_addr #1 personality ptr @rust_eh_personality {
start:
; invoke <std::sys::sync::mutex::pthread::Mutex as core::ops::drop::Drop>::drop
  invoke void @_RNvXs_NtNtNtNtCs5sEH5CPMdak_3std3sys4sync5mutex7pthreadNtB4_5MutexNtNtNtCsjMrxcFdYDNN_4core3ops4drop4Drop4drop(ptr noalias noundef nonnull align 8 dereferenceable(40) %_1)
          to label %bb4.i.i unwind label %cleanup.i.i

cleanup.i.i:                                      ; preds = %start
  %0 = landingpad { ptr, i32 }
          cleanup
; invoke core::ptr::drop_in_place::<std::sys::sync::once_box::OnceBox<std::sys::pal::unix::sync::mutex::Mutex>>
  invoke fastcc void @_RINvNtCsjMrxcFdYDNN_4core3ptr13drop_in_placeINtNtNtNtCs5sEH5CPMdak_3std3sys4sync8once_box7OnceBoxNtNtNtNtNtBN_3pal4unix4sync5mutex5MutexEECsf3B9tbXe5WF_5regex(ptr noalias noundef nonnull align 8 dereferenceable(40) %_1) #25
          to label %cleanup.body.i unwind label %terminate.i.i

bb4.i.i:                                          ; preds = %start
  tail call void @llvm.experimental.noalias.scope.decl(metadata !447)
  tail call void @llvm.experimental.noalias.scope.decl(metadata !450)
  %ptr.i.i.i.i = load ptr, ptr %_1, align 64, !alias.scope !453, !noundef !52
  store ptr null, ptr %_1, align 64, !alias.scope !453
  %1 = icmp eq ptr %ptr.i.i.i.i, null
  br i1 %1, label %_RINvNtCsjMrxcFdYDNN_4core3ptr13drop_in_placeINtNtNtNtCs5sEH5CPMdak_3std4sync6poison5mutex5MutexINtNtCsdJPVW0sQgAG_5alloc3vec3VecINtNtB1A_5boxed3BoxNtNtNtCsbJQShvh9aPA_14regex_automata4meta5regex5CacheEEEECsf3B9tbXe5WF_5regex.exit, label %bb2.i.i.i.i.i

bb2.i.i.i.i.i:                                    ; preds = %bb4.i.i
; invoke <std::sys::pal::unix::sync::mutex::Mutex as core::ops::drop::Drop>::drop
  invoke void @_RNvXs2_NtNtNtNtNtCs5sEH5CPMdak_3std3sys3pal4unix4sync5mutexNtB5_5MutexNtNtNtCsjMrxcFdYDNN_4core3ops4drop4Drop4drop(ptr noundef nonnull align 8 %ptr.i.i.i.i)
          to label %_RINvNtCsjMrxcFdYDNN_4core3ptr13drop_in_placeINtNtB4_3pin3PinINtNtCsdJPVW0sQgAG_5alloc5boxed3BoxNtNtNtNtNtNtCs5sEH5CPMdak_3std3sys3pal4unix4sync5mutex5MutexEEECsf3B9tbXe5WF_5regex.exit.i.i.i.i.i unwind label %bb1.i.i.i.i.i.i.i, !noalias !458

bb1.i.i.i.i.i.i.i:                                ; preds = %bb2.i.i.i.i.i
  %2 = landingpad { ptr, i32 }
          cleanup
; call __rustc::__rust_dealloc
  tail call void @_RNvCsKhRCbHf33p_7___rustc14___rust_dealloc(ptr noundef nonnull %ptr.i.i.i.i, i64 noundef 64, i64 noundef 8) #26, !noalias !458
  br label %cleanup.body.i

_RINvNtCsjMrxcFdYDNN_4core3ptr13drop_in_placeINtNtB4_3pin3PinINtNtCsdJPVW0sQgAG_5alloc5boxed3BoxNtNtNtNtNtNtCs5sEH5CPMdak_3std3sys3pal4unix4sync5mutex5MutexEEECsf3B9tbXe5WF_5regex.exit.i.i.i.i.i: ; preds = %bb2.i.i.i.i.i
; call __rustc::__rust_dealloc
  tail call void @_RNvCsKhRCbHf33p_7___rustc14___rust_dealloc(ptr noundef nonnull %ptr.i.i.i.i, i64 noundef 64, i64 noundef 8) #26, !noalias !458
  br label %_RINvNtCsjMrxcFdYDNN_4core3ptr13drop_in_placeINtNtNtNtCs5sEH5CPMdak_3std4sync6poison5mutex5MutexINtNtCsdJPVW0sQgAG_5alloc3vec3VecINtNtB1A_5boxed3BoxNtNtNtCsbJQShvh9aPA_14regex_automata4meta5regex5CacheEEEECsf3B9tbXe5WF_5regex.exit

terminate.i.i:                                    ; preds = %cleanup.i.i
  %3 = landingpad { ptr, i32 }
          filter [0 x ptr] zeroinitializer
; call core::panicking::panic_in_cleanup
  tail call void @_RNvNtCsjMrxcFdYDNN_4core9panicking16panic_in_cleanup() #28
  unreachable

cleanup.body.i:                                   ; preds = %bb1.i.i.i.i.i.i.i, %cleanup.i.i
  %eh.lpad-body.i = phi { ptr, i32 } [ %2, %bb1.i.i.i.i.i.i.i ], [ %0, %cleanup.i.i ]
  %4 = getelementptr inbounds nuw i8, ptr %_1, i64 16
; invoke core::ptr::drop_in_place::<core::cell::UnsafeCell<alloc::vec::Vec<alloc::boxed::Box<regex_automata::meta::regex::Cache>>>>
  invoke fastcc void @_RINvNtCsjMrxcFdYDNN_4core3ptr13drop_in_placeINtNtB4_4cell10UnsafeCellINtNtCsdJPVW0sQgAG_5alloc3vec3VecINtNtB1a_5boxed3BoxNtNtNtCsbJQShvh9aPA_14regex_automata4meta5regex5CacheEEEECsf3B9tbXe5WF_5regex(ptr noalias noundef align 8 dereferenceable(24) %4) #25
          to label %bb1.i unwind label %terminate.i

terminate.i:                                      ; preds = %cleanup.body.i
  %5 = landingpad { ptr, i32 }
          filter [0 x ptr] zeroinitializer
; call core::panicking::panic_in_cleanup
  tail call void @_RNvNtCsjMrxcFdYDNN_4core9panicking16panic_in_cleanup() #28
  unreachable

bb1.i:                                            ; preds = %cleanup.body.i
  resume { ptr, i32 } %eh.lpad-body.i

_RINvNtCsjMrxcFdYDNN_4core3ptr13drop_in_placeINtNtNtNtCs5sEH5CPMdak_3std4sync6poison5mutex5MutexINtNtCsdJPVW0sQgAG_5alloc3vec3VecINtNtB1A_5boxed3BoxNtNtNtCsbJQShvh9aPA_14regex_automata4meta5regex5CacheEEEECsf3B9tbXe5WF_5regex.exit: ; preds = %bb4.i.i, %_RINvNtCsjMrxcFdYDNN_4core3ptr13drop_in_placeINtNtB4_3pin3PinINtNtCsdJPVW0sQgAG_5alloc5boxed3BoxNtNtNtNtNtNtCs5sEH5CPMdak_3std3sys3pal4unix4sync5mutex5MutexEEECsf3B9tbXe5WF_5regex.exit.i.i.i.i.i
  %6 = getelementptr inbounds nuw i8, ptr %_1, i64 16
; call core::ptr::drop_in_place::<core::cell::UnsafeCell<alloc::vec::Vec<alloc::boxed::Box<regex_automata::meta::regex::Cache>>>>
  tail call fastcc void @_RINvNtCsjMrxcFdYDNN_4core3ptr13drop_in_placeINtNtB4_4cell10UnsafeCellINtNtCsdJPVW0sQgAG_5alloc3vec3VecINtNtB1a_5boxed3BoxNtNtNtCsbJQShvh9aPA_14regex_automata4meta5regex5CacheEEEECsf3B9tbXe5WF_5regex(ptr noalias noundef align 8 dereferenceable(24) %6)
  ret void
}

; core::ptr::drop_in_place::<<alloc::sync::Arc<[_]>>::from_iter_exact::Guard<alloc::string::String>>
; Function Attrs: nounwind uwtable
define internal fastcc void @_RINvNtCsjMrxcFdYDNN_4core3ptr13drop_in_placeINtNvMsq_NtCsdJPVW0sQgAG_5alloc4syncINtBP_3ArcSpE15from_iter_exact5GuardNtNtBR_6string6StringEECsf3B9tbXe5WF_5regex(ptr noalias noundef nonnull readonly align 8 captures(none) dereferenceable(40) %_1) unnamed_addr #2 personality ptr @rust_eh_personality {
start:
  tail call void @llvm.experimental.noalias.scope.decl(metadata !459)
  %0 = getelementptr inbounds nuw i8, ptr %_1, i64 24
  %data.i = load ptr, ptr %0, align 8, !alias.scope !459, !noundef !52
  %1 = getelementptr inbounds nuw i8, ptr %_1, i64 32
  %len.i = load i64, ptr %1, align 8, !alias.scope !459, !noundef !52
  tail call void @llvm.experimental.noalias.scope.decl(metadata !462)
  %_710.i.i = icmp eq i64 %len.i, 0
  br i1 %_710.i.i, label %_RINvNtCsjMrxcFdYDNN_4core3ptr13drop_in_placeSNtNtCsdJPVW0sQgAG_5alloc6string6StringECsf3B9tbXe5WF_5regex.exit.i, label %bb5.i.i

bb5.i.i:                                          ; preds = %start, %_RINvNtCsjMrxcFdYDNN_4core3ptr13drop_in_placeNtNtCsdJPVW0sQgAG_5alloc6string6StringECsf3B9tbXe5WF_5regex.exit.i.i
  %_3.sroa.0.011.i.i = phi i64 [ %2, %_RINvNtCsjMrxcFdYDNN_4core3ptr13drop_in_placeNtNtCsdJPVW0sQgAG_5alloc6string6StringECsf3B9tbXe5WF_5regex.exit.i.i ], [ 0, %start ]
  %_6.i.i = getelementptr inbounds nuw %"alloc::string::String", ptr %data.i, i64 %_3.sroa.0.011.i.i
  %2 = add nuw i64 %_3.sroa.0.011.i.i, 1
  tail call void @llvm.experimental.noalias.scope.decl(metadata !465)
  %_1.val.i.i.i = load i64, ptr %_6.i.i, align 8, !alias.scope !468, !noalias !459
  %3 = icmp eq i64 %_1.val.i.i.i, 0
  br i1 %3, label %_RINvNtCsjMrxcFdYDNN_4core3ptr13drop_in_placeNtNtCsdJPVW0sQgAG_5alloc6string6StringECsf3B9tbXe5WF_5regex.exit.i.i, label %bb2.i.i.i4.i.i.i.i

bb2.i.i.i4.i.i.i.i:                               ; preds = %bb5.i.i
  %4 = getelementptr inbounds nuw i8, ptr %_6.i.i, i64 8
  %_1.val1.i.i.i = load ptr, ptr %4, align 8, !alias.scope !468, !noalias !459, !nonnull !52, !noundef !52
; call __rustc::__rust_dealloc
  tail call void @_RNvCsKhRCbHf33p_7___rustc14___rust_dealloc(ptr noundef nonnull %_1.val1.i.i.i, i64 noundef %_1.val.i.i.i, i64 noundef range(i64 1, -9223372036854775807) 1) #26, !noalias !469
  br label %_RINvNtCsjMrxcFdYDNN_4core3ptr13drop_in_placeNtNtCsdJPVW0sQgAG_5alloc6string6StringECsf3B9tbXe5WF_5regex.exit.i.i

_RINvNtCsjMrxcFdYDNN_4core3ptr13drop_in_placeNtNtCsdJPVW0sQgAG_5alloc6string6StringECsf3B9tbXe5WF_5regex.exit.i.i: ; preds = %bb2.i.i.i4.i.i.i.i, %bb5.i.i
  %_7.i.i = icmp eq i64 %2, %len.i
  br i1 %_7.i.i, label %_RINvNtCsjMrxcFdYDNN_4core3ptr13drop_in_placeSNtNtCsdJPVW0sQgAG_5alloc6string6StringECsf3B9tbXe5WF_5regex.exit.i, label %bb5.i.i

_RINvNtCsjMrxcFdYDNN_4core3ptr13drop_in_placeSNtNtCsdJPVW0sQgAG_5alloc6string6StringECsf3B9tbXe5WF_5regex.exit.i: ; preds = %_RINvNtCsjMrxcFdYDNN_4core3ptr13drop_in_placeNtNtCsdJPVW0sQgAG_5alloc6string6StringECsf3B9tbXe5WF_5regex.exit.i.i, %start
  %5 = getelementptr inbounds nuw i8, ptr %_1, i64 8
  %layout.1.i = load i64, ptr %5, align 8, !alias.scope !459, !noundef !52
  %6 = icmp eq i64 %layout.1.i, 0
  br i1 %6, label %_RNvXNvMsq_NtCsdJPVW0sQgAG_5alloc4syncINtB8_3ArcSpE15from_iter_exactINtB2_5GuardNtNtBa_6string6StringENtNtNtCsjMrxcFdYDNN_4core3ops4drop4Drop4dropCsf3B9tbXe5WF_5regex.exit, label %bb5.i

bb5.i:                                            ; preds = %_RINvNtCsjMrxcFdYDNN_4core3ptr13drop_in_placeSNtNtCsdJPVW0sQgAG_5alloc6string6StringECsf3B9tbXe5WF_5regex.exit.i
  %layout.0.i = load i64, ptr %_1, align 8, !range !470, !alias.scope !459, !noundef !52
  %7 = getelementptr inbounds nuw i8, ptr %_1, i64 16
  %ptr.i = load ptr, ptr %7, align 8, !alias.scope !459, !nonnull !52, !noundef !52
; call __rustc::__rust_dealloc
  tail call void @_RNvCsKhRCbHf33p_7___rustc14___rust_dealloc(ptr noundef nonnull %ptr.i, i64 noundef %layout.1.i, i64 noundef %layout.0.i) #26, !noalias !459
  br label %_RNvXNvMsq_NtCsdJPVW0sQgAG_5alloc4syncINtB8_3ArcSpE15from_iter_exactINtB2_5GuardNtNtBa_6string6StringENtNtNtCsjMrxcFdYDNN_4core3ops4drop4Drop4dropCsf3B9tbXe5WF_5regex.exit

_RNvXNvMsq_NtCsdJPVW0sQgAG_5alloc4syncINtB8_3ArcSpE15from_iter_exactINtB2_5GuardNtNtBa_6string6StringENtNtNtCsjMrxcFdYDNN_4core3ops4drop4Drop4dropCsf3B9tbXe5WF_5regex.exit: ; preds = %_RINvNtCsjMrxcFdYDNN_4core3ptr13drop_in_placeSNtNtCsdJPVW0sQgAG_5alloc6string6StringECsf3B9tbXe5WF_5regex.exit.i, %bb5.i
  ret void
}

; core::ptr::drop_in_place::<<regex_automata::meta::regex::Builder>::build_many_from_hir<regex_syntax::hir::Hir>::{closure#1}>
; Function Attrs: uwtable
define internal void @_RINvNtCsjMrxcFdYDNN_4core3ptr13drop_in_placeNCINvMsj_NtNtCsbJQShvh9aPA_14regex_automata4meta5regexNtBP_7Builder19build_many_from_hirNtNtCs4jgOJqAujFa_12regex_syntax3hir3HirEs_0ECsf3B9tbXe5WF_5regex(ptr noalias noundef align 8 dereferenceable(16) %_1) unnamed_addr #1 {
start:
  tail call void @llvm.experimental.noalias.scope.decl(metadata !471)
  tail call void @llvm.experimental.noalias.scope.decl(metadata !474)
  %_10.0.i.i = load ptr, ptr %_1, align 8, !alias.scope !477, !nonnull !52, !noundef !52
  %0 = atomicrmw sub ptr %_10.0.i.i, i64 1 release, align 8, !noalias !477
  %1 = icmp eq i64 %0, 1
  br i1 %1, label %bb2.i.i, label %_RINvNtCsjMrxcFdYDNN_4core3ptr13drop_in_placeINtNtCsdJPVW0sQgAG_5alloc4sync3ArcDNtNtNtCsbJQShvh9aPA_14regex_automata4meta8strategy8StrategyEL_EECsf3B9tbXe5WF_5regex.exit

bb2.i.i:                                          ; preds = %start
  fence acquire
; call <alloc::sync::Arc<dyn regex_automata::meta::strategy::Strategy>>::drop_slow
  tail call void @_RNvMsn_NtCsdJPVW0sQgAG_5alloc4syncINtB5_3ArcDNtNtNtCsbJQShvh9aPA_14regex_automata4meta8strategy8StrategyEL_E9drop_slowBN_(ptr noalias noundef nonnull align 8 dereferenceable(16) %_1) #29
  br label %_RINvNtCsjMrxcFdYDNN_4core3ptr13drop_in_placeINtNtCsdJPVW0sQgAG_5alloc4sync3ArcDNtNtNtCsbJQShvh9aPA_14regex_automata4meta8strategy8StrategyEL_EECsf3B9tbXe5WF_5regex.exit

_RINvNtCsjMrxcFdYDNN_4core3ptr13drop_in_placeINtNtCsdJPVW0sQgAG_5alloc4sync3ArcDNtNtNtCsbJQShvh9aPA_14regex_automata4meta8strategy8StrategyEL_EECsf3B9tbXe5WF_5regex.exit: ; preds = %start, %bb2.i.i
  ret void
}

; core::ptr::drop_in_place::<regex_syntax::ast::Repetition>
; Function Attrs: uwtable
define internal fastcc void @_RINvNtCsjMrxcFdYDNN_4core3ptr13drop_in_placeNtNtCs4jgOJqAujFa_12regex_syntax3ast10RepetitionECsf3B9tbXe5WF_5regex(ptr noalias noundef nonnull readonly align 8 captures(none) dereferenceable(128) %_1) unnamed_addr #1 personality ptr @rust_eh_personality {
start:
  %0 = getelementptr inbounds nuw i8, ptr %_1, i64 48
  tail call void @llvm.experimental.noalias.scope.decl(metadata !478)
