; ModuleID = 'ryu.b751b78fb146d47a-cgu.0'
source_filename = "ryu.b751b78fb146d47a-cgu.0"
target datalayout = "e-m:o-p270:32:32-p271:32:32-p272:64:64-i64:64-i128:128-n32:64-S128-Fn32"
target triple = "arm64-apple-macosx11.0.0"

@_RNvNtCsfJNPX9h41mg_3ryu11digit_table11DIGIT_TABLE = internal unnamed_addr constant [200 x i8] c"00010203040506070809101112131415161718192021222324252627282930313233343536373839404142434445464748495051525354555657585960616263646566676869707172737475767778798081828384858687888990919293949596979899", align 1
@_RNvNtCsfJNPX9h41mg_3ryu14d2s_full_table17DOUBLE_POW5_SPLIT = internal unnamed_addr constant [5216 x i8] c"\00\00\00\00\00\00\00\00\00\00\00\00\00\00\00\10\00\00\00\00\00\00\00\00\00\00\00\00\00\00\00\14\00\00\00\00\00\00\00\00\00\00\00\00\00\00\00\19\00\00\00\00\00\00\00\00\00\00\00\00\00\00@\1F\00\00\00\00\00\00\00\00\00\00\00\00\00\00\88\13\00\00\00\00\00\00\00\00\00\00\00\00\00\00j\18\00\00\00\00\00\00\00\00\00\00\00\00\00\80\84\1E\00\00\00\00\00\00\00\00\00\00\00\00\00\D0\12\13\00\00\00\00\00\00\00\00\00\00\00\00\00\84\D7\17\00\00\00\00\00\00\00\00\00\00\00\00\00e\CD\1D\00\00\00\00\00\00\00\00\00\00\00\00 _\A0\12\00\00\00\00\00\00\00\00\00\00\00\00\E8vH\17\00\00\00\00\00\00\00\00\00\00\00\00\A2\94\1A\1D\00\00\00\00\00\00\00\00\00\00\00@\E5\9C0\12\00\00\00\00\00\00\00\00\00\00\00\90\1E\C4\BC\16\00\00\00\00\00\00\00\00\00\00\004&\F5k\1C\00\00\00\00\00\00\00\00\00\00\80\E07y\C3\11\00\00\00\00\00\00\00\00\00\00\A0\D8\85W4\16\00\00\00\00\00\00\00\00\00\00\C8Ngm\C1\1B\00\00\00\00\00\00\00\00\00\00=\91`\E4X\11\00\00\00\00\00\00\00\00\00@\8C\B5x\1D\AF\15\00\00\00\00\00\00\00\00\00P\EF\E2\D6\E4\1A\1B\00\00\00\00\00\00\00\00\00\92\D5M\06\CF\F0\10\00\00\00\00\00\00\00\00\80\F6J\E1\C7\02-\15\00\00\00\00\00\00\00\00 \B4\9D\D9yCx\1A\00\00\00\00\00\00\00\00\94\90\02(,*\8B\10\00\00\00\00\00\00\00\00\B94\032\B7\F4\AD\14\00\00\00\00\00\00\00@\E7\01\84\FE\E4q\D9\19\00\00\00\00\00\00\00\880\81\12\1F/\E7'\10\00\00\00\00\00\00\00\AA|!\D7\E6\FA\E01\14\00\00\00\00\00\00\80\D4\DB\E9\8C\A09Y>\19\00\00\00\00\00\00\A0\C9R$\B0\08\88\EF\8D\1F\00\00\00\00\00\00\04\BE\B3\16n\05\B5\B5\B8\13\00\00\00\00\00\00\85\AD`\9C\C9F\22\E3\A6\18\00\00\00\00\00@\E6\D8x\03|\D8\EA\9B\D0\1E\00\00\00\00\00\E8\8F\87+\82M\C7raB\13\00\00\00\00\00\E2si\B6\E2 y\CF\F9\12\18\00\00\00\00\80\DA\D0\03d\1BiWC\B8\17\1E\00\00\00\00\90\88b\82\1E\B1\A1\16*\D3\CE\12\00\00\00\00\B4*\FB\22f\1DJ\9C\F4\87\82\17\00\00\00\00a\F5\B9\AB\BF\A4\\\C3\F1)c\1D\00\00\00\A0\\9T\CB\F7\E6\19\1A7\FA]\12\00\00\00\C8\B3G)\BE\B5`\A0\E0\C4x\F5\16\00\00\00\BA\A0\99\B3-\E3x\C8\18\F6\D6\B2\1C\00\00@t\04@\90\FC\8DK}\CFY\C6\EF\11\00\00P\91\05P\B4{q\9E\\C\F0\B7k\16\00\00\A4\F5\06d\A1\DA\0D\C63T\EC\A5\06\1C\00\80\86Y\84\DE\A4\A8\C8[\A0\B4\B3'\84\11\00 \E8o%\16\CE\D2\BAr\C8\A1\A01\E5\15\00(\E2\CB\AE\9B\81\87i\8F:\CA\08~^\1B\00Ym?M\01\B1\F4\A1\99d~\C5\0E\1B\11@\AFH\8F\A0A\DDq\0A\C0\FD\DDv\D2a\15\10\DB\1A\B3\08\92T\0E\0D0}\95\14G\BA\1A\EA\C8\F0oE\DB\F4(\08>n\DDll\B4\10$\FB\EC\CB\16\1223\8A\CD\C9\14\88\87\E1\14\ED9\E8~\9C\96\FE\BF\EC@\FC\19j\E9\19\1A4$Q\CF!\1E\FF\F7\93\A8=P\E21P\10Am%C\AA\E5\FE\F5\B8\12M\E4Z>d\14\92\C8\EE\D3\14\9F~3gW`\9D\F1M}\19\B6z\EA\08\DAF^\00Am\B8\04n\A1\DC\1F\B2\8C\92EH\EC:\A0HD\F3\C2\E4\E4\E9\13\DE/\F7VZ\A7I\C8Z\15\B0\F3\1D^\E4\18\D6\FB\B4\EC0\11\\z\B1\1A\9Cp\A5u\1D\1Fe\1D\F1\93\BE\8Ay\EC\AE\90af\87ir\13\BFd\ED8n\ED\97\A7\DA\F4\F9?\E9\03O\18\EF\BD(\C7\C9\E8}Q\11r\F8\8F\E3\C4b\1E\B5vy\1C~\B1\EE\D2JG\FB9\0E\BB\FD\12b\D4\97\A3\DD]\AA\87\1D\19z\C8\D1)\BD\17{\C9}\0CU\F5\94\E9d\9F\98:Ft\AC\1D\ED\9D\CE'U\19\FD\11\9Fc\9F\E4\AB\C8\8B\12hE\C2q\AA_|\D6\86<\C7\DD\D6\BA.\17\C2\D62\0E\95w\1B\8C\A8\0B9\95\8Ci\FA\1C9\C6\DF(\BD*\91WI\A7C\DD\F7\81\1C\12\C8\B7\17sluu\AD\1B\91\94\D4u\A2\A3\16\BA\A5\DD\8F\C7\D2\D2\98b\B5\B9I\13\8BL\1C\94\87\EA\B9\BC\C3\83\9F]\11\14\0E\EC\D6\AF\11y)e\E8\AB\B4d\07\B5\15\99\11\A7\CC\1B\16\D7s~\E2\D6\E1=I\22[\FF\D5\D0\BF\A2\1Bf\08\8FM&\AD\C6m\F5\98\BF\85\E2\B7E\11\80\CA\F2\E0oX8\C92\7F/'\DB%\97\15 }/\D9\8Bn\86{\FF^\FB\F0Q\EF\FC\1A4\AE\BDg\17\054\AD_\1B\9D6\93\15\DE\10\C1\19\ADA]\06\81\987bD\04\F8\9A\15\152`\18\92\F4G\A1~\C5zU\05\B6\01[\1A\1F<O\DB\F8\CC$o\BBlU\C3\11\E1x\10'\0B#\127\00\EEJ\EA\C7*4V\19\97\14\F0\CD\AB\D6D\80\A9\DD\E4y5\C1\AB\DF\BC\19\B6`+\06+\F0\89\0A/l\C1X\CB\0B\16\10\E48\B6\C75l,\CD:\C7\F1.\BE\8E\1B\14\1D\C7\A39C\87w\80\099\AE\BAmr\22\19\E4\B8\0C\08\14i\95\E0K\C7Y)\09\0Fk\1F\8E\F3\07\85\ACa]l\8F\1C\D8\B9e\E9\A2\13r\F0I\A6\17\BAtG\B3#N(\BF\A3\8B\18\8Fl\DC\8F\9D\E8Q\19\A0\ACa\F2\AE\8C\AE\1E\D9\C3\E9yb1\D3\0F\E4\0B}W\ED\17-\13\CF4d\18\BB\FD\C7\13\DDN\\\AD\E8]\F8\17\03B}\DE)\FD\B9X\94b\B3\D8bu\F6\1DBI\0E+:>t\B7\9C\1Dp\C7]\09\BA\12\92\DB\D1\B5\C8MQ\E5\03%L9\B5\8Bh\17wRF\E3:\A1\A5\DED.\9F\87\A2\AEB\1D\8A\F3\0B\CE\C4\84'\0B\EB|\C3\94%\ADI\12m\F0\8E\01\F6e\F1\CD%\\\F4\F9n\18\DC\16\88\AC\F2\81s\BFmA/sq\B8\8A\1E\93\1C\D5\AB71\A8\97\E4\88\FD\E7F\B3\16\F3\DB\11\CA\96\85=\92\BD\1D\EB\FC\A1\18`\DC\EFR\16}\FC\E6\CC\F6,\E5%|\CA\1Ex\D3\AB\E7\1B\CE]\10@\1A<\AF\97\8D>\13+d\CBp\11Bu\14\D0 \0B\9B\FD0\0E\D85=\FE\CC\15\92\92\19\04\E9\CD\01=\BD\11N\83\CC=@\1B\9B\FB\8F\A2\B1 !F\16\CB\10\D2\9F&\08\11\82\FA3\0B\DEh\A9\D7\DB\FD\94\C6G0J\15#\F9\00\8E\15\C3\93\CDR=:\B8Y\BC\9C\1A\B6\9B\C0x\EDY|\C0Sf$\13\B8\F5\A1\10\A3\C2\F0\D6hp\9B\B0\E8\7F\ED\17&s\CA\14L\F3\AC\0C\83L\C2\DC\E2\DF\E8\9D\EF\0F\FD\19\0F\18\EC\E7\D1o\F9\C9\ED\8B\B1\C2\F5)>\10\13\1E\E7a\C6\CBw<\E9\EE]3s\B4M\14\98\E5`\FA\B7\BE\95\8B\A3j5\00\90!a\19\FE\1E\F9\F8e.{nL\C5B\00\F4i\B9\1F_\B3\9B\BB\FF\FC\0C\C5O\BB)\808\E2\D3\137\A0\82\AA?<P\B6#*4\A0\C6\DA\C8\18DH#\95OK\E4\A3\AC4AHx\11\FB\1E+\0D6\BD\11\AFn\E6\EB\C0(-\EB\EA\\\13u\90\83,\D6Z\0A\E0&\F1r\F8\A5%4\18\93t\A4\B7\8B\F1\0C\98p\AD\8Fv\0F/A\1E\DC\C8\C6R\F7\16\08_f\CC\19\AAi\BD\E8\12\13{x'\B5\1C\CA\F6\7F?\A0\14\C4\EC\A2\17\D7\99Vq\E2\A3|\F4_O\C8\19\F5\A7\8B\1D& \D6\86m\E6\CD\F8\9B1\1D0\F9Hw\120\A8\8B\E8\08`\01\F7\02~$|7\1B\15\17<\92\AE\22\0B\B8\C1\B4\83\9D-[\05b\DA\1Ce\1B\AD\F5\06\13\F9Pr\82\FCXC}\08\12?b\18\B3\C8W7\E5\0E\A3;/\94\9C\8A\16\CFz\DE\DF\BA-\85\9E\D2\8B\0A;\B9C-\1C\C1\0C\EB\CB\94<\13\A3c\97\E6\C4SJ\9C\11\F1\CF\E5\FE\B9\0B\D8\8B<= \B6\E8\\\03\16\EEC\9F~\A8\0E\CE\AE\8BL\A8\E3\224\84\1Bu\8A#O)\C9@M\D7/I\CE\95\A02\11\12m\EC\A2s\FB\90 \CD{\DBA\BBH\7F\15V\88\A7\8BP:\B5h\C0ZR\12\EA\1A\DF\1A6\B5HWrDqA\B8xsK\D2p\CB\10\83\E2\1A\ED\8E\95\CDQ\E6VP\DE\06M\FE\14$\9Ba\A8\F2\FA@\E6\9Fl\E4\95H\E0=\1A\F7\00=\A9\D7\9C\E8\EF\E3\C3\AE]-\ACf\104A\8C\93\0D\C4\E2\EB\DCt\1A\B58W\80\14\81Qo\F8\10u\DB&\14\12a\E2\06m\A0\19\F1\92E\9B*)I\98L\AB|M$D\04\10\AD\F7\16Bus[\BE\1F\D6\DB`-U\05\14\98\B5\9C\92RP\F2\AD\A7\CB\12\B9x\AA\06\19\FF\E2C7g\E4n\99\91~W\E7\16UH\1F\DFm\8A\82\C0N\E5\FF\1A\AF\96P.5\8D\13W\09-\A3p\A2\DE\BF\E1Z\BC\E4y\82p\18\ADK\F8\CB\0CK\D6/\9Aq\EB]\18\A3\8C\1EL/{\FF\E7\EE\E5]\00'\B3:\EF\E5\17\13\1F\FBY\FF\A1j_u\C0\F0_\09k\DF\DD\17\E7y0\7FJE\B7\92\F0\EC\B7\CBEW\D5\1D0L~\8FN\8B\B2[\16\F4R\9F\8BV\A5\12<\DF]3\22.\9F\F2\1B\B1'\87.\ACN\17\0BW5\C0\AA\F9F\EFb\9D\F1(:W\22\1DgV!\B8\0A\\\8C\D5]\02\97Y\84v5\12\01\AC)f\0Ds\EFJ\F5\C2\FCo%\D4\C2\16\01\17\B4\BF\D0O\AB\9D\B2\F3\FB\CB.\89s\1C`\8E\D0w\E2\11\8B\A2Ox}?\BD5\C8\11\F9\B1\C4\15[\D6-\8Bc\D6\\\8F,C:\16w\DE5\DB\F1K\F9m\FC\0B4\B3\F7\D3\C8\1B\0A\AB\01)w\CF\BB\C4}\87\00\D0z\84]\11\CD\15B\F3T\C3\EA5]\A9\00\84\99\E5\B4\15@\9B\120*te\83\B4\D3\00\E5\FF\1E\22\1B\08\A1\0B^\9Ah\1F\D2P\84 \EF_S\F5\10J\89\8E\F5\C0B\A7\06e\A5\E8\EA7\A82\15\9D+\F22q\13QH\BE\CE\A2\E5ER\7F\1AB[\D7\BF&\AC2\ED6\C1\85\AFk\93\8F\10\122\CDo0W\7F\A8\841g\9BFx\B3\14\97~\C0\8B\FC,\9F\D2\E5\FD@BXV\E0\19\1EOX\D7\1D|\A3\A3\AF\9Eh)\F75,\10\E6b.M%[\8C\8C[\C6\C2\F3tC7\14\9F\FBy\A0\EEq\AFo\F2w\B30R\14E\19\87z\98HjN\9B\0B\EFU\E0\BCfY\96\1F\94L_m\02\11Ag\B55\0C6\E0\F7\BD\13\BA\1F\B7\08CU\11\C1\22C\8FC\D8u\AD\18\A8\E7\E4\CA\93\AAUq\EB\13sTN\D3\D8\1E\C9\10\CF^\9C\8A\D5&s\EC\C7\F4\10\84G\13\FB\D4\82vC\ED\8A\F0\8F\E7\F91\15e\19\18:\8A#T\94\A8\AD\ECsax~Z\BE\1F\1Ed6\96\B4\\\89\ECs\E8<\0B\8F\F8\D6\D3\12\FD\C3\BB\E1\B3\AB\E7\90\22\0C\CE\B2\B6\CC\88\17\FD\B4*\DA\A0\96!5+\8F\81_\E4\FFj\1D\1E\B1Z\88$\FE4\01{\F9\B0\BB\EE\DFb\12e]q\AA\AD=\82\C1\D97\9Dj\EA\97\FB\16\BF\B4\0D\15\19\CD\E21\D0\85D\05\E5}\BA\1C\F7\90(\AD/\C0-\1F\A2\D3J#\AF\8E\F4\115\B5r\98;0\F9\A6\8A\88\1D\ECZ\B2q\16\82b\8F~J|\B7P\AD\EA$\A7\F1\1E\0E\1C\91\9D\19\8F\AE\ADrR\AC\12w\08W\D3\88\11\F6\04\E02\1AY\0FgW\D7\94\CA,\08\EB\153\06\98\BF`/\D3@-\0D:\FD7\CAe\1B\E0\03\BFw\9C\FD\83H<HD\FEb\9E\1F\11\D8\C4\AE\95\03\FD\A4ZKZ\D5\BD\FB\85g\15\0Ev\1A{D<N1\DE\B0J\ADzg\C1\1A\C9\89\F0\CC\AA\E5\D0\DE\8A\AEN\AC\AC\E0\B8\10;\AC,\80\15\1F\85\96-Zb\D7\D7\18\E7\14J\D77\E0\DAf&\FC\B8\F0:\CD\0D\DF \1A\8E\E6\22\CCH\00\98\9Ds\D6D\A0h\8BT\102\A0+\FFZ\00\FE\84\10\0CV\C8B\AEi\14>\88\F6\BEq\80=\A6\14\8Fkz\D3\19\84\19N*\B4.\8E\E0\CC\CF\D9r\06YH \E5\1Fp\9A0\DDX\0C\E0!\C8\07\A47-4\EF\13\0D\C1|\14o\0FX*\BA\09\8D\858\01\EB\18P\F1\9B\D9J\13\EE\B4(L\F0\A6\86\C1%\1F\D2v\01\C8\0E\CC\14q\99/V(\F4\98w\13\86\D4\01z\12\FFY\CD\7F\BBk21\7FU\18\A8I\82\18\D7~\B0\C0_\AA\06\7F\FD\DEj\1E\09nQoFOn\D8{*do^\CB\02\13\8B\C9%\0B\18\E3\89\CE\1A5=\0B6~\C3\17\EE;\EF\0D\DE[,\82a\82\0C\8E\C3]\B4\1Du\85\B5\C8j\B9[\F1|\D1\C78\9A\BA\90\12\D2\E6\E2z\C5\A7\B2-\DC\C5\F9\C6@\E94\17\86\A0\9B\D9\B6Q\1F9S7\B8\F8\90#\02\1DTD\01H\12\93\B3\03\94\22s\9B:V!\12i\95\01\DA\D6w\A0\049\EBOB\C9\AB\A9\16\C3\FA\81\90\CC\95\C8E\07\E6\E3\92\BB\16T\1C\BA<Q\DA\9F]\9D\8B\C4o\CE;5\8E\B4\11\E8\8B\E5\D0\07\B5\84\AE\B5\0B\C2\8A\C2\B1!\16\E3\EE\1E\C5I\E2%\1A\A3\8Er-3\1E\AA\1BMU3\1Bn\ADW\F0%\99g\FC\DFRJ\11\A1*\00\A2\C9\98mlo\7F\81\FB\97\E7\9C\15I5\80\0A\FC\FE\88GK\DFa\FA}!\04\1BN!\90\86]\9F\B5\0C\8F+}\BC\EE\94\E2\10\A1)4\E84\07\E3\CFrv\9Ck*:\1B\15\0A4A\22\02\C9\DB\83\0F\94\83\06\B5\08b\1A\86\C0hU\A1]i\B2\89<\12$qE}\10\A7\F0\C2\AA\09\B5\03\1F\AC\CB\16m\CD\96\9C\14\D1\ACs\15L\A2\C4&\97~\\\C8\80\BC\C3\19\03Lh\8Do\E5:x\1E\CF9}\D0U\1A\10\03_\C2p\CB\9EI\16\E6B\88\9CD\EB \14\C4\F6\F2L~\06\DC\9B\9FS\AA\C3\15&)\19v\B4/\E0\1D\08\D3\82\87\E8\944\9Bos\1F\C9\D0\1D\AC\12\E5\C3\B1T\11\DD\00\C1%\A8\13\FCD%WW\DE4\DE\A9U\14A1/\92\18;\96\EE,\ED\15\C2U\14kY\91\FD\BA\B6\1E\E5\1D\15<\B4M\99\B5\EC\E2\D7z\DE42\13^e\1AK!\A1\FF\E2\A7\DB\8D\19\16\C2\FE\17\B6\FE\E0\9Di\89\BF\DB\91R\F1\9F\9Br\FE\1D1\9F\AC\02\E2\B5W)\9B\D3\F6C\A1\07\BF\12\FE\C6W\83Z\A3\AD\F3\81\88\F4\94\89\C9n\17\BD\B8-$1\0C\99p\A2\AA1\FA\EB{J\1Dv\93\9C\B6\9E\A7_\86\A5\0A_|s\8DN\12T\B8Cd\86\91\F7\E7N\CDv[\D00\E2\16i\A6T\FD\E7u\F5\A1\A2\80Tr\04\BD\9A\1C\01\E8T\FE\B0i9\A5e\D0t\C7\22\B6\E0\11\02\22\EA=\1D\C4\87\0E\7F\04Ry\AB\E3X\16\82\AAd\8D$\B5)\D2\9E\85\A6W\96\1C\EF\1B\91\EA^\D86\11ZC\83\13\C8\F6\DDqu\116\A5v\8E\84\950\14d\18ztU\CE\D2\15\83N\14\B2\E5\BA<\19}\9E\98\D1\EA\81G\1B\12\B1L\8F\CF\F4\C5/\0Ec\FF\C22\B1\0C\11V\DD\1Fs\03r\B7\BB\D1;\BFs\7F\DDO\15\AC\D4\E7O\84N\A5*\C6\0A\AFP\DF\D4\A3\1A\EB\E4\F0\B1\12Q\A7\DA\BBfm\92\0Be\A6\10&\1Em^W%Q\D1j\C0\08wN\FE\CF\14\B0e\086\ADn\A5\85\85\F0\CA\14\E2\FD\03\1A\8E?\C5A,e\87sS\D6\FEL\AD~B\10q\8F6Rw>iP\E8\8B>\A0X\1ES\14N3\C4&\15\8E\83d\E2.N\C8\EE\E5g\19\22@up\9Aq\A4\FD\9A\BAazj\DF\C1\1F\15HI\86\00\C7\86\DE\A0\14}\8C\A2+\D9\13\1A\9A\DB\A7\C0x(\16\C9Y\9C/\8Bv\CF\18\A1\80\D2\D1\F0\96\B2[;p\83\FB-T\03\1Fd\90#\83V\9EO\19%&2\BD\9C\14b\13~t\EC#\EC\85\A3_\AE\AF~\EC\C3\99:\18\9D\91\E7,gg\8C\F7\99[\9E\E74@I\1E\02\BB\10|\A0\C0\B7:@\F9\C2\10!\C8\ED\12\C3\E9\14\9B\C8\B0eI\90\B7\F3T):\A9\173$\DA\C1\FA\1C\BF[t\A50\AA\B3\88\93\1D\A0V(\B9\1CrW\B9hg^Jp5|\12Hlr\E7\A3N\AD\E7B\01\F6\\\CCB\1B\17Z\07O\E1L\A2\98\A1\93\813t\7F\13\E2\1C\98d\D1\0Cpe\FFD\FC0\A0\A8/L\0D\12\BE\BD\05\10\CC>?V;=\C8\92;\9F\90\16.-\07\14\7F\0E\CF+\8ALzw\0A\C74\1C=|\84l\0Fia[\D6o\AC\8Af\FC\A0\11L\9B\A5GS\C39\F2\CB\8BW-\80;\09\16\1F\02\8F\19(4\C8\EE\BEn\AD8`\8A\8B\1BSa\F9\0F\99 =U7el#|67\11\A8\B9\F7S\BFh\8C*\85~G,\1B\04\85\15\12\A8\F5(\EF\82/u&^Y\F7!E\E6\1A\0B\89\99y\D5\B1=\09\D8\DA\97:5\EB\CF\10N\EB\FF\D7J\1E\8D\0B\8E\D1=\89\02\E6\03\15\22\E6\FF\8D\DDep\8E\F1E\8D+\83\DFD\1A\D5\EF\BFx\AA?\06\F9\B6K8\FB\B1\0Bk\10\CA\EB\EF\16\95\CFG\B7\A4^\06z\9E\CE\85\14\BD\E6\AB\\z\C3\19\E5M\F6\87\18FB\A7\196p\EBy,\1A0\AF\F0\F9T\CFk\89\08\10CLf\98\B7 \FC\DAl8*\C3\C6\AB\0A\14T\DF\7F~\E5(\BB\11\88\C6\F4s\B8V\0D\19*\D7\1F\DE\1E\F3)\16*\F8\F1\90f\ACP\1Fz\E6\D3J\F37\DAM\1A;\97\1A\C0k\92\13\19\E0\88\1D\F0\C5P\E1\E0\09=!\B0\06w\18\1F\18\EB$l\F7\A4\19YL\8C)\\\C8\94\1E\13\EF\12\97\A3\1A\07\B0\B7\AF\F7\999\FD\1C\13\D8\AA\D7|L\E1\08\9C\A5\9Bu\00\88<\E4\17\8E\95\0D\9C\9F\19\0B\03\8F\02\93\00\AAK\DD\1Dy}\88\C1\03\F0\E6a\99\E1[@JO\AA\12\D7\9C\EA\B1\04\AC`\BA\FF\D9r\D0\1C\E3T\17\0DDe\DE\05\D7\F8\A8\7F\90\8F\04\E4\1B*\1D\88J\FF\AAc\86\9B\C9O\BA\D9\82nQ:\12*\1D\BF\95\FCg\02\BC\E3(\90#\CA\E5\C8\16t\E4.\BB\FB\01\03\AB\1C3t\AC<\1F{\1C\C9N\FDT=\E1\E1\EA\F1\9F\C8\EB\85\F3\CC\11{\A2<\AA\8CY\9Ae\EE\C7\BAfg0@\16\1A\CB\CB\D4\EF\EF\00\FF\E9yi@\81<\D0\1B\F0^\FF\E4\F5\95`?2\ECA\C8\D0%b\11\AC6?^s\BB8\CF>gR\FAD\AF\BA\15W\04\CF5P\EA\06\83\0E\01\E78\16[)\1B\B6b\A1!rR\E4\11\A9`\90\E3\ED\D8\F9\10d\BB\09\AA\0Eg]V\D3xt\\)O8\15=*\8CT\D2\C0\F4+\08\97\91\B3\F3b\86\1Af\9A\D7t\83\F8x\1Be\FE:P\D8\FD\93\10\00\81\0DR\A46Wb\FE\BDIdN\FD\B8\14@\E1\90fM\04\ED\FA}-\\\FD\A1<\E7\19\C8\8C\1A`\B0\22\D4\BCn\9CY>\E5\850\10\FA/!x\\+\09l\8A\03\F0\8D^\A7<\14\F8{)\963v\0B\07m\04l16\D1K\19\F6\DA\B3{\C0S\CEH\88\05\C7\BD\83\C5\9E\1F\DAhPMX\F4\80-uc\9CVr;\C3\13\10\83\A4`n1\E1xR|C\ECN\0A\B4\18", align 8
@_RNvNtCsfJNPX9h41mg_3ryu14d2s_full_table21DOUBLE_POW5_INV_SPLIT = internal unnamed_addr constant [5472 x i8] c"\01\00\00\00\00\00\00\00\00\00\00\00\00\00\00 \9A\99\99\99\99\99\99\99\99\99\99\99\99\99\99\19\15\AEG\E1z\14\AEG\E1z\14\AEG\E1z\14\DE$\06\81\95C\8Bl\E7\FB\A9\F1\D2Mb\10\96\D4\09h\22lxz\A5,C\1C\EB\E26\1A\ABCn\86\1B\F0\F9a\84\F0h\E3\88\B5\F8\14\226X8I\F3\C7\B46\8D\ED\B5\A0\F7\C6\10j#\8D\C0\0ER\A6\87WH\AF\BC\9A\F2\D7\1A\88O\D7f\A5A\B8\9F\DF9\8C0\E2\8Ey\15\07\A6\12\1FQ\01-\E6\B2\94\D6&\E8\0B.\11\A4\09Q\CB\81h\AE\D6\B7\BA\BD\D7\D9\DF|\1B\EA:\A7\A24\ED\F1\DE_\95dy\E1\7F\FD\15\BB\C8\85\E8\F6\F0'\7F\19\11\EA-\81\99\97\11\F8\0D\D6@\BE\B4\0Ce\C2\81vIh\C2%\1C\93q\DE3\98\90p\EA\01\9B+\A1\86\9B\84\16C\C1~)\E0\A6\F3!\9B\15V\E7\9E\AF\03\12751\0F\CD\D7\85i+\BC\89\D8\97\B2\D2\1C\F9\90Z?\D7\DF7!\89\96\D4FF\F5\0E\17\FAsH\CCE\E6_\E7\A0\ABC\D2\D1]r\12]\86\0Dz<=f\A54\AC\D2\B6O\C9\83\1D\B1\9E\D7\94c\97\1EQ]#B\92\0C\A1\9C\17\C1Ky\DD\82\DF~\DA}O\9B\0E\0A\B4\E3\12h\AC[b\D1\98d*\96\E5^\17\10 9\1ES\F0\E2\81\A7\E0\B6\EEDQ\B2\12@\B3-\18\A9&O\CERM\92Xj\A7\8E\A8\99\C2W\13A\A4~\B0\B7{P'\AA\D8}\DA\F5\D0\F2\1E4Pe\C0_\C9\A6R\BB\13\CB\AE\C4@\C2\18\90\A6\EA\99L\D4\EB\0E\C9\0F<\F26\9A\CE\13\80\0A\11\C3\ADSy\B1A\19`P\BE\F6\B0\1Fg\08t\02\8B\DC-\C1gG\B3\A6\FE^Z\19R\A0)5o\B0$4\86\9F\C2\EB\FEKH\14\DB\19\EE\90\F2Y\1D\90\9E\7Fh\89e\D69\10_)\B0\B4\1D\C3\FBL\972\A7\A8\D5#\F6\19\B2\BAY]\B15\96=\AC[\1F\BAw\E9\C4\14(b\E1}'^\AB\97VIL\FB\92\87\9D\10\0D\9Dh\C9\D8\C9\AB\F2\F0\0Ez\F8\B7\A5\95\1A>\17\BA:z\A1\BC[Zr.-\93\84D\15\CBE\FB.\C8\1A\CA\AF\AE\8E\8B\8AB\9D\03\11E\09\92\B1\A6\F7\DC\B2J\E4x\AA\9D\FB8\1B\04\A1A\C1\EB\92}\F5n\83-U\B1/\C7\15\03\B4gg\89ud\C4X\9CWw'&l\11\D2\EC\A5\D8\DB\88mm\F4\C6%\F2\0B=\E0\1B\DB#\EBF\16\07\BE\8A\C38\1E(\A3\FDL\16I\B6U\D2\11l\FEn\9C`KSO1\D7\11\0E\8A\EF\B6O\13\97\B1`gE\85\18\82\8B\1C\A5\A1\BF\F8r\0F\AC'\1A\B9j7\AD\01\D6\16\1EN\99`\C2rV\B9\E1`U,$\CED\12\95\16\C2\CD\03\1EW\F55\CE\BB\13m\E3:\1D\AB\AB\01\0B\03\18\AC*+\D8/v\8AOb\17V\894o\02\E0\BC\BBU\13\F3\C4n\0C\B5\12\89\A8\ED\B1\D0\CC\C7\92\EF\1E\B8\D4Jz\EE\1D\07\BAW\8E@\0A\D3\DB\F2K\93\10o\FB\F1\17\06\C8\DFq\00\D5\A8|\F5o\0F\DAX\FC'\13\D6\0Cf\E93\BB\A7\FA\BBL\B2)\8E`\A6\1E\11\D7\84\87)\FCR\95\C9\A3\8ET\0B\1A\85\18\0E\AC\D0\D2\BA\C9\A8\AA\07\83\D8vo\AE\9D\13\E3\AC\1A\1E^\DC\DA\DD\A5\D1\C0W\B2\B0b\1FO\8AHKK\B0H~QA\9A\AC\8E\C0\1B\19\D9\A1\D3\D5\D5Ym\CB\DA\CD\E1V\A53\16\14{\81\DCw\11{W<\E2\D7\E7\AB\EA\C2\11\10*\CF`Y\82^\F2\C66&\A6\AC\AA\04\B6\19\BB\A5\80Gh\18\F5k\C5Q\EBVU\9D\91\14\96\84\00\06\EDy*#\D1\A7\22\DF\DD}t\10V\074\A3\E1\8F\DD\D1\81\0C\D11\96\FCS\1AEl\F6\E8\1As\E4\A74=\A7\F4D\FD\0F\15\9EV\F8S\E2(\1DS]\97R]j\97\D9\10bW\8D\B9\03\DBa\EB.\F2P\95\10\BF\F5\1A\E8E\A4\C7\CFHN\BCX[\DA\DD\A6e\91\15 k\83l\D9\D3qc\AD\E2\E1\17\1F\1EA\11\CD\11\9F\AD(\86\1C\9FH\04\03\F3dc\9B\1B\0B\DB\18\BESk\B0\E5\06\9D5\8F\1D\E9\15\16\A2\15G\CB\0F\89\F3\EAkJ\91r\E4 \AB\117\BCqxL\DB\B8DF\AA\1B\84m\01E\1C_c\C1\C6\D6\15\C7\03\05UI\03\BE\9A\9D\16\19\E9\CDkE\DE867w\07i\FE\AE\17\12\C1A\16F\A2c\C1VXXr\0E\97\B1\F2\1C\CEg\AB\D1\81\1C\01\DFy\13\F5q\12\8E(\17\A5\ECUA\CE\164\7Fa\DC\90\C1\0E\D8\86\12nGV5}$ e\02\C7\E7h\E4\8C\A4\1D%9x\F70\1D\80\EA\01l\B9 \1D\D7\B6\17\84\FA,\F9\F3\B0\99\BB4#aM\17\AC\F8\129\F7G(SN\\_T8h\15\F2\ACZ\1E.,\D3\B9u\0B}\7FC`SD[\8AH\18X#\DC\C7\F7\D50\99\CF\19\A96|;m\13&\D2\F9r\8C\89\B4\8E\B2\8F\0E\F1\F9+\15\1F\B8A.\8F\A3\07*r(\A6\0B\F4\C7\BC\DD\18\FA\9A\BE\A5O9\BB\C1\86\1E\D6\\\06\97\E4\13\F6\F70\09\19\C2^\9C\D70\F0\FA\D6$\D4\1F\F8_Z\07\14h\E5Iy\8D&/\DF\83v\19`\E6\E1\05\10 Qn\C7\0AR\BF\E5\CF^\14\1A\85\81\D1\0C\80\DA\F1\05o\0E\99\84\D9K\10\F5\D4h\82\14\00\C4O\D6\E4\E3\F4\A0\F5\12\1A+w\ED\01\AA\99i\D9\11\B7\1C\F7\B3\F7\DB\14\BC\C5\8A\01\88\14\EE\ADt\92\B0\C5\\\F9\AF\10,\09\DEh\A6\ED|IT\EA\80o\94(\B3\1A$\D4\E4S\B8W\CA:\10U\9A\BFv \\\15\83v\1DC`y;bs\AA\AE\FF^\80\16\11\9E\BD\C8\D1f\F5+\9D\B8\10\B12\CB3W\1B\7FdmAR\C4\BC}`\0D\F4\8E\A2\\\DF\15\CC\B6\8Ag\DBi\FD\CA\E6=\C3\D8N}\7F\11\DF\8Awr\C5\0F/\AB\D7/\05\8E\E4.\FF\1B\80\D5\92[\04s\F2\88\AC\8Cj>\1D\BFe\16fDBI\D0(\F5\D3V=U\98J\FF\EA\11\A3\A0\03BMA\88\B9W\95\BB\F3\102\AB\1C\E9\E6\02h\D7\CD9ayw\FC\C2@[\EF\16TR\02 yqa\E7-\F9\C9h\CD\15Y\12\86P\9D\99\8E\B5h\A5|[vt\15V[\1D\D2\A6J\E1>\91 Q\FD\15\C5\F6\DDD|\17\0E\1F\A2\1A\FF@M\A7\CAD7\92\B1\D0\C9\12J\CBi\F7d\CE\AE\0B\11nXPO\B4\0F\1E;<\EE\C5P\D8\8B<\A7\F1ys?\90\0C\18\C9\C9\F17\DAy\09\CA\85\F4\C7\C22@=\13\DBB\E9\BF\F6\C2\A8\A9o\BA\0C\9E\B7f\C8\1E\E3\9B\BA\CC+\CFS!&\95p~,R\A0\18\82I\95p\89r\A9\1A\B8\DD&e\F0t\B3\13\9Du\88\1A\0F\84u\F7\8C/>\08\E7\87\85\1F\17^\A0{r6\91_\0A&\98\06\EC\9F7\19\DF\E4\19\96[\F8@\19\D5\84F\05\F0\7F,\14L\EAG\AB\AF\C6\00\E1\107\05\D1\8C\99#\10G\DD?EL\A4g\CE\E7$\D5\B4G\8F\D2\19\06\B1\CC\9D\D6\E9R\D8\1F\B7\DD\C3\9Fr\A8\148'\0AKE\EE\DBy\19,~i\19\C2\86\10Y\D8\A9\11\A2\E3_)\8FF0\0F\8F6q\1Az\13\BB\A7\81\1C\B3\BA\A5k\F3\D8\D8^'\15/\A9\95\EC\9A\E3(bQ\89\8F\AD\E0K\EC\10\17u\EF\E0\F78\0E\9D\E8\0EL\AF\9A\AC\13\1By*Y\1A\93-\D8\B0Sr\D6%\E2V\A9\15.UGH\0F\BEy\8D\DC\C1\DE\B7\81ET\11|\BB\0B\DA~\96\8F\15\94\9C\97\8C\CF\08\BA\1B\97/\D6\14\FF\11\A6wv\B0\DF\D6rm.\16y\8C\DEC\FF\A7Q\F9\91\F3\B2x\F5\BD\BE\11\8E\AD\FD\D2\FE?\1C\C2\1C\EC\B7Z\22cd\1C\D8\8AdB23\B0\01\17\F0_\15\B5\B5\B6\16F\A2\83\9B\8E\C2Y\01\ACY\E6\DD\90\C4+\12\A3\039_\17\04\F6\CE\AC\C2\A3\FC\1A\D4\12\1D\83\9C-L\ACi^r\BD\9B\1C\CAHCB\17\9C\E3\8A\D6\89T\18\F5\FD\E2\16\08\07i\9B\12\C6\05\AB\BD\0FT\8D\EE/k\F1\0C\D8t\C5\1D\05k\22\FErv\D7\BE\8C\22\C1pF*\D1\17\04\BCN\CB(\C5\12\FF\D6Ng\8Dk\BB\0D\13\A0\F9}xt;Q\CB$~\D8{\12_|\1EMa\FE\F9)\C9\0D\09\B71\AD\FCA\7Fc\18\0A\81\CB\94!\D4\D7\A0\C5'$\CA4\CC\82\13w\CExT\CF\B9\BFgo\0CmC!\AD7\1F\F9q-\DD\A5\94\CC\1FYp\8A\CFMW\F9\18\C7\F4\BD}Q\DD\D6\7Fz\F3\A1?>\AC\FA\13\0B\EE/\C9\E8.\BE\FF\C3\B8\9C2\FDy\F7\1F\D6$\F3\A0 \BF1f6\FA\16\C2\FD\C7\92\19x\1D\\\1A\1A\CC'\B8^\FB\AB\01\CBlu\14`\E4|{\AE\09S\93\18\C9\BCg\A2\F0]\10\99\A0\94\C5\B0B\EB\1E\F4t\94?j\E7/\1A\E1\E6v\04'\02\89\E5\\*\DD2\88\1F\F3\14\E7\EB+\9D\85\CE\A0\B7\B0\EE\B0(\A0\7F\C2\10\D8\DF\DFaoJ\01Y\B4JNt3\CC\D0\1A\ADL\E6\E7%\D5\CD\E0)\A2>\90\8F\D6s\15\F1\D6Q\86QwqM\EE\B4\CB\D9rx)\11\E8W\E9\D6\E8\BE\E8{\B0T\AC\8F\84\8Du\1B \13!\DFS2\BA\FCY\DD\89\0Cj\A4\F7\15\80B\E7\18C(\C8c\AEJnp\EE\E9\92\11fj\D8'8\0D\0D\06\17\11J\1A\17C\1E\1C\EB!\AD\EC,\A4=k\12tn{\12\9C~\16VNW\BD\F0\1C\FE\88\DB\\X\FCA\E3\FE\11#J%b\B4\94\96A_a\8D`6\05\CB\1C\E9\D4\1D\E8)\AA\ABg\7F\E7=M\F8\D0\08\17\87\DD\17 \BB!V\B92\B9d\D7\F9sm\12\A5\95\8Cf+i#\C2\EA\C1:\F2\C2\EC{\1D\1D\DE\D6\1E\89\BA\82\CE\BB4b[\02W\96\17\18\18\DFK\07b5\A5\FC\F6\B4\E2\01\AC\DE\12Y\F3dy\D8\9C\88;\94\F1\8776\131\1E\E1\F5\83\C7FJm\FC\DCZ\06\C6\91B'\18\1A+\03\06\9FnW0\17\AF\9E\D1\A7\9BR\13\90\DE\D1<\CB}%\1A%\181\1C\A6\92\EA\1E@\E5\A70<\FE\1DH\B7yZ\E3\84\A8\BB\18\00Q\86\C0\C91K\D3\C5\C7\AE\82\9DS\C9\13\CD\B4\A3\CDB\E9\11R\09\A6\17\D1\C8\85\A8\1F\A4\90\1C>\02!\DBt\07\B8\DF@:\9ES\19P\0DJ\CB\01\B4\15\F7\05`\19g\FB\E4B\14\A7\0A\08\09\9B)\DE\F87\B3zR\FC\835\10\D7\DD\0C\A8\91B0\8EY\B8*\B7\939\EF\19\13K\0A \0E\02\8D>\E1\F9\EE\F8Ba\BF\14\0F<\08\80>\9B=e\E7\C7X\FA\9B\1A\99\10\E4,\0D\00d\F8\C8n\A5\0C\8E\90\F9\90\8E\1A\EA#\A4\99\E9\F9\D3\8B\B7\A3q@a\DA>\15\BB\1CP\E1\BA\94\A9<\F9\82\F4\99\1A\15\FF\10+a\B3\9B\C4\BAu\C7\8E\D1 \C3]\BB1\1B\89\1A)\16j\95\C4\D2\0B\0E\E7h\B1b\C1\15\A1{\BA\11\88w\D0\DBo>\1F\87'\82g\11\9B\92]\1C@\BF\80,\E6c\98>?\D0\D8\1BIu\E4I3\CC3\BDQ\B6Fe\FF\0CG\16\D4]Pn\8F\D6\8F\CA\A7^\05Q\CCp\D2\11S\C9\B3\E3KW\19D\D9\FDnN\AD\E7\83\1C\A9:\F6\82\09yG\03\E1\97%\A5\8A\EC\CF\16\BA\FB\C4h\D4`l\CF\80y\84\EAn\F0?\12*\F9\07\0E\874z\E5\9A\F5\D3\10K\1A3\1D\22\949\0Bl\90.Q\E2*C\DA\08\15\\\17\B5\A9\C7\D5\BC\A6\8B\DA\81U\CF\E1\D3\10\B0\12\87\0F\D9\22.q\DF\90\9CU\E5\02S\81\E6\1Dl\0C\14O\8BZL\DA\16\DE\1D\CF\A8\9A\EB\17\8A\A3\A9\A5\A2{\A3\AEx~\B1\A5 \E2\22\13\A9\05\A9\A2j_\D2}'\97\B5\A2\9A6\9E\1ET\D1 \82\88\7F\DB\97\1F\AC\F7N\15\92~\18w\A7\80\CE\06f|yL#\C6\D8\DDt\98\13\F1\0B\01\E4\0Ap-\8F\ADk\A3'\96TZ\1FZ\D6\00P\A2Y$\0C\BE\EF\B5\1Fx\10\15\19\15E\9A\D9\81\14\1Dp\FE\F2\F7\B2\F9\D9\10\14wj{\14\9BC\17\C0\FE[\C6(.{\0D\10\F2C\92\ED\C4\05\F2\CC\CA,\0A\0E}+\AF\19\C2\9C\0E\BE\D07[\0Ao\BD\A1q\CA\22\8C\14\CE\E3>\CBs\F9H\08\8C\97\B4'\D5\1Bp\10\B0\9Fdx\EC[\0E\DA\AC%T\0CU\F9L\1A\C0\7FP`\F0\AF>{\BD\B7\A9\D6\10a\0A\153f@\80\F3\BF\CB\95\97,\EE\DEs\1A\D5\10Rp\CDfRf\AC\EFXG\B0d\B9\90\EE\1A\DBY\A4\B8\0E\85#&Gl\F3\B6\FA\A6\8B\15I\AE\B6\93\D8\D0\82\1El#)_\95\85<\11u\B0\8A\1F\F4\1A\9E\FD\AC8\A8\FE\EE\08\94\1B\F7Y\D5\B2)\AF\B1\97\BD\93\86\98%\07\10\16,{w\F5\BA%\8E\AC\97\DC\9E\13\1El\A6\11\13\C5X\22+\09}z\BF-\FE\B8\C9y=\1Cvj\ADN\EF\A0\FDa\CCW\CB`\A1\94\97\16\C5\EE\BD\0BY\1A\FE\E7\09\13\09\E7M\DD\12\12:\B1\FCE[]c\A6\DC\84\0E\D8\AF\FB\EA\1C\C8\8D0k\AFJ\1C\85\B0\D0>\13\F3b\22\17\D4\D7&\BC\F2n\E3\D0&\DA\CBu\C2\E8\81\12\86\8C\A4\C6\EA\17\9F\B4\D7)F\89\9D\A7\9C\1DkpP\05\EF\DF\18*F\EE\04\A1\17\86\B0\17\89\F3\D9\9D%\B3\E0Tk\8B\9DMy\9E\F3\12tR\F6bo\EB\CD\87xE/|(\97R\1E]\A8^\82\BF\22\0B\D3\C6j\BF\C9\86\12B\18\E4\B9Kh\CC\1B<\0F\9F\88\FF:\D2\0Eh\13m)y@z,`\18\98\DA\98\91\83\E4\0C\1F$!\943\C8V\B3F\13\E2\13\0E6\1D\D7\18\B6MC)\A0x\8F8\DC\B4\DC\A4\91J\DF\13\8A\AFk\A8f'\7FZ`!a\A1\82\AA\CB\1F\A2\BF\EF\B9\EB\852\15M\B4M\B4\9B\BBo\19N\99\8Ca\89\D1\8E\AA=\90\A4\F6\E2bY\14\0C\E1\D6\1A\A1\A7\D8\EE\CA\D9\B6+O\82G\10E\9B$^\9Br'~\11\F6\8A\DF\B1\03\0C\1A\04I\1D\18I\F5\85\FE\0D\F8;\19[i\D6\14\D0\A0J\13\D4]\9E\CB\A4\F9/\14|\87\AB\10M\01\11RS\C9c\DF:\\\E6\B9\F9\0B\AC\1Aqg\DAt\0F\A1\1C\19/\B0\1E\FB\FAoV\15\C1RH*\D9\80\B0\AD%\C0K//\F3\11\114Q\0D\AA\8E4\E7\15\09\CD\12\B2~\EBO\1B\C4\0Dq\EE>]\1F\ABm\0A\0F(2\89\D9\15\9D\A4\8D\8Be\17\19\BCW\08\0C (\D4z\11\94:|\12<\F2\F4,Y\0D\E0\CC\D9\B9\F7\1BC\95\96\DB\FC\F4\C3\F0\E0=\B3p\E1\C7_\16\03\11\12\16\97]6Z\1A\CB\F5&\819\E6\11\04\E8\1C\F0$\FCV\90\90\DE\22\0B5\8F\A3\1C\D0\EC\E3\8C\1D0\DF\D9\A6K\82\A2]?\E9\16\DA#\83=\B1Y\7F\E1\EB\A2\CEN\B12T\12\\98/\B5\C2\CBhy\D1}\E4N\84S\1D\E3-`\BF]5\D6S\94\A7dPr\03v\17\1C\8B\E6e\B1*x\A9v\EC\B6\A6\8E\CF\C4\12\FAD\D7o\B5\AA&\0F\F1\13\8B\D7}\B2\07\1Ebj\DF\BF*\22R?'Co\ACd(\06\18N\88\7F\99\88N\DBe\1F\9C\F2\89P 8\13J\0D\CC(tJ\C5oe\93\EA\0F\B43\C0\1E;\A4\09\87\F6\A1jY\84\0F\22s\F6\C2\99\18\96\B6\07l\F8\E7\EE\AD6\D9\B4\F5\915\AE\13VW\0C\E0\F3?~I$\F5\BA\22\83\22}\1FE\AC\D6L\F6\FFd\D4\E9\90\95\E8h\E80\19\D1\89x=\F8\FF\83C\EEsD\EDS '\14t\A1\93\97\C6\CC\9C\CF\F1\8F\03\F1\0FM\1F\10R\02\B9%\A4Ga\7F\1C\B3\05\E8\7F\AE\CB\19\0F5\C7\B7\E9\D2M\CC\16\\\D1\EC\FF\F1\A2\14\D9\90\D2_!\0F\0B=\12\B0\DA#3[\82\10\C1\E7P\99hK\ABaP\B3*\06\85+j\1Ag\B9@\14\BA\A2\22N@\\Ukj\BC!\15S\94\00\DD\94\E8N\0B\CDID\BC\EE\C9\E7\10Q\ED\00\C8\87\DA\17\12H\A9\D3\C6Jv\0C\1B\DA\BD\00\A0lHF\DBl\87\DCk\D5\91\A3\15\AFd\CDL\BD\06\05I\8A\9F\E3\EF\DD\A7O\11\B1:\E2z\C8\0A\08\A8C\FF8\E6/\A6\B2\1B\F4.\E8\FB9\A29Si\FF\93\1E\F3\84(\16]\F2\EC/\FB\B4\C7u\87\FF\0F\B2\F5\03\BA\11.\EAG\E6\91!\D9\22?\FF\7F\B6\22\D3\\\1C\F2T\06\85A\81z\B5e\FF\FF\91\E8\A8\B0\16\F5C87\01\01b\C4\B723\DB\86\ED&\12\EE\9F\F3\F1\01h6:Y\84\EB\91\A4\15\0B\1D\8B\19\F6'\9B\B9^\FB\E0i\BCtP\11<\17\D6z^\86\E2\FA~/\E7\87c]@t\96\12V\91\FD\D6\D0\F7\97\E5q\D98b\CD\86\BD\1D\AB\DA\CAx\0D\93y\84\C1z-\E8=\D2\CA\17V\15o-qBa\D0\9A\C8\8A\861\A8\08\13\22\22\18\AFNjhM\91\DA\AA=O@t\1E\E8\B4y\F2>\88S\A4\DA\AE\88d?\00]\18\87]a(\FFl\DC\E9\AEXmP\CC\99}\13\A4\95h\0De\AE`\A9\E4\8DH\1Az\\/\1F\83D\ED=\B7\BE\B3\BA\83q\A0\AEa\B0\F2\186\9D\8A1,2\F6.6\C1\E6\BE\E7Y\F5\13\F0aw\82\13\1D\BD\E4\89\9B\D7\97?\F6\EE\1FZN,5\A9}\CA\83\A1\AF\DF\DF2\F8\8B\19\15\A5V\F7 \FE\A1\9C\E7\F2\B2L\C2\F9o\14\AA\1D\12\F9\B31\1BJ\B9(\8Fp\9B\94Y\10\DD\95\B6\C1\EC\B5^C\F5\0D\E5\80\C5\ED(\1AJ\DE^\01W^\E55\C4\A4\1Dg\04\8B\ED\14\D5\B1\18\01\AC~\B7\C4i\1D~R\D0\08\BE\10\22\B6Z\9By\97%\A1\0F/0\B7\B3\A7\C9\1A\81^\15Ia\AC\B7M\D9X\F3\F8\C2\1Fn\15\9BKD\07\81#\C6\D7\AD\E0\F5\935\E6$\11+\AC\D3>\9B\05=YI4V\86\22=n\1B\BC\89\DC\CB\15\9E\FD\E0m\C3\11\05\82\CA\F1\15c\A1\E3o\11\18\FE\B3$iA7\9B;\8E\11\D1\9B\D2\7F\B5Yc\86\07u5%\C5\C5\16\1C\0E\E3\0E3\91\14\E9\D1\D2\90\F7P7\9Ex\16\0B\1C?\8F\DAv\BAtu\0D\C6@,\18\FA\11x\C61\E5\90$\F7\ED\BBH\A3g\E0Y\C3\1C-\05[\B7@\1D,\8B\C9\D3\B5\1FM\AE\02\17$\04|_\CD}Vo\D4\0F+\E6p\8Bh\12\06m\C6\98H\C9\F0~\ED\B2\11=N\12t\1D\9F\BD\9E\E0\06\A1\C0\98W\C2\A7\FD\A4\0E\90\17\E6\CAKM\D2\80\00Gy\9B\EC\CAP\A5\D9\12\A2DyH\1D\CE\00\D8\8E\C5\ADD\81\08)\1E\82\D0-m\17\D83\13?\D1W\9D\9A\D3 \18\CE\A6$$yF\F6\A8e\A7\ACJ\15vM\13}\A4:\A0\8E=\BDto\A5zw\88V\E2\1EdP\95\E6>1d]\8C\B7\FB\C5\06\12\B5\18\B7\A6\AA\EB\CB\8D\B6Jp,\96\D1k\0E\C4\13W\A4\AA\12\13\16$\11\1AG\F0\E8\12\17\A0\1F\DF\E9\EE\0E\DCD\83\DA\14l\F3SB\DFL\19\80!\BF\D8|\9D\02\E2C#)Ch\7F=\143\812z\FD}hN6\1CT\CF\B921\10\B8\CEP\90\95\C9@J\BD\C6\B9K)Q\E8\19\C6\0B\A7\A6w\D43\081\D2\C7o\87\DA\B9\14k\09\EC\1E\C6v)\A0\8D\0E\D3\BF\D2\AE\94\10\DF\DB\ACd\A3WB\00I\17\B8\FF\1D~\87\1A\19\E3#\EA\B5\DF\01\CD\A0\12`\99\B119\15\AE\B5\1C\88\91L\CEpMu\E6\AD'\8E\FA\10\E2U\94\A6\B5\AD\E3\1A\AF\BBpI\0C}*\1B\E8wC\85\C4W\E9{\F2b\8D\07=\97\BB\15\87\F95\04jy\87\C9\8E\B5\0A\06d\DFb\11q\C2\BC\06\10\8F\A5u\E4\88w\D6le\D1\1B'5\CAk\A6\A5\B7\F7\E9\D3\92\AB\F0\1DA\16\1F\C4\A1\BC\1E\1E\C6_\EE\0F\0FV\8D\B1\CD\11e\D3\02adc\A3\FF\16\B3\B1\89HO|\1CQ\DC\9BMP\1C\E92\DF(\8E\D4\06\D9\C9\16\0E}Iqs\E3 \8F\B2 \D8v\05\14;\12|.\0F\82\85\05\9B~\EA\CDY\F1;S+\1D\CA\BE\A5\01\9E7\AF\CB\EE\D7G\F4/\DCU\17\A1\98\844K\F9X\09\BF\ACl\C3\8C\16\AB\12", align 8
@alloc_3eb9269319b653ee3300e6da2b545429 = private unnamed_addr constant [3 x i8] c"0.0", align 1

; ryu::pretty::format32
; Function Attrs: nofree norecurse nosync nounwind memory(argmem: readwrite, inaccessiblemem: write) uwtable
define noundef range(i64 -2147483645, 18) i64 @_RNvNtCsfJNPX9h41mg_3ryu6pretty8format32(float noundef %f, ptr noundef %result) unnamed_addr #0 {
start:
  %bits = bitcast float %f to i32
  %ieee_mantissa = and i32 %bits, 8388607
  %_9 = lshr i32 %bits, 23
  %ieee_exponent = and i32 %_9, 255
  %0 = icmp sgt i32 %bits, -1
  br i1 %0, label %bb2, label %bb1

bb2:                                              ; preds = %bb1, %start
  %index.sroa.0.0 = phi i64 [ 0, %start ], [ 1, %bb1 ]
  %1 = or i32 %ieee_exponent, %ieee_mantissa
  %or.cond = icmp eq i32 %1, 0
  br i1 %or.cond, label %bb4, label %bb5

bb1:                                              ; preds = %start
  store i8 45, ptr %result, align 1
  br label %bb2

bb5:                                              ; preds = %bb2
  %2 = icmp eq i32 %ieee_exponent, 0
  %3 = add nsw i32 %ieee_exponent, -152
  %4 = or disjoint i32 %ieee_mantissa, 8388608
  %m2.sroa.0.0.i = select i1 %2, i32 %ieee_mantissa, i32 %4
  %e2.sroa.0.0.i = select i1 %2, i32 -151, i32 %3
  %_9.i = and i32 %m2.sroa.0.0.i, 1
  %even.i = icmp eq i32 %_9.i, 0
  %5 = shl nuw nsw i32 %m2.sroa.0.0.i, 2
  %6 = or disjoint i32 %5, 2
  %7 = icmp ne i32 %ieee_mantissa, 0
  %8 = icmp samesign ult i32 %ieee_exponent, 2
  %_13.sroa.0.0.off0.i = select i1 %7, i1 true, i1 %8
  %mm_shift.neg.i = sext i1 %_13.sroa.0.0.off0.i to i32
  %_15.i = add nsw i32 %5, -1
  %9 = add nsw i32 %_15.i, %mm_shift.neg.i
  %_18.i = icmp sgt i32 %e2.sroa.0.0.i, -1
  br i1 %_18.i, label %bb7.i, label %bb18.i

bb18.i:                                           ; preds = %bb5
  %_202.i = mul nsw i32 %e2.sroa.0.0.i, -732923
  %q.i = lshr i32 %_202.i, 20
  %10 = add nsw i32 %q.i, %e2.sroa.0.0.i
  %i.i = sub nsw i32 0, %10
  %_206.i = mul i32 %10, 32337073
  %_205.i = lshr i32 %_206.i, 19
  %k.neg.i = add nuw nsw i32 %q.i, 60
  %11 = sub nsw i32 %k.neg.i, %_205.i
  %_210.i = zext nneg i32 %i.i to i64
  %_212.i = icmp ult i32 %i.i, 326
  tail call void @llvm.assume(i1 %_212.i)
  %12 = getelementptr inbounds nuw { i64, i64 }, ptr @_RNvNtCsfJNPX9h41mg_3ryu14d2s_full_table17DOUBLE_POW5_SPLIT, i64 %_210.i, i32 1
  %_208.i = load i64, ptr %12, align 8, !noundef !2
  %_215.i = lshr i64 %_208.i, 32
  %_217.i = zext nneg i32 %5 to i64
  %_218.i = and i64 %_208.i, 4294967295
  %_216.i = mul nuw nsw i64 %_218.i, %_217.i
  %_219.i = mul nuw nsw i64 %_215.i, %_217.i
  %_222.i = lshr i64 %_216.i, 32
  %_221.i = add nuw nsw i64 %_222.i, %_219.i
  %13 = and i32 %11, 63
  %14 = xor i32 %13, 32
  %15 = zext nneg i32 %14 to i64
  %_223.i = lshr i64 %_221.i, %15
  %16 = trunc i64 %_223.i to i32
  %_231.i = zext nneg i32 %6 to i64
  %_230.i = mul nuw nsw i64 %_218.i, %_231.i
  %_233.i = mul nuw nsw i64 %_215.i, %_231.i
  %_236.i = lshr i64 %_230.i, 32
  %_235.i = add nuw nsw i64 %_236.i, %_233.i
  %_237.i = lshr i64 %_235.i, %15
  %17 = trunc i64 %_237.i to i32
  %_245.i = zext i32 %9 to i64
  %_244.i = mul nuw i64 %_218.i, %_245.i
  %_247.i = mul nuw i64 %_215.i, %_245.i
  %_250.i = lshr i64 %_244.i, 32
  %_249.i = add nuw i64 %_250.i, %_247.i
  %_251.i = lshr i64 %_249.i, %15
  %18 = trunc i64 %_251.i to i32
  %19 = icmp samesign ult i32 %_202.i, 1048576
  br i1 %19, label %bb23.i, label %bb19.i

bb7.i:                                            ; preds = %bb5
  %_118.i = mul nuw nsw i32 %e2.sroa.0.0.i, 78913
  %q1.i = lshr i32 %_118.i, 18
  %_122.i = mul nuw nsw i32 %q1.i, 1217359
  %_121.i = lshr i32 %_122.i, 19
  %_25.i = sub nsw i32 %q1.i, %e2.sroa.0.0.i
  %k2.i = add nsw i32 %_25.i, 61
  %i3.i = add nsw i32 %k2.i, %_121.i
  %_127.i = zext nneg i32 %q1.i to i64
  %20 = getelementptr inbounds nuw { i64, i64 }, ptr @_RNvNtCsfJNPX9h41mg_3ryu14d2s_full_table21DOUBLE_POW5_INV_SPLIT, i64 %_127.i, i32 1
  %_125.i = load i64, ptr %20, align 8, !noundef !2
  %_124.i = add i64 %_125.i, 1
  %_132.i = lshr i64 %_124.i, 32
  %_134.i = zext nneg i32 %5 to i64
  %_135.i = and i64 %_124.i, 4294967295
  %_133.i = mul nuw nsw i64 %_135.i, %_134.i
  %_136.i = mul nuw nsw i64 %_132.i, %_134.i
  %_139.i = lshr i64 %_133.i, 32
  %_138.i = add nuw nsw i64 %_139.i, %_136.i
  %21 = and i32 %i3.i, 63
  %22 = xor i32 %21, 32
  %23 = zext nneg i32 %22 to i64
  %_140.i = lshr i64 %_138.i, %23
  %24 = trunc i64 %_140.i to i32
  %_149.i = zext nneg i32 %6 to i64
  %_148.i = mul nuw nsw i64 %_135.i, %_149.i
  %_151.i = mul nuw nsw i64 %_132.i, %_149.i
  %_154.i = lshr i64 %_148.i, 32
  %_153.i = add nuw nsw i64 %_154.i, %_151.i
  %_155.i = lshr i64 %_153.i, %23
  %25 = trunc i64 %_155.i to i32
  %_163.i = zext i32 %9 to i64
  %_162.i = mul nuw i64 %_135.i, %_163.i
  %_165.i = mul nuw i64 %_132.i, %_163.i
  %_168.i = lshr i64 %_162.i, 32
  %_167.i = add nuw i64 %_168.i, %_165.i
  %_169.i = lshr i64 %_167.i, %23
  %26 = trunc i64 %_169.i to i32
  %27 = icmp samesign ult i32 %e2.sroa.0.0.i, 4
  br i1 %27, label %bb12.i, label %bb8.i

bb22.i:                                           ; preds = %bb20.i, %bb19.i
  %last_removed_digit.sroa.0.0.i = phi i8 [ %31, %bb20.i ], [ 0, %bb19.i ]
  %_72.i = icmp samesign ult i32 %_202.i, 2097152
  br i1 %_72.i, label %bb23.i, label %bb26.i

bb19.i:                                           ; preds = %bb18.i
  %_62.i = add i32 %17, -1
  %_61.i = udiv i32 %_62.i, 10
  %_64.i = udiv i32 %18, 10
  %_60.not.i = icmp samesign ugt i32 %_61.i, %_64.i
  br i1 %_60.not.i, label %bb22.i, label %bb20.i

bb20.i:                                           ; preds = %bb19.i
  %_69.i = sub nsw i32 1, %10
  %_255.i = mul nuw nsw i32 %_69.i, 1217359
  %_254.i = lshr i32 %_255.i, 19
  %_258.i = zext nneg i32 %_69.i to i64
  %_260.i = icmp ult i32 %_69.i, 326
  tail call void @llvm.assume(i1 %_260.i)
  %28 = getelementptr inbounds nuw { i64, i64 }, ptr @_RNvNtCsfJNPX9h41mg_3ryu14d2s_full_table17DOUBLE_POW5_SPLIT, i64 %_258.i, i32 1
  %_257.i = load i64, ptr %28, align 8, !noundef !2
  %_263.i = lshr i64 %_257.i, 32
  %_265.i = and i64 %_257.i, 4294967295
  %_264.i = mul nuw nsw i64 %_265.i, %_217.i
  %_266.i = mul nuw nsw i64 %_263.i, %_217.i
  %_269.i = lshr i64 %_264.i, 32
  %_268.i = add nuw nsw i64 %_269.i, %_266.i
  %reass.sub.i = add nuw nsw i32 %q.i, 27
  %_271.i = sub nsw i32 %reass.sub.i, %_254.i
  %29 = and i32 %_271.i, 63
  %30 = zext nneg i32 %29 to i64
  %_270.i = lshr i64 %_268.i, %30
  %_71.i = trunc i64 %_270.i to i32
  %_70.i = urem i32 %_71.i, 10
  %31 = trunc nuw nsw i32 %_70.i to i8
  br label %bb22.i

bb26.i:                                           ; preds = %bb22.i
  %_73.i = icmp samesign ult i32 %_202.i, 32505856
  br i1 %_73.i, label %bb27.i, label %bb48.preheader.i

bb23.i:                                           ; preds = %bb22.i, %bb18.i
  %last_removed_digit.sroa.0.095.i = phi i8 [ %last_removed_digit.sroa.0.0.i, %bb22.i ], [ 0, %bb18.i ]
  %not.even.i = xor i1 %even.i, true
  %32 = sext i1 %not.even.i to i32
  %spec.select180.i = add i32 %17, %32
  %spec.select181.i = select i1 %even.i, i1 %_13.sroa.0.0.off0.i, i1 false
  br label %bb29.preheader.i

bb27.i:                                           ; preds = %bb26.i
  %_74.i = add nsw i32 %q.i, -1
  %notmask.i = shl nsw i32 -1, %_74.i
  %_273.i = xor i32 %notmask.i, -1
  %_272.i = and i32 %5, %_273.i
  %33 = icmp eq i32 %_272.i, 0
  br i1 %33, label %bb29.preheader.i, label %bb48.preheader.i

bb29.preheader.i:                                 ; preds = %bb17.i, %bb27.i, %bb23.i
  %vm.sroa.0.1.ph.i = phi i32 [ %18, %bb27.i ], [ %26, %bb17.i ], [ %18, %bb23.i ]
  %vp.sroa.0.2.ph.i = phi i32 [ %17, %bb27.i ], [ %vp.sroa.0.4.i, %bb17.i ], [ %spec.select180.i, %bb23.i ]
  %vr.sroa.0.1.ph.i = phi i32 [ %16, %bb27.i ], [ %24, %bb17.i ], [ %16, %bb23.i ]
  %vm_is_trailing_zeros.sroa.0.1.off0.ph.i = phi i1 [ false, %bb27.i ], [ %vm_is_trailing_zeros.sroa.0.2.off0.i, %bb17.i ], [ %spec.select181.i, %bb23.i ]
  %vr_is_trailing_zeros.sroa.0.0.off0.ph.i = phi i1 [ true, %bb27.i ], [ %vr_is_trailing_zeros.sroa.0.1.off0.i, %bb17.i ], [ true, %bb23.i ]
  %last_removed_digit.sroa.0.2.ph.i = phi i8 [ %last_removed_digit.sroa.0.0.i, %bb27.i ], [ %last_removed_digit.sroa.0.398.i, %bb17.i ], [ %last_removed_digit.sroa.0.095.i, %bb23.i ]
  %e10.sroa.0.1.ph.i = phi i32 [ %10, %bb27.i ], [ %q1.i, %bb17.i ], [ %10, %bb23.i ]
  %_80122.i = udiv i32 %vp.sroa.0.2.ph.i, 10
  %_82123.i = udiv i32 %vm.sroa.0.1.ph.i, 10
  %_79124.i = icmp samesign ugt i32 %_80122.i, %_82123.i
  br i1 %_79124.i, label %bb30.i, label %bb31.i

bb11.i:                                           ; preds = %bb9.i, %bb8.i
  %last_removed_digit.sroa.0.3.i = phi i8 [ %37, %bb9.i ], [ 0, %bb8.i ]
  %_42.i = icmp samesign ult i32 %e2.sroa.0.0.i, 34
  br i1 %_42.i, label %bb12.i, label %bb48.preheader.i

bb8.i:                                            ; preds = %bb7.i
  %_29.i = add i32 %25, -1
  %_28.i = udiv i32 %_29.i, 10
  %_31.i = udiv i32 %26, 10
  %_27.not.i = icmp samesign ugt i32 %_28.i, %_31.i
  br i1 %_27.not.i, label %bb11.i, label %bb9.i

bb9.i:                                            ; preds = %bb8.i
  %_36.i = add nsw i32 %q1.i, -1
  %_172.i = mul nuw nsw i32 %_36.i, 1217359
  %_171.i = lshr i32 %_172.i, 19
  %_176.i = zext nneg i32 %_36.i to i64
  %34 = getelementptr inbounds nuw { i64, i64 }, ptr @_RNvNtCsfJNPX9h41mg_3ryu14d2s_full_table21DOUBLE_POW5_INV_SPLIT, i64 %_176.i, i32 1
  %_175.i = load i64, ptr %34, align 8, !noundef !2
  %_174.i = add i64 %_175.i, 1
  %_181.i = lshr i64 %_174.i, 32
  %_183.i = and i64 %_174.i, 4294967295
  %_182.i = mul nuw nsw i64 %_183.i, %_134.i
  %_184.i = mul nuw nsw i64 %_181.i, %_134.i
  %_187.i = lshr i64 %_182.i, 32
  %_186.i = add nuw nsw i64 %_187.i, %_184.i
  %l.i = add nsw i32 %_25.i, 28
  %_189.i = add nsw i32 %l.i, %_171.i
  %35 = and i32 %_189.i, 63
  %36 = zext nneg i32 %35 to i64
  %_188.i = lshr i64 %_186.i, %36
  %_38.i = trunc i64 %_188.i to i32
  %_37.i = urem i32 %_38.i, 10
  %37 = trunc nuw nsw i32 %_37.i to i8
  br label %bb11.i

bb12.i:                                           ; preds = %bb11.i, %bb7.i
  %last_removed_digit.sroa.0.398.i = phi i8 [ %last_removed_digit.sroa.0.3.i, %bb11.i ], [ 0, %bb7.i ]
  %_43.i = urem i32 %5, 5
  %38 = icmp eq i32 %_43.i, 0
  br i1 %38, label %bb57.i, label %bb14.i

bb14.i:                                           ; preds = %bb12.i
  br i1 %even.i, label %bb59.preheader.i, label %bb62.preheader.i

bb62.preheader.i:                                 ; preds = %bb14.i
  %_201100.i = urem i32 %6, 5
  %39 = icmp eq i32 %_201100.i, 0
  br i1 %39, label %bb63.i, label %bb61.i

bb59.preheader.i:                                 ; preds = %bb14.i
  %_197103.i = urem i32 %9, 5
  %40 = icmp eq i32 %_197103.i, 0
  br i1 %40, label %bb60.i, label %bb58.i

bb57.i:                                           ; preds = %bb12.i, %bb57.i
  %mv.sroa.0.0109.i = phi i32 [ %_191.i, %bb57.i ], [ %5, %bb12.i ]
  %_190.sroa.0.0108.i = phi i32 [ %41, %bb57.i ], [ 0, %bb12.i ]
  %_191.i = udiv i32 %mv.sroa.0.0109.i, 5
  %41 = add i32 %_190.sroa.0.0108.i, 1
  %_193.i = urem i32 %_191.i, 5
  %42 = icmp eq i32 %_193.i, 0
  br i1 %42, label %bb57.i, label %bb55.i

bb55.i:                                           ; preds = %bb57.i
  %43 = icmp uge i32 %41, %q1.i
  br label %bb17.i

bb17.i:                                           ; preds = %bb58.i, %bb61.i, %bb55.i
  %vp.sroa.0.4.i = phi i32 [ %25, %bb55.i ], [ %25, %bb58.i ], [ %46, %bb61.i ]
  %vm_is_trailing_zeros.sroa.0.2.off0.i = phi i1 [ false, %bb55.i ], [ %49, %bb58.i ], [ false, %bb61.i ]
  %vr_is_trailing_zeros.sroa.0.1.off0.i = phi i1 [ %43, %bb55.i ], [ false, %bb58.i ], [ false, %bb61.i ]
  %or.cond.i = select i1 %vm_is_trailing_zeros.sroa.0.2.off0.i, i1 true, i1 %vr_is_trailing_zeros.sroa.0.1.off0.i
  br i1 %or.cond.i, label %bb29.preheader.i, label %bb17.bb48.preheader_crit_edge.i

bb17.bb48.preheader_crit_edge.i:                  ; preds = %bb17.i
  %.pre.i = udiv i32 %26, 10
  br label %bb48.preheader.i

bb48.preheader.i:                                 ; preds = %bb17.bb48.preheader_crit_edge.i, %bb11.i, %bb27.i, %bb26.i
  %_109112.pre-phi.i = phi i32 [ %.pre.i, %bb17.bb48.preheader_crit_edge.i ], [ %_64.i, %bb26.i ], [ %_31.i, %bb11.i ], [ %_64.i, %bb27.i ]
  %vm.sroa.0.2.ph.i = phi i32 [ %26, %bb17.bb48.preheader_crit_edge.i ], [ %18, %bb26.i ], [ %26, %bb11.i ], [ %18, %bb27.i ]
  %vp.sroa.0.3.ph.i = phi i32 [ %vp.sroa.0.4.i, %bb17.bb48.preheader_crit_edge.i ], [ %17, %bb26.i ], [ %25, %bb11.i ], [ %17, %bb27.i ]
  %vr.sroa.0.2.ph.i = phi i32 [ %24, %bb17.bb48.preheader_crit_edge.i ], [ %16, %bb26.i ], [ %24, %bb11.i ], [ %16, %bb27.i ]
  %last_removed_digit.sroa.0.4.ph.i = phi i8 [ %last_removed_digit.sroa.0.398.i, %bb17.bb48.preheader_crit_edge.i ], [ %last_removed_digit.sroa.0.0.i, %bb26.i ], [ %last_removed_digit.sroa.0.3.i, %bb11.i ], [ %last_removed_digit.sroa.0.0.i, %bb27.i ]
  %e10.sroa.0.2.ph.i = phi i32 [ %q1.i, %bb17.bb48.preheader_crit_edge.i ], [ %10, %bb26.i ], [ %q1.i, %bb11.i ], [ %10, %bb27.i ]
  %_107111.i = udiv i32 %vp.sroa.0.3.ph.i, 10
  %_106113.i = icmp samesign ugt i32 %_107111.i, %_109112.pre-phi.i
  br i1 %_106113.i, label %bb49.i, label %bb50.i

bb63.i:                                           ; preds = %bb62.preheader.i, %bb63.i
  %mp.sroa.0.0102.i = phi i32 [ %_199.i, %bb63.i ], [ %6, %bb62.preheader.i ]
  %_198.sroa.0.0101.i = phi i32 [ %44, %bb63.i ], [ 0, %bb62.preheader.i ]
  %_199.i = udiv i32 %mp.sroa.0.0102.i, 5
  %44 = add i32 %_198.sroa.0.0101.i, 1
  %_201.i = urem i32 %_199.i, 5
  %45 = icmp eq i32 %_201.i, 0
  br i1 %45, label %bb63.i, label %bb61.i

bb61.i:                                           ; preds = %bb63.i, %bb62.preheader.i
  %_198.sroa.0.0.lcssa.i = phi i32 [ 0, %bb62.preheader.i ], [ %44, %bb63.i ]
  %_47.i = icmp uge i32 %_198.sroa.0.0.lcssa.i, %q1.i
  %_46.neg.i = sext i1 %_47.i to i32
  %46 = add i32 %_46.neg.i, %25
  br label %bb17.i

bb60.i:                                           ; preds = %bb59.preheader.i, %bb60.i
  %mm.sroa.0.0105.i = phi i32 [ %_195.i, %bb60.i ], [ %9, %bb59.preheader.i ]
  %_194.sroa.0.0104.i = phi i32 [ %47, %bb60.i ], [ 0, %bb59.preheader.i ]
  %_195.i = udiv i32 %mm.sroa.0.0105.i, 5
  %47 = add i32 %_194.sroa.0.0104.i, 1
  %_197.i = urem i32 %_195.i, 5
  %48 = icmp eq i32 %_197.i, 0
  br i1 %48, label %bb60.i, label %bb58.i

bb58.i:                                           ; preds = %bb60.i, %bb59.preheader.i
  %_194.sroa.0.0.lcssa.i = phi i32 [ 0, %bb59.preheader.i ], [ %47, %bb60.i ]
  %49 = icmp uge i32 %_194.sroa.0.0.lcssa.i, %q1.i
  br label %bb17.i

bb48.bb50_crit_edge.i:                            ; preds = %bb49.i
  %50 = mul i32 %53, 10
  %_111.le.i.decomposed = sub i32 %vr.sroa.0.2115.i.frozen, %50
  %51 = trunc nuw nsw i32 %_111.le.i.decomposed to i8
  br label %bb50.i

bb50.i:                                           ; preds = %bb48.bb50_crit_edge.i, %bb48.preheader.i
  %removed.sroa.0.3.lcssa.i = phi i32 [ %54, %bb48.bb50_crit_edge.i ], [ 0, %bb48.preheader.i ]
  %vm.sroa.0.2.lcssa.i = phi i32 [ %_109117.i, %bb48.bb50_crit_edge.i ], [ %vm.sroa.0.2.ph.i, %bb48.preheader.i ]
  %vr.sroa.0.2.lcssa.i = phi i32 [ %53, %bb48.bb50_crit_edge.i ], [ %vr.sroa.0.2.ph.i, %bb48.preheader.i ]
  %last_removed_digit.sroa.0.4.lcssa.i = phi i8 [ %51, %bb48.bb50_crit_edge.i ], [ %last_removed_digit.sroa.0.4.ph.i, %bb48.preheader.i ]
  %_116.i = icmp eq i32 %vr.sroa.0.2.lcssa.i, %vm.sroa.0.2.lcssa.i
  %52 = icmp samesign ugt i8 %last_removed_digit.sroa.0.4.lcssa.i, 4
  %narrow.i = select i1 %_116.i, i1 true, i1 %52
  br label %_RNvNtCsfJNPX9h41mg_3ryu3f2s3f2d.exit

bb49.i:                                           ; preds = %bb48.preheader.i, %bb49.i
  %_109117.i = phi i32 [ %_109.i, %bb49.i ], [ %_109112.pre-phi.i, %bb48.preheader.i ]
  %_107116.i = phi i32 [ %_107.i, %bb49.i ], [ %_107111.i, %bb48.preheader.i ]
  %vr.sroa.0.2115.i = phi i32 [ %53, %bb49.i ], [ %vr.sroa.0.2.ph.i, %bb48.preheader.i ]
  %removed.sroa.0.3114.i = phi i32 [ %54, %bb49.i ], [ 0, %bb48.preheader.i ]
  %vr.sroa.0.2115.i.frozen = freeze i32 %vr.sroa.0.2115.i
  %53 = udiv i32 %vr.sroa.0.2115.i.frozen, 10
  %54 = add i32 %removed.sroa.0.3114.i, 1
  %_107.i = udiv i32 %_107116.i, 10
  %_109.i = udiv i32 %_109117.i, 10
  %_106.i = icmp samesign ugt i32 %_107.i, %_109.i
  br i1 %_106.i, label %bb49.i, label %bb48.bb50_crit_edge.i

bb31.i:                                           ; preds = %bb30.i, %bb29.preheader.i
  %removed.sroa.0.2.lcssa.i = phi i32 [ 0, %bb29.preheader.i ], [ %61, %bb30.i ]
  %vm.sroa.0.1.lcssa.i = phi i32 [ %vm.sroa.0.1.ph.i, %bb29.preheader.i ], [ %_82132.i, %bb30.i ]
  %vr.sroa.0.1.lcssa.i = phi i32 [ %vr.sroa.0.1.ph.i, %bb29.preheader.i ], [ %58, %bb30.i ]
  %vm_is_trailing_zeros.sroa.0.1.off0.lcssa.i = phi i1 [ %vm_is_trailing_zeros.sroa.0.1.off0.ph.i, %bb29.preheader.i ], [ %56, %bb30.i ]
  %vr_is_trailing_zeros.sroa.0.0.off0.lcssa.i = phi i1 [ %vr_is_trailing_zeros.sroa.0.0.off0.ph.i, %bb29.preheader.i ], [ %57, %bb30.i ]
  %last_removed_digit.sroa.0.2.lcssa.i = phi i8 [ %last_removed_digit.sroa.0.2.ph.i, %bb29.preheader.i ], [ %60, %bb30.i ]
  %_94139.i = urem i32 %vm.sroa.0.1.lcssa.i, 10
  %55 = icmp eq i32 %_94139.i, 0
  %or.cond151.i = and i1 %vm_is_trailing_zeros.sroa.0.1.off0.lcssa.i, %55
  br i1 %or.cond151.i, label %bb33.i, label %bb35.i

bb30.i:                                           ; preds = %bb29.preheader.i, %bb30.i
  %_82132.i = phi i32 [ %_82.i, %bb30.i ], [ %_82123.i, %bb29.preheader.i ]
  %_80131.i = phi i32 [ %_80.i, %bb30.i ], [ %_80122.i, %bb29.preheader.i ]
  %last_removed_digit.sroa.0.2130.i = phi i8 [ %60, %bb30.i ], [ %last_removed_digit.sroa.0.2.ph.i, %bb29.preheader.i ]
  %vr_is_trailing_zeros.sroa.0.0.off0129.i = phi i1 [ %57, %bb30.i ], [ %vr_is_trailing_zeros.sroa.0.0.off0.ph.i, %bb29.preheader.i ]
  %vm_is_trailing_zeros.sroa.0.1.off0128.i = phi i1 [ %56, %bb30.i ], [ %vm_is_trailing_zeros.sroa.0.1.off0.ph.i, %bb29.preheader.i ]
  %vr.sroa.0.1127.i = phi i32 [ %58, %bb30.i ], [ %vr.sroa.0.1.ph.i, %bb29.preheader.i ]
  %vm.sroa.0.1126.i = phi i32 [ %_82132.i, %bb30.i ], [ %vm.sroa.0.1.ph.i, %bb29.preheader.i ]
  %removed.sroa.0.2125.i = phi i32 [ %61, %bb30.i ], [ 0, %bb29.preheader.i ]
  %_87.neg.i = mul i32 %_82132.i, -10
  %_85.i = sub i32 0, %vm.sroa.0.1126.i
  %_84.i = icmp eq i32 %_87.neg.i, %_85.i
  %56 = and i1 %vm_is_trailing_zeros.sroa.0.1.off0128.i, %_84.i
  %_90.i = icmp eq i8 %last_removed_digit.sroa.0.2130.i, 0
  %57 = and i1 %vr_is_trailing_zeros.sroa.0.0.off0129.i, %_90.i
  %vr.sroa.0.1127.i.frozen = freeze i32 %vr.sroa.0.1127.i
  %58 = udiv i32 %vr.sroa.0.1127.i.frozen, 10
  %59 = mul i32 %58, 10
  %_91.i.decomposed = sub i32 %vr.sroa.0.1127.i.frozen, %59
  %60 = trunc nuw nsw i32 %_91.i.decomposed to i8
  %61 = add i32 %removed.sroa.0.2125.i, 1
  %_80.i = udiv i32 %_80131.i, 10
  %_82.i = udiv i32 %_82132.i, 10
  %_79.i = icmp samesign ugt i32 %_80.i, %_82.i
  br i1 %_79.i, label %bb30.i, label %bb31.i

bb35.i:                                           ; preds = %bb33.i, %bb31.i
  %removed.sroa.0.5.i = phi i32 [ %removed.sroa.0.2.lcssa.i, %bb31.i ], [ %70, %bb33.i ]
  %vm.sroa.0.3.i = phi i32 [ %vm.sroa.0.1.lcssa.i, %bb31.i ], [ %69, %bb33.i ]
  %vr.sroa.0.3.i = phi i32 [ %vr.sroa.0.1.lcssa.i, %bb31.i ], [ %66, %bb33.i ]
  %vr_is_trailing_zeros.sroa.0.2.off0.i = phi i1 [ %vr_is_trailing_zeros.sroa.0.0.off0.lcssa.i, %bb31.i ], [ %65, %bb33.i ]
  %last_removed_digit.sroa.0.5.i = phi i8 [ %last_removed_digit.sroa.0.2.lcssa.i, %bb31.i ], [ %68, %bb33.i ]
  %62 = icmp eq i8 %last_removed_digit.sroa.0.5.i, 5
  %or.cond8.i = select i1 %vr_is_trailing_zeros.sroa.0.2.off0.i, i1 %62, i1 false
  %_100.i = and i32 %vr.sroa.0.3.i, 1
  %63 = icmp eq i32 %_100.i, 0
  %spec.select.i = select i1 %63, i8 4, i8 5
  %last_removed_digit.sroa.0.7.i = select i1 %or.cond8.i, i8 %spec.select.i, i8 %last_removed_digit.sroa.0.5.i
  %_105.i = icmp ne i32 %vr.sroa.0.3.i, %vm.sroa.0.3.i
  %or.cond6.i = and i1 %even.i, %vm_is_trailing_zeros.sroa.0.1.off0.lcssa.i
  %or.cond11.i = select i1 %_105.i, i1 true, i1 %or.cond6.i
  %64 = icmp samesign ugt i8 %last_removed_digit.sroa.0.7.i, 4
  %not.or.cond11.i = xor i1 %or.cond11.i, true
  %narrow99.i = select i1 %not.or.cond11.i, i1 true, i1 %64
  br label %_RNvNtCsfJNPX9h41mg_3ryu3f2s3f2d.exit

bb33.i:                                           ; preds = %bb31.i, %bb33.i
  %last_removed_digit.sroa.0.6144.i = phi i8 [ %68, %bb33.i ], [ %last_removed_digit.sroa.0.2.lcssa.i, %bb31.i ]
  %vr_is_trailing_zeros.sroa.0.3.off0143.i = phi i1 [ %65, %bb33.i ], [ %vr_is_trailing_zeros.sroa.0.0.off0.lcssa.i, %bb31.i ]
  %vr.sroa.0.4142.i = phi i32 [ %66, %bb33.i ], [ %vr.sroa.0.1.lcssa.i, %bb31.i ]
  %vm.sroa.0.4141.i = phi i32 [ %69, %bb33.i ], [ %vm.sroa.0.1.lcssa.i, %bb31.i ]
  %removed.sroa.0.6140.i = phi i32 [ %70, %bb33.i ], [ %removed.sroa.0.2.lcssa.i, %bb31.i ]
  %_96.i = icmp eq i8 %last_removed_digit.sroa.0.6144.i, 0
  %65 = and i1 %vr_is_trailing_zeros.sroa.0.3.off0143.i, %_96.i
  %vr.sroa.0.4142.i.frozen = freeze i32 %vr.sroa.0.4142.i
  %66 = udiv i32 %vr.sroa.0.4142.i.frozen, 10
  %67 = mul i32 %66, 10
  %_97.i.decomposed = sub i32 %vr.sroa.0.4142.i.frozen, %67
  %68 = trunc nuw nsw i32 %_97.i.decomposed to i8
  %69 = udiv i32 %vm.sroa.0.4141.i, 10
  %70 = add i32 %removed.sroa.0.6140.i, 1
  %_94.i = urem i32 %69, 10
  %71 = icmp eq i32 %_94.i, 0
  br i1 %71, label %bb33.i, label %bb35.i

_RNvNtCsfJNPX9h41mg_3ryu3f2s3f2d.exit:            ; preds = %bb50.i, %bb35.i
  %narrow99.sink.i = phi i1 [ %narrow99.i, %bb35.i ], [ %narrow.i, %bb50.i ]
  %vr.sroa.0.3.sink.i = phi i32 [ %vr.sroa.0.3.i, %bb35.i ], [ %vr.sroa.0.2.lcssa.i, %bb50.i ]
  %removed.sroa.0.4.i = phi i32 [ %removed.sroa.0.5.i, %bb35.i ], [ %removed.sroa.0.3.lcssa.i, %bb50.i ]
  %e10.sroa.0.3.i = phi i32 [ %e10.sroa.0.1.ph.i, %bb35.i ], [ %e10.sroa.0.2.ph.i, %bb50.i ]
  %_104.sroa.0.0.off0.i = zext i1 %narrow99.sink.i to i32
  %72 = add i32 %vr.sroa.0.3.sink.i, %_104.sroa.0.0.off0.i
  %exp.i = add i32 %e10.sroa.0.3.i, %removed.sroa.0.4.i
  %_2.i = icmp ugt i32 %72, 99999999
  br i1 %_2.i, label %_RNvNtCsfJNPX9h41mg_3ryu6common15decimal_length9.exit, label %bb2.i

bb2.i:                                            ; preds = %_RNvNtCsfJNPX9h41mg_3ryu3f2s3f2d.exit
  %_3.i = icmp samesign ugt i32 %72, 9999999
  br i1 %_3.i, label %_RNvNtCsfJNPX9h41mg_3ryu6common15decimal_length9.exit, label %bb4.i

bb4.i:                                            ; preds = %bb2.i
  %_4.i = icmp samesign ugt i32 %72, 999999
  br i1 %_4.i, label %_RNvNtCsfJNPX9h41mg_3ryu6common15decimal_length9.exit, label %bb6.i

bb6.i:                                            ; preds = %bb4.i
  %_5.i = icmp samesign ugt i32 %72, 99999
  br i1 %_5.i, label %_RNvNtCsfJNPX9h41mg_3ryu6common15decimal_length9.exit, label %bb8.i45

bb8.i45:                                          ; preds = %bb6.i
  %_6.i = icmp samesign ugt i32 %72, 9999
  br i1 %_6.i, label %_RNvNtCsfJNPX9h41mg_3ryu6common15decimal_length9.exit, label %bb10.i

bb10.i:                                           ; preds = %bb8.i45
  %_7.i = icmp samesign ugt i32 %72, 999
  br i1 %_7.i, label %_RNvNtCsfJNPX9h41mg_3ryu6common15decimal_length9.exit, label %bb12.i46

bb12.i46:                                         ; preds = %bb10.i
  %_8.i = icmp samesign ugt i32 %72, 99
  br i1 %_8.i, label %_RNvNtCsfJNPX9h41mg_3ryu6common15decimal_length9.exit, label %bb14.i47

bb14.i47:                                         ; preds = %bb12.i46
  %_9.i48 = icmp samesign ugt i32 %72, 9
  %..i = select i1 %_9.i48, i32 2, i32 1
  br label %_RNvNtCsfJNPX9h41mg_3ryu6common15decimal_length9.exit

_RNvNtCsfJNPX9h41mg_3ryu6common15decimal_length9.exit: ; preds = %_RNvNtCsfJNPX9h41mg_3ryu3f2s3f2d.exit, %bb2.i, %bb4.i, %bb6.i, %bb8.i45, %bb10.i, %bb12.i46, %bb14.i47
  %_0.sroa.0.0.i = phi i32 [ 9, %_RNvNtCsfJNPX9h41mg_3ryu3f2s3f2d.exit ], [ 8, %bb2.i ], [ 7, %bb4.i ], [ 6, %bb6.i ], [ 5, %bb8.i45 ], [ 4, %bb10.i ], [ %..i, %bb14.i47 ], [ 3, %bb12.i46 ]
  %73 = zext nneg i32 %_0.sroa.0.0.i to i64
  %k = sext i32 %exp.i to i64
  %kk = add nsw i64 %73, %k
  %_21 = icmp sgt i32 %exp.i, -1
  %_22 = icmp slt i64 %kk, 14
  %or.cond2 = and i1 %_21, %_22
  br i1 %or.cond2, label %bb9, label %bb12

bb4:                                              ; preds = %bb2
  %_13 = getelementptr inbounds nuw i8, ptr %result, i64 %index.sroa.0.0
  tail call void @llvm.memcpy.p0.p0.i64(ptr noundef nonnull align 1 dereferenceable(3) %_13, ptr noundef nonnull align 1 dereferenceable(3) @alloc_3eb9269319b653ee3300e6da2b545429, i64 3, i1 false)
  %bits.lobit = lshr i32 %bits, 31
  %narrow = add nuw nsw i32 %bits.lobit, 3
  %74 = zext nneg i32 %narrow to i64
  br label %bb31

bb31:                                             ; preds = %bb7.i183, %bb8.i179, %bb33, %_RNvNtNtCsfJNPX9h41mg_3ryu6pretty8exponent15write_exponent2.exit169, %_RNvNtNtCsfJNPX9h41mg_3ryu6pretty8exponent15write_exponent2.exit, %_RNvNtNtCsfJNPX9h41mg_3ryu6pretty8mantissa14write_mantissa.exit103, %bb4
  %_0.sroa.0.0 = phi i64 [ %74, %bb4 ], [ %134, %bb33 ], [ %_46, %_RNvNtNtCsfJNPX9h41mg_3ryu6pretty8mantissa14write_mantissa.exit103 ], [ %107, %_RNvNtNtCsfJNPX9h41mg_3ryu6pretty8exponent15write_exponent2.exit ], [ %124, %_RNvNtNtCsfJNPX9h41mg_3ryu6pretty8exponent15write_exponent2.exit169 ], [ %_78, %bb8.i179 ], [ %_78, %bb7.i183 ]
  ret i64 %_0.sroa.0.0

bb12:                                             ; preds = %_RNvNtCsfJNPX9h41mg_3ryu6common15decimal_length9.exit
  %75 = add nsw i64 %kk, -1
  %or.cond3 = icmp ult i64 %75, 13
  br i1 %or.cond3, label %bb14, label %bb16

bb9:                                              ; preds = %_RNvNtCsfJNPX9h41mg_3ryu6common15decimal_length9.exit
  %76 = getelementptr i8, ptr %result, i64 %index.sroa.0.0
  %_24 = getelementptr i8, ptr %76, i64 %73
  %_317.i = icmp ugt i32 %72, 9999
  br i1 %_317.i, label %bb2.i57, label %bb3.i

bb3.i:                                            ; preds = %bb2.i57, %bb9
  %result.sroa.0.0.lcssa.i = phi ptr [ %_24, %bb9 ], [ %_23.i, %bb2.i57 ]
  %output.sroa.0.0.lcssa.i = phi i32 [ %72, %bb9 ], [ %_8.i58, %bb2.i57 ]
  %_26.i = icmp samesign ugt i32 %output.sroa.0.0.lcssa.i, 99
  br i1 %_26.i, label %bb4.i55, label %bb6.i49

bb2.i57:                                          ; preds = %bb9, %bb2.i57
  %output.sroa.0.019.i = phi i32 [ %_8.i58, %bb2.i57 ], [ %72, %bb9 ]
  %result.sroa.0.018.i = phi ptr [ %_23.i, %bb2.i57 ], [ %_24, %bb9 ]
  %_8.i58 = udiv i32 %output.sroa.0.019.i, 10000
  %_7.neg.i = mul i32 %_8.i58, -10000
  %c2.i = add i32 %_7.neg.i, %output.sroa.0.019.i
  %c2.i.frozen = freeze i32 %c2.i
  %_13.i = udiv i32 %c2.i.frozen, 100
  %77 = mul i32 %_13.i, 100
  %_11.i.decomposed = sub i32 %c2.i.frozen, %77
  %c0.i = shl nuw nsw i32 %_11.i.decomposed, 1
  %c13.i = shl nuw nsw i32 %_13.i, 1
  %_17.i = zext nneg i32 %c0.i to i64
  %_14.i = getelementptr inbounds nuw i8, ptr @_RNvNtCsfJNPX9h41mg_3ryu11digit_table11DIGIT_TABLE, i64 %_17.i
  %_18.i59 = getelementptr inbounds i8, ptr %result.sroa.0.018.i, i64 -2
  %78 = load i16, ptr %_14.i, align 1
  store i16 %78, ptr %_18.i59, align 1
  %_22.i = zext nneg i32 %c13.i to i64
  %_20.i = getelementptr inbounds nuw i8, ptr @_RNvNtCsfJNPX9h41mg_3ryu11digit_table11DIGIT_TABLE, i64 %_22.i
  %_23.i = getelementptr inbounds i8, ptr %result.sroa.0.018.i, i64 -4
  %79 = load i16, ptr %_20.i, align 1
  store i16 %79, ptr %_23.i, align 1
  %_3.i60 = icmp ugt i32 %output.sroa.0.019.i, 99999999
  br i1 %_3.i60, label %bb2.i57, label %bb3.i

bb4.i55:                                          ; preds = %bb3.i
  %_29.lhs.trunc.i = trunc nuw i32 %output.sroa.0.0.lcssa.i to i16
  %_29.lhs.trunc.i.frozen = freeze i16 %_29.lhs.trunc.i
  %80 = udiv i16 %_29.lhs.trunc.i.frozen, 100
  %81 = mul i16 %80, 100
  %_2916.i.decomposed = sub i16 %_29.lhs.trunc.i.frozen, %81
  %82 = shl nuw nsw i16 %_2916.i.decomposed, 1
  %.zext.i = zext nneg i16 %80 to i32
  %_34.i = zext nneg i16 %82 to i64
  %_31.i56 = getelementptr inbounds nuw i8, ptr @_RNvNtCsfJNPX9h41mg_3ryu11digit_table11DIGIT_TABLE, i64 %_34.i
  %_35.i = getelementptr inbounds i8, ptr %result.sroa.0.0.lcssa.i, i64 -2
  %83 = load i16, ptr %_31.i56, align 1
  store i16 %83, ptr %_35.i, align 1
  br label %bb6.i49

bb6.i49:                                          ; preds = %bb4.i55, %bb3.i
  %result.sroa.0.1.i = phi ptr [ %_35.i, %bb4.i55 ], [ %result.sroa.0.0.lcssa.i, %bb3.i ]
  %output.sroa.0.1.i = phi i32 [ %.zext.i, %bb4.i55 ], [ %output.sroa.0.0.lcssa.i, %bb3.i ]
  %_38.i50 = icmp samesign ugt i32 %output.sroa.0.1.i, 9
  br i1 %_38.i50, label %bb7.i54, label %bb8.i51

bb8.i51:                                          ; preds = %bb6.i49
  %_46.i = trunc nuw nsw i32 %output.sroa.0.1.i to i8
  %_47.i52 = getelementptr inbounds i8, ptr %result.sroa.0.1.i, i64 -1
  %84 = or disjoint i8 %_46.i, 48
  store i8 %84, ptr %_47.i52, align 1
  br label %_RNvNtNtCsfJNPX9h41mg_3ryu6pretty8mantissa14write_mantissa.exit

bb7.i54:                                          ; preds = %bb6.i49
  %c1.i = shl nuw nsw i32 %output.sroa.0.1.i, 1
  %_44.i = zext nneg i32 %c1.i to i64
  %_41.i = getelementptr inbounds nuw i8, ptr @_RNvNtCsfJNPX9h41mg_3ryu11digit_table11DIGIT_TABLE, i64 %_44.i
  %_45.i = getelementptr inbounds i8, ptr %result.sroa.0.1.i, i64 -2
  %85 = load i16, ptr %_41.i, align 1
  store i16 %85, ptr %_45.i, align 1
  br label %_RNvNtNtCsfJNPX9h41mg_3ryu6pretty8mantissa14write_mantissa.exit

_RNvNtNtCsfJNPX9h41mg_3ryu6pretty8mantissa14write_mantissa.exit: ; preds = %bb8.i51, %bb7.i54
  %_127229.not = icmp eq i32 %exp.i, 0
  br i1 %_127229.not, label %bb33, label %bb32.preheader

bb32.preheader:                                   ; preds = %_RNvNtNtCsfJNPX9h41mg_3ryu6pretty8mantissa14write_mantissa.exit
  tail call void @llvm.memset.p0.i64(ptr align 1 %_24, i8 48, i64 %k, i1 false)
  br label %bb33

bb16:                                             ; preds = %bb12
  %86 = add nsw i64 %kk, 5
  %or.cond4 = icmp ult i64 %86, 6
  br i1 %or.cond4, label %bb18, label %bb21

bb14:                                             ; preds = %bb12
  %_47 = add nuw nsw i64 %index.sroa.0.0, 1
  %_46 = add nuw nsw i64 %_47, %73
  %_45 = getelementptr inbounds nuw i8, ptr %result, i64 %_46
  %_317.i61 = icmp ugt i32 %72, 9999
  br i1 %_317.i61, label %bb2.i86, label %bb3.i62

bb3.i62:                                          ; preds = %bb2.i86, %bb14
  %result.sroa.0.0.lcssa.i63 = phi ptr [ %_45, %bb14 ], [ %_23.i101, %bb2.i86 ]
  %output.sroa.0.0.lcssa.i64 = phi i32 [ %72, %bb14 ], [ %_8.i89, %bb2.i86 ]
  %_26.i65 = icmp samesign ugt i32 %output.sroa.0.0.lcssa.i64, 99
  br i1 %_26.i65, label %bb4.i79, label %bb6.i66

bb2.i86:                                          ; preds = %bb14, %bb2.i86
  %output.sroa.0.019.i87 = phi i32 [ %_8.i89, %bb2.i86 ], [ %72, %bb14 ]
  %result.sroa.0.018.i88 = phi ptr [ %_23.i101, %bb2.i86 ], [ %_45, %bb14 ]
  %_8.i89 = udiv i32 %output.sroa.0.019.i87, 10000
  %_7.neg.i90 = mul i32 %_8.i89, -10000
  %c2.i91 = add i32 %_7.neg.i90, %output.sroa.0.019.i87
  %c2.i91.frozen = freeze i32 %c2.i91
  %_13.i94 = udiv i32 %c2.i91.frozen, 100
  %87 = mul i32 %_13.i94, 100
  %_11.i92.decomposed = sub i32 %c2.i91.frozen, %87
  %c0.i93 = shl nuw nsw i32 %_11.i92.decomposed, 1
  %c13.i95 = shl nuw nsw i32 %_13.i94, 1
  %_17.i96 = zext nneg i32 %c0.i93 to i64
  %_14.i97 = getelementptr inbounds nuw i8, ptr @_RNvNtCsfJNPX9h41mg_3ryu11digit_table11DIGIT_TABLE, i64 %_17.i96
  %_18.i98 = getelementptr inbounds i8, ptr %result.sroa.0.018.i88, i64 -2
  %88 = load i16, ptr %_14.i97, align 1
  store i16 %88, ptr %_18.i98, align 1
  %_22.i99 = zext nneg i32 %c13.i95 to i64
  %_20.i100 = getelementptr inbounds nuw i8, ptr @_RNvNtCsfJNPX9h41mg_3ryu11digit_table11DIGIT_TABLE, i64 %_22.i99
  %_23.i101 = getelementptr inbounds i8, ptr %result.sroa.0.018.i88, i64 -4
  %89 = load i16, ptr %_20.i100, align 1
  store i16 %89, ptr %_23.i101, align 1
  %_3.i102 = icmp ugt i32 %output.sroa.0.019.i87, 99999999
  br i1 %_3.i102, label %bb2.i86, label %bb3.i62

bb4.i79:                                          ; preds = %bb3.i62
  %_29.lhs.trunc.i80 = trunc nuw i32 %output.sroa.0.0.lcssa.i64 to i16
  %_29.lhs.trunc.i80.frozen = freeze i16 %_29.lhs.trunc.i80
  %90 = udiv i16 %_29.lhs.trunc.i80.frozen, 100
  %91 = mul i16 %90, 100
  %_2916.i81.decomposed = sub i16 %_29.lhs.trunc.i80.frozen, %91
  %92 = shl nuw nsw i16 %_2916.i81.decomposed, 1
  %.zext.i82 = zext nneg i16 %90 to i32
  %_34.i83 = zext nneg i16 %92 to i64
  %_31.i84 = getelementptr inbounds nuw i8, ptr @_RNvNtCsfJNPX9h41mg_3ryu11digit_table11DIGIT_TABLE, i64 %_34.i83
  %_35.i85 = getelementptr inbounds i8, ptr %result.sroa.0.0.lcssa.i63, i64 -2
  %93 = load i16, ptr %_31.i84, align 1
  store i16 %93, ptr %_35.i85, align 1
  br label %bb6.i66

bb6.i66:                                          ; preds = %bb4.i79, %bb3.i62
  %result.sroa.0.1.i67 = phi ptr [ %_35.i85, %bb4.i79 ], [ %result.sroa.0.0.lcssa.i63, %bb3.i62 ]
  %output.sroa.0.1.i68 = phi i32 [ %.zext.i82, %bb4.i79 ], [ %output.sroa.0.0.lcssa.i64, %bb3.i62 ]
  %_38.i69 = icmp samesign ugt i32 %output.sroa.0.1.i68, 9
  br i1 %_38.i69, label %bb7.i74, label %bb8.i70

bb8.i70:                                          ; preds = %bb6.i66
  %_46.i71 = trunc nuw nsw i32 %output.sroa.0.1.i68 to i8
  %_47.i72 = getelementptr inbounds i8, ptr %result.sroa.0.1.i67, i64 -1
  %94 = or disjoint i8 %_46.i71, 48
  store i8 %94, ptr %_47.i72, align 1
  br label %_RNvNtNtCsfJNPX9h41mg_3ryu6pretty8mantissa14write_mantissa.exit103

bb7.i74:                                          ; preds = %bb6.i66
  %c1.i75 = shl nuw nsw i32 %output.sroa.0.1.i68, 1
  %_44.i76 = zext nneg i32 %c1.i75 to i64
  %_41.i77 = getelementptr inbounds nuw i8, ptr @_RNvNtCsfJNPX9h41mg_3ryu11digit_table11DIGIT_TABLE, i64 %_44.i76
  %_45.i78 = getelementptr inbounds i8, ptr %result.sroa.0.1.i67, i64 -2
  %95 = load i16, ptr %_41.i77, align 1
  store i16 %95, ptr %_45.i78, align 1
  br label %_RNvNtNtCsfJNPX9h41mg_3ryu6pretty8mantissa14write_mantissa.exit103

_RNvNtNtCsfJNPX9h41mg_3ryu6pretty8mantissa14write_mantissa.exit103: ; preds = %bb8.i70, %bb7.i74
  %96 = getelementptr inbounds nuw i8, ptr %result, i64 %index.sroa.0.0
  %_51 = getelementptr inbounds nuw i8, ptr %96, i64 1
  tail call void @llvm.memmove.p0.p0.i64(ptr align 1 %96, ptr nonnull align 1 %_51, i64 %kk, i1 false)
  %_57 = getelementptr inbounds nuw i8, ptr %96, i64 %kk
  store i8 46, ptr %_57, align 1
  br label %bb31

bb21:                                             ; preds = %bb16
  %97 = icmp eq i32 %_0.sroa.0.0.i, 1
  br i1 %97, label %bb22, label %bb24

bb18:                                             ; preds = %bb16
  %_65 = getelementptr inbounds nuw i8, ptr %result, i64 %index.sroa.0.0
  store i8 48, ptr %_65, align 1
  %_67 = getelementptr inbounds nuw i8, ptr %_65, i64 1
  store i8 46, ptr %_67, align 1
  %offset = sub nsw i64 2, %kk
  %_136227 = icmp slt i64 %kk, 0
  br i1 %_136227, label %bb38.preheader, label %bb39

bb38.preheader:                                   ; preds = %bb18
  %98 = getelementptr i8, ptr %result, i64 %index.sroa.0.0
  %scevgep = getelementptr i8, ptr %98, i64 2
  %99 = tail call i64 @llvm.umax.i64(i64 %offset, i64 3)
  %100 = add nsw i64 %99, -2
  tail call void @llvm.memset.p0.i64(ptr align 1 %scevgep, i8 48, i64 %100, i1 false)
  br label %bb39

bb22:                                             ; preds = %bb21
  %_85 = trunc i32 %72 to i8
  %_86 = getelementptr inbounds nuw i8, ptr %result, i64 %index.sroa.0.0
  %101 = add i8 %_85, 48
  store i8 %101, ptr %_86, align 1
  %_88 = getelementptr inbounds nuw i8, ptr %_86, i64 1
  store i8 101, ptr %_88, align 1
  %_91 = or disjoint i64 %index.sroa.0.0, 2
  %_96 = getelementptr inbounds nuw i8, ptr %result, i64 %_91
  %sign.i = icmp slt i64 %kk, 1
  br i1 %sign.i, label %bb1.i, label %bb2.i104

bb2.i104:                                         ; preds = %bb1.i, %bb22
  %result.sroa.0.0.i = phi ptr [ %_5.i110, %bb1.i ], [ %_96, %bb22 ]
  %k.sroa.0.0.i = phi i64 [ %102, %bb1.i ], [ %75, %bb22 ]
  %_7.i105 = icmp samesign ugt i64 %k.sroa.0.0.i, 9
  br i1 %_7.i105, label %bb3.i109, label %bb4.i106

bb1.i:                                            ; preds = %bb22
  store i8 45, ptr %_96, align 1
  %_5.i110 = getelementptr inbounds nuw i8, ptr %_96, i64 1
  %102 = sub nsw i64 1, %kk
  br label %bb2.i104

bb4.i106:                                         ; preds = %bb2.i104
  %_14.i107 = trunc nuw nsw i64 %k.sroa.0.0.i to i8
  %103 = or disjoint i8 %_14.i107, 48
  store i8 %103, ptr %result.sroa.0.0.i, align 1
  %.lobit.i = lshr i64 %75, 63
  %104 = add nuw nsw i64 %.lobit.i, 1
  br label %_RNvNtNtCsfJNPX9h41mg_3ryu6pretty8exponent15write_exponent2.exit

bb3.i109:                                         ; preds = %bb2.i104
  %_12.i = shl nuw nsw i64 %k.sroa.0.0.i, 1
  %d.i = getelementptr inbounds nuw i8, ptr @_RNvNtCsfJNPX9h41mg_3ryu11digit_table11DIGIT_TABLE, i64 %_12.i
  %105 = load i16, ptr %d.i, align 1
  store i16 %105, ptr %result.sroa.0.0.i, align 1
  %.lobit8.i = lshr i64 %75, 63
  %106 = or disjoint i64 %.lobit8.i, 2
  br label %_RNvNtNtCsfJNPX9h41mg_3ryu6pretty8exponent15write_exponent2.exit

_RNvNtNtCsfJNPX9h41mg_3ryu6pretty8exponent15write_exponent2.exit: ; preds = %bb4.i106, %bb3.i109
  %_0.sroa.0.0.i108 = phi i64 [ %106, %bb3.i109 ], [ %104, %bb4.i106 ]
  %107 = add nuw nsw i64 %_0.sroa.0.0.i108, %_91
  br label %bb31

bb24:                                             ; preds = %bb21
  %_101 = add nuw nsw i64 %index.sroa.0.0, %73
  %108 = getelementptr inbounds nuw i8, ptr %result, i64 %_101
  %_99 = getelementptr inbounds nuw i8, ptr %108, i64 1
  %_317.i111 = icmp ugt i32 %72, 9999
  br i1 %_317.i111, label %bb2.i136, label %bb3.i112

bb3.i112:                                         ; preds = %bb2.i136, %bb24
  %result.sroa.0.0.lcssa.i113 = phi ptr [ %_99, %bb24 ], [ %_23.i151, %bb2.i136 ]
  %output.sroa.0.0.lcssa.i114 = phi i32 [ %72, %bb24 ], [ %_8.i139, %bb2.i136 ]
  %_26.i115 = icmp samesign ugt i32 %output.sroa.0.0.lcssa.i114, 99
  br i1 %_26.i115, label %bb4.i129, label %bb6.i116

bb2.i136:                                         ; preds = %bb24, %bb2.i136
  %output.sroa.0.019.i137 = phi i32 [ %_8.i139, %bb2.i136 ], [ %72, %bb24 ]
  %result.sroa.0.018.i138 = phi ptr [ %_23.i151, %bb2.i136 ], [ %_99, %bb24 ]
  %_8.i139 = udiv i32 %output.sroa.0.019.i137, 10000
  %_7.neg.i140 = mul i32 %_8.i139, -10000
  %c2.i141 = add i32 %_7.neg.i140, %output.sroa.0.019.i137
  %c2.i141.frozen = freeze i32 %c2.i141
  %_13.i144 = udiv i32 %c2.i141.frozen, 100
  %109 = mul i32 %_13.i144, 100
  %_11.i142.decomposed = sub i32 %c2.i141.frozen, %109
  %c0.i143 = shl nuw nsw i32 %_11.i142.decomposed, 1
  %c13.i145 = shl nuw nsw i32 %_13.i144, 1
  %_17.i146 = zext nneg i32 %c0.i143 to i64
  %_14.i147 = getelementptr inbounds nuw i8, ptr @_RNvNtCsfJNPX9h41mg_3ryu11digit_table11DIGIT_TABLE, i64 %_17.i146
  %_18.i148 = getelementptr inbounds i8, ptr %result.sroa.0.018.i138, i64 -2
  %110 = load i16, ptr %_14.i147, align 1
  store i16 %110, ptr %_18.i148, align 1
  %_22.i149 = zext nneg i32 %c13.i145 to i64
  %_20.i150 = getelementptr inbounds nuw i8, ptr @_RNvNtCsfJNPX9h41mg_3ryu11digit_table11DIGIT_TABLE, i64 %_22.i149
  %_23.i151 = getelementptr inbounds i8, ptr %result.sroa.0.018.i138, i64 -4
  %111 = load i16, ptr %_20.i150, align 1
  store i16 %111, ptr %_23.i151, align 1
  %_3.i152 = icmp ugt i32 %output.sroa.0.019.i137, 99999999
  br i1 %_3.i152, label %bb2.i136, label %bb3.i112

bb4.i129:                                         ; preds = %bb3.i112
  %_29.lhs.trunc.i130 = trunc nuw i32 %output.sroa.0.0.lcssa.i114 to i16
  %_29.lhs.trunc.i130.frozen = freeze i16 %_29.lhs.trunc.i130
  %112 = udiv i16 %_29.lhs.trunc.i130.frozen, 100
  %113 = mul i16 %112, 100
  %_2916.i131.decomposed = sub i16 %_29.lhs.trunc.i130.frozen, %113
  %114 = shl nuw nsw i16 %_2916.i131.decomposed, 1
  %.zext.i132 = zext nneg i16 %112 to i32
  %_34.i133 = zext nneg i16 %114 to i64
  %_31.i134 = getelementptr inbounds nuw i8, ptr @_RNvNtCsfJNPX9h41mg_3ryu11digit_table11DIGIT_TABLE, i64 %_34.i133
  %_35.i135 = getelementptr inbounds i8, ptr %result.sroa.0.0.lcssa.i113, i64 -2
  %115 = load i16, ptr %_31.i134, align 1
  store i16 %115, ptr %_35.i135, align 1
  br label %bb6.i116

bb6.i116:                                         ; preds = %bb4.i129, %bb3.i112
  %result.sroa.0.1.i117 = phi ptr [ %_35.i135, %bb4.i129 ], [ %result.sroa.0.0.lcssa.i113, %bb3.i112 ]
  %output.sroa.0.1.i118 = phi i32 [ %.zext.i132, %bb4.i129 ], [ %output.sroa.0.0.lcssa.i114, %bb3.i112 ]
  %_38.i119 = icmp samesign ugt i32 %output.sroa.0.1.i118, 9
  br i1 %_38.i119, label %bb7.i124, label %bb8.i120

bb8.i120:                                         ; preds = %bb6.i116
  %_46.i121 = trunc nuw nsw i32 %output.sroa.0.1.i118 to i8
  %_47.i122 = getelementptr inbounds i8, ptr %result.sroa.0.1.i117, i64 -1
  %116 = or disjoint i8 %_46.i121, 48
  store i8 %116, ptr %_47.i122, align 1
  br label %_RNvNtNtCsfJNPX9h41mg_3ryu6pretty8mantissa14write_mantissa.exit153

bb7.i124:                                         ; preds = %bb6.i116
  %c1.i125 = shl nuw nsw i32 %output.sroa.0.1.i118, 1
  %_44.i126 = zext nneg i32 %c1.i125 to i64
  %_41.i127 = getelementptr inbounds nuw i8, ptr @_RNvNtCsfJNPX9h41mg_3ryu11digit_table11DIGIT_TABLE, i64 %_44.i126
  %_45.i128 = getelementptr inbounds i8, ptr %result.sroa.0.1.i117, i64 -2
  %117 = load i16, ptr %_41.i127, align 1
  store i16 %117, ptr %_45.i128, align 1
  br label %_RNvNtNtCsfJNPX9h41mg_3ryu6pretty8mantissa14write_mantissa.exit153

_RNvNtNtCsfJNPX9h41mg_3ryu6pretty8mantissa14write_mantissa.exit153: ; preds = %bb8.i120, %bb7.i124
  %118 = getelementptr inbounds nuw i8, ptr %result, i64 %index.sroa.0.0
  %_104 = getelementptr inbounds nuw i8, ptr %118, i64 1
  %_103 = load i8, ptr %_104, align 1, !noundef !2
  store i8 %_103, ptr %118, align 1
  store i8 46, ptr %_104, align 1
  store i8 101, ptr %_99, align 1
  %_116 = add nuw nsw i64 %_101, 2
  %_123 = getelementptr inbounds nuw i8, ptr %result, i64 %_116
  %sign.i154 = icmp slt i64 %kk, 1
  br i1 %sign.i154, label %bb1.i167, label %bb2.i155

bb2.i155:                                         ; preds = %bb1.i167, %_RNvNtNtCsfJNPX9h41mg_3ryu6pretty8mantissa14write_mantissa.exit153
  %result.sroa.0.0.i156 = phi ptr [ %_5.i168, %bb1.i167 ], [ %_123, %_RNvNtNtCsfJNPX9h41mg_3ryu6pretty8mantissa14write_mantissa.exit153 ]
  %k.sroa.0.0.i157 = phi i64 [ %119, %bb1.i167 ], [ %75, %_RNvNtNtCsfJNPX9h41mg_3ryu6pretty8mantissa14write_mantissa.exit153 ]
  %_7.i158 = icmp samesign ugt i64 %k.sroa.0.0.i157, 9
  br i1 %_7.i158, label %bb3.i163, label %bb4.i159

bb1.i167:                                         ; preds = %_RNvNtNtCsfJNPX9h41mg_3ryu6pretty8mantissa14write_mantissa.exit153
  store i8 45, ptr %_123, align 1
  %_5.i168 = getelementptr inbounds nuw i8, ptr %_123, i64 1
  %119 = sub nsw i64 1, %kk
  br label %bb2.i155

bb4.i159:                                         ; preds = %bb2.i155
  %_14.i160 = trunc nuw nsw i64 %k.sroa.0.0.i157 to i8
  %120 = or disjoint i8 %_14.i160, 48
  store i8 %120, ptr %result.sroa.0.0.i156, align 1
  %.lobit.i161 = lshr i64 %75, 63
  %121 = add nuw nsw i64 %.lobit.i161, 1
  br label %_RNvNtNtCsfJNPX9h41mg_3ryu6pretty8exponent15write_exponent2.exit169

bb3.i163:                                         ; preds = %bb2.i155
  %_12.i164 = shl nuw nsw i64 %k.sroa.0.0.i157, 1
  %d.i165 = getelementptr inbounds nuw i8, ptr @_RNvNtCsfJNPX9h41mg_3ryu11digit_table11DIGIT_TABLE, i64 %_12.i164
  %122 = load i16, ptr %d.i165, align 1
  store i16 %122, ptr %result.sroa.0.0.i156, align 1
  %.lobit8.i166 = lshr i64 %75, 63
  %123 = or disjoint i64 %.lobit8.i166, 2
  br label %_RNvNtNtCsfJNPX9h41mg_3ryu6pretty8exponent15write_exponent2.exit169

_RNvNtNtCsfJNPX9h41mg_3ryu6pretty8exponent15write_exponent2.exit169: ; preds = %bb4.i159, %bb3.i163
  %_0.sroa.0.0.i162 = phi i64 [ %123, %bb3.i163 ], [ %121, %bb4.i159 ]
  %124 = add nuw nsw i64 %_0.sroa.0.0.i162, %_116
  br label %bb31

bb39:                                             ; preds = %bb38.preheader, %bb18
  %_79 = add nuw nsw i64 %index.sroa.0.0, %73
  %_78 = add nuw nsw i64 %_79, %offset
  %_77 = getelementptr inbounds nuw i8, ptr %result, i64 %_78
  %_317.i170 = icmp ugt i32 %72, 9999
  br i1 %_317.i170, label %bb2.i195, label %bb3.i171

bb3.i171:                                         ; preds = %bb2.i195, %bb39
  %result.sroa.0.0.lcssa.i172 = phi ptr [ %_77, %bb39 ], [ %_23.i210, %bb2.i195 ]
  %output.sroa.0.0.lcssa.i173 = phi i32 [ %72, %bb39 ], [ %_8.i198, %bb2.i195 ]
  %_26.i174 = icmp samesign ugt i32 %output.sroa.0.0.lcssa.i173, 99
  br i1 %_26.i174, label %bb4.i188, label %bb6.i175

bb2.i195:                                         ; preds = %bb39, %bb2.i195
  %output.sroa.0.019.i196 = phi i32 [ %_8.i198, %bb2.i195 ], [ %72, %bb39 ]
  %result.sroa.0.018.i197 = phi ptr [ %_23.i210, %bb2.i195 ], [ %_77, %bb39 ]
  %_8.i198 = udiv i32 %output.sroa.0.019.i196, 10000
  %_7.neg.i199 = mul i32 %_8.i198, -10000
  %c2.i200 = add i32 %_7.neg.i199, %output.sroa.0.019.i196
  %c2.i200.frozen = freeze i32 %c2.i200
  %_13.i203 = udiv i32 %c2.i200.frozen, 100
  %125 = mul i32 %_13.i203, 100
  %_11.i201.decomposed = sub i32 %c2.i200.frozen, %125
  %c0.i202 = shl nuw nsw i32 %_11.i201.decomposed, 1
  %c13.i204 = shl nuw nsw i32 %_13.i203, 1
  %_17.i205 = zext nneg i32 %c0.i202 to i64
  %_14.i206 = getelementptr inbounds nuw i8, ptr @_RNvNtCsfJNPX9h41mg_3ryu11digit_table11DIGIT_TABLE, i64 %_17.i205
  %_18.i207 = getelementptr inbounds i8, ptr %result.sroa.0.018.i197, i64 -2
  %126 = load i16, ptr %_14.i206, align 1
  store i16 %126, ptr %_18.i207, align 1
  %_22.i208 = zext nneg i32 %c13.i204 to i64
  %_20.i209 = getelementptr inbounds nuw i8, ptr @_RNvNtCsfJNPX9h41mg_3ryu11digit_table11DIGIT_TABLE, i64 %_22.i208
  %_23.i210 = getelementptr inbounds i8, ptr %result.sroa.0.018.i197, i64 -4
  %127 = load i16, ptr %_20.i209, align 1
  store i16 %127, ptr %_23.i210, align 1
  %_3.i211 = icmp ugt i32 %output.sroa.0.019.i196, 99999999
  br i1 %_3.i211, label %bb2.i195, label %bb3.i171

bb4.i188:                                         ; preds = %bb3.i171
  %_29.lhs.trunc.i189 = trunc nuw i32 %output.sroa.0.0.lcssa.i173 to i16
  %_29.lhs.trunc.i189.frozen = freeze i16 %_29.lhs.trunc.i189
  %128 = udiv i16 %_29.lhs.trunc.i189.frozen, 100
  %129 = mul i16 %128, 100
  %_2916.i190.decomposed = sub i16 %_29.lhs.trunc.i189.frozen, %129
  %130 = shl nuw nsw i16 %_2916.i190.decomposed, 1
  %.zext.i191 = zext nneg i16 %128 to i32
  %_34.i192 = zext nneg i16 %130 to i64
  %_31.i193 = getelementptr inbounds nuw i8, ptr @_RNvNtCsfJNPX9h41mg_3ryu11digit_table11DIGIT_TABLE, i64 %_34.i192
  %_35.i194 = getelementptr inbounds i8, ptr %result.sroa.0.0.lcssa.i172, i64 -2
  %131 = load i16, ptr %_31.i193, align 1
  store i16 %131, ptr %_35.i194, align 1
  br label %bb6.i175

bb6.i175:                                         ; preds = %bb4.i188, %bb3.i171
  %result.sroa.0.1.i176 = phi ptr [ %_35.i194, %bb4.i188 ], [ %result.sroa.0.0.lcssa.i172, %bb3.i171 ]
  %output.sroa.0.1.i177 = phi i32 [ %.zext.i191, %bb4.i188 ], [ %output.sroa.0.0.lcssa.i173, %bb3.i171 ]
  %_38.i178 = icmp samesign ugt i32 %output.sroa.0.1.i177, 9
  br i1 %_38.i178, label %bb7.i183, label %bb8.i179

bb8.i179:                                         ; preds = %bb6.i175
  %_46.i180 = trunc nuw nsw i32 %output.sroa.0.1.i177 to i8
  %_47.i181 = getelementptr inbounds i8, ptr %result.sroa.0.1.i176, i64 -1
  %132 = or disjoint i8 %_46.i180, 48
  store i8 %132, ptr %_47.i181, align 1
  br label %bb31

bb7.i183:                                         ; preds = %bb6.i175
  %c1.i184 = shl nuw nsw i32 %output.sroa.0.1.i177, 1
  %_44.i185 = zext nneg i32 %c1.i184 to i64
  %_41.i186 = getelementptr inbounds nuw i8, ptr @_RNvNtCsfJNPX9h41mg_3ryu11digit_table11DIGIT_TABLE, i64 %_44.i185
  %_45.i187 = getelementptr inbounds i8, ptr %result.sroa.0.1.i176, i64 -2
  %133 = load i16, ptr %_41.i186, align 1
  store i16 %133, ptr %_45.i187, align 1
  br label %bb31

bb33:                                             ; preds = %bb32.preheader, %_RNvNtNtCsfJNPX9h41mg_3ryu6pretty8mantissa14write_mantissa.exit
  %_33 = add nuw nsw i64 %kk, %index.sroa.0.0
  %_32 = getelementptr inbounds nuw i8, ptr %result, i64 %_33
  store i8 46, ptr %_32, align 1
  %_35 = getelementptr inbounds nuw i8, ptr %_32, i64 1
  store i8 48, ptr %_35, align 1
  %134 = add nuw nsw i64 %_33, 2
  br label %bb31
}

; ryu::pretty::format64
; Function Attrs: nofree norecurse nosync nounwind memory(argmem: readwrite, inaccessiblemem: write) uwtable
define noundef range(i64 -2147483645, 25) i64 @_RNvNtCsfJNPX9h41mg_3ryu6pretty8format64(double noundef %f, ptr noundef captures(none) %result) unnamed_addr #0 {
start:
  %bits = bitcast double %f to i64
  %ieee_mantissa = and i64 %bits, 4503599627370495
  %_10 = lshr i64 %bits, 52
  %_9 = trunc nuw nsw i64 %_10 to i32
  %ieee_exponent = and i32 %_9, 2047
  %0 = icmp sgt i64 %bits, -1
  br i1 %0, label %bb2, label %bb1

bb2:                                              ; preds = %bb1, %start
  %index.sroa.0.0 = phi i64 [ 0, %start ], [ 1, %bb1 ]
  %1 = icmp eq i32 %ieee_exponent, 0
  %2 = icmp eq i64 %ieee_mantissa, 0
  %or.cond = and i1 %2, %1
  br i1 %or.cond, label %bb4, label %bb5

bb1:                                              ; preds = %start
  store i8 45, ptr %result, align 1
  br label %bb2

bb5:                                              ; preds = %bb2
  %3 = add nsw i32 %ieee_exponent, -1077
  %4 = or disjoint i64 %ieee_mantissa, 4503599627370496
  %m2.sroa.0.0.i = select i1 %1, i64 %ieee_mantissa, i64 %4
  %e2.sroa.0.0.i = select i1 %1, i32 -1076, i32 %3
  %_9.i = and i64 %m2.sroa.0.0.i, 1
  %even.i = icmp eq i64 %_9.i, 0
  %5 = shl nuw nsw i64 %m2.sroa.0.0.i, 2
  %6 = icmp ne i64 %ieee_mantissa, 0
  %7 = icmp samesign ult i32 %ieee_exponent, 2
  %_12.sroa.0.0.off0.i = select i1 %6, i1 true, i1 %7
  %mm_shift.i = zext i1 %_12.sroa.0.0.off0.i to i32
  %_16.i = icmp sgt i32 %e2.sroa.0.0.i, -1
  br i1 %_16.i, label %bb7.i, label %bb16.i

bb16.i:                                           ; preds = %bb5
  %_170.i = mul nsw i32 %e2.sroa.0.0.i, -732923
  %_51.i = lshr i32 %_170.i, 20
  %_54.i = icmp ne i32 %e2.sroa.0.0.i, -1
  %_53.neg.i = sext i1 %_54.i to i32
  %q.i = add nsw i32 %_51.i, %_53.neg.i
  %8 = add nsw i32 %q.i, %e2.sroa.0.0.i
  %i.i = sub nsw i32 0, %8
  %_174.i = mul i32 %8, 65891505
  %_173.i = lshr i32 %_174.i, 19
  %k.neg.i = add nsw i32 %q.i, 124
  %j.i = sub nsw i32 %k.neg.i, %_173.i
  %_63.i = zext nneg i32 %i.i to i64
  %_177.i = icmp ult i32 %i.i, 326
  tail call void @llvm.assume(i1 %_177.i)
  %_176.i = getelementptr inbounds nuw { i64, i64 }, ptr @_RNvNtCsfJNPX9h41mg_3ryu14d2s_full_table17DOUBLE_POW5_SPLIT, i64 %_63.i
  %_176.val.i = load i64, ptr %_176.i, align 8, !noundef !2
  %9 = getelementptr i8, ptr %_176.i, i64 8
  %_176.val97.i = load i64, ptr %9, align 8, !noundef !2
  %_8.i.i = or disjoint i64 %5, 2
  %_15.i.i = zext nneg i64 %_8.i.i to i128
  %_16.i.i = zext i64 %_176.val.i to i128
  %_14.i.i = mul nuw nsw i128 %_16.i.i, %_15.i.i
  %_19.i.i = zext i64 %_176.val97.i to i128
  %_18.i.i = mul nuw nsw i128 %_19.i.i, %_15.i.i
  %_23.i.i = lshr i128 %_14.i.i, 64
  %_22.i.i = add nuw nsw i128 %_23.i.i, %_18.i.i
  %10 = and i32 %j.i, 127
  %11 = xor i32 %10, 64
  %12 = zext nneg i32 %11 to i128
  %_21.i.i = lshr i128 %_22.i.i, %12
  %_7.i.i = trunc i128 %_21.i.i to i64
  %13 = xor i32 %mm_shift.i, -1
  %14 = sext i32 %13 to i64
  %_11.i.i = add nsw i64 %5, %14
  %_26.i.i = zext i64 %_11.i.i to i128
  %_25.i.i = mul nuw i128 %_16.i.i, %_26.i.i
  %_29.i.i = mul nuw i128 %_19.i.i, %_26.i.i
  %_34.i.i = lshr i128 %_25.i.i, 64
  %_33.i.i = add nuw i128 %_34.i.i, %_29.i.i
  %_32.i.i = lshr i128 %_33.i.i, %12
  %_10.i.i = trunc i128 %_32.i.i to i64
  %_36.i.i = zext nneg i64 %5 to i128
  %_35.i.i = mul nuw nsw i128 %_16.i.i, %_36.i.i
  %_39.i.i = mul nuw nsw i128 %_19.i.i, %_36.i.i
  %_44.i.i = lshr i128 %_35.i.i, 64
  %_43.i.i = add nuw nsw i128 %_44.i.i, %_39.i.i
  %_42.i.i = lshr i128 %_43.i.i, %12
  %_0.i.i = trunc i128 %_42.i.i to i64
  %_71.i = icmp ult i32 %q.i, 2
  br i1 %_71.i, label %bb18.i, label %bb21.i

bb7.i:                                            ; preds = %bb5
  %_144.i = mul nuw nsw i32 %e2.sroa.0.0.i, 78913
  %_18.i = lshr i32 %_144.i, 18
  %_20.i = icmp samesign ugt i32 %e2.sroa.0.0.i, 3
  %_19.neg.i = sext i1 %_20.i to i32
  %q1.i = add nsw i32 %_18.i, %_19.neg.i
  %_148.i = mul nuw nsw i32 %q1.i, 1217359
  %_147.i = lshr i32 %_148.i, 19
  %reass.sub = sub nsw i32 %q1.i, %e2.sroa.0.0.i
  %_26.i = add nsw i32 %reass.sub, 125
  %i3.i = add nsw i32 %_26.i, %_147.i
  %_30.i = zext nneg i32 %q1.i to i64
  %_151.i = icmp ult i32 %q1.i, 342
  tail call void @llvm.assume(i1 %_151.i)
  %_150.i = getelementptr inbounds nuw { i64, i64 }, ptr @_RNvNtCsfJNPX9h41mg_3ryu14d2s_full_table21DOUBLE_POW5_INV_SPLIT, i64 %_30.i
  %_150.val.i = load i64, ptr %_150.i, align 8, !noundef !2
  %15 = getelementptr i8, ptr %_150.i, i64 8
  %_150.val96.i = load i64, ptr %15, align 8, !noundef !2
  %_8.i99.i = or disjoint i64 %5, 2
  %_15.i100.i = zext nneg i64 %_8.i99.i to i128
  %_16.i101.i = zext i64 %_150.val.i to i128
  %_14.i102.i = mul nuw nsw i128 %_16.i101.i, %_15.i100.i
  %_19.i103.i = zext i64 %_150.val96.i to i128
  %_18.i104.i = mul nuw nsw i128 %_19.i103.i, %_15.i100.i
  %_23.i105.i = lshr i128 %_14.i102.i, 64
  %_22.i106.i = add nuw nsw i128 %_23.i105.i, %_18.i104.i
  %16 = and i32 %i3.i, 127
  %17 = xor i32 %16, 64
  %18 = zext nneg i32 %17 to i128
  %_21.i107.i = lshr i128 %_22.i106.i, %18
  %_7.i108.i = trunc i128 %_21.i107.i to i64
  %19 = xor i32 %mm_shift.i, -1
  %20 = sext i32 %19 to i64
  %_11.i109.i = add nsw i64 %5, %20
  %_26.i110.i = zext i64 %_11.i109.i to i128
  %_25.i111.i = mul nuw i128 %_16.i101.i, %_26.i110.i
  %_29.i112.i = mul nuw i128 %_19.i103.i, %_26.i110.i
  %_34.i113.i = lshr i128 %_25.i111.i, 64
  %_33.i114.i = add nuw i128 %_34.i113.i, %_29.i112.i
  %_32.i115.i = lshr i128 %_33.i114.i, %18
  %_10.i116.i = trunc i128 %_32.i115.i to i64
  %_36.i117.i = zext nneg i64 %5 to i128
  %_35.i118.i = mul nuw nsw i128 %_16.i101.i, %_36.i117.i
  %_39.i119.i = mul nuw nsw i128 %_19.i103.i, %_36.i117.i
  %_44.i120.i = lshr i128 %_35.i118.i, 64
  %_43.i121.i = add nuw nsw i128 %_44.i120.i, %_39.i119.i
  %_42.i122.i = lshr i128 %_43.i121.i, %18
  %_0.i123.i = trunc i128 %_42.i122.i to i64
  %_36.i = icmp samesign ult i32 %q1.i, 22
  br i1 %_36.i, label %bb9.i, label %bb43.i

bb21.i:                                           ; preds = %bb16.i
  %_72.i = icmp ult i32 %q.i, 63
  br i1 %_72.i, label %bb22.i, label %bb43.i

bb18.i:                                           ; preds = %bb16.i
  %not.even.i = xor i1 %even.i, true
  %21 = sext i1 %not.even.i to i64
  %spec.select179.i = add i64 %_7.i.i, %21
  %spec.select180.i = select i1 %even.i, i1 %_12.sroa.0.0.off0.i, i1 false
  br label %bb24.preheader.i

bb22.i:                                           ; preds = %bb21.i
  %22 = zext nneg i32 %q.i to i64
  %notmask.i = shl nsw i64 -1, %22
  %_185.i = xor i64 %notmask.i, -1
  %_184.i = and i64 %5, %_185.i
  %23 = icmp eq i64 %_184.i, 0
  br i1 %23, label %bb24.preheader.i, label %bb43.i

bb24.preheader.i:                                 ; preds = %bb14.i, %bb22.i, %bb18.i
  %vm.sroa.0.0.ph.i = phi i64 [ %_10.i.i, %bb22.i ], [ %_10.i116.i, %bb14.i ], [ %_10.i.i, %bb18.i ]
  %vp.sroa.0.1.ph.i = phi i64 [ %_7.i.i, %bb22.i ], [ %vp.sroa.0.3.i, %bb14.i ], [ %spec.select179.i, %bb18.i ]
  %vr.sroa.0.0.ph.i = phi i64 [ %_0.i.i, %bb22.i ], [ %_0.i123.i, %bb14.i ], [ %_0.i.i, %bb18.i ]
  %vm_is_trailing_zeros.sroa.0.1.off0.ph.i = phi i1 [ false, %bb22.i ], [ %vm_is_trailing_zeros.sroa.0.2.off0.i, %bb14.i ], [ %spec.select180.i, %bb18.i ]
  %vr_is_trailing_zeros.sroa.0.0.off0.ph.i = phi i1 [ true, %bb22.i ], [ %vr_is_trailing_zeros.sroa.0.1.off0.i, %bb14.i ], [ true, %bb18.i ]
  %e10.sroa.0.0.ph.i = phi i32 [ %8, %bb22.i ], [ %q1.i, %bb14.i ], [ %8, %bb18.i ]
  %vp_div104136.i = udiv i64 %vp.sroa.0.1.ph.i, 10
  %vm_div105137.i = udiv i64 %vm.sroa.0.0.ph.i, 10
  %_82.not138.i = icmp samesign ugt i64 %vp_div104136.i, %vm_div105137.i
  br i1 %_82.not138.i, label %bb26.i, label %bb25.i

bb9.i:                                            ; preds = %bb7.i
  %_38.i = trunc i64 %5 to i32
  %_41.i = udiv i64 %5, 5
  %_40.i = trunc i64 %_41.i to i32
  %_39.neg.i = mul i32 %_40.i, -5
  %mv_mod5.i = sub i32 0, %_38.i
  %24 = icmp eq i32 %_39.neg.i, %mv_mod5.i
  br i1 %24, label %bb53.i, label %bb11.i

bb43.i:                                           ; preds = %bb14.i, %bb22.i, %bb21.i, %bb7.i
  %vm.sroa.0.1.i = phi i64 [ %_10.i116.i, %bb14.i ], [ %_10.i.i, %bb22.i ], [ %_10.i.i, %bb21.i ], [ %_10.i116.i, %bb7.i ]
  %vp.sroa.0.2.i = phi i64 [ %vp.sroa.0.3.i, %bb14.i ], [ %_7.i.i, %bb22.i ], [ %_7.i.i, %bb21.i ], [ %_7.i108.i, %bb7.i ]
  %vr.sroa.0.1.i = phi i64 [ %_0.i123.i, %bb14.i ], [ %_0.i.i, %bb22.i ], [ %_0.i.i, %bb21.i ], [ %_0.i123.i, %bb7.i ]
  %e10.sroa.0.1.i = phi i32 [ %q1.i, %bb14.i ], [ %8, %bb22.i ], [ %8, %bb21.i ], [ %q1.i, %bb7.i ]
  %vp_div100.i = udiv i64 %vp.sroa.0.2.i, 100
  %vm_div100.i = udiv i64 %vm.sroa.0.1.i, 100
  %_123.i = icmp samesign ugt i64 %vp_div100.i, %vm_div100.i
  br i1 %_123.i, label %bb44.i, label %bb45.i

bb11.i:                                           ; preds = %bb9.i
  br i1 %even.i, label %bb12.i, label %bb59.i

bb53.i:                                           ; preds = %bb9.i, %bb53.i
  %_158.sroa.0.0.i = phi i32 [ %25, %bb53.i ], [ 0, %bb9.i ]
  %mv.sroa.0.0.i = phi i64 [ %_159.i, %bb53.i ], [ %5, %bb9.i ]
  %_159.i = mul i64 %mv.sroa.0.0.i, -3689348814741910323
  %_160.i = icmp ugt i64 %_159.i, 3689348814741910323
  %25 = add i32 %_158.sroa.0.0.i, 1
  br i1 %_160.i, label %bb54.i, label %bb53.i

bb54.i:                                           ; preds = %bb53.i
  %26 = icmp uge i32 %_158.sroa.0.0.i, %q1.i
  br label %bb14.i

bb14.i:                                           ; preds = %bb57.i, %bb60.i, %bb54.i
  %vp.sroa.0.3.i = phi i64 [ %_7.i108.i, %bb54.i ], [ %_7.i108.i, %bb57.i ], [ %29, %bb60.i ]
  %vm_is_trailing_zeros.sroa.0.2.off0.i = phi i1 [ false, %bb54.i ], [ %31, %bb57.i ], [ false, %bb60.i ]
  %vr_is_trailing_zeros.sroa.0.1.off0.i = phi i1 [ %26, %bb54.i ], [ false, %bb57.i ], [ false, %bb60.i ]
  %or.cond.i = select i1 %vm_is_trailing_zeros.sroa.0.2.off0.i, i1 true, i1 %vr_is_trailing_zeros.sroa.0.1.off0.i
  br i1 %or.cond.i, label %bb24.preheader.i, label %bb43.i

bb12.i:                                           ; preds = %bb11.i
  %_45.i = add nsw i64 %5, -1
  %_46.neg.i = sext i1 %_12.sroa.0.0.off0.i to i64
  %27 = add nsw i64 %_45.i, %_46.neg.i
  br label %bb56.i

bb59.i:                                           ; preds = %bb11.i, %bb59.i
  %_49.sroa.0.0.i = phi i64 [ %_167.i, %bb59.i ], [ %_8.i99.i, %bb11.i ]
  %_166.sroa.0.0.i = phi i32 [ %28, %bb59.i ], [ 0, %bb11.i ]
  %_167.i = mul i64 %_49.sroa.0.0.i, -3689348814741910323
  %_168.i = icmp ugt i64 %_167.i, 3689348814741910323
  %28 = add i32 %_166.sroa.0.0.i, 1
  br i1 %_168.i, label %bb60.i, label %bb59.i

bb60.i:                                           ; preds = %bb59.i
  %_48.i = icmp uge i32 %_166.sroa.0.0.i, %q1.i
  %_47.neg.i = sext i1 %_48.i to i64
  %29 = add i64 %_47.neg.i, %_7.i108.i
  br label %bb14.i

bb56.i:                                           ; preds = %bb56.i, %bb12.i
  %_44.sroa.0.0.i = phi i64 [ %27, %bb12.i ], [ %_163.i, %bb56.i ]
  %_162.sroa.0.0.i = phi i32 [ 0, %bb12.i ], [ %30, %bb56.i ]
  %_163.i = mul i64 %_44.sroa.0.0.i, -3689348814741910323
  %_164.i = icmp ugt i64 %_163.i, 3689348814741910323
  %30 = add i32 %_162.sroa.0.0.i, 1
  br i1 %_164.i, label %bb57.i, label %bb56.i

bb57.i:                                           ; preds = %bb56.i
  %31 = icmp uge i32 %_162.sroa.0.0.i, %q1.i
  br label %bb14.i

bb45.i:                                           ; preds = %bb44.i, %bb43.i
  %removed.sroa.0.3.i = phi i32 [ 2, %bb44.i ], [ 0, %bb43.i ]
  %round_up.sroa.0.0.off0.i = phi i1 [ %32, %bb44.i ], [ false, %bb43.i ]
  %vm.sroa.0.2.i = phi i64 [ %vm_div100.i, %bb44.i ], [ %vm.sroa.0.1.i, %bb43.i ]
  %vp.sroa.0.4.i = phi i64 [ %vp_div100.i, %bb44.i ], [ %vp.sroa.0.2.i, %bb43.i ]
  %vr.sroa.0.2.i = phi i64 [ %vr_div100.i, %bb44.i ], [ %vr.sroa.0.1.i, %bb43.i ]
  %vp_div10126.i = udiv i64 %vp.sroa.0.4.i, 10
  %vm_div10127.i = udiv i64 %vm.sroa.0.2.i, 10
  %_133.not128.i = icmp samesign ugt i64 %vp_div10126.i, %vm_div10127.i
  br i1 %_133.not128.i, label %bb48.i, label %bb47.i

bb44.i:                                           ; preds = %bb43.i
  %vr_div100.i = udiv i64 %vr.sroa.0.1.i, 100
  %_127.i = trunc i64 %vr.sroa.0.1.i to i32
  %_129.i = trunc i64 %vr_div100.i to i32
  %_128.neg.i = mul i32 %_129.i, -100
  %vr_mod100.i = add i32 %_128.neg.i, %_127.i
  %32 = icmp ugt i32 %vr_mod100.i, 49
  br label %bb45.i

bb48.i:                                           ; preds = %bb45.i, %bb48.i
  %vm_div10132.i = phi i64 [ %vm_div10.i, %bb48.i ], [ %vm_div10127.i, %bb45.i ]
  %vp_div10131.i = phi i64 [ %vp_div10.i, %bb48.i ], [ %vp_div10126.i, %bb45.i ]
  %vr.sroa.0.3130.i = phi i64 [ %vr_div10.i, %bb48.i ], [ %vr.sroa.0.2.i, %bb45.i ]
  %removed.sroa.0.4129.i = phi i32 [ %33, %bb48.i ], [ %removed.sroa.0.3.i, %bb45.i ]
  %vr_div10.i = udiv i64 %vr.sroa.0.3130.i, 10
  %33 = add i32 %removed.sroa.0.4129.i, 1
  %vp_div10.i = udiv i64 %vp_div10131.i, 10
  %vm_div10.i = udiv i64 %vm_div10132.i, 10
  %_133.not.i = icmp samesign ugt i64 %vp_div10.i, %vm_div10.i
  br i1 %_133.not.i, label %bb48.i, label %bb46.bb47_crit_edge.i

bb46.bb47_crit_edge.i:                            ; preds = %bb48.i
  %_137.le.i = trunc i64 %vr.sroa.0.3130.i to i32
  %_139.le.i = trunc i64 %vr_div10.i to i32
  %_138.neg.le.i = mul i32 %_139.le.i, -10
  %vr_mod10.le.i = add i32 %_138.neg.le.i, %_137.le.i
  %34 = icmp ugt i32 %vr_mod10.le.i, 4
  br label %bb47.i

bb47.i:                                           ; preds = %bb46.bb47_crit_edge.i, %bb45.i
  %removed.sroa.0.4.lcssa.i = phi i32 [ %33, %bb46.bb47_crit_edge.i ], [ %removed.sroa.0.3.i, %bb45.i ]
  %round_up.sroa.0.1.off0.lcssa.i = phi i1 [ %34, %bb46.bb47_crit_edge.i ], [ %round_up.sroa.0.0.off0.i, %bb45.i ]
  %vm.sroa.0.3.lcssa.i = phi i64 [ %vm_div10132.i, %bb46.bb47_crit_edge.i ], [ %vm.sroa.0.2.i, %bb45.i ]
  %vr.sroa.0.3.lcssa.i = phi i64 [ %vr_div10.i, %bb46.bb47_crit_edge.i ], [ %vr.sroa.0.2.i, %bb45.i ]
  %_142.i = icmp eq i64 %vr.sroa.0.3.lcssa.i, %vm.sroa.0.3.lcssa.i
  %spec.select.i = select i1 %_142.i, i1 true, i1 %round_up.sroa.0.1.off0.lcssa.i
  br label %_RNvNtCsfJNPX9h41mg_3ryu3d2s3d2d.exit

bb26.i:                                           ; preds = %bb24.preheader.i, %bb26.i
  %vm_div105146.i = phi i64 [ %vm_div105.i, %bb26.i ], [ %vm_div105137.i, %bb24.preheader.i ]
  %vp_div104145.i = phi i64 [ %vp_div104.i, %bb26.i ], [ %vp_div104136.i, %bb24.preheader.i ]
  %vr_is_trailing_zeros.sroa.0.0.off0144.i = phi i1 [ %36, %bb26.i ], [ %vr_is_trailing_zeros.sroa.0.0.off0.ph.i, %bb24.preheader.i ]
  %vm_is_trailing_zeros.sroa.0.1.off0143.i = phi i1 [ %35, %bb26.i ], [ %vm_is_trailing_zeros.sroa.0.1.off0.ph.i, %bb24.preheader.i ]
  %vr.sroa.0.0142.i = phi i64 [ %vr_div106.i, %bb26.i ], [ %vr.sroa.0.0.ph.i, %bb24.preheader.i ]
  %vm.sroa.0.0141.i = phi i64 [ %vm_div105146.i, %bb26.i ], [ %vm.sroa.0.0.ph.i, %bb24.preheader.i ]
  %removed.sroa.0.1140.i = phi i32 [ %37, %bb26.i ], [ 0, %bb24.preheader.i ]
  %last_removed_digit.sroa.0.1139.i = phi i8 [ %vr_mod107.i, %bb26.i ], [ 0, %bb24.preheader.i ]
  %_84.i = trunc i64 %vm.sroa.0.0141.i to i32
  %_86.i = trunc i64 %vm_div105146.i to i32
  %_85.neg.i = mul i32 %_86.i, -10
  %vr_div106.i = udiv i64 %vr.sroa.0.0142.i, 10
  %_90.i = trunc i64 %vr.sroa.0.0142.i to i8
  %_92.i = trunc i64 %vr_div106.i to i8
  %_91.neg.i = mul i8 %_92.i, -10
  %vr_mod107.i = add i8 %_91.neg.i, %_90.i
  %vm_mod10.i = sub i32 0, %_84.i
  %_93.i = icmp eq i32 %_85.neg.i, %vm_mod10.i
  %35 = and i1 %vm_is_trailing_zeros.sroa.0.1.off0143.i, %_93.i
  %_94.i = icmp eq i8 %last_removed_digit.sroa.0.1139.i, 0
  %36 = and i1 %vr_is_trailing_zeros.sroa.0.0.off0144.i, %_94.i
  %37 = add i32 %removed.sroa.0.1140.i, 1
  %vp_div104.i = udiv i64 %vp_div104145.i, 10
  %vm_div105.i = udiv i64 %vm_div105146.i, 10
  %_82.not.i = icmp samesign ugt i64 %vp_div104.i, %vm_div105.i
  br i1 %_82.not.i, label %bb26.i, label %bb25.i

bb25.i:                                           ; preds = %bb26.i, %bb24.preheader.i
  %last_removed_digit.sroa.0.1.lcssa.i = phi i8 [ 0, %bb24.preheader.i ], [ %vr_mod107.i, %bb26.i ]
  %removed.sroa.0.1.lcssa.i = phi i32 [ 0, %bb24.preheader.i ], [ %37, %bb26.i ]
  %vm.sroa.0.0.lcssa.i = phi i64 [ %vm.sroa.0.0.ph.i, %bb24.preheader.i ], [ %vm_div105146.i, %bb26.i ]
  %vr.sroa.0.0.lcssa.i = phi i64 [ %vr.sroa.0.0.ph.i, %bb24.preheader.i ], [ %vr_div106.i, %bb26.i ]
  %vm_is_trailing_zeros.sroa.0.1.off0.lcssa.i = phi i1 [ %vm_is_trailing_zeros.sroa.0.1.off0.ph.i, %bb24.preheader.i ], [ %35, %bb26.i ]
  %vr_is_trailing_zeros.sroa.0.0.off0.lcssa.i = phi i1 [ %vr_is_trailing_zeros.sroa.0.0.off0.ph.i, %bb24.preheader.i ], [ %36, %bb26.i ]
  br i1 %vm_is_trailing_zeros.sroa.0.1.off0.lcssa.i, label %bb27.preheader.i, label %bb30.i

bb27.preheader.i:                                 ; preds = %bb25.i
  %vm_div108153.i = udiv i64 %vm.sroa.0.0.lcssa.i, 10
  %_99154.i = trunc i64 %vm.sroa.0.0.lcssa.i to i32
  %_102155.i = trunc i64 %vm_div108153.i to i32
  %_101.neg156.i = mul i32 %_102155.i, -10
  %vm_mod109157.i = sub i32 0, %_99154.i
  %38 = icmp eq i32 %_101.neg156.i, %vm_mod109157.i
  br i1 %38, label %bb29.i, label %bb30.i

bb30.i:                                           ; preds = %bb29.i, %bb27.preheader.i, %bb25.i
  %last_removed_digit.sroa.0.2.i = phi i8 [ %last_removed_digit.sroa.0.1.lcssa.i, %bb25.i ], [ %last_removed_digit.sroa.0.1.lcssa.i, %bb27.preheader.i ], [ %vr_mod1012.i, %bb29.i ]
  %removed.sroa.0.6.i = phi i32 [ %removed.sroa.0.1.lcssa.i, %bb25.i ], [ %removed.sroa.0.1.lcssa.i, %bb27.preheader.i ], [ %43, %bb29.i ]
  %vm.sroa.0.4.i = phi i64 [ %vm.sroa.0.0.lcssa.i, %bb25.i ], [ %vm.sroa.0.0.lcssa.i, %bb27.preheader.i ], [ %vm_div108162.i, %bb29.i ]
  %vr.sroa.0.4.i = phi i64 [ %vr.sroa.0.0.lcssa.i, %bb25.i ], [ %vr.sroa.0.0.lcssa.i, %bb27.preheader.i ], [ %vr_div1011.i, %bb29.i ]
  %vr_is_trailing_zeros.sroa.0.2.off0.i = phi i1 [ %vr_is_trailing_zeros.sroa.0.0.off0.lcssa.i, %bb25.i ], [ %vr_is_trailing_zeros.sroa.0.0.off0.lcssa.i, %bb27.preheader.i ], [ %42, %bb29.i ]
  %39 = icmp eq i8 %last_removed_digit.sroa.0.2.i, 5
  %or.cond17.i = select i1 %vr_is_trailing_zeros.sroa.0.2.off0.i, i1 %39, i1 false
  %_112.i = and i64 %vr.sroa.0.4.i, 1
  %40 = icmp eq i64 %_112.i, 0
  %spec.select95.i = select i1 %40, i8 4, i8 5
  %last_removed_digit.sroa.0.4.i = select i1 %or.cond17.i, i8 %spec.select95.i, i8 %last_removed_digit.sroa.0.2.i
  %_117.i = icmp ne i64 %vr.sroa.0.4.i, %vm.sroa.0.4.i
  %or.cond15.i = and i1 %even.i, %vm_is_trailing_zeros.sroa.0.1.off0.lcssa.i
  %or.cond20.i = select i1 %_117.i, i1 true, i1 %or.cond15.i
  %41 = icmp ugt i8 %last_removed_digit.sroa.0.4.i, 4
  %not.or.cond20.i = xor i1 %or.cond20.i, true
  %narrow.i = select i1 %not.or.cond20.i, i1 true, i1 %41
  br label %_RNvNtCsfJNPX9h41mg_3ryu3d2s3d2d.exit

bb29.i:                                           ; preds = %bb27.preheader.i, %bb29.i
  %vm_div108162.i = phi i64 [ %vm_div108.i, %bb29.i ], [ %vm_div108153.i, %bb27.preheader.i ]
  %vr_is_trailing_zeros.sroa.0.3.off0161.i = phi i1 [ %42, %bb29.i ], [ %vr_is_trailing_zeros.sroa.0.0.off0.lcssa.i, %bb27.preheader.i ]
  %vr.sroa.0.5160.i = phi i64 [ %vr_div1011.i, %bb29.i ], [ %vr.sroa.0.0.lcssa.i, %bb27.preheader.i ]
  %removed.sroa.0.7159.i = phi i32 [ %43, %bb29.i ], [ %removed.sroa.0.1.lcssa.i, %bb27.preheader.i ]
  %last_removed_digit.sroa.0.3158.i = phi i8 [ %vr_mod1012.i, %bb29.i ], [ %last_removed_digit.sroa.0.1.lcssa.i, %bb27.preheader.i ]
  %vr_div1011.i = udiv i64 %vr.sroa.0.5160.i, 10
  %_107.i = trunc i64 %vr.sroa.0.5160.i to i8
  %_109.i = trunc i64 %vr_div1011.i to i8
  %_108.neg.i = mul i8 %_109.i, -10
  %vr_mod1012.i = add i8 %_108.neg.i, %_107.i
  %_110.i = icmp eq i8 %last_removed_digit.sroa.0.3158.i, 0
  %42 = and i1 %vr_is_trailing_zeros.sroa.0.3.off0161.i, %_110.i
  %43 = add i32 %removed.sroa.0.7159.i, 1
  %vm_div108.i = udiv i64 %vm_div108162.i, 10
  %_99.i = trunc i64 %vm_div108162.i to i32
  %_102.i = trunc i64 %vm_div108.i to i32
  %_101.neg.i = mul i32 %_102.i, -10
  %vm_mod109.i = sub i32 0, %_99.i
  %44 = icmp eq i32 %_101.neg.i, %vm_mod109.i
  br i1 %44, label %bb29.i, label %bb30.i

_RNvNtCsfJNPX9h41mg_3ryu3d2s3d2d.exit:            ; preds = %bb47.i, %bb30.i
  %narrow.sink.i = phi i1 [ %narrow.i, %bb30.i ], [ %spec.select.i, %bb47.i ]
  %vr.sroa.0.4.sink.i = phi i64 [ %vr.sroa.0.4.i, %bb30.i ], [ %vr.sroa.0.3.lcssa.i, %bb47.i ]
  %removed.sroa.0.5.i = phi i32 [ %removed.sroa.0.6.i, %bb30.i ], [ %removed.sroa.0.4.lcssa.i, %bb47.i ]
  %e10.sroa.0.2.i = phi i32 [ %e10.sroa.0.0.ph.i, %bb30.i ], [ %e10.sroa.0.1.i, %bb47.i ]
  %_116.sroa.0.0.off0.i = zext i1 %narrow.sink.i to i64
  %45 = add i64 %vr.sroa.0.4.sink.i, %_116.sroa.0.0.off0.i
  %exp.i = add i32 %e10.sroa.0.2.i, %removed.sroa.0.5.i
  %_2.i = icmp ugt i64 %45, 9999999999999999
  br i1 %_2.i, label %_RNvNtCsfJNPX9h41mg_3ryu3d2s16decimal_length17.exit, label %bb2.i

bb2.i:                                            ; preds = %_RNvNtCsfJNPX9h41mg_3ryu3d2s3d2d.exit
  %_3.i = icmp samesign ugt i64 %45, 999999999999999
  br i1 %_3.i, label %_RNvNtCsfJNPX9h41mg_3ryu3d2s16decimal_length17.exit, label %bb4.i

bb4.i:                                            ; preds = %bb2.i
  %_4.i = icmp samesign ugt i64 %45, 99999999999999
  br i1 %_4.i, label %_RNvNtCsfJNPX9h41mg_3ryu3d2s16decimal_length17.exit, label %bb6.i

bb6.i:                                            ; preds = %bb4.i
  %_5.i = icmp samesign ugt i64 %45, 9999999999999
  br i1 %_5.i, label %_RNvNtCsfJNPX9h41mg_3ryu3d2s16decimal_length17.exit, label %bb8.i

bb8.i:                                            ; preds = %bb6.i
  %_6.i = icmp samesign ugt i64 %45, 999999999999
  br i1 %_6.i, label %_RNvNtCsfJNPX9h41mg_3ryu3d2s16decimal_length17.exit, label %bb10.i

bb10.i:                                           ; preds = %bb8.i
  %_7.i = icmp samesign ugt i64 %45, 99999999999
  br i1 %_7.i, label %_RNvNtCsfJNPX9h41mg_3ryu3d2s16decimal_length17.exit, label %bb12.i45

bb12.i45:                                         ; preds = %bb10.i
  %_8.i = icmp samesign ugt i64 %45, 9999999999
  br i1 %_8.i, label %_RNvNtCsfJNPX9h41mg_3ryu3d2s16decimal_length17.exit, label %bb14.i46

bb14.i46:                                         ; preds = %bb12.i45
  %_9.i47 = icmp samesign ugt i64 %45, 999999999
  br i1 %_9.i47, label %_RNvNtCsfJNPX9h41mg_3ryu3d2s16decimal_length17.exit, label %bb16.i48

bb16.i48:                                         ; preds = %bb14.i46
  %_10.i = icmp samesign ugt i64 %45, 99999999
  br i1 %_10.i, label %_RNvNtCsfJNPX9h41mg_3ryu3d2s16decimal_length17.exit, label %bb18.i49

bb18.i49:                                         ; preds = %bb16.i48
  %_11.i = icmp samesign ugt i64 %45, 9999999
  br i1 %_11.i, label %_RNvNtCsfJNPX9h41mg_3ryu3d2s16decimal_length17.exit, label %bb20.i

bb20.i:                                           ; preds = %bb18.i49
  %_12.i = icmp samesign ugt i64 %45, 999999
  br i1 %_12.i, label %_RNvNtCsfJNPX9h41mg_3ryu3d2s16decimal_length17.exit, label %bb22.i50

bb22.i50:                                         ; preds = %bb20.i
  %_13.i = icmp samesign ugt i64 %45, 99999
  br i1 %_13.i, label %_RNvNtCsfJNPX9h41mg_3ryu3d2s16decimal_length17.exit, label %bb24.i

bb24.i:                                           ; preds = %bb22.i50
  %_14.i = icmp samesign ugt i64 %45, 9999
  br i1 %_14.i, label %_RNvNtCsfJNPX9h41mg_3ryu3d2s16decimal_length17.exit, label %bb26.i51

bb26.i51:                                         ; preds = %bb24.i
  %_15.i = icmp samesign ugt i64 %45, 999
  br i1 %_15.i, label %_RNvNtCsfJNPX9h41mg_3ryu3d2s16decimal_length17.exit, label %bb28.i

bb28.i:                                           ; preds = %bb26.i51
  %_16.i52 = icmp samesign ugt i64 %45, 99
  br i1 %_16.i52, label %_RNvNtCsfJNPX9h41mg_3ryu3d2s16decimal_length17.exit, label %bb30.i53

bb30.i53:                                         ; preds = %bb28.i
  %_17.i = icmp samesign ugt i64 %45, 9
  %..i = select i1 %_17.i, i32 2, i32 1
  br label %_RNvNtCsfJNPX9h41mg_3ryu3d2s16decimal_length17.exit

_RNvNtCsfJNPX9h41mg_3ryu3d2s16decimal_length17.exit: ; preds = %_RNvNtCsfJNPX9h41mg_3ryu3d2s3d2d.exit, %bb2.i, %bb4.i, %bb6.i, %bb8.i, %bb10.i, %bb12.i45, %bb14.i46, %bb16.i48, %bb18.i49, %bb20.i, %bb22.i50, %bb24.i, %bb26.i51, %bb28.i, %bb30.i53
  %_0.sroa.0.0.i = phi i32 [ 17, %_RNvNtCsfJNPX9h41mg_3ryu3d2s3d2d.exit ], [ 16, %bb2.i ], [ 15, %bb4.i ], [ 14, %bb6.i ], [ 13, %bb8.i ], [ 12, %bb10.i ], [ 11, %bb12.i45 ], [ 10, %bb14.i46 ], [ 9, %bb16.i48 ], [ 8, %bb18.i49 ], [ 7, %bb20.i ], [ 6, %bb22.i50 ], [ 5, %bb24.i ], [ 4, %bb26.i51 ], [ %..i, %bb30.i53 ], [ 3, %bb28.i ]
  %46 = zext nneg i32 %_0.sroa.0.0.i to i64
  %k = sext i32 %exp.i to i64
  %kk = add nsw i64 %46, %k
  %_22 = icmp sgt i32 %exp.i, -1
  %_23 = icmp slt i64 %kk, 17
  %or.cond2 = and i1 %_22, %_23
  br i1 %or.cond2, label %bb9, label %bb12

bb4:                                              ; preds = %bb2
  %_14 = getelementptr inbounds nuw i8, ptr %result, i64 %index.sroa.0.0
  tail call void @llvm.memcpy.p0.p0.i64(ptr noundef nonnull align 1 dereferenceable(3) %_14, ptr noundef nonnull align 1 dereferenceable(3) @alloc_3eb9269319b653ee3300e6da2b545429, i64 3, i1 false)
  %bits.lobit = lshr i64 %bits, 63
  %47 = add nuw nsw i64 %bits.lobit, 3
  br label %bb31

bb31:                                             ; preds = %bb33, %bb39, %_RNvNtNtCsfJNPX9h41mg_3ryu6pretty8exponent15write_exponent3.exit92, %_RNvNtNtCsfJNPX9h41mg_3ryu6pretty8exponent15write_exponent3.exit, %bb14, %bb4
  %_0.sroa.0.0 = phi i64 [ %47, %bb4 ], [ %82, %bb33 ], [ %_47, %bb14 ], [ %_79, %bb39 ], [ %68, %_RNvNtNtCsfJNPX9h41mg_3ryu6pretty8exponent15write_exponent3.exit ], [ %81, %_RNvNtNtCsfJNPX9h41mg_3ryu6pretty8exponent15write_exponent3.exit92 ]
  ret i64 %_0.sroa.0.0

bb12:                                             ; preds = %_RNvNtCsfJNPX9h41mg_3ryu3d2s16decimal_length17.exit
  %48 = add nsw i64 %kk, -1
  %or.cond3 = icmp ult i64 %48, 16
  br i1 %or.cond3, label %bb14, label %bb16

bb9:                                              ; preds = %_RNvNtCsfJNPX9h41mg_3ryu3d2s16decimal_length17.exit
  %49 = getelementptr inbounds nuw i8, ptr %result, i64 %index.sroa.0.0
  %_25 = getelementptr inbounds nuw i8, ptr %49, i64 %46
; call ryu::pretty::mantissa::write_mantissa_long
  tail call fastcc void @_RNvNtNtCsfJNPX9h41mg_3ryu6pretty8mantissa19write_mantissa_long(i64 noundef %45, ptr noundef nonnull %_25)
  %_128100.not = icmp eq i32 %exp.i, 0
  br i1 %_128100.not, label %bb33, label %bb32.preheader

bb32.preheader:                                   ; preds = %bb9
  %50 = getelementptr i8, ptr %result, i64 %index.sroa.0.0
  %scevgep107 = getelementptr i8, ptr %50, i64 %46
  tail call void @llvm.memset.p0.i64(ptr align 1 %scevgep107, i8 48, i64 %k, i1 false)
  br label %bb33

bb16:                                             ; preds = %bb12
  %51 = add nsw i64 %kk, 4
  %or.cond4 = icmp ult i64 %51, 5
  br i1 %or.cond4, label %bb18, label %bb21

bb14:                                             ; preds = %bb12
  %_48 = add nuw nsw i64 %index.sroa.0.0, 1
  %_47 = add nuw nsw i64 %_48, %46
  %_46 = getelementptr inbounds nuw i8, ptr %result, i64 %_47
; call ryu::pretty::mantissa::write_mantissa_long
  tail call fastcc void @_RNvNtNtCsfJNPX9h41mg_3ryu6pretty8mantissa19write_mantissa_long(i64 noundef %45, ptr noundef nonnull %_46)
  %52 = getelementptr inbounds nuw i8, ptr %result, i64 %index.sroa.0.0
  %_52 = getelementptr inbounds nuw i8, ptr %52, i64 1
  tail call void @llvm.memmove.p0.p0.i64(ptr align 1 %52, ptr nonnull align 1 %_52, i64 %kk, i1 false)
  %_58 = getelementptr inbounds nuw i8, ptr %52, i64 %kk
  store i8 46, ptr %_58, align 1
  br label %bb31

bb21:                                             ; preds = %bb16
  %53 = icmp eq i32 %_0.sroa.0.0.i, 1
  br i1 %53, label %bb22, label %bb24

bb18:                                             ; preds = %bb16
  %_66 = getelementptr inbounds nuw i8, ptr %result, i64 %index.sroa.0.0
  store i8 48, ptr %_66, align 1
  %_68 = getelementptr inbounds nuw i8, ptr %_66, i64 1
  store i8 46, ptr %_68, align 1
  %offset = sub nsw i64 2, %kk
  %_13798 = icmp slt i64 %kk, 0
  br i1 %_13798, label %bb38.preheader, label %bb39

bb38.preheader:                                   ; preds = %bb18
  %54 = getelementptr i8, ptr %result, i64 %index.sroa.0.0
  %scevgep = getelementptr i8, ptr %54, i64 2
  %55 = tail call i64 @llvm.umax.i64(i64 %offset, i64 3)
  %56 = add nsw i64 %55, -2
  tail call void @llvm.memset.p0.i64(ptr align 1 %scevgep, i8 48, i64 %56, i1 false)
  br label %bb39

bb22:                                             ; preds = %bb21
  %_86 = trunc i64 %45 to i8
  %_87 = getelementptr inbounds nuw i8, ptr %result, i64 %index.sroa.0.0
  %57 = add i8 %_86, 48
  store i8 %57, ptr %_87, align 1
  %_89 = getelementptr inbounds nuw i8, ptr %_87, i64 1
  store i8 101, ptr %_89, align 1
  %_92 = or disjoint i64 %index.sroa.0.0, 2
  %_97 = getelementptr inbounds nuw i8, ptr %result, i64 %_92
  %sign.i = icmp slt i64 %kk, 1
  br i1 %sign.i, label %bb1.i, label %bb2.i55

bb2.i55:                                          ; preds = %bb1.i, %bb22
  %result.sroa.0.0.i = phi ptr [ %_5.i65, %bb1.i ], [ %_97, %bb22 ]
  %k.sroa.0.0.i = phi i64 [ %58, %bb1.i ], [ %48, %bb22 ]
  %_7.i56 = icmp samesign ugt i64 %k.sroa.0.0.i, 99
  br i1 %_7.i56, label %bb3.i, label %bb4.i57

bb1.i:                                            ; preds = %bb22
  store i8 45, ptr %_97, align 1
  %_5.i65 = getelementptr inbounds nuw i8, ptr %_97, i64 1
  %58 = sub nsw i64 1, %kk
  br label %bb2.i55

bb4.i57:                                          ; preds = %bb2.i55
  %_18.i58 = icmp samesign ugt i64 %k.sroa.0.0.i, 9
  br i1 %_18.i58, label %bb5.i, label %bb6.i59

bb3.i:                                            ; preds = %bb2.i55
  %_10.lhs.trunc.i = trunc nuw i64 %k.sroa.0.0.i to i32
  %_10.lhs.trunc.i.frozen = freeze i32 %_10.lhs.trunc.i
  %_1017.i = udiv i32 %_10.lhs.trunc.i.frozen, 100
  %_9.i62 = trunc i32 %_1017.i to i8
  %59 = add i8 %_9.i62, 48
  store i8 %59, ptr %result.sroa.0.0.i, align 1
  %60 = mul i32 %_1017.i, 100
  %.decomposed = sub i32 %_10.lhs.trunc.i.frozen, %60
  %61 = shl nuw nsw i32 %.decomposed, 1
  %_15.i63 = zext nneg i32 %61 to i64
  %d1.i = getelementptr inbounds nuw i8, ptr @_RNvNtCsfJNPX9h41mg_3ryu11digit_table11DIGIT_TABLE, i64 %_15.i63
  %_16.i64 = getelementptr inbounds nuw i8, ptr %result.sroa.0.0.i, i64 1
  %62 = load i16, ptr %d1.i, align 1
  store i16 %62, ptr %_16.i64, align 1
  %.lobit16.i = lshr i64 %48, 63
  %63 = add nuw nsw i64 %.lobit16.i, 3
  br label %_RNvNtNtCsfJNPX9h41mg_3ryu6pretty8exponent15write_exponent3.exit

bb6.i59:                                          ; preds = %bb4.i57
  %_25.i = trunc nuw nsw i64 %k.sroa.0.0.i to i8
  %64 = or disjoint i8 %_25.i, 48
  store i8 %64, ptr %result.sroa.0.0.i, align 1
  %.lobit.i = lshr i64 %48, 63
  %65 = add nuw nsw i64 %.lobit.i, 1
  br label %_RNvNtNtCsfJNPX9h41mg_3ryu6pretty8exponent15write_exponent3.exit

bb5.i:                                            ; preds = %bb4.i57
  %_23.i = shl nuw nsw i64 %k.sroa.0.0.i, 1
  %d.i = getelementptr inbounds nuw i8, ptr @_RNvNtCsfJNPX9h41mg_3ryu11digit_table11DIGIT_TABLE, i64 %_23.i
  %66 = load i16, ptr %d.i, align 1
  store i16 %66, ptr %result.sroa.0.0.i, align 1
  %.lobit15.i = lshr i64 %48, 63
  %67 = or disjoint i64 %.lobit15.i, 2
  br label %_RNvNtNtCsfJNPX9h41mg_3ryu6pretty8exponent15write_exponent3.exit

_RNvNtNtCsfJNPX9h41mg_3ryu6pretty8exponent15write_exponent3.exit: ; preds = %bb3.i, %bb6.i59, %bb5.i
  %_0.sroa.0.0.i61 = phi i64 [ %63, %bb3.i ], [ %67, %bb5.i ], [ %65, %bb6.i59 ]
  %68 = add nuw nsw i64 %_0.sroa.0.0.i61, %_92
  br label %bb31

bb24:                                             ; preds = %bb21
  %_102 = add nuw nsw i64 %index.sroa.0.0, %46
  %69 = getelementptr inbounds nuw i8, ptr %result, i64 %_102
  %_100 = getelementptr inbounds nuw i8, ptr %69, i64 1
; call ryu::pretty::mantissa::write_mantissa_long
  tail call fastcc void @_RNvNtNtCsfJNPX9h41mg_3ryu6pretty8mantissa19write_mantissa_long(i64 noundef %45, ptr noundef nonnull %_100)
  %70 = getelementptr inbounds nuw i8, ptr %result, i64 %index.sroa.0.0
  %_105 = getelementptr inbounds nuw i8, ptr %70, i64 1
  %_104 = load i8, ptr %_105, align 1, !noundef !2
  store i8 %_104, ptr %70, align 1
  store i8 46, ptr %_105, align 1
  store i8 101, ptr %_100, align 1
  %_117 = add nuw nsw i64 %_102, 2
  %_124 = getelementptr inbounds nuw i8, ptr %result, i64 %_117
  %sign.i66 = icmp slt i64 %kk, 1
  br i1 %sign.i66, label %bb1.i90, label %bb2.i67

bb2.i67:                                          ; preds = %bb1.i90, %bb24
  %result.sroa.0.0.i68 = phi ptr [ %_5.i91, %bb1.i90 ], [ %_124, %bb24 ]
  %k.sroa.0.0.i69 = phi i64 [ %71, %bb1.i90 ], [ %48, %bb24 ]
  %_7.i70 = icmp samesign ugt i64 %k.sroa.0.0.i69, 99
  br i1 %_7.i70, label %bb3.i82, label %bb4.i71

bb1.i90:                                          ; preds = %bb24
  store i8 45, ptr %_124, align 1
  %_5.i91 = getelementptr inbounds nuw i8, ptr %_124, i64 1
  %71 = sub nsw i64 1, %kk
  br label %bb2.i67

bb4.i71:                                          ; preds = %bb2.i67
  %_18.i72 = icmp samesign ugt i64 %k.sroa.0.0.i69, 9
  br i1 %_18.i72, label %bb5.i78, label %bb6.i73

bb3.i82:                                          ; preds = %bb2.i67
  %_10.lhs.trunc.i83 = trunc nuw i64 %k.sroa.0.0.i69 to i32
  %_10.lhs.trunc.i83.frozen = freeze i32 %_10.lhs.trunc.i83
  %_1017.i84 = udiv i32 %_10.lhs.trunc.i83.frozen, 100
  %_9.i85 = trunc i32 %_1017.i84 to i8
  %72 = add i8 %_9.i85, 48
  store i8 %72, ptr %result.sroa.0.0.i68, align 1
  %73 = mul i32 %_1017.i84, 100
  %.decomposed129 = sub i32 %_10.lhs.trunc.i83.frozen, %73
  %74 = shl nuw nsw i32 %.decomposed129, 1
  %_15.i86 = zext nneg i32 %74 to i64
  %d1.i87 = getelementptr inbounds nuw i8, ptr @_RNvNtCsfJNPX9h41mg_3ryu11digit_table11DIGIT_TABLE, i64 %_15.i86
  %_16.i88 = getelementptr inbounds nuw i8, ptr %result.sroa.0.0.i68, i64 1
  %75 = load i16, ptr %d1.i87, align 1
  store i16 %75, ptr %_16.i88, align 1
  %.lobit16.i89 = lshr i64 %48, 63
  %76 = add nuw nsw i64 %.lobit16.i89, 3
  br label %_RNvNtNtCsfJNPX9h41mg_3ryu6pretty8exponent15write_exponent3.exit92

bb6.i73:                                          ; preds = %bb4.i71
  %_25.i74 = trunc nuw nsw i64 %k.sroa.0.0.i69 to i8
  %77 = or disjoint i8 %_25.i74, 48
  store i8 %77, ptr %result.sroa.0.0.i68, align 1
  %.lobit.i75 = lshr i64 %48, 63
  %78 = add nuw nsw i64 %.lobit.i75, 1
  br label %_RNvNtNtCsfJNPX9h41mg_3ryu6pretty8exponent15write_exponent3.exit92

bb5.i78:                                          ; preds = %bb4.i71
  %_23.i79 = shl nuw nsw i64 %k.sroa.0.0.i69, 1
  %d.i80 = getelementptr inbounds nuw i8, ptr @_RNvNtCsfJNPX9h41mg_3ryu11digit_table11DIGIT_TABLE, i64 %_23.i79
  %79 = load i16, ptr %d.i80, align 1
  store i16 %79, ptr %result.sroa.0.0.i68, align 1
  %.lobit15.i81 = lshr i64 %48, 63
  %80 = or disjoint i64 %.lobit15.i81, 2
  br label %_RNvNtNtCsfJNPX9h41mg_3ryu6pretty8exponent15write_exponent3.exit92

_RNvNtNtCsfJNPX9h41mg_3ryu6pretty8exponent15write_exponent3.exit92: ; preds = %bb3.i82, %bb6.i73, %bb5.i78
  %_0.sroa.0.0.i77 = phi i64 [ %76, %bb3.i82 ], [ %80, %bb5.i78 ], [ %78, %bb6.i73 ]
  %81 = add nuw nsw i64 %_0.sroa.0.0.i77, %_117
  br label %bb31

bb39:                                             ; preds = %bb38.preheader, %bb18
  %_80 = add nuw nsw i64 %index.sroa.0.0, %46
  %_79 = add nuw nsw i64 %_80, %offset
  %_78 = getelementptr inbounds nuw i8, ptr %result, i64 %_79
; call ryu::pretty::mantissa::write_mantissa_long
  tail call fastcc void @_RNvNtNtCsfJNPX9h41mg_3ryu6pretty8mantissa19write_mantissa_long(i64 noundef %45, ptr noundef nonnull %_78)
  br label %bb31

bb33:                                             ; preds = %bb32.preheader, %bb9
  %_34 = add nuw nsw i64 %kk, %index.sroa.0.0
  %_33 = getelementptr inbounds nuw i8, ptr %result, i64 %_34
  store i8 46, ptr %_33, align 1
  %_36 = getelementptr inbounds nuw i8, ptr %_33, i64 1
  store i8 48, ptr %_36, align 1
  %82 = add nuw nsw i64 %_34, 2
  br label %bb31
}

; ryu::pretty::mantissa::write_mantissa_long
; Function Attrs: nofree norecurse nosync nounwind memory(argmem: write) uwtable
define internal fastcc void @_RNvNtNtCsfJNPX9h41mg_3ryu6pretty8mantissa19write_mantissa_long(i64 noundef %0, ptr noundef writeonly captures(none) %1) unnamed_addr #1 {
start:
  %2 = icmp ult i64 %0, 4294967296
  br i1 %2, label %bb3, label %bb1

bb1:                                              ; preds = %start
  %_9 = udiv i64 %0, 100000000
  %_8.neg = mul i64 %_9, 4194967296
  %_6 = add i64 %_8.neg, %0
  %3 = trunc i64 %_6 to i32
  %4 = udiv i32 %3, 10000
  %5 = mul i32 %4, 10000
  %c.decomposed = sub i32 %3, %5
  %d = urem i32 %4, 10000
  %_15.lhs.trunc = trunc nuw nsw i32 %c.decomposed to i16
  %_15.lhs.trunc.frozen = freeze i16 %_15.lhs.trunc
  %_179 = udiv i16 %_15.lhs.trunc.frozen, 100
  %6 = mul i16 %_179, 100
  %_158.decomposed = sub i16 %_15.lhs.trunc.frozen, %6
  %7 = shl nuw nsw i16 %_158.decomposed, 1
  %8 = shl nuw nsw i16 %_179, 1
  %_19.lhs.trunc = trunc nuw nsw i32 %d to i16
  %_19.lhs.trunc.frozen = freeze i16 %_19.lhs.trunc
  %_2111 = udiv i16 %_19.lhs.trunc.frozen, 100
  %9 = mul i16 %_2111, 100
  %_1910.decomposed = sub i16 %_19.lhs.trunc.frozen, %9
  %10 = shl nuw nsw i16 %_1910.decomposed, 1
  %11 = shl nuw nsw i16 %_2111, 1
  %_25 = zext nneg i16 %7 to i64
  %_22 = getelementptr inbounds nuw i8, ptr @_RNvNtCsfJNPX9h41mg_3ryu11digit_table11DIGIT_TABLE, i64 %_25
  %_26 = getelementptr inbounds i8, ptr %1, i64 -2
  %12 = load i16, ptr %_22, align 1
  store i16 %12, ptr %_26, align 1
  %_30 = zext nneg i16 %8 to i64
  %_28 = getelementptr inbounds nuw i8, ptr @_RNvNtCsfJNPX9h41mg_3ryu11digit_table11DIGIT_TABLE, i64 %_30
  %_31 = getelementptr inbounds i8, ptr %1, i64 -4
  %13 = load i16, ptr %_28, align 1
  store i16 %13, ptr %_31, align 1
  %_35 = zext nneg i16 %10 to i64
  %_33 = getelementptr inbounds nuw i8, ptr @_RNvNtCsfJNPX9h41mg_3ryu11digit_table11DIGIT_TABLE, i64 %_35
  %_36 = getelementptr inbounds i8, ptr %1, i64 -6
  %14 = load i16, ptr %_33, align 1
  store i16 %14, ptr %_36, align 1
  %_40 = zext nneg i16 %11 to i64
  %_38 = getelementptr inbounds nuw i8, ptr @_RNvNtCsfJNPX9h41mg_3ryu11digit_table11DIGIT_TABLE, i64 %_40
  %_41 = getelementptr inbounds i8, ptr %1, i64 -8
  %15 = load i16, ptr %_38, align 1
  store i16 %15, ptr %_41, align 1
  br label %bb3

bb3:                                              ; preds = %start, %bb1
  %result.sroa.0.0 = phi ptr [ %1, %start ], [ %_41, %bb1 ]
  %output.sroa.0.0 = phi i64 [ %0, %start ], [ %_9, %bb1 ]
  %_45 = trunc i64 %output.sroa.0.0 to i32
  %_317.i = icmp ugt i32 %_45, 9999
  br i1 %_317.i, label %bb2.i, label %bb3.i

bb3.i:                                            ; preds = %bb2.i, %bb3
  %result.sroa.0.0.lcssa.i = phi ptr [ %result.sroa.0.0, %bb3 ], [ %_23.i, %bb2.i ]
  %output.sroa.0.0.lcssa.i = phi i32 [ %_45, %bb3 ], [ %_8.i, %bb2.i ]
  %_26.i = icmp samesign ugt i32 %output.sroa.0.0.lcssa.i, 99
  br i1 %_26.i, label %bb4.i, label %bb6.i

bb2.i:                                            ; preds = %bb3, %bb2.i
  %output.sroa.0.019.i = phi i32 [ %_8.i, %bb2.i ], [ %_45, %bb3 ]
  %result.sroa.0.018.i = phi ptr [ %_23.i, %bb2.i ], [ %result.sroa.0.0, %bb3 ]
  %_8.i = udiv i32 %output.sroa.0.019.i, 10000
  %_7.neg.i = mul i32 %_8.i, -10000
  %c2.i = add i32 %_7.neg.i, %output.sroa.0.019.i
  %c2.i.frozen = freeze i32 %c2.i
  %_13.i = udiv i32 %c2.i.frozen, 100
  %16 = mul i32 %_13.i, 100
  %_11.i.decomposed = sub i32 %c2.i.frozen, %16
  %c0.i = shl nuw nsw i32 %_11.i.decomposed, 1
  %c13.i = shl nuw nsw i32 %_13.i, 1
  %_17.i = zext nneg i32 %c0.i to i64
  %_14.i = getelementptr inbounds nuw i8, ptr @_RNvNtCsfJNPX9h41mg_3ryu11digit_table11DIGIT_TABLE, i64 %_17.i
  %_18.i = getelementptr inbounds i8, ptr %result.sroa.0.018.i, i64 -2
  %17 = load i16, ptr %_14.i, align 1
  store i16 %17, ptr %_18.i, align 1
  %_22.i = zext nneg i32 %c13.i to i64
  %_20.i = getelementptr inbounds nuw i8, ptr @_RNvNtCsfJNPX9h41mg_3ryu11digit_table11DIGIT_TABLE, i64 %_22.i
  %_23.i = getelementptr inbounds i8, ptr %result.sroa.0.018.i, i64 -4
  %18 = load i16, ptr %_20.i, align 1
  store i16 %18, ptr %_23.i, align 1
  %_3.i = icmp ugt i32 %output.sroa.0.019.i, 99999999
  br i1 %_3.i, label %bb2.i, label %bb3.i

bb4.i:                                            ; preds = %bb3.i
  %_29.lhs.trunc.i = trunc nuw i32 %output.sroa.0.0.lcssa.i to i16
  %_29.lhs.trunc.i.frozen = freeze i16 %_29.lhs.trunc.i
  %19 = udiv i16 %_29.lhs.trunc.i.frozen, 100
  %20 = mul i16 %19, 100
  %_2916.i.decomposed = sub i16 %_29.lhs.trunc.i.frozen, %20
  %21 = shl nuw nsw i16 %_2916.i.decomposed, 1
  %.zext.i = zext nneg i16 %19 to i32
  %_34.i = zext nneg i16 %21 to i64
  %_31.i = getelementptr inbounds nuw i8, ptr @_RNvNtCsfJNPX9h41mg_3ryu11digit_table11DIGIT_TABLE, i64 %_34.i
  %_35.i = getelementptr inbounds i8, ptr %result.sroa.0.0.lcssa.i, i64 -2
  %22 = load i16, ptr %_31.i, align 1
  store i16 %22, ptr %_35.i, align 1
  br label %bb6.i

bb6.i:                                            ; preds = %bb4.i, %bb3.i
  %result.sroa.0.1.i = phi ptr [ %_35.i, %bb4.i ], [ %result.sroa.0.0.lcssa.i, %bb3.i ]
  %output.sroa.0.1.i = phi i32 [ %.zext.i, %bb4.i ], [ %output.sroa.0.0.lcssa.i, %bb3.i ]
  %_38.i = icmp samesign ugt i32 %output.sroa.0.1.i, 9
  br i1 %_38.i, label %bb7.i, label %bb8.i

bb8.i:                                            ; preds = %bb6.i
  %_46.i = trunc nuw nsw i32 %output.sroa.0.1.i to i8
  %_47.i = getelementptr inbounds i8, ptr %result.sroa.0.1.i, i64 -1
  %23 = or disjoint i8 %_46.i, 48
  store i8 %23, ptr %_47.i, align 1
  br label %_RNvNtNtCsfJNPX9h41mg_3ryu6pretty8mantissa14write_mantissa.exit

bb7.i:                                            ; preds = %bb6.i
  %c1.i = shl nuw nsw i32 %output.sroa.0.1.i, 1
  %_44.i = zext nneg i32 %c1.i to i64
  %_41.i = getelementptr inbounds nuw i8, ptr @_RNvNtCsfJNPX9h41mg_3ryu11digit_table11DIGIT_TABLE, i64 %_44.i
  %_45.i = getelementptr inbounds i8, ptr %result.sroa.0.1.i, i64 -2
  %24 = load i16, ptr %_41.i, align 1
  store i16 %24, ptr %_45.i, align 1
  br label %_RNvNtNtCsfJNPX9h41mg_3ryu6pretty8mantissa14write_mantissa.exit

_RNvNtNtCsfJNPX9h41mg_3ryu6pretty8mantissa14write_mantissa.exit: ; preds = %bb8.i, %bb7.i
  ret void
}

; Function Attrs: mustprogress nocallback nofree nosync nounwind willreturn memory(inaccessiblemem: write)
declare void @llvm.assume(i1 noundef) #2

; Function Attrs: mustprogress nocallback nofree nounwind willreturn memory(argmem: readwrite)
declare void @llvm.memcpy.p0.p0.i64(ptr noalias writeonly captures(none), ptr noalias readonly captures(none), i64, i1 immarg) #3

; Function Attrs: mustprogress nocallback nofree nounwind willreturn memory(argmem: readwrite)
declare void @llvm.memmove.p0.p0.i64(ptr writeonly captures(none), ptr readonly captures(none), i64, i1 immarg) #3

; Function Attrs: nocallback nofree nounwind willreturn memory(argmem: write)
declare void @llvm.memset.p0.i64(ptr writeonly captures(none), i8, i64, i1 immarg) #4

; Function Attrs: nocallback nofree nosync nounwind speculatable willreturn memory(none)
declare i64 @llvm.umax.i64(i64, i64) #5

attributes #0 = { nofree norecurse nosync nounwind memory(argmem: readwrite, inaccessiblemem: write) uwtable "frame-pointer"="non-leaf" "probe-stack"="inline-asm" "target-cpu"="apple-m1" }
attributes #1 = { nofree norecurse nosync nounwind memory(argmem: write) uwtable "frame-pointer"="non-leaf" "probe-stack"="inline-asm" "target-cpu"="apple-m1" }
attributes #2 = { mustprogress nocallback nofree nosync nounwind willreturn memory(inaccessiblemem: write) }
attributes #3 = { mustprogress nocallback nofree nounwind willreturn memory(argmem: readwrite) }
attributes #4 = { nocallback nofree nounwind willreturn memory(argmem: write) }
attributes #5 = { nocallback nofree nosync nounwind speculatable willreturn memory(none) }

!llvm.module.flags = !{!0}
!llvm.ident = !{!1}

!0 = !{i32 8, !"PIC Level", i32 2}
!1 = !{!"rustc version 1.95.0-nightly (39052daf9 2026-01-22)"}
!2 = !{}
