; ModuleID = 'serde_core.79d0d4256d858729-cgu.0'
source_filename = "serde_core.79d0d4256d858729-cgu.0"
target datalayout = "e-m:o-p270:32:32-p271:32:32-p272:64:64-i64:64-i128:128-n32:64-S128-Fn32"
target triple = "arm64-apple-macosx11.0.0"

@alloc_d2b8a03152fba2e5b8e2ad5697a7b783 = private unnamed_addr constant [105 x i8] c"/Users/hongyaotang/.cargo/registry/src/index.crates.io-1949cf8c6b5b557f/serde_core-1.0.228/src/format.rs\00", align 1
@alloc_fdd9463cb5dc9e99eb1fd2783833f8d0 = private unnamed_addr constant <{ ptr, [16 x i8] }> <{ ptr @alloc_d2b8a03152fba2e5b8e2ad5697a7b783, [16 x i8] c"h\00\00\00\00\00\00\00\0F\00\00\00 \00\00\00" }>, align 8
@alloc_fe1bcc2cfc315ae1f6a9e4cf4244284a = private unnamed_addr constant [4 x i8] c"Unix", align 1
@alloc_2969f3c66ed3c141344abac1dd07cf27 = private unnamed_addr constant [7 x i8] c"Windows", align 1
@alloc_851aa0ab2d2b6b361cc25a33d11995ed = private unnamed_addr constant <{ ptr, [8 x i8], ptr, [8 x i8] }> <{ ptr @alloc_fe1bcc2cfc315ae1f6a9e4cf4244284a, [8 x i8] c"\04\00\00\00\00\00\00\00", ptr @alloc_2969f3c66ed3c141344abac1dd07cf27, [8 x i8] c"\07\00\00\00\00\00\00\00" }>, align 8
@_RNvNtNtCsasqbmkB9jT1_10serde_core2de5impls14OSSTR_VARIANTS = local_unnamed_addr constant <{ ptr, [8 x i8] }> <{ ptr @alloc_851aa0ab2d2b6b361cc25a33d11995ed, [8 x i8] c"\02\00\00\00\00\00\00\00" }>, align 8
@_RNvNvNvXsw_NtNtCsasqbmkB9jT1_10serde_core2de5implsNtNtCsjMrxcFdYDNN_4core4time8DurationNtBb_11Deserialize11deserialize14check_overflow13NANOS_PER_SEC = local_unnamed_addr constant [4 x i8] c"\00\CA\9A;", align 4
@_RNvNvNvXsx_NtNtCsasqbmkB9jT1_10serde_core2de5implsNtNtCs5sEH5CPMdak_3std4time10SystemTimeNtBb_11Deserialize11deserialize14check_overflow13NANOS_PER_SEC = local_unnamed_addr constant [4 x i8] c"\00\CA\9A;", align 4
@alloc_b4d37b670ec1175a8123454a6cd41e6d = private unnamed_addr constant [2 x i8] c"V4", align 1
@alloc_00d707ed6254d1b44c25d0bdc85ee17a = private unnamed_addr constant [2 x i8] c"V6", align 1
@alloc_030517f3d351d4940b34bc6a526392fe = private unnamed_addr constant <{ ptr, [8 x i8], ptr, [8 x i8] }> <{ ptr @alloc_b4d37b670ec1175a8123454a6cd41e6d, [8 x i8] c"\02\00\00\00\00\00\00\00", ptr @alloc_00d707ed6254d1b44c25d0bdc85ee17a, [8 x i8] c"\02\00\00\00\00\00\00\00" }>, align 8
@_RNvNvXsm_NtNtCsasqbmkB9jT1_10serde_core2de5implsNtNtNtCsjMrxcFdYDNN_4core3net7ip_addr6IpAddrNtB9_11Deserialize11deserialize8VARIANTS = local_unnamed_addr constant <{ ptr, [8 x i8] }> <{ ptr @alloc_030517f3d351d4940b34bc6a526392fe, [8 x i8] c"\02\00\00\00\00\00\00\00" }>, align 8
@_RNvNvXsn_NtNtCsasqbmkB9jT1_10serde_core2de5implsNtNtNtCsjMrxcFdYDNN_4core3net11socket_addr10SocketAddrNtB9_11Deserialize11deserialize8VARIANTS = local_unnamed_addr constant <{ ptr, [8 x i8] }> <{ ptr @alloc_030517f3d351d4940b34bc6a526392fe, [8 x i8] c"\02\00\00\00\00\00\00\00" }>, align 8
@alloc_8707c5adf89d8f3c69718adc73a8c8d6 = private unnamed_addr constant [14 x i8] c"\09boolean `\C0\01`\00", align 1
@alloc_ece7c6a648e731ccc426f06dca1131bd = private unnamed_addr constant [14 x i8] c"\09integer `\C0\01`\00", align 1
@alloc_a49f450a6cb7b8bcafc86913fc2cdd7c = private unnamed_addr constant [21 x i8] c"\10floating point `\C0\01`\00", align 1
@alloc_91d07432fdb3842006dd2095901b89fb = private unnamed_addr constant [16 x i8] c"\0Bcharacter `\C0\01`\00", align 1
@alloc_9ee0da3f31e3e5e130fecfda3d0812c0 = private unnamed_addr constant [10 x i8] c"\07string \C0\00", align 1
@alloc_091f3db18a34740c8a08c8293d5947eb = private unnamed_addr constant [10 x i8] c"byte array", align 1
@alloc_6e187c294d410c2b3417520090909a01 = private unnamed_addr constant [10 x i8] c"unit value", align 1
@alloc_ed25939470907cc45868cf88be2213ae = private unnamed_addr constant [12 x i8] c"Option value", align 1
@alloc_75a83eb403fb44d7d40ce07a19896f1a = private unnamed_addr constant [14 x i8] c"newtype struct", align 1
@alloc_28627ebe4d30a1dba10489a5b7ee6c08 = private unnamed_addr constant [8 x i8] c"sequence", align 1
@alloc_f64da6626db26f42eb5cf1538279bc97 = private unnamed_addr constant [3 x i8] c"map", align 1
@alloc_0c86e21b9393309a73d8c83ea592b5d3 = private unnamed_addr constant [4 x i8] c"enum", align 1
@alloc_d50d4a9354a72dc2f39a97d409dcf9e8 = private unnamed_addr constant [12 x i8] c"unit variant", align 1
@alloc_5165f25578620c4e6e2db5730ba145a8 = private unnamed_addr constant [15 x i8] c"newtype variant", align 1
@alloc_f3de780dfcd9dde1cd2f193fac08fe6e = private unnamed_addr constant [13 x i8] c"tuple variant", align 1
@alloc_54c993fbc9a365a4174d884410d94a9a = private unnamed_addr constant [14 x i8] c"struct variant", align 1
@alloc_d28ec02641fdaf5772353fade2aa29ec = private unnamed_addr constant [15 x i8] c"anything at all", align 1
@alloc_60908ebd71d3c48bb75f573a2c05b07b = private unnamed_addr constant [4 x i8] c"unit", align 1
@alloc_35c641035b55573a47459d71a17bbf7a = private unnamed_addr constant [7 x i8] c"`start`", align 1
@alloc_403f379e6f0d042b23f1475818a29fd1 = private unnamed_addr constant [16 x i8] c"`start` or `end`", align 1
@alloc_907168e132c920ad4bd17ec5a7bb0ace = private unnamed_addr constant [5 x i8] c"`end`", align 1
@alloc_227be0afe1214da168c4dc080c34d2b9 = private unnamed_addr constant [37 x i8] c"`Unbounded`, `Included` or `Excluded`", align 1
@alloc_37269ef78b297bba4460529dfa7b033e = private unnamed_addr constant [13 x i8] c"`Ok` or `Err`", align 1
@alloc_9c2d1e9e7d8231967215980a9c3d1c36 = private unnamed_addr constant [17 x i8] c"`secs` or `nanos`", align 1
@alloc_41a3868832a4b779c010dca21449256a = private unnamed_addr constant [41 x i8] c"`secs_since_epoch` or `nanos_since_epoch`", align 1
@alloc_4578668cbfb825965e90b862b445e1d1 = private unnamed_addr constant [45 x i8] c"integer with support for saturating semantics", align 1
@alloc_0d3fdde1e4251889fe20be0554d3a4df = private unnamed_addr constant [3 x i8] c"u16", align 1
@alloc_56c605254b56055bd30cc556483df307 = private unnamed_addr constant [13 x i8] c"a nonzero u32", align 1
@alloc_40dca76ea60e772225aeb9a5dae9c756 = private unnamed_addr constant [3 x i8] c"u32", align 1
@alloc_67a12150f1b3f44f5d2db36a995e0423 = private unnamed_addr constant [13 x i8] c"a nonzero u64", align 1
@alloc_4c3daea643e86fcf49e0a8dcf3e4c20b = private unnamed_addr constant [3 x i8] c"u64", align 1
@alloc_657429e32a7efcc42bbbd2313ae1e041 = private unnamed_addr constant [15 x i8] c"a nonzero usize", align 1
@alloc_087073340adf6d09480d7739d2e7638d = private unnamed_addr constant [5 x i8] c"usize", align 1
@alloc_c8dbd11c0d0afd7250de135d09c6bf30 = private unnamed_addr constant [3 x i8] c"f32", align 1
@alloc_2717017e1ae813f478f43d8b0722e846 = private unnamed_addr constant [3 x i8] c"f64", align 1
@alloc_1c47fc7c571b61d0300497f44f41c6f0 = private unnamed_addr constant [14 x i8] c"a nonzero i128", align 1
@alloc_fc155f0a6f9ce04075e55a71ca237d6b = private unnamed_addr constant [4 x i8] c"i128", align 1
@alloc_da28a88f2b8f5f70feb2e2b2b4b8aadf = private unnamed_addr constant [14 x i8] c"a nonzero u128", align 1
@alloc_c6dac74b65b8f5d0fd6a204546100ec0 = private unnamed_addr constant [4 x i8] c"u128", align 1
@alloc_642c577bcc714afd96438418babfd0db = private unnamed_addr constant [19 x i8] c"`Unix` or `Windows`", align 1
@alloc_90fd695d1665e0e1663261d957ba6426 = private unnamed_addr constant [12 x i8] c"a nonzero i8", align 1
@alloc_468bbdcdbefe19b6476616d87880f70c = private unnamed_addr constant [2 x i8] c"i8", align 1
@alloc_b6ea8700a6ea68afe60bdd01a1fb2fed = private unnamed_addr constant [13 x i8] c"a nonzero i16", align 1
@alloc_b65da51539f621df7a047bc43773eb81 = private unnamed_addr constant [3 x i8] c"i16", align 1
@alloc_1cb8e21caf12759b805c63ca88e4bc62 = private unnamed_addr constant [13 x i8] c"a nonzero i32", align 1
@alloc_f5bb2e494f5d1658dbc347d7b24d2ac3 = private unnamed_addr constant [3 x i8] c"i32", align 1
@alloc_19dd0779e7994d188e11f57791f5ec0c = private unnamed_addr constant [13 x i8] c"a nonzero i64", align 1
@alloc_b7a8a06bcc169bbf687e36ae2ac3129c = private unnamed_addr constant [3 x i8] c"i64", align 1
@alloc_54776731d5128195ac4be117774c089e = private unnamed_addr constant [15 x i8] c"a nonzero isize", align 1
@alloc_72df7fce5c308ce6e1f7311558c9728e = private unnamed_addr constant [5 x i8] c"isize", align 1
@alloc_397671ae0270f4588996167da840c4fa = private unnamed_addr constant [12 x i8] c"a nonzero u8", align 1
@alloc_df66aaff7dc04933728ad5e7db359d0f = private unnamed_addr constant [2 x i8] c"u8", align 1
@alloc_0e4f0223adc4e744239ff233d38009e1 = private unnamed_addr constant [13 x i8] c"a nonzero u16", align 1
@alloc_b0bf456742a49af68f3a76ac1f13442e = private unnamed_addr constant [12 x i8] c"`V4` or `V6`", align 1
@alloc_7e9edf01f2db8f57ff7d335968bf3c9b = private unnamed_addr constant [8 x i8] c"a IpAddr", align 1
@alloc_2403a6cd15f3d40978dfbd0bae0d138f = private unnamed_addr constant [12 x i8] c"a SocketAddr", align 1
@alloc_64c46d602bcdf61cecebd9c07a8ffbde = private unnamed_addr constant [9 x i8] c"a boolean", align 1
@alloc_7395b7fd5052a2200dfc13209d237c6b = private unnamed_addr constant [15 x i8] c"not implemented", align 1
@alloc_075014ed48cfb9013b2c40e1ffc2c09c = private unnamed_addr constant [110 x i8] c"/Users/hongyaotang/.cargo/registry/src/index.crates.io-1949cf8c6b5b557f/serde_core-1.0.228/src/private/doc.rs\00", align 1
@alloc_263558d5f36218618c88f833112995da = private unnamed_addr constant <{ ptr, [16 x i8] }> <{ ptr @alloc_075014ed48cfb9013b2c40e1ffc2c09c, [16 x i8] c"m\00\00\00\00\00\00\00\19\00\00\00\09\00\00\00" }>, align 8
@alloc_99ac8a81a24cac863217ce4a5cbfabea = private unnamed_addr constant [5 x i8] c"Error", align 1
@vtable.0 = private unnamed_addr constant <{ ptr, [16 x i8], ptr }> <{ ptr @_RINvNtCsjMrxcFdYDNN_4core3ptr13drop_in_placeINtNtCsdJPVW0sQgAG_5alloc5boxed3BoxeEECsasqbmkB9jT1_10serde_core, [16 x i8] c"\10\00\00\00\00\00\00\00\08\00\00\00\00\00\00\00", ptr @_RNvXsn_NtCsdJPVW0sQgAG_5alloc5boxedINtB5_3BoxeENtNtCsjMrxcFdYDNN_4core3fmt5Debug3fmtCsasqbmkB9jT1_10serde_core }>, align 8
@alloc_b318fd4df6debd42528f3f2287183ae3 = private unnamed_addr constant <{ ptr, [16 x i8] }> <{ ptr @alloc_075014ed48cfb9013b2c40e1ffc2c09c, [16 x i8] c"m\00\00\00\00\00\00\00 \00\00\00\09\00\00\00" }>, align 8
@alloc_b8f0e9f5a55e3399052e7f51171d5f73 = private unnamed_addr constant [16 x i8] c"1 element in map", align 1
@alloc_bb2978a5d2b5523fedc4230268ea2bca = private unnamed_addr constant [19 x i8] c"\C0\10 elements in map\00", align 1
@alloc_dccc1d538c89f6cf70b8ced7a712b1bf = private unnamed_addr constant [11 x i8] c"a character", align 1
@alloc_a32ee92aa163a424fb5f24d7445c00a9 = private unnamed_addr constant [8 x i8] c"a string", align 1
@alloc_476509aa7047bd805d630c6546685797 = private unnamed_addr constant [14 x i8] c"explicit panic", align 1
@alloc_5f48178c5219df04021288a13cc9767c = private unnamed_addr constant [105 x i8] c"/Users/hongyaotang/.cargo/registry/src/index.crates.io-1949cf8c6b5b557f/serde_core-1.0.228/src/de/mod.rs\00", align 1
@alloc_1116333d306fdba1b54b6175218bce80 = private unnamed_addr constant <{ ptr, [16 x i8] }> <{ ptr @alloc_5f48178c5219df04021288a13cc9767c, [16 x i8] c"h\00\00\00\00\00\00\00$\09\00\00\12\00\00\00" }>, align 8
@alloc_af8daea8cf2249ec7503f9c4af69ccc6 = private unnamed_addr constant [6 x i8] c"\01`\C0\01`\00", align 1
@alloc_077901e08f9bd5495f11cee517b2c8ae = private unnamed_addr constant [14 x i8] c"\01`\C0\06` or `\C0\01`\00", align 1
@alloc_32d041da1512a32dc092a5e4350c88d2 = private unnamed_addr constant [7 x i8] c"one of ", align 1
@alloc_94b00be069aafad82a2c6df764237b82 = private unnamed_addr constant [2 x i8] c", ", align 1
@alloc_0c812808379efded5a4fb82d2790b556 = private unnamed_addr constant [2 x i8] c"\C0\00", align 1
@vtable.1 = private unnamed_addr constant <{ [24 x i8], ptr, ptr, ptr }> <{ [24 x i8] c"\00\00\00\00\00\00\00\00\10\00\00\00\00\00\00\00\08\00\00\00\00\00\00\00", ptr @_RNvXNvXs7_NtCsasqbmkB9jT1_10serde_core2deNtB8_16WithDecimalPointNtNtCsjMrxcFdYDNN_4core3fmt7Display3fmtNtB2_19LookForDecimalPointNtB12_5Write9write_str, ptr @_RNvXNvXs7_NtCsasqbmkB9jT1_10serde_core2deNtB8_16WithDecimalPointNtNtCsjMrxcFdYDNN_4core3fmt7Display3fmtNtB2_19LookForDecimalPointNtB12_5Write10write_char, ptr @_RNvYNtNvXs7_NtCsasqbmkB9jT1_10serde_core2deNtBa_16WithDecimalPointNtNtCsjMrxcFdYDNN_4core3fmt7Display3fmt19LookForDecimalPointNtB14_5Write9write_fmtBc_ }>, align 8
@alloc_11813f653ed6a734517fe4070f367895 = private unnamed_addr constant [2 x i8] c".0", align 1
@alloc_53e60ffe5d60b4e2b8e1388a2ad2cbca = private unnamed_addr constant [17 x i8] c"a borrowed string", align 1
@alloc_2d5f17b7bf6b6dd0f952da961ef23766 = private unnamed_addr constant [21 x i8] c"a borrowed byte array", align 1
@alloc_e71a28b1125008ec4c9de9e536a49431 = private unnamed_addr constant [21 x i8] c"1 element in sequence", align 1
@alloc_8c1db4387b4656bb4b356dc02c3f8d30 = private unnamed_addr constant [24 x i8] c"\C0\15 elements in sequence\00", align 1
@alloc_2f7596cc443aa95183eb8877f8ef810a = private unnamed_addr constant <{ ptr, [16 x i8] }> <{ ptr @alloc_d2b8a03152fba2e5b8e2ad5697a7b783, [16 x i8] c"h\00\00\00\00\00\00\00\19\00\00\00\17\00\00\00" }>, align 8
@alloc_6af7c6d1a9af9a967239e84747ee56d5 = private unnamed_addr constant [15 x i8] c"struct Duration", align 1
@alloc_be3f8f1470f8a602fce3577410bfcf6d = private unnamed_addr constant [17 x i8] c"struct SystemTime", align 1
@alloc_3567600552f439bbaf247475f318ef72 = private unnamed_addr constant [15 x i8] c"a borrowed path", align 1
@alloc_591e4e6c05411fd2c1d1890d2c594822 = private unnamed_addr constant [11 x i8] c"path string", align 1
@alloc_cb32d032405e73736771b2a5da6c1c45 = private unnamed_addr constant [9 x i8] c"os string", align 1

@_RNvXNvXs13_NtNtCsasqbmkB9jT1_10serde_core2de5implsINtNtNtCsjMrxcFdYDNN_4core3num10saturating10SaturatingmENtBb_11Deserialize11deserializeNtB2_17SaturatingVisitorNtBb_7Visitor9expecting = unnamed_addr alias i1 (ptr, ptr), ptr @_RNvXNvXs10_NtNtCsasqbmkB9jT1_10serde_core2de5implsINtNtNtCsjMrxcFdYDNN_4core3num10saturating10SaturatingtENtBb_11Deserialize11deserializeNtB2_17SaturatingVisitorNtBb_7Visitor9expecting
@_RNvXNvXs16_NtNtCsasqbmkB9jT1_10serde_core2de5implsINtNtNtCsjMrxcFdYDNN_4core3num10saturating10SaturatingyENtBb_11Deserialize11deserializeNtB2_17SaturatingVisitorNtBb_7Visitor9expecting = unnamed_addr alias i1 (ptr, ptr), ptr @_RNvXNvXs10_NtNtCsasqbmkB9jT1_10serde_core2de5implsINtNtNtCsjMrxcFdYDNN_4core3num10saturating10SaturatingtENtBb_11Deserialize11deserializeNtB2_17SaturatingVisitorNtBb_7Visitor9expecting
@_RNvXNvXs19_NtNtCsasqbmkB9jT1_10serde_core2de5implsINtNtNtCsjMrxcFdYDNN_4core3num10saturating10SaturatingjENtBb_11Deserialize11deserializeNtB2_17SaturatingVisitorNtBb_7Visitor9expecting = unnamed_addr alias i1 (ptr, ptr), ptr @_RNvXNvXs10_NtNtCsasqbmkB9jT1_10serde_core2de5implsINtNtNtCsjMrxcFdYDNN_4core3num10saturating10SaturatingtENtBb_11Deserialize11deserializeNtB2_17SaturatingVisitorNtBb_7Visitor9expecting
@_RNvXNvXs1e_NtNtCsasqbmkB9jT1_10serde_core2de5implsINtNtNtCsjMrxcFdYDNN_4core3num10saturating10SaturatingnENtBb_11Deserialize11deserializeNtB2_17SaturatingVisitorNtBb_7Visitor9expecting = unnamed_addr alias i1 (ptr, ptr), ptr @_RNvXNvXs10_NtNtCsasqbmkB9jT1_10serde_core2de5implsINtNtNtCsjMrxcFdYDNN_4core3num10saturating10SaturatingtENtBb_11Deserialize11deserializeNtB2_17SaturatingVisitorNtBb_7Visitor9expecting
@_RNvXNvXs1h_NtNtCsasqbmkB9jT1_10serde_core2de5implsINtNtNtCsjMrxcFdYDNN_4core3num10saturating10SaturatingoENtBb_11Deserialize11deserializeNtB2_17SaturatingVisitorNtBb_7Visitor9expecting = unnamed_addr alias i1 (ptr, ptr), ptr @_RNvXNvXs10_NtNtCsasqbmkB9jT1_10serde_core2de5implsINtNtNtCsjMrxcFdYDNN_4core3num10saturating10SaturatingtENtBb_11Deserialize11deserializeNtB2_17SaturatingVisitorNtBb_7Visitor9expecting
@_RNvXNvXsI_NtNtCsasqbmkB9jT1_10serde_core2de5implsINtNtNtCsjMrxcFdYDNN_4core3num10saturating10SaturatingaENtBa_11Deserialize11deserializeNtB2_17SaturatingVisitorNtBa_7Visitor9expecting = unnamed_addr alias i1 (ptr, ptr), ptr @_RNvXNvXs10_NtNtCsasqbmkB9jT1_10serde_core2de5implsINtNtNtCsjMrxcFdYDNN_4core3num10saturating10SaturatingtENtBb_11Deserialize11deserializeNtB2_17SaturatingVisitorNtBb_7Visitor9expecting
@_RNvXNvXsL_NtNtCsasqbmkB9jT1_10serde_core2de5implsINtNtNtCsjMrxcFdYDNN_4core3num10saturating10SaturatingsENtBa_11Deserialize11deserializeNtB2_17SaturatingVisitorNtBa_7Visitor9expecting = unnamed_addr alias i1 (ptr, ptr), ptr @_RNvXNvXs10_NtNtCsasqbmkB9jT1_10serde_core2de5implsINtNtNtCsjMrxcFdYDNN_4core3num10saturating10SaturatingtENtBb_11Deserialize11deserializeNtB2_17SaturatingVisitorNtBb_7Visitor9expecting
@_RNvXNvXsO_NtNtCsasqbmkB9jT1_10serde_core2de5implsINtNtNtCsjMrxcFdYDNN_4core3num10saturating10SaturatinglENtBa_11Deserialize11deserializeNtB2_17SaturatingVisitorNtBa_7Visitor9expecting = unnamed_addr alias i1 (ptr, ptr), ptr @_RNvXNvXs10_NtNtCsasqbmkB9jT1_10serde_core2de5implsINtNtNtCsjMrxcFdYDNN_4core3num10saturating10SaturatingtENtBb_11Deserialize11deserializeNtB2_17SaturatingVisitorNtBb_7Visitor9expecting
@_RNvXNvXsR_NtNtCsasqbmkB9jT1_10serde_core2de5implsINtNtNtCsjMrxcFdYDNN_4core3num10saturating10SaturatingxENtBa_11Deserialize11deserializeNtB2_17SaturatingVisitorNtBa_7Visitor9expecting = unnamed_addr alias i1 (ptr, ptr), ptr @_RNvXNvXs10_NtNtCsasqbmkB9jT1_10serde_core2de5implsINtNtNtCsjMrxcFdYDNN_4core3num10saturating10SaturatingtENtBb_11Deserialize11deserializeNtB2_17SaturatingVisitorNtBb_7Visitor9expecting
@_RNvXNvXsU_NtNtCsasqbmkB9jT1_10serde_core2de5implsINtNtNtCsjMrxcFdYDNN_4core3num10saturating10SaturatingiENtBa_11Deserialize11deserializeNtB2_17SaturatingVisitorNtBa_7Visitor9expecting = unnamed_addr alias i1 (ptr, ptr), ptr @_RNvXNvXs10_NtNtCsasqbmkB9jT1_10serde_core2de5implsINtNtNtCsjMrxcFdYDNN_4core3num10saturating10SaturatingtENtBb_11Deserialize11deserializeNtB2_17SaturatingVisitorNtBb_7Visitor9expecting
@_RNvXNvXsX_NtNtCsasqbmkB9jT1_10serde_core2de5implsINtNtNtCsjMrxcFdYDNN_4core3num10saturating10SaturatinghENtBa_11Deserialize11deserializeNtB2_17SaturatingVisitorNtBa_7Visitor9expecting = unnamed_addr alias i1 (ptr, ptr), ptr @_RNvXNvXs10_NtNtCsasqbmkB9jT1_10serde_core2de5implsINtNtNtCsjMrxcFdYDNN_4core3num10saturating10SaturatingtENtBb_11Deserialize11deserializeNtB2_17SaturatingVisitorNtBb_7Visitor9expecting
@_RNvXNvXs_NvXsn_NtNtCsasqbmkB9jT1_10serde_core2de5implsNtNtNtCsjMrxcFdYDNN_4core3net11socket_addr10SocketAddrNtBf_11Deserialize11deserializeNtB7_14SocketAddrKindB1I_11deserializeNtB2_11KindVisitorNtBf_7Visitor9expecting = unnamed_addr alias i1 (ptr, ptr), ptr @_RNvXNvXs_NvXsm_NtNtCsasqbmkB9jT1_10serde_core2de5implsNtNtNtCsjMrxcFdYDNN_4core3net7ip_addr6IpAddrNtBf_11Deserialize11deserializeNtB7_10IpAddrKindB1y_11deserializeNtB2_11KindVisitorNtBf_7Visitor9expecting
@_RNvXs_NtNtCsasqbmkB9jT1_10serde_core3ser3fmtQNtNtCsjMrxcFdYDNN_4core3fmt9FormatterNtB6_10Serializer21serialize_unit_struct = unnamed_addr alias i1 (ptr, ptr, i64), ptr @_RNvXs_NtNtCsasqbmkB9jT1_10serde_core3ser3fmtQNtNtCsjMrxcFdYDNN_4core3fmt9FormatterNtB6_10Serializer13serialize_str

; core::ptr::drop_in_place::<alloc::boxed::Box<str>>
; Function Attrs: nounwind uwtable
define internal void @_RINvNtCsjMrxcFdYDNN_4core3ptr13drop_in_placeINtNtCsdJPVW0sQgAG_5alloc5boxed3BoxeEECsasqbmkB9jT1_10serde_core(ptr noalias noundef readonly align 8 captures(none) dereferenceable(16) %_1) unnamed_addr #0 personality ptr @rust_eh_personality {
start:
  %0 = getelementptr inbounds nuw i8, ptr %_1, i64 8
  %_1.val1 = load i64, ptr %0, align 8, !noundef !2
  %1 = icmp eq i64 %_1.val1, 0
  br i1 %1, label %_RNvXs8_NtCsdJPVW0sQgAG_5alloc5boxedINtB5_3BoxeENtNtNtCsjMrxcFdYDNN_4core3ops4drop4Drop4dropCsasqbmkB9jT1_10serde_core.exit, label %bb1.i

bb1.i:                                            ; preds = %start
  %_1.val = load ptr, ptr %_1, align 8, !nonnull !2, !noundef !2
; call __rustc::__rust_dealloc
  tail call void @_RNvCsKhRCbHf33p_7___rustc14___rust_dealloc(ptr noundef nonnull %_1.val, i64 noundef range(i64 1, 0) %_1.val1, i64 noundef 1) #9
  br label %_RNvXs8_NtCsdJPVW0sQgAG_5alloc5boxedINtB5_3BoxeENtNtNtCsjMrxcFdYDNN_4core3ops4drop4Drop4dropCsasqbmkB9jT1_10serde_core.exit

_RNvXs8_NtCsdJPVW0sQgAG_5alloc5boxedINtB5_3BoxeENtNtNtCsjMrxcFdYDNN_4core3ops4drop4Drop4dropCsasqbmkB9jT1_10serde_core.exit: ; preds = %start, %bb1.i
  ret void
}

; <serde_core::format::Buf>::as_str
; Function Attrs: uwtable
define { ptr, i64 } @_RNvMNtCsasqbmkB9jT1_10serde_core6formatNtB2_3Buf6as_str(ptr noalias noundef readonly align 8 captures(none) dereferenceable(24) %self) unnamed_addr #1 {
start:
  %0 = getelementptr inbounds nuw i8, ptr %self, i64 8
  %_4.1 = load i64, ptr %0, align 8, !noundef !2
  %1 = getelementptr inbounds nuw i8, ptr %self, i64 16
  %_3 = load i64, ptr %1, align 8, !noundef !2
  %_5.not = icmp ugt i64 %_3, %_4.1
  br i1 %_5.not, label %bb3, label %bb1, !prof !3

bb1:                                              ; preds = %start
  %_4.0 = load ptr, ptr %self, align 8, !nonnull !2, !align !4, !noundef !2
  %2 = insertvalue { ptr, i64 } poison, ptr %_4.0, 0
  %3 = insertvalue { ptr, i64 } %2, i64 %_3, 1
  ret { ptr, i64 } %3

bb3:                                              ; preds = %start
; call core::slice::index::slice_index_fail
  tail call void @_RNvNtNtCsjMrxcFdYDNN_4core5slice5index16slice_index_fail(i64 noundef 0, i64 noundef %_3, i64 noundef %_4.1, ptr noalias noundef readonly align 8 captures(address, read_provenance) dereferenceable(24) @alloc_fdd9463cb5dc9e99eb1fd2783833f8d0) #10
  unreachable
}

; serde_core::private::string::from_utf8_lossy
; Function Attrs: uwtable
define void @_RNvNtNtCsasqbmkB9jT1_10serde_core7private6string15from_utf8_lossy(ptr dead_on_unwind noalias noundef writable sret([24 x i8]) align 8 captures(none) dereferenceable(24) %_0, ptr noalias noundef nonnull readonly align 1 captures(address, read_provenance) %bytes.0, i64 noundef range(i64 0, -9223372036854775808) %bytes.1) unnamed_addr #1 {
start:
; call <alloc::string::String>::from_utf8_lossy
  tail call void @_RNvMNtCsdJPVW0sQgAG_5alloc6stringNtB2_6String15from_utf8_lossy(ptr noalias noundef nonnull sret([24 x i8]) align 8 captures(none) dereferenceable(24) %_0, ptr noalias noundef nonnull readonly align 1 captures(address, read_provenance) %bytes.0, i64 noundef %bytes.1)
  ret void
}

; <serde_core::de::Unexpected as core::fmt::Display>::fmt
; Function Attrs: uwtable
define noundef zeroext i1 @_RNvXNtCsasqbmkB9jT1_10serde_core2deNtB2_10UnexpectedNtNtCsjMrxcFdYDNN_4core3fmt7Display3fmt(ptr noalias noundef readonly align 8 captures(none) dereferenceable(24) %self, ptr noalias noundef align 8 dereferenceable(24) %formatter) unnamed_addr #1 {
start:
  %args6 = alloca [16 x i8], align 8
  %s = alloca [16 x i8], align 8
  %args5 = alloca [16 x i8], align 8
  %c = alloca [4 x i8], align 4
  %args4 = alloca [16 x i8], align 8
  %_25 = alloca [8 x i8], align 8
  %args3 = alloca [16 x i8], align 8
  %i2 = alloca [8 x i8], align 8
  %args1 = alloca [16 x i8], align 8
  %i = alloca [8 x i8], align 8
  %args = alloca [16 x i8], align 8
  %b = alloca [1 x i8], align 1
  %0 = load i8, ptr %self, align 8, !range !5, !noundef !2
  switch i8 %0, label %default.unreachable43 [
    i8 0, label %bb19
    i8 1, label %bb18
    i8 2, label %bb17
    i8 3, label %bb16
    i8 4, label %bb15
    i8 5, label %bb14
    i8 6, label %bb13
    i8 7, label %bb12
    i8 8, label %bb11
    i8 9, label %bb10
    i8 10, label %bb9
    i8 11, label %bb8
    i8 12, label %bb7
    i8 13, label %bb6
    i8 14, label %bb5
    i8 15, label %bb4
    i8 16, label %bb3
    i8 17, label %bb2
  ]

default.unreachable43:                            ; preds = %start
  unreachable

bb19:                                             ; preds = %start
  call void @llvm.lifetime.start.p0(i64 1, ptr nonnull %b)
  %1 = getelementptr inbounds nuw i8, ptr %self, i64 1
  %2 = load i8, ptr %1, align 1, !range !6, !noundef !2
  store i8 %2, ptr %b, align 1
  call void @llvm.lifetime.start.p0(i64 16, ptr nonnull %args)
  store ptr %b, ptr %args, align 8
  %_8.sroa.4.0..sroa_idx = getelementptr inbounds nuw i8, ptr %args, i64 8
  store ptr @_RNvXsg_NtCsjMrxcFdYDNN_4core3fmtbNtB5_7Display3fmt, ptr %_8.sroa.4.0..sroa_idx, align 8
  %_83.0 = load ptr, ptr %formatter, align 8, !nonnull !2, !align !4, !noundef !2
  %3 = getelementptr inbounds nuw i8, ptr %formatter, i64 8
  %_83.1 = load ptr, ptr %3, align 8, !nonnull !2, !align !7, !noundef !2
; call core::fmt::write
  %4 = call noundef zeroext i1 @_RNvNtCsjMrxcFdYDNN_4core3fmt5write(ptr noundef nonnull align 1 %_83.0, ptr noalias noundef nonnull readonly align 8 captures(address, read_provenance) dereferenceable(48) %_83.1, ptr noundef nonnull @alloc_8707c5adf89d8f3c69718adc73a8c8d6, ptr noundef nonnull %args)
  call void @llvm.lifetime.end.p0(i64 16, ptr nonnull %args)
  call void @llvm.lifetime.end.p0(i64 1, ptr nonnull %b)
  br label %bb20

bb18:                                             ; preds = %start
  call void @llvm.lifetime.start.p0(i64 8, ptr nonnull %i)
  %5 = getelementptr inbounds nuw i8, ptr %self, i64 8
  %6 = load i64, ptr %5, align 8, !noundef !2
  store i64 %6, ptr %i, align 8
  call void @llvm.lifetime.start.p0(i64 16, ptr nonnull %args1)
  store ptr %i, ptr %args1, align 8
  %_14.sroa.4.0..sroa_idx = getelementptr inbounds nuw i8, ptr %args1, i64 8
  store ptr @_RNvXsd_NtNtNtCsjMrxcFdYDNN_4core3fmt3num3impyNtB9_7Display3fmt, ptr %_14.sroa.4.0..sroa_idx, align 8
  %_99.0 = load ptr, ptr %formatter, align 8, !nonnull !2, !align !4, !noundef !2
  %7 = getelementptr inbounds nuw i8, ptr %formatter, i64 8
  %_99.1 = load ptr, ptr %7, align 8, !nonnull !2, !align !7, !noundef !2
; call core::fmt::write
  %8 = call noundef zeroext i1 @_RNvNtCsjMrxcFdYDNN_4core3fmt5write(ptr noundef nonnull align 1 %_99.0, ptr noalias noundef nonnull readonly align 8 captures(address, read_provenance) dereferenceable(48) %_99.1, ptr noundef nonnull @alloc_ece7c6a648e731ccc426f06dca1131bd, ptr noundef nonnull %args1)
  call void @llvm.lifetime.end.p0(i64 16, ptr nonnull %args1)
  call void @llvm.lifetime.end.p0(i64 8, ptr nonnull %i)
  br label %bb20

bb17:                                             ; preds = %start
  call void @llvm.lifetime.start.p0(i64 8, ptr nonnull %i2)
  %9 = getelementptr inbounds nuw i8, ptr %self, i64 8
  %10 = load i64, ptr %9, align 8, !noundef !2
  store i64 %10, ptr %i2, align 8
  call void @llvm.lifetime.start.p0(i64 16, ptr nonnull %args3)
  store ptr %i2, ptr %args3, align 8
  %_20.sroa.4.0..sroa_idx = getelementptr inbounds nuw i8, ptr %args3, i64 8
  store ptr @_RNvXse_NtNtNtCsjMrxcFdYDNN_4core3fmt3num3impxNtB9_7Display3fmt, ptr %_20.sroa.4.0..sroa_idx, align 8
  %_115.0 = load ptr, ptr %formatter, align 8, !nonnull !2, !align !4, !noundef !2
  %11 = getelementptr inbounds nuw i8, ptr %formatter, i64 8
  %_115.1 = load ptr, ptr %11, align 8, !nonnull !2, !align !7, !noundef !2
; call core::fmt::write
  %12 = call noundef zeroext i1 @_RNvNtCsjMrxcFdYDNN_4core3fmt5write(ptr noundef nonnull align 1 %_115.0, ptr noalias noundef nonnull readonly align 8 captures(address, read_provenance) dereferenceable(48) %_115.1, ptr noundef nonnull @alloc_ece7c6a648e731ccc426f06dca1131bd, ptr noundef nonnull %args3)
  call void @llvm.lifetime.end.p0(i64 16, ptr nonnull %args3)
  call void @llvm.lifetime.end.p0(i64 8, ptr nonnull %i2)
  br label %bb20

bb16:                                             ; preds = %start
  %13 = getelementptr inbounds nuw i8, ptr %self, i64 8
  %f = load double, ptr %13, align 8, !noundef !2
  call void @llvm.lifetime.start.p0(i64 8, ptr nonnull %_25)
  store double %f, ptr %_25, align 8
  call void @llvm.lifetime.start.p0(i64 16, ptr nonnull %args4)
  store ptr %_25, ptr %args4, align 8
  %_27.sroa.4.0..sroa_idx = getelementptr inbounds nuw i8, ptr %args4, i64 8
  store ptr @_RNvXs7_NtCsasqbmkB9jT1_10serde_core2deNtB5_16WithDecimalPointNtNtCsjMrxcFdYDNN_4core3fmt7Display3fmt, ptr %_27.sroa.4.0..sroa_idx, align 8
  %_131.0 = load ptr, ptr %formatter, align 8, !nonnull !2, !align !4, !noundef !2
  %14 = getelementptr inbounds nuw i8, ptr %formatter, i64 8
  %_131.1 = load ptr, ptr %14, align 8, !nonnull !2, !align !7, !noundef !2
; call core::fmt::write
  %15 = call noundef zeroext i1 @_RNvNtCsjMrxcFdYDNN_4core3fmt5write(ptr noundef nonnull align 1 %_131.0, ptr noalias noundef nonnull readonly align 8 captures(address, read_provenance) dereferenceable(48) %_131.1, ptr noundef nonnull @alloc_a49f450a6cb7b8bcafc86913fc2cdd7c, ptr noundef nonnull %args4)
  call void @llvm.lifetime.end.p0(i64 16, ptr nonnull %args4)
  call void @llvm.lifetime.end.p0(i64 8, ptr nonnull %_25)
  br label %bb20

bb15:                                             ; preds = %start
  call void @llvm.lifetime.start.p0(i64 4, ptr nonnull %c)
  %16 = getelementptr inbounds nuw i8, ptr %self, i64 4
  %17 = load i32, ptr %16, align 4, !range !8, !noundef !2
  store i32 %17, ptr %c, align 4
  call void @llvm.lifetime.start.p0(i64 16, ptr nonnull %args5)
  store ptr %c, ptr %args5, align 8
  %_33.sroa.4.0..sroa_idx = getelementptr inbounds nuw i8, ptr %args5, i64 8
  store ptr @_RNvXsk_NtCsjMrxcFdYDNN_4core3fmtcNtB5_7Display3fmt, ptr %_33.sroa.4.0..sroa_idx, align 8
  %_147.0 = load ptr, ptr %formatter, align 8, !nonnull !2, !align !4, !noundef !2
  %18 = getelementptr inbounds nuw i8, ptr %formatter, i64 8
  %_147.1 = load ptr, ptr %18, align 8, !nonnull !2, !align !7, !noundef !2
; call core::fmt::write
  %19 = call noundef zeroext i1 @_RNvNtCsjMrxcFdYDNN_4core3fmt5write(ptr noundef nonnull align 1 %_147.0, ptr noalias noundef nonnull readonly align 8 captures(address, read_provenance) dereferenceable(48) %_147.1, ptr noundef nonnull @alloc_91d07432fdb3842006dd2095901b89fb, ptr noundef nonnull %args5)
  call void @llvm.lifetime.end.p0(i64 16, ptr nonnull %args5)
  call void @llvm.lifetime.end.p0(i64 4, ptr nonnull %c)
  br label %bb20

bb14:                                             ; preds = %start
  call void @llvm.lifetime.start.p0(i64 16, ptr nonnull %s)
  %20 = getelementptr inbounds nuw i8, ptr %self, i64 8
  %21 = load ptr, ptr %20, align 8, !nonnull !2, !align !4, !noundef !2
  %22 = getelementptr inbounds nuw i8, ptr %self, i64 16
  %23 = load i64, ptr %22, align 8, !noundef !2
  store ptr %21, ptr %s, align 8
  %24 = getelementptr inbounds nuw i8, ptr %s, i64 8
  store i64 %23, ptr %24, align 8
  call void @llvm.lifetime.start.p0(i64 16, ptr nonnull %args6)
  store ptr %s, ptr %args6, align 8
  %_39.sroa.4.0..sroa_idx = getelementptr inbounds nuw i8, ptr %args6, i64 8
  store ptr @_RNvXs1g_NtCsjMrxcFdYDNN_4core3fmtReNtB6_5Debug3fmtCsasqbmkB9jT1_10serde_core, ptr %_39.sroa.4.0..sroa_idx, align 8
  %_163.0 = load ptr, ptr %formatter, align 8, !nonnull !2, !align !4, !noundef !2
  %25 = getelementptr inbounds nuw i8, ptr %formatter, i64 8
  %_163.1 = load ptr, ptr %25, align 8, !nonnull !2, !align !7, !noundef !2
; call core::fmt::write
  %26 = call noundef zeroext i1 @_RNvNtCsjMrxcFdYDNN_4core3fmt5write(ptr noundef nonnull align 1 %_163.0, ptr noalias noundef nonnull readonly align 8 captures(address, read_provenance) dereferenceable(48) %_163.1, ptr noundef nonnull @alloc_9ee0da3f31e3e5e130fecfda3d0812c0, ptr noundef nonnull %args6)
  call void @llvm.lifetime.end.p0(i64 16, ptr nonnull %args6)
  call void @llvm.lifetime.end.p0(i64 16, ptr nonnull %s)
  br label %bb20

bb13:                                             ; preds = %start
; call <core::fmt::Formatter>::write_str
  %27 = tail call noundef zeroext i1 @_RNvMsa_NtCsjMrxcFdYDNN_4core3fmtNtB5_9Formatter9write_str(ptr noalias noundef nonnull align 8 dereferenceable(24) %formatter, ptr noalias noundef nonnull readonly align 1 captures(address, read_provenance) @alloc_091f3db18a34740c8a08c8293d5947eb, i64 noundef 10)
  br label %bb20

bb12:                                             ; preds = %start
; call <core::fmt::Formatter>::write_str
  %28 = tail call noundef zeroext i1 @_RNvMsa_NtCsjMrxcFdYDNN_4core3fmtNtB5_9Formatter9write_str(ptr noalias noundef nonnull align 8 dereferenceable(24) %formatter, ptr noalias noundef nonnull readonly align 1 captures(address, read_provenance) @alloc_6e187c294d410c2b3417520090909a01, i64 noundef 10)
  br label %bb20

bb11:                                             ; preds = %start
; call <core::fmt::Formatter>::write_str
  %29 = tail call noundef zeroext i1 @_RNvMsa_NtCsjMrxcFdYDNN_4core3fmtNtB5_9Formatter9write_str(ptr noalias noundef nonnull align 8 dereferenceable(24) %formatter, ptr noalias noundef nonnull readonly align 1 captures(address, read_provenance) @alloc_ed25939470907cc45868cf88be2213ae, i64 noundef 12)
  br label %bb20

bb10:                                             ; preds = %start
; call <core::fmt::Formatter>::write_str
  %30 = tail call noundef zeroext i1 @_RNvMsa_NtCsjMrxcFdYDNN_4core3fmtNtB5_9Formatter9write_str(ptr noalias noundef nonnull align 8 dereferenceable(24) %formatter, ptr noalias noundef nonnull readonly align 1 captures(address, read_provenance) @alloc_75a83eb403fb44d7d40ce07a19896f1a, i64 noundef 14)
  br label %bb20

bb9:                                              ; preds = %start
; call <core::fmt::Formatter>::write_str
  %31 = tail call noundef zeroext i1 @_RNvMsa_NtCsjMrxcFdYDNN_4core3fmtNtB5_9Formatter9write_str(ptr noalias noundef nonnull align 8 dereferenceable(24) %formatter, ptr noalias noundef nonnull readonly align 1 captures(address, read_provenance) @alloc_28627ebe4d30a1dba10489a5b7ee6c08, i64 noundef 8)
  br label %bb20

bb8:                                              ; preds = %start
; call <core::fmt::Formatter>::write_str
  %32 = tail call noundef zeroext i1 @_RNvMsa_NtCsjMrxcFdYDNN_4core3fmtNtB5_9Formatter9write_str(ptr noalias noundef nonnull align 8 dereferenceable(24) %formatter, ptr noalias noundef nonnull readonly align 1 captures(address, read_provenance) @alloc_f64da6626db26f42eb5cf1538279bc97, i64 noundef 3)
  br label %bb20

bb7:                                              ; preds = %start
; call <core::fmt::Formatter>::write_str
  %33 = tail call noundef zeroext i1 @_RNvMsa_NtCsjMrxcFdYDNN_4core3fmtNtB5_9Formatter9write_str(ptr noalias noundef nonnull align 8 dereferenceable(24) %formatter, ptr noalias noundef nonnull readonly align 1 captures(address, read_provenance) @alloc_0c86e21b9393309a73d8c83ea592b5d3, i64 noundef 4)
  br label %bb20

bb6:                                              ; preds = %start
; call <core::fmt::Formatter>::write_str
  %34 = tail call noundef zeroext i1 @_RNvMsa_NtCsjMrxcFdYDNN_4core3fmtNtB5_9Formatter9write_str(ptr noalias noundef nonnull align 8 dereferenceable(24) %formatter, ptr noalias noundef nonnull readonly align 1 captures(address, read_provenance) @alloc_d50d4a9354a72dc2f39a97d409dcf9e8, i64 noundef 12)
  br label %bb20

bb5:                                              ; preds = %start
; call <core::fmt::Formatter>::write_str
  %35 = tail call noundef zeroext i1 @_RNvMsa_NtCsjMrxcFdYDNN_4core3fmtNtB5_9Formatter9write_str(ptr noalias noundef nonnull align 8 dereferenceable(24) %formatter, ptr noalias noundef nonnull readonly align 1 captures(address, read_provenance) @alloc_5165f25578620c4e6e2db5730ba145a8, i64 noundef 15)
  br label %bb20

bb4:                                              ; preds = %start
; call <core::fmt::Formatter>::write_str
  %36 = tail call noundef zeroext i1 @_RNvMsa_NtCsjMrxcFdYDNN_4core3fmtNtB5_9Formatter9write_str(ptr noalias noundef nonnull align 8 dereferenceable(24) %formatter, ptr noalias noundef nonnull readonly align 1 captures(address, read_provenance) @alloc_f3de780dfcd9dde1cd2f193fac08fe6e, i64 noundef 13)
  br label %bb20

bb3:                                              ; preds = %start
; call <core::fmt::Formatter>::write_str
  %37 = tail call noundef zeroext i1 @_RNvMsa_NtCsjMrxcFdYDNN_4core3fmtNtB5_9Formatter9write_str(ptr noalias noundef nonnull align 8 dereferenceable(24) %formatter, ptr noalias noundef nonnull readonly align 1 captures(address, read_provenance) @alloc_54c993fbc9a365a4174d884410d94a9a, i64 noundef 14)
  br label %bb20

bb2:                                              ; preds = %start
  %38 = getelementptr inbounds nuw i8, ptr %self, i64 8
  %other.0 = load ptr, ptr %38, align 8, !nonnull !2, !align !4, !noundef !2
  %39 = getelementptr inbounds nuw i8, ptr %self, i64 16
  %other.1 = load i64, ptr %39, align 8, !noundef !2
; call <core::fmt::Formatter>::write_str
  %40 = tail call noundef zeroext i1 @_RNvMsa_NtCsjMrxcFdYDNN_4core3fmtNtB5_9Formatter9write_str(ptr noalias noundef nonnull align 8 dereferenceable(24) %formatter, ptr noalias noundef nonnull readonly align 1 captures(address, read_provenance) %other.0, i64 noundef %other.1)
  br label %bb20

bb20:                                             ; preds = %bb2, %bb3, %bb4, %bb5, %bb6, %bb7, %bb8, %bb9, %bb10, %bb11, %bb12, %bb13, %bb14, %bb15, %bb16, %bb17, %bb18, %bb19
  %_0.sroa.0.1.in = phi i1 [ %4, %bb19 ], [ %8, %bb18 ], [ %12, %bb17 ], [ %15, %bb16 ], [ %19, %bb15 ], [ %26, %bb14 ], [ %27, %bb13 ], [ %28, %bb12 ], [ %29, %bb11 ], [ %30, %bb10 ], [ %31, %bb9 ], [ %32, %bb8 ], [ %33, %bb7 ], [ %34, %bb6 ], [ %35, %bb5 ], [ %36, %bb4 ], [ %37, %bb3 ], [ %40, %bb2 ]
  ret i1 %_0.sroa.0.1.in
}

; <serde_core::de::ignored_any::IgnoredAny as serde_core::de::Visitor>::expecting
; Function Attrs: uwtable
define noundef zeroext i1 @_RNvXNtNtCsasqbmkB9jT1_10serde_core2de11ignored_anyNtB2_10IgnoredAnyNtB4_7Visitor9expecting(ptr noalias noundef nonnull readonly align 1 captures(none) %self, ptr noalias noundef align 8 dereferenceable(24) %formatter) unnamed_addr #1 {
start:
; call <core::fmt::Formatter>::write_str
  %_0 = tail call noundef zeroext i1 @_RNvMsa_NtCsjMrxcFdYDNN_4core3fmtNtB5_9Formatter9write_str(ptr noalias noundef nonnull align 8 dereferenceable(24) %formatter, ptr noalias noundef nonnull readonly align 1 captures(address, read_provenance) @alloc_d28ec02641fdaf5772353fade2aa29ec, i64 noundef 15)
  ret i1 %_0
}

; <serde_core::de::impls::UnitVisitor as serde_core::de::Visitor>::expecting
; Function Attrs: uwtable
define noundef zeroext i1 @_RNvXNtNtCsasqbmkB9jT1_10serde_core2de5implsNtB2_11UnitVisitorNtB4_7Visitor9expecting(ptr noalias noundef nonnull readonly align 1 captures(none) %self, ptr noalias noundef align 8 dereferenceable(24) %formatter) unnamed_addr #1 {
start:
; call <core::fmt::Formatter>::write_str
  %_0 = tail call noundef zeroext i1 @_RNvMsa_NtCsjMrxcFdYDNN_4core3fmtNtB5_9Formatter9write_str(ptr noalias noundef nonnull align 8 dereferenceable(24) %formatter, ptr noalias noundef nonnull readonly align 1 captures(address, read_provenance) @alloc_60908ebd71d3c48bb75f573a2c05b07b, i64 noundef 4)
  ret i1 %_0
}

; <<serde_core::de::impls::range_from::Field as serde_core::de::Deserialize>::deserialize::FieldVisitor as serde_core::de::Visitor>::expecting
; Function Attrs: uwtable
define noundef zeroext i1 @_RNvXNvXNtNtNtCsasqbmkB9jT1_10serde_core2de5impls10range_fromNtB5_5FieldNtB9_11Deserialize11deserializeNtB2_12FieldVisitorNtB9_7Visitor9expecting(ptr noalias noundef nonnull readonly align 1 captures(none) %self, ptr noalias noundef align 8 dereferenceable(24) %formatter) unnamed_addr #1 {
start:
; call <core::fmt::Formatter>::write_str
  %_0 = tail call noundef zeroext i1 @_RNvMsa_NtCsjMrxcFdYDNN_4core3fmtNtB5_9Formatter9write_str(ptr noalias noundef nonnull align 8 dereferenceable(24) %formatter, ptr noalias noundef nonnull readonly align 1 captures(address, read_provenance) @alloc_35c641035b55573a47459d71a17bbf7a, i64 noundef 7)
  ret i1 %_0
}

; <<serde_core::de::impls::range::Field as serde_core::de::Deserialize>::deserialize::FieldVisitor as serde_core::de::Visitor>::expecting
; Function Attrs: uwtable
define noundef zeroext i1 @_RNvXNvXNtNtNtCsasqbmkB9jT1_10serde_core2de5impls5rangeNtB5_5FieldNtB9_11Deserialize11deserializeNtB2_12FieldVisitorNtB9_7Visitor9expecting(ptr noalias noundef nonnull readonly align 1 captures(none) %self, ptr noalias noundef align 8 dereferenceable(24) %formatter) unnamed_addr #1 {
start:
; call <core::fmt::Formatter>::write_str
  %_0 = tail call noundef zeroext i1 @_RNvMsa_NtCsjMrxcFdYDNN_4core3fmtNtB5_9Formatter9write_str(ptr noalias noundef nonnull align 8 dereferenceable(24) %formatter, ptr noalias noundef nonnull readonly align 1 captures(address, read_provenance) @alloc_403f379e6f0d042b23f1475818a29fd1, i64 noundef 16)
  ret i1 %_0
}

; <<serde_core::de::impls::range_to::Field as serde_core::de::Deserialize>::deserialize::FieldVisitor as serde_core::de::Visitor>::expecting
; Function Attrs: uwtable
define noundef zeroext i1 @_RNvXNvXNtNtNtCsasqbmkB9jT1_10serde_core2de5impls8range_toNtB5_5FieldNtB9_11Deserialize11deserializeNtB2_12FieldVisitorNtB9_7Visitor9expecting(ptr noalias noundef nonnull readonly align 1 captures(none) %self, ptr noalias noundef align 8 dereferenceable(24) %formatter) unnamed_addr #1 {
start:
; call <core::fmt::Formatter>::write_str
  %_0 = tail call noundef zeroext i1 @_RNvMsa_NtCsjMrxcFdYDNN_4core3fmtNtB5_9Formatter9write_str(ptr noalias noundef nonnull align 8 dereferenceable(24) %formatter, ptr noalias noundef nonnull readonly align 1 captures(address, read_provenance) @alloc_907168e132c920ad4bd17ec5a7bb0ace, i64 noundef 5)
  ret i1 %_0
}

; <<<core::ops::range::Bound<_> as serde_core::de::Deserialize>::deserialize::Field as serde_core::de::Deserialize>::deserialize::FieldVisitor as serde_core::de::Visitor>::expecting
; Function Attrs: uwtable
define noundef zeroext i1 @_RNvXNvXNvXsC_NtNtCsasqbmkB9jT1_10serde_core2de5implsINtNtNtCsjMrxcFdYDNN_4core3ops5range5BoundpENtBd_11Deserialize11deserializeNtB5_5FieldB1w_11deserializeNtB2_12FieldVisitorNtBd_7Visitor9expecting(ptr noalias noundef nonnull readonly align 1 captures(none) %self, ptr noalias noundef align 8 dereferenceable(24) %formatter) unnamed_addr #1 {
start:
; call <core::fmt::Formatter>::write_str
  %_0 = tail call noundef zeroext i1 @_RNvMsa_NtCsjMrxcFdYDNN_4core3fmtNtB5_9Formatter9write_str(ptr noalias noundef nonnull align 8 dereferenceable(24) %formatter, ptr noalias noundef nonnull readonly align 1 captures(address, read_provenance) @alloc_227be0afe1214da168c4dc080c34d2b9, i64 noundef 37)
  ret i1 %_0
}

; <<<core::result::Result<_, _> as serde_core::de::Deserialize>::deserialize::Field as serde_core::de::Deserialize>::deserialize::FieldVisitor as serde_core::de::Visitor>::expecting
; Function Attrs: uwtable
define noundef zeroext i1 @_RNvXNvXNvXsD_NtNtCsasqbmkB9jT1_10serde_core2de5implsINtNtCsjMrxcFdYDNN_4core6result6ResultppENtBd_11Deserialize11deserializeNtB5_5FieldB1t_11deserializeNtB2_12FieldVisitorNtBd_7Visitor9expecting(ptr noalias noundef nonnull readonly align 1 captures(none) %self, ptr noalias noundef align 8 dereferenceable(24) %formatter) unnamed_addr #1 {
start:
; call <core::fmt::Formatter>::write_str
  %_0 = tail call noundef zeroext i1 @_RNvMsa_NtCsjMrxcFdYDNN_4core3fmtNtB5_9Formatter9write_str(ptr noalias noundef nonnull align 8 dereferenceable(24) %formatter, ptr noalias noundef nonnull readonly align 1 captures(address, read_provenance) @alloc_37269ef78b297bba4460529dfa7b033e, i64 noundef 13)
  ret i1 %_0
}

; <<<core::time::Duration as serde_core::de::Deserialize>::deserialize::Field as serde_core::de::Deserialize>::deserialize::FieldVisitor as serde_core::de::Visitor>::expecting
; Function Attrs: uwtable
define noundef zeroext i1 @_RNvXNvXNvXsw_NtNtCsasqbmkB9jT1_10serde_core2de5implsNtNtCsjMrxcFdYDNN_4core4time8DurationNtBd_11Deserialize11deserializeNtB5_5FieldB1p_11deserializeNtB2_12FieldVisitorNtBd_7Visitor9expecting(ptr noalias noundef nonnull readonly align 1 captures(none) %self, ptr noalias noundef align 8 dereferenceable(24) %formatter) unnamed_addr #1 {
start:
; call <core::fmt::Formatter>::write_str
  %_0 = tail call noundef zeroext i1 @_RNvMsa_NtCsjMrxcFdYDNN_4core3fmtNtB5_9Formatter9write_str(ptr noalias noundef nonnull align 8 dereferenceable(24) %formatter, ptr noalias noundef nonnull readonly align 1 captures(address, read_provenance) @alloc_9c2d1e9e7d8231967215980a9c3d1c36, i64 noundef 17)
  ret i1 %_0
}

; <<<std::time::SystemTime as serde_core::de::Deserialize>::deserialize::Field as serde_core::de::Deserialize>::deserialize::FieldVisitor as serde_core::de::Visitor>::expecting
; Function Attrs: uwtable
define noundef zeroext i1 @_RNvXNvXNvXsx_NtNtCsasqbmkB9jT1_10serde_core2de5implsNtNtCs5sEH5CPMdak_3std4time10SystemTimeNtBd_11Deserialize11deserializeNtB5_5FieldB1r_11deserializeNtB2_12FieldVisitorNtBd_7Visitor9expecting(ptr noalias noundef nonnull readonly align 1 captures(none) %self, ptr noalias noundef align 8 dereferenceable(24) %formatter) unnamed_addr #1 {
start:
; call <core::fmt::Formatter>::write_str
  %_0 = tail call noundef zeroext i1 @_RNvMsa_NtCsjMrxcFdYDNN_4core3fmtNtB5_9Formatter9write_str(ptr noalias noundef nonnull align 8 dereferenceable(24) %formatter, ptr noalias noundef nonnull readonly align 1 captures(address, read_provenance) @alloc_41a3868832a4b779c010dca21449256a, i64 noundef 41)
  ret i1 %_0
}

; <<core::num::saturating::Saturating<u16> as serde_core::de::Deserialize>::deserialize::SaturatingVisitor as serde_core::de::Visitor>::expecting
; Function Attrs: uwtable
define noundef zeroext i1 @_RNvXNvXs10_NtNtCsasqbmkB9jT1_10serde_core2de5implsINtNtNtCsjMrxcFdYDNN_4core3num10saturating10SaturatingtENtBb_11Deserialize11deserializeNtB2_17SaturatingVisitorNtBb_7Visitor9expecting(ptr noalias noundef nonnull readonly align 1 captures(none) %self, ptr noalias noundef align 8 dereferenceable(24) %formatter) unnamed_addr #1 {
start:
; call <core::fmt::Formatter>::write_str
  %_0 = tail call noundef zeroext i1 @_RNvMsa_NtCsjMrxcFdYDNN_4core3fmtNtB5_9Formatter9write_str(ptr noalias noundef nonnull align 8 dereferenceable(24) %formatter, ptr noalias noundef nonnull readonly align 1 captures(address, read_provenance) @alloc_4578668cbfb825965e90b862b445e1d1, i64 noundef 45)
  ret i1 %_0
}

; <<u16 as serde_core::de::Deserialize>::deserialize::PrimitiveVisitor as serde_core::de::Visitor>::expecting
; Function Attrs: uwtable
define noundef zeroext i1 @_RNvXNvXs11_NtNtCsasqbmkB9jT1_10serde_core2de5implstNtBb_11Deserialize11deserializeNtB2_16PrimitiveVisitorNtBb_7Visitor9expecting(ptr noalias noundef nonnull readonly align 1 captures(none) %self, ptr noalias noundef align 8 dereferenceable(24) %formatter) unnamed_addr #1 {
start:
; call <core::fmt::Formatter>::write_str
  %_0 = tail call noundef zeroext i1 @_RNvMsa_NtCsjMrxcFdYDNN_4core3fmtNtB5_9Formatter9write_str(ptr noalias noundef nonnull align 8 dereferenceable(24) %formatter, ptr noalias noundef nonnull readonly align 1 captures(address, read_provenance) @alloc_0d3fdde1e4251889fe20be0554d3a4df, i64 noundef 3)
  ret i1 %_0
}

; <<core::num::nonzero::NonZero<u32> as serde_core::de::Deserialize>::deserialize::NonZeroVisitor as serde_core::de::Visitor>::expecting
; Function Attrs: uwtable
define noundef zeroext i1 @_RNvXNvXs12_NtNtCsasqbmkB9jT1_10serde_core2de5implsINtNtNtCsjMrxcFdYDNN_4core3num7nonzero7NonZeromENtBb_11Deserialize11deserializeNtB2_14NonZeroVisitorNtBb_7Visitor9expecting(ptr noalias noundef nonnull readonly align 1 captures(none) %self, ptr noalias noundef align 8 dereferenceable(24) %formatter) unnamed_addr #1 {
start:
; call <core::fmt::Formatter>::write_str
  %_0 = tail call noundef zeroext i1 @_RNvMsa_NtCsjMrxcFdYDNN_4core3fmtNtB5_9Formatter9write_str(ptr noalias noundef nonnull align 8 dereferenceable(24) %formatter, ptr noalias noundef nonnull readonly align 1 captures(address, read_provenance) @alloc_56c605254b56055bd30cc556483df307, i64 noundef 13)
  ret i1 %_0
}

; <<u32 as serde_core::de::Deserialize>::deserialize::PrimitiveVisitor as serde_core::de::Visitor>::expecting
; Function Attrs: uwtable
define noundef zeroext i1 @_RNvXNvXs14_NtNtCsasqbmkB9jT1_10serde_core2de5implsmNtBb_11Deserialize11deserializeNtB2_16PrimitiveVisitorNtBb_7Visitor9expecting(ptr noalias noundef nonnull readonly align 1 captures(none) %self, ptr noalias noundef align 8 dereferenceable(24) %formatter) unnamed_addr #1 {
start:
; call <core::fmt::Formatter>::write_str
  %_0 = tail call noundef zeroext i1 @_RNvMsa_NtCsjMrxcFdYDNN_4core3fmtNtB5_9Formatter9write_str(ptr noalias noundef nonnull align 8 dereferenceable(24) %formatter, ptr noalias noundef nonnull readonly align 1 captures(address, read_provenance) @alloc_40dca76ea60e772225aeb9a5dae9c756, i64 noundef 3)
  ret i1 %_0
}

; <<core::num::nonzero::NonZero<u64> as serde_core::de::Deserialize>::deserialize::NonZeroVisitor as serde_core::de::Visitor>::expecting
; Function Attrs: uwtable
define noundef zeroext i1 @_RNvXNvXs15_NtNtCsasqbmkB9jT1_10serde_core2de5implsINtNtNtCsjMrxcFdYDNN_4core3num7nonzero7NonZeroyENtBb_11Deserialize11deserializeNtB2_14NonZeroVisitorNtBb_7Visitor9expecting(ptr noalias noundef nonnull readonly align 1 captures(none) %self, ptr noalias noundef align 8 dereferenceable(24) %formatter) unnamed_addr #1 {
start:
; call <core::fmt::Formatter>::write_str
  %_0 = tail call noundef zeroext i1 @_RNvMsa_NtCsjMrxcFdYDNN_4core3fmtNtB5_9Formatter9write_str(ptr noalias noundef nonnull align 8 dereferenceable(24) %formatter, ptr noalias noundef nonnull readonly align 1 captures(address, read_provenance) @alloc_67a12150f1b3f44f5d2db36a995e0423, i64 noundef 13)
  ret i1 %_0
}

; <<u64 as serde_core::de::Deserialize>::deserialize::PrimitiveVisitor as serde_core::de::Visitor>::expecting
; Function Attrs: uwtable
define noundef zeroext i1 @_RNvXNvXs17_NtNtCsasqbmkB9jT1_10serde_core2de5implsyNtBb_11Deserialize11deserializeNtB2_16PrimitiveVisitorNtBb_7Visitor9expecting(ptr noalias noundef nonnull readonly align 1 captures(none) %self, ptr noalias noundef align 8 dereferenceable(24) %formatter) unnamed_addr #1 {
start:
; call <core::fmt::Formatter>::write_str
  %_0 = tail call noundef zeroext i1 @_RNvMsa_NtCsjMrxcFdYDNN_4core3fmtNtB5_9Formatter9write_str(ptr noalias noundef nonnull align 8 dereferenceable(24) %formatter, ptr noalias noundef nonnull readonly align 1 captures(address, read_provenance) @alloc_4c3daea643e86fcf49e0a8dcf3e4c20b, i64 noundef 3)
  ret i1 %_0
}

; <<core::num::nonzero::NonZero<usize> as serde_core::de::Deserialize>::deserialize::NonZeroVisitor as serde_core::de::Visitor>::expecting
; Function Attrs: uwtable
define noundef zeroext i1 @_RNvXNvXs18_NtNtCsasqbmkB9jT1_10serde_core2de5implsINtNtNtCsjMrxcFdYDNN_4core3num7nonzero7NonZerojENtBb_11Deserialize11deserializeNtB2_14NonZeroVisitorNtBb_7Visitor9expecting(ptr noalias noundef nonnull readonly align 1 captures(none) %self, ptr noalias noundef align 8 dereferenceable(24) %formatter) unnamed_addr #1 {
start:
; call <core::fmt::Formatter>::write_str
  %_0 = tail call noundef zeroext i1 @_RNvMsa_NtCsjMrxcFdYDNN_4core3fmtNtB5_9Formatter9write_str(ptr noalias noundef nonnull align 8 dereferenceable(24) %formatter, ptr noalias noundef nonnull readonly align 1 captures(address, read_provenance) @alloc_657429e32a7efcc42bbbd2313ae1e041, i64 noundef 15)
  ret i1 %_0
}

; <<usize as serde_core::de::Deserialize>::deserialize::PrimitiveVisitor as serde_core::de::Visitor>::expecting
; Function Attrs: uwtable
define noundef zeroext i1 @_RNvXNvXs1a_NtNtCsasqbmkB9jT1_10serde_core2de5implsjNtBb_11Deserialize11deserializeNtB2_16PrimitiveVisitorNtBb_7Visitor9expecting(ptr noalias noundef nonnull readonly align 1 captures(none) %self, ptr noalias noundef align 8 dereferenceable(24) %formatter) unnamed_addr #1 {
start:
; call <core::fmt::Formatter>::write_str
  %_0 = tail call noundef zeroext i1 @_RNvMsa_NtCsjMrxcFdYDNN_4core3fmtNtB5_9Formatter9write_str(ptr noalias noundef nonnull align 8 dereferenceable(24) %formatter, ptr noalias noundef nonnull readonly align 1 captures(address, read_provenance) @alloc_087073340adf6d09480d7739d2e7638d, i64 noundef 5)
  ret i1 %_0
}

; <<f32 as serde_core::de::Deserialize>::deserialize::PrimitiveVisitor as serde_core::de::Visitor>::expecting
; Function Attrs: uwtable
define noundef zeroext i1 @_RNvXNvXs1b_NtNtCsasqbmkB9jT1_10serde_core2de5implsfNtBb_11Deserialize11deserializeNtB2_16PrimitiveVisitorNtBb_7Visitor9expecting(ptr noalias noundef nonnull readonly align 1 captures(none) %self, ptr noalias noundef align 8 dereferenceable(24) %formatter) unnamed_addr #1 {
start:
; call <core::fmt::Formatter>::write_str
  %_0 = tail call noundef zeroext i1 @_RNvMsa_NtCsjMrxcFdYDNN_4core3fmtNtB5_9Formatter9write_str(ptr noalias noundef nonnull align 8 dereferenceable(24) %formatter, ptr noalias noundef nonnull readonly align 1 captures(address, read_provenance) @alloc_c8dbd11c0d0afd7250de135d09c6bf30, i64 noundef 3)
  ret i1 %_0
}

; <<f64 as serde_core::de::Deserialize>::deserialize::PrimitiveVisitor as serde_core::de::Visitor>::expecting
; Function Attrs: uwtable
define noundef zeroext i1 @_RNvXNvXs1c_NtNtCsasqbmkB9jT1_10serde_core2de5implsdNtBb_11Deserialize11deserializeNtB2_16PrimitiveVisitorNtBb_7Visitor9expecting(ptr noalias noundef nonnull readonly align 1 captures(none) %self, ptr noalias noundef align 8 dereferenceable(24) %formatter) unnamed_addr #1 {
start:
; call <core::fmt::Formatter>::write_str
  %_0 = tail call noundef zeroext i1 @_RNvMsa_NtCsjMrxcFdYDNN_4core3fmtNtB5_9Formatter9write_str(ptr noalias noundef nonnull align 8 dereferenceable(24) %formatter, ptr noalias noundef nonnull readonly align 1 captures(address, read_provenance) @alloc_2717017e1ae813f478f43d8b0722e846, i64 noundef 3)
  ret i1 %_0
}

; <<core::num::nonzero::NonZero<i128> as serde_core::de::Deserialize>::deserialize::NonZeroVisitor as serde_core::de::Visitor>::expecting
; Function Attrs: uwtable
define noundef zeroext i1 @_RNvXNvXs1d_NtNtCsasqbmkB9jT1_10serde_core2de5implsINtNtNtCsjMrxcFdYDNN_4core3num7nonzero7NonZeronENtBb_11Deserialize11deserializeNtB2_14NonZeroVisitorNtBb_7Visitor9expecting(ptr noalias noundef nonnull readonly align 1 captures(none) %self, ptr noalias noundef align 8 dereferenceable(24) %formatter) unnamed_addr #1 {
start:
; call <core::fmt::Formatter>::write_str
  %_0 = tail call noundef zeroext i1 @_RNvMsa_NtCsjMrxcFdYDNN_4core3fmtNtB5_9Formatter9write_str(ptr noalias noundef nonnull align 8 dereferenceable(24) %formatter, ptr noalias noundef nonnull readonly align 1 captures(address, read_provenance) @alloc_1c47fc7c571b61d0300497f44f41c6f0, i64 noundef 14)
  ret i1 %_0
}

; <<i128 as serde_core::de::Deserialize>::deserialize::PrimitiveVisitor as serde_core::de::Visitor>::expecting
; Function Attrs: uwtable
define noundef zeroext i1 @_RNvXNvXs1f_NtNtCsasqbmkB9jT1_10serde_core2de5implsnNtBb_11Deserialize11deserializeNtB2_16PrimitiveVisitorNtBb_7Visitor9expecting(ptr noalias noundef nonnull readonly align 1 captures(none) %self, ptr noalias noundef align 8 dereferenceable(24) %formatter) unnamed_addr #1 {
start:
; call <core::fmt::Formatter>::write_str
  %_0 = tail call noundef zeroext i1 @_RNvMsa_NtCsjMrxcFdYDNN_4core3fmtNtB5_9Formatter9write_str(ptr noalias noundef nonnull align 8 dereferenceable(24) %formatter, ptr noalias noundef nonnull readonly align 1 captures(address, read_provenance) @alloc_fc155f0a6f9ce04075e55a71ca237d6b, i64 noundef 4)
  ret i1 %_0
}

; <<core::num::nonzero::NonZero<u128> as serde_core::de::Deserialize>::deserialize::NonZeroVisitor as serde_core::de::Visitor>::expecting
; Function Attrs: uwtable
define noundef zeroext i1 @_RNvXNvXs1g_NtNtCsasqbmkB9jT1_10serde_core2de5implsINtNtNtCsjMrxcFdYDNN_4core3num7nonzero7NonZerooENtBb_11Deserialize11deserializeNtB2_14NonZeroVisitorNtBb_7Visitor9expecting(ptr noalias noundef nonnull readonly align 1 captures(none) %self, ptr noalias noundef align 8 dereferenceable(24) %formatter) unnamed_addr #1 {
start:
; call <core::fmt::Formatter>::write_str
  %_0 = tail call noundef zeroext i1 @_RNvMsa_NtCsjMrxcFdYDNN_4core3fmtNtB5_9Formatter9write_str(ptr noalias noundef nonnull align 8 dereferenceable(24) %formatter, ptr noalias noundef nonnull readonly align 1 captures(address, read_provenance) @alloc_da28a88f2b8f5f70feb2e2b2b4b8aadf, i64 noundef 14)
  ret i1 %_0
}

; <<u128 as serde_core::de::Deserialize>::deserialize::PrimitiveVisitor as serde_core::de::Visitor>::expecting
; Function Attrs: uwtable
define noundef zeroext i1 @_RNvXNvXs1i_NtNtCsasqbmkB9jT1_10serde_core2de5implsoNtBb_11Deserialize11deserializeNtB2_16PrimitiveVisitorNtBb_7Visitor9expecting(ptr noalias noundef nonnull readonly align 1 captures(none) %self, ptr noalias noundef align 8 dereferenceable(24) %formatter) unnamed_addr #1 {
start:
; call <core::fmt::Formatter>::write_str
  %_0 = tail call noundef zeroext i1 @_RNvMsa_NtCsjMrxcFdYDNN_4core3fmtNtB5_9Formatter9write_str(ptr noalias noundef nonnull align 8 dereferenceable(24) %formatter, ptr noalias noundef nonnull readonly align 1 captures(address, read_provenance) @alloc_c6dac74b65b8f5d0fd6a204546100ec0, i64 noundef 4)
  ret i1 %_0
}

; <<serde_core::de::impls::OsStringKind as serde_core::de::Deserialize>::deserialize::KindVisitor as serde_core::de::Visitor>::expecting
; Function Attrs: uwtable
define noundef zeroext i1 @_RNvXNvXs3k_NtNtCsasqbmkB9jT1_10serde_core2de5implsNtB9_12OsStringKindNtBb_11Deserialize11deserializeNtB2_11KindVisitorNtBb_7Visitor9expecting(ptr noalias noundef nonnull readonly align 1 captures(none) %self, ptr noalias noundef align 8 dereferenceable(24) %formatter) unnamed_addr #1 {
start:
; call <core::fmt::Formatter>::write_str
  %_0 = tail call noundef zeroext i1 @_RNvMsa_NtCsjMrxcFdYDNN_4core3fmtNtB5_9Formatter9write_str(ptr noalias noundef nonnull align 8 dereferenceable(24) %formatter, ptr noalias noundef nonnull readonly align 1 captures(address, read_provenance) @alloc_642c577bcc714afd96438418babfd0db, i64 noundef 19)
  ret i1 %_0
}

; <<serde_core::de::WithDecimalPoint as core::fmt::Display>::fmt::LookForDecimalPoint as core::fmt::Write>::write_char
; Function Attrs: uwtable
define noundef zeroext i1 @_RNvXNvXs7_NtCsasqbmkB9jT1_10serde_core2deNtB8_16WithDecimalPointNtNtCsjMrxcFdYDNN_4core3fmt7Display3fmtNtB2_19LookForDecimalPointNtB12_5Write10write_char(ptr noalias noundef align 8 captures(none) dereferenceable(16) %self, i32 noundef range(i32 0, 1114112) %ch) unnamed_addr #1 {
start:
  %_3 = icmp eq i32 %ch, 46
  %0 = getelementptr inbounds nuw i8, ptr %self, i64 8
  %1 = load i8, ptr %0, align 8, !range !6, !noundef !2
  %2 = trunc nuw i8 %1 to i1
  %3 = or i1 %_3, %2
  %4 = zext i1 %3 to i8
  store i8 %4, ptr %0, align 8
  %_4 = load ptr, ptr %self, align 8, !nonnull !2, !align !7, !noundef !2
; call <core::fmt::Formatter as core::fmt::Write>::write_char
  %_0 = tail call noundef zeroext i1 @_RNvXsb_NtCsjMrxcFdYDNN_4core3fmtNtB5_9FormatterNtB5_5Write10write_char(ptr noalias noundef nonnull align 8 dereferenceable(24) %_4, i32 noundef %ch)
  ret i1 %_0
}

; <<serde_core::de::WithDecimalPoint as core::fmt::Display>::fmt::LookForDecimalPoint as core::fmt::Write>::write_str
; Function Attrs: uwtable
define noundef zeroext i1 @_RNvXNvXs7_NtCsasqbmkB9jT1_10serde_core2deNtB8_16WithDecimalPointNtNtCsjMrxcFdYDNN_4core3fmt7Display3fmtNtB2_19LookForDecimalPointNtB12_5Write9write_str(ptr noalias noundef align 8 captures(none) dereferenceable(16) %self, ptr noalias noundef nonnull readonly align 1 captures(address, read_provenance) %fragment.0, i64 noundef %fragment.1) unnamed_addr #1 {
start:
  %_3.i.i = icmp samesign ult i64 %fragment.1, 16
  br i1 %_3.i.i, label %bb5.preheader.i.i, label %bb2.i.i

bb5.preheader.i.i:                                ; preds = %start
  %_64.not.i.i = icmp eq i64 %fragment.1, 0
  br i1 %_64.not.i.i, label %_RNvXs2_NtNtCsjMrxcFdYDNN_4core3str7patterncNtB5_7Pattern15is_contained_in.exit, label %bb7.i.i

bb2.i.i:                                          ; preds = %start
; call core::slice::memchr::memchr_aligned
  %0 = tail call { i64, i64 } @_RNvNtNtCsjMrxcFdYDNN_4core5slice6memchr14memchr_aligned(i8 noundef 46, ptr noalias noundef nonnull readonly align 1 captures(address, read_provenance) %fragment.0, i64 noundef range(i64 0, -9223372036854775808) %fragment.1)
  %1 = extractvalue { i64, i64 } %0, 0
  %2 = icmp eq i64 %1, 1
  br label %_RNvXs2_NtNtCsjMrxcFdYDNN_4core3str7patterncNtB5_7Pattern15is_contained_in.exit

bb7.i.i:                                          ; preds = %bb5.preheader.i.i, %bb7.i.i
  %i.sroa.0.05.i.i = phi i64 [ %4, %bb7.i.i ], [ 0, %bb5.preheader.i.i ]
  %3 = getelementptr inbounds nuw i8, ptr %fragment.0, i64 %i.sroa.0.05.i.i
  %_9.i.i = load i8, ptr %3, align 1, !alias.scope !9, !noundef !2
  %_8.i.i = icmp eq i8 %_9.i.i, 46
  %4 = add nuw nsw i64 %i.sroa.0.05.i.i, 1
  %exitcond.not.i.i = icmp eq i64 %4, %fragment.1
  %or.cond = select i1 %_8.i.i, i1 true, i1 %exitcond.not.i.i
  br i1 %or.cond, label %_RNvXs2_NtNtCsjMrxcFdYDNN_4core3str7patterncNtB5_7Pattern15is_contained_in.exit, label %bb7.i.i

_RNvXs2_NtNtCsjMrxcFdYDNN_4core3str7patterncNtB5_7Pattern15is_contained_in.exit: ; preds = %bb7.i.i, %bb5.preheader.i.i, %bb2.i.i
  %.merged.i.i = phi i1 [ %2, %bb2.i.i ], [ false, %bb5.preheader.i.i ], [ %_8.i.i, %bb7.i.i ]
  %5 = getelementptr inbounds nuw i8, ptr %self, i64 8
  %6 = load i8, ptr %5, align 8, !range !6, !noundef !2
  %7 = trunc nuw i8 %6 to i1
  %8 = or i1 %.merged.i.i, %7
  %9 = zext i1 %8 to i8
  store i8 %9, ptr %5, align 8
  %_4 = load ptr, ptr %self, align 8, !nonnull !2, !align !7, !noundef !2
; call <core::fmt::Formatter>::write_str
  %_0 = tail call noundef zeroext i1 @_RNvMsa_NtCsjMrxcFdYDNN_4core3fmtNtB5_9Formatter9write_str(ptr noalias noundef nonnull align 8 dereferenceable(24) %_4, ptr noalias noundef nonnull readonly align 1 captures(address, read_provenance) %fragment.0, i64 noundef %fragment.1)
  ret i1 %_0
}

; <<core::num::nonzero::NonZero<i8> as serde_core::de::Deserialize>::deserialize::NonZeroVisitor as serde_core::de::Visitor>::expecting
; Function Attrs: uwtable
define noundef zeroext i1 @_RNvXNvXsH_NtNtCsasqbmkB9jT1_10serde_core2de5implsINtNtNtCsjMrxcFdYDNN_4core3num7nonzero7NonZeroaENtBa_11Deserialize11deserializeNtB2_14NonZeroVisitorNtBa_7Visitor9expecting(ptr noalias noundef nonnull readonly align 1 captures(none) %self, ptr noalias noundef align 8 dereferenceable(24) %formatter) unnamed_addr #1 {
start:
; call <core::fmt::Formatter>::write_str
  %_0 = tail call noundef zeroext i1 @_RNvMsa_NtCsjMrxcFdYDNN_4core3fmtNtB5_9Formatter9write_str(ptr noalias noundef nonnull align 8 dereferenceable(24) %formatter, ptr noalias noundef nonnull readonly align 1 captures(address, read_provenance) @alloc_90fd695d1665e0e1663261d957ba6426, i64 noundef 12)
  ret i1 %_0
}

; <<i8 as serde_core::de::Deserialize>::deserialize::PrimitiveVisitor as serde_core::de::Visitor>::expecting
; Function Attrs: uwtable
define noundef zeroext i1 @_RNvXNvXsJ_NtNtCsasqbmkB9jT1_10serde_core2de5implsaNtBa_11Deserialize11deserializeNtB2_16PrimitiveVisitorNtBa_7Visitor9expecting(ptr noalias noundef nonnull readonly align 1 captures(none) %self, ptr noalias noundef align 8 dereferenceable(24) %formatter) unnamed_addr #1 {
start:
; call <core::fmt::Formatter>::write_str
  %_0 = tail call noundef zeroext i1 @_RNvMsa_NtCsjMrxcFdYDNN_4core3fmtNtB5_9Formatter9write_str(ptr noalias noundef nonnull align 8 dereferenceable(24) %formatter, ptr noalias noundef nonnull readonly align 1 captures(address, read_provenance) @alloc_468bbdcdbefe19b6476616d87880f70c, i64 noundef 2)
  ret i1 %_0
}

; <<core::num::nonzero::NonZero<i16> as serde_core::de::Deserialize>::deserialize::NonZeroVisitor as serde_core::de::Visitor>::expecting
; Function Attrs: uwtable
define noundef zeroext i1 @_RNvXNvXsK_NtNtCsasqbmkB9jT1_10serde_core2de5implsINtNtNtCsjMrxcFdYDNN_4core3num7nonzero7NonZerosENtBa_11Deserialize11deserializeNtB2_14NonZeroVisitorNtBa_7Visitor9expecting(ptr noalias noundef nonnull readonly align 1 captures(none) %self, ptr noalias noundef align 8 dereferenceable(24) %formatter) unnamed_addr #1 {
start:
; call <core::fmt::Formatter>::write_str
  %_0 = tail call noundef zeroext i1 @_RNvMsa_NtCsjMrxcFdYDNN_4core3fmtNtB5_9Formatter9write_str(ptr noalias noundef nonnull align 8 dereferenceable(24) %formatter, ptr noalias noundef nonnull readonly align 1 captures(address, read_provenance) @alloc_b6ea8700a6ea68afe60bdd01a1fb2fed, i64 noundef 13)
  ret i1 %_0
}

; <<i16 as serde_core::de::Deserialize>::deserialize::PrimitiveVisitor as serde_core::de::Visitor>::expecting
; Function Attrs: uwtable
define noundef zeroext i1 @_RNvXNvXsM_NtNtCsasqbmkB9jT1_10serde_core2de5implssNtBa_11Deserialize11deserializeNtB2_16PrimitiveVisitorNtBa_7Visitor9expecting(ptr noalias noundef nonnull readonly align 1 captures(none) %self, ptr noalias noundef align 8 dereferenceable(24) %formatter) unnamed_addr #1 {
start:
; call <core::fmt::Formatter>::write_str
  %_0 = tail call noundef zeroext i1 @_RNvMsa_NtCsjMrxcFdYDNN_4core3fmtNtB5_9Formatter9write_str(ptr noalias noundef nonnull align 8 dereferenceable(24) %formatter, ptr noalias noundef nonnull readonly align 1 captures(address, read_provenance) @alloc_b65da51539f621df7a047bc43773eb81, i64 noundef 3)
  ret i1 %_0
}

; <<core::num::nonzero::NonZero<i32> as serde_core::de::Deserialize>::deserialize::NonZeroVisitor as serde_core::de::Visitor>::expecting
; Function Attrs: uwtable
define noundef zeroext i1 @_RNvXNvXsN_NtNtCsasqbmkB9jT1_10serde_core2de5implsINtNtNtCsjMrxcFdYDNN_4core3num7nonzero7NonZerolENtBa_11Deserialize11deserializeNtB2_14NonZeroVisitorNtBa_7Visitor9expecting(ptr noalias noundef nonnull readonly align 1 captures(none) %self, ptr noalias noundef align 8 dereferenceable(24) %formatter) unnamed_addr #1 {
start:
; call <core::fmt::Formatter>::write_str
  %_0 = tail call noundef zeroext i1 @_RNvMsa_NtCsjMrxcFdYDNN_4core3fmtNtB5_9Formatter9write_str(ptr noalias noundef nonnull align 8 dereferenceable(24) %formatter, ptr noalias noundef nonnull readonly align 1 captures(address, read_provenance) @alloc_1cb8e21caf12759b805c63ca88e4bc62, i64 noundef 13)
  ret i1 %_0
}

; <<i32 as serde_core::de::Deserialize>::deserialize::PrimitiveVisitor as serde_core::de::Visitor>::expecting
; Function Attrs: uwtable
define noundef zeroext i1 @_RNvXNvXsP_NtNtCsasqbmkB9jT1_10serde_core2de5implslNtBa_11Deserialize11deserializeNtB2_16PrimitiveVisitorNtBa_7Visitor9expecting(ptr noalias noundef nonnull readonly align 1 captures(none) %self, ptr noalias noundef align 8 dereferenceable(24) %formatter) unnamed_addr #1 {
start:
; call <core::fmt::Formatter>::write_str
  %_0 = tail call noundef zeroext i1 @_RNvMsa_NtCsjMrxcFdYDNN_4core3fmtNtB5_9Formatter9write_str(ptr noalias noundef nonnull align 8 dereferenceable(24) %formatter, ptr noalias noundef nonnull readonly align 1 captures(address, read_provenance) @alloc_f5bb2e494f5d1658dbc347d7b24d2ac3, i64 noundef 3)
  ret i1 %_0
}

; <<core::num::nonzero::NonZero<i64> as serde_core::de::Deserialize>::deserialize::NonZeroVisitor as serde_core::de::Visitor>::expecting
; Function Attrs: uwtable
define noundef zeroext i1 @_RNvXNvXsQ_NtNtCsasqbmkB9jT1_10serde_core2de5implsINtNtNtCsjMrxcFdYDNN_4core3num7nonzero7NonZeroxENtBa_11Deserialize11deserializeNtB2_14NonZeroVisitorNtBa_7Visitor9expecting(ptr noalias noundef nonnull readonly align 1 captures(none) %self, ptr noalias noundef align 8 dereferenceable(24) %formatter) unnamed_addr #1 {
start:
; call <core::fmt::Formatter>::write_str
  %_0 = tail call noundef zeroext i1 @_RNvMsa_NtCsjMrxcFdYDNN_4core3fmtNtB5_9Formatter9write_str(ptr noalias noundef nonnull align 8 dereferenceable(24) %formatter, ptr noalias noundef nonnull readonly align 1 captures(address, read_provenance) @alloc_19dd0779e7994d188e11f57791f5ec0c, i64 noundef 13)
  ret i1 %_0
}

; <<i64 as serde_core::de::Deserialize>::deserialize::PrimitiveVisitor as serde_core::de::Visitor>::expecting
; Function Attrs: uwtable
define noundef zeroext i1 @_RNvXNvXsS_NtNtCsasqbmkB9jT1_10serde_core2de5implsxNtBa_11Deserialize11deserializeNtB2_16PrimitiveVisitorNtBa_7Visitor9expecting(ptr noalias noundef nonnull readonly align 1 captures(none) %self, ptr noalias noundef align 8 dereferenceable(24) %formatter) unnamed_addr #1 {
start:
; call <core::fmt::Formatter>::write_str
  %_0 = tail call noundef zeroext i1 @_RNvMsa_NtCsjMrxcFdYDNN_4core3fmtNtB5_9Formatter9write_str(ptr noalias noundef nonnull align 8 dereferenceable(24) %formatter, ptr noalias noundef nonnull readonly align 1 captures(address, read_provenance) @alloc_b7a8a06bcc169bbf687e36ae2ac3129c, i64 noundef 3)
  ret i1 %_0
}

; <<core::num::nonzero::NonZero<isize> as serde_core::de::Deserialize>::deserialize::NonZeroVisitor as serde_core::de::Visitor>::expecting
; Function Attrs: uwtable
define noundef zeroext i1 @_RNvXNvXsT_NtNtCsasqbmkB9jT1_10serde_core2de5implsINtNtNtCsjMrxcFdYDNN_4core3num7nonzero7NonZeroiENtBa_11Deserialize11deserializeNtB2_14NonZeroVisitorNtBa_7Visitor9expecting(ptr noalias noundef nonnull readonly align 1 captures(none) %self, ptr noalias noundef align 8 dereferenceable(24) %formatter) unnamed_addr #1 {
start:
; call <core::fmt::Formatter>::write_str
  %_0 = tail call noundef zeroext i1 @_RNvMsa_NtCsjMrxcFdYDNN_4core3fmtNtB5_9Formatter9write_str(ptr noalias noundef nonnull align 8 dereferenceable(24) %formatter, ptr noalias noundef nonnull readonly align 1 captures(address, read_provenance) @alloc_54776731d5128195ac4be117774c089e, i64 noundef 15)
  ret i1 %_0
}

; <<isize as serde_core::de::Deserialize>::deserialize::PrimitiveVisitor as serde_core::de::Visitor>::expecting
; Function Attrs: uwtable
define noundef zeroext i1 @_RNvXNvXsV_NtNtCsasqbmkB9jT1_10serde_core2de5implsiNtBa_11Deserialize11deserializeNtB2_16PrimitiveVisitorNtBa_7Visitor9expecting(ptr noalias noundef nonnull readonly align 1 captures(none) %self, ptr noalias noundef align 8 dereferenceable(24) %formatter) unnamed_addr #1 {
start:
; call <core::fmt::Formatter>::write_str
  %_0 = tail call noundef zeroext i1 @_RNvMsa_NtCsjMrxcFdYDNN_4core3fmtNtB5_9Formatter9write_str(ptr noalias noundef nonnull align 8 dereferenceable(24) %formatter, ptr noalias noundef nonnull readonly align 1 captures(address, read_provenance) @alloc_72df7fce5c308ce6e1f7311558c9728e, i64 noundef 5)
  ret i1 %_0
}

; <<core::num::nonzero::NonZero<u8> as serde_core::de::Deserialize>::deserialize::NonZeroVisitor as serde_core::de::Visitor>::expecting
; Function Attrs: uwtable
define noundef zeroext i1 @_RNvXNvXsW_NtNtCsasqbmkB9jT1_10serde_core2de5implsINtNtNtCsjMrxcFdYDNN_4core3num7nonzero7NonZerohENtBa_11Deserialize11deserializeNtB2_14NonZeroVisitorNtBa_7Visitor9expecting(ptr noalias noundef nonnull readonly align 1 captures(none) %self, ptr noalias noundef align 8 dereferenceable(24) %formatter) unnamed_addr #1 {
start:
; call <core::fmt::Formatter>::write_str
  %_0 = tail call noundef zeroext i1 @_RNvMsa_NtCsjMrxcFdYDNN_4core3fmtNtB5_9Formatter9write_str(ptr noalias noundef nonnull align 8 dereferenceable(24) %formatter, ptr noalias noundef nonnull readonly align 1 captures(address, read_provenance) @alloc_397671ae0270f4588996167da840c4fa, i64 noundef 12)
  ret i1 %_0
}

; <<u8 as serde_core::de::Deserialize>::deserialize::PrimitiveVisitor as serde_core::de::Visitor>::expecting
; Function Attrs: uwtable
define noundef zeroext i1 @_RNvXNvXsY_NtNtCsasqbmkB9jT1_10serde_core2de5implshNtBa_11Deserialize11deserializeNtB2_16PrimitiveVisitorNtBa_7Visitor9expecting(ptr noalias noundef nonnull readonly align 1 captures(none) %self, ptr noalias noundef align 8 dereferenceable(24) %formatter) unnamed_addr #1 {
start:
; call <core::fmt::Formatter>::write_str
  %_0 = tail call noundef zeroext i1 @_RNvMsa_NtCsjMrxcFdYDNN_4core3fmtNtB5_9Formatter9write_str(ptr noalias noundef nonnull align 8 dereferenceable(24) %formatter, ptr noalias noundef nonnull readonly align 1 captures(address, read_provenance) @alloc_df66aaff7dc04933728ad5e7db359d0f, i64 noundef 2)
  ret i1 %_0
}

; <<core::num::nonzero::NonZero<u16> as serde_core::de::Deserialize>::deserialize::NonZeroVisitor as serde_core::de::Visitor>::expecting
; Function Attrs: uwtable
define noundef zeroext i1 @_RNvXNvXsZ_NtNtCsasqbmkB9jT1_10serde_core2de5implsINtNtNtCsjMrxcFdYDNN_4core3num7nonzero7NonZerotENtBa_11Deserialize11deserializeNtB2_14NonZeroVisitorNtBa_7Visitor9expecting(ptr noalias noundef nonnull readonly align 1 captures(none) %self, ptr noalias noundef align 8 dereferenceable(24) %formatter) unnamed_addr #1 {
start:
; call <core::fmt::Formatter>::write_str
  %_0 = tail call noundef zeroext i1 @_RNvMsa_NtCsjMrxcFdYDNN_4core3fmtNtB5_9Formatter9write_str(ptr noalias noundef nonnull align 8 dereferenceable(24) %formatter, ptr noalias noundef nonnull readonly align 1 captures(address, read_provenance) @alloc_0e4f0223adc4e744239ff233d38009e1, i64 noundef 13)
  ret i1 %_0
}

; <<<core::net::ip_addr::IpAddr as serde_core::de::Deserialize>::deserialize::IpAddrKind as serde_core::de::Deserialize>::deserialize::KindVisitor as serde_core::de::Visitor>::expecting
; Function Attrs: uwtable
define noundef zeroext i1 @_RNvXNvXs_NvXsm_NtNtCsasqbmkB9jT1_10serde_core2de5implsNtNtNtCsjMrxcFdYDNN_4core3net7ip_addr6IpAddrNtBf_11Deserialize11deserializeNtB7_10IpAddrKindB1y_11deserializeNtB2_11KindVisitorNtBf_7Visitor9expecting(ptr noalias noundef nonnull readonly align 1 captures(none) %self, ptr noalias noundef align 8 dereferenceable(24) %formatter) unnamed_addr #1 {
start:
; call <core::fmt::Formatter>::write_str
  %_0 = tail call noundef zeroext i1 @_RNvMsa_NtCsjMrxcFdYDNN_4core3fmtNtB5_9Formatter9write_str(ptr noalias noundef nonnull align 8 dereferenceable(24) %formatter, ptr noalias noundef nonnull readonly align 1 captures(address, read_provenance) @alloc_b0bf456742a49af68f3a76ac1f13442e, i64 noundef 12)
  ret i1 %_0
}

; <<core::net::ip_addr::IpAddr as serde_core::de::Deserialize>::deserialize::EnumVisitor as serde_core::de::Visitor>::expecting
; Function Attrs: uwtable
define noundef zeroext i1 @_RNvXNvXsm_NtNtCsasqbmkB9jT1_10serde_core2de5implsNtNtNtCsjMrxcFdYDNN_4core3net7ip_addr6IpAddrNtBa_11Deserialize11deserializeNtB2_11EnumVisitorNtBa_7Visitor9expecting(ptr noalias noundef nonnull readonly align 1 captures(none) %self, ptr noalias noundef align 8 dereferenceable(24) %formatter) unnamed_addr #1 {
start:
; call <core::fmt::Formatter>::write_str
  %_0 = tail call noundef zeroext i1 @_RNvMsa_NtCsjMrxcFdYDNN_4core3fmtNtB5_9Formatter9write_str(ptr noalias noundef nonnull align 8 dereferenceable(24) %formatter, ptr noalias noundef nonnull readonly align 1 captures(address, read_provenance) @alloc_7e9edf01f2db8f57ff7d335968bf3c9b, i64 noundef 8)
  ret i1 %_0
}

; <<core::net::socket_addr::SocketAddr as serde_core::de::Deserialize>::deserialize::EnumVisitor as serde_core::de::Visitor>::expecting
; Function Attrs: uwtable
define noundef zeroext i1 @_RNvXNvXsn_NtNtCsasqbmkB9jT1_10serde_core2de5implsNtNtNtCsjMrxcFdYDNN_4core3net11socket_addr10SocketAddrNtBa_11Deserialize11deserializeNtB2_11EnumVisitorNtBa_7Visitor9expecting(ptr noalias noundef nonnull readonly align 1 captures(none) %self, ptr noalias noundef align 8 dereferenceable(24) %formatter) unnamed_addr #1 {
start:
; call <core::fmt::Formatter>::write_str
  %_0 = tail call noundef zeroext i1 @_RNvMsa_NtCsjMrxcFdYDNN_4core3fmtNtB5_9Formatter9write_str(ptr noalias noundef nonnull align 8 dereferenceable(24) %formatter, ptr noalias noundef nonnull readonly align 1 captures(address, read_provenance) @alloc_2403a6cd15f3d40978dfbd0bae0d138f, i64 noundef 12)
  ret i1 %_0
}

; <&str as serde_core::de::Expected>::fmt
; Function Attrs: uwtable
define noundef zeroext i1 @_RNvXs0_NtCsasqbmkB9jT1_10serde_core2deReNtB5_8Expected3fmt(ptr noalias noundef readonly align 8 captures(none) dereferenceable(16) %self, ptr noalias noundef align 8 dereferenceable(24) %formatter) unnamed_addr #1 {
start:
  %_3.0 = load ptr, ptr %self, align 8, !nonnull !2, !align !4, !noundef !2
  %0 = getelementptr inbounds nuw i8, ptr %self, i64 8
  %_3.1 = load i64, ptr %0, align 8, !noundef !2
; call <core::fmt::Formatter>::write_str
  %_0 = tail call noundef zeroext i1 @_RNvMsa_NtCsjMrxcFdYDNN_4core3fmtNtB5_9Formatter9write_str(ptr noalias noundef nonnull align 8 dereferenceable(24) %formatter, ptr noalias noundef nonnull readonly align 1 captures(address, read_provenance) %_3.0, i64 noundef %_3.1)
  ret i1 %_0
}

; <serde_core::de::impls::BoolVisitor as serde_core::de::Visitor>::expecting
; Function Attrs: uwtable
define noundef zeroext i1 @_RNvXs0_NtNtCsasqbmkB9jT1_10serde_core2de5implsNtB5_11BoolVisitorNtB7_7Visitor9expecting(ptr noalias noundef nonnull readonly align 1 captures(none) %self, ptr noalias noundef align 8 dereferenceable(24) %formatter) unnamed_addr #1 {
start:
; call <core::fmt::Formatter>::write_str
  %_0 = tail call noundef zeroext i1 @_RNvMsa_NtCsjMrxcFdYDNN_4core3fmtNtB5_9Formatter9write_str(ptr noalias noundef nonnull align 8 dereferenceable(24) %formatter, ptr noalias noundef nonnull readonly align 1 captures(address, read_provenance) @alloc_64c46d602bcdf61cecebd9c07a8ffbde, i64 noundef 9)
  ret i1 %_0
}

; <serde_core::de::value::Error as core::fmt::Display>::fmt
; Function Attrs: uwtable
define noundef zeroext i1 @_RNvXs0_NtNtCsasqbmkB9jT1_10serde_core2de5valueNtB5_5ErrorNtNtCsjMrxcFdYDNN_4core3fmt7Display3fmt(ptr noalias noundef readonly align 8 captures(none) dereferenceable(16) %self, ptr noalias noundef align 8 dereferenceable(24) %formatter) unnamed_addr #1 {
start:
  %_5.0 = load ptr, ptr %self, align 8, !nonnull !2, !noundef !2
  %0 = getelementptr inbounds nuw i8, ptr %self, i64 8
  %_5.1 = load i64, ptr %0, align 8, !noundef !2
; call <core::fmt::Formatter>::write_str
  %_0 = tail call noundef zeroext i1 @_RNvMsa_NtCsjMrxcFdYDNN_4core3fmtNtB5_9Formatter9write_str(ptr noalias noundef nonnull align 8 dereferenceable(24) %formatter, ptr noalias noundef nonnull readonly align 1 captures(address, read_provenance) %_5.0, i64 noundef %_5.1)
  ret i1 %_0
}

; <serde_core::private::doc::Error as core::error::Error>::description
; Function Attrs: cold noreturn uwtable
define noundef { ptr, i64 } @_RNvXs0_NtNtCsasqbmkB9jT1_10serde_core7private3docNtB5_5ErrorNtNtCsjMrxcFdYDNN_4core5error5Error11description(ptr noalias noundef nonnull readonly align 1 captures(none) %self) unnamed_addr #2 {
start:
; call core::panicking::panic
  tail call void @_RNvNtCsjMrxcFdYDNN_4core9panicking5panic(ptr noalias noundef nonnull readonly align 1 captures(address, read_provenance) @alloc_7395b7fd5052a2200dfc13209d237c6b, i64 noundef 15, ptr noalias noundef readonly align 8 captures(address, read_provenance) dereferenceable(24) @alloc_263558d5f36218618c88f833112995da) #10
  unreachable
}

; <dyn serde_core::de::Expected as core::fmt::Display>::fmt
; Function Attrs: uwtable
define noundef zeroext i1 @_RNvXs1_NtCsasqbmkB9jT1_10serde_core2deDNtB5_8ExpectedEL_NtNtCsjMrxcFdYDNN_4core3fmt7Display3fmt(ptr noundef nonnull align 1 %self.0, ptr noalias noundef readonly align 8 captures(none) dereferenceable(32) %self.1, ptr noalias noundef align 8 dereferenceable(24) %formatter) unnamed_addr #1 {
start:
  %0 = getelementptr inbounds nuw i8, ptr %self.1, i64 24
  %1 = load ptr, ptr %0, align 8, !invariant.load !2, !nonnull !2
  %_0 = tail call noundef zeroext i1 %1(ptr noundef nonnull align 1 %self.0, ptr noalias noundef nonnull align 8 dereferenceable(24) %formatter) #11
  ret i1 %_0
}

; <serde_core::de::value::Error as core::fmt::Debug>::fmt
; Function Attrs: uwtable
define noundef zeroext i1 @_RNvXs1_NtNtCsasqbmkB9jT1_10serde_core2de5valueNtB5_5ErrorNtNtCsjMrxcFdYDNN_4core3fmt5Debug3fmt(ptr noalias noundef readonly align 8 captures(address, read_provenance) dereferenceable(16) %self, ptr noalias noundef align 8 dereferenceable(24) %formatter) unnamed_addr #1 {
start:
  %debug = alloca [24 x i8], align 8
  call void @llvm.lifetime.start.p0(i64 24, ptr nonnull %debug)
; call <core::fmt::Formatter>::debug_tuple
  call void @_RNvMsa_NtCsjMrxcFdYDNN_4core3fmtNtB5_9Formatter11debug_tuple(ptr noalias noundef nonnull sret([24 x i8]) align 8 captures(address) dereferenceable(24) %debug, ptr noalias noundef nonnull align 8 dereferenceable(24) %formatter, ptr noalias noundef nonnull readonly align 1 captures(address, read_provenance) @alloc_99ac8a81a24cac863217ce4a5cbfabea, i64 noundef 5)
; call <core::fmt::builders::DebugTuple>::field
  %_4 = call noundef nonnull align 8 ptr @_RNvMs2_NtNtCsjMrxcFdYDNN_4core3fmt8buildersNtB5_10DebugTuple5field(ptr noalias noundef nonnull align 8 dereferenceable(24) %debug, ptr noundef nonnull align 1 %self, ptr noalias noundef readonly align 8 captures(address, read_provenance) dereferenceable(32) @vtable.0)
; call <core::fmt::builders::DebugTuple>::finish
  %_0 = call noundef zeroext i1 @_RNvMs2_NtNtCsjMrxcFdYDNN_4core3fmt8buildersNtB5_10DebugTuple6finish(ptr noalias noundef nonnull align 8 dereferenceable(24) %debug)
  call void @llvm.lifetime.end.p0(i64 24, ptr nonnull %debug)
  ret i1 %_0
}

; <serde_core::private::doc::Error as core::fmt::Display>::fmt
; Function Attrs: cold noreturn uwtable
define noundef zeroext i1 @_RNvXs1_NtNtCsasqbmkB9jT1_10serde_core7private3docNtB5_5ErrorNtNtCsjMrxcFdYDNN_4core3fmt7Display3fmt(ptr noalias noundef nonnull readonly align 1 captures(none) %self, ptr noalias noundef readnone align 8 captures(none) dereferenceable(24) %_2) unnamed_addr #2 {
start:
; call core::panicking::panic
  tail call void @_RNvNtCsjMrxcFdYDNN_4core9panicking5panic(ptr noalias noundef nonnull readonly align 1 captures(address, read_provenance) @alloc_7395b7fd5052a2200dfc13209d237c6b, i64 noundef 15, ptr noalias noundef readonly align 8 captures(address, read_provenance) dereferenceable(24) @alloc_b318fd4df6debd42528f3f2287183ae3) #10
  unreachable
}

; <serde_core::de::value::ExpectedInMap as serde_core::de::Expected>::fmt
; Function Attrs: uwtable
define noundef zeroext i1 @_RNvXs1a_NtNtCsasqbmkB9jT1_10serde_core2de5valueNtB6_13ExpectedInMapNtB8_8Expected3fmt(ptr noalias noundef readonly align 8 captures(address, read_provenance) dereferenceable(8) %self, ptr noalias noundef align 8 dereferenceable(24) %formatter) unnamed_addr #1 {
start:
  %args = alloca [16 x i8], align 8
  %_3 = load i64, ptr %self, align 8, !noundef !2
  %0 = icmp eq i64 %_3, 1
  br i1 %0, label %bb1, label %bb2

bb1:                                              ; preds = %start
; call <core::fmt::Formatter>::write_str
  %1 = tail call noundef zeroext i1 @_RNvMsa_NtCsjMrxcFdYDNN_4core3fmtNtB5_9Formatter9write_str(ptr noalias noundef nonnull align 8 dereferenceable(24) %formatter, ptr noalias noundef nonnull readonly align 1 captures(address, read_provenance) @alloc_b8f0e9f5a55e3399052e7f51171d5f73, i64 noundef 16)
  br label %bb3

bb2:                                              ; preds = %start
  call void @llvm.lifetime.start.p0(i64 16, ptr nonnull %args)
  store ptr %self, ptr %args, align 8
  %_7.sroa.4.0..sroa_idx = getelementptr inbounds nuw i8, ptr %args, i64 8
  store ptr @_RNvXsi_NtNtNtCsjMrxcFdYDNN_4core3fmt3num3impjNtB9_7Display3fmt, ptr %_7.sroa.4.0..sroa_idx, align 8
  %_20.0 = load ptr, ptr %formatter, align 8, !nonnull !2, !align !4, !noundef !2
  %2 = getelementptr inbounds nuw i8, ptr %formatter, i64 8
  %_20.1 = load ptr, ptr %2, align 8, !nonnull !2, !align !7, !noundef !2
; call core::fmt::write
  %3 = call noundef zeroext i1 @_RNvNtCsjMrxcFdYDNN_4core3fmt5write(ptr noundef nonnull align 1 %_20.0, ptr noalias noundef nonnull readonly align 8 captures(address, read_provenance) dereferenceable(48) %_20.1, ptr noundef nonnull @alloc_bb2978a5d2b5523fedc4230268ea2bca, ptr noundef nonnull %args)
  call void @llvm.lifetime.end.p0(i64 16, ptr nonnull %args)
  br label %bb3

bb3:                                              ; preds = %bb2, %bb1
  %_0.sroa.0.0.in = phi i1 [ %1, %bb1 ], [ %3, %bb2 ]
  ret i1 %_0.sroa.0.0.in
}

; <&str as core::fmt::Debug>::fmt
; Function Attrs: uwtable
define internal noundef zeroext i1 @_RNvXs1g_NtCsjMrxcFdYDNN_4core3fmtReNtB6_5Debug3fmtCsasqbmkB9jT1_10serde_core(ptr noalias noundef readonly align 8 captures(none) dereferenceable(16) %self, ptr noalias noundef align 8 dereferenceable(24) %f) unnamed_addr #1 {
start:
  %_3.0 = load ptr, ptr %self, align 8, !nonnull !2, !align !4, !noundef !2
  %0 = getelementptr inbounds nuw i8, ptr %self, i64 8
  %_3.1 = load i64, ptr %0, align 8, !noundef !2
; call <str as core::fmt::Debug>::fmt
  %_0 = tail call noundef zeroext i1 @_RNvXsh_NtCsjMrxcFdYDNN_4core3fmteNtB5_5Debug3fmt(ptr noalias noundef nonnull readonly align 1 captures(address, read_provenance) %_3.0, i64 noundef %_3.1, ptr noalias noundef nonnull align 8 dereferenceable(24) %f)
  ret i1 %_0
}

; <&&str as core::fmt::Display>::fmt
; Function Attrs: uwtable
define internal noundef zeroext i1 @_RNvXs1i_NtCsjMrxcFdYDNN_4core3fmtRReNtB6_7Display3fmtCsasqbmkB9jT1_10serde_core(ptr noalias noundef readonly align 8 captures(none) dereferenceable(8) %self, ptr noalias noundef align 8 dereferenceable(24) %f) unnamed_addr #1 {
start:
  %_3 = load ptr, ptr %self, align 8, !nonnull !2, !align !7, !noundef !2
  tail call void @llvm.experimental.noalias.scope.decl(metadata !14)
  %_3.0.i = load ptr, ptr %_3, align 8, !alias.scope !14, !noalias !17, !nonnull !2, !align !4, !noundef !2
  %0 = getelementptr inbounds nuw i8, ptr %_3, i64 8
  %_3.1.i = load i64, ptr %0, align 8, !alias.scope !14, !noalias !17, !noundef !2
; call <str as core::fmt::Display>::fmt
  %_0.i = tail call noundef zeroext i1 @_RNvXsi_NtCsjMrxcFdYDNN_4core3fmteNtB5_7Display3fmt(ptr noalias noundef nonnull readonly align 1 captures(address, read_provenance) %_3.0.i, i64 noundef %_3.1.i, ptr noalias noundef nonnull align 8 dereferenceable(24) %f), !noalias !14
  ret i1 %_0.i
}

; <&str as core::fmt::Display>::fmt
; Function Attrs: uwtable
define internal noundef zeroext i1 @_RNvXs1i_NtCsjMrxcFdYDNN_4core3fmtReNtB6_7Display3fmtCsasqbmkB9jT1_10serde_core(ptr noalias noundef readonly align 8 captures(none) dereferenceable(16) %self, ptr noalias noundef align 8 dereferenceable(24) %f) unnamed_addr #1 {
start:
  %_3.0 = load ptr, ptr %self, align 8, !nonnull !2, !align !4, !noundef !2
  %0 = getelementptr inbounds nuw i8, ptr %self, i64 8
  %_3.1 = load i64, ptr %0, align 8, !noundef !2
; call <str as core::fmt::Display>::fmt
  %_0 = tail call noundef zeroext i1 @_RNvXsi_NtCsjMrxcFdYDNN_4core3fmteNtB5_7Display3fmt(ptr noalias noundef nonnull readonly align 1 captures(address, read_provenance) %_3.0, i64 noundef %_3.1, ptr noalias noundef nonnull align 8 dereferenceable(24) %f)
  ret i1 %_0
}

; <serde_core::de::impls::CharVisitor as serde_core::de::Visitor>::expecting
; Function Attrs: uwtable
define noundef zeroext i1 @_RNvXs2_NtNtCsasqbmkB9jT1_10serde_core2de5implsNtB5_11CharVisitorNtB7_7Visitor9expecting(ptr noalias noundef nonnull readonly align 1 captures(none) %self, ptr noalias noundef align 8 dereferenceable(24) %formatter) unnamed_addr #1 {
start:
; call <core::fmt::Formatter>::write_str
  %_0 = tail call noundef zeroext i1 @_RNvMsa_NtCsjMrxcFdYDNN_4core3fmtNtB5_9Formatter9write_str(ptr noalias noundef nonnull align 8 dereferenceable(24) %formatter, ptr noalias noundef nonnull readonly align 1 captures(address, read_provenance) @alloc_dccc1d538c89f6cf70b8ced7a712b1bf, i64 noundef 11)
  ret i1 %_0
}

; <serde_core::de::impls::StringVisitor as serde_core::de::Visitor>::expecting
; Function Attrs: uwtable
define noundef zeroext i1 @_RNvXs4_NtNtCsasqbmkB9jT1_10serde_core2de5implsNtB5_13StringVisitorNtB7_7Visitor9expecting(ptr noalias noundef nonnull readonly align 1 captures(none) %self, ptr noalias noundef align 8 dereferenceable(24) %formatter) unnamed_addr #1 {
start:
; call <core::fmt::Formatter>::write_str
  %_0 = tail call noundef zeroext i1 @_RNvMsa_NtCsjMrxcFdYDNN_4core3fmtNtB5_9Formatter9write_str(ptr noalias noundef nonnull align 8 dereferenceable(24) %formatter, ptr noalias noundef nonnull readonly align 1 captures(address, read_provenance) @alloc_a32ee92aa163a424fb5f24d7445c00a9, i64 noundef 8)
  ret i1 %_0
}

; <serde_core::de::impls::StringInPlaceVisitor as serde_core::de::Visitor>::expecting
; Function Attrs: uwtable
define noundef zeroext i1 @_RNvXs5_NtNtCsasqbmkB9jT1_10serde_core2de5implsNtB5_20StringInPlaceVisitorNtB7_7Visitor9expecting(ptr noalias noundef readonly align 8 captures(none) dereferenceable(8) %self, ptr noalias noundef align 8 dereferenceable(24) %formatter) unnamed_addr #1 {
start:
; call <core::fmt::Formatter>::write_str
  %_0 = tail call noundef zeroext i1 @_RNvMsa_NtCsjMrxcFdYDNN_4core3fmtNtB5_9Formatter9write_str(ptr noalias noundef nonnull align 8 dereferenceable(24) %formatter, ptr noalias noundef nonnull readonly align 1 captures(address, read_provenance) @alloc_a32ee92aa163a424fb5f24d7445c00a9, i64 noundef 8)
  ret i1 %_0
}

; <serde_core::de::OneOf as core::fmt::Display>::fmt
; Function Attrs: uwtable
define noundef zeroext i1 @_RNvXs6_NtCsasqbmkB9jT1_10serde_core2deNtB5_5OneOfNtNtCsjMrxcFdYDNN_4core3fmt7Display3fmt(ptr noalias noundef readonly align 8 captures(none) dereferenceable(16) %self, ptr noalias noundef align 8 dereferenceable(24) %formatter) unnamed_addr #1 personality ptr @rust_eh_personality {
start:
  %args2 = alloca [16 x i8], align 8
  %alt = alloca [8 x i8], align 8
  %args1 = alloca [32 x i8], align 8
  %args = alloca [16 x i8], align 8
  %0 = getelementptr inbounds nuw i8, ptr %self, i64 8
  %_42.1 = load i64, ptr %0, align 8, !noundef !2
  switch i64 %_42.1, label %bb1 [
    i64 0, label %bb4
    i64 1, label %bb5
    i64 2, label %bb2
  ], !prof !19

bb1:                                              ; preds = %start
; call <core::fmt::Formatter>::write_str
  %_22 = tail call noundef zeroext i1 @_RNvMsa_NtCsjMrxcFdYDNN_4core3fmtNtB5_9Formatter9write_str(ptr noalias noundef nonnull align 8 dereferenceable(24) %formatter, ptr noalias noundef nonnull readonly align 1 captures(address, read_provenance) @alloc_32d041da1512a32dc092a5e4350c88d2, i64 noundef 7)
  br i1 %_22, label %bb26, label %bb20.peel

bb4:                                              ; preds = %start
; call core::panicking::panic
  tail call void @_RNvNtCsjMrxcFdYDNN_4core9panicking5panic(ptr noalias noundef nonnull readonly align 1 captures(address, read_provenance) @alloc_476509aa7047bd805d630c6546685797, i64 noundef 14, ptr noalias noundef readonly align 8 captures(address, read_provenance) dereferenceable(24) @alloc_1116333d306fdba1b54b6175218bce80) #10
  unreachable

bb2:                                              ; preds = %start
  %_43.0 = load ptr, ptr %self, align 8, !nonnull !2, !align !7, !noundef !2
  %args7 = getelementptr inbounds nuw i8, ptr %_43.0, i64 16
  call void @llvm.lifetime.start.p0(i64 32, ptr nonnull %args1)
  store ptr %_43.0, ptr %args1, align 8
  %_19.sroa.4.0..sroa_idx = getelementptr inbounds nuw i8, ptr %args1, i64 8
  store ptr @_RNvXs1i_NtCsjMrxcFdYDNN_4core3fmtReNtB6_7Display3fmtCsasqbmkB9jT1_10serde_core, ptr %_19.sroa.4.0..sroa_idx, align 8
  %1 = getelementptr inbounds nuw i8, ptr %args1, i64 16
  store ptr %args7, ptr %1, align 8
  %_20.sroa.4.0..sroa_idx = getelementptr inbounds nuw i8, ptr %args1, i64 24
  store ptr @_RNvXs1i_NtCsjMrxcFdYDNN_4core3fmtReNtB6_7Display3fmtCsasqbmkB9jT1_10serde_core, ptr %_20.sroa.4.0..sroa_idx, align 8
  %_85.0 = load ptr, ptr %formatter, align 8, !nonnull !2, !align !4, !noundef !2
  %2 = getelementptr inbounds nuw i8, ptr %formatter, i64 8
  %_85.1 = load ptr, ptr %2, align 8, !nonnull !2, !align !7, !noundef !2
; call core::fmt::write
  %3 = call noundef zeroext i1 @_RNvNtCsjMrxcFdYDNN_4core3fmt5write(ptr noundef nonnull align 1 %_85.0, ptr noalias noundef nonnull readonly align 8 captures(address, read_provenance) dereferenceable(48) %_85.1, ptr noundef nonnull @alloc_077901e08f9bd5495f11cee517b2c8ae, ptr noundef nonnull %args1)
  call void @llvm.lifetime.end.p0(i64 32, ptr nonnull %args1)
  br label %bb26

bb5:                                              ; preds = %start
  %_44.0 = load ptr, ptr %self, align 8, !nonnull !2, !align !7, !noundef !2
  call void @llvm.lifetime.start.p0(i64 16, ptr nonnull %args)
  store ptr %_44.0, ptr %args, align 8
  %_10.sroa.4.0..sroa_idx = getelementptr inbounds nuw i8, ptr %args, i64 8
  store ptr @_RNvXs1i_NtCsjMrxcFdYDNN_4core3fmtReNtB6_7Display3fmtCsasqbmkB9jT1_10serde_core, ptr %_10.sroa.4.0..sroa_idx, align 8
  %_57.0 = load ptr, ptr %formatter, align 8, !nonnull !2, !align !4, !noundef !2
  %4 = getelementptr inbounds nuw i8, ptr %formatter, i64 8
  %_57.1 = load ptr, ptr %4, align 8, !nonnull !2, !align !7, !noundef !2
; call core::fmt::write
  %5 = call noundef zeroext i1 @_RNvNtCsjMrxcFdYDNN_4core3fmt5write(ptr noundef nonnull align 1 %_57.0, ptr noalias noundef nonnull readonly align 8 captures(address, read_provenance) dereferenceable(48) %_57.1, ptr noundef nonnull @alloc_af8daea8cf2249ec7503f9c4af69ccc6, ptr noundef nonnull %args)
  call void @llvm.lifetime.end.p0(i64 16, ptr nonnull %args)
  br label %bb26

bb20.peel:                                        ; preds = %bb1
  %_45.0 = load ptr, ptr %self, align 8, !nonnull !2, !align !7, !noundef !2
  %_99.idx = shl nuw nsw i64 %_42.1, 4
  %_99 = getelementptr inbounds nuw i8, ptr %_45.0, i64 %_99.idx
  %_39.sroa.4.0..sroa_idx = getelementptr inbounds nuw i8, ptr %args2, i64 8
  %6 = getelementptr inbounds nuw i8, ptr %formatter, i64 8
  call void @llvm.lifetime.start.p0(i64 8, ptr nonnull %alt)
  store ptr %_45.0, ptr %alt, align 8
  %_114.1.peel.pre = load ptr, ptr %6, align 8
  %_114.0.peel.pre = load ptr, ptr %formatter, align 8
  call void @llvm.lifetime.start.p0(i64 16, ptr nonnull %args2)
  store ptr %alt, ptr %args2, align 8
  store ptr @_RNvXs1i_NtCsjMrxcFdYDNN_4core3fmtRReNtB6_7Display3fmtCsasqbmkB9jT1_10serde_core, ptr %_39.sroa.4.0..sroa_idx, align 8
; call core::fmt::write
  %7 = call noundef zeroext i1 @_RNvNtCsjMrxcFdYDNN_4core3fmt5write(ptr noundef nonnull align 1 %_114.0.peel.pre, ptr noalias noundef nonnull readonly align 8 captures(address, read_provenance) dereferenceable(48) %_114.1.peel.pre, ptr noundef nonnull @alloc_af8daea8cf2249ec7503f9c4af69ccc6, ptr noundef nonnull %args2)
  br i1 %7, label %bb21, label %bb14.peel.next

bb14.peel.next:                                   ; preds = %bb20.peel
  %_16.i.i.peel = getelementptr inbounds nuw i8, ptr %_45.0, i64 16
  call void @llvm.lifetime.end.p0(i64 16, ptr nonnull %args2)
  call void @llvm.lifetime.end.p0(i64 8, ptr nonnull %alt)
  br label %bb16

bb26:                                             ; preds = %bb22, %bb1, %bb24, %bb5, %bb2
  %_0.sroa.0.2.shrunk = phi i1 [ true, %bb24 ], [ %5, %bb5 ], [ %3, %bb2 ], [ true, %bb1 ], [ false, %bb22 ]
  ret i1 %_0.sroa.0.2.shrunk

bb20:                                             ; preds = %bb16
  call void @llvm.lifetime.start.p0(i64 16, ptr nonnull %args2)
  store ptr %alt, ptr %args2, align 8
  store ptr @_RNvXs1i_NtCsjMrxcFdYDNN_4core3fmtRReNtB6_7Display3fmtCsasqbmkB9jT1_10serde_core, ptr %_39.sroa.4.0..sroa_idx, align 8
  %_114.0 = load ptr, ptr %formatter, align 8, !nonnull !2, !align !4, !noundef !2
  %_114.1 = load ptr, ptr %6, align 8, !nonnull !2, !align !7, !noundef !2
; call core::fmt::write
  %8 = call noundef zeroext i1 @_RNvNtCsjMrxcFdYDNN_4core3fmt5write(ptr noundef nonnull align 1 %_114.0, ptr noalias noundef nonnull readonly align 8 captures(address, read_provenance) dereferenceable(48) %_114.1, ptr noundef nonnull @alloc_af8daea8cf2249ec7503f9c4af69ccc6, ptr noundef nonnull %args2)
  br i1 %8, label %bb21, label %bb22

bb16:                                             ; preds = %bb22, %bb14.peel.next
  %iter.sroa.0.035 = phi ptr [ %_16.i.i.peel, %bb14.peel.next ], [ %_16.i.i, %bb22 ]
  %_16.i.i = getelementptr inbounds nuw i8, ptr %iter.sroa.0.035, i64 16
  call void @llvm.lifetime.start.p0(i64 8, ptr nonnull %alt)
  store ptr %iter.sroa.0.035, ptr %alt, align 8
; call <core::fmt::Formatter>::write_str
  %_33 = call noundef zeroext i1 @_RNvMsa_NtCsjMrxcFdYDNN_4core3fmtNtB5_9Formatter9write_str(ptr noalias noundef nonnull align 8 dereferenceable(24) %formatter, ptr noalias noundef nonnull readonly align 1 captures(address, read_provenance) @alloc_94b00be069aafad82a2c6df764237b82, i64 noundef 2)
  br i1 %_33, label %bb24, label %bb20

bb21:                                             ; preds = %bb20, %bb20.peel
  call void @llvm.lifetime.end.p0(i64 16, ptr nonnull %args2)
  br label %bb24

bb22:                                             ; preds = %bb20
  call void @llvm.lifetime.end.p0(i64 16, ptr nonnull %args2)
  call void @llvm.lifetime.end.p0(i64 8, ptr nonnull %alt)
  %_6.i.i = icmp eq ptr %_16.i.i, %_99
  br i1 %_6.i.i, label %bb26, label %bb16, !llvm.loop !20

bb24:                                             ; preds = %bb16, %bb21
  call void @llvm.lifetime.end.p0(i64 8, ptr nonnull %alt)
  br label %bb26
}

; <serde_core::de::WithDecimalPoint as core::fmt::Display>::fmt
; Function Attrs: uwtable
define noundef zeroext i1 @_RNvXs7_NtCsasqbmkB9jT1_10serde_core2deNtB5_16WithDecimalPointNtNtCsjMrxcFdYDNN_4core3fmt7Display3fmt(ptr noalias noundef readonly align 8 captures(address, read_provenance) dereferenceable(8) %self, ptr noalias noundef align 8 dereferenceable(24) %formatter) unnamed_addr #1 {
start:
  %args1 = alloca [16 x i8], align 8
  %args = alloca [16 x i8], align 8
  %writer = alloca [16 x i8], align 8
  %_4 = load double, ptr %self, align 8, !noundef !2
  %0 = tail call double @llvm.fabs.f64(double %_4)
  %_3 = fcmp ueq double %0, 0x7FF0000000000000
  br i1 %_3, label %bb10, label %bb1

bb10:                                             ; preds = %start
  call void @llvm.lifetime.start.p0(i64 16, ptr nonnull %args1)
  store ptr %self, ptr %args1, align 8
  %_21.sroa.4.0..sroa_idx = getelementptr inbounds nuw i8, ptr %args1, i64 8
  store ptr @_RNvXs7_NtNtCsjMrxcFdYDNN_4core3fmt5floatdNtB7_7Display3fmt, ptr %_21.sroa.4.0..sroa_idx, align 8
  %_57.0 = load ptr, ptr %formatter, align 8, !nonnull !2, !align !4, !noundef !2
  %1 = getelementptr inbounds nuw i8, ptr %formatter, i64 8
  %_57.1 = load ptr, ptr %1, align 8, !nonnull !2, !align !7, !noundef !2
; call core::fmt::write
  %2 = call noundef zeroext i1 @_RNvNtCsjMrxcFdYDNN_4core3fmt5write(ptr noundef nonnull align 1 %_57.0, ptr noalias noundef nonnull readonly align 8 captures(address, read_provenance) dereferenceable(48) %_57.1, ptr noundef nonnull @alloc_0c812808379efded5a4fb82d2790b556, ptr noundef nonnull %args1)
  call void @llvm.lifetime.end.p0(i64 16, ptr nonnull %args1)
  br label %bb16

bb1:                                              ; preds = %start
  call void @llvm.lifetime.start.p0(i64 16, ptr nonnull %writer)
  store ptr %formatter, ptr %writer, align 8
  %3 = getelementptr inbounds nuw i8, ptr %writer, i64 8
  store i8 0, ptr %3, align 8
  call void @llvm.lifetime.start.p0(i64 16, ptr nonnull %args)
  store ptr %self, ptr %args, align 8
  %_11.sroa.4.0..sroa_idx = getelementptr inbounds nuw i8, ptr %args, i64 8
  store ptr @_RNvXs7_NtNtCsjMrxcFdYDNN_4core3fmt5floatdNtB7_7Display3fmt, ptr %_11.sroa.4.0..sroa_idx, align 8
; call core::fmt::write
  %4 = call noundef zeroext i1 @_RNvNtCsjMrxcFdYDNN_4core3fmt5write(ptr noundef nonnull align 1 %writer, ptr noalias noundef readonly align 8 captures(address, read_provenance) dereferenceable(48) @vtable.1, ptr noundef nonnull @alloc_0c812808379efded5a4fb82d2790b556, ptr noundef nonnull %args)
  call void @llvm.lifetime.end.p0(i64 16, ptr nonnull %args)
  br i1 %4, label %bb14, label %bb4

bb4:                                              ; preds = %bb1
  %5 = load i8, ptr %3, align 8, !range !6, !noundef !2
  %_14 = trunc nuw i8 %5 to i1
  br i1 %_14, label %bb9, label %bb5

bb5:                                              ; preds = %bb4
; call <core::fmt::Formatter>::write_str
  %_15 = call noundef zeroext i1 @_RNvMsa_NtCsjMrxcFdYDNN_4core3fmtNtB5_9Formatter9write_str(ptr noalias noundef nonnull align 8 dereferenceable(24) %formatter, ptr noalias noundef nonnull readonly align 1 captures(address, read_provenance) @alloc_11813f653ed6a734517fe4070f367895, i64 noundef 2)
  br i1 %_15, label %bb14, label %bb9

bb9:                                              ; preds = %bb5, %bb4
  call void @llvm.lifetime.end.p0(i64 16, ptr nonnull %writer)
  br label %bb16

bb14:                                             ; preds = %bb1, %bb5
  call void @llvm.lifetime.end.p0(i64 16, ptr nonnull %writer)
  br label %bb16

bb16:                                             ; preds = %bb10, %bb9, %bb14
  %_0.sroa.0.1.off0 = phi i1 [ true, %bb14 ], [ false, %bb9 ], [ %2, %bb10 ]
  ret i1 %_0.sroa.0.1.off0
}

; <serde_core::de::impls::StrVisitor as serde_core::de::Visitor>::expecting
; Function Attrs: uwtable
define noundef zeroext i1 @_RNvXs7_NtNtCsasqbmkB9jT1_10serde_core2de5implsNtB5_10StrVisitorNtB7_7Visitor9expecting(ptr noalias noundef nonnull readonly align 1 captures(none) %self, ptr noalias noundef align 8 dereferenceable(24) %formatter) unnamed_addr #1 {
start:
; call <core::fmt::Formatter>::write_str
  %_0 = tail call noundef zeroext i1 @_RNvMsa_NtCsjMrxcFdYDNN_4core3fmtNtB5_9Formatter9write_str(ptr noalias noundef nonnull align 8 dereferenceable(24) %formatter, ptr noalias noundef nonnull readonly align 1 captures(address, read_provenance) @alloc_53e60ffe5d60b4e2b8e1388a2ad2cbca, i64 noundef 17)
  ret i1 %_0
}

; <serde_core::de::impls::BytesVisitor as serde_core::de::Visitor>::expecting
; Function Attrs: uwtable
define noundef zeroext i1 @_RNvXs9_NtNtCsasqbmkB9jT1_10serde_core2de5implsNtB5_12BytesVisitorNtB7_7Visitor9expecting(ptr noalias noundef nonnull readonly align 1 captures(none) %self, ptr noalias noundef align 8 dereferenceable(24) %formatter) unnamed_addr #1 {
start:
; call <core::fmt::Formatter>::write_str
  %_0 = tail call noundef zeroext i1 @_RNvMsa_NtCsjMrxcFdYDNN_4core3fmtNtB5_9Formatter9write_str(ptr noalias noundef nonnull align 8 dereferenceable(24) %formatter, ptr noalias noundef nonnull readonly align 1 captures(address, read_provenance) @alloc_2d5f17b7bf6b6dd0f952da961ef23766, i64 noundef 21)
  ret i1 %_0
}

; <serde_core::de::value::ExpectedInSeq as serde_core::de::Expected>::fmt
; Function Attrs: uwtable
define noundef zeroext i1 @_RNvXsR_NtNtCsasqbmkB9jT1_10serde_core2de5valueNtB5_13ExpectedInSeqNtB7_8Expected3fmt(ptr noalias noundef readonly align 8 captures(address, read_provenance) dereferenceable(8) %self, ptr noalias noundef align 8 dereferenceable(24) %formatter) unnamed_addr #1 {
start:
  %args = alloca [16 x i8], align 8
  %_3 = load i64, ptr %self, align 8, !noundef !2
  %0 = icmp eq i64 %_3, 1
  br i1 %0, label %bb1, label %bb2

bb1:                                              ; preds = %start
; call <core::fmt::Formatter>::write_str
  %1 = tail call noundef zeroext i1 @_RNvMsa_NtCsjMrxcFdYDNN_4core3fmtNtB5_9Formatter9write_str(ptr noalias noundef nonnull align 8 dereferenceable(24) %formatter, ptr noalias noundef nonnull readonly align 1 captures(address, read_provenance) @alloc_e71a28b1125008ec4c9de9e536a49431, i64 noundef 21)
  br label %bb3

bb2:                                              ; preds = %start
  call void @llvm.lifetime.start.p0(i64 16, ptr nonnull %args)
  store ptr %self, ptr %args, align 8
  %_7.sroa.4.0..sroa_idx = getelementptr inbounds nuw i8, ptr %args, i64 8
  store ptr @_RNvXsi_NtNtNtCsjMrxcFdYDNN_4core3fmt3num3impjNtB9_7Display3fmt, ptr %_7.sroa.4.0..sroa_idx, align 8
  %_20.0 = load ptr, ptr %formatter, align 8, !nonnull !2, !align !4, !noundef !2
  %2 = getelementptr inbounds nuw i8, ptr %formatter, i64 8
  %_20.1 = load ptr, ptr %2, align 8, !nonnull !2, !align !7, !noundef !2
; call core::fmt::write
  %3 = call noundef zeroext i1 @_RNvNtCsjMrxcFdYDNN_4core3fmt5write(ptr noundef nonnull align 1 %_20.0, ptr noalias noundef nonnull readonly align 8 captures(address, read_provenance) dereferenceable(48) %_20.1, ptr noundef nonnull @alloc_8c1db4387b4656bb4b356dc02c3f8d30, ptr noundef nonnull %args)
  call void @llvm.lifetime.end.p0(i64 16, ptr nonnull %args)
  br label %bb3

bb3:                                              ; preds = %bb2, %bb1
  %_0.sroa.0.0.in = phi i1 [ %1, %bb1 ], [ %3, %bb2 ]
  ret i1 %_0.sroa.0.0.in
}

; <serde_core::format::Buf as core::fmt::Write>::write_str
; Function Attrs: uwtable
define noundef zeroext i1 @_RNvXs_NtCsasqbmkB9jT1_10serde_core6formatNtB4_3BufNtNtCsjMrxcFdYDNN_4core3fmt5Write9write_str(ptr noalias noundef align 8 captures(none) dereferenceable(24) %self, ptr noalias noundef nonnull readonly align 1 captures(none) %s.0, i64 noundef %s.1) unnamed_addr #1 {
start:
  %0 = getelementptr inbounds nuw i8, ptr %self, i64 16
  %_5 = load i64, ptr %0, align 8, !noundef !2
  %_4 = add i64 %_5, %s.1
  %1 = getelementptr inbounds nuw i8, ptr %self, i64 8
  %_13.1 = load i64, ptr %1, align 8, !noundef !2
  %_3 = icmp ugt i64 %_4, %_13.1
  br i1 %_3, label %bb3, label %bb2

bb2:                                              ; preds = %start
  %_22 = icmp ult i64 %_4, %_5
  br i1 %_22, label %bb6, label %bb4, !prof !3

bb4:                                              ; preds = %bb2
  %_14.0 = load ptr, ptr %self, align 8, !nonnull !2, !align !4, !noundef !2
  %_25 = getelementptr inbounds nuw i8, ptr %_14.0, i64 %_5
  tail call void @llvm.memcpy.p0.p0.i64(ptr nonnull align 1 %_25, ptr nonnull readonly align 1 %s.0, i64 range(i64 0, -9223372036854775808) %s.1, i1 false), !alias.scope !22
  store i64 %_4, ptr %0, align 8
  br label %bb3

bb6:                                              ; preds = %bb2
; call core::slice::index::slice_index_fail
  tail call void @_RNvNtNtCsjMrxcFdYDNN_4core5slice5index16slice_index_fail(i64 noundef %_5, i64 noundef %_4, i64 noundef %_13.1, ptr noalias noundef readonly align 8 captures(address, read_provenance) dereferenceable(24) @alloc_2f7596cc443aa95183eb8877f8ef810a) #10
  unreachable

bb3:                                              ; preds = %start, %bb4
  ret i1 %_3
}

; <&mut core::fmt::Formatter as serde_core::ser::Serializer>::serialize_i8
; Function Attrs: uwtable
define noundef zeroext i1 @_RNvXs_NtNtCsasqbmkB9jT1_10serde_core3ser3fmtQNtNtCsjMrxcFdYDNN_4core3fmt9FormatterNtB6_10Serializer12serialize_i8(ptr noalias noundef align 8 dereferenceable(24) %self, i8 noundef %0) unnamed_addr #1 {
start:
  %v = alloca [1 x i8], align 1
  store i8 %0, ptr %v, align 1
; call <i8 as core::fmt::Display>::fmt
  %_0 = call noundef zeroext i1 @_RNvXs_NtNtNtCsjMrxcFdYDNN_4core3fmt3num3impaNtB8_7Display3fmt(ptr noalias noundef nonnull readonly align 1 captures(address, read_provenance) dereferenceable(1) %v, ptr noalias noundef nonnull align 8 dereferenceable(24) %self)
  ret i1 %_0
}

; <&mut core::fmt::Formatter as serde_core::ser::Serializer>::serialize_u8
; Function Attrs: uwtable
define noundef zeroext i1 @_RNvXs_NtNtCsasqbmkB9jT1_10serde_core3ser3fmtQNtNtCsjMrxcFdYDNN_4core3fmt9FormatterNtB6_10Serializer12serialize_u8(ptr noalias noundef align 8 dereferenceable(24) %self, i8 noundef %0) unnamed_addr #1 {
start:
  %v = alloca [1 x i8], align 1
  store i8 %0, ptr %v, align 1
; call <u8 as core::fmt::Display>::fmt
  %_0 = call noundef zeroext i1 @_RNvXNtNtNtCsjMrxcFdYDNN_4core3fmt3num3imphNtB6_7Display3fmt(ptr noalias noundef nonnull readonly align 1 captures(address, read_provenance) dereferenceable(1) %v, ptr noalias noundef nonnull align 8 dereferenceable(24) %self)
  ret i1 %_0
}

; <&mut core::fmt::Formatter as serde_core::ser::Serializer>::serialize_f32
; Function Attrs: uwtable
define noundef zeroext i1 @_RNvXs_NtNtCsasqbmkB9jT1_10serde_core3ser3fmtQNtNtCsjMrxcFdYDNN_4core3fmt9FormatterNtB6_10Serializer13serialize_f32(ptr noalias noundef align 8 dereferenceable(24) %self, float noundef %0) unnamed_addr #1 {
start:
  %v = alloca [4 x i8], align 4
  store float %0, ptr %v, align 4
; call <f32 as core::fmt::Display>::fmt
  %_0 = call noundef zeroext i1 @_RNvXs3_NtNtCsjMrxcFdYDNN_4core3fmt5floatfNtB7_7Display3fmt(ptr noalias noundef nonnull readonly align 4 captures(address, read_provenance) dereferenceable(4) %v, ptr noalias noundef nonnull align 8 dereferenceable(24) %self)
  ret i1 %_0
}

; <&mut core::fmt::Formatter as serde_core::ser::Serializer>::serialize_f64
; Function Attrs: uwtable
define noundef zeroext i1 @_RNvXs_NtNtCsasqbmkB9jT1_10serde_core3ser3fmtQNtNtCsjMrxcFdYDNN_4core3fmt9FormatterNtB6_10Serializer13serialize_f64(ptr noalias noundef align 8 dereferenceable(24) %self, double noundef %0) unnamed_addr #1 {
start:
  %v = alloca [8 x i8], align 8
  store double %0, ptr %v, align 8
; call <f64 as core::fmt::Display>::fmt
  %_0 = call noundef zeroext i1 @_RNvXs7_NtNtCsjMrxcFdYDNN_4core3fmt5floatdNtB7_7Display3fmt(ptr noalias noundef nonnull readonly align 8 captures(address, read_provenance) dereferenceable(8) %v, ptr noalias noundef nonnull align 8 dereferenceable(24) %self)
  ret i1 %_0
}

; <&mut core::fmt::Formatter as serde_core::ser::Serializer>::serialize_i16
; Function Attrs: uwtable
define noundef zeroext i1 @_RNvXs_NtNtCsasqbmkB9jT1_10serde_core3ser3fmtQNtNtCsjMrxcFdYDNN_4core3fmt9FormatterNtB6_10Serializer13serialize_i16(ptr noalias noundef align 8 dereferenceable(24) %self, i16 noundef %0) unnamed_addr #1 {
start:
  %v = alloca [2 x i8], align 2
  store i16 %0, ptr %v, align 2
; call <i16 as core::fmt::Display>::fmt
  %_0 = call noundef zeroext i1 @_RNvXs4_NtNtNtCsjMrxcFdYDNN_4core3fmt3num3impsNtB9_7Display3fmt(ptr noalias noundef nonnull readonly align 2 captures(address, read_provenance) dereferenceable(2) %v, ptr noalias noundef nonnull align 8 dereferenceable(24) %self)
  ret i1 %_0
}

; <&mut core::fmt::Formatter as serde_core::ser::Serializer>::serialize_i32
; Function Attrs: uwtable
define noundef zeroext i1 @_RNvXs_NtNtCsasqbmkB9jT1_10serde_core3ser3fmtQNtNtCsjMrxcFdYDNN_4core3fmt9FormatterNtB6_10Serializer13serialize_i32(ptr noalias noundef align 8 dereferenceable(24) %self, i32 noundef %0) unnamed_addr #1 {
start:
  %v = alloca [4 x i8], align 4
  store i32 %0, ptr %v, align 4
; call <i32 as core::fmt::Display>::fmt
  %_0 = call noundef zeroext i1 @_RNvXs9_NtNtNtCsjMrxcFdYDNN_4core3fmt3num3implNtB9_7Display3fmt(ptr noalias noundef nonnull readonly align 4 captures(address, read_provenance) dereferenceable(4) %v, ptr noalias noundef nonnull align 8 dereferenceable(24) %self)
  ret i1 %_0
}

; <&mut core::fmt::Formatter as serde_core::ser::Serializer>::serialize_i64
; Function Attrs: uwtable
define noundef zeroext i1 @_RNvXs_NtNtCsasqbmkB9jT1_10serde_core3ser3fmtQNtNtCsjMrxcFdYDNN_4core3fmt9FormatterNtB6_10Serializer13serialize_i64(ptr noalias noundef align 8 dereferenceable(24) %self, i64 noundef %0) unnamed_addr #1 {
start:
  %v = alloca [8 x i8], align 8
  store i64 %0, ptr %v, align 8
; call <i64 as core::fmt::Display>::fmt
  %_0 = call noundef zeroext i1 @_RNvXse_NtNtNtCsjMrxcFdYDNN_4core3fmt3num3impxNtB9_7Display3fmt(ptr noalias noundef nonnull readonly align 8 captures(address, read_provenance) dereferenceable(8) %v, ptr noalias noundef nonnull align 8 dereferenceable(24) %self)
  ret i1 %_0
}

; <&mut core::fmt::Formatter as serde_core::ser::Serializer>::serialize_str
; Function Attrs: uwtable
define noundef zeroext i1 @_RNvXs_NtNtCsasqbmkB9jT1_10serde_core3ser3fmtQNtNtCsjMrxcFdYDNN_4core3fmt9FormatterNtB6_10Serializer13serialize_str(ptr noalias noundef align 8 dereferenceable(24) %self, ptr noalias noundef nonnull readonly align 1 captures(address, read_provenance) %v.0, i64 noundef %v.1) unnamed_addr #1 {
start:
; call <str as core::fmt::Display>::fmt
  %_0 = tail call noundef zeroext i1 @_RNvXsi_NtCsjMrxcFdYDNN_4core3fmteNtB5_7Display3fmt(ptr noalias noundef nonnull readonly align 1 captures(address, read_provenance) %v.0, i64 noundef %v.1, ptr noalias noundef nonnull align 8 dereferenceable(24) %self)
  ret i1 %_0
}

; <&mut core::fmt::Formatter as serde_core::ser::Serializer>::serialize_u16
; Function Attrs: uwtable
define noundef zeroext i1 @_RNvXs_NtNtCsasqbmkB9jT1_10serde_core3ser3fmtQNtNtCsjMrxcFdYDNN_4core3fmt9FormatterNtB6_10Serializer13serialize_u16(ptr noalias noundef align 8 dereferenceable(24) %self, i16 noundef %0) unnamed_addr #1 {
start:
  %v = alloca [2 x i8], align 2
  store i16 %0, ptr %v, align 2
; call <u16 as core::fmt::Display>::fmt
  %_0 = call noundef zeroext i1 @_RNvXs3_NtNtNtCsjMrxcFdYDNN_4core3fmt3num3imptNtB9_7Display3fmt(ptr noalias noundef nonnull readonly align 2 captures(address, read_provenance) dereferenceable(2) %v, ptr noalias noundef nonnull align 8 dereferenceable(24) %self)
  ret i1 %_0
}

; <&mut core::fmt::Formatter as serde_core::ser::Serializer>::serialize_u32
; Function Attrs: uwtable
define noundef zeroext i1 @_RNvXs_NtNtCsasqbmkB9jT1_10serde_core3ser3fmtQNtNtCsjMrxcFdYDNN_4core3fmt9FormatterNtB6_10Serializer13serialize_u32(ptr noalias noundef align 8 dereferenceable(24) %self, i32 noundef %0) unnamed_addr #1 {
start:
  %v = alloca [4 x i8], align 4
  store i32 %0, ptr %v, align 4
; call <u32 as core::fmt::Display>::fmt
  %_0 = call noundef zeroext i1 @_RNvXs8_NtNtNtCsjMrxcFdYDNN_4core3fmt3num3impmNtB9_7Display3fmt(ptr noalias noundef nonnull readonly align 4 captures(address, read_provenance) dereferenceable(4) %v, ptr noalias noundef nonnull align 8 dereferenceable(24) %self)
  ret i1 %_0
}

; <&mut core::fmt::Formatter as serde_core::ser::Serializer>::serialize_u64
; Function Attrs: uwtable
define noundef zeroext i1 @_RNvXs_NtNtCsasqbmkB9jT1_10serde_core3ser3fmtQNtNtCsjMrxcFdYDNN_4core3fmt9FormatterNtB6_10Serializer13serialize_u64(ptr noalias noundef align 8 dereferenceable(24) %self, i64 noundef %0) unnamed_addr #1 {
start:
  %v = alloca [8 x i8], align 8
  store i64 %0, ptr %v, align 8
; call <u64 as core::fmt::Display>::fmt
  %_0 = call noundef zeroext i1 @_RNvXsd_NtNtNtCsjMrxcFdYDNN_4core3fmt3num3impyNtB9_7Display3fmt(ptr noalias noundef nonnull readonly align 8 captures(address, read_provenance) dereferenceable(8) %v, ptr noalias noundef nonnull align 8 dereferenceable(24) %self)
  ret i1 %_0
}

; <&mut core::fmt::Formatter as serde_core::ser::Serializer>::serialize_bool
; Function Attrs: uwtable
define noundef zeroext i1 @_RNvXs_NtNtCsasqbmkB9jT1_10serde_core3ser3fmtQNtNtCsjMrxcFdYDNN_4core3fmt9FormatterNtB6_10Serializer14serialize_bool(ptr noalias noundef align 8 dereferenceable(24) %self, i1 noundef zeroext %0) unnamed_addr #1 {
start:
  %v = alloca [1 x i8], align 1
  %1 = zext i1 %0 to i8
  store i8 %1, ptr %v, align 1
; call <bool as core::fmt::Display>::fmt
  %_0 = call noundef zeroext i1 @_RNvXsg_NtCsjMrxcFdYDNN_4core3fmtbNtB5_7Display3fmt(ptr noalias noundef nonnull readonly align 1 captures(address, read_provenance) dereferenceable(1) %v, ptr noalias noundef nonnull align 8 dereferenceable(24) %self)
  ret i1 %_0
}

; <&mut core::fmt::Formatter as serde_core::ser::Serializer>::serialize_char
; Function Attrs: uwtable
define noundef zeroext i1 @_RNvXs_NtNtCsasqbmkB9jT1_10serde_core3ser3fmtQNtNtCsjMrxcFdYDNN_4core3fmt9FormatterNtB6_10Serializer14serialize_char(ptr noalias noundef align 8 dereferenceable(24) %self, i32 noundef range(i32 0, 1114112) %0) unnamed_addr #1 {
start:
  %v = alloca [4 x i8], align 4
  store i32 %0, ptr %v, align 4
; call <char as core::fmt::Display>::fmt
  %_0 = call noundef zeroext i1 @_RNvXsk_NtCsjMrxcFdYDNN_4core3fmtcNtB5_7Display3fmt(ptr noalias noundef nonnull readonly align 4 captures(address, read_provenance) dereferenceable(4) %v, ptr noalias noundef nonnull align 8 dereferenceable(24) %self)
  ret i1 %_0
}

; <&mut core::fmt::Formatter as serde_core::ser::Serializer>::serialize_i128
; Function Attrs: uwtable
define noundef zeroext i1 @_RNvXs_NtNtCsasqbmkB9jT1_10serde_core3ser3fmtQNtNtCsjMrxcFdYDNN_4core3fmt9FormatterNtB6_10Serializer14serialize_i128(ptr noalias noundef align 8 dereferenceable(24) %self, i128 noundef %0) unnamed_addr #1 {
start:
  %v = alloca [16 x i8], align 16
  store i128 %0, ptr %v, align 16
; call <i128 as core::fmt::Display>::fmt
  %_0 = call noundef zeroext i1 @_RNvXs_NtNtCsjMrxcFdYDNN_4core3fmt3numnNtB6_7Display3fmt(ptr noalias noundef nonnull readonly align 16 captures(address, read_provenance) dereferenceable(16) %v, ptr noalias noundef nonnull align 8 dereferenceable(24) %self)
  ret i1 %_0
}

; <&mut core::fmt::Formatter as serde_core::ser::Serializer>::serialize_u128
; Function Attrs: uwtable
define noundef zeroext i1 @_RNvXs_NtNtCsasqbmkB9jT1_10serde_core3ser3fmtQNtNtCsjMrxcFdYDNN_4core3fmt9FormatterNtB6_10Serializer14serialize_u128(ptr noalias noundef align 8 dereferenceable(24) %self, i128 noundef %0) unnamed_addr #1 {
start:
  %v = alloca [16 x i8], align 16
  store i128 %0, ptr %v, align 16
; call <u128 as core::fmt::Display>::fmt
  %_0 = call noundef zeroext i1 @_RNvXNtNtCsjMrxcFdYDNN_4core3fmt3numoNtB4_7Display3fmt(ptr noalias noundef nonnull readonly align 16 captures(address, read_provenance) dereferenceable(16) %v, ptr noalias noundef nonnull align 8 dereferenceable(24) %self)
  ret i1 %_0
}

; <&mut core::fmt::Formatter as serde_core::ser::Serializer>::serialize_unit_variant
; Function Attrs: uwtable
define noundef zeroext i1 @_RNvXs_NtNtCsasqbmkB9jT1_10serde_core3ser3fmtQNtNtCsjMrxcFdYDNN_4core3fmt9FormatterNtB6_10Serializer22serialize_unit_variant(ptr noalias noundef align 8 dereferenceable(24) %self, ptr noalias noundef nonnull readonly align 1 captures(none) %_name.0, i64 noundef %_name.1, i32 noundef %_variant_index, ptr noalias noundef nonnull readonly align 1 captures(address, read_provenance) %variant.0, i64 noundef %variant.1) unnamed_addr #1 {
start:
; call <str as core::fmt::Display>::fmt
  %_0 = tail call noundef zeroext i1 @_RNvXsi_NtCsjMrxcFdYDNN_4core3fmteNtB5_7Display3fmt(ptr noalias noundef nonnull readonly align 1 captures(address, read_provenance) %variant.0, i64 noundef %variant.1, ptr noalias noundef nonnull align 8 dereferenceable(24) %self)
  ret i1 %_0
}

; <<core::time::Duration as serde_core::de::Deserialize>::deserialize::DurationVisitor as serde_core::de::Visitor>::expecting
; Function Attrs: uwtable
define noundef zeroext i1 @_RNvXs_NvXsw_NtNtCsasqbmkB9jT1_10serde_core2de5implsNtNtCsjMrxcFdYDNN_4core4time8DurationNtBc_11Deserialize11deserializeNtB4_15DurationVisitorNtBc_7Visitor9expecting(ptr noalias noundef nonnull readonly align 1 captures(none) %self, ptr noalias noundef align 8 dereferenceable(24) %formatter) unnamed_addr #1 {
start:
; call <core::fmt::Formatter>::write_str
  %_0 = tail call noundef zeroext i1 @_RNvMsa_NtCsjMrxcFdYDNN_4core3fmtNtB5_9Formatter9write_str(ptr noalias noundef nonnull align 8 dereferenceable(24) %formatter, ptr noalias noundef nonnull readonly align 1 captures(address, read_provenance) @alloc_6af7c6d1a9af9a967239e84747ee56d5, i64 noundef 15)
  ret i1 %_0
}

; <<std::time::SystemTime as serde_core::de::Deserialize>::deserialize::DurationVisitor as serde_core::de::Visitor>::expecting
; Function Attrs: uwtable
define noundef zeroext i1 @_RNvXs_NvXsx_NtNtCsasqbmkB9jT1_10serde_core2de5implsNtNtCs5sEH5CPMdak_3std4time10SystemTimeNtBc_11Deserialize11deserializeNtB4_15DurationVisitorNtBc_7Visitor9expecting(ptr noalias noundef nonnull readonly align 1 captures(none) %self, ptr noalias noundef align 8 dereferenceable(24) %formatter) unnamed_addr #1 {
start:
; call <core::fmt::Formatter>::write_str
  %_0 = tail call noundef zeroext i1 @_RNvMsa_NtCsjMrxcFdYDNN_4core3fmtNtB5_9Formatter9write_str(ptr noalias noundef nonnull align 8 dereferenceable(24) %formatter, ptr noalias noundef nonnull readonly align 1 captures(address, read_provenance) @alloc_be3f8f1470f8a602fce3577410bfcf6d, i64 noundef 17)
  ret i1 %_0
}

; <serde_core::de::impls::CStringVisitor as serde_core::de::Visitor>::expecting
; Function Attrs: uwtable
define noundef zeroext i1 @_RNvXsb_NtNtCsasqbmkB9jT1_10serde_core2de5implsNtB5_14CStringVisitorNtB7_7Visitor9expecting(ptr noalias noundef nonnull readonly align 1 captures(none) %self, ptr noalias noundef align 8 dereferenceable(24) %formatter) unnamed_addr #1 {
start:
; call <core::fmt::Formatter>::write_str
  %_0 = tail call noundef zeroext i1 @_RNvMsa_NtCsjMrxcFdYDNN_4core3fmtNtB5_9Formatter9write_str(ptr noalias noundef nonnull align 8 dereferenceable(24) %formatter, ptr noalias noundef nonnull readonly align 1 captures(address, read_provenance) @alloc_091f3db18a34740c8a08c8293d5947eb, i64 noundef 10)
  ret i1 %_0
}

; <alloc::boxed::Box<str> as core::fmt::Debug>::fmt
; Function Attrs: uwtable
define internal noundef zeroext i1 @_RNvXsn_NtCsdJPVW0sQgAG_5alloc5boxedINtB5_3BoxeENtNtCsjMrxcFdYDNN_4core3fmt5Debug3fmtCsasqbmkB9jT1_10serde_core(ptr noalias noundef readonly align 8 captures(none) dereferenceable(16) %self, ptr noalias noundef align 8 dereferenceable(24) %f) unnamed_addr #1 {
start:
  %_5.0 = load ptr, ptr %self, align 8, !nonnull !2, !noundef !2
  %0 = getelementptr inbounds nuw i8, ptr %self, i64 8
  %_5.1 = load i64, ptr %0, align 8, !noundef !2
; call <str as core::fmt::Debug>::fmt
  %_0 = tail call noundef zeroext i1 @_RNvXsh_NtCsjMrxcFdYDNN_4core3fmteNtB5_5Debug3fmt(ptr noalias noundef nonnull readonly align 1 captures(address, read_provenance) %_5.0, i64 noundef %_5.1, ptr noalias noundef nonnull align 8 dereferenceable(24) %f)
  ret i1 %_0
}

; <serde_core::de::impls::PathVisitor as serde_core::de::Visitor>::expecting
; Function Attrs: uwtable
define noundef zeroext i1 @_RNvXso_NtNtCsasqbmkB9jT1_10serde_core2de5implsNtB5_11PathVisitorNtB7_7Visitor9expecting(ptr noalias noundef nonnull readonly align 1 captures(none) %self, ptr noalias noundef align 8 dereferenceable(24) %formatter) unnamed_addr #1 {
start:
; call <core::fmt::Formatter>::write_str
  %_0 = tail call noundef zeroext i1 @_RNvMsa_NtCsjMrxcFdYDNN_4core3fmtNtB5_9Formatter9write_str(ptr noalias noundef nonnull align 8 dereferenceable(24) %formatter, ptr noalias noundef nonnull readonly align 1 captures(address, read_provenance) @alloc_3567600552f439bbaf247475f318ef72, i64 noundef 15)
  ret i1 %_0
}

; <serde_core::de::impls::PathBufVisitor as serde_core::de::Visitor>::expecting
; Function Attrs: uwtable
define noundef zeroext i1 @_RNvXsq_NtNtCsasqbmkB9jT1_10serde_core2de5implsNtB5_14PathBufVisitorNtB7_7Visitor9expecting(ptr noalias noundef nonnull readonly align 1 captures(none) %self, ptr noalias noundef align 8 dereferenceable(24) %formatter) unnamed_addr #1 {
start:
; call <core::fmt::Formatter>::write_str
  %_0 = tail call noundef zeroext i1 @_RNvMsa_NtCsjMrxcFdYDNN_4core3fmtNtB5_9Formatter9write_str(ptr noalias noundef nonnull align 8 dereferenceable(24) %formatter, ptr noalias noundef nonnull readonly align 1 captures(address, read_provenance) @alloc_591e4e6c05411fd2c1d1890d2c594822, i64 noundef 11)
  ret i1 %_0
}

; <serde_core::de::impls::OsStringVisitor as serde_core::de::Visitor>::expecting
; Function Attrs: uwtable
define noundef zeroext i1 @_RNvXss_NtNtCsasqbmkB9jT1_10serde_core2de5implsNtB5_15OsStringVisitorNtB7_7Visitor9expecting(ptr noalias noundef nonnull readonly align 1 captures(none) %self, ptr noalias noundef align 8 dereferenceable(24) %formatter) unnamed_addr #1 {
start:
; call <core::fmt::Formatter>::write_str
  %_0 = tail call noundef zeroext i1 @_RNvMsa_NtCsjMrxcFdYDNN_4core3fmtNtB5_9Formatter9write_str(ptr noalias noundef nonnull align 8 dereferenceable(24) %formatter, ptr noalias noundef nonnull readonly align 1 captures(address, read_provenance) @alloc_cb32d032405e73736771b2a5da6c1c45, i64 noundef 9)
  ret i1 %_0
}

; <<serde_core::de::WithDecimalPoint as core::fmt::Display>::fmt::LookForDecimalPoint as core::fmt::Write>::write_fmt
; Function Attrs: uwtable
define internal noundef zeroext i1 @_RNvYNtNvXs7_NtCsasqbmkB9jT1_10serde_core2deNtBa_16WithDecimalPointNtNtCsjMrxcFdYDNN_4core3fmt7Display3fmt19LookForDecimalPointNtB14_5Write9write_fmtBc_(ptr noalias noundef align 8 dereferenceable(16) %self, ptr noundef nonnull %args.0, ptr noundef nonnull %args.1) unnamed_addr #1 {
start:
; call core::fmt::write
  %0 = tail call noundef zeroext i1 @_RNvNtCsjMrxcFdYDNN_4core3fmt5write(ptr noundef nonnull align 8 dereferenceable(16) %self, ptr noalias noundef readonly align 8 captures(address, read_provenance) dereferenceable(48) @vtable.1, ptr noundef nonnull %args.0, ptr noundef nonnull %args.1)
  ret i1 %0
}

; Function Attrs: mustprogress nocallback nofree nosync nounwind willreturn memory(argmem: readwrite)
declare void @llvm.lifetime.start.p0(i64 immarg, ptr captures(none)) #3

; Function Attrs: mustprogress nocallback nofree nosync nounwind willreturn memory(argmem: readwrite)
declare void @llvm.lifetime.end.p0(i64 immarg, ptr captures(none)) #3

; Function Attrs: nounwind uwtable
declare noundef range(i32 0, 10) i32 @rust_eh_personality(i32 noundef, i32 noundef, i64 noundef, ptr noundef, ptr noundef) unnamed_addr #0

; Function Attrs: mustprogress nocallback nofree nounwind willreturn memory(argmem: readwrite)
declare void @llvm.memcpy.p0.p0.i64(ptr noalias writeonly captures(none), ptr noalias readonly captures(none), i64, i1 immarg) #4

; core::slice::index::slice_index_fail
; Function Attrs: cold noinline noreturn uwtable
declare void @_RNvNtNtCsjMrxcFdYDNN_4core5slice5index16slice_index_fail(i64 noundef, i64 noundef, i64 noundef, ptr noalias noundef readonly align 8 captures(address, read_provenance) dereferenceable(24)) unnamed_addr #5

; <alloc::string::String>::from_utf8_lossy
; Function Attrs: uwtable
declare void @_RNvMNtCsdJPVW0sQgAG_5alloc6stringNtB2_6String15from_utf8_lossy(ptr dead_on_unwind noalias noundef writable sret([24 x i8]) align 8 captures(none) dereferenceable(24), ptr noalias noundef nonnull readonly align 1 captures(address, read_provenance), i64 noundef range(i64 0, -9223372036854775808)) unnamed_addr #1

; core::slice::memchr::memchr_aligned
; Function Attrs: uwtable
declare { i64, i64 } @_RNvNtNtCsjMrxcFdYDNN_4core5slice6memchr14memchr_aligned(i8 noundef, ptr noalias noundef nonnull readonly align 1 captures(address, read_provenance), i64 noundef range(i64 0, -9223372036854775808)) unnamed_addr #1

; <usize as core::fmt::Display>::fmt
; Function Attrs: uwtable
declare noundef zeroext i1 @_RNvXsi_NtNtNtCsjMrxcFdYDNN_4core3fmt3num3impjNtB9_7Display3fmt(ptr noalias noundef readonly align 8 captures(address, read_provenance) dereferenceable(8), ptr noalias noundef align 8 dereferenceable(24)) unnamed_addr #1

; <bool as core::fmt::Display>::fmt
; Function Attrs: uwtable
declare noundef zeroext i1 @_RNvXsg_NtCsjMrxcFdYDNN_4core3fmtbNtB5_7Display3fmt(ptr noalias noundef readonly align 1 captures(address, read_provenance) dereferenceable(1), ptr noalias noundef align 8 dereferenceable(24)) unnamed_addr #1

; core::fmt::write
; Function Attrs: uwtable
declare noundef zeroext i1 @_RNvNtCsjMrxcFdYDNN_4core3fmt5write(ptr noundef nonnull align 1, ptr noalias noundef readonly align 8 captures(address, read_provenance) dereferenceable(48), ptr noundef nonnull, ptr noundef nonnull) unnamed_addr #1

; <u64 as core::fmt::Display>::fmt
; Function Attrs: uwtable
declare noundef zeroext i1 @_RNvXsd_NtNtNtCsjMrxcFdYDNN_4core3fmt3num3impyNtB9_7Display3fmt(ptr noalias noundef readonly align 8 captures(address, read_provenance) dereferenceable(8), ptr noalias noundef align 8 dereferenceable(24)) unnamed_addr #1

; <i64 as core::fmt::Display>::fmt
; Function Attrs: uwtable
declare noundef zeroext i1 @_RNvXse_NtNtNtCsjMrxcFdYDNN_4core3fmt3num3impxNtB9_7Display3fmt(ptr noalias noundef readonly align 8 captures(address, read_provenance) dereferenceable(8), ptr noalias noundef align 8 dereferenceable(24)) unnamed_addr #1

; <char as core::fmt::Display>::fmt
; Function Attrs: uwtable
declare noundef zeroext i1 @_RNvXsk_NtCsjMrxcFdYDNN_4core3fmtcNtB5_7Display3fmt(ptr noalias noundef readonly align 4 captures(address, read_provenance) dereferenceable(4), ptr noalias noundef align 8 dereferenceable(24)) unnamed_addr #1

; <core::fmt::Formatter>::write_str
; Function Attrs: uwtable
declare noundef zeroext i1 @_RNvMsa_NtCsjMrxcFdYDNN_4core3fmtNtB5_9Formatter9write_str(ptr noalias noundef align 8 dereferenceable(24), ptr noalias noundef nonnull readonly align 1 captures(address, read_provenance), i64 noundef) unnamed_addr #1

; <core::fmt::Formatter as core::fmt::Write>::write_char
; Function Attrs: uwtable
declare noundef zeroext i1 @_RNvXsb_NtCsjMrxcFdYDNN_4core3fmtNtB5_9FormatterNtB5_5Write10write_char(ptr noalias noundef align 8 dereferenceable(24), i32 noundef range(i32 0, 1114112)) unnamed_addr #1

; core::panicking::panic
; Function Attrs: cold noinline noreturn uwtable
declare void @_RNvNtCsjMrxcFdYDNN_4core9panicking5panic(ptr noalias noundef nonnull readonly align 1 captures(address, read_provenance), i64 noundef, ptr noalias noundef readonly align 8 captures(address, read_provenance) dereferenceable(24)) unnamed_addr #5

; <core::fmt::Formatter>::debug_tuple
; Function Attrs: uwtable
declare void @_RNvMsa_NtCsjMrxcFdYDNN_4core3fmtNtB5_9Formatter11debug_tuple(ptr dead_on_unwind noalias noundef writable sret([24 x i8]) align 8 captures(address) dereferenceable(24), ptr noalias noundef align 8 dereferenceable(24), ptr noalias noundef nonnull readonly align 1 captures(address, read_provenance), i64 noundef) unnamed_addr #1

; <core::fmt::builders::DebugTuple>::field
; Function Attrs: uwtable
declare noundef nonnull align 8 ptr @_RNvMs2_NtNtCsjMrxcFdYDNN_4core3fmt8buildersNtB5_10DebugTuple5field(ptr noalias noundef align 8 dereferenceable(24), ptr noundef nonnull align 1, ptr noalias noundef readonly align 8 captures(address, read_provenance) dereferenceable(32)) unnamed_addr #1

; <core::fmt::builders::DebugTuple>::finish
; Function Attrs: uwtable
declare noundef zeroext i1 @_RNvMs2_NtNtCsjMrxcFdYDNN_4core3fmt8buildersNtB5_10DebugTuple6finish(ptr noalias noundef align 8 dereferenceable(24)) unnamed_addr #1

; <str as core::fmt::Debug>::fmt
; Function Attrs: uwtable
declare noundef zeroext i1 @_RNvXsh_NtCsjMrxcFdYDNN_4core3fmteNtB5_5Debug3fmt(ptr noalias noundef nonnull readonly align 1 captures(address, read_provenance), i64 noundef, ptr noalias noundef align 8 dereferenceable(24)) unnamed_addr #1

; <str as core::fmt::Display>::fmt
; Function Attrs: uwtable
declare noundef zeroext i1 @_RNvXsi_NtCsjMrxcFdYDNN_4core3fmteNtB5_7Display3fmt(ptr noalias noundef nonnull readonly align 1 captures(address, read_provenance), i64 noundef, ptr noalias noundef align 8 dereferenceable(24)) unnamed_addr #1

; Function Attrs: mustprogress nocallback nofree nosync nounwind speculatable willreturn memory(none)
declare double @llvm.fabs.f64(double) #6

; <f64 as core::fmt::Display>::fmt
; Function Attrs: uwtable
declare noundef zeroext i1 @_RNvXs7_NtNtCsjMrxcFdYDNN_4core3fmt5floatdNtB7_7Display3fmt(ptr noalias noundef readonly align 8 captures(address, read_provenance) dereferenceable(8), ptr noalias noundef align 8 dereferenceable(24)) unnamed_addr #1

; __rustc::__rust_dealloc
; Function Attrs: nounwind allockind("free") uwtable
declare void @_RNvCsKhRCbHf33p_7___rustc14___rust_dealloc(ptr allocptr noundef, i64 noundef, i64 noundef) unnamed_addr #7

; <i8 as core::fmt::Display>::fmt
; Function Attrs: uwtable
declare noundef zeroext i1 @_RNvXs_NtNtNtCsjMrxcFdYDNN_4core3fmt3num3impaNtB8_7Display3fmt(ptr noalias noundef readonly align 1 captures(address, read_provenance) dereferenceable(1), ptr noalias noundef align 8 dereferenceable(24)) unnamed_addr #1

; <u8 as core::fmt::Display>::fmt
; Function Attrs: uwtable
declare noundef zeroext i1 @_RNvXNtNtNtCsjMrxcFdYDNN_4core3fmt3num3imphNtB6_7Display3fmt(ptr noalias noundef readonly align 1 captures(address, read_provenance) dereferenceable(1), ptr noalias noundef align 8 dereferenceable(24)) unnamed_addr #1

; <f32 as core::fmt::Display>::fmt
; Function Attrs: uwtable
declare noundef zeroext i1 @_RNvXs3_NtNtCsjMrxcFdYDNN_4core3fmt5floatfNtB7_7Display3fmt(ptr noalias noundef readonly align 4 captures(address, read_provenance) dereferenceable(4), ptr noalias noundef align 8 dereferenceable(24)) unnamed_addr #1

; <i16 as core::fmt::Display>::fmt
; Function Attrs: uwtable
declare noundef zeroext i1 @_RNvXs4_NtNtNtCsjMrxcFdYDNN_4core3fmt3num3impsNtB9_7Display3fmt(ptr noalias noundef readonly align 2 captures(address, read_provenance) dereferenceable(2), ptr noalias noundef align 8 dereferenceable(24)) unnamed_addr #1

; <i32 as core::fmt::Display>::fmt
; Function Attrs: uwtable
declare noundef zeroext i1 @_RNvXs9_NtNtNtCsjMrxcFdYDNN_4core3fmt3num3implNtB9_7Display3fmt(ptr noalias noundef readonly align 4 captures(address, read_provenance) dereferenceable(4), ptr noalias noundef align 8 dereferenceable(24)) unnamed_addr #1

; <u16 as core::fmt::Display>::fmt
; Function Attrs: uwtable
declare noundef zeroext i1 @_RNvXs3_NtNtNtCsjMrxcFdYDNN_4core3fmt3num3imptNtB9_7Display3fmt(ptr noalias noundef readonly align 2 captures(address, read_provenance) dereferenceable(2), ptr noalias noundef align 8 dereferenceable(24)) unnamed_addr #1

; <u32 as core::fmt::Display>::fmt
; Function Attrs: uwtable
declare noundef zeroext i1 @_RNvXs8_NtNtNtCsjMrxcFdYDNN_4core3fmt3num3impmNtB9_7Display3fmt(ptr noalias noundef readonly align 4 captures(address, read_provenance) dereferenceable(4), ptr noalias noundef align 8 dereferenceable(24)) unnamed_addr #1

; <i128 as core::fmt::Display>::fmt
; Function Attrs: uwtable
declare noundef zeroext i1 @_RNvXs_NtNtCsjMrxcFdYDNN_4core3fmt3numnNtB6_7Display3fmt(ptr noalias noundef readonly align 16 captures(address, read_provenance) dereferenceable(16), ptr noalias noundef align 8 dereferenceable(24)) unnamed_addr #1

; <u128 as core::fmt::Display>::fmt
; Function Attrs: uwtable
declare noundef zeroext i1 @_RNvXNtNtCsjMrxcFdYDNN_4core3fmt3numoNtB4_7Display3fmt(ptr noalias noundef readonly align 16 captures(address, read_provenance) dereferenceable(16), ptr noalias noundef align 8 dereferenceable(24)) unnamed_addr #1

; Function Attrs: nocallback nofree nosync nounwind willreturn memory(inaccessiblemem: readwrite)
declare void @llvm.experimental.noalias.scope.decl(metadata) #8

attributes #0 = { nounwind uwtable "frame-pointer"="non-leaf" "probe-stack"="inline-asm" "target-cpu"="apple-m1" }
attributes #1 = { uwtable "frame-pointer"="non-leaf" "probe-stack"="inline-asm" "target-cpu"="apple-m1" }
attributes #2 = { cold noreturn uwtable "frame-pointer"="non-leaf" "probe-stack"="inline-asm" "target-cpu"="apple-m1" }
attributes #3 = { mustprogress nocallback nofree nosync nounwind willreturn memory(argmem: readwrite) }
attributes #4 = { mustprogress nocallback nofree nounwind willreturn memory(argmem: readwrite) }
attributes #5 = { cold noinline noreturn uwtable "frame-pointer"="non-leaf" "probe-stack"="inline-asm" "target-cpu"="apple-m1" }
attributes #6 = { mustprogress nocallback nofree nosync nounwind speculatable willreturn memory(none) }
attributes #7 = { nounwind allockind("free") uwtable "alloc-family"="__rust_alloc" "frame-pointer"="non-leaf" "probe-stack"="inline-asm" "target-cpu"="apple-m1" }
attributes #8 = { nocallback nofree nosync nounwind willreturn memory(inaccessiblemem: readwrite) }
attributes #9 = { nounwind }
attributes #10 = { noinline noreturn }
attributes #11 = { inlinehint }

!llvm.module.flags = !{!0}
!llvm.ident = !{!1}

!0 = !{i32 8, !"PIC Level", i32 2}
!1 = !{!"rustc version 1.95.0-nightly (39052daf9 2026-01-22)"}
!2 = !{}
!3 = !{!"branch_weights", i32 4001, i32 4000000}
!4 = !{i64 1}
!5 = !{i8 0, i8 18}
!6 = !{i8 0, i8 2}
!7 = !{i64 8}
!8 = !{i32 0, i32 1114112}
!9 = !{!10, !12}
!10 = distinct !{!10, !11, !"_RNvNtNtCsjMrxcFdYDNN_4core5slice6memchr6memchr: %text.0"}
!11 = distinct !{!11, !"_RNvNtNtCsjMrxcFdYDNN_4core5slice6memchr6memchr"}
!12 = distinct !{!12, !13, !"_RNvXs2_NtNtCsjMrxcFdYDNN_4core3str7patterncNtB5_7Pattern15is_contained_in: %haystack.0"}
!13 = distinct !{!13, !"_RNvXs2_NtNtCsjMrxcFdYDNN_4core3str7patterncNtB5_7Pattern15is_contained_in"}
!14 = !{!15}
!15 = distinct !{!15, !16, !"_RNvXs1i_NtCsjMrxcFdYDNN_4core3fmtReNtB6_7Display3fmtCsasqbmkB9jT1_10serde_core: %self"}
!16 = distinct !{!16, !"_RNvXs1i_NtCsjMrxcFdYDNN_4core3fmtReNtB6_7Display3fmtCsasqbmkB9jT1_10serde_core"}
!17 = !{!18}
!18 = distinct !{!18, !16, !"_RNvXs1i_NtCsjMrxcFdYDNN_4core3fmtReNtB6_7Display3fmtCsasqbmkB9jT1_10serde_core: %f"}
!19 = !{!"branch_weights", i32 2000, i32 1, i32 2000, i32 2000}
!20 = distinct !{!20, !21}
!21 = !{!"llvm.loop.peeled.count", i32 1}
!22 = !{!23, !25}
!23 = distinct !{!23, !24, !"_RINvNtCsjMrxcFdYDNN_4core5slice20copy_from_slice_implhECsasqbmkB9jT1_10serde_core: %dest.0"}
!24 = distinct !{!24, !"_RINvNtCsjMrxcFdYDNN_4core5slice20copy_from_slice_implhECsasqbmkB9jT1_10serde_core"}
!25 = distinct !{!25, !24, !"_RINvNtCsjMrxcFdYDNN_4core5slice20copy_from_slice_implhECsasqbmkB9jT1_10serde_core: %src.0"}
