; ModuleID = 'serde_json.31538591aef3f33d-cgu.0'
source_filename = "serde_json.31538591aef3f33d-cgu.0"
target datalayout = "e-m:o-p270:32:32-p271:32:32-p272:64:64-i64:64-i128:128-n32:64-S128-Fn32"
target triple = "arm64-apple-macosx11.0.0"

%"value::Value" = type { i8, [31 x i8] }
%"core::mem::maybe_uninit::MaybeUninit<alloc::string::String>" = type { [3 x i64] }
%"core::mem::maybe_uninit::MaybeUninit<value::Value>" = type { [4 x i64] }
%"alloc::string::String" = type { %"alloc::vec::Vec<u8>" }
%"alloc::vec::Vec<u8>" = type { %"alloc::raw_vec::RawVec<u8>", i64 }
%"alloc::raw_vec::RawVec<u8>" = type { %"alloc::raw_vec::RawVecInner", %"core::marker::PhantomData<u8>" }
%"alloc::raw_vec::RawVecInner" = type { i64, ptr, %"alloc::alloc::Global" }
%"alloc::alloc::Global" = type {}
%"core::marker::PhantomData<u8>" = type {}

@_RNvNtCs4eyShm1h0hl_10serde_json3ser6ESCAPE = local_unnamed_addr constant [256 x i8] c"uuuuuuuubtnufruuuuuuuuuuuuuuuuuu\00\00\22\00\00\00\00\00\00\00\00\00\00\00\00\00\00\00\00\00\00\00\00\00\00\00\00\00\00\00\00\00\00\00\00\00\00\00\00\00\00\00\00\00\00\00\00\00\00\00\00\00\00\00\00\00\00\00\00\00\\\00\00\00\00\00\00\00\00\00\00\00\00\00\00\00\00\00\00\00\00\00\00\00\00\00\00\00\00\00\00\00\00\00\00\00\00\00\00\00\00\00\00\00\00\00\00\00\00\00\00\00\00\00\00\00\00\00\00\00\00\00\00\00\00\00\00\00\00\00\00\00\00\00\00\00\00\00\00\00\00\00\00\00\00\00\00\00\00\00\00\00\00\00\00\00\00\00\00\00\00\00\00\00\00\00\00\00\00\00\00\00\00\00\00\00\00\00\00\00\00\00\00\00\00\00\00\00\00\00\00\00\00\00\00\00\00\00\00\00\00\00\00\00\00\00\00\00\00\00\00\00\00\00\00\00\00\00\00\00\00\00\00\00", align 1
@_RNvNvNtNtCs4eyShm1h0hl_10serde_json3ser9Formatter17write_char_escape10HEX_DIGITS = local_unnamed_addr constant [16 x i8] c"0123456789abcdef", align 1
@alloc_104115261563f6c546bdf00cc6c7b510 = private unnamed_addr constant [103 x i8] c"/Users/hongyaotang/.cargo/registry/src/index.crates.io-1949cf8c6b5b557f/serde_json-1.0.149/src/read.rs\00", align 1
@alloc_5a0248c0b0f2cdae6cfdc7bec0087cdf = private unnamed_addr constant <{ ptr, [16 x i8] }> <{ ptr @alloc_104115261563f6c546bdf00cc6c7b510, [16 x i8] c"f\00\00\00\00\00\00\00\00\02\00\00\13\00\00\00" }>, align 8
@alloc_a1e73cc33f511a1534c9fed4a59e2967 = private unnamed_addr constant <{ ptr, [16 x i8] }> <{ ptr @alloc_104115261563f6c546bdf00cc6c7b510, [16 x i8] c"f\00\00\00\00\00\00\00\05\02\00\003\00\00\00" }>, align 8
@alloc_8dbbb9ff93ef53f23a7ac09838044ee0 = private unnamed_addr constant <{ ptr, [16 x i8] }> <{ ptr @alloc_104115261563f6c546bdf00cc6c7b510, [16 x i8] c"f\00\00\00\00\00\00\00\09\02\00\00>\00\00\00" }>, align 8
@alloc_c08b84f44074909cf3e5243dfc8b2666 = private unnamed_addr constant <{ ptr, [16 x i8] }> <{ ptr @alloc_104115261563f6c546bdf00cc6c7b510, [16 x i8] c"f\00\00\00\00\00\00\00\0F\02\00\00:\00\00\00" }>, align 8
@vtable.0 = private unnamed_addr constant <{ [24 x i8], ptr }> <{ [24 x i8] c"\00\00\00\00\00\00\00\00\08\00\00\00\00\00\00\00\08\00\00\00\00\00\00\00", ptr @_RNvXs1g_NtCsjMrxcFdYDNN_4core3fmtRNtNtCs4eyShm1h0hl_10serde_json5value5ValueNtB6_5Debug3fmtBA_ }>, align 8
@vtable.1 = private unnamed_addr constant <{ [24 x i8], ptr }> <{ [24 x i8] c"\00\00\00\00\00\00\00\00\08\00\00\00\00\00\00\00\08\00\00\00\00\00\00\00", ptr @_RNvXs1g_NtCsjMrxcFdYDNN_4core3fmtRNtNtCsdJPVW0sQgAG_5alloc6string6StringNtB6_5Debug3fmtCs4eyShm1h0hl_10serde_json }>, align 8
@alloc_a51357dfbcca0800220965a98e80088f = private unnamed_addr constant [132 x i8] c"/Users/hongyaotang/.rustup/toolchains/nightly-aarch64-apple-darwin/lib/rustlib/src/rust/library/alloc/src/collections/btree/node.rs\00", align 1
@alloc_36e9d3034d1040a1b97b71beadbdf183 = private unnamed_addr constant <{ ptr, [16 x i8] }> <{ ptr @alloc_a51357dfbcca0800220965a98e80088f, [16 x i8] c"\83\00\00\00\00\00\00\00\F0\00\00\00M\00\00\00" }>, align 8
@alloc_f9ac716bb21fe95dea147a575da0cd2c = private unnamed_addr constant [53 x i8] c"assertion failed: edge.height == self.node.height - 1", align 1
@alloc_0db1f9e9d6a6be223708ba0435c81c3e = private unnamed_addr constant <{ ptr, [16 x i8] }> <{ ptr @alloc_a51357dfbcca0800220965a98e80088f, [16 x i8] c"\83\00\00\00\00\00\00\00\03\04\00\00\09\00\00\00" }>, align 8
@alloc_5c50b0573939a5b3b419995fc3e13e19 = private unnamed_addr constant <{ ptr, [16 x i8] }> <{ ptr @alloc_a51357dfbcca0800220965a98e80088f, [16 x i8] c"\83\00\00\00\00\00\00\00\13\05\00\00$\00\00\00" }>, align 8
@alloc_69009fdc319497586282719e739ab5f8 = private unnamed_addr constant [136 x i8] c"/Users/hongyaotang/.rustup/toolchains/nightly-aarch64-apple-darwin/lib/rustlib/src/rust/library/alloc/src/collections/btree/navigate.rs\00", align 1
@alloc_1df1e5171bffdf21494df69d159bd444 = private unnamed_addr constant <{ ptr, [16 x i8] }> <{ ptr @alloc_69009fdc319497586282719e739ab5f8, [16 x i8] c"\87\00\00\00\00\00\00\00\C6\00\00\00'\00\00\00" }>, align 8
@alloc_7fe94be2e120ffbd80c490b1b3c481ee = private unnamed_addr constant [120 x i8] c"/Users/hongyaotang/.rustup/toolchains/nightly-aarch64-apple-darwin/lib/rustlib/src/rust/library/core/src/str/pattern.rs\00", align 1
@alloc_3c3a438693b52af6c6b31c2cc77620da = private unnamed_addr constant <{ ptr, [16 x i8] }> <{ ptr @alloc_7fe94be2e120ffbd80c490b1b3c481ee, [16 x i8] c"w\00\00\00\00\00\00\00\E4\05\00\00\14\00\00\00" }>, align 8
@alloc_759b6db6182a2ae5f8169b55f322d553 = private unnamed_addr constant <{ ptr, [16 x i8] }> <{ ptr @alloc_7fe94be2e120ffbd80c490b1b3c481ee, [16 x i8] c"w\00\00\00\00\00\00\00\E4\05\00\00!\00\00\00" }>, align 8
@alloc_cfc145f12794171662ae0bd5e97799ce = private unnamed_addr constant <{ ptr, [16 x i8] }> <{ ptr @alloc_7fe94be2e120ffbd80c490b1b3c481ee, [16 x i8] c"w\00\00\00\00\00\00\00\D8\05\00\00!\00\00\00" }>, align 8
@alloc_d9a7fae6784522552c3523d16454ba0e = private unnamed_addr constant <{ ptr, [16 x i8] }> <{ ptr @alloc_7fe94be2e120ffbd80c490b1b3c481ee, [16 x i8] c"w\00\00\00\00\00\00\00;\06\00\00\14\00\00\00" }>, align 8
@alloc_9e39757bd1fa8efb7cf0d775b7bcbb77 = private unnamed_addr constant <{ ptr, [16 x i8] }> <{ ptr @alloc_7fe94be2e120ffbd80c490b1b3c481ee, [16 x i8] c"w\00\00\00\00\00\00\00;\06\00\00!\00\00\00" }>, align 8
@alloc_25601c86ae316bbfd169db6af39c4e33 = private unnamed_addr constant <{ ptr, [16 x i8] }> <{ ptr @alloc_7fe94be2e120ffbd80c490b1b3c481ee, [16 x i8] c"w\00\00\00\00\00\00\00/\06\00\00\14\00\00\00" }>, align 8
@alloc_aa0c12c11733320f8c8ee2d17b62155d = private unnamed_addr constant <{ ptr, [16 x i8] }> <{ ptr @alloc_7fe94be2e120ffbd80c490b1b3c481ee, [16 x i8] c"w\00\00\00\00\00\00\00/\06\00\00!\00\00\00" }>, align 8
@alloc_34310cabf6554cc6123dbb21242f43b8 = private unnamed_addr constant [2 x i8] c"  ", align 1
@alloc_930f3883875d82d5043e839301ab22e6 = private unnamed_addr constant [40 x i8] c"assertion failed: src.len() == dst.len()", align 1
@alloc_3d1b356cbfc916b26f15e548d269cb74 = private unnamed_addr constant <{ ptr, [16 x i8] }> <{ ptr @alloc_a51357dfbcca0800220965a98e80088f, [16 x i8] c"\83\00\00\00\00\00\00\00T\07\00\00\05\00\00\00" }>, align 8
@vtable.2 = private unnamed_addr constant <{ [24 x i8], ptr }> <{ [24 x i8] c"\00\00\00\00\00\00\00\00\00\00\00\00\00\00\00\00\01\00\00\00\00\00\00\00", ptr @_RNvXs_NtCsasqbmkB9jT1_10serde_core2deNtNtB4_5impls11UnitVisitorNtB4_8Expected3fmtCs4eyShm1h0hl_10serde_json }>, align 8
@vtable.3 = private unnamed_addr constant <{ [24 x i8], ptr }> <{ [24 x i8] c"\00\00\00\00\00\00\00\00\00\00\00\00\00\00\00\00\01\00\00\00\00\00\00\00", ptr @_RNvXs_NtCsasqbmkB9jT1_10serde_core2deNtNvXs8_NtCs4eyShm1h0hl_10serde_json3mapINtBH_3MapNtNtCsdJPVW0sQgAG_5alloc6string6StringNtNtBJ_5value5ValueENtB4_11Deserialize11deserialize7VisitorNtB4_8Expected3fmtBJ_ }>, align 8
@alloc_49a1e817e911805af64bbc7efb390101 = private unnamed_addr constant [1 x i8] c"\0A", align 1
@alloc_fcd552ca5ffc948e1053f652f94fed71 = private unnamed_addr constant [1 x i8] c"}", align 1
@alloc_036636151bab3754536335311c8d3ab8 = private unnamed_addr constant [1 x i8] c"[", align 1
@alloc_387c6006141796f3ecab55b2882927cf = private unnamed_addr constant [1 x i8] c"{", align 1
@alloc_f7ac0c356c6ac6fcd03badb685e09ca2 = private unnamed_addr constant [2 x i8] c",\0A", align 1
@alloc_556e4180596b5b612bb6ed6c0cbb55e1 = private unnamed_addr constant [2 x i8] c": ", align 1
@alloc_7a6887ef0f93938f57a4bb958cf80311 = private unnamed_addr constant [1 x i8] c"]", align 1
@alloc_cf46f026acc4d198a9acedc9bd1a66b2 = private unnamed_addr constant [1 x i8] c"\22", align 1
@alloc_6f4357e3a3c9006d5d6d935934a9de54 = private unnamed_addr constant [5 x i8] c"false", align 1
@alloc_c9ee9951a160df092319190fa06505e4 = private unnamed_addr constant [4 x i8] c"true", align 1
@alloc_5eb17490b841d10d23675c699111e444 = private unnamed_addr constant [4 x i8] c"null", align 1
@alloc_41a776d8d06dc2b9b0480e88fa257ffe = private unnamed_addr constant [1 x i8] c",", align 1
@alloc_3b8c95b91c663a5a9387bddd44e7b465 = private unnamed_addr constant [1 x i8] c":", align 1
@alloc_93816f04728d387347072ad30618ff9c = private unnamed_addr constant <{ ptr, [16 x i8] }> <{ ptr @alloc_69009fdc319497586282719e739ab5f8, [16 x i8] c"\87\00\00\00\00\00\00\00X\02\00\000\00\00\00" }>, align 8
@alloc_29035c0db49883dc56b2b87602b6d03b = private unnamed_addr constant [2 x i8] c"~1", align 1
@alloc_4d324aa5af3d72a03ce4ca9ce9f41cd0 = private unnamed_addr constant [1 x i8] c"/", align 1
@alloc_2ab3de475171a02269bf7e5ab721067b = private unnamed_addr constant [2 x i8] c"~0", align 1
@alloc_b1e88229fec8d354345b71aa481bcef6 = private unnamed_addr constant [1 x i8] c"~", align 1
@alloc_6d5166d0a38ad20542e7ba5ca8a44b15 = private unnamed_addr constant [137 x i8] c"/Users/hongyaotang/.rustup/toolchains/nightly-aarch64-apple-darwin/lib/rustlib/src/rust/library/alloc/src/collections/btree/map/entry.rs\00", align 1
@alloc_cf95975241676843d7c50b280e03d205 = private unnamed_addr constant <{ ptr, [16 x i8] }> <{ ptr @alloc_6d5166d0a38ad20542e7ba5ca8a44b15, [16 x i8] c"\88\00\00\00\00\00\00\00\A0\01\00\00.\00\00\00" }>, align 8
@alloc_f275f8d8f51fe62f3d798719d7f71a9d = private unnamed_addr constant <{ ptr, [16 x i8] }> <{ ptr @alloc_69009fdc319497586282719e739ab5f8, [16 x i8] c"\87\00\00\00\00\00\00\00\16\02\00\00/\00\00\00" }>, align 8
@alloc_84da818df01979596a9e7a52ed4fd1e4 = private unnamed_addr constant [48 x i8] c"assertion failed: self.is_char_boundary(new_len)", align 1
@vtable.6 = private unnamed_addr constant <{ [24 x i8], ptr }> <{ [24 x i8] c"\00\00\00\00\00\00\00\00\00\00\00\00\00\00\00\00\01\00\00\00\00\00\00\00", ptr @_RNvXsK_NtCsjMrxcFdYDNN_4core3fmtNtB5_5ErrorNtB5_5Debug3fmt }>, align 8
@alloc_015ae5f772bad43cd25aeab6e3baf6a0 = private unnamed_addr constant <{ ptr, [16 x i8] }> <{ ptr @alloc_104115261563f6c546bdf00cc6c7b510, [16 x i8] c"f\00\00\00\00\00\00\00\B3\01\00\00\1A\00\00\00" }>, align 8
@alloc_4f761b1f39531bebc26b3ed243bd704d = private unnamed_addr constant <{ ptr, [16 x i8] }> <{ ptr @alloc_104115261563f6c546bdf00cc6c7b510, [16 x i8] c"f\00\00\00\00\00\00\00\AB\01\00\00=\00\00\00" }>, align 8
@alloc_608710d3a0db7aefaa00ac17b1ad7100 = private unnamed_addr constant <{ ptr, [16 x i8] }> <{ ptr @alloc_104115261563f6c546bdf00cc6c7b510, [16 x i8] c"f\00\00\00\00\00\00\00\A6\01\00\00E\00\00\00" }>, align 8
@alloc_b0d6f4768d6dbcaaba9bf9a6c0de2b5f = private unnamed_addr constant <{ ptr, [16 x i8] }> <{ ptr @alloc_a51357dfbcca0800220965a98e80088f, [16 x i8] c"\83\00\00\00\00\00\00\00\D0\04\00\00#\00\00\00" }>, align 8
@alloc_28a6f5a8b41cb4108dcfc604f25e6395 = private unnamed_addr constant [32 x i8] c"assertion failed: idx < CAPACITY", align 1
@alloc_a22ca415bdf11333a2805de6535ccbfd = private unnamed_addr constant <{ ptr, [16 x i8] }> <{ ptr @alloc_a51357dfbcca0800220965a98e80088f, [16 x i8] c"\83\00\00\00\00\00\00\00\9E\02\00\00\09\00\00\00" }>, align 8
@alloc_50679f783fca94dab7457816f752eff0 = private unnamed_addr constant [48 x i8] c"assertion failed: edge.height == self.height - 1", align 1
@alloc_6f083584960555ed8732225b7b53e5b1 = private unnamed_addr constant <{ ptr, [16 x i8] }> <{ ptr @alloc_a51357dfbcca0800220965a98e80088f, [16 x i8] c"\83\00\00\00\00\00\00\00\B6\02\00\00\09\00\00\00" }>, align 8
@_RNvNtCs4eyShm1h0hl_10serde_json2de5POW10 = local_unnamed_addr constant [2472 x i8] c"\00\00\00\00\00\00\F0?\00\00\00\00\00\00$@\00\00\00\00\00\00Y@\00\00\00\00\00@\8F@\00\00\00\00\00\88\C3@\00\00\00\00\00j\F8@\00\00\00\00\80\84.A\00\00\00\00\D0\12cA\00\00\00\00\84\D7\97A\00\00\00\00e\CD\CDA\00\00\00 _\A0\02B\00\00\00\E8vH7B\00\00\00\A2\94\1AmB\00\00@\E5\9C0\A2B\00\00\90\1E\C4\BC\D6B\00\004&\F5k\0CC\00\80\E07y\C3AC\00\A0\D8\85W4vC\00\C8Ngm\C1\ABC\00=\91`\E4X\E1C@\8C\B5x\1D\AF\15DP\EF\E2\D6\E4\1AKD\92\D5M\06\CF\F0\80D\F6J\E1\C7\02-\B5D\B4\9D\D9yCx\EAD\91\02(,*\8B E5\032\B7\F4\ADTE\02\84\FE\E4q\D9\89E\81\12\1F/\E7'\C0E!\D7\E6\FA\E01\F4E\EA\8C\A09Y>)F$\B0\08\88\EF\8D_F\17n\05\B5\B5\B8\93F\9C\C9F\22\E3\A6\C8F\03|\D8\EA\9B\D0\FEF\82M\C7raB3G\E3 y\CF\F9\12hG\1BiWC\B8\17\9EG\B1\A1\16*\D3\CE\D2G\1DJ\9C\F4\87\82\07H\A5\\\C3\F1)c=H\E7\19\1A7\FA]rHa\A0\E0\C4x\F5\A6Hy\C8\18\F6\D6\B2\DCHL}\CFY\C6\EF\11I\9E\\C\F0\B7kFI\C63T\EC\A5\06|I\\\A0\B4\B3'\84\B1Is\C8\A1\A01\E5\E5I\8F:\CA\08~^\1BJ\9Ad~\C5\0E\1BQJ\C0\FD\DDv\D2a\85J0}\95\14G\BA\BAJ>n\DDll\B4\F0J\CE\C9\14\88\87\E1$KA\FC\19j\E9\19ZK\A9=P\E21P\90K\13M\E4Z>d\C4KW`\9D\F1M}\F9Km\B8\04n\A1\DC/LD\F3\C2\E4\E4\E9cL\15\B0\F3\1D^\E4\98L\1B\9Cp\A5u\1D\CFL\91af\87ir\03M\F5\F9?\E9\03O8Mr\F8\8F\E3\C4bnMG\FB9\0E\BB\FD\A2M\19z\C8\D1)\BD\D7M\9F\98:Ft\AC\0DNd\9F\E4\AB\C8\8BBN=\C7\DD\D6\BA.wN\0C9\95\8Ci\FA\ACN\A7C\DD\F7\81\1C\E2N\91\94\D4u\A2\A3\16O\B5\B9I\13\8BLLO\11\14\0E\EC\D6\AF\81O\16\99\11\A7\CC\1B\B6O[\FF\D5\D0\BF\A2\EBO\99\BF\85\E2\B7E!P\7F/'\DB%\97UP_\FB\F0Q\EF\FC\8AP\1B\9D6\93\15\DE\C0PbD\04\F8\9A\15\F5P{U\05\B6\01[*QmU\C3\11\E1x`Q\C8*4V\19\97\94Qz5\C1\AB\DF\BC\C9Ql\C1X\CB\0B\16\00R\C7\F1.\BE\8E\1B4R9\AE\BAmr\22iR\C7Y)\09\0Fk\9FR\1D\D8\B9e\E9\A2\D3R$N(\BF\A3\8B\08S\ADa\F2\AE\8C\AE>S\0C}W\ED\17-sSO\\\AD\E8]\F8\A7Sc\B3\D8bu\F6\DDS\1Ep\C7]\09\BA\12T%L9\B5\8BhGT.\9F\87\A2\AEB}T}\C3\94%\ADI\B2T\\\F4\F9n\18\DC\E6Tsq\B8\8A\1E\93\1CU\E8F\B3\16\F3\DBQU\A2\18`\DC\EFR\86U\CA\1Ex\D3\AB\E7\BBU?\13+d\CBp\F1U\0E\D85=\FE\CC%V\12N\83\CC=@[V\CB\10\D2\9F&\08\91V\FE\94\C6G0J\C5V=:\B8Y\BC\9C\FAVf$\13\B8\F5\A10W\80\ED\17&s\CAdW\E0\E8\9D\EF\0F\FD\99W\8C\B1\C2\F5)>\D0W\EF]3s\B4M\04Xk5\00\90!a9X\C5B\00\F4i\B9oX\BB)\808\E2\D3\A3X*4\A0\C6\DA\C8\D8X5AHx\11\FB\0EY\C1(-\EB\EA\\CY\F1r\F8\A5%4xY\AD\8Fv\0F/A\AEY\CC\19\AAi\BD\E8\E2Y?\A0\14\C4\EC\A2\17ZO\C8\19\F5\A7\8BMZ2\1D0\F9Hw\82Z~$|7\1B\15\B7Z\9E-[\05b\DA\ECZ\82\FCXC}\08\22[\A3;/\94\9C\8AV[\8C\0A;\B9C-\8C[\97\E6\C4SJ\9C\C1[= \B6\E8\\\03\F6[M\A8\E3\224\84+\\0I\CE\95\A02a\\|\DBA\BBH\7F\95\\[R\12\EA\1A\DF\CA\\ysK\D2p\CB\00]WP\DE\06M\FE4]m\E4\95H\E0=j]\C4\AE]-\ACf\A0]u\1A\B58W\80\D4]\12a\E2\06m\A0\09^\AB|M$D\04@^\D6\DB`-U\05t^\CC\12\B9x\AA\06\A9^\7FW\E7\16UH\DF^\AF\96P.5\8D\13_[\BC\E4y\82pH_r\EB]\18\A3\8C~_'\B3:\EF\E5\17\B3_\F1_\09k\DF\DD\E7_\ED\B7\CBEW\D5\1D`\F4R\9F\8BV\A5R`\B1'\87.\ACN\87`\9D\F1(:W\22\BD`\02\97Y\84v5\F2`\C3\FCo%\D4\C2&a\F4\FB\CB.\89s\\ax}?\BD5\C8\91a\D6\\\8F,C:\C6a\0C4\B3\F7\D3\C8\FBa\87\00\D0z\84]1b\A9\00\84\99\E5\B4eb\D4\00\E5\FF\1E\22\9Bb\84 \EF_S\F5\D0b\A5\E8\EA7\A82\05c\CF\A2\E5ER\7F:c\C1\85\AFk\93\8Fpc2g\9BFx\B3\A4c\FE@BXV\E0\D9c\9Fh)\F75,\10d\C6\C2\F3tC7Ddx\B30R\14EydV\E0\BCfY\96\AFd6\0C6\E0\F7\BD\E3dC\8FC\D8u\AD\18e\14sTN\D3\D8Ne\EC\C7\F4\10\84G\83e\E8\F91\15e\19\B8eax~Z\BE\1F\EEe=\0B\8F\F8\D6\D3\22f\0C\CE\B2\B6\CC\88Wf\8F\81_\E4\FFj\8Df\F9\B0\BB\EE\DFb\C2f8\9Dj\EA\97\FB\F6f\86D\05\E5}\BA,g\D4J#\AF\8E\F4ag\89\1D\ECZ\B2q\96g\EB$\A7\F1\1E\0E\CCg\13w\08W\D3\88\01h\D7\94\CA,\08\EB5h\0D:\FD7\CAekhHD\FEb\9E\1F\A1hZ\D5\BD\FB\85g\D5h\B1J\ADzg\C1\0Ai\AFN\AC\AC\E0\B8@iZb\D7\D7\18\E7ti\F1:\CD\0D\DF \AAi\D6D\A0h\8BT\E0i\0CV\C8B\AEi\14j\8Fkz\D3\19\84Ijs\06YH \E5\7Fj\08\A47-4\EF\B3j\0A\8D\858\01\EB\E8jL\F0\A6\86\C1%\1Fk0V(\F4\98wSk\BBk21\7FU\88k\AA\06\7F\FD\DEj\BEk*do^\CB\02\F3k5=\0B6~\C3'l\82\0C\8E\C3]\B4]l\D1\C78\9A\BA\90\92l\C6\F9\C6@\E94\C7l7\B8\F8\90#\02\FDl#s\9B:V!2m\EBOB\C9\AB\A9fm\E6\E3\92\BB\16T\9Cmp\CE;5\8E\B4\D1m\0C\C2\8A\C2\B1!\06n\8Fr-3\1E\AA;n\99g\FC\DFRJqn\7F\81\FB\97\E7\9C\A5n\DFa\FA}!\04\DBn,}\BC\EE\94\E2\10ov\9Ck*:\1BEo\94\83\06\B5\08bzo=\12$qE}\B0o\CC\16m\CD\96\9C\E4o\7F\\\C8\80\BC\C3\19p\CF9}\D0U\1APpC\88\9CD\EB \84pT\AA\C3\15&)\B9p\E9\944\9Bos\EFp\11\DD\00\C1%\A8#qV\14A1/\92XqkY\91\FD\BA\B6\8Eq\E3\D7z\DE42\C3q\DC\8D\19\16\C2\FE\F7qS\F1\9F\9Br\FE-r\D4\F6C\A1\07\BFbr\89\F4\94\89\C9n\97r\AB1\FA\EB{J\CDr\0B_|s\8DN\02s\CDv[\D00\E26s\81Tr\04\BD\9Als\D0t\C7\22\B6\E0\A1s\04Ry\AB\E3X\D6s\86\A6W\96\1C\EF\0Bt\14\C8\F6\DDquAt\18ztU\CE\D2ut\9E\98\D1\EA\81G\ABtc\FF\C22\B1\0C\E1t<\BFs\7F\DDO\15u\0B\AFP\DF\D4\A3Jugm\92\0Be\A6\80u\C0\08wN\FE\CF\B4u\F1\CA\14\E2\FD\03\EAu\D6\FEL\AD~B v\8C>\A0X\1ESTv/N\C8\EE\E5g\89v\BBazj\DF\C1\BFv\15}\8C\A2+\D9\F3vZ\9C/\8Bv\CF(wp\83\FB-T\03_w&2\BD\9C\14b\93w\B0~\EC\C3\99:\C8w\\\9E\E74@I\FEw\F9\C2\10!\C8\ED2x\B8\F3T):\A9gx\A50\AA\B3\88\93\9Dxg^Jp5|\D2x\01\F6\\\CCB\1B\07y\823t\7F\13\E2<y1\A0\A8/L\0Dry=\C8\92;\9F\90\A6yMzw\0A\C74\DCyp\AC\8Af\FC\A0\11z\8CW-\80;\09Fzo\AD8`\8A\8B{zel#|67\B1z\7FG,\1B\04\85\E5z^Y\F7!E\E6\1A{\DB\97:5\EB\CFP{\D2=\89\02\E6\03\85{F\8D+\83\DFD\BA{L8\FB\B1\0Bk\F0{_\06z\9E\CE\85$|\F6\87\18FB\A7Y|\FAT\CFk\89\08\90|8*\C3\C6\AB\0A\C4|\C7\F4s\B8V\0D\F9|\F8\F1\90f\ACP/};\97\1A\C0k\92c}\0A=!\B0\06w\98}L\8C)\\\C8\94\CE}\B0\F7\999\FD\1C\03~\9Cu\00\88<\E47~\03\93\00\AAK\DDm~\E2[@JO\AA\A2~\DAr\D0\1C\E3T\D7~\90\8F\04\E4\1B*\0D\7F\BA\D9\82nQ:B\7F)\90#\CA\E5\C8v\7F3t\AC<\1F{\AC\7F\A0\C8\EB\85\F3\CC\E1\7F", align 8
@_RNvNtCs4eyShm1h0hl_10serde_json4read4HEX0 = local_unnamed_addr constant [512 x i8] c"\FF\FF\FF\FF\FF\FF\FF\FF\FF\FF\FF\FF\FF\FF\FF\FF\FF\FF\FF\FF\FF\FF\FF\FF\FF\FF\FF\FF\FF\FF\FF\FF\FF\FF\FF\FF\FF\FF\FF\FF\FF\FF\FF\FF\FF\FF\FF\FF\FF\FF\FF\FF\FF\FF\FF\FF\FF\FF\FF\FF\FF\FF\FF\FF\FF\FF\FF\FF\FF\FF\FF\FF\FF\FF\FF\FF\FF\FF\FF\FF\FF\FF\FF\FF\FF\FF\FF\FF\FF\FF\FF\FF\FF\FF\FF\FF\00\00\01\00\02\00\03\00\04\00\05\00\06\00\07\00\08\00\09\00\FF\FF\FF\FF\FF\FF\FF\FF\FF\FF\FF\FF\FF\FF\0A\00\0B\00\0C\00\0D\00\0E\00\0F\00\FF\FF\FF\FF\FF\FF\FF\FF\FF\FF\FF\FF\FF\FF\FF\FF\FF\FF\FF\FF\FF\FF\FF\FF\FF\FF\FF\FF\FF\FF\FF\FF\FF\FF\FF\FF\FF\FF\FF\FF\FF\FF\FF\FF\FF\FF\FF\FF\FF\FF\FF\FF\0A\00\0B\00\0C\00\0D\00\0E\00\0F\00\FF\FF\FF\FF\FF\FF\FF\FF\FF\FF\FF\FF\FF\FF\FF\FF\FF\FF\FF\FF\FF\FF\FF\FF\FF\FF\FF\FF\FF\FF\FF\FF\FF\FF\FF\FF\FF\FF\FF\FF\FF\FF\FF\FF\FF\FF\FF\FF\FF\FF\FF\FF\FF\FF\FF\FF\FF\FF\FF\FF\FF\FF\FF\FF\FF\FF\FF\FF\FF\FF\FF\FF\FF\FF\FF\FF\FF\FF\FF\FF\FF\FF\FF\FF\FF\FF\FF\FF\FF\FF\FF\FF\FF\FF\FF\FF\FF\FF\FF\FF\FF\FF\FF\FF\FF\FF\FF\FF\FF\FF\FF\FF\FF\FF\FF\FF\FF\FF\FF\FF\FF\FF\FF\FF\FF\FF\FF\FF\FF\FF\FF\FF\FF\FF\FF\FF\FF\FF\FF\FF\FF\FF\FF\FF\FF\FF\FF\FF\FF\FF\FF\FF\FF\FF\FF\FF\FF\FF\FF\FF\FF\FF\FF\FF\FF\FF\FF\FF\FF\FF\FF\FF\FF\FF\FF\FF\FF\FF\FF\FF\FF\FF\FF\FF\FF\FF\FF\FF\FF\FF\FF\FF\FF\FF\FF\FF\FF\FF\FF\FF\FF\FF\FF\FF\FF\FF\FF\FF\FF\FF\FF\FF\FF\FF\FF\FF\FF\FF\FF\FF\FF\FF\FF\FF\FF\FF\FF\FF\FF\FF\FF\FF\FF\FF\FF\FF\FF\FF\FF\FF\FF\FF\FF\FF\FF\FF\FF\FF\FF\FF\FF\FF\FF\FF\FF\FF\FF\FF\FF\FF\FF\FF\FF\FF\FF\FF\FF\FF\FF\FF\FF\FF\FF\FF\FF\FF\FF\FF\FF\FF\FF\FF\FF\FF\FF\FF\FF\FF\FF\FF\FF\FF\FF\FF\FF\FF\FF\FF\FF\FF\FF\FF\FF\FF\FF\FF", align 2
@_RNvNtCs4eyShm1h0hl_10serde_json4read4HEX1 = local_unnamed_addr constant [512 x i8] c"\FF\FF\FF\FF\FF\FF\FF\FF\FF\FF\FF\FF\FF\FF\FF\FF\FF\FF\FF\FF\FF\FF\FF\FF\FF\FF\FF\FF\FF\FF\FF\FF\FF\FF\FF\FF\FF\FF\FF\FF\FF\FF\FF\FF\FF\FF\FF\FF\FF\FF\FF\FF\FF\FF\FF\FF\FF\FF\FF\FF\FF\FF\FF\FF\FF\FF\FF\FF\FF\FF\FF\FF\FF\FF\FF\FF\FF\FF\FF\FF\FF\FF\FF\FF\FF\FF\FF\FF\FF\FF\FF\FF\FF\FF\FF\FF\00\00\10\00 \000\00@\00P\00`\00p\00\80\00\90\00\FF\FF\FF\FF\FF\FF\FF\FF\FF\FF\FF\FF\FF\FF\A0\00\B0\00\C0\00\D0\00\E0\00\F0\00\FF\FF\FF\FF\FF\FF\FF\FF\FF\FF\FF\FF\FF\FF\FF\FF\FF\FF\FF\FF\FF\FF\FF\FF\FF\FF\FF\FF\FF\FF\FF\FF\FF\FF\FF\FF\FF\FF\FF\FF\FF\FF\FF\FF\FF\FF\FF\FF\FF\FF\FF\FF\A0\00\B0\00\C0\00\D0\00\E0\00\F0\00\FF\FF\FF\FF\FF\FF\FF\FF\FF\FF\FF\FF\FF\FF\FF\FF\FF\FF\FF\FF\FF\FF\FF\FF\FF\FF\FF\FF\FF\FF\FF\FF\FF\FF\FF\FF\FF\FF\FF\FF\FF\FF\FF\FF\FF\FF\FF\FF\FF\FF\FF\FF\FF\FF\FF\FF\FF\FF\FF\FF\FF\FF\FF\FF\FF\FF\FF\FF\FF\FF\FF\FF\FF\FF\FF\FF\FF\FF\FF\FF\FF\FF\FF\FF\FF\FF\FF\FF\FF\FF\FF\FF\FF\FF\FF\FF\FF\FF\FF\FF\FF\FF\FF\FF\FF\FF\FF\FF\FF\FF\FF\FF\FF\FF\FF\FF\FF\FF\FF\FF\FF\FF\FF\FF\FF\FF\FF\FF\FF\FF\FF\FF\FF\FF\FF\FF\FF\FF\FF\FF\FF\FF\FF\FF\FF\FF\FF\FF\FF\FF\FF\FF\FF\FF\FF\FF\FF\FF\FF\FF\FF\FF\FF\FF\FF\FF\FF\FF\FF\FF\FF\FF\FF\FF\FF\FF\FF\FF\FF\FF\FF\FF\FF\FF\FF\FF\FF\FF\FF\FF\FF\FF\FF\FF\FF\FF\FF\FF\FF\FF\FF\FF\FF\FF\FF\FF\FF\FF\FF\FF\FF\FF\FF\FF\FF\FF\FF\FF\FF\FF\FF\FF\FF\FF\FF\FF\FF\FF\FF\FF\FF\FF\FF\FF\FF\FF\FF\FF\FF\FF\FF\FF\FF\FF\FF\FF\FF\FF\FF\FF\FF\FF\FF\FF\FF\FF\FF\FF\FF\FF\FF\FF\FF\FF\FF\FF\FF\FF\FF\FF\FF\FF\FF\FF\FF\FF\FF\FF\FF\FF\FF\FF\FF\FF\FF\FF\FF\FF\FF\FF\FF\FF\FF\FF\FF\FF\FF\FF\FF\FF\FF\FF\FF\FF\FF\FF", align 2
@alloc_2609fc2bf0b573b3ea7a47b317e0a566 = private unnamed_addr constant [9 x i8] c" at line ", align 1
@alloc_f21626da72fec515b80b4b3637321291 = private unnamed_addr constant [104 x i8] c"/Users/hongyaotang/.cargo/registry/src/index.crates.io-1949cf8c6b5b557f/serde_json-1.0.149/src/error.rs\00", align 1
@alloc_89dcc981dbc38b4472914506b91792c4 = private unnamed_addr constant <{ ptr, [16 x i8] }> <{ ptr @alloc_f21626da72fec515b80b4b3637321291, [16 x i8] c"g\00\00\00\00\00\00\00\F7\01\00\00!\00\00\00" }>, align 8
@alloc_2366591a29a791179e0dad69bf886308 = private unnamed_addr constant <{ ptr, [16 x i8] }> <{ ptr @alloc_f21626da72fec515b80b4b3637321291, [16 x i8] c"g\00\00\00\00\00\00\00\FB\01\00\00\0C\00\00\00" }>, align 8
@alloc_81aab1124959962169d5c52543e64b64 = private unnamed_addr constant [8 x i8] c" column ", align 1
@alloc_e41e5d669acf9fb8443c4f5517846c6f = private unnamed_addr constant <{ ptr, [16 x i8] }> <{ ptr @alloc_f21626da72fec515b80b4b3637321291, [16 x i8] c"g\00\00\00\00\00\00\00\02\02\00\00!\00\00\00" }>, align 8
@alloc_d8e51d13e642dec970114573b207fd6a = private unnamed_addr constant <{ ptr, [16 x i8] }> <{ ptr @alloc_f21626da72fec515b80b4b3637321291, [16 x i8] c"g\00\00\00\00\00\00\00\0B\02\00\00*\00\00\00" }>, align 8
@alloc_5b4506da5d77817c36a53c379baa20b4 = private unnamed_addr constant <{ ptr, [16 x i8] }> <{ ptr @alloc_f21626da72fec515b80b4b3637321291, [16 x i8] c"g\00\00\00\00\00\00\00\0F\02\00\00,\00\00\00" }>, align 8
@alloc_79f26dc286bd8a96fcc19a4d3b0450c3 = private unnamed_addr constant <{ ptr, [16 x i8] }> <{ ptr @alloc_f21626da72fec515b80b4b3637321291, [16 x i8] c"g\00\00\00\00\00\00\00\14\02\00\00\09\00\00\00" }>, align 8
@_RNvNvXs3_NtNtCs4eyShm1h0hl_10serde_json5value5indexNtB9_5ValueINtNtNtCsjMrxcFdYDNN_4core3ops5index5IndexpE5index4NULL = local_unnamed_addr constant <{ [1 x i8], [31 x i8] }> <{ [1 x i8] zeroinitializer, [31 x i8] undef }>, align 8
@alloc_be8c7a732c0d2ff7841fe3d549d9605b = private unnamed_addr constant [9 x i8] c"fmt error", align 1
@alloc_574c398ffa55a88d5b3cd87bcd19f74a = private unnamed_addr constant [4 x i8] c"Null", align 1
@alloc_b16f7ef596ddd6cd656a0798c2a672ff = private unnamed_addr constant [10 x i8] c"\05Bool(\C0\01)\00", align 1
@alloc_da95c585deb382e34a391ab0c637bfb0 = private unnamed_addr constant [12 x i8] c"\07String(\C0\01)\00", align 1
@alloc_380cb734dd7c04fadca6550e60042f09 = private unnamed_addr constant [6 x i8] c"Array ", align 1
@alloc_151320b4ea35265e56b104acd174d96a = private unnamed_addr constant [7 x i8] c"Object ", align 1
@alloc_e59fb909ba262d3a17aa8db1c72b9383 = private unnamed_addr constant [50 x i8] c"\14cannot access index \C0\19 of JSON array of length \C0\00", align 1
@alloc_1679371caea382c2ecf69b4fc005f159 = private unnamed_addr constant [110 x i8] c"/Users/hongyaotang/.cargo/registry/src/index.crates.io-1949cf8c6b5b557f/serde_json-1.0.149/src/value/index.rs\00", align 1
@alloc_0441fde44ffbc91d1d7e0625547b5a43 = private unnamed_addr constant <{ ptr, [16 x i8] }> <{ ptr @alloc_1679371caea382c2ecf69b4fc005f159, [16 x i8] c"m\00\00\00\00\00\00\00H\00\00\00\15\00\00\00" }>, align 8
@alloc_2fd7fbba996605c3b4405bd81b6d7eec = private unnamed_addr constant [34 x i8] c"\14cannot access index \C0\09 of JSON \C0\00", align 1
@alloc_abdd9fb39442086fd82766502edee46c = private unnamed_addr constant <{ ptr, [16 x i8] }> <{ ptr @alloc_1679371caea382c2ecf69b4fc005f159, [16 x i8] c"m\00\00\00\00\00\00\00N\00\00\00\12\00\00\00" }>, align 8
@alloc_3b4995c951aaa4167574d65025347839 = private unnamed_addr constant [20 x i8] c"any valid JSON value", align 1
@alloc_214d5d2275e2fa455b2cce8ddb2a0445 = private unnamed_addr constant [13 x i8] c"a JSON number", align 1
@alloc_af849881de7798fff01b7332c83d0c4e = private unnamed_addr constant [5 x i8] c"a map", align 1
@alloc_e54a4ce087b5c246d4da03bc1c0b5063 = private unnamed_addr constant [24 x i8] c"EOF while parsing a list", align 1
@alloc_6b228e25f8261c89b7615568f3c1e426 = private unnamed_addr constant [27 x i8] c"EOF while parsing an object", align 1
@alloc_b0380b21d9f6c8f5bfa1e57699e0f6f3 = private unnamed_addr constant [26 x i8] c"EOF while parsing a string", align 1
@alloc_615621f349e377ef2ca46ce8554ff7af = private unnamed_addr constant [25 x i8] c"EOF while parsing a value", align 1
@alloc_6e9a7f4dbc670c62782f39ddcfb2abc0 = private unnamed_addr constant [12 x i8] c"expected `:`", align 1
@alloc_9a97feae429ec74bb359e856fa24d318 = private unnamed_addr constant [19 x i8] c"expected `,` or `]`", align 1
@alloc_b6ec4c3fd6912a4f7f38815871174425 = private unnamed_addr constant [19 x i8] c"expected `,` or `}`", align 1
@alloc_04e571a799382b5eaa11c9e76e180b59 = private unnamed_addr constant [14 x i8] c"expected ident", align 1
@alloc_7d1c047d8f7ac2ee523d23b770a1ef65 = private unnamed_addr constant [14 x i8] c"expected value", align 1
@alloc_89ff7d575c72fa569421a5548dbab8d7 = private unnamed_addr constant [12 x i8] c"expected `\22`", align 1
@alloc_1c83351fb36e56d34717e682af8b3a4f = private unnamed_addr constant [14 x i8] c"invalid escape", align 1
@alloc_beb755f51c85d21ac729960762a77f01 = private unnamed_addr constant [14 x i8] c"invalid number", align 1
@alloc_80f079276862b26e1c9f387721ca88b4 = private unnamed_addr constant [19 x i8] c"number out of range", align 1
@alloc_2bd3e8fc642a196f8f27c5ca1c88a84c = private unnamed_addr constant [26 x i8] c"invalid unicode code point", align 1
@alloc_84a477a000292c85d2ac52992c0350a5 = private unnamed_addr constant [62 x i8] c"control character (\\u0000-\\u001F) found while parsing a string", align 1
@alloc_959c6e1b19db1636a73ff33c67143dba = private unnamed_addr constant [20 x i8] c"key must be a string", align 1
@alloc_642f00cc88c57e68bd2791aa4cd0a791 = private unnamed_addr constant [52 x i8] c"invalid value: expected key to be a number in quotes", align 1
@alloc_414313dcfd4bb516e602b2f3291aa927 = private unnamed_addr constant [44 x i8] c"float key must be finite (got NaN or +/-inf)", align 1
@alloc_b92de83e5a69e46a15dc6ed306a0c28a = private unnamed_addr constant [36 x i8] c"lone leading surrogate in hex escape", align 1
@alloc_5cd28cea0f976dd9cfd87fd551b8a04a = private unnamed_addr constant [14 x i8] c"trailing comma", align 1
@alloc_8c7b6a741cb007724b721c91324325f2 = private unnamed_addr constant [19 x i8] c"trailing characters", align 1
@alloc_c64762ba53b467a0c13e547e674819a4 = private unnamed_addr constant [28 x i8] c"unexpected end of hex escape", align 1
@alloc_9b7e2b3ed55ad3874cb824ad14a4bdef = private unnamed_addr constant [24 x i8] c"recursion limit exceeded", align 1
@alloc_719a8be112812cd9ff3dab2745e0fd2d = private unnamed_addr constant [7 x i8] c"boolean", align 1
@alloc_678475faa858074d0c5940e3ad1c78be = private unnamed_addr constant [6 x i8] c"number", align 1
@alloc_cf3ed130eaac04f7756610ea20f33fce = private unnamed_addr constant [6 x i8] c"string", align 1
@alloc_ba91c45d1b9c2f43549e0d99b960afbe = private unnamed_addr constant [5 x i8] c"array", align 1
@alloc_eaeb57c0fede91f846588e4dc2e07f2f = private unnamed_addr constant [6 x i8] c"object", align 1
@alloc_7ef6fe6e5749e409bd35c794f395407d = private unnamed_addr constant [200 x i8] c"00010203040506070809101112131415161718192021222324252627282930313233343536373839404142434445464748495051525354555657585960616263646566676869707172737475767778798081828384858687888990919293949596979899", align 1
@alloc_e8abb4c5ba36cca777fd16bac071df75 = private unnamed_addr constant [12 x i8] c"\07Number(\C0\01)\00", align 1
@alloc_62e9ac0d4bb8d33c7b842b60f0b9230a = private unnamed_addr constant [23 x i8] c"\C0\09 at line \C0\08 column \C0\00", align 1
@alloc_4c5af190ad1b45bf505e19f55acef5d3 = private unnamed_addr constant <{ ptr, [16 x i8] }> <{ ptr @alloc_104115261563f6c546bdf00cc6c7b510, [16 x i8] c"f\00\00\00\00\00\00\00\\\02\00\00\13\00\00\00" }>, align 8
@alloc_d2930df2f5f0a7d34574db4093aae197 = private unnamed_addr constant <{ ptr, [16 x i8] }> <{ ptr @alloc_104115261563f6c546bdf00cc6c7b510, [16 x i8] c"f\00\00\00\00\00\00\00n\02\00\00\19\00\00\00" }>, align 8
@alloc_faff314220c5e7b4e97d8788e4d05134 = private unnamed_addr constant [33 x i8] c"\06Error(\C0\08, line: \C0\0A, column: \C0\01)\00", align 1
@alloc_74ba04968dbb54708bdec56490e550ab = private unnamed_addr constant [30 x i8] c"\0Einvalid type: \C0\0B, expected \C0\00", align 1
@alloc_8ba0b158282f9a35404692a944b4de66 = private unnamed_addr constant [31 x i8] c"\0Finvalid value: \C0\0B, expected \C0\00", align 1
@alloc_a49f450a6cb7b8bcafc86913fc2cdd7c = private unnamed_addr constant [21 x i8] c"\10floating point `\C0\01`\00", align 1
@vtable.8 = private unnamed_addr constant <{ ptr, [16 x i8], ptr, ptr, ptr }> <{ ptr @_RINvNtCsjMrxcFdYDNN_4core3ptr13drop_in_placeNtNtCsdJPVW0sQgAG_5alloc6string6StringECs4eyShm1h0hl_10serde_json, [16 x i8] c"\18\00\00\00\00\00\00\00\08\00\00\00\00\00\00\00", ptr @_RNvXsZ_NtCsdJPVW0sQgAG_5alloc6stringNtB5_6StringNtNtCsjMrxcFdYDNN_4core3fmt5Write9write_str, ptr @_RNvXsZ_NtCsdJPVW0sQgAG_5alloc6stringNtB5_6StringNtNtCsjMrxcFdYDNN_4core3fmt5Write10write_char, ptr @_RNvYNtNtCsdJPVW0sQgAG_5alloc6string6StringNtNtCsjMrxcFdYDNN_4core3fmt5Write9write_fmtCs4eyShm1h0hl_10serde_json }>, align 8
@alloc_cc656815297f75969399c3f4b1ad3de4 = private unnamed_addr constant [55 x i8] c"a Display implementation returned an error unexpectedly", align 1
@alloc_82687d2573a6ed8a4d1fcf733f159466 = private unnamed_addr constant [116 x i8] c"/Users/hongyaotang/.rustup/toolchains/nightly-aarch64-apple-darwin/lib/rustlib/src/rust/library/alloc/src/string.rs\00", align 1
@alloc_f3c70bf9d2724ff8f638341943ddf3c8 = private unnamed_addr constant <{ ptr, [16 x i8] }> <{ ptr @alloc_82687d2573a6ed8a4d1fcf733f159466, [16 x i8] c"s\00\00\00\00\00\00\00f\0B\00\00\0E\00\00\00" }>, align 8
@alloc_99ac8a81a24cac863217ce4a5cbfabea = private unnamed_addr constant [5 x i8] c"Error", align 1
@alloc_6c433d3c07b7c6453f8a17b49b46c496 = private unnamed_addr constant [3 x i8] c"inf", align 1
@alloc_159a91930e1f3f513911a864c7d9fa72 = private unnamed_addr constant [4 x i8] c"-inf", align 1
@alloc_6dc902770b3728786f1603e430305586 = private unnamed_addr constant [3 x i8] c"NaN", align 1
@alloc_0caaddf96db8a78c10b6a57b6561fe28 = private unnamed_addr constant [32 x i8] c"\12cannot access key \C0\09 in JSON \C0\00", align 1
@alloc_4d6eb17424337180940ccd2ebc827f9a = private unnamed_addr constant <{ ptr, [16 x i8] }> <{ ptr @alloc_1679371caea382c2ecf69b4fc005f159, [16 x i8] c"m\00\00\00\00\00\00\00f\00\00\00\12\00\00\00" }>, align 8
@alloc_e52d3af24e8037dfb4f35693fba7d9f6 = private unnamed_addr constant <{ ptr, [16 x i8] }> <{ ptr @alloc_7fe94be2e120ffbd80c490b1b3c481ee, [16 x i8] c"w\00\00\00\00\00\00\00\CD\01\00\007\00\00\00" }>, align 8
@alloc_fe17e3925fbff98d645b236c5892ea17 = private unnamed_addr constant <{ ptr, [16 x i8], ptr }> <{ ptr @_RINvNtCsjMrxcFdYDNN_4core3ptr13drop_in_placeNtNtCs4eyShm1h0hl_10serde_json5error5ErrorEBK_, [16 x i8] c"\08\00\00\00\00\00\00\00\08\00\00\00\00\00\00\00", ptr @_RNvXs3_NtCs4eyShm1h0hl_10serde_json5errorNtB5_5ErrorNtNtCsjMrxcFdYDNN_4core3fmt7Display3fmt }>, align 8
@vtable.9 = private unnamed_addr constant <{ ptr, [16 x i8], ptr, ptr, ptr, ptr, ptr, ptr, ptr, ptr }> <{ ptr @_RINvNtCsjMrxcFdYDNN_4core3ptr13drop_in_placeNtNtCs4eyShm1h0hl_10serde_json5error5ErrorEBK_, [16 x i8] c"\08\00\00\00\00\00\00\00\08\00\00\00\00\00\00\00", ptr @_RNvXs5_NtCs4eyShm1h0hl_10serde_json5errorNtB5_5ErrorNtNtCsjMrxcFdYDNN_4core3fmt5Debug3fmt, ptr @_RNvXs3_NtCs4eyShm1h0hl_10serde_json5errorNtB5_5ErrorNtNtCsjMrxcFdYDNN_4core3fmt7Display3fmt, ptr @alloc_fe17e3925fbff98d645b236c5892ea17, ptr @_RNvXs2_NtCs4eyShm1h0hl_10serde_json5errorNtB5_5ErrorNtNtCsjMrxcFdYDNN_4core5error5Error6source, ptr @_RNvYNtNtCs4eyShm1h0hl_10serde_json5error5ErrorNtNtCsjMrxcFdYDNN_4core5error5Error7type_idB6_, ptr @_RNvYNtNtCs4eyShm1h0hl_10serde_json5error5ErrorNtNtCsjMrxcFdYDNN_4core5error5Error11descriptionB6_, ptr @_RNvYNtNtCs4eyShm1h0hl_10serde_json5error5ErrorNtNtCsjMrxcFdYDNN_4core5error5Error5causeB6_, ptr @_RNvYNtNtCs4eyShm1h0hl_10serde_json5error5ErrorNtNtCsjMrxcFdYDNN_4core5error5Error7provideB6_ }>, align 8
@alloc_cb8e35659a265e8b213cdfd9d9050df6 = private unnamed_addr constant <{ ptr, [16 x i8] }> <{ ptr @alloc_69009fdc319497586282719e739ab5f8, [16 x i8] c"\87\00\00\00\00\00\00\00\A1\00\00\00$\00\00\00" }>, align 8
@alloc_b80bb5631a4c8d185808c87c591463c4 = private unnamed_addr constant [12 x i8] c"a string key", align 1
@alloc_559c4f386b668c946885822cef1a587d = private unnamed_addr constant <{ ptr, [16 x i8] }> <{ ptr @alloc_7fe94be2e120ffbd80c490b1b3c481ee, [16 x i8] c"w\00\00\00\00\00\00\00h\04\00\00$\00\00\00" }>, align 8
@alloc_02fb48b032a4970c95c18cc411bf4c1b = private unnamed_addr constant <{ ptr, [16 x i8] }> <{ ptr @alloc_7fe94be2e120ffbd80c490b1b3c481ee, [16 x i8] c"w\00\00\00\00\00\00\00\BC\04\00\00$\00\00\00" }>, align 8
@alloc_04d7ce44d7c86a9a02b346ab945bf155 = private unnamed_addr constant [40 x i8] c"description() is deprecated; use Display", align 1
@anon.f452ea666da905fe58caf38849ead139.0 = private unnamed_addr constant <{ ptr, ptr }> <{ ptr inttoptr (i64 -5675579280813928935 to ptr), ptr inttoptr (i64 6242094834925728944 to ptr) }>, align 8
@switch.table._RNvXs4_NtCs4eyShm1h0hl_10serde_json2deNtNtB7_6number6NumberNtNtNtCsjMrxcFdYDNN_4core3str6traits7FromStr8from_str = private unnamed_addr constant [3 x i64] [i64 2, i64 0, i64 1], align 8

@_RNvXs5_NtNtCs4eyShm1h0hl_10serde_json5value3serNtB5_16MapKeySerializerNtNtCsasqbmkB9jT1_10serde_core3ser10Serializer13serialize_seq = unnamed_addr alias ptr (i64, i64), ptr @_RNvXs5_NtNtCs4eyShm1h0hl_10serde_json5value3serNtB5_16MapKeySerializerNtNtCsasqbmkB9jT1_10serde_core3ser10Serializer13serialize_map
@_RNvNtNtCs4eyShm1h0hl_10serde_json5value3ser20key_must_be_a_string = unnamed_addr alias ptr (), ptr @_RNvNtCs4eyShm1h0hl_10serde_json3ser20key_must_be_a_string
@_RNvXs5_NtNtCs4eyShm1h0hl_10serde_json5value3serNtB5_16MapKeySerializerNtNtCsasqbmkB9jT1_10serde_core3ser10Serializer14serialize_unit = unnamed_addr alias void (ptr), ptr @_RNvXs5_NtNtCs4eyShm1h0hl_10serde_json5value3serNtB5_16MapKeySerializerNtNtCsasqbmkB9jT1_10serde_core3ser10Serializer14serialize_none
@_RNvXs5_NtNtCs4eyShm1h0hl_10serde_json5value3serNtB5_16MapKeySerializerNtNtCsasqbmkB9jT1_10serde_core3ser10Serializer22serialize_tuple_struct = unnamed_addr alias ptr (ptr, i64, i64), ptr @_RNvXs5_NtNtCs4eyShm1h0hl_10serde_json5value3serNtB5_16MapKeySerializerNtNtCsasqbmkB9jT1_10serde_core3ser10Serializer16serialize_struct
@_RNvXs5_NtNtCs4eyShm1h0hl_10serde_json5value3serNtB5_16MapKeySerializerNtNtCsasqbmkB9jT1_10serde_core3ser10Serializer24serialize_struct_variant = unnamed_addr alias ptr (ptr, i64, i32, ptr, i64, i64), ptr @_RNvXs5_NtNtCs4eyShm1h0hl_10serde_json5value3serNtB5_16MapKeySerializerNtNtCsasqbmkB9jT1_10serde_core3ser10Serializer23serialize_tuple_variant

; <serde_json::error::Error>::fix_position::<<serde_json::de::Deserializer<serde_json::read::StrRead>>::fix_position::{closure#0}>
; Function Attrs: cold uwtable
define internal fastcc noundef nonnull align 8 ptr @_RINvMs0_NtCs4eyShm1h0hl_10serde_json5errorNtB6_5Error12fix_positionNCNvMs3_NtB8_2deINtB1b_12DeserializerNtNtB8_4read7StrReadE12fix_position0EB8_(ptr noalias noundef nonnull align 8 %0, ptr noalias noundef nonnull readonly align 8 captures(none) dereferenceable(56) %f) unnamed_addr #0 personality ptr @rust_eh_personality {
start:
  %1 = getelementptr inbounds nuw i8, ptr %0, i64 24
  %_3 = load i64, ptr %1, align 8, !noundef !2
  %2 = icmp eq i64 %_3, 0
  br i1 %2, label %bb1, label %bb5

bb1:                                              ; preds = %start
; invoke <serde_json::de::Deserializer<serde_json::read::StrRead>>::error
  %_0.i3 = invoke fastcc noalias noundef nonnull align 8 ptr @_RNvMs3_NtCs4eyShm1h0hl_10serde_json2deINtB5_12DeserializerNtNtB7_4read7StrReadE5errorB7_(ptr noalias noundef nonnull readonly align 8 captures(address, read_provenance) dereferenceable(56) %f, ptr noalias noundef nonnull readonly align 8 captures(address) dereferenceable(24) %0)
          to label %bb2 unwind label %bb4

bb2:                                              ; preds = %bb1
; call __rustc::__rust_dealloc
  tail call void @_RNvCsKhRCbHf33p_7___rustc14___rust_dealloc(ptr noundef nonnull %0, i64 noundef 40, i64 noundef 8) #34
  br label %bb5

bb5:                                              ; preds = %start, %bb2
  %_0.sroa.0.0 = phi ptr [ %_0.i3, %bb2 ], [ %0, %start ]
  ret ptr %_0.sroa.0.0

bb4:                                              ; preds = %bb1
  %3 = landingpad { ptr, i32 }
          cleanup
; call __rustc::__rust_dealloc
  tail call void @_RNvCsKhRCbHf33p_7___rustc14___rust_dealloc(ptr noundef nonnull %0, i64 noundef 40, i64 noundef 8) #34
  resume { ptr, i32 } %3
}

; <str>::replace::<&str>
; Function Attrs: inlinehint uwtable
define internal fastcc void @_RINvMs3_NtCsdJPVW0sQgAG_5alloc3stre7replaceReECs4eyShm1h0hl_10serde_json(ptr dead_on_unwind noalias noundef nonnull writable writeonly align 8 captures(none) dereferenceable(24) %_0, ptr noalias noundef nonnull readonly align 1 captures(address, read_provenance) %self.0, i64 noundef %self.1, ptr noalias noundef nonnull readonly align 1 captures(address, read_provenance) %0, ptr noalias noundef nonnull readonly align 1 captures(none) %to.0) unnamed_addr #1 personality ptr @rust_eh_personality {
_RNvMs4_NtCsdJPVW0sQgAG_5alloc7raw_vecNtB5_11RawVecInner16with_capacity_inCs4eyShm1h0hl_10serde_json.exit:
  %_98 = alloca [104 x i8], align 8
  %result = alloca [24 x i8], align 8
  call void @llvm.lifetime.start.p0(i64 24, ptr nonnull %result)
  store i64 0, ptr %result, align 8
  %_94.sroa.4.0.result.sroa_idx = getelementptr inbounds nuw i8, ptr %result, i64 8
  store ptr inttoptr (i64 1 to ptr), ptr %_94.sroa.4.0.result.sroa_idx, align 8
  %_94.sroa.5.0.result.sroa_idx = getelementptr inbounds nuw i8, ptr %result, i64 16
  store i64 0, ptr %_94.sroa.5.0.result.sroa_idx, align 8
  call void @llvm.lifetime.start.p0(i64 104, ptr nonnull %_98)
; invoke <core::str::pattern::StrSearcher>::new
  invoke void @_RNvMsu_NtNtCsjMrxcFdYDNN_4core3str7patternNtB5_11StrSearcher3new(ptr noalias noundef nonnull sret([104 x i8]) align 8 captures(none) dereferenceable(104) %_98, ptr noalias noundef nonnull readonly align 1 captures(address, read_provenance) %self.0, i64 noundef %self.1, ptr noalias noundef nonnull readonly align 1 captures(address, read_provenance) %0, i64 noundef 2)
          to label %bb40 unwind label %cleanup9

bb25:                                             ; preds = %cleanup10.loopexit.split.loopexit, %cleanup10.loopexit.split.loopexit.split-lp, %cleanup10.loopexit.split-lp, %cleanup10.loopexit.split.us, %cleanup9
  %.pn = phi { ptr, i32 } [ %2, %cleanup9 ], [ %lpad.loopexit.split-lp, %cleanup10.loopexit.split-lp ], [ %lpad.loopexit.us, %cleanup10.loopexit.split.us ], [ %lpad.loopexit128, %cleanup10.loopexit.split.loopexit ], [ %lpad.loopexit.split-lp129, %cleanup10.loopexit.split.loopexit.split-lp ]
  tail call void @llvm.experimental.noalias.scope.decl(metadata !3)
  %_1.val.i = load i64, ptr %result, align 8, !alias.scope !3
  %1 = icmp eq i64 %_1.val.i, 0
  br i1 %1, label %bb26, label %bb2.i.i.i4.i.i

bb2.i.i.i4.i.i:                                   ; preds = %bb25
  %_1.val1.i = load ptr, ptr %_94.sroa.4.0.result.sroa_idx, align 8, !alias.scope !3, !nonnull !2, !noundef !2
; call __rustc::__rust_dealloc
  tail call void @_RNvCsKhRCbHf33p_7___rustc14___rust_dealloc(ptr noundef nonnull %_1.val1.i, i64 noundef %_1.val.i, i64 noundef range(i64 1, -9223372036854775807) 1) #34, !noalias !3
  br label %bb26

cleanup9:                                         ; preds = %bb1.i.i, %_RNvMs4_NtCsdJPVW0sQgAG_5alloc7raw_vecNtB5_11RawVecInner16with_capacity_inCs4eyShm1h0hl_10serde_json.exit
  %2 = landingpad { ptr, i32 }
          cleanup
  br label %bb25

bb40:                                             ; preds = %_RNvMs4_NtCsdJPVW0sQgAG_5alloc7raw_vecNtB5_11RawVecInner16with_capacity_inCs4eyShm1h0hl_10serde_json.exit
  %_97.sroa.0.0.copyload = load i64, ptr %_98, align 8
  %_97.sroa.4.0._98.sroa_idx = getelementptr inbounds nuw i8, ptr %_98, i64 8
  %_97.sroa.4.0.copyload = load i64, ptr %_97.sroa.4.0._98.sroa_idx, align 8
  %_97.sroa.6.0._98.sroa_idx = getelementptr inbounds nuw i8, ptr %_98, i64 24
  %_97.sroa.6.0.copyload = load i64, ptr %_97.sroa.6.0._98.sroa_idx, align 8
  %_97.sroa.7.0._98.sroa_idx = getelementptr inbounds nuw i8, ptr %_98, i64 32
  %_97.sroa.7.0.copyload = load i64, ptr %_97.sroa.7.0._98.sroa_idx, align 8
  %_97.sroa.8.0._98.sroa_idx = getelementptr inbounds nuw i8, ptr %_98, i64 40
  %_97.sroa.8.0.copyload = load i64, ptr %_97.sroa.8.0._98.sroa_idx, align 8
  %_97.sroa.10.0._98.sroa_idx = getelementptr inbounds nuw i8, ptr %_98, i64 56
  %_97.sroa.10.0.copyload = load i64, ptr %_97.sroa.10.0._98.sroa_idx, align 8
  %_97.sroa.12.0._98.sroa_idx = getelementptr inbounds nuw i8, ptr %_98, i64 72
  %_97.sroa.12.0.copyload = load ptr, ptr %_97.sroa.12.0._98.sroa_idx, align 8
  %_97.sroa.13.0._98.sroa_idx = getelementptr inbounds nuw i8, ptr %_98, i64 80
  %_97.sroa.13.0.copyload = load i64, ptr %_97.sroa.13.0._98.sroa_idx, align 8
  %_97.sroa.14.0._98.sroa_idx = getelementptr inbounds nuw i8, ptr %_98, i64 88
  %_97.sroa.14.0.copyload = load ptr, ptr %_97.sroa.14.0._98.sroa_idx, align 8
  %_97.sroa.15.0._98.sroa_idx = getelementptr inbounds nuw i8, ptr %_98, i64 96
  %_97.sroa.15.0.copyload = load i64, ptr %_97.sroa.15.0._98.sroa_idx, align 8
  call void @llvm.lifetime.end.p0(i64 104, ptr nonnull %_98)
  %3 = trunc nuw i64 %_97.sroa.0.0.copyload to i1
  %4 = icmp ne ptr %_97.sroa.12.0.copyload, null
  %_48.i.i = getelementptr inbounds nuw i8, ptr %_97.sroa.12.0.copyload, i64 %_97.sroa.13.0.copyload
  %5 = icmp ne ptr %_97.sroa.14.0.copyload, null
  %needle_last.i70 = add nsw i64 %_97.sroa.15.0.copyload, -1
  br i1 %3, label %bb40.split.us, label %bb40.split

bb40.split.us:                                    ; preds = %bb40
  tail call void @llvm.assume(i1 %4)
  tail call void @llvm.assume(i1 %5)
  %6 = sub i64 %_97.sroa.15.0.copyload, %_97.sroa.6.0.copyload
  %umax40.i.us = tail call i64 @llvm.umax.i64(i64 %_97.sroa.4.0.copyload, i64 range(i64 0, -9223372036854775808) %_97.sroa.15.0.copyload)
  %7 = add i64 %_97.sroa.4.0.copyload, -1
  %_43.i.us.first_iter = icmp ult i64 %7, %_97.sroa.15.0.copyload
  br label %bb20.us

bb20.us:                                          ; preds = %bb50.us, %bb40.split.us
  %_10.i57.us290 = phi ptr [ inttoptr (i64 1 to ptr), %bb40.split.us ], [ %_10.i57.us, %bb50.us ]
  %len.i.i39.us = phi i64 [ 0, %bb40.split.us ], [ %31, %bb50.us ]
  %iter.sroa.18.0.us = phi i64 [ %_97.sroa.8.0.copyload, %bb40.split.us ], [ %iter.sroa.18.1.us, %bb50.us ]
  %iter.sroa.30138.0.us = phi i64 [ %_97.sroa.10.0.copyload, %bb40.split.us ], [ %iter.sroa.30138.1.us, %bb50.us ]
  %last_end.sroa.0.0.us = phi i64 [ 0, %bb40.split.us ], [ %iter.sroa.18.1.us, %bb50.us ]
  %is_long.i.us = icmp eq i64 %iter.sroa.30138.0.us, -1
  %index24.i.us = add i64 %iter.sroa.18.0.us, %needle_last.i70
  %_5325.i.us = icmp ult i64 %index24.i.us, %_97.sroa.13.0.copyload
  br i1 %is_long.i.us, label %bb8.i.us, label %bb9.i.us

bb9.i.us:                                         ; preds = %bb20.us
  tail call void @llvm.experimental.noalias.scope.decl(metadata !6)
  tail call void @llvm.experimental.noalias.scope.decl(metadata !9)
  br i1 %_5325.i.us, label %bb39.i81.us, label %bb56

bb39.i81.us:                                      ; preds = %bb9.i.us, %bb37.sink.split.i.us
  %v229.i82.us = phi i64 [ %.sink.i.us, %bb37.sink.split.i.us ], [ %iter.sroa.30138.0.us, %bb9.i.us ]
  %index26.i83.us = phi i64 [ %index.i108.us, %bb37.sink.split.i.us ], [ %index24.i.us, %bb9.i.us ]
  %8 = phi i64 [ %.ph.i.us, %bb37.sink.split.i.us ], [ %iter.sroa.18.0.us, %bb9.i.us ]
  %_55.i84.us = getelementptr inbounds nuw i8, ptr %_97.sroa.12.0.copyload, i64 %index26.i83.us
  %tail_byte.i85.us = load i8, ptr %_55.i84.us, align 1, !alias.scope !6, !noalias !11, !noundef !2
  %_60.i86.us = and i8 %tail_byte.i85.us, 63
  %_59.i87.us = zext nneg i8 %_60.i86.us to i64
  %9 = shl nuw i64 1, %_59.i87.us
  %10 = and i64 %9, %_97.sroa.7.0.copyload
  %11 = icmp eq i64 %10, 0
  br i1 %11, label %bb10.i128.us, label %bb9.i88.us

bb9.i88.us:                                       ; preds = %bb39.i81.us
  %_0.sroa.0.0.i.i89.us = tail call i64 @llvm.umax.i64(i64 %v229.i82.us, i64 %_97.sroa.4.0.copyload)
  %umax40.i90.us = tail call i64 @llvm.umax.i64(i64 %_0.sroa.0.0.i.i89.us, i64 range(i64 0, -9223372036854775808) %_97.sroa.15.0.copyload)
  br label %bb16.i91.us

bb16.i91.us:                                      ; preds = %bb18.i99.us, %bb9.i88.us
  %iter.sroa.0.0.i92.us = phi i64 [ %_0.sroa.0.0.i.i89.us, %bb9.i88.us ], [ %_65.i100.us, %bb18.i99.us ]
  %exitcond.not.i93.us = icmp eq i64 %iter.sroa.0.0.i92.us, %umax40.i90.us
  br i1 %exitcond.not.i93.us, label %bb26.i111.us, label %bb42.i94.us

bb42.i94.us:                                      ; preds = %bb16.i91.us
  %_28.i95.us = add i64 %iter.sroa.0.0.i92.us, %8
  %_30.i96.us = icmp ult i64 %_28.i95.us, %_97.sroa.13.0.copyload
  br i1 %_30.i96.us, label %bb18.i99.us, label %panic8.i97

bb18.i99.us:                                      ; preds = %bb42.i94.us
  %_65.i100.us = add i64 %iter.sroa.0.0.i92.us, 1
  %12 = getelementptr inbounds nuw i8, ptr %_97.sroa.14.0.copyload, i64 %iter.sroa.0.0.i92.us
  %_25.i101.us = load i8, ptr %12, align 1, !alias.scope !9, !noalias !14, !noundef !2
  %13 = getelementptr inbounds nuw i8, ptr %_97.sroa.12.0.copyload, i64 %_28.i95.us
  %_27.i102.us = load i8, ptr %13, align 1, !alias.scope !6, !noalias !11, !noundef !2
  %_24.not.i103.us = icmp eq i8 %_25.i101.us, %_27.i102.us
  br i1 %_24.not.i103.us, label %bb16.i91.us, label %bb19.i104.us

bb19.i104.us:                                     ; preds = %bb18.i99.us
  %reass.sub = sub i64 %8, %_97.sroa.4.0.copyload
  %_31.i106.us = add i64 %reass.sub, 1
  %14 = add i64 %_31.i106.us, %iter.sroa.0.0.i92.us
  br label %bb37.sink.split.i.us

bb26.i111.us:                                     ; preds = %bb16.i91.us, %bb28.i123.us
  %iter3.sroa.2.0.i112.us = phi i64 [ %_73.i116.us, %bb28.i123.us ], [ %_97.sroa.4.0.copyload, %bb16.i91.us ]
  %_70.i113.us = icmp ult i64 %v229.i82.us, %iter3.sroa.2.0.i112.us
  br i1 %_70.i113.us, label %bb46.i115.us, label %bb49.us

bb46.i115.us:                                     ; preds = %bb26.i111.us
  %_73.i116.us = add i64 %iter3.sroa.2.0.i112.us, -1
  %_43.i117.us = icmp ult i64 %_73.i116.us, %_97.sroa.15.0.copyload
  br i1 %_43.i117.us, label %bb27.i119.us, label %panic.i.invoke

bb27.i119.us:                                     ; preds = %bb46.i115.us
  %_45.i120.us = add i64 %_73.i116.us, %8
  %_47.i121.us = icmp ult i64 %_45.i120.us, %_97.sroa.13.0.copyload
  br i1 %_47.i121.us, label %bb28.i123.us, label %panic.i.invoke

bb28.i123.us:                                     ; preds = %bb27.i119.us
  %15 = getelementptr inbounds nuw i8, ptr %_97.sroa.14.0.copyload, i64 %_73.i116.us
  %_42.i124.us = load i8, ptr %15, align 1, !alias.scope !9, !noalias !14, !noundef !2
  %16 = getelementptr inbounds nuw i8, ptr %_97.sroa.12.0.copyload, i64 %_45.i120.us
  %_44.i125.us = load i8, ptr %16, align 1, !alias.scope !6, !noalias !11, !noundef !2
  %_41.not.i126.us = icmp eq i8 %_42.i124.us, %_44.i125.us
  br i1 %_41.not.i126.us, label %bb26.i111.us, label %bb29.i127.us

bb29.i127.us:                                     ; preds = %bb28.i123.us
  %17 = add i64 %8, %_97.sroa.6.0.copyload
  br label %bb37.sink.split.i.us

bb10.i128.us:                                     ; preds = %bb39.i81.us
  %18 = add i64 %8, %_97.sroa.15.0.copyload
  br label %bb37.sink.split.i.us

bb37.sink.split.i.us:                             ; preds = %bb10.i128.us, %bb29.i127.us, %bb19.i104.us
  %.sink.i.us = phi i64 [ %6, %bb29.i127.us ], [ 0, %bb19.i104.us ], [ 0, %bb10.i128.us ]
  %.ph.i.us = phi i64 [ %17, %bb29.i127.us ], [ %14, %bb19.i104.us ], [ %18, %bb10.i128.us ]
  %index.i108.us = add i64 %.ph.i.us, %needle_last.i70
  %_53.i109.us = icmp ult i64 %index.i108.us, %_97.sroa.13.0.copyload
  br i1 %_53.i109.us, label %bb39.i81.us, label %bb56

bb8.i.us:                                         ; preds = %bb20.us
  tail call void @llvm.experimental.noalias.scope.decl(metadata !15)
  tail call void @llvm.experimental.noalias.scope.decl(metadata !18)
  br i1 %_5325.i.us, label %bb39.i.us, label %bb56

bb39.i.us:                                        ; preds = %bb8.i.us, %bb37.i.us
  %index26.i.us = phi i64 [ %index.i.us, %bb37.i.us ], [ %index24.i.us, %bb8.i.us ]
  %19 = phi i64 [ %33, %bb37.i.us ], [ %iter.sroa.18.0.us, %bb8.i.us ]
  %_55.i.us = getelementptr inbounds nuw i8, ptr %_97.sroa.12.0.copyload, i64 %index26.i.us
  %tail_byte.i.us = load i8, ptr %_55.i.us, align 1, !alias.scope !15, !noalias !20, !noundef !2
  %_60.i.us = and i8 %tail_byte.i.us, 63
  %_59.i.us = zext nneg i8 %_60.i.us to i64
  %20 = shl nuw i64 1, %_59.i.us
  %21 = and i64 %20, %_97.sroa.7.0.copyload
  %22 = icmp eq i64 %21, 0
  br i1 %22, label %bb10.i66.us, label %bb16.i.us

bb16.i.us:                                        ; preds = %bb39.i.us, %bb18.i.us
  %iter.sroa.0.0.i.us = phi i64 [ %_65.i.us, %bb18.i.us ], [ %_97.sroa.4.0.copyload, %bb39.i.us ]
  %exitcond.not.i.us = icmp eq i64 %iter.sroa.0.0.i.us, %umax40.i.us
  br i1 %exitcond.not.i.us, label %bb26.i.us, label %bb42.i.us

bb42.i.us:                                        ; preds = %bb16.i.us
  %_28.i.us = add i64 %iter.sroa.0.0.i.us, %19
  %_30.i.us = icmp ult i64 %_28.i.us, %_97.sroa.13.0.copyload
  br i1 %_30.i.us, label %bb18.i.us, label %panic8.i

bb18.i.us:                                        ; preds = %bb42.i.us
  %_65.i.us = add i64 %iter.sroa.0.0.i.us, 1
  %23 = getelementptr inbounds nuw i8, ptr %_97.sroa.14.0.copyload, i64 %iter.sroa.0.0.i.us
  %_25.i.us = load i8, ptr %23, align 1, !alias.scope !18, !noalias !23, !noundef !2
  %24 = getelementptr inbounds nuw i8, ptr %_97.sroa.12.0.copyload, i64 %_28.i.us
  %_27.i.us = load i8, ptr %24, align 1, !alias.scope !15, !noalias !20, !noundef !2
  %_24.not.i.us = icmp eq i8 %_25.i.us, %_27.i.us
  br i1 %_24.not.i.us, label %bb16.i.us, label %bb19.i.us

bb19.i.us:                                        ; preds = %bb18.i.us
  %reass.sub233 = sub i64 %19, %_97.sroa.4.0.copyload
  %_31.i.us = add i64 %reass.sub233, 1
  %25 = add i64 %_31.i.us, %iter.sroa.0.0.i.us
  br label %bb37.i.us

bb26.i.us:                                        ; preds = %bb16.i.us, %bb28.i.us
  %iter3.sroa.2.0.i.us = phi i64 [ %_73.i.us, %bb28.i.us ], [ %_97.sroa.4.0.copyload, %bb16.i.us ]
  %_70.i.not.us = icmp eq i64 %iter3.sroa.2.0.i.us, 0
  br i1 %_70.i.not.us, label %bb49.us, label %bb46.i.us

bb46.i.us:                                        ; preds = %bb26.i.us
  %_73.i.us = add i64 %iter3.sroa.2.0.i.us, -1
  br i1 %_43.i.us.first_iter, label %bb27.i.us, label %panic.i.invoke

bb27.i.us:                                        ; preds = %bb46.i.us
  %_45.i.us = add i64 %_73.i.us, %19
  %_47.i.us = icmp ult i64 %_45.i.us, %_97.sroa.13.0.copyload
  br i1 %_47.i.us, label %bb28.i.us, label %panic.i.invoke

bb28.i.us:                                        ; preds = %bb27.i.us
  %26 = getelementptr inbounds nuw i8, ptr %_97.sroa.14.0.copyload, i64 %_73.i.us
  %_42.i.us = load i8, ptr %26, align 1, !alias.scope !18, !noalias !23, !noundef !2
  %27 = getelementptr inbounds nuw i8, ptr %_97.sroa.12.0.copyload, i64 %_45.i.us
  %_44.i.us = load i8, ptr %27, align 1, !alias.scope !15, !noalias !20, !noundef !2
  %_41.not.i.us = icmp eq i8 %_42.i.us, %_44.i.us
  br i1 %_41.not.i.us, label %bb26.i.us, label %bb29.i.us

bb29.i.us:                                        ; preds = %bb28.i.us
  %28 = add i64 %_97.sroa.6.0.copyload, %19
  br label %bb37.i.us

bb49.us:                                          ; preds = %bb26.i111.us, %bb26.i.us
  %iter.sroa.30138.1.us = phi i64 [ -1, %bb26.i.us ], [ 0, %bb26.i111.us ]
  %self5.sroa.7.2.us = phi i64 [ %19, %bb26.i.us ], [ %8, %bb26.i111.us ]
  %iter.sroa.18.1.us = add i64 %self5.sroa.7.2.us, %_97.sroa.15.0.copyload
  %data13.us = getelementptr inbounds nuw i8, ptr %self.0, i64 %last_end.sroa.0.0.us
  %gepdiff.us = sub nuw nsw i64 %self5.sroa.7.2.us, %last_end.sroa.0.0.us
  tail call void @llvm.experimental.noalias.scope.decl(metadata !24)
  %self2.i.i40.us = load i64, ptr %result, align 8, !range !27, !alias.scope !28, !noundef !2
  %_9.i.i41.us = sub i64 %self2.i.i40.us, %len.i.i39.us
  %_7.i.i42.us = icmp ugt i64 %gepdiff.us, %_9.i.i41.us
  br i1 %_7.i.i42.us, label %bb1.i.i47.us, label %bb51.us, !prof !31

bb1.i.i47.us:                                     ; preds = %bb49.us
; invoke <alloc::raw_vec::RawVecInner<_>>::reserve::do_reserve_and_handle::<alloc::alloc::Global>
  invoke fastcc void @_RINvNvMs2_NtCsdJPVW0sQgAG_5alloc7raw_vecINtB8_11RawVecInnerpE7reserve21do_reserve_and_handleNtNtBa_5alloc6GlobalECs4eyShm1h0hl_10serde_json(ptr noalias noundef nonnull align 8 dereferenceable(24) %result, i64 noundef %len.i.i39.us, i64 noundef %gepdiff.us, i64 noundef 1, i64 noundef 1)
          to label %.noexc49.us unwind label %cleanup10.loopexit.split.us

.noexc49.us:                                      ; preds = %bb1.i.i47.us
  %len.pre.i48.us = load i64, ptr %_94.sroa.5.0.result.sroa_idx, align 8, !alias.scope !24
  %_10.i45.us.pre = load ptr, ptr %_94.sroa.4.0.result.sroa_idx, align 8, !alias.scope !24
  %self2.i.i52.us.pre = load i64, ptr %result, align 8, !range !27, !alias.scope !32
  br label %bb51.us

bb51.us:                                          ; preds = %.noexc49.us, %bb49.us
  %_10.i57.us289 = phi ptr [ %_10.i57.us290, %bb49.us ], [ %_10.i45.us.pre, %.noexc49.us ]
  %self2.i.i52.us = phi i64 [ %self2.i.i40.us, %bb49.us ], [ %self2.i.i52.us.pre, %.noexc49.us ]
  %len.i43.us = phi i64 [ %len.i.i39.us, %bb49.us ], [ %len.pre.i48.us, %.noexc49.us ]
  %_9.i44.us = icmp sgt i64 %len.i43.us, -1
  tail call void @llvm.assume(i1 %_9.i44.us)
  %dst.i46.us = getelementptr inbounds nuw i8, ptr %_10.i57.us289, i64 %len.i43.us
  tail call void @llvm.memcpy.p0.p0.i64(ptr nonnull align 1 %dst.i46.us, ptr nonnull readonly align 1 %data13.us, i64 %gepdiff.us, i1 false), !noalias !24
  %29 = add i64 %len.i43.us, %gepdiff.us
  store i64 %29, ptr %_94.sroa.5.0.result.sroa_idx, align 8, !alias.scope !24
  tail call void @llvm.experimental.noalias.scope.decl(metadata !37)
  %_7.i.i54.us = icmp eq i64 %self2.i.i52.us, %29
  br i1 %_7.i.i54.us, label %bb1.i.i59.us, label %bb50.us, !prof !31

bb1.i.i59.us:                                     ; preds = %bb51.us
; invoke <alloc::raw_vec::RawVecInner<_>>::reserve::do_reserve_and_handle::<alloc::alloc::Global>
  invoke fastcc void @_RINvNvMs2_NtCsdJPVW0sQgAG_5alloc7raw_vecINtB8_11RawVecInnerpE7reserve21do_reserve_and_handleNtNtBa_5alloc6GlobalECs4eyShm1h0hl_10serde_json(ptr noalias noundef nonnull align 8 dereferenceable(24) %result, i64 noundef %self2.i.i52.us, i64 noundef 1, i64 noundef 1, i64 noundef 1)
          to label %.noexc61.us unwind label %cleanup10.loopexit.split.us

.noexc61.us:                                      ; preds = %bb1.i.i59.us
  %len.pre.i60.us = load i64, ptr %_94.sroa.5.0.result.sroa_idx, align 8, !alias.scope !37
  %_10.i57.us.pre = load ptr, ptr %_94.sroa.4.0.result.sroa_idx, align 8, !alias.scope !37
  br label %bb50.us

bb50.us:                                          ; preds = %.noexc61.us, %bb51.us
  %_10.i57.us = phi ptr [ %_10.i57.us289, %bb51.us ], [ %_10.i57.us.pre, %.noexc61.us ]
  %len.i55.us = phi i64 [ %29, %bb51.us ], [ %len.pre.i60.us, %.noexc61.us ]
  %_9.i56.us = icmp sgt i64 %len.i55.us, -1
  tail call void @llvm.assume(i1 %_9.i56.us)
  %dst.i58.us = getelementptr inbounds nuw i8, ptr %_10.i57.us, i64 %len.i55.us
  %30 = load i8, ptr %to.0, align 1, !noalias !37
  store i8 %30, ptr %dst.i58.us, align 1, !noalias !37
  %31 = add nuw i64 %len.i55.us, 1
  store i64 %31, ptr %_94.sroa.5.0.result.sroa_idx, align 8, !alias.scope !37
  br label %bb20.us

bb10.i66.us:                                      ; preds = %bb39.i.us
  %32 = add i64 %19, %_97.sroa.15.0.copyload
  br label %bb37.i.us

bb37.i.us:                                        ; preds = %bb10.i66.us, %bb29.i.us, %bb19.i.us
  %33 = phi i64 [ %25, %bb19.i.us ], [ %28, %bb29.i.us ], [ %32, %bb10.i66.us ]
  %index.i.us = add i64 %33, %needle_last.i70
  %_53.i.us = icmp ult i64 %index.i.us, %_97.sroa.13.0.copyload
  br i1 %_53.i.us, label %bb39.i.us, label %bb56

cleanup10.loopexit.split.us:                      ; preds = %bb1.i.i59.us, %bb1.i.i47.us
  %lpad.loopexit.us = landingpad { ptr, i32 }
          cleanup
  br label %bb25

bb40.split:                                       ; preds = %bb40
  %34 = and i64 %_97.sroa.6.0.copyload, 65536
  %_4.i.i.not = icmp eq i64 %34, 0
  br i1 %_4.i.i.not, label %bb5.i.lr.ph.i.lr.ph, label %bb56

bb5.i.lr.ph.i.lr.ph:                              ; preds = %bb40.split
  tail call void @llvm.assume(i1 %4)
  %extract.t = trunc i64 %_97.sroa.6.0.copyload to i1
  %35 = icmp eq i64 %_97.sroa.4.0.copyload, 0
  br i1 %35, label %bb19.i.i.peel.peel, label %bb5.i.i.i.peel.peel

bb5.i.i.i.peel.peel:                              ; preds = %bb5.i.lr.ph.i.lr.ph
  %_8.not.i.i.i.peel.peel = icmp ult i64 %_97.sroa.4.0.copyload, %_97.sroa.13.0.copyload
  br i1 %_8.not.i.i.i.peel.peel, label %bb9.i.i.i.peel.peel, label %bb6.i.i.i33.peel.peel

bb6.i.i.i33.peel.peel:                            ; preds = %bb5.i.i.i.peel.peel
  %36 = icmp eq i64 %_97.sroa.4.0.copyload, %_97.sroa.13.0.copyload
  br i1 %36, label %bb19.i.i.peel.peel, label %bb18.i.i

bb9.i.i.i.peel.peel:                              ; preds = %bb5.i.i.i.peel.peel
  %37 = getelementptr inbounds nuw i8, ptr %_97.sroa.12.0.copyload, i64 %_97.sroa.4.0.copyload
  %self1.i.i.i.peel.peel = load i8, ptr %37, align 1, !alias.scope !38, !noalias !41, !noundef !2
  %38 = icmp sgt i8 %self1.i.i.i.peel.peel, -65
  br i1 %38, label %bb19.i.i.peel.peel, label %bb18.i.i

bb19.i.i.peel.peel:                               ; preds = %bb9.i.i.i.peel.peel, %bb6.i.i.i33.peel.peel, %bb5.i.lr.ph.i.lr.ph
  %data.i.i.i.peel.peel = getelementptr inbounds nuw i8, ptr %_97.sroa.12.0.copyload, i64 %_97.sroa.4.0.copyload
  %_6.i.i.i.i.peel.peel = icmp samesign eq i64 %_97.sroa.4.0.copyload, %_97.sroa.13.0.copyload
  br i1 %_6.i.i.i.i.peel.peel, label %bb21.i.i.peel, label %bb14.i.i.i.peel.peel

bb14.i.i.i.peel.peel:                             ; preds = %bb19.i.i.peel.peel
  %x.i.i.i.peel.peel = load i8, ptr %data.i.i.i.peel.peel, align 1, !noalias !48, !noundef !2
  %_6.i.i.i.peel.peel = icmp sgt i8 %x.i.i.i.peel.peel, -1
  br i1 %_6.i.i.i.peel.peel, label %bb3.i.i.i.peel.peel, label %bb4.i.i.i.peel.peel

bb4.i.i.i.peel.peel:                              ; preds = %bb14.i.i.i.peel.peel
  %_16.i.i.i.i.peel.peel = getelementptr inbounds nuw i8, ptr %data.i.i.i.peel.peel, i64 1
  %_30.i.i.i.peel.peel = and i8 %x.i.i.i.peel.peel, 31
  %init.i.i.i.peel.peel = zext nneg i8 %_30.i.i.i.peel.peel to i32
  %_6.i10.i.i.i.peel.peel = icmp ne ptr %_16.i.i.i.i.peel.peel, %_48.i.i
  tail call void @llvm.assume(i1 %_6.i10.i.i.i.peel.peel)
  %y.i.i.i.peel.peel = load i8, ptr %_16.i.i.i.i.peel.peel, align 1, !noalias !48, !noundef !2
  %_33.i.i.i.peel.peel = shl nuw nsw i32 %init.i.i.i.peel.peel, 6
  %_35.i.i.i.peel.peel = and i8 %y.i.i.i.peel.peel, 63
  %_34.i.i.i.peel.peel = zext nneg i8 %_35.i.i.i.peel.peel to i32
  %39 = or disjoint i32 %_33.i.i.i.peel.peel, %_34.i.i.i.peel.peel
  %_13.i.i.i.peel.peel = icmp samesign ugt i8 %x.i.i.i.peel.peel, -33
  br i1 %_13.i.i.i.peel.peel, label %bb6.i21.i.i.peel.peel, label %bb22.i.i.peel.peel

bb6.i21.i.i.peel.peel:                            ; preds = %bb4.i.i.i.peel.peel
  %_16.i12.i.i.i.peel.peel = getelementptr inbounds nuw i8, ptr %data.i.i.i.peel.peel, i64 2
  %_6.i17.i.i.i.peel.peel = icmp ne ptr %_16.i12.i.i.i.peel.peel, %_48.i.i
  tail call void @llvm.assume(i1 %_6.i17.i.i.i.peel.peel)
  %z.i.i.i.peel.peel = load i8, ptr %_16.i12.i.i.i.peel.peel, align 1, !noalias !48, !noundef !2
  %_38.i.i.i.peel.peel = shl nuw nsw i32 %_34.i.i.i.peel.peel, 6
  %_40.i.i.i34.peel.peel = and i8 %z.i.i.i.peel.peel, 63
  %_39.i.i.i.peel.peel = zext nneg i8 %_40.i.i.i34.peel.peel to i32
  %y_z.i.i.i.peel.peel = or disjoint i32 %_38.i.i.i.peel.peel, %_39.i.i.i.peel.peel
  %_20.i.i.i.peel.peel = shl nuw nsw i32 %init.i.i.i.peel.peel, 12
  %40 = or disjoint i32 %y_z.i.i.i.peel.peel, %_20.i.i.i.peel.peel
  %_21.i.i.i.peel.peel = icmp samesign ugt i8 %x.i.i.i.peel.peel, -17
  br i1 %_21.i.i.i.peel.peel, label %bb8.i.i.i.peel.peel, label %bb22.i.i.peel.peel

bb8.i.i.i.peel.peel:                              ; preds = %bb6.i21.i.i.peel.peel
  %_16.i19.i.i.i.peel.peel = getelementptr inbounds nuw i8, ptr %data.i.i.i.peel.peel, i64 3
  %_6.i24.i.i.i.peel.peel = icmp ne ptr %_16.i19.i.i.i.peel.peel, %_48.i.i
  tail call void @llvm.assume(i1 %_6.i24.i.i.i.peel.peel)
  %w.i.i.i.peel.peel = load i8, ptr %_16.i19.i.i.i.peel.peel, align 1, !noalias !48, !noundef !2
  %_26.i.i.i.peel.peel = shl nuw nsw i32 %init.i.i.i.peel.peel, 18
  %_25.i.i.i.peel.peel = and i32 %_26.i.i.i.peel.peel, 1835008
  %_43.i.i.i.peel.peel = shl nuw nsw i32 %y_z.i.i.i.peel.peel, 6
  %_45.i.i.i.peel.peel = and i8 %w.i.i.i.peel.peel, 63
  %_44.i.i.i.peel.peel = zext nneg i8 %_45.i.i.i.peel.peel to i32
  %_27.i.i.i.peel.peel = or disjoint i32 %_43.i.i.i.peel.peel, %_44.i.i.i.peel.peel
  %41 = or disjoint i32 %_27.i.i.i.peel.peel, %_25.i.i.i.peel.peel
  br label %bb22.i.i.peel.peel

bb3.i.i.i.peel.peel:                              ; preds = %bb14.i.i.i.peel.peel
  %_7.i.i.i.peel.peel = zext nneg i8 %x.i.i.i.peel.peel to i32
  br label %bb22.i.i.peel.peel

bb22.i.i.peel.peel:                               ; preds = %bb3.i.i.i.peel.peel, %bb8.i.i.i.peel.peel, %bb6.i21.i.i.peel.peel, %bb4.i.i.i.peel.peel
  %_0.sroa.4.0.i.ph.i.i.peel.peel = phi i32 [ %39, %bb4.i.i.i.peel.peel ], [ %40, %bb6.i21.i.i.peel.peel ], [ %41, %bb8.i.i.i.peel.peel ], [ %_7.i.i.i.peel.peel, %bb3.i.i.i.peel.peel ]
  %42 = icmp samesign ult i32 %_0.sroa.4.0.i.ph.i.i.peel.peel, 1114112
  tail call void @llvm.assume(i1 %42)
  br i1 %extract.t, label %bb49.peel, label %bb39.i.i.peel.peel

bb39.i.i.peel.peel:                               ; preds = %bb22.i.i.peel.peel
  %_59.i.i.peel.peel = icmp samesign ult i32 %_0.sroa.4.0.i.ph.i.i.peel.peel, 128
  br i1 %_59.i.i.peel.peel, label %bb5.i.i.peel, label %bb26.i.i.peel.peel

bb26.i.i.peel.peel:                               ; preds = %bb39.i.i.peel.peel
  %_60.i.i.peel.peel = icmp samesign ult i32 %_0.sroa.4.0.i.ph.i.i.peel.peel, 2048
  br i1 %_60.i.i.peel.peel, label %bb5.i.i.peel, label %bb27.i.i.peel.peel

bb27.i.i.peel.peel:                               ; preds = %bb26.i.i.peel.peel
  %_61.i.i.peel.peel = icmp samesign ult i32 %_0.sroa.4.0.i.ph.i.i.peel.peel, 65536
  %..i.i.peel.peel = select i1 %_61.i.i.peel.peel, i64 3, i64 4
  br label %bb5.i.i.peel

bb5.i.i.peel:                                     ; preds = %bb27.i.i.peel.peel, %bb26.i.i.peel.peel, %bb39.i.i.peel.peel
  %_14.sroa.0.0.i.i.peel.peel = phi i64 [ 1, %bb39.i.i.peel.peel ], [ %..i.i.peel.peel, %bb27.i.i.peel.peel ], [ 2, %bb26.i.i.peel.peel ]
  %43 = add i64 %_14.sroa.0.0.i.i.peel.peel, %_97.sroa.4.0.copyload
  %44 = icmp eq i64 %43, 0
  br i1 %44, label %bb19.i.i.peel88, label %bb5.i.i.i.peel83

bb5.i.i.i.peel83:                                 ; preds = %bb5.i.i.peel
  %_8.not.i.i.i.peel84 = icmp ult i64 %43, %_97.sroa.13.0.copyload
  br i1 %_8.not.i.i.i.peel84, label %bb9.i.i.i.peel86, label %bb6.i.i.i33.peel85

bb6.i.i.i33.peel85:                               ; preds = %bb5.i.i.i.peel83
  %45 = icmp eq i64 %43, %_97.sroa.13.0.copyload
  br i1 %45, label %bb19.i.i.peel88, label %bb18.i.i

bb9.i.i.i.peel86:                                 ; preds = %bb5.i.i.i.peel83
  %46 = getelementptr inbounds nuw i8, ptr %_97.sroa.12.0.copyload, i64 %43
  %self1.i.i.i.peel87 = load i8, ptr %46, align 1, !alias.scope !38, !noalias !41, !noundef !2
  %47 = icmp sgt i8 %self1.i.i.i.peel87, -65
  br i1 %47, label %bb19.i.i.peel88, label %bb18.i.i

bb19.i.i.peel88:                                  ; preds = %bb9.i.i.i.peel86, %bb6.i.i.i33.peel85, %bb5.i.i.peel
  %data.i.i.i.peel89 = getelementptr inbounds nuw i8, ptr %_97.sroa.12.0.copyload, i64 %43
  %_6.i.i.i.i.peel90 = icmp samesign eq i64 %43, %_97.sroa.13.0.copyload
  br i1 %_6.i.i.i.i.peel90, label %bb49.peel, label %bb14.i.i.i.peel91

bb14.i.i.i.peel91:                                ; preds = %bb19.i.i.peel88
  %x.i.i.i.peel92 = load i8, ptr %data.i.i.i.peel89, align 1, !noalias !48, !noundef !2
  %_6.i.i.i.peel93 = icmp sgt i8 %x.i.i.i.peel92, -1
  br i1 %_6.i.i.i.peel93, label %bb3.i.i.i.peel124, label %bb4.i.i.i.peel94

bb4.i.i.i.peel94:                                 ; preds = %bb14.i.i.i.peel91
  %_16.i.i.i.i.peel95 = getelementptr inbounds nuw i8, ptr %data.i.i.i.peel89, i64 1
  %_30.i.i.i.peel96 = and i8 %x.i.i.i.peel92, 31
  %init.i.i.i.peel97 = zext nneg i8 %_30.i.i.i.peel96 to i32
  %_6.i10.i.i.i.peel98 = icmp ne ptr %_16.i.i.i.i.peel95, %_48.i.i
  tail call void @llvm.assume(i1 %_6.i10.i.i.i.peel98)
  %y.i.i.i.peel99 = load i8, ptr %_16.i.i.i.i.peel95, align 1, !noalias !48, !noundef !2
  %_33.i.i.i.peel100 = shl nuw nsw i32 %init.i.i.i.peel97, 6
  %_35.i.i.i.peel101 = and i8 %y.i.i.i.peel99, 63
  %_34.i.i.i.peel102 = zext nneg i8 %_35.i.i.i.peel101 to i32
  %48 = or disjoint i32 %_33.i.i.i.peel100, %_34.i.i.i.peel102
  %_13.i.i.i.peel103 = icmp samesign ugt i8 %x.i.i.i.peel92, -33
  br i1 %_13.i.i.i.peel103, label %bb6.i21.i.i.peel104, label %bb49.loopexit.loopexit.peel

bb6.i21.i.i.peel104:                              ; preds = %bb4.i.i.i.peel94
  %_16.i12.i.i.i.peel105 = getelementptr inbounds nuw i8, ptr %data.i.i.i.peel89, i64 2
  %_6.i17.i.i.i.peel106 = icmp ne ptr %_16.i12.i.i.i.peel105, %_48.i.i
  tail call void @llvm.assume(i1 %_6.i17.i.i.i.peel106)
  %z.i.i.i.peel107 = load i8, ptr %_16.i12.i.i.i.peel105, align 1, !noalias !48, !noundef !2
  %_38.i.i.i.peel108 = shl nuw nsw i32 %_34.i.i.i.peel102, 6
  %_40.i.i.i34.peel109 = and i8 %z.i.i.i.peel107, 63
  %_39.i.i.i.peel110 = zext nneg i8 %_40.i.i.i34.peel109 to i32
  %y_z.i.i.i.peel111 = or disjoint i32 %_38.i.i.i.peel108, %_39.i.i.i.peel110
  %_20.i.i.i.peel112 = shl nuw nsw i32 %init.i.i.i.peel97, 12
  %49 = or disjoint i32 %y_z.i.i.i.peel111, %_20.i.i.i.peel112
  %_21.i.i.i.peel113 = icmp samesign ugt i8 %x.i.i.i.peel92, -17
  br i1 %_21.i.i.i.peel113, label %bb8.i.i.i.peel114, label %bb49.loopexit.loopexit.peel

bb8.i.i.i.peel114:                                ; preds = %bb6.i21.i.i.peel104
  %_16.i19.i.i.i.peel115 = getelementptr inbounds nuw i8, ptr %data.i.i.i.peel89, i64 3
  %_6.i24.i.i.i.peel116 = icmp ne ptr %_16.i19.i.i.i.peel115, %_48.i.i
  tail call void @llvm.assume(i1 %_6.i24.i.i.i.peel116)
  %w.i.i.i.peel117 = load i8, ptr %_16.i19.i.i.i.peel115, align 1, !noalias !48, !noundef !2
  %_26.i.i.i.peel118 = shl nuw nsw i32 %init.i.i.i.peel97, 18
  %_25.i.i.i.peel119 = and i32 %_26.i.i.i.peel118, 1835008
  %_43.i.i.i.peel120 = shl nuw nsw i32 %y_z.i.i.i.peel111, 6
  %_45.i.i.i.peel121 = and i8 %w.i.i.i.peel117, 63
  %_44.i.i.i.peel122 = zext nneg i8 %_45.i.i.i.peel121 to i32
  %_27.i.i.i.peel123 = or disjoint i32 %_43.i.i.i.peel120, %_44.i.i.i.peel122
  %50 = or disjoint i32 %_27.i.i.i.peel123, %_25.i.i.i.peel119
  br label %bb49.loopexit.loopexit.peel

bb3.i.i.i.peel124:                                ; preds = %bb14.i.i.i.peel91
  %_7.i.i.i.peel125 = zext nneg i8 %x.i.i.i.peel92 to i32
  br label %bb49.loopexit.loopexit.peel

bb49.loopexit.loopexit.peel:                      ; preds = %bb3.i.i.i.peel124, %bb8.i.i.i.peel114, %bb6.i21.i.i.peel104, %bb4.i.i.i.peel94
  %_0.sroa.4.0.i.ph.i.i.peel126 = phi i32 [ %48, %bb4.i.i.i.peel94 ], [ %49, %bb6.i21.i.i.peel104 ], [ %50, %bb8.i.i.i.peel114 ], [ %_7.i.i.i.peel125, %bb3.i.i.i.peel124 ]
  %51 = icmp samesign ult i32 %_0.sroa.4.0.i.ph.i.i.peel126, 1114112
  tail call void @llvm.assume(i1 %51)
  br label %bb49.peel

bb21.i.i.peel:                                    ; preds = %bb19.i.i.peel.peel
  br i1 %extract.t, label %bb49.peel, label %bb56

bb49.peel:                                        ; preds = %bb21.i.i.peel, %bb49.loopexit.loopexit.peel, %bb19.i.i.peel88, %bb22.i.i.peel.peel
  %iter.sroa.4.1273.peel = phi i64 [ %_97.sroa.13.0.copyload, %bb21.i.i.peel ], [ %_97.sroa.4.0.copyload, %bb22.i.i.peel.peel ], [ %43, %bb49.loopexit.loopexit.peel ], [ %_97.sroa.13.0.copyload, %bb19.i.i.peel88 ]
  tail call void @llvm.experimental.noalias.scope.decl(metadata !51)
  %self2.i.i40.peel = load i64, ptr %result, align 8, !range !27, !alias.scope !53, !noundef !2
  %_7.i.i42.peel = icmp ugt i64 %iter.sroa.4.1273.peel, %self2.i.i40.peel
  br i1 %_7.i.i42.peel, label %bb1.i.i47.peel, label %bb51.peel, !prof !31

bb1.i.i47.peel:                                   ; preds = %bb49.peel
; invoke <alloc::raw_vec::RawVecInner<_>>::reserve::do_reserve_and_handle::<alloc::alloc::Global>
  invoke fastcc void @_RINvNvMs2_NtCsdJPVW0sQgAG_5alloc7raw_vecINtB8_11RawVecInnerpE7reserve21do_reserve_and_handleNtNtBa_5alloc6GlobalECs4eyShm1h0hl_10serde_json(ptr noalias noundef nonnull align 8 dereferenceable(24) %result, i64 noundef 0, i64 noundef %iter.sroa.4.1273.peel, i64 noundef 1, i64 noundef 1)
          to label %.noexc49.peel unwind label %cleanup10.loopexit.split.loopexit.split-lp

.noexc49.peel:                                    ; preds = %bb1.i.i47.peel
  %len.pre.i48.peel = load i64, ptr %_94.sroa.5.0.result.sroa_idx, align 8, !alias.scope !51
  %_10.i45.pre.peel = load ptr, ptr %_94.sroa.4.0.result.sroa_idx, align 8, !alias.scope !51
  %self2.i.i52.pre.peel = load i64, ptr %result, align 8, !range !27, !alias.scope !54
  br label %bb51.peel

bb51.peel:                                        ; preds = %.noexc49.peel, %bb49.peel
  %_10.i57282.peel = phi ptr [ inttoptr (i64 1 to ptr), %bb49.peel ], [ %_10.i45.pre.peel, %.noexc49.peel ]
  %self2.i.i52.peel = phi i64 [ %self2.i.i40.peel, %bb49.peel ], [ %self2.i.i52.pre.peel, %.noexc49.peel ]
  %len.i43.peel = phi i64 [ 0, %bb49.peel ], [ %len.pre.i48.peel, %.noexc49.peel ]
  %_9.i44.peel = icmp sgt i64 %len.i43.peel, -1
  tail call void @llvm.assume(i1 %_9.i44.peel)
  %dst.i46.peel = getelementptr inbounds nuw i8, ptr %_10.i57282.peel, i64 %len.i43.peel
  tail call void @llvm.memcpy.p0.p0.i64(ptr nonnull align 1 %dst.i46.peel, ptr nonnull readonly align 1 %self.0, i64 %iter.sroa.4.1273.peel, i1 false), !noalias !51
  %52 = add i64 %len.i43.peel, %iter.sroa.4.1273.peel
  store i64 %52, ptr %_94.sroa.5.0.result.sroa_idx, align 8, !alias.scope !51
  tail call void @llvm.experimental.noalias.scope.decl(metadata !56)
  %_7.i.i54.peel = icmp eq i64 %self2.i.i52.peel, %52
  br i1 %_7.i.i54.peel, label %bb1.i.i59.peel, label %bb50.peel, !prof !31

bb1.i.i59.peel:                                   ; preds = %bb51.peel
; invoke <alloc::raw_vec::RawVecInner<_>>::reserve::do_reserve_and_handle::<alloc::alloc::Global>
  invoke fastcc void @_RINvNvMs2_NtCsdJPVW0sQgAG_5alloc7raw_vecINtB8_11RawVecInnerpE7reserve21do_reserve_and_handleNtNtBa_5alloc6GlobalECs4eyShm1h0hl_10serde_json(ptr noalias noundef nonnull align 8 dereferenceable(24) %result, i64 noundef %self2.i.i52.peel, i64 noundef 1, i64 noundef 1, i64 noundef 1)
          to label %.noexc61.peel unwind label %cleanup10.loopexit.split.loopexit.split-lp

.noexc61.peel:                                    ; preds = %bb1.i.i59.peel
  %len.pre.i60.peel = load i64, ptr %_94.sroa.5.0.result.sroa_idx, align 8, !alias.scope !56
  %_10.i57.pre.peel = load ptr, ptr %_94.sroa.4.0.result.sroa_idx, align 8, !alias.scope !56
  br label %bb50.peel

bb50.peel:                                        ; preds = %.noexc61.peel, %bb51.peel
  %_10.i57.peel = phi ptr [ %_10.i57282.peel, %bb51.peel ], [ %_10.i57.pre.peel, %.noexc61.peel ]
  %len.i55.peel = phi i64 [ %52, %bb51.peel ], [ %len.pre.i60.peel, %.noexc61.peel ]
  %_9.i56.peel = icmp sgt i64 %len.i55.peel, -1
  tail call void @llvm.assume(i1 %_9.i56.peel)
  %dst.i58.peel = getelementptr inbounds nuw i8, ptr %_10.i57.peel, i64 %len.i55.peel
  %53 = load i8, ptr %to.0, align 1, !noalias !56
  store i8 %53, ptr %dst.i58.peel, align 1, !noalias !56
  %54 = add nuw i64 %len.i55.peel, 1
  store i64 %54, ptr %_94.sroa.5.0.result.sroa_idx, align 8, !alias.scope !56
  br label %bb5.i.lr.ph.i

bb5.i.lr.ph.i:                                    ; preds = %bb50, %bb50.peel
  %_10.i57283 = phi ptr [ %_10.i57.peel, %bb50.peel ], [ %_10.i57, %bb50 ]
  %len.i.i39 = phi i64 [ %54, %bb50.peel ], [ %80, %bb50 ]
  %iter.sroa.4.0229 = phi i64 [ %iter.sroa.4.1273.peel, %bb50.peel ], [ %iter.sroa.4.1273, %bb50 ]
  %55 = icmp eq i64 %iter.sroa.4.0229, 0
  br i1 %55, label %bb19.i.i.peel, label %bb5.i.i.i.peel

bb5.i.i.i.peel:                                   ; preds = %bb5.i.lr.ph.i
  %_8.not.i.i.i.peel = icmp ult i64 %iter.sroa.4.0229, %_97.sroa.13.0.copyload
  br i1 %_8.not.i.i.i.peel, label %bb9.i.i.i.peel, label %bb6.i.i.i33.peel

bb6.i.i.i33.peel:                                 ; preds = %bb5.i.i.i.peel
  %56 = icmp eq i64 %iter.sroa.4.0229, %_97.sroa.13.0.copyload
  br i1 %56, label %bb19.i.i.peel, label %bb18.i.i

bb9.i.i.i.peel:                                   ; preds = %bb5.i.i.i.peel
  %57 = getelementptr inbounds nuw i8, ptr %_97.sroa.12.0.copyload, i64 %iter.sroa.4.0229
  %self1.i.i.i.peel = load i8, ptr %57, align 1, !alias.scope !38, !noalias !41, !noundef !2
  %58 = icmp sgt i8 %self1.i.i.i.peel, -65
  br i1 %58, label %bb19.i.i.peel, label %bb18.i.i

bb19.i.i.peel:                                    ; preds = %bb9.i.i.i.peel, %bb6.i.i.i33.peel, %bb5.i.lr.ph.i
  %data.i.i.i.peel = getelementptr inbounds nuw i8, ptr %_97.sroa.12.0.copyload, i64 %iter.sroa.4.0229
  %_6.i.i.i.i.peel = icmp samesign eq i64 %iter.sroa.4.0229, %_97.sroa.13.0.copyload
  br i1 %_6.i.i.i.i.peel, label %bb56, label %bb14.i.i.i.peel

bb14.i.i.i.peel:                                  ; preds = %bb19.i.i.peel
  %x.i.i.i.peel = load i8, ptr %data.i.i.i.peel, align 1, !noalias !48, !noundef !2
  %_6.i.i.i.peel = icmp sgt i8 %x.i.i.i.peel, -1
  br i1 %_6.i.i.i.peel, label %bb3.i.i.i.peel, label %bb4.i.i.i.peel

bb4.i.i.i.peel:                                   ; preds = %bb14.i.i.i.peel
  %_16.i.i.i.i.peel = getelementptr inbounds nuw i8, ptr %data.i.i.i.peel, i64 1
  %_30.i.i.i.peel = and i8 %x.i.i.i.peel, 31
  %init.i.i.i.peel = zext nneg i8 %_30.i.i.i.peel to i32
  %_6.i10.i.i.i.peel = icmp ne ptr %_16.i.i.i.i.peel, %_48.i.i
  tail call void @llvm.assume(i1 %_6.i10.i.i.i.peel)
  %y.i.i.i.peel = load i8, ptr %_16.i.i.i.i.peel, align 1, !noalias !48, !noundef !2
  %_33.i.i.i.peel = shl nuw nsw i32 %init.i.i.i.peel, 6
  %_35.i.i.i.peel = and i8 %y.i.i.i.peel, 63
  %_34.i.i.i.peel = zext nneg i8 %_35.i.i.i.peel to i32
  %59 = or disjoint i32 %_33.i.i.i.peel, %_34.i.i.i.peel
  %_13.i.i.i.peel = icmp samesign ugt i8 %x.i.i.i.peel, -33
  br i1 %_13.i.i.i.peel, label %bb6.i21.i.i.peel, label %bb22.i.i.peel

bb6.i21.i.i.peel:                                 ; preds = %bb4.i.i.i.peel
  %_16.i12.i.i.i.peel = getelementptr inbounds nuw i8, ptr %data.i.i.i.peel, i64 2
  %_6.i17.i.i.i.peel = icmp ne ptr %_16.i12.i.i.i.peel, %_48.i.i
  tail call void @llvm.assume(i1 %_6.i17.i.i.i.peel)
  %z.i.i.i.peel = load i8, ptr %_16.i12.i.i.i.peel, align 1, !noalias !48, !noundef !2
  %_38.i.i.i.peel = shl nuw nsw i32 %_34.i.i.i.peel, 6
  %_40.i.i.i34.peel = and i8 %z.i.i.i.peel, 63
  %_39.i.i.i.peel = zext nneg i8 %_40.i.i.i34.peel to i32
  %y_z.i.i.i.peel = or disjoint i32 %_38.i.i.i.peel, %_39.i.i.i.peel
  %_20.i.i.i.peel = shl nuw nsw i32 %init.i.i.i.peel, 12
  %60 = or disjoint i32 %y_z.i.i.i.peel, %_20.i.i.i.peel
  %_21.i.i.i.peel = icmp samesign ugt i8 %x.i.i.i.peel, -17
  br i1 %_21.i.i.i.peel, label %bb8.i.i.i.peel, label %bb22.i.i.peel

bb8.i.i.i.peel:                                   ; preds = %bb6.i21.i.i.peel
  %_16.i19.i.i.i.peel = getelementptr inbounds nuw i8, ptr %data.i.i.i.peel, i64 3
  %_6.i24.i.i.i.peel = icmp ne ptr %_16.i19.i.i.i.peel, %_48.i.i
  tail call void @llvm.assume(i1 %_6.i24.i.i.i.peel)
  %w.i.i.i.peel = load i8, ptr %_16.i19.i.i.i.peel, align 1, !noalias !48, !noundef !2
  %_26.i.i.i.peel = shl nuw nsw i32 %init.i.i.i.peel, 18
  %_25.i.i.i.peel = and i32 %_26.i.i.i.peel, 1835008
  %_43.i.i.i.peel = shl nuw nsw i32 %y_z.i.i.i.peel, 6
  %_45.i.i.i.peel = and i8 %w.i.i.i.peel, 63
  %_44.i.i.i.peel = zext nneg i8 %_45.i.i.i.peel to i32
  %_27.i.i.i.peel = or disjoint i32 %_43.i.i.i.peel, %_44.i.i.i.peel
  %61 = or disjoint i32 %_27.i.i.i.peel, %_25.i.i.i.peel
  br label %bb22.i.i.peel

bb3.i.i.i.peel:                                   ; preds = %bb14.i.i.i.peel
  %_7.i.i.i.peel = zext nneg i8 %x.i.i.i.peel to i32
  br label %bb22.i.i.peel

bb22.i.i.peel:                                    ; preds = %bb3.i.i.i.peel, %bb8.i.i.i.peel, %bb6.i21.i.i.peel, %bb4.i.i.i.peel
  %_0.sroa.4.0.i.ph.i.i.peel = phi i32 [ %59, %bb4.i.i.i.peel ], [ %60, %bb6.i21.i.i.peel ], [ %61, %bb8.i.i.i.peel ], [ %_7.i.i.i.peel, %bb3.i.i.i.peel ]
  %62 = icmp samesign ult i32 %_0.sroa.4.0.i.ph.i.i.peel, 1114112
  tail call void @llvm.assume(i1 %62)
  %_59.i.i.peel = icmp samesign ult i32 %_0.sroa.4.0.i.ph.i.i.peel, 128
  br i1 %_59.i.i.peel, label %bb5.i.i, label %bb26.i.i.peel

bb26.i.i.peel:                                    ; preds = %bb22.i.i.peel
  %_60.i.i.peel = icmp samesign ult i32 %_0.sroa.4.0.i.ph.i.i.peel, 2048
  br i1 %_60.i.i.peel, label %bb5.i.i, label %bb27.i.i.peel

bb27.i.i.peel:                                    ; preds = %bb26.i.i.peel
  %_61.i.i.peel = icmp samesign ult i32 %_0.sroa.4.0.i.ph.i.i.peel, 65536
  %..i.i.peel = select i1 %_61.i.i.peel, i64 3, i64 4
  br label %bb5.i.i

bb5.i.i:                                          ; preds = %bb22.i.i.peel, %bb26.i.i.peel, %bb27.i.i.peel
  %_14.sroa.0.0.i.i.peel = phi i64 [ 1, %bb22.i.i.peel ], [ %..i.i.peel, %bb27.i.i.peel ], [ 2, %bb26.i.i.peel ]
  %63 = add i64 %_14.sroa.0.0.i.i.peel, %iter.sroa.4.0229
  %64 = icmp eq i64 %63, 0
  br i1 %64, label %bb19.i.i, label %bb5.i.i.i

bb5.i.i.i:                                        ; preds = %bb5.i.i
  %_8.not.i.i.i = icmp ult i64 %63, %_97.sroa.13.0.copyload
  br i1 %_8.not.i.i.i, label %bb9.i.i.i, label %bb6.i.i.i33

bb6.i.i.i33:                                      ; preds = %bb5.i.i.i
  %65 = icmp eq i64 %63, %_97.sroa.13.0.copyload
  br i1 %65, label %bb19.i.i, label %bb18.i.i

bb9.i.i.i:                                        ; preds = %bb5.i.i.i
  %66 = getelementptr inbounds nuw i8, ptr %_97.sroa.12.0.copyload, i64 %63
  %self1.i.i.i = load i8, ptr %66, align 1, !alias.scope !38, !noalias !41, !noundef !2
  %67 = icmp sgt i8 %self1.i.i.i, -65
  br i1 %67, label %bb19.i.i, label %bb18.i.i

bb19.i.i:                                         ; preds = %bb9.i.i.i, %bb6.i.i.i33, %bb5.i.i
  %data.i.i.i = getelementptr inbounds nuw i8, ptr %_97.sroa.12.0.copyload, i64 %63
  %_6.i.i.i.i = icmp samesign eq i64 %63, %_97.sroa.13.0.copyload
  br i1 %_6.i.i.i.i, label %bb49, label %bb14.i.i.i

bb14.i.i.i:                                       ; preds = %bb19.i.i
  %x.i.i.i = load i8, ptr %data.i.i.i, align 1, !noalias !48, !noundef !2
  %_6.i.i.i = icmp sgt i8 %x.i.i.i, -1
  br i1 %_6.i.i.i, label %bb3.i.i.i, label %bb4.i.i.i

bb4.i.i.i:                                        ; preds = %bb14.i.i.i
  %_16.i.i.i.i = getelementptr inbounds nuw i8, ptr %data.i.i.i, i64 1
  %_30.i.i.i = and i8 %x.i.i.i, 31
  %init.i.i.i = zext nneg i8 %_30.i.i.i to i32
  %_6.i10.i.i.i = icmp ne ptr %_16.i.i.i.i, %_48.i.i
  tail call void @llvm.assume(i1 %_6.i10.i.i.i)
  %y.i.i.i = load i8, ptr %_16.i.i.i.i, align 1, !noalias !48, !noundef !2
  %_33.i.i.i = shl nuw nsw i32 %init.i.i.i, 6
  %_35.i.i.i = and i8 %y.i.i.i, 63
  %_34.i.i.i = zext nneg i8 %_35.i.i.i to i32
  %68 = or disjoint i32 %_33.i.i.i, %_34.i.i.i
  %_13.i.i.i = icmp samesign ugt i8 %x.i.i.i, -33
  br i1 %_13.i.i.i, label %bb6.i21.i.i, label %bb49.loopexit.loopexit

bb3.i.i.i:                                        ; preds = %bb14.i.i.i
  %_7.i.i.i = zext nneg i8 %x.i.i.i to i32
  br label %bb49.loopexit.loopexit

bb6.i21.i.i:                                      ; preds = %bb4.i.i.i
  %_16.i12.i.i.i = getelementptr inbounds nuw i8, ptr %data.i.i.i, i64 2
  %_6.i17.i.i.i = icmp ne ptr %_16.i12.i.i.i, %_48.i.i
  tail call void @llvm.assume(i1 %_6.i17.i.i.i)
  %z.i.i.i = load i8, ptr %_16.i12.i.i.i, align 1, !noalias !48, !noundef !2
  %_38.i.i.i = shl nuw nsw i32 %_34.i.i.i, 6
  %_40.i.i.i34 = and i8 %z.i.i.i, 63
  %_39.i.i.i = zext nneg i8 %_40.i.i.i34 to i32
  %y_z.i.i.i = or disjoint i32 %_38.i.i.i, %_39.i.i.i
  %_20.i.i.i = shl nuw nsw i32 %init.i.i.i, 12
  %69 = or disjoint i32 %y_z.i.i.i, %_20.i.i.i
  %_21.i.i.i = icmp samesign ugt i8 %x.i.i.i, -17
  br i1 %_21.i.i.i, label %bb8.i.i.i, label %bb49.loopexit.loopexit

bb8.i.i.i:                                        ; preds = %bb6.i21.i.i
  %_16.i19.i.i.i = getelementptr inbounds nuw i8, ptr %data.i.i.i, i64 3
  %_6.i24.i.i.i = icmp ne ptr %_16.i19.i.i.i, %_48.i.i
  tail call void @llvm.assume(i1 %_6.i24.i.i.i)
  %w.i.i.i = load i8, ptr %_16.i19.i.i.i, align 1, !noalias !48, !noundef !2
  %_26.i.i.i = shl nuw nsw i32 %init.i.i.i, 18
  %_25.i.i.i = and i32 %_26.i.i.i, 1835008
  %_43.i.i.i = shl nuw nsw i32 %y_z.i.i.i, 6
  %_45.i.i.i = and i8 %w.i.i.i, 63
  %_44.i.i.i = zext nneg i8 %_45.i.i.i to i32
  %_27.i.i.i = or disjoint i32 %_43.i.i.i, %_44.i.i.i
  %70 = or disjoint i32 %_27.i.i.i, %_25.i.i.i
  br label %bb49.loopexit.loopexit

bb18.i.i:                                         ; preds = %bb9.i.i.i.peel, %bb6.i.i.i33.peel, %bb9.i.i.i, %bb6.i.i.i33, %bb9.i.i.i.peel86, %bb6.i.i.i33.peel85, %bb9.i.i.i.peel.peel, %bb6.i.i.i33.peel.peel
  %iter.sroa.4.1.lcssa = phi i64 [ %_97.sroa.4.0.copyload, %bb6.i.i.i33.peel.peel ], [ %_97.sroa.4.0.copyload, %bb9.i.i.i.peel.peel ], [ %43, %bb6.i.i.i33.peel85 ], [ %43, %bb9.i.i.i.peel86 ], [ %iter.sroa.4.0229, %bb9.i.i.i.peel ], [ %iter.sroa.4.0229, %bb6.i.i.i33.peel ], [ %63, %bb9.i.i.i ], [ %63, %bb6.i.i.i33 ]
; invoke core::str::slice_error_fail
  invoke void @_RNvNtCsjMrxcFdYDNN_4core3str16slice_error_fail(ptr noalias noundef nonnull readonly align 1 captures(address, read_provenance) %_97.sroa.12.0.copyload, i64 noundef %_97.sroa.13.0.copyload, i64 noundef %iter.sroa.4.1.lcssa, i64 noundef %_97.sroa.13.0.copyload, ptr noalias noundef readonly align 8 captures(address, read_provenance) dereferenceable(24) @alloc_559c4f386b668c946885822cef1a587d) #35
          to label %.noexc unwind label %cleanup10.loopexit.split-lp

.noexc:                                           ; preds = %bb18.i.i
  unreachable

panic8.i97:                                       ; preds = %bb42.i94.us
  %71 = add i64 %8, %_0.sroa.0.0.i.i89.us
  %umax.i98 = tail call i64 @llvm.umax.i64(i64 range(i64 0, -9223372036854775808) %_97.sroa.13.0.copyload, i64 %71)
  br label %panic.i.invoke

panic.i.invoke:                                   ; preds = %bb27.i119.us, %bb46.i115.us, %bb27.i.us, %bb46.i.us, %panic8.i97, %panic8.i
  %72 = phi i64 [ %umax.i, %panic8.i ], [ %umax.i98, %panic8.i97 ], [ %_73.i.us, %bb46.i.us ], [ %_45.i.us, %bb27.i.us ], [ %_73.i116.us, %bb46.i115.us ], [ %_45.i120.us, %bb27.i119.us ]
  %73 = phi i64 [ %_97.sroa.13.0.copyload, %panic8.i ], [ %_97.sroa.13.0.copyload, %panic8.i97 ], [ %_97.sroa.15.0.copyload, %bb46.i.us ], [ %_97.sroa.13.0.copyload, %bb27.i.us ], [ %_97.sroa.15.0.copyload, %bb46.i115.us ], [ %_97.sroa.13.0.copyload, %bb27.i119.us ]
  %74 = phi ptr [ @alloc_cfc145f12794171662ae0bd5e97799ce, %panic8.i ], [ @alloc_cfc145f12794171662ae0bd5e97799ce, %panic8.i97 ], [ @alloc_3c3a438693b52af6c6b31c2cc77620da, %bb46.i.us ], [ @alloc_759b6db6182a2ae5f8169b55f322d553, %bb27.i.us ], [ @alloc_3c3a438693b52af6c6b31c2cc77620da, %bb46.i115.us ], [ @alloc_759b6db6182a2ae5f8169b55f322d553, %bb27.i119.us ]
; invoke core::panicking::panic_bounds_check
  invoke void @_RNvNtCsjMrxcFdYDNN_4core9panicking18panic_bounds_check(i64 noundef %72, i64 noundef range(i64 0, -9223372036854775808) %73, ptr noalias noundef readonly align 8 captures(address, read_provenance) dereferenceable(24) %74) #35
          to label %panic.i.cont unwind label %cleanup10.loopexit.split-lp

panic.i.cont:                                     ; preds = %panic.i.invoke
  unreachable

panic8.i:                                         ; preds = %bb42.i.us
  %75 = add i64 %19, %_97.sroa.4.0.copyload
  %umax.i = tail call i64 @llvm.umax.i64(i64 range(i64 0, -9223372036854775808) %_97.sroa.13.0.copyload, i64 %75)
  br label %panic.i.invoke

cleanup10.loopexit.split.loopexit:                ; preds = %bb1.i.i59, %bb1.i.i47
  %lpad.loopexit128 = landingpad { ptr, i32 }
          cleanup
  br label %bb25

cleanup10.loopexit.split.loopexit.split-lp:       ; preds = %bb1.i.i47.peel, %bb1.i.i59.peel
  %lpad.loopexit.split-lp129 = landingpad { ptr, i32 }
          cleanup
  br label %bb25

cleanup10.loopexit.split-lp:                      ; preds = %panic.i.invoke, %bb18.i.i
  %lpad.loopexit.split-lp = landingpad { ptr, i32 }
          cleanup
  br label %bb25

bb56:                                             ; preds = %bb21.i.i.peel, %bb19.i.i.peel, %bb8.i.us, %bb9.i.us, %bb37.sink.split.i.us, %bb37.i.us, %bb40.split
  %len.i.i = phi i64 [ 0, %bb40.split ], [ %len.i.i39.us, %bb37.i.us ], [ %len.i.i39.us, %bb37.sink.split.i.us ], [ %len.i.i39.us, %bb9.i.us ], [ %len.i.i39.us, %bb8.i.us ], [ 0, %bb21.i.i.peel ], [ %len.i.i39, %bb19.i.i.peel ]
  %last_end.sroa.0.0205 = phi i64 [ 0, %bb40.split ], [ %last_end.sroa.0.0.us, %bb37.i.us ], [ %last_end.sroa.0.0.us, %bb37.sink.split.i.us ], [ %last_end.sroa.0.0.us, %bb9.i.us ], [ %last_end.sroa.0.0.us, %bb8.i.us ], [ 0, %bb21.i.i.peel ], [ %iter.sroa.4.0229, %bb19.i.i.peel ]
  %gepdiff166 = sub nuw nsw i64 %self.1, %last_end.sroa.0.0205
  tail call void @llvm.experimental.noalias.scope.decl(metadata !57)
  %self2.i.i = load i64, ptr %result, align 8, !range !27, !alias.scope !60, !noundef !2
  %_9.i.i = sub i64 %self2.i.i, %len.i.i
  %_7.i.i = icmp ugt i64 %gepdiff166, %_9.i.i
  br i1 %_7.i.i, label %bb1.i.i, label %bb55, !prof !31

bb1.i.i:                                          ; preds = %bb56
; invoke <alloc::raw_vec::RawVecInner<_>>::reserve::do_reserve_and_handle::<alloc::alloc::Global>
  invoke fastcc void @_RINvNvMs2_NtCsdJPVW0sQgAG_5alloc7raw_vecINtB8_11RawVecInnerpE7reserve21do_reserve_and_handleNtNtBa_5alloc6GlobalECs4eyShm1h0hl_10serde_json(ptr noalias noundef nonnull align 8 dereferenceable(24) %result, i64 noundef %len.i.i, i64 noundef %gepdiff166, i64 noundef 1, i64 noundef 1)
          to label %.noexc38 unwind label %cleanup9

.noexc38:                                         ; preds = %bb1.i.i
  %len.pre.i = load i64, ptr %_94.sroa.5.0.result.sroa_idx, align 8, !alias.scope !57
  br label %bb55

bb55:                                             ; preds = %.noexc38, %bb56
  %len.i = phi i64 [ %len.i.i, %bb56 ], [ %len.pre.i, %.noexc38 ]
  %data = getelementptr inbounds nuw i8, ptr %self.0, i64 %last_end.sroa.0.0205
  %_9.i = icmp sgt i64 %len.i, -1
  tail call void @llvm.assume(i1 %_9.i)
  %_10.i37 = load ptr, ptr %_94.sroa.4.0.result.sroa_idx, align 8, !alias.scope !57, !nonnull !2, !noundef !2
  %dst.i = getelementptr inbounds nuw i8, ptr %_10.i37, i64 %len.i
  tail call void @llvm.memcpy.p0.p0.i64(ptr nonnull align 1 %dst.i, ptr nonnull readonly align 1 %data, i64 %gepdiff166, i1 false), !noalias !57
  %76 = add i64 %len.i, %gepdiff166
  store i64 %76, ptr %_94.sroa.5.0.result.sroa_idx, align 8, !alias.scope !57
  call void @llvm.memcpy.p0.p0.i64(ptr noundef nonnull align 8 dereferenceable(24) %_0, ptr noundef nonnull align 8 dereferenceable(24) %result, i64 24, i1 false)
  call void @llvm.lifetime.end.p0(i64 24, ptr nonnull %result)
  ret void

bb49.loopexit.loopexit:                           ; preds = %bb4.i.i.i, %bb3.i.i.i, %bb6.i21.i.i, %bb8.i.i.i
  %_0.sroa.4.0.i.ph.i.i = phi i32 [ %68, %bb4.i.i.i ], [ %69, %bb6.i21.i.i ], [ %70, %bb8.i.i.i ], [ %_7.i.i.i, %bb3.i.i.i ]
  %77 = icmp samesign ult i32 %_0.sroa.4.0.i.ph.i.i, 1114112
  tail call void @llvm.assume(i1 %77)
  br label %bb49

bb49:                                             ; preds = %bb19.i.i, %bb49.loopexit.loopexit
  %iter.sroa.4.1273 = phi i64 [ %63, %bb49.loopexit.loopexit ], [ %_97.sroa.13.0.copyload, %bb19.i.i ]
  %data13 = getelementptr inbounds nuw i8, ptr %self.0, i64 %iter.sroa.4.0229
  %gepdiff = sub nuw nsw i64 %iter.sroa.4.1273, %iter.sroa.4.0229
  tail call void @llvm.experimental.noalias.scope.decl(metadata !24)
  %self2.i.i40 = load i64, ptr %result, align 8, !range !27, !alias.scope !28, !noundef !2
  %_9.i.i41 = sub i64 %self2.i.i40, %len.i.i39
  %_7.i.i42 = icmp ugt i64 %gepdiff, %_9.i.i41
  br i1 %_7.i.i42, label %bb1.i.i47, label %bb51, !prof !31

bb1.i.i47:                                        ; preds = %bb49
; invoke <alloc::raw_vec::RawVecInner<_>>::reserve::do_reserve_and_handle::<alloc::alloc::Global>
  invoke fastcc void @_RINvNvMs2_NtCsdJPVW0sQgAG_5alloc7raw_vecINtB8_11RawVecInnerpE7reserve21do_reserve_and_handleNtNtBa_5alloc6GlobalECs4eyShm1h0hl_10serde_json(ptr noalias noundef nonnull align 8 dereferenceable(24) %result, i64 noundef %len.i.i39, i64 noundef %gepdiff, i64 noundef 1, i64 noundef 1)
          to label %.noexc49 unwind label %cleanup10.loopexit.split.loopexit

.noexc49:                                         ; preds = %bb1.i.i47
  %len.pre.i48 = load i64, ptr %_94.sroa.5.0.result.sroa_idx, align 8, !alias.scope !24
  %_10.i45.pre = load ptr, ptr %_94.sroa.4.0.result.sroa_idx, align 8, !alias.scope !24
  %self2.i.i52.pre = load i64, ptr %result, align 8, !range !27, !alias.scope !32
  br label %bb51

bb51:                                             ; preds = %bb49, %.noexc49
  %_10.i57282 = phi ptr [ %_10.i57283, %bb49 ], [ %_10.i45.pre, %.noexc49 ]
  %self2.i.i52 = phi i64 [ %self2.i.i40, %bb49 ], [ %self2.i.i52.pre, %.noexc49 ]
  %len.i43 = phi i64 [ %len.i.i39, %bb49 ], [ %len.pre.i48, %.noexc49 ]
  %_9.i44 = icmp sgt i64 %len.i43, -1
  tail call void @llvm.assume(i1 %_9.i44)
  %dst.i46 = getelementptr inbounds nuw i8, ptr %_10.i57282, i64 %len.i43
  tail call void @llvm.memcpy.p0.p0.i64(ptr nonnull align 1 %dst.i46, ptr nonnull readonly align 1 %data13, i64 %gepdiff, i1 false), !noalias !24
  %78 = add i64 %len.i43, %gepdiff
  store i64 %78, ptr %_94.sroa.5.0.result.sroa_idx, align 8, !alias.scope !24
  tail call void @llvm.experimental.noalias.scope.decl(metadata !37)
  %_7.i.i54 = icmp eq i64 %self2.i.i52, %78
  br i1 %_7.i.i54, label %bb1.i.i59, label %bb50, !prof !31

bb1.i.i59:                                        ; preds = %bb51
; invoke <alloc::raw_vec::RawVecInner<_>>::reserve::do_reserve_and_handle::<alloc::alloc::Global>
  invoke fastcc void @_RINvNvMs2_NtCsdJPVW0sQgAG_5alloc7raw_vecINtB8_11RawVecInnerpE7reserve21do_reserve_and_handleNtNtBa_5alloc6GlobalECs4eyShm1h0hl_10serde_json(ptr noalias noundef nonnull align 8 dereferenceable(24) %result, i64 noundef %self2.i.i52, i64 noundef 1, i64 noundef 1, i64 noundef 1)
          to label %.noexc61 unwind label %cleanup10.loopexit.split.loopexit

.noexc61:                                         ; preds = %bb1.i.i59
  %len.pre.i60 = load i64, ptr %_94.sroa.5.0.result.sroa_idx, align 8, !alias.scope !37
  %_10.i57.pre = load ptr, ptr %_94.sroa.4.0.result.sroa_idx, align 8, !alias.scope !37
  br label %bb50

bb50:                                             ; preds = %.noexc61, %bb51
  %_10.i57 = phi ptr [ %_10.i57282, %bb51 ], [ %_10.i57.pre, %.noexc61 ]
  %len.i55 = phi i64 [ %78, %bb51 ], [ %len.pre.i60, %.noexc61 ]
  %_9.i56 = icmp sgt i64 %len.i55, -1
  tail call void @llvm.assume(i1 %_9.i56)
  %dst.i58 = getelementptr inbounds nuw i8, ptr %_10.i57, i64 %len.i55
  %79 = load i8, ptr %to.0, align 1, !noalias !37
  store i8 %79, ptr %dst.i58, align 1, !noalias !37
  %80 = add nuw i64 %len.i55, 1
  store i64 %80, ptr %_94.sroa.5.0.result.sroa_idx, align 8, !alias.scope !37
  br label %bb5.i.lr.ph.i, !llvm.loop !63

bb26:                                             ; preds = %bb2.i.i.i4.i.i, %bb25
  resume { ptr, i32 } %.pn
}

; <std::io::error::Error>::new::<serde_json::error::Error>
; Function Attrs: noinline uwtable
define noundef nonnull ptr @_RINvMs5_NtNtCs5sEH5CPMdak_3std2io5errorNtB6_5Error3newNtNtCs4eyShm1h0hl_10serde_json5error5ErrorEBU_(i8 noundef range(i8 0, 42) %kind, ptr noalias noundef nonnull align 8 %error) unnamed_addr #2 personality ptr @rust_eh_personality {
start:
  %x.i.i.i = alloca [8 x i8], align 8
  call void @llvm.lifetime.start.p0(i64 8, ptr nonnull %x.i.i.i), !noalias !65
  store ptr %error, ptr %x.i.i.i, align 8, !noalias !70
; call __rustc::__rust_no_alloc_shim_is_unstable_v2
  tail call void @_RNvCsKhRCbHf33p_7___rustc35___rust_no_alloc_shim_is_unstable_v2() #34
; call __rustc::__rust_alloc
  %0 = tail call noundef align 8 dereferenceable_or_null(8) ptr @_RNvCsKhRCbHf33p_7___rustc12___rust_alloc(i64 noundef 8, i64 noundef 8) #34
  %1 = icmp eq ptr %0, null
  br i1 %1, label %bb2.i.i.i, label %_RNvXs1_NtCsjMrxcFdYDNN_4core7convertNtNtCs4eyShm1h0hl_10serde_json5error5ErrorINtB5_4IntoINtNtCsdJPVW0sQgAG_5alloc5boxed3BoxDNtNtB7_5error5ErrorNtNtB7_6marker4SendNtB2k_4SyncEL_EE4intoBC_.exit, !prof !31

bb2.i.i.i:                                        ; preds = %start
; invoke alloc::alloc::handle_alloc_error
  invoke void @_RNvNtCsdJPVW0sQgAG_5alloc5alloc18handle_alloc_error(i64 noundef 8, i64 noundef 8) #36
          to label %.noexc.i.i unwind label %cleanup.i.i.i

.noexc.i.i:                                       ; preds = %bb2.i.i.i
  unreachable

cleanup.i.i.i:                                    ; preds = %bb2.i.i.i
  %2 = landingpad { ptr, i32 }
          cleanup
; invoke core::ptr::drop_in_place::<serde_json::error::Error>
  invoke void @_RINvNtCsjMrxcFdYDNN_4core3ptr13drop_in_placeNtNtCs4eyShm1h0hl_10serde_json5error5ErrorEBK_(ptr noalias noundef nonnull align 8 dereferenceable(8) %x.i.i.i) #37
          to label %bb3.i.i.i unwind label %terminate.i.i.i

terminate.i.i.i:                                  ; preds = %cleanup.i.i.i
  %3 = landingpad { ptr, i32 }
          filter [0 x ptr] zeroinitializer
; call core::panicking::panic_in_cleanup
  tail call void @_RNvNtCsjMrxcFdYDNN_4core9panicking16panic_in_cleanup() #38
  unreachable

bb3.i.i.i:                                        ; preds = %cleanup.i.i.i
  resume { ptr, i32 } %2

_RNvXs1_NtCsjMrxcFdYDNN_4core7convertNtNtCs4eyShm1h0hl_10serde_json5error5ErrorINtB5_4IntoINtNtCsdJPVW0sQgAG_5alloc5boxed3BoxDNtNtB7_5error5ErrorNtNtB7_6marker4SendNtB2k_4SyncEL_EE4intoBC_.exit: ; preds = %start
  store ptr %error, ptr %0, align 8
  call void @llvm.lifetime.end.p0(i64 8, ptr nonnull %x.i.i.i), !noalias !65
; call <std::io::error::Error>::_new
  %_0 = tail call noundef nonnull ptr @_RNvMs5_NtNtCs5sEH5CPMdak_3std2io5errorNtB5_5Error4__new(i8 noundef %kind, ptr noundef nonnull align 1 %0, ptr noalias noundef readonly align 8 captures(address, read_provenance) dereferenceable(80) @vtable.9)
  ret ptr %_0
}

; <serde_json::value::Value>::invalid_type::<serde_json::error::Error>
; Function Attrs: cold uwtable
define internal fastcc noalias noundef nonnull align 8 ptr @_RINvMsm_NtNtCs4eyShm1h0hl_10serde_json5value2deNtB8_5Value12invalid_typeNtNtBa_5error5ErrorEBa_(ptr noalias noundef nonnull readonly align 8 captures(none) dereferenceable(32) %self, ptr noundef nonnull align 1 %exp.0) unnamed_addr #0 {
start:
  %_3 = alloca [24 x i8], align 8
  call void @llvm.lifetime.start.p0(i64 24, ptr nonnull %_3)
; call <serde_json::value::Value>::unexpected
  call void @_RNvMsm_NtNtCs4eyShm1h0hl_10serde_json5value2deNtB7_5Value10unexpected(ptr noalias noundef nonnull sret([24 x i8]) align 8 captures(address) dereferenceable(24) %_3, ptr noalias noundef nonnull readonly align 8 captures(address, read_provenance) dereferenceable(32) %self)
; call <serde_json::error::Error as serde_core::de::Error>::invalid_type
  %_0 = call noundef nonnull align 8 ptr @_RNvXs6_NtCs4eyShm1h0hl_10serde_json5errorNtB5_5ErrorNtNtCsasqbmkB9jT1_10serde_core2de5Error12invalid_type(ptr noalias noundef nonnull readonly align 8 captures(none) dereferenceable(24) %_3, ptr noundef nonnull align 1 %exp.0, ptr noalias noundef readonly align 8 captures(address, read_provenance) dereferenceable(32) @vtable.2)
  call void @llvm.lifetime.end.p0(i64 24, ptr nonnull %_3)
  ret ptr %_0
}

; <core::str::pattern::TwoWaySearcher>::next_back::<core::str::pattern::MatchOnly>
; Function Attrs: inlinehint uwtable
define internal fastcc void @_RINvMsx_NtNtCsjMrxcFdYDNN_4core3str7patternNtB6_14TwoWaySearcher9next_backNtB6_9MatchOnlyECs4eyShm1h0hl_10serde_json(ptr dead_on_unwind noalias noundef nonnull writable writeonly align 8 captures(none) dereferenceable(24) %_0, ptr noalias noundef nonnull align 8 captures(none) dereferenceable(64) %self, ptr noalias noundef nonnull readonly align 1 captures(none) %haystack.0, i64 noundef range(i64 0, -9223372036854775808) %haystack.1, ptr noalias noundef nonnull readonly align 1 captures(none) %needle.0, i64 noundef range(i64 0, -9223372036854775808) %needle.1, i1 noundef zeroext %long_period) unnamed_addr #1 personality ptr @rust_eh_personality {
start:
  %0 = getelementptr inbounds nuw i8, ptr %self, i64 40
  %.promoted = load i64, ptr %0, align 8
  %index30 = sub i64 %.promoted, %needle.1
  %_5331 = icmp ult i64 %index30, %haystack.1
  br i1 %_5331, label %bb39.lr.ph, label %bb40

bb39.lr.ph:                                       ; preds = %start
  %1 = getelementptr inbounds nuw i8, ptr %self, i64 24
  %_58 = load i64, ptr %1, align 8, !noundef !2
  %2 = getelementptr inbounds nuw i8, ptr %self, i64 8
  %v1 = load i64, ptr %2, align 8
  %3 = getelementptr inbounds nuw i8, ptr %self, i64 56
  %4 = getelementptr inbounds nuw i8, ptr %self, i64 16
  %_47 = load i64, ptr %4, align 8
  %.promoted33 = load i64, ptr %3, align 8
  %umax = tail call i64 @llvm.umax.i64(i64 %v1, i64 %needle.1)
  br label %bb39

bb40:                                             ; preds = %bb37, %start
  store i64 0, ptr %0, align 8
  br label %bb38

bb39:                                             ; preds = %bb39.lr.ph, %bb37
  %v235 = phi i64 [ %.promoted33, %bb39.lr.ph ], [ %v234, %bb37 ]
  %index32 = phi i64 [ %index30, %bb39.lr.ph ], [ %index, %bb37 ]
  %5 = phi i64 [ %.promoted, %bb39.lr.ph ], [ %10, %bb37 ]
  %_55 = getelementptr inbounds nuw i8, ptr %haystack.0, i64 %index32
  %front_byte = load i8, ptr %_55, align 1, !noundef !2
  %_60 = and i8 %front_byte, 63
  %_59 = zext nneg i8 %_60 to i64
  %6 = shl nuw i64 1, %_59
  %7 = and i64 %6, %_58
  %8 = icmp eq i64 %7, 0
  br i1 %8, label %bb10, label %bb9

bb38:                                             ; preds = %bb34, %bb40
  %storemerge = phi i64 [ 0, %bb40 ], [ 1, %bb34 ]
  store i64 %storemerge, ptr %_0, align 8
  ret void

bb10:                                             ; preds = %bb39
  store i64 %index32, ptr %0, align 8
  br i1 %long_period, label %bb37, label %bb37.sink.split

bb9:                                              ; preds = %bb39
  %_0.sroa.0.0.i = tail call i64 @llvm.umin.i64(i64 %v235, i64 %v1)
  %crit.sroa.0.0 = select i1 %long_period, i64 %v1, i64 %_0.sroa.0.0.i
  %9 = add i64 %crit.sroa.0.0, -1
  %_25.first_iter = icmp ult i64 %9, %needle.1
  br label %bb16

bb37.sink.split:                                  ; preds = %bb10, %bb19, %bb29
  %needle.1.sink = phi i64 [ %_47, %bb29 ], [ %needle.1, %bb19 ], [ %needle.1, %bb10 ]
  %.ph = phi i64 [ %16, %bb29 ], [ %19, %bb19 ], [ %index32, %bb10 ]
  store i64 %needle.1.sink, ptr %3, align 8
  br label %bb37

bb37:                                             ; preds = %bb37.sink.split, %bb19, %bb29, %bb10
  %v234 = phi i64 [ %v235, %bb19 ], [ %v235, %bb29 ], [ %v235, %bb10 ], [ %needle.1.sink, %bb37.sink.split ]
  %10 = phi i64 [ %19, %bb19 ], [ %16, %bb29 ], [ %index32, %bb10 ], [ %.ph, %bb37.sink.split ]
  %index = sub i64 %10, %needle.1
  %_53 = icmp ult i64 %index, %haystack.1
  br i1 %_53, label %bb39, label %bb40

bb16:                                             ; preds = %bb18, %bb9
  %iter.sroa.2.0 = phi i64 [ %crit.sroa.0.0, %bb9 ], [ %_65, %bb18 ]
  %_62.not = icmp eq i64 %iter.sroa.2.0, 0
  br i1 %_62.not, label %bb43, label %bb42

bb43:                                             ; preds = %bb16
  %needle_end.sroa.0.0 = select i1 %long_period, i64 %needle.1, i64 %v235
  %umax55 = tail call i64 @llvm.umax.i64(i64 %needle_end.sroa.0.0, i64 %v1)
  br label %bb26

bb42:                                             ; preds = %bb16
  %_65 = add i64 %iter.sroa.2.0, -1
  br i1 %_25.first_iter, label %bb17, label %panic6

bb26:                                             ; preds = %bb28, %bb43
  %iter1.sroa.0.0 = phi i64 [ %v1, %bb43 ], [ %_75, %bb28 ]
  %exitcond.not = icmp eq i64 %iter1.sroa.0.0, %umax55
  br i1 %exitcond.not, label %bb47, label %bb46

bb47:                                             ; preds = %bb26
  store i64 %index32, ptr %0, align 8
  br i1 %long_period, label %bb34, label %bb33

bb46:                                             ; preds = %bb26
  %_75 = add i64 %iter1.sroa.0.0, 1
  %exitcond56.not = icmp eq i64 %iter1.sroa.0.0, %umax
  br i1 %exitcond56.not, label %panic, label %bb27

bb33:                                             ; preds = %bb47
  store i64 %needle.1, ptr %3, align 8
  br label %bb34

bb34:                                             ; preds = %bb33, %bb47
  %11 = getelementptr inbounds nuw i8, ptr %_0, i64 8
  store i64 %index32, ptr %11, align 8, !alias.scope !73
  %12 = getelementptr inbounds nuw i8, ptr %_0, i64 16
  store i64 %5, ptr %12, align 8, !alias.scope !73
  br label %bb38

bb27:                                             ; preds = %bb46
  %_43 = add i64 %iter1.sroa.0.0, %index32
  %_46 = icmp ult i64 %_43, %haystack.1
  br i1 %_46, label %bb28, label %panic3

panic:                                            ; preds = %bb46
; call core::panicking::panic_bounds_check
  tail call void @_RNvNtCsjMrxcFdYDNN_4core9panicking18panic_bounds_check(i64 noundef %umax, i64 noundef %needle.1, ptr noalias noundef readonly align 8 captures(address, read_provenance) dereferenceable(24) @alloc_d9a7fae6784522552c3523d16454ba0e) #35
  unreachable

bb28:                                             ; preds = %bb27
  %13 = getelementptr inbounds nuw i8, ptr %needle.0, i64 %iter1.sroa.0.0
  %_40 = load i8, ptr %13, align 1, !noundef !2
  %14 = getelementptr inbounds nuw i8, ptr %haystack.0, i64 %_43
  %_42 = load i8, ptr %14, align 1, !noundef !2
  %_39.not = icmp eq i8 %_40, %_42
  br i1 %_39.not, label %bb26, label %bb29

panic3:                                           ; preds = %bb27
  %15 = add i64 %v1, %index32
  %umax54 = tail call i64 @llvm.umax.i64(i64 %haystack.1, i64 %15)
; call core::panicking::panic_bounds_check
  tail call void @_RNvNtCsjMrxcFdYDNN_4core9panicking18panic_bounds_check(i64 noundef %umax54, i64 noundef %haystack.1, ptr noalias noundef readonly align 8 captures(address, read_provenance) dereferenceable(24) @alloc_9e39757bd1fa8efb7cf0d775b7bcbb77) #35
  unreachable

bb29:                                             ; preds = %bb28
  %16 = sub i64 %5, %_47
  store i64 %16, ptr %0, align 8
  br i1 %long_period, label %bb37, label %bb37.sink.split

bb17:                                             ; preds = %bb42
  %_27 = add i64 %_65, %index32
  %_30 = icmp ult i64 %_27, %haystack.1
  br i1 %_30, label %bb18, label %panic7

panic6:                                           ; preds = %bb42
; call core::panicking::panic_bounds_check
  tail call void @_RNvNtCsjMrxcFdYDNN_4core9panicking18panic_bounds_check(i64 noundef %_65, i64 noundef %needle.1, ptr noalias noundef readonly align 8 captures(address, read_provenance) dereferenceable(24) @alloc_25601c86ae316bbfd169db6af39c4e33) #35
  unreachable

bb18:                                             ; preds = %bb17
  %17 = getelementptr inbounds nuw i8, ptr %needle.0, i64 %_65
  %_24 = load i8, ptr %17, align 1, !noundef !2
  %18 = getelementptr inbounds nuw i8, ptr %haystack.0, i64 %_27
  %_26 = load i8, ptr %18, align 1, !noundef !2
  %_23.not = icmp eq i8 %_24, %_26
  br i1 %_23.not, label %bb16, label %bb19

panic7:                                           ; preds = %bb17
; call core::panicking::panic_bounds_check
  tail call void @_RNvNtCsjMrxcFdYDNN_4core9panicking18panic_bounds_check(i64 noundef %_27, i64 noundef %haystack.1, ptr noalias noundef readonly align 8 captures(address, read_provenance) dereferenceable(24) @alloc_aa0c12c11733320f8c8ee2d17b62155d) #35
  unreachable

bb19:                                             ; preds = %bb18
  %_31.neg = add i64 %_65, %5
  %19 = sub i64 %_31.neg, %v1
  store i64 %19, ptr %0, align 8
  br i1 %long_period, label %bb37, label %bb37.sink.split
}

; serde_json::read::parse_escape::<serde_json::read::SliceRead>
; Function Attrs: uwtable
define internal fastcc noundef align 8 ptr @_RINvNtCs4eyShm1h0hl_10serde_json4read12parse_escapeNtB2_9SliceReadEB4_(ptr noalias noundef nonnull align 8 captures(none) dereferenceable(24) %read, i1 noundef zeroext %validate, ptr noalias noundef nonnull align 8 dereferenceable(24) %scratch) unnamed_addr #3 personality ptr @rust_eh_personality {
start:
  %_9.i = alloca [24 x i8], align 8
  %_9 = alloca [24 x i8], align 8
  %_4 = alloca [16 x i8], align 8
  call void @llvm.lifetime.start.p0(i64 16, ptr nonnull %_4)
  tail call void @llvm.experimental.noalias.scope.decl(metadata !76)
  tail call void @llvm.experimental.noalias.scope.decl(metadata !79)
  tail call void @llvm.experimental.noalias.scope.decl(metadata !81)
  %0 = getelementptr inbounds nuw i8, ptr %read, i64 16
  %_4.i.i = load i64, ptr %0, align 8, !alias.scope !84, !noalias !85, !noundef !2
  %1 = getelementptr inbounds nuw i8, ptr %read, i64 8
  %_10.1.i.i = load i64, ptr %1, align 8, !alias.scope !84, !noalias !85, !noundef !2
  %_3.i.i = icmp ult i64 %_4.i.i, %_10.1.i.i
  br i1 %_3.i.i, label %_RINvNtCs4eyShm1h0hl_10serde_json4read11next_or_eofNtB2_9SliceReadEB4_.exit.thread, label %_RINvNtCs4eyShm1h0hl_10serde_json4read11next_or_eofNtB2_9SliceReadEB4_.exit

_RINvNtCs4eyShm1h0hl_10serde_json4read11next_or_eofNtB2_9SliceReadEB4_.exit.thread: ; preds = %start
  %_12.0.i.i = load ptr, ptr %read, align 8, !alias.scope !84, !noalias !85, !nonnull !2, !align !87, !noundef !2
  %2 = getelementptr inbounds nuw i8, ptr %_12.0.i.i, i64 %_4.i.i
  %ch.i.i = load i8, ptr %2, align 1, !noalias !88, !noundef !2
  %3 = add nuw i64 %_4.i.i, 1
  store i64 %3, ptr %0, align 8, !alias.scope !84, !noalias !85
  %4 = getelementptr inbounds nuw i8, ptr %_4, i64 1
  store i8 %ch.i.i, ptr %4, align 1, !alias.scope !76, !noalias !79
  br label %bb4

_RINvNtCs4eyShm1h0hl_10serde_json4read11next_or_eofNtB2_9SliceReadEB4_.exit: ; preds = %start
  call void @llvm.lifetime.start.p0(i64 24, ptr nonnull %_9.i), !noalias !89
  store i64 4, ptr %_9.i, align 8, !noalias !89
; call serde_json::read::error::<serde_json::read::SliceRead, u8>
  call fastcc void @_RINvNtCs4eyShm1h0hl_10serde_json4read5errorNtB2_9SliceReadhEB4_(ptr noalias noundef nonnull align 8 captures(none) dereferenceable(16) %_4, ptr noalias noundef nonnull readonly align 8 captures(address, read_provenance) dereferenceable(24) %read, ptr noalias noundef align 8 captures(address) dereferenceable(24) %_9.i)
  call void @llvm.lifetime.end.p0(i64 24, ptr nonnull %_9.i), !noalias !89
  %.pre = load i8, ptr %_4, align 8, !range !90
  %extract.t = trunc nuw i8 %.pre to i1
  br i1 %extract.t, label %bb3, label %bb4

bb3:                                              ; preds = %_RINvNtCs4eyShm1h0hl_10serde_json4read11next_or_eofNtB2_9SliceReadEB4_.exit
  %5 = getelementptr inbounds nuw i8, ptr %_4, i64 8
  %err = load ptr, ptr %5, align 8, !nonnull !2, !align !91, !noundef !2
  call void @llvm.lifetime.end.p0(i64 16, ptr nonnull %_4)
  br label %bb18

bb4:                                              ; preds = %_RINvNtCs4eyShm1h0hl_10serde_json4read11next_or_eofNtB2_9SliceReadEB4_.exit.thread, %_RINvNtCs4eyShm1h0hl_10serde_json4read11next_or_eofNtB2_9SliceReadEB4_.exit
  %6 = getelementptr inbounds nuw i8, ptr %_4, i64 1
  %ch = load i8, ptr %6, align 1, !noundef !2
  call void @llvm.lifetime.end.p0(i64 16, ptr nonnull %_4)
  switch i8 %ch, label %bb5 [
    i8 34, label %bb14
    i8 92, label %bb13
    i8 47, label %bb12
    i8 98, label %bb11
    i8 102, label %bb10
    i8 110, label %bb9
    i8 114, label %bb8
    i8 116, label %bb7
    i8 117, label %bb6
  ], !prof !92

bb5:                                              ; preds = %bb4
  call void @llvm.lifetime.start.p0(i64 24, ptr nonnull %_9)
  store i64 12, ptr %_9, align 8
; call serde_json::read::error::<serde_json::read::SliceRead, ()>
  %7 = call fastcc noundef align 8 ptr @_RINvNtCs4eyShm1h0hl_10serde_json4read5errorNtB2_9SliceReaduEB4_(ptr noalias noundef readonly align 8 captures(address, read_provenance) dereferenceable(24) %read, ptr noalias noundef align 8 captures(address) dereferenceable(24) %_9)
  call void @llvm.lifetime.end.p0(i64 24, ptr nonnull %_9)
  br label %bb18

bb14:                                             ; preds = %bb4
  %8 = getelementptr inbounds nuw i8, ptr %scratch, i64 16
  %len.i = load i64, ptr %8, align 8, !alias.scope !93, !noundef !2
  %self1.i = load i64, ptr %scratch, align 8, !range !27, !alias.scope !93, !noundef !2
  %_4.i = icmp eq i64 %len.i, %self1.i
  br i1 %_4.i, label %bb1.i, label %_RNvMsF_NtCsdJPVW0sQgAG_5alloc3vecINtB5_3VechE8push_mutCs4eyShm1h0hl_10serde_json.exit

bb1.i:                                            ; preds = %bb14
; call <alloc::raw_vec::RawVec<u8>>::grow_one
  tail call void @_RNvMs3_NtCsdJPVW0sQgAG_5alloc7raw_vecINtB5_6RawVechE8grow_oneB7_(ptr noalias noundef nonnull align 8 dereferenceable(24) %scratch)
  br label %_RNvMsF_NtCsdJPVW0sQgAG_5alloc3vecINtB5_3VechE8push_mutCs4eyShm1h0hl_10serde_json.exit

_RNvMsF_NtCsdJPVW0sQgAG_5alloc3vecINtB5_3VechE8push_mutCs4eyShm1h0hl_10serde_json.exit: ; preds = %bb14, %bb1.i
  %9 = getelementptr inbounds nuw i8, ptr %scratch, i64 8
  %_14.i = load ptr, ptr %9, align 8, !alias.scope !93, !nonnull !2, !noundef !2
  %end.i = getelementptr inbounds nuw i8, ptr %_14.i, i64 %len.i
  store i8 34, ptr %end.i, align 1
  %10 = add i64 %len.i, 1
  store i64 %10, ptr %8, align 8, !alias.scope !93
  br label %bb18

bb13:                                             ; preds = %bb4
  %11 = getelementptr inbounds nuw i8, ptr %scratch, i64 16
  %len.i1 = load i64, ptr %11, align 8, !alias.scope !96, !noundef !2
  %self1.i2 = load i64, ptr %scratch, align 8, !range !27, !alias.scope !96, !noundef !2
  %_4.i3 = icmp eq i64 %len.i1, %self1.i2
  br i1 %_4.i3, label %bb1.i6, label %_RNvMsF_NtCsdJPVW0sQgAG_5alloc3vecINtB5_3VechE8push_mutCs4eyShm1h0hl_10serde_json.exit7

bb1.i6:                                           ; preds = %bb13
; call <alloc::raw_vec::RawVec<u8>>::grow_one
  tail call void @_RNvMs3_NtCsdJPVW0sQgAG_5alloc7raw_vecINtB5_6RawVechE8grow_oneB7_(ptr noalias noundef nonnull align 8 dereferenceable(24) %scratch)
  br label %_RNvMsF_NtCsdJPVW0sQgAG_5alloc3vecINtB5_3VechE8push_mutCs4eyShm1h0hl_10serde_json.exit7

_RNvMsF_NtCsdJPVW0sQgAG_5alloc3vecINtB5_3VechE8push_mutCs4eyShm1h0hl_10serde_json.exit7: ; preds = %bb13, %bb1.i6
  %12 = getelementptr inbounds nuw i8, ptr %scratch, i64 8
  %_14.i4 = load ptr, ptr %12, align 8, !alias.scope !96, !nonnull !2, !noundef !2
  %end.i5 = getelementptr inbounds nuw i8, ptr %_14.i4, i64 %len.i1
  store i8 92, ptr %end.i5, align 1
  %13 = add i64 %len.i1, 1
  store i64 %13, ptr %11, align 8, !alias.scope !96
  br label %bb18

bb12:                                             ; preds = %bb4
  %14 = getelementptr inbounds nuw i8, ptr %scratch, i64 16
  %len.i8 = load i64, ptr %14, align 8, !alias.scope !99, !noundef !2
  %self1.i9 = load i64, ptr %scratch, align 8, !range !27, !alias.scope !99, !noundef !2
  %_4.i10 = icmp eq i64 %len.i8, %self1.i9
  br i1 %_4.i10, label %bb1.i13, label %_RNvMsF_NtCsdJPVW0sQgAG_5alloc3vecINtB5_3VechE8push_mutCs4eyShm1h0hl_10serde_json.exit14

bb1.i13:                                          ; preds = %bb12
; call <alloc::raw_vec::RawVec<u8>>::grow_one
  tail call void @_RNvMs3_NtCsdJPVW0sQgAG_5alloc7raw_vecINtB5_6RawVechE8grow_oneB7_(ptr noalias noundef nonnull align 8 dereferenceable(24) %scratch)
  br label %_RNvMsF_NtCsdJPVW0sQgAG_5alloc3vecINtB5_3VechE8push_mutCs4eyShm1h0hl_10serde_json.exit14

_RNvMsF_NtCsdJPVW0sQgAG_5alloc3vecINtB5_3VechE8push_mutCs4eyShm1h0hl_10serde_json.exit14: ; preds = %bb12, %bb1.i13
  %15 = getelementptr inbounds nuw i8, ptr %scratch, i64 8
  %_14.i11 = load ptr, ptr %15, align 8, !alias.scope !99, !nonnull !2, !noundef !2
  %end.i12 = getelementptr inbounds nuw i8, ptr %_14.i11, i64 %len.i8
  store i8 47, ptr %end.i12, align 1
  %16 = add i64 %len.i8, 1
  store i64 %16, ptr %14, align 8, !alias.scope !99
  br label %bb18

bb11:                                             ; preds = %bb4
  %17 = getelementptr inbounds nuw i8, ptr %scratch, i64 16
  %len.i15 = load i64, ptr %17, align 8, !alias.scope !102, !noundef !2
  %self1.i16 = load i64, ptr %scratch, align 8, !range !27, !alias.scope !102, !noundef !2
  %_4.i17 = icmp eq i64 %len.i15, %self1.i16
  br i1 %_4.i17, label %bb1.i20, label %_RNvMsF_NtCsdJPVW0sQgAG_5alloc3vecINtB5_3VechE8push_mutCs4eyShm1h0hl_10serde_json.exit21

bb1.i20:                                          ; preds = %bb11
; call <alloc::raw_vec::RawVec<u8>>::grow_one
  tail call void @_RNvMs3_NtCsdJPVW0sQgAG_5alloc7raw_vecINtB5_6RawVechE8grow_oneB7_(ptr noalias noundef nonnull align 8 dereferenceable(24) %scratch)
  br label %_RNvMsF_NtCsdJPVW0sQgAG_5alloc3vecINtB5_3VechE8push_mutCs4eyShm1h0hl_10serde_json.exit21

_RNvMsF_NtCsdJPVW0sQgAG_5alloc3vecINtB5_3VechE8push_mutCs4eyShm1h0hl_10serde_json.exit21: ; preds = %bb11, %bb1.i20
  %18 = getelementptr inbounds nuw i8, ptr %scratch, i64 8
  %_14.i18 = load ptr, ptr %18, align 8, !alias.scope !102, !nonnull !2, !noundef !2
  %end.i19 = getelementptr inbounds nuw i8, ptr %_14.i18, i64 %len.i15
  store i8 8, ptr %end.i19, align 1
  %19 = add i64 %len.i15, 1
  store i64 %19, ptr %17, align 8, !alias.scope !102
  br label %bb18

bb10:                                             ; preds = %bb4
  %20 = getelementptr inbounds nuw i8, ptr %scratch, i64 16
  %len.i22 = load i64, ptr %20, align 8, !alias.scope !105, !noundef !2
  %self1.i23 = load i64, ptr %scratch, align 8, !range !27, !alias.scope !105, !noundef !2
  %_4.i24 = icmp eq i64 %len.i22, %self1.i23
  br i1 %_4.i24, label %bb1.i27, label %_RNvMsF_NtCsdJPVW0sQgAG_5alloc3vecINtB5_3VechE8push_mutCs4eyShm1h0hl_10serde_json.exit28

bb1.i27:                                          ; preds = %bb10
; call <alloc::raw_vec::RawVec<u8>>::grow_one
  tail call void @_RNvMs3_NtCsdJPVW0sQgAG_5alloc7raw_vecINtB5_6RawVechE8grow_oneB7_(ptr noalias noundef nonnull align 8 dereferenceable(24) %scratch)
  br label %_RNvMsF_NtCsdJPVW0sQgAG_5alloc3vecINtB5_3VechE8push_mutCs4eyShm1h0hl_10serde_json.exit28

_RNvMsF_NtCsdJPVW0sQgAG_5alloc3vecINtB5_3VechE8push_mutCs4eyShm1h0hl_10serde_json.exit28: ; preds = %bb10, %bb1.i27
  %21 = getelementptr inbounds nuw i8, ptr %scratch, i64 8
  %_14.i25 = load ptr, ptr %21, align 8, !alias.scope !105, !nonnull !2, !noundef !2
  %end.i26 = getelementptr inbounds nuw i8, ptr %_14.i25, i64 %len.i22
  store i8 12, ptr %end.i26, align 1
  %22 = add i64 %len.i22, 1
  store i64 %22, ptr %20, align 8, !alias.scope !105
  br label %bb18

bb9:                                              ; preds = %bb4
  %23 = getelementptr inbounds nuw i8, ptr %scratch, i64 16
  %len.i29 = load i64, ptr %23, align 8, !alias.scope !108, !noundef !2
  %self1.i30 = load i64, ptr %scratch, align 8, !range !27, !alias.scope !108, !noundef !2
  %_4.i31 = icmp eq i64 %len.i29, %self1.i30
  br i1 %_4.i31, label %bb1.i34, label %_RNvMsF_NtCsdJPVW0sQgAG_5alloc3vecINtB5_3VechE8push_mutCs4eyShm1h0hl_10serde_json.exit35

bb1.i34:                                          ; preds = %bb9
; call <alloc::raw_vec::RawVec<u8>>::grow_one
  tail call void @_RNvMs3_NtCsdJPVW0sQgAG_5alloc7raw_vecINtB5_6RawVechE8grow_oneB7_(ptr noalias noundef nonnull align 8 dereferenceable(24) %scratch)
  br label %_RNvMsF_NtCsdJPVW0sQgAG_5alloc3vecINtB5_3VechE8push_mutCs4eyShm1h0hl_10serde_json.exit35

_RNvMsF_NtCsdJPVW0sQgAG_5alloc3vecINtB5_3VechE8push_mutCs4eyShm1h0hl_10serde_json.exit35: ; preds = %bb9, %bb1.i34
  %24 = getelementptr inbounds nuw i8, ptr %scratch, i64 8
  %_14.i32 = load ptr, ptr %24, align 8, !alias.scope !108, !nonnull !2, !noundef !2
  %end.i33 = getelementptr inbounds nuw i8, ptr %_14.i32, i64 %len.i29
  store i8 10, ptr %end.i33, align 1
  %25 = add i64 %len.i29, 1
  store i64 %25, ptr %23, align 8, !alias.scope !108
  br label %bb18

bb8:                                              ; preds = %bb4
  %26 = getelementptr inbounds nuw i8, ptr %scratch, i64 16
  %len.i36 = load i64, ptr %26, align 8, !alias.scope !111, !noundef !2
  %self1.i37 = load i64, ptr %scratch, align 8, !range !27, !alias.scope !111, !noundef !2
  %_4.i38 = icmp eq i64 %len.i36, %self1.i37
  br i1 %_4.i38, label %bb1.i41, label %_RNvMsF_NtCsdJPVW0sQgAG_5alloc3vecINtB5_3VechE8push_mutCs4eyShm1h0hl_10serde_json.exit42

bb1.i41:                                          ; preds = %bb8
; call <alloc::raw_vec::RawVec<u8>>::grow_one
  tail call void @_RNvMs3_NtCsdJPVW0sQgAG_5alloc7raw_vecINtB5_6RawVechE8grow_oneB7_(ptr noalias noundef nonnull align 8 dereferenceable(24) %scratch)
  br label %_RNvMsF_NtCsdJPVW0sQgAG_5alloc3vecINtB5_3VechE8push_mutCs4eyShm1h0hl_10serde_json.exit42

_RNvMsF_NtCsdJPVW0sQgAG_5alloc3vecINtB5_3VechE8push_mutCs4eyShm1h0hl_10serde_json.exit42: ; preds = %bb8, %bb1.i41
  %27 = getelementptr inbounds nuw i8, ptr %scratch, i64 8
  %_14.i39 = load ptr, ptr %27, align 8, !alias.scope !111, !nonnull !2, !noundef !2
  %end.i40 = getelementptr inbounds nuw i8, ptr %_14.i39, i64 %len.i36
  store i8 13, ptr %end.i40, align 1
  %28 = add i64 %len.i36, 1
  store i64 %28, ptr %26, align 8, !alias.scope !111
  br label %bb18

bb7:                                              ; preds = %bb4
  %29 = getelementptr inbounds nuw i8, ptr %scratch, i64 16
  %len.i43 = load i64, ptr %29, align 8, !alias.scope !114, !noundef !2
  %self1.i44 = load i64, ptr %scratch, align 8, !range !27, !alias.scope !114, !noundef !2
  %_4.i45 = icmp eq i64 %len.i43, %self1.i44
  br i1 %_4.i45, label %bb1.i48, label %_RNvMsF_NtCsdJPVW0sQgAG_5alloc3vecINtB5_3VechE8push_mutCs4eyShm1h0hl_10serde_json.exit49

bb1.i48:                                          ; preds = %bb7
; call <alloc::raw_vec::RawVec<u8>>::grow_one
  tail call void @_RNvMs3_NtCsdJPVW0sQgAG_5alloc7raw_vecINtB5_6RawVechE8grow_oneB7_(ptr noalias noundef nonnull align 8 dereferenceable(24) %scratch)
  br label %_RNvMsF_NtCsdJPVW0sQgAG_5alloc3vecINtB5_3VechE8push_mutCs4eyShm1h0hl_10serde_json.exit49

_RNvMsF_NtCsdJPVW0sQgAG_5alloc3vecINtB5_3VechE8push_mutCs4eyShm1h0hl_10serde_json.exit49: ; preds = %bb7, %bb1.i48
  %30 = getelementptr inbounds nuw i8, ptr %scratch, i64 8
  %_14.i46 = load ptr, ptr %30, align 8, !alias.scope !114, !nonnull !2, !noundef !2
  %end.i47 = getelementptr inbounds nuw i8, ptr %_14.i46, i64 %len.i43
  store i8 9, ptr %end.i47, align 1
  %31 = add i64 %len.i43, 1
  store i64 %31, ptr %29, align 8, !alias.scope !114
  br label %bb18

bb6:                                              ; preds = %bb4
; call serde_json::read::parse_unicode_escape::<serde_json::read::SliceRead>
  %32 = tail call fastcc noundef align 8 ptr @_RINvNtCs4eyShm1h0hl_10serde_json4read20parse_unicode_escapeNtB2_9SliceReadEB4_(ptr noalias noundef align 8 dereferenceable(24) %read, i1 noundef zeroext %validate, ptr noalias noundef align 8 dereferenceable(24) %scratch)
  br label %bb18

bb18:                                             ; preds = %_RNvMsF_NtCsdJPVW0sQgAG_5alloc3vecINtB5_3VechE8push_mutCs4eyShm1h0hl_10serde_json.exit, %_RNvMsF_NtCsdJPVW0sQgAG_5alloc3vecINtB5_3VechE8push_mutCs4eyShm1h0hl_10serde_json.exit7, %_RNvMsF_NtCsdJPVW0sQgAG_5alloc3vecINtB5_3VechE8push_mutCs4eyShm1h0hl_10serde_json.exit14, %_RNvMsF_NtCsdJPVW0sQgAG_5alloc3vecINtB5_3VechE8push_mutCs4eyShm1h0hl_10serde_json.exit21, %_RNvMsF_NtCsdJPVW0sQgAG_5alloc3vecINtB5_3VechE8push_mutCs4eyShm1h0hl_10serde_json.exit28, %_RNvMsF_NtCsdJPVW0sQgAG_5alloc3vecINtB5_3VechE8push_mutCs4eyShm1h0hl_10serde_json.exit35, %_RNvMsF_NtCsdJPVW0sQgAG_5alloc3vecINtB5_3VechE8push_mutCs4eyShm1h0hl_10serde_json.exit42, %_RNvMsF_NtCsdJPVW0sQgAG_5alloc3vecINtB5_3VechE8push_mutCs4eyShm1h0hl_10serde_json.exit49, %bb6, %bb5, %bb3
  %_0.sroa.0.0 = phi ptr [ %err, %bb3 ], [ %7, %bb5 ], [ %32, %bb6 ], [ null, %_RNvMsF_NtCsdJPVW0sQgAG_5alloc3vecINtB5_3VechE8push_mutCs4eyShm1h0hl_10serde_json.exit49 ], [ null, %_RNvMsF_NtCsdJPVW0sQgAG_5alloc3vecINtB5_3VechE8push_mutCs4eyShm1h0hl_10serde_json.exit42 ], [ null, %_RNvMsF_NtCsdJPVW0sQgAG_5alloc3vecINtB5_3VechE8push_mutCs4eyShm1h0hl_10serde_json.exit35 ], [ null, %_RNvMsF_NtCsdJPVW0sQgAG_5alloc3vecINtB5_3VechE8push_mutCs4eyShm1h0hl_10serde_json.exit28 ], [ null, %_RNvMsF_NtCsdJPVW0sQgAG_5alloc3vecINtB5_3VechE8push_mutCs4eyShm1h0hl_10serde_json.exit21 ], [ null, %_RNvMsF_NtCsdJPVW0sQgAG_5alloc3vecINtB5_3VechE8push_mutCs4eyShm1h0hl_10serde_json.exit14 ], [ null, %_RNvMsF_NtCsdJPVW0sQgAG_5alloc3vecINtB5_3VechE8push_mutCs4eyShm1h0hl_10serde_json.exit7 ], [ null, %_RNvMsF_NtCsdJPVW0sQgAG_5alloc3vecINtB5_3VechE8push_mutCs4eyShm1h0hl_10serde_json.exit ]
  ret ptr %_0.sroa.0.0
}

; serde_json::read::parse_unicode_escape::<serde_json::read::SliceRead>
; Function Attrs: cold uwtable
define internal fastcc noundef align 8 ptr @_RINvNtCs4eyShm1h0hl_10serde_json4read20parse_unicode_escapeNtB2_9SliceReadEB4_(ptr noalias noundef nonnull align 8 captures(none) dereferenceable(24) %read, i1 noundef zeroext %validate, ptr noalias noundef nonnull align 8 dereferenceable(24) %scratch) unnamed_addr #0 personality ptr @rust_eh_personality {
start:
  %_15.i30 = alloca [24 x i8], align 8
  %_12.i31 = alloca [24 x i8], align 8
  %_9.i21 = alloca [24 x i8], align 8
  %_9.i = alloca [24 x i8], align 8
  %_15.i = alloca [24 x i8], align 8
  %_12.i = alloca [24 x i8], align 8
  %_47 = alloca [24 x i8], align 8
  %_40 = alloca [16 x i8], align 8
  %_37 = alloca [24 x i8], align 8
  %_30 = alloca [16 x i8], align 8
  %_27 = alloca [24 x i8], align 8
  %_20 = alloca [16 x i8], align 8
  %_13 = alloca [24 x i8], align 8
  %_4 = alloca [16 x i8], align 8
  call void @llvm.lifetime.start.p0(i64 16, ptr nonnull %_4)
  tail call void @llvm.experimental.noalias.scope.decl(metadata !117)
  tail call void @llvm.experimental.noalias.scope.decl(metadata !120)
  %0 = getelementptr inbounds nuw i8, ptr %read, i64 8
  %_16.1.i = load i64, ptr %0, align 8, !alias.scope !120, !noalias !117, !noundef !2
  %1 = getelementptr inbounds nuw i8, ptr %read, i64 16
  %_2.i = load i64, ptr %1, align 8, !alias.scope !120, !noalias !117, !noundef !2
  %_18.i = icmp ugt i64 %_2.i, %_16.1.i
  br i1 %_18.i, label %bb11.i, label %bb12.i, !prof !31

bb12.i:                                           ; preds = %start
  %_21.i = sub nuw i64 %_16.1.i, %_2.i
  %_3.i = icmp ugt i64 %_21.i, 3
  br i1 %_3.i, label %bb2.i, label %bb1.i

bb11.i:                                           ; preds = %start
; call core::slice::index::slice_index_fail
  tail call void @_RNvNtNtCsjMrxcFdYDNN_4core5slice5index16slice_index_fail(i64 noundef %_2.i, i64 noundef %_16.1.i, i64 noundef %_16.1.i, ptr noalias noundef readonly align 8 captures(address, read_provenance) dereferenceable(24) @alloc_d2930df2f5f0a7d34574db4093aae197) #35, !noalias !122
  unreachable

bb1.i:                                            ; preds = %bb12.i
  store i64 %_16.1.i, ptr %1, align 8, !alias.scope !120, !noalias !117
  call void @llvm.lifetime.start.p0(i64 24, ptr nonnull %_15.i), !noalias !122
  store i64 4, ptr %_15.i, align 8, !noalias !122
; call serde_json::read::error::<serde_json::read::SliceRead, u16>
  call fastcc void @_RINvNtCs4eyShm1h0hl_10serde_json4read5errorNtB2_9SliceReadtEB4_(ptr noalias noundef nonnull align 8 captures(none) dereferenceable(16) %_4, ptr noalias noundef nonnull readonly align 8 captures(address, read_provenance) dereferenceable(24) %read, ptr noalias noundef align 8 captures(address) dereferenceable(24) %_15.i)
  call void @llvm.lifetime.end.p0(i64 24, ptr nonnull %_15.i), !noalias !122
  br label %_RNvXs5_NtCs4eyShm1h0hl_10serde_json4readNtB5_9SliceReadNtB5_4Read17decode_hex_escape.exit

bb2.i:                                            ; preds = %bb12.i
  %_16.0.i = load ptr, ptr %read, align 8, !alias.scope !120, !noalias !117, !nonnull !2, !align !87, !noundef !2
  %_25.i = getelementptr inbounds nuw i8, ptr %_16.0.i, i64 %_2.i
  %a.i = load i8, ptr %_25.i, align 1, !noalias !122, !noundef !2
  %2 = getelementptr inbounds nuw i8, ptr %_25.i, i64 1
  %b.i = load i8, ptr %2, align 1, !noalias !122, !noundef !2
  %3 = getelementptr inbounds nuw i8, ptr %_25.i, i64 2
  %c.i = load i8, ptr %3, align 1, !noalias !122, !noundef !2
  %4 = getelementptr inbounds nuw i8, ptr %_25.i, i64 3
  %d.i = load i8, ptr %4, align 1, !noalias !122, !noundef !2
  %5 = add i64 %_2.i, 4
  store i64 %5, ptr %1, align 8, !alias.scope !120, !noalias !117
  %_8.i.i = zext i8 %a.i to i64
  %6 = getelementptr inbounds nuw i16, ptr @_RNvNtCs4eyShm1h0hl_10serde_json4read4HEX1, i64 %_8.i.i
  %_6.i.i = load i16, ptr %6, align 2, !noalias !122, !noundef !2
  %_13.i.i = zext i8 %b.i to i64
  %7 = getelementptr inbounds nuw i16, ptr @_RNvNtCs4eyShm1h0hl_10serde_json4read4HEX0, i64 %_13.i.i
  %_11.i.i = load i16, ptr %7, align 2, !noalias !122, !noundef !2
  %_21.i.i = zext i8 %d.i to i64
  %_17.i.i = zext i8 %c.i to i64
  %8 = getelementptr inbounds nuw i16, ptr @_RNvNtCs4eyShm1h0hl_10serde_json4read4HEX1, i64 %_17.i.i
  %_16.i.i = load i16, ptr %8, align 2, !noalias !122, !noundef !2
  %c5.i.i = sext i16 %_16.i.i to i32
  %9 = getelementptr inbounds nuw i16, ptr @_RNvNtCs4eyShm1h0hl_10serde_json4read4HEX0, i64 %_21.i.i
  %_20.i.i = load i16, ptr %9, align 2, !noalias !122, !noundef !2
  %d7.i.i = sext i16 %_20.i.i to i32
  %_268.i.i = or i16 %_11.i.i, %_6.i.i
  %_26.i.i = sext i16 %_268.i.i to i32
  %_25.i.i = shl nsw i32 %_26.i.i, 8
  %_24.i.i = or i32 %_25.i.i, %c5.i.i
  %codepoint.i.i = or i32 %_24.i.i, %d7.i.i
  %_27.i.i = icmp sgt i32 %codepoint.i.i, -1
  br i1 %_27.i.i, label %bb6.i, label %bb5.i

bb6.i:                                            ; preds = %bb2.i
  %_28.i.i = trunc i32 %codepoint.i.i to i16
  %10 = getelementptr inbounds nuw i8, ptr %_4, i64 2
  store i16 %_28.i.i, ptr %10, align 2, !alias.scope !117, !noalias !120
  store i16 0, ptr %_4, align 8, !alias.scope !117, !noalias !120
  br label %_RNvXs5_NtCs4eyShm1h0hl_10serde_json4readNtB5_9SliceReadNtB5_4Read17decode_hex_escape.exit

bb5.i:                                            ; preds = %bb2.i
  call void @llvm.lifetime.start.p0(i64 24, ptr nonnull %_12.i), !noalias !122
  store i64 12, ptr %_12.i, align 8, !noalias !122
; call serde_json::read::error::<serde_json::read::SliceRead, u16>
  call fastcc void @_RINvNtCs4eyShm1h0hl_10serde_json4read5errorNtB2_9SliceReadtEB4_(ptr noalias noundef nonnull align 8 captures(none) dereferenceable(16) %_4, ptr noalias noundef nonnull readonly align 8 captures(address, read_provenance) dereferenceable(24) %read, ptr noalias noundef align 8 captures(address) dereferenceable(24) %_12.i)
  call void @llvm.lifetime.end.p0(i64 24, ptr nonnull %_12.i), !noalias !122
  br label %_RNvXs5_NtCs4eyShm1h0hl_10serde_json4readNtB5_9SliceReadNtB5_4Read17decode_hex_escape.exit

_RNvXs5_NtCs4eyShm1h0hl_10serde_json4readNtB5_9SliceReadNtB5_4Read17decode_hex_escape.exit: ; preds = %bb1.i, %bb6.i, %bb5.i
  %.promoted = phi i64 [ %_16.1.i, %bb1.i ], [ %5, %bb6.i ], [ %5, %bb5.i ]
  %11 = load i16, ptr %_4, align 8, !range !123, !noundef !2
  %12 = trunc nuw i16 %11 to i1
  br i1 %12, label %bb3, label %bb4

bb3:                                              ; preds = %_RNvXs5_NtCs4eyShm1h0hl_10serde_json4readNtB5_9SliceReadNtB5_4Read17decode_hex_escape.exit
  %13 = getelementptr inbounds nuw i8, ptr %_4, i64 8
  %err6 = load ptr, ptr %13, align 8, !nonnull !2, !align !91, !noundef !2
  call void @llvm.lifetime.end.p0(i64 16, ptr nonnull %_4)
  br label %bb51

bb4:                                              ; preds = %_RNvXs5_NtCs4eyShm1h0hl_10serde_json4readNtB5_9SliceReadNtB5_4Read17decode_hex_escape.exit
  %14 = getelementptr inbounds nuw i8, ptr %_4, i64 2
  %15 = load i16, ptr %14, align 2, !noundef !2
  call void @llvm.lifetime.end.p0(i64 16, ptr nonnull %_4)
  %16 = and i16 %15, -1024
  %17 = icmp eq i16 %16, -9216
  %or.cond8 = and i1 %validate, %17
  br i1 %or.cond8, label %bb7, label %bb12.preheader

bb12.preheader:                                   ; preds = %bb4
  %18 = add i16 %15, 9216
  %or.cond9284 = icmp ult i16 %18, -1024
  br i1 %or.cond9284, label %bb16, label %bb18.lr.ph

bb18.lr.ph:                                       ; preds = %bb12.preheader
  %_12.0.i.i = load ptr, ptr %read, align 8, !nonnull !2, !align !87
  %19 = getelementptr inbounds nuw i8, ptr %_20, i64 1
  %20 = getelementptr inbounds nuw i8, ptr %_30, i64 1
  %21 = getelementptr inbounds nuw i8, ptr %_40, i64 2
  %22 = getelementptr inbounds nuw i8, ptr %scratch, i64 16
  %23 = getelementptr inbounds nuw i8, ptr %scratch, i64 8
  br label %bb18

bb7:                                              ; preds = %bb4
  call void @llvm.lifetime.start.p0(i64 24, ptr nonnull %_13)
  store i64 20, ptr %_13, align 8
; call serde_json::read::error::<serde_json::read::SliceRead, ()>
  %24 = call fastcc noundef align 8 ptr @_RINvNtCs4eyShm1h0hl_10serde_json4read5errorNtB2_9SliceReaduEB4_(ptr noalias noundef readonly align 8 captures(address, read_provenance) dereferenceable(24) %read, ptr noalias noundef align 8 captures(address) dereferenceable(24) %_13)
  call void @llvm.lifetime.end.p0(i64 24, ptr nonnull %_13)
  br label %bb51

bb18:                                             ; preds = %bb18.lr.ph, %bb16.i
  %n.sroa.0.0286 = phi i16 [ %15, %bb18.lr.ph ], [ %n2, %bb16.i ]
  %_16.1.i282285 = phi i64 [ %.promoted, %bb18.lr.ph ], [ %_16.1.i283, %bb16.i ]
  call void @llvm.lifetime.start.p0(i64 16, ptr nonnull %_20)
  %_3.i.i = icmp ult i64 %_16.1.i282285, %_16.1.i
  br i1 %_3.i.i, label %_RINvNtCs4eyShm1h0hl_10serde_json4read11peek_or_eofNtB2_9SliceReadEB4_.exit.thread, label %_RINvNtCs4eyShm1h0hl_10serde_json4read11peek_or_eofNtB2_9SliceReadEB4_.exit

_RINvNtCs4eyShm1h0hl_10serde_json4read11peek_or_eofNtB2_9SliceReadEB4_.exit.thread: ; preds = %bb18
  %25 = getelementptr inbounds nuw i8, ptr %_12.0.i.i, i64 %_16.1.i282285
  %_6.i.i20 = load i8, ptr %25, align 1, !noalias !124, !noundef !2
  br label %bb21

_RINvNtCs4eyShm1h0hl_10serde_json4read11peek_or_eofNtB2_9SliceReadEB4_.exit: ; preds = %bb18
  call void @llvm.lifetime.start.p0(i64 24, ptr nonnull %_9.i), !noalias !131
  store i64 4, ptr %_9.i, align 8, !noalias !131
; call serde_json::read::error::<serde_json::read::SliceRead, u8>
  call fastcc void @_RINvNtCs4eyShm1h0hl_10serde_json4read5errorNtB2_9SliceReadhEB4_(ptr noalias noundef nonnull align 8 captures(none) dereferenceable(16) %_20, ptr noalias noundef nonnull readonly align 8 captures(address, read_provenance) dereferenceable(24) %read, ptr noalias noundef align 8 captures(address) dereferenceable(24) %_9.i)
  call void @llvm.lifetime.end.p0(i64 24, ptr nonnull %_9.i), !noalias !131
  %.pre = load i8, ptr %_20, align 8, !range !90
  %extract.t = trunc nuw i8 %.pre to i1
  br i1 %extract.t, label %bb20, label %bb21thread-pre-split

bb20:                                             ; preds = %_RINvNtCs4eyShm1h0hl_10serde_json4read11peek_or_eofNtB2_9SliceReadEB4_.exit
  %26 = getelementptr inbounds nuw i8, ptr %_20, i64 8
  %err5 = load ptr, ptr %26, align 8, !nonnull !2, !align !91, !noundef !2
  call void @llvm.lifetime.end.p0(i64 16, ptr nonnull %_20)
  br label %bb51

bb21thread-pre-split:                             ; preds = %_RINvNtCs4eyShm1h0hl_10serde_json4read11peek_or_eofNtB2_9SliceReadEB4_.exit
  %val.pr = load i8, ptr %19, align 1
  br label %bb21

bb21:                                             ; preds = %bb21thread-pre-split, %_RINvNtCs4eyShm1h0hl_10serde_json4read11peek_or_eofNtB2_9SliceReadEB4_.exit.thread
  %val = phi i8 [ %val.pr, %bb21thread-pre-split ], [ %_6.i.i20, %_RINvNtCs4eyShm1h0hl_10serde_json4read11peek_or_eofNtB2_9SliceReadEB4_.exit.thread ]
  %27 = icmp eq i8 %val, 92
  call void @llvm.lifetime.end.p0(i64 16, ptr nonnull %_20)
  br i1 %27, label %bb52, label %bb53

bb52:                                             ; preds = %bb21
  %28 = add i64 %_16.1.i282285, 1
  store i64 %28, ptr %1, align 8, !alias.scope !132
  call void @llvm.lifetime.start.p0(i64 16, ptr nonnull %_30)
  %_3.i.i24 = icmp ult i64 %28, %_16.1.i
  br i1 %_3.i.i24, label %_RINvNtCs4eyShm1h0hl_10serde_json4read11peek_or_eofNtB2_9SliceReadEB4_.exit29.thread, label %_RINvNtCs4eyShm1h0hl_10serde_json4read11peek_or_eofNtB2_9SliceReadEB4_.exit29

_RINvNtCs4eyShm1h0hl_10serde_json4read11peek_or_eofNtB2_9SliceReadEB4_.exit29.thread: ; preds = %bb52
  %29 = getelementptr inbounds nuw i8, ptr %_12.0.i.i, i64 %28
  %_6.i.i28 = load i8, ptr %29, align 1, !noalias !135, !noundef !2
  br label %bb30

_RINvNtCs4eyShm1h0hl_10serde_json4read11peek_or_eofNtB2_9SliceReadEB4_.exit29: ; preds = %bb52
  call void @llvm.lifetime.start.p0(i64 24, ptr nonnull %_9.i21), !noalias !142
  store i64 4, ptr %_9.i21, align 8, !noalias !142
; call serde_json::read::error::<serde_json::read::SliceRead, u8>
  call fastcc void @_RINvNtCs4eyShm1h0hl_10serde_json4read5errorNtB2_9SliceReadhEB4_(ptr noalias noundef nonnull align 8 captures(none) dereferenceable(16) %_30, ptr noalias noundef nonnull readonly align 8 captures(address, read_provenance) dereferenceable(24) %read, ptr noalias noundef align 8 captures(address) dereferenceable(24) %_9.i21)
  call void @llvm.lifetime.end.p0(i64 24, ptr nonnull %_9.i21), !noalias !142
  %.pre310 = load i8, ptr %_30, align 8, !range !90
  %extract.t312 = trunc nuw i8 %.pre310 to i1
  br i1 %extract.t312, label %bb29, label %bb30thread-pre-split

bb53:                                             ; preds = %bb21
  br i1 %validate, label %bb23, label %bb26

bb29:                                             ; preds = %_RINvNtCs4eyShm1h0hl_10serde_json4read11peek_or_eofNtB2_9SliceReadEB4_.exit29
  %30 = getelementptr inbounds nuw i8, ptr %_30, i64 8
  %err4 = load ptr, ptr %30, align 8, !nonnull !2, !align !91, !noundef !2
  call void @llvm.lifetime.end.p0(i64 16, ptr nonnull %_30)
  br label %bb51

bb30thread-pre-split:                             ; preds = %_RINvNtCs4eyShm1h0hl_10serde_json4read11peek_or_eofNtB2_9SliceReadEB4_.exit29
  %val1.pr = load i8, ptr %20, align 1
  br label %bb30

bb30:                                             ; preds = %bb30thread-pre-split, %_RINvNtCs4eyShm1h0hl_10serde_json4read11peek_or_eofNtB2_9SliceReadEB4_.exit29.thread
  %val1 = phi i8 [ %val1.pr, %bb30thread-pre-split ], [ %_6.i.i28, %_RINvNtCs4eyShm1h0hl_10serde_json4read11peek_or_eofNtB2_9SliceReadEB4_.exit29.thread ]
  %31 = icmp eq i8 %val1, 117
  call void @llvm.lifetime.end.p0(i64 16, ptr nonnull %_30)
  br i1 %31, label %bb54, label %bb55

bb54:                                             ; preds = %bb30
  %32 = add i64 %_16.1.i282285, 2
  store i64 %32, ptr %1, align 8, !alias.scope !143
  call void @llvm.lifetime.start.p0(i64 16, ptr nonnull %_40)
  tail call void @llvm.experimental.noalias.scope.decl(metadata !146)
  tail call void @llvm.experimental.noalias.scope.decl(metadata !149)
  %_18.i34 = icmp ugt i64 %32, %_16.1.i
  br i1 %_18.i34, label %bb11.i65, label %bb12.i35, !prof !31

bb12.i35:                                         ; preds = %bb54
  %_21.i36 = sub nuw i64 %_16.1.i, %32
  %_3.i37 = icmp ugt i64 %_21.i36, 3
  br i1 %_3.i37, label %bb2.i39, label %bb1.i38

bb11.i65:                                         ; preds = %bb54
; call core::slice::index::slice_index_fail
  tail call void @_RNvNtNtCsjMrxcFdYDNN_4core5slice5index16slice_index_fail(i64 noundef %32, i64 noundef %_16.1.i, i64 noundef %_16.1.i, ptr noalias noundef readonly align 8 captures(address, read_provenance) dereferenceable(24) @alloc_d2930df2f5f0a7d34574db4093aae197) #35, !noalias !151
  unreachable

bb1.i38:                                          ; preds = %bb12.i35
  store i64 %_16.1.i, ptr %1, align 8, !alias.scope !149, !noalias !146
  call void @llvm.lifetime.start.p0(i64 24, ptr nonnull %_15.i30), !noalias !151
  store i64 4, ptr %_15.i30, align 8, !noalias !151
; call serde_json::read::error::<serde_json::read::SliceRead, u16>
  call fastcc void @_RINvNtCs4eyShm1h0hl_10serde_json4read5errorNtB2_9SliceReadtEB4_(ptr noalias noundef nonnull align 8 captures(none) dereferenceable(16) %_40, ptr noalias noundef nonnull readonly align 8 captures(address, read_provenance) dereferenceable(24) %read, ptr noalias noundef align 8 captures(address) dereferenceable(24) %_15.i30)
  call void @llvm.lifetime.end.p0(i64 24, ptr nonnull %_15.i30), !noalias !151
  br label %_RNvXs5_NtCs4eyShm1h0hl_10serde_json4readNtB5_9SliceReadNtB5_4Read17decode_hex_escape.exit66

bb2.i39:                                          ; preds = %bb12.i35
  %_25.i41 = getelementptr inbounds nuw i8, ptr %_12.0.i.i, i64 %32
  %a.i42 = load i8, ptr %_25.i41, align 1, !noalias !151, !noundef !2
  %33 = getelementptr inbounds nuw i8, ptr %_25.i41, i64 1
  %b.i43 = load i8, ptr %33, align 1, !noalias !151, !noundef !2
  %34 = getelementptr inbounds nuw i8, ptr %_25.i41, i64 2
  %c.i44 = load i8, ptr %34, align 1, !noalias !151, !noundef !2
  %35 = getelementptr inbounds nuw i8, ptr %_25.i41, i64 3
  %d.i45 = load i8, ptr %35, align 1, !noalias !151, !noundef !2
  %36 = add i64 %_16.1.i282285, 6
  store i64 %36, ptr %1, align 8, !alias.scope !149, !noalias !146
  %_8.i.i46 = zext i8 %a.i42 to i64
  %37 = getelementptr inbounds nuw i16, ptr @_RNvNtCs4eyShm1h0hl_10serde_json4read4HEX1, i64 %_8.i.i46
  %_6.i.i47 = load i16, ptr %37, align 2, !noalias !151, !noundef !2
  %_13.i.i48 = zext i8 %b.i43 to i64
  %38 = getelementptr inbounds nuw i16, ptr @_RNvNtCs4eyShm1h0hl_10serde_json4read4HEX0, i64 %_13.i.i48
  %_11.i.i49 = load i16, ptr %38, align 2, !noalias !151, !noundef !2
  %_21.i.i50 = zext i8 %d.i45 to i64
  %_17.i.i51 = zext i8 %c.i44 to i64
  %39 = getelementptr inbounds nuw i16, ptr @_RNvNtCs4eyShm1h0hl_10serde_json4read4HEX1, i64 %_17.i.i51
  %_16.i.i52 = load i16, ptr %39, align 2, !noalias !151, !noundef !2
  %c5.i.i53 = sext i16 %_16.i.i52 to i32
  %40 = getelementptr inbounds nuw i16, ptr @_RNvNtCs4eyShm1h0hl_10serde_json4read4HEX0, i64 %_21.i.i50
  %_20.i.i54 = load i16, ptr %40, align 2, !noalias !151, !noundef !2
  %d7.i.i55 = sext i16 %_20.i.i54 to i32
  %_268.i.i56 = or i16 %_11.i.i49, %_6.i.i47
  %_26.i.i57 = sext i16 %_268.i.i56 to i32
  %_25.i.i58 = shl nsw i32 %_26.i.i57, 8
  %_24.i.i59 = or i32 %_25.i.i58, %c5.i.i53
  %codepoint.i.i60 = or i32 %_24.i.i59, %d7.i.i55
  %_27.i.i61 = icmp sgt i32 %codepoint.i.i60, -1
  br i1 %_27.i.i61, label %bb6.i63, label %bb5.i62

bb6.i63:                                          ; preds = %bb2.i39
  %_28.i.i64 = trunc i32 %codepoint.i.i60 to i16
  store i16 %_28.i.i64, ptr %21, align 2, !alias.scope !146, !noalias !149
  store i16 0, ptr %_40, align 8, !alias.scope !146, !noalias !149
  br label %_RNvXs5_NtCs4eyShm1h0hl_10serde_json4readNtB5_9SliceReadNtB5_4Read17decode_hex_escape.exit66

bb5.i62:                                          ; preds = %bb2.i39
  call void @llvm.lifetime.start.p0(i64 24, ptr nonnull %_12.i31), !noalias !151
  store i64 12, ptr %_12.i31, align 8, !noalias !151
; call serde_json::read::error::<serde_json::read::SliceRead, u16>
  call fastcc void @_RINvNtCs4eyShm1h0hl_10serde_json4read5errorNtB2_9SliceReadtEB4_(ptr noalias noundef nonnull align 8 captures(none) dereferenceable(16) %_40, ptr noalias noundef nonnull readonly align 8 captures(address, read_provenance) dereferenceable(24) %read, ptr noalias noundef align 8 captures(address) dereferenceable(24) %_12.i31)
  call void @llvm.lifetime.end.p0(i64 24, ptr nonnull %_12.i31), !noalias !151
  br label %_RNvXs5_NtCs4eyShm1h0hl_10serde_json4readNtB5_9SliceReadNtB5_4Read17decode_hex_escape.exit66

_RNvXs5_NtCs4eyShm1h0hl_10serde_json4readNtB5_9SliceReadNtB5_4Read17decode_hex_escape.exit66: ; preds = %bb1.i38, %bb6.i63, %bb5.i62
  %_16.1.i283 = phi i64 [ %_16.1.i, %bb1.i38 ], [ %36, %bb6.i63 ], [ %36, %bb5.i62 ]
  %41 = load i16, ptr %_40, align 8, !range !123, !noundef !2
  %42 = trunc nuw i16 %41 to i1
  br i1 %42, label %bb38, label %bb39

bb55:                                             ; preds = %bb30
  br i1 %validate, label %bb32, label %bb35

bb38:                                             ; preds = %_RNvXs5_NtCs4eyShm1h0hl_10serde_json4readNtB5_9SliceReadNtB5_4Read17decode_hex_escape.exit66
  %43 = getelementptr inbounds nuw i8, ptr %_40, i64 8
  %err = load ptr, ptr %43, align 8, !nonnull !2, !align !91, !noundef !2
  call void @llvm.lifetime.end.p0(i64 16, ptr nonnull %_40)
  br label %bb51

bb39:                                             ; preds = %_RNvXs5_NtCs4eyShm1h0hl_10serde_json4readNtB5_9SliceReadNtB5_4Read17decode_hex_escape.exit66
  %n2 = load i16, ptr %21, align 2, !noundef !2
  call void @llvm.lifetime.end.p0(i64 16, ptr nonnull %_40)
  %44 = add i16 %n2, 8192
  %or.cond = icmp ult i16 %44, -1024
  br i1 %or.cond, label %bb41, label %bb46

bb41:                                             ; preds = %bb39
  br i1 %validate, label %bb42, label %bb44

bb46:                                             ; preds = %bb39
  %_54 = add nsw i16 %n.sroa.0.0286, 10240
  %_53 = zext nneg i16 %_54 to i32
  %_52 = shl nuw nsw i32 %_53, 10
  %_56 = add nsw i16 %n2, 9216
  %_55 = zext nneg i16 %_56 to i32
  %_51 = or disjoint i32 %_52, %_55
  %n3 = add nuw nsw i32 %_51, 65536
  tail call void @llvm.experimental.noalias.scope.decl(metadata !152)
  %len.i.i = load i64, ptr %22, align 8, !alias.scope !155, !noundef !2
  %self2.i.i = load i64, ptr %scratch, align 8, !range !27, !alias.scope !155, !noundef !2
  %_9.i.i = sub i64 %self2.i.i, %len.i.i
  %_7.i.i = icmp ult i64 %_9.i.i, 4
  br i1 %_7.i.i, label %bb1.i.i, label %_RNvNtCs4eyShm1h0hl_10serde_json4read19push_wtf8_codepoint.exit, !prof !31

bb1.i.i:                                          ; preds = %bb46
; call <alloc::raw_vec::RawVecInner<_>>::reserve::do_reserve_and_handle::<alloc::alloc::Global>
  tail call fastcc void @_RINvNvMs2_NtCsdJPVW0sQgAG_5alloc7raw_vecINtB8_11RawVecInnerpE7reserve21do_reserve_and_handleNtNtBa_5alloc6GlobalECs4eyShm1h0hl_10serde_json(ptr noalias noundef nonnull align 8 dereferenceable(24) %scratch, i64 noundef %len.i.i, i64 noundef 4, i64 noundef 1, i64 noundef 1)
  %_8.pre.i = load i64, ptr %22, align 8, !alias.scope !152
  br label %_RNvNtCs4eyShm1h0hl_10serde_json4read19push_wtf8_codepoint.exit

_RNvNtCs4eyShm1h0hl_10serde_json4read19push_wtf8_codepoint.exit: ; preds = %bb46, %bb1.i.i
  %_55.i = phi i64 [ %len.i.i, %bb46 ], [ %_8.pre.i, %bb1.i.i ]
  %_57.i = load ptr, ptr %23, align 8, !alias.scope !152, !nonnull !2, !noundef !2
  %_58.i = icmp sgt i64 %_55.i, -1
  tail call void @llvm.assume(i1 %_58.i)
  %ptr.i = getelementptr inbounds nuw i8, ptr %_57.i, i64 %_55.i
  %_28.i = getelementptr inbounds nuw i8, ptr %ptr.i, i64 1
  %_36.i = lshr i32 %n3, 18
  %_34.i = trunc nuw nsw i32 %_36.i to i8
  %_33.i = or disjoint i8 %_34.i, -16
  store i8 %_33.i, ptr %ptr.i, align 1, !noalias !152
  %_41.i = lshr i32 %n3, 12
  %45 = trunc i32 %_41.i to i8
  %_39.i = and i8 %45, 63
  %_38.i = or disjoint i8 %_39.i, -128
  store i8 %_38.i, ptr %_28.i, align 1, !noalias !152
  %_42.i = getelementptr inbounds nuw i8, ptr %ptr.i, i64 2
  %_46.i = lshr i32 %_51, 6
  %46 = trunc i32 %_46.i to i8
  %_44.i = and i8 %46, 63
  %_43.i = or disjoint i8 %_44.i, -128
  store i8 %_43.i, ptr %_42.i, align 1, !noalias !152
  %_48.i = getelementptr i8, ptr %ptr.i, i64 3
  %47 = trunc i16 %n2 to i8
  %_52.i = and i8 %47, 63
  %_51.i = or disjoint i8 %_52.i, -128
  store i8 %_51.i, ptr %_48.i, align 1, !noalias !152
  %_54.i = add nuw i64 %_55.i, 4
  store i64 %_54.i, ptr %22, align 8, !alias.scope !152
  br label %bb51

bb44:                                             ; preds = %bb41
  tail call void @llvm.experimental.noalias.scope.decl(metadata !158)
  %len.i.i76 = load i64, ptr %22, align 8, !alias.scope !161, !noundef !2
  %self2.i.i77 = load i64, ptr %scratch, align 8, !range !27, !alias.scope !161, !noundef !2
  %_9.i.i78 = sub i64 %self2.i.i77, %len.i.i76
  %_7.i.i79 = icmp ult i64 %_9.i.i78, 4
  br i1 %_7.i.i79, label %bb1.i.i102, label %bb16.i, !prof !31

bb1.i.i102:                                       ; preds = %bb44
; call <alloc::raw_vec::RawVecInner<_>>::reserve::do_reserve_and_handle::<alloc::alloc::Global>
  tail call fastcc void @_RINvNvMs2_NtCsdJPVW0sQgAG_5alloc7raw_vecINtB8_11RawVecInnerpE7reserve21do_reserve_and_handleNtNtBa_5alloc6GlobalECs4eyShm1h0hl_10serde_json(ptr noalias noundef nonnull align 8 dereferenceable(24) %scratch, i64 noundef %len.i.i76, i64 noundef 4, i64 noundef 1, i64 noundef 1)
  %_8.pre.i103 = load i64, ptr %22, align 8, !alias.scope !158
  br label %bb16.i

bb16.i:                                           ; preds = %bb1.i.i102, %bb44
  %_55.i80 = phi i64 [ %len.i.i76, %bb44 ], [ %_8.pre.i103, %bb1.i.i102 ]
  %_57.i81 = load ptr, ptr %23, align 8, !alias.scope !158, !nonnull !2, !noundef !2
  %_58.i82 = icmp sgt i64 %_55.i80, -1
  tail call void @llvm.assume(i1 %_58.i82)
  %ptr.i83 = getelementptr inbounds nuw i8, ptr %_57.i81, i64 %_55.i80
  %_28.i84 = getelementptr inbounds nuw i8, ptr %ptr.i83, i64 1
  store i8 -19, ptr %ptr.i83, align 1, !noalias !158
  %_32.i = lshr i16 %n.sroa.0.0286, 6
  %48 = trunc i16 %_32.i to i8
  %_30.i = and i8 %48, 47
  %_29.i = or disjoint i8 %_30.i, -128
  store i8 %_29.i, ptr %_28.i84, align 1, !noalias !158
  %_48.i95 = getelementptr i8, ptr %ptr.i83, i64 2
  %49 = trunc i16 %n.sroa.0.0286 to i8
  %_52.i96 = and i8 %49, 63
  %_51.i97 = or disjoint i8 %_52.i96, -128
  store i8 %_51.i97, ptr %_48.i95, align 1, !noalias !158
  %_54.i98 = add nuw i64 %_55.i80, 3
  store i64 %_54.i98, ptr %22, align 8, !alias.scope !158
  %50 = add i16 %n2, 9216
  %or.cond9 = icmp ult i16 %50, -1024
  br i1 %or.cond9, label %bb16, label %bb18

bb42:                                             ; preds = %bb41
  call void @llvm.lifetime.start.p0(i64 24, ptr nonnull %_47)
  store i64 20, ptr %_47, align 8
; call serde_json::read::error::<serde_json::read::SliceRead, ()>
  %51 = call fastcc noundef align 8 ptr @_RINvNtCs4eyShm1h0hl_10serde_json4read5errorNtB2_9SliceReaduEB4_(ptr noalias noundef readonly align 8 captures(address, read_provenance) dereferenceable(24) %read, ptr noalias noundef align 8 captures(address) dereferenceable(24) %_47)
  call void @llvm.lifetime.end.p0(i64 24, ptr nonnull %_47)
  br label %bb51

bb51:                                             ; preds = %bb16.i235, %_RNvMsF_NtCsdJPVW0sQgAG_5alloc3vecINtB5_3VechE8push_mutCs4eyShm1h0hl_10serde_json.exit.i258, %bb16.i183, %bb23, %bb20, %bb16.i131, %bb32, %bb29, %_RNvNtCs4eyShm1h0hl_10serde_json4read19push_wtf8_codepoint.exit, %bb42, %bb38, %bb3, %bb7
  %_0.sroa.0.0 = phi ptr [ %err6, %bb3 ], [ %24, %bb7 ], [ %err5, %bb20 ], [ %err4, %bb29 ], [ %err, %bb38 ], [ %51, %bb42 ], [ null, %_RNvNtCs4eyShm1h0hl_10serde_json4read19push_wtf8_codepoint.exit ], [ %56, %bb32 ], [ %54, %bb16.i131 ], [ %60, %bb23 ], [ null, %bb16.i183 ], [ null, %_RNvMsF_NtCsdJPVW0sQgAG_5alloc3vecINtB5_3VechE8push_mutCs4eyShm1h0hl_10serde_json.exit.i258 ], [ null, %bb16.i235 ]
  ret ptr %_0.sroa.0.0

bb35:                                             ; preds = %bb55
  tail call void @llvm.experimental.noalias.scope.decl(metadata !164)
  %len.i.i109 = load i64, ptr %22, align 8, !alias.scope !167, !noundef !2
  %self2.i.i110 = load i64, ptr %scratch, align 8, !range !27, !alias.scope !167, !noundef !2
  %_9.i.i111 = sub i64 %self2.i.i110, %len.i.i109
  %_7.i.i112 = icmp ult i64 %_9.i.i111, 4
  br i1 %_7.i.i112, label %bb1.i.i147, label %bb16.i131, !prof !31

bb1.i.i147:                                       ; preds = %bb35
; call <alloc::raw_vec::RawVecInner<_>>::reserve::do_reserve_and_handle::<alloc::alloc::Global>
  tail call fastcc void @_RINvNvMs2_NtCsdJPVW0sQgAG_5alloc7raw_vecINtB8_11RawVecInnerpE7reserve21do_reserve_and_handleNtNtBa_5alloc6GlobalECs4eyShm1h0hl_10serde_json(ptr noalias noundef nonnull align 8 dereferenceable(24) %scratch, i64 noundef %len.i.i109, i64 noundef 4, i64 noundef 1, i64 noundef 1)
  %_8.pre.i148 = load i64, ptr %22, align 8, !alias.scope !164
  br label %bb16.i131

bb16.i131:                                        ; preds = %bb1.i.i147, %bb35
  %_55.i114 = phi i64 [ %len.i.i109, %bb35 ], [ %_8.pre.i148, %bb1.i.i147 ]
  %_57.i115 = load ptr, ptr %23, align 8, !alias.scope !164, !nonnull !2, !noundef !2
  %_58.i116 = icmp sgt i64 %_55.i114, -1
  tail call void @llvm.assume(i1 %_58.i116)
  %ptr.i117 = getelementptr inbounds nuw i8, ptr %_57.i115, i64 %_55.i114
  %_28.i120 = getelementptr inbounds nuw i8, ptr %ptr.i117, i64 1
  store i8 -19, ptr %ptr.i117, align 1, !noalias !164
  %_32.i140 = lshr i16 %n.sroa.0.0286, 6
  %52 = trunc i16 %_32.i140 to i8
  %_30.i141 = and i8 %52, 47
  %_29.i142 = or disjoint i8 %_30.i141, -128
  store i8 %_29.i142, ptr %_28.i120, align 1, !noalias !164
  %_48.i133 = getelementptr i8, ptr %ptr.i117, i64 2
  %53 = trunc i16 %n.sroa.0.0286 to i8
  %_52.i134 = and i8 %53, 63
  %_51.i135 = or disjoint i8 %_52.i134, -128
  store i8 %_51.i135, ptr %_48.i133, align 1, !noalias !164
  %_54.i136 = add nuw i64 %_55.i114, 3
  store i64 %_54.i136, ptr %22, align 8, !alias.scope !164
; call serde_json::read::parse_escape::<serde_json::read::SliceRead>
  %54 = tail call fastcc noundef align 8 ptr @_RINvNtCs4eyShm1h0hl_10serde_json4read12parse_escapeNtB2_9SliceReadEB4_(ptr noalias noundef align 8 dereferenceable(24) %read, i1 noundef zeroext false, ptr noalias noundef align 8 dereferenceable(24) %scratch)
  br label %bb51

bb32:                                             ; preds = %bb55
  %55 = add i64 %_16.1.i282285, 2
  store i64 %55, ptr %1, align 8, !alias.scope !170
  call void @llvm.lifetime.start.p0(i64 24, ptr nonnull %_37)
  store i64 23, ptr %_37, align 8
; call serde_json::read::error::<serde_json::read::SliceRead, ()>
  %56 = call fastcc noundef align 8 ptr @_RINvNtCs4eyShm1h0hl_10serde_json4read5errorNtB2_9SliceReaduEB4_(ptr noalias noundef readonly align 8 captures(address, read_provenance) dereferenceable(24) %read, ptr noalias noundef align 8 captures(address) dereferenceable(24) %_37)
  call void @llvm.lifetime.end.p0(i64 24, ptr nonnull %_37)
  br label %bb51

bb26:                                             ; preds = %bb53
  tail call void @llvm.experimental.noalias.scope.decl(metadata !173)
  %len.i.i161 = load i64, ptr %22, align 8, !alias.scope !176, !noundef !2
  %self2.i.i162 = load i64, ptr %scratch, align 8, !range !27, !alias.scope !176, !noundef !2
  %_9.i.i163 = sub i64 %self2.i.i162, %len.i.i161
  %_7.i.i164 = icmp ult i64 %_9.i.i163, 4
  br i1 %_7.i.i164, label %bb1.i.i199, label %bb16.i183, !prof !31

bb1.i.i199:                                       ; preds = %bb26
; call <alloc::raw_vec::RawVecInner<_>>::reserve::do_reserve_and_handle::<alloc::alloc::Global>
  tail call fastcc void @_RINvNvMs2_NtCsdJPVW0sQgAG_5alloc7raw_vecINtB8_11RawVecInnerpE7reserve21do_reserve_and_handleNtNtBa_5alloc6GlobalECs4eyShm1h0hl_10serde_json(ptr noalias noundef nonnull align 8 dereferenceable(24) %scratch, i64 noundef %len.i.i161, i64 noundef 4, i64 noundef 1, i64 noundef 1)
  %_8.pre.i200 = load i64, ptr %22, align 8, !alias.scope !173
  br label %bb16.i183

bb16.i183:                                        ; preds = %bb1.i.i199, %bb26
  %_55.i166 = phi i64 [ %len.i.i161, %bb26 ], [ %_8.pre.i200, %bb1.i.i199 ]
  %_57.i167 = load ptr, ptr %23, align 8, !alias.scope !173, !nonnull !2, !noundef !2
  %_58.i168 = icmp sgt i64 %_55.i166, -1
  tail call void @llvm.assume(i1 %_58.i168)
  %ptr.i169 = getelementptr inbounds nuw i8, ptr %_57.i167, i64 %_55.i166
  %_28.i172 = getelementptr inbounds nuw i8, ptr %ptr.i169, i64 1
  store i8 -19, ptr %ptr.i169, align 1, !noalias !173
  %_32.i192 = lshr i16 %n.sroa.0.0286, 6
  %57 = trunc i16 %_32.i192 to i8
  %_30.i193 = and i8 %57, 47
  %_29.i194 = or disjoint i8 %_30.i193, -128
  store i8 %_29.i194, ptr %_28.i172, align 1, !noalias !173
  %_48.i185 = getelementptr i8, ptr %ptr.i169, i64 2
  %58 = trunc i16 %n.sroa.0.0286 to i8
  %_52.i186 = and i8 %58, 63
  %_51.i187 = or disjoint i8 %_52.i186, -128
  store i8 %_51.i187, ptr %_48.i185, align 1, !noalias !173
  %_54.i188 = add nuw i64 %_55.i166, 3
  store i64 %_54.i188, ptr %22, align 8, !alias.scope !173
  br label %bb51

bb23:                                             ; preds = %bb53
  %59 = add i64 %_16.1.i282285, 1
  store i64 %59, ptr %1, align 8, !alias.scope !179
  call void @llvm.lifetime.start.p0(i64 24, ptr nonnull %_27)
  store i64 23, ptr %_27, align 8
; call serde_json::read::error::<serde_json::read::SliceRead, ()>
  %60 = call fastcc noundef align 8 ptr @_RINvNtCs4eyShm1h0hl_10serde_json4read5errorNtB2_9SliceReaduEB4_(ptr noalias noundef readonly align 8 captures(address, read_provenance) dereferenceable(24) %read, ptr noalias noundef align 8 captures(address) dereferenceable(24) %_27)
  call void @llvm.lifetime.end.p0(i64 24, ptr nonnull %_27)
  br label %bb51

bb16:                                             ; preds = %bb16.i, %bb12.preheader
  %n.sroa.0.0.lcssa = phi i16 [ %15, %bb12.preheader ], [ %n2, %bb16.i ]
  tail call void @llvm.experimental.noalias.scope.decl(metadata !182)
  %_3.i211 = icmp ult i16 %n.sroa.0.0.lcssa, 128
  br i1 %_3.i211, label %bb1.i253, label %bb2.i212

bb2.i212:                                         ; preds = %bb16
  %61 = getelementptr inbounds nuw i8, ptr %scratch, i64 16
  %len.i.i213 = load i64, ptr %61, align 8, !alias.scope !185, !noundef !2
  %self2.i.i214 = load i64, ptr %scratch, align 8, !range !27, !alias.scope !185, !noundef !2
  %_9.i.i215 = sub i64 %self2.i.i214, %len.i.i213
  %_7.i.i216 = icmp ult i64 %_9.i.i215, 4
  br i1 %_7.i.i216, label %bb1.i.i251, label %_RNvMs_NtCsdJPVW0sQgAG_5alloc3vecINtB4_3VechE7reserveCs4eyShm1h0hl_10serde_json.exit.i217, !prof !31

bb1.i.i251:                                       ; preds = %bb2.i212
; call <alloc::raw_vec::RawVecInner<_>>::reserve::do_reserve_and_handle::<alloc::alloc::Global>
  tail call fastcc void @_RINvNvMs2_NtCsdJPVW0sQgAG_5alloc7raw_vecINtB8_11RawVecInnerpE7reserve21do_reserve_and_handleNtNtBa_5alloc6GlobalECs4eyShm1h0hl_10serde_json(ptr noalias noundef nonnull align 8 dereferenceable(24) %scratch, i64 noundef %len.i.i213, i64 noundef 4, i64 noundef 1, i64 noundef 1)
  %_8.pre.i252 = load i64, ptr %61, align 8, !alias.scope !182
  br label %_RNvMs_NtCsdJPVW0sQgAG_5alloc3vecINtB4_3VechE7reserveCs4eyShm1h0hl_10serde_json.exit.i217

_RNvMs_NtCsdJPVW0sQgAG_5alloc3vecINtB4_3VechE7reserveCs4eyShm1h0hl_10serde_json.exit.i217: ; preds = %bb1.i.i251, %bb2.i212
  %_55.i218 = phi i64 [ %len.i.i213, %bb2.i212 ], [ %_8.pre.i252, %bb1.i.i251 ]
  %62 = getelementptr inbounds nuw i8, ptr %scratch, i64 8
  %_57.i219 = load ptr, ptr %62, align 8, !alias.scope !182, !nonnull !2, !noundef !2
  %_58.i220 = icmp sgt i64 %_55.i218, -1
  tail call void @llvm.assume(i1 %_58.i220)
  %ptr.i221 = getelementptr inbounds nuw i8, ptr %_57.i219, i64 %_55.i218
  %_16.i222 = icmp ult i16 %n.sroa.0.0.lcssa, 2048
  br i1 %_16.i222, label %bb6.i247, label %bb13.i223

bb1.i253:                                         ; preds = %bb16
  %_4.i254 = trunc nuw nsw i16 %n.sroa.0.0.lcssa to i8
  %63 = getelementptr inbounds nuw i8, ptr %scratch, i64 16
  %len.i2.i255 = load i64, ptr %63, align 8, !alias.scope !188, !noundef !2
  %self1.i.i256 = load i64, ptr %scratch, align 8, !range !27, !alias.scope !188, !noundef !2
  %_4.i.i257 = icmp eq i64 %len.i2.i255, %self1.i.i256
  br i1 %_4.i.i257, label %bb1.i3.i261, label %_RNvMsF_NtCsdJPVW0sQgAG_5alloc3vecINtB5_3VechE8push_mutCs4eyShm1h0hl_10serde_json.exit.i258

bb1.i3.i261:                                      ; preds = %bb1.i253
; call <alloc::raw_vec::RawVec<u8>>::grow_one
  tail call void @_RNvMs3_NtCsdJPVW0sQgAG_5alloc7raw_vecINtB5_6RawVechE8grow_oneB7_(ptr noalias noundef nonnull align 8 dereferenceable(24) %scratch)
  br label %_RNvMsF_NtCsdJPVW0sQgAG_5alloc3vecINtB5_3VechE8push_mutCs4eyShm1h0hl_10serde_json.exit.i258

_RNvMsF_NtCsdJPVW0sQgAG_5alloc3vecINtB5_3VechE8push_mutCs4eyShm1h0hl_10serde_json.exit.i258: ; preds = %bb1.i3.i261, %bb1.i253
  %64 = getelementptr inbounds nuw i8, ptr %scratch, i64 8
  %_14.i.i259 = load ptr, ptr %64, align 8, !alias.scope !188, !nonnull !2, !noundef !2
  %end.i.i260 = getelementptr inbounds nuw i8, ptr %_14.i.i259, i64 %len.i2.i255
  store i8 %_4.i254, ptr %end.i.i260, align 1
  %65 = add i64 %len.i2.i255, 1
  store i64 %65, ptr %63, align 8, !alias.scope !188
  br label %bb51

bb6.i247:                                         ; preds = %_RNvMs_NtCsdJPVW0sQgAG_5alloc3vecINtB4_3VechE7reserveCs4eyShm1h0hl_10serde_json.exit.i217
  %_23.i248 = lshr i16 %n.sroa.0.0.lcssa, 6
  %_21.i249 = trunc nuw nsw i16 %_23.i248 to i8
  %_20.i250 = or disjoint i8 %_21.i249, -64
  br label %bb16.i235

bb13.i223:                                        ; preds = %_RNvMs_NtCsdJPVW0sQgAG_5alloc3vecINtB4_3VechE7reserveCs4eyShm1h0hl_10serde_json.exit.i217
  %_28.i224 = getelementptr inbounds nuw i8, ptr %ptr.i221, i64 1
  %_27.i241 = lshr i16 %n.sroa.0.0.lcssa, 12
  %_25.i242 = trunc nuw nsw i16 %_27.i241 to i8
  %_24.i243 = or disjoint i8 %_25.i242, -32
  %_32.i244 = lshr i16 %n.sroa.0.0.lcssa, 6
  %66 = trunc i16 %_32.i244 to i8
  %_30.i245 = and i8 %66, 63
  %_29.i246 = or disjoint i8 %_30.i245, -128
  store i8 %_29.i246, ptr %_28.i224, align 1, !noalias !182
  br label %bb16.i235

bb16.i235:                                        ; preds = %bb13.i223, %bb6.i247
  %_24.i243.sink = phi i8 [ %_20.i250, %bb6.i247 ], [ %_24.i243, %bb13.i223 ]
  %encoded_len.sroa.0.0.i236 = phi i64 [ 2, %bb6.i247 ], [ 3, %bb13.i223 ]
  store i8 %_24.i243.sink, ptr %ptr.i221, align 1, !noalias !182
  %67 = getelementptr i8, ptr %ptr.i221, i64 %encoded_len.sroa.0.0.i236
  %_48.i237 = getelementptr i8, ptr %67, i64 -1
  %68 = trunc i16 %n.sroa.0.0.lcssa to i8
  %_52.i238 = and i8 %68, 63
  %_51.i239 = or disjoint i8 %_52.i238, -128
  store i8 %_51.i239, ptr %_48.i237, align 1, !noalias !182
  %_54.i240 = add nuw i64 %encoded_len.sroa.0.0.i236, %_55.i218
  store i64 %_54.i240, ptr %61, align 8, !alias.scope !182
  br label %bb51
}

; serde_json::read::error::<serde_json::read::SliceRead, serde_json::read::Reference<[u8]>>
; Function Attrs: cold uwtable
define internal fastcc void @_RINvNtCs4eyShm1h0hl_10serde_json4read5errorNtB2_9SliceReadINtB2_9ReferenceShEEB4_(ptr dead_on_unwind noalias noundef nonnull writable writeonly align 8 captures(none) dereferenceable(24) %_0, ptr noalias noundef nonnull readonly align 8 captures(none) dereferenceable(24) %read, ptr dead_on_return noalias noundef nonnull readonly align 8 captures(none) dereferenceable(24) %reason) unnamed_addr #0 personality ptr @rust_eh_personality {
start:
  %0 = getelementptr inbounds nuw i8, ptr %read, i64 16
  %_2.i = load i64, ptr %0, align 8, !alias.scope !191, !noundef !2
  %self.val.i = load ptr, ptr %read, align 8, !alias.scope !191
  %1 = getelementptr inbounds nuw i8, ptr %read, i64 8
  %self.val1.i = load i64, ptr %1, align 8, !alias.scope !191, !noundef !2
; invoke <serde_json::read::SliceRead>::position_of_index
  %2 = invoke fastcc { i64, i64 } @_RNvMs3_NtCs4eyShm1h0hl_10serde_json4readNtB5_9SliceRead17position_of_index(ptr %self.val.i, i64 %self.val1.i, i64 noundef %_2.i)
          to label %bb1 unwind label %bb4

bb1:                                              ; preds = %start
  %position.0 = extractvalue { i64, i64 } %2, 0
  %position.1 = extractvalue { i64, i64 } %2, 1
; call <serde_json::error::Error>::syntax
  %_4 = tail call noundef nonnull align 8 ptr @_RNvMs0_NtCs4eyShm1h0hl_10serde_json5errorNtB5_5Error6syntax(ptr noalias noundef nonnull readonly align 8 captures(none) dereferenceable(24) %reason, i64 noundef %position.0, i64 noundef %position.1)
  %3 = getelementptr inbounds nuw i8, ptr %_0, i64 8
  store ptr %_4, ptr %3, align 8
  store i64 2, ptr %_0, align 8
  ret void

bb3:                                              ; preds = %bb4
  resume { ptr, i32 } %4

bb4:                                              ; preds = %start
  %4 = landingpad { ptr, i32 }
          cleanup
; invoke core::ptr::drop_in_place::<serde_json::error::ErrorCode>
  invoke fastcc void @_RINvNtCsjMrxcFdYDNN_4core3ptr13drop_in_placeNtNtCs4eyShm1h0hl_10serde_json5error9ErrorCodeEBK_(ptr noalias noundef align 8 dereferenceable(24) %reason) #37
          to label %bb3 unwind label %terminate

terminate:                                        ; preds = %bb4
  %5 = landingpad { ptr, i32 }
          filter [0 x ptr] zeroinitializer
; call core::panicking::panic_in_cleanup
  tail call void @_RNvNtCsjMrxcFdYDNN_4core9panicking16panic_in_cleanup() #38
  unreachable
}

; serde_json::read::error::<serde_json::read::SliceRead, &str>
; Function Attrs: cold uwtable
define internal fastcc void @_RINvNtCs4eyShm1h0hl_10serde_json4read5errorNtB2_9SliceReadReEB4_(ptr dead_on_unwind noalias noundef nonnull writable writeonly align 8 captures(none) dereferenceable(16) %_0, ptr noalias noundef nonnull readonly align 8 captures(none) dereferenceable(24) %read, ptr dead_on_return noalias noundef nonnull readonly align 8 captures(none) dereferenceable(24) %reason) unnamed_addr #0 personality ptr @rust_eh_personality {
start:
  %0 = getelementptr inbounds nuw i8, ptr %read, i64 16
  %_2.i = load i64, ptr %0, align 8, !alias.scope !194, !noundef !2
  %self.val.i = load ptr, ptr %read, align 8, !alias.scope !194
  %1 = getelementptr inbounds nuw i8, ptr %read, i64 8
  %self.val1.i = load i64, ptr %1, align 8, !alias.scope !194, !noundef !2
; invoke <serde_json::read::SliceRead>::position_of_index
  %2 = invoke fastcc { i64, i64 } @_RNvMs3_NtCs4eyShm1h0hl_10serde_json4readNtB5_9SliceRead17position_of_index(ptr %self.val.i, i64 %self.val1.i, i64 noundef %_2.i)
          to label %bb1 unwind label %bb4

bb1:                                              ; preds = %start
  %position.0 = extractvalue { i64, i64 } %2, 0
  %position.1 = extractvalue { i64, i64 } %2, 1
; call <serde_json::error::Error>::syntax
  %_4 = tail call noundef nonnull align 8 ptr @_RNvMs0_NtCs4eyShm1h0hl_10serde_json5errorNtB5_5Error6syntax(ptr noalias noundef nonnull readonly align 8 captures(none) dereferenceable(24) %reason, i64 noundef %position.0, i64 noundef %position.1)
  %3 = getelementptr inbounds nuw i8, ptr %_0, i64 8
  store ptr %_4, ptr %3, align 8
  store ptr null, ptr %_0, align 8
  ret void

bb3:                                              ; preds = %bb4
  resume { ptr, i32 } %4

bb4:                                              ; preds = %start
  %4 = landingpad { ptr, i32 }
          cleanup
; invoke core::ptr::drop_in_place::<serde_json::error::ErrorCode>
  invoke fastcc void @_RINvNtCsjMrxcFdYDNN_4core3ptr13drop_in_placeNtNtCs4eyShm1h0hl_10serde_json5error9ErrorCodeEBK_(ptr noalias noundef align 8 dereferenceable(24) %reason) #37
          to label %bb3 unwind label %terminate

terminate:                                        ; preds = %bb4
  %5 = landingpad { ptr, i32 }
          filter [0 x ptr] zeroinitializer
; call core::panicking::panic_in_cleanup
  tail call void @_RNvNtCsjMrxcFdYDNN_4core9panicking16panic_in_cleanup() #38
  unreachable
}

; serde_json::read::error::<serde_json::read::SliceRead, u8>
; Function Attrs: cold uwtable
define internal fastcc void @_RINvNtCs4eyShm1h0hl_10serde_json4read5errorNtB2_9SliceReadhEB4_(ptr dead_on_unwind noalias noundef nonnull writable writeonly align 8 captures(none) dereferenceable(16) %_0, ptr noalias noundef nonnull readonly align 8 captures(none) dereferenceable(24) %read, ptr dead_on_return noalias noundef nonnull readonly align 8 captures(none) dereferenceable(24) %reason) unnamed_addr #0 personality ptr @rust_eh_personality {
start:
  %0 = getelementptr inbounds nuw i8, ptr %read, i64 16
  %_2.i = load i64, ptr %0, align 8, !alias.scope !197, !noundef !2
  %self.val.i = load ptr, ptr %read, align 8, !alias.scope !197
  %1 = getelementptr inbounds nuw i8, ptr %read, i64 8
  %self.val1.i = load i64, ptr %1, align 8, !alias.scope !197, !noundef !2
; invoke <serde_json::read::SliceRead>::position_of_index
  %2 = invoke fastcc { i64, i64 } @_RNvMs3_NtCs4eyShm1h0hl_10serde_json4readNtB5_9SliceRead17position_of_index(ptr %self.val.i, i64 %self.val1.i, i64 noundef %_2.i)
          to label %bb1 unwind label %bb4

bb1:                                              ; preds = %start
  %position.0 = extractvalue { i64, i64 } %2, 0
  %position.1 = extractvalue { i64, i64 } %2, 1
; call <serde_json::error::Error>::syntax
  %_4 = tail call noundef nonnull align 8 ptr @_RNvMs0_NtCs4eyShm1h0hl_10serde_json5errorNtB5_5Error6syntax(ptr noalias noundef nonnull readonly align 8 captures(none) dereferenceable(24) %reason, i64 noundef %position.0, i64 noundef %position.1)
  %3 = getelementptr inbounds nuw i8, ptr %_0, i64 8
  store ptr %_4, ptr %3, align 8
  store i8 1, ptr %_0, align 8
  ret void

bb3:                                              ; preds = %bb4
  resume { ptr, i32 } %4

bb4:                                              ; preds = %start
  %4 = landingpad { ptr, i32 }
          cleanup
; invoke core::ptr::drop_in_place::<serde_json::error::ErrorCode>
  invoke fastcc void @_RINvNtCsjMrxcFdYDNN_4core3ptr13drop_in_placeNtNtCs4eyShm1h0hl_10serde_json5error9ErrorCodeEBK_(ptr noalias noundef align 8 dereferenceable(24) %reason) #37
          to label %bb3 unwind label %terminate

terminate:                                        ; preds = %bb4
  %5 = landingpad { ptr, i32 }
          filter [0 x ptr] zeroinitializer
; call core::panicking::panic_in_cleanup
  tail call void @_RNvNtCsjMrxcFdYDNN_4core9panicking16panic_in_cleanup() #38
  unreachable
}

; serde_json::read::error::<serde_json::read::SliceRead, u16>
; Function Attrs: cold uwtable
define internal fastcc void @_RINvNtCs4eyShm1h0hl_10serde_json4read5errorNtB2_9SliceReadtEB4_(ptr dead_on_unwind noalias noundef nonnull writable writeonly align 8 captures(none) dereferenceable(16) %_0, ptr noalias noundef nonnull readonly align 8 captures(none) dereferenceable(24) %read, ptr dead_on_return noalias noundef nonnull readonly align 8 captures(none) dereferenceable(24) %reason) unnamed_addr #0 personality ptr @rust_eh_personality {
start:
  %0 = getelementptr inbounds nuw i8, ptr %read, i64 16
  %_2.i = load i64, ptr %0, align 8, !alias.scope !200, !noundef !2
  %self.val.i = load ptr, ptr %read, align 8, !alias.scope !200
  %1 = getelementptr inbounds nuw i8, ptr %read, i64 8
  %self.val1.i = load i64, ptr %1, align 8, !alias.scope !200, !noundef !2
; invoke <serde_json::read::SliceRead>::position_of_index
  %2 = invoke fastcc { i64, i64 } @_RNvMs3_NtCs4eyShm1h0hl_10serde_json4readNtB5_9SliceRead17position_of_index(ptr %self.val.i, i64 %self.val1.i, i64 noundef %_2.i)
          to label %bb1 unwind label %bb4

bb1:                                              ; preds = %start
  %position.0 = extractvalue { i64, i64 } %2, 0
  %position.1 = extractvalue { i64, i64 } %2, 1
; call <serde_json::error::Error>::syntax
  %_4 = tail call noundef nonnull align 8 ptr @_RNvMs0_NtCs4eyShm1h0hl_10serde_json5errorNtB5_5Error6syntax(ptr noalias noundef nonnull readonly align 8 captures(none) dereferenceable(24) %reason, i64 noundef %position.0, i64 noundef %position.1)
  %3 = getelementptr inbounds nuw i8, ptr %_0, i64 8
  store ptr %_4, ptr %3, align 8
  store i16 1, ptr %_0, align 8
  ret void

bb3:                                              ; preds = %bb4
  resume { ptr, i32 } %4

bb4:                                              ; preds = %start
  %4 = landingpad { ptr, i32 }
          cleanup
; invoke core::ptr::drop_in_place::<serde_json::error::ErrorCode>
  invoke fastcc void @_RINvNtCsjMrxcFdYDNN_4core3ptr13drop_in_placeNtNtCs4eyShm1h0hl_10serde_json5error9ErrorCodeEBK_(ptr noalias noundef align 8 dereferenceable(24) %reason) #37
          to label %bb3 unwind label %terminate

terminate:                                        ; preds = %bb4
  %5 = landingpad { ptr, i32 }
          filter [0 x ptr] zeroinitializer
; call core::panicking::panic_in_cleanup
  tail call void @_RNvNtCsjMrxcFdYDNN_4core9panicking16panic_in_cleanup() #38
  unreachable
}

; serde_json::read::error::<serde_json::read::SliceRead, ()>
; Function Attrs: cold uwtable
define internal fastcc noalias noundef nonnull align 8 ptr @_RINvNtCs4eyShm1h0hl_10serde_json4read5errorNtB2_9SliceReaduEB4_(ptr noalias noundef nonnull readonly align 8 captures(none) dereferenceable(24) %read, ptr dead_on_return noalias noundef nonnull readonly align 8 captures(none) dereferenceable(24) %reason) unnamed_addr #0 personality ptr @rust_eh_personality {
start:
  %0 = getelementptr inbounds nuw i8, ptr %read, i64 16
  %_2.i = load i64, ptr %0, align 8, !alias.scope !203, !noundef !2
  %self.val.i = load ptr, ptr %read, align 8, !alias.scope !203
  %1 = getelementptr inbounds nuw i8, ptr %read, i64 8
  %self.val1.i = load i64, ptr %1, align 8, !alias.scope !203, !noundef !2
; invoke <serde_json::read::SliceRead>::position_of_index
  %2 = invoke fastcc { i64, i64 } @_RNvMs3_NtCs4eyShm1h0hl_10serde_json4readNtB5_9SliceRead17position_of_index(ptr %self.val.i, i64 %self.val1.i, i64 noundef %_2.i)
          to label %bb1 unwind label %bb4

bb1:                                              ; preds = %start
  %position.0 = extractvalue { i64, i64 } %2, 0
  %position.1 = extractvalue { i64, i64 } %2, 1
; call <serde_json::error::Error>::syntax
  %_4 = tail call noundef nonnull align 8 ptr @_RNvMs0_NtCs4eyShm1h0hl_10serde_json5errorNtB5_5Error6syntax(ptr noalias noundef nonnull readonly align 8 captures(none) dereferenceable(24) %reason, i64 noundef %position.0, i64 noundef %position.1)
  ret ptr %_4

bb3:                                              ; preds = %bb4
  resume { ptr, i32 } %3

bb4:                                              ; preds = %start
  %3 = landingpad { ptr, i32 }
          cleanup
; invoke core::ptr::drop_in_place::<serde_json::error::ErrorCode>
  invoke fastcc void @_RINvNtCsjMrxcFdYDNN_4core3ptr13drop_in_placeNtNtCs4eyShm1h0hl_10serde_json5error9ErrorCodeEBK_(ptr noalias noundef align 8 dereferenceable(24) %reason) #37
          to label %bb3 unwind label %terminate

terminate:                                        ; preds = %bb4
  %4 = landingpad { ptr, i32 }
          filter [0 x ptr] zeroinitializer
; call core::panicking::panic_in_cleanup
  tail call void @_RNvNtCsjMrxcFdYDNN_4core9panicking16panic_in_cleanup() #38
  unreachable
}

; core::ptr::drop_in_place::<core::result::Result<serde_json::map::Map<alloc::string::String, serde_json::value::Value>, serde_json::error::Error>>
; Function Attrs: uwtable
define internal fastcc void @_RINvNtCsjMrxcFdYDNN_4core3ptr13drop_in_placeINtNtB4_6result6ResultINtNtCs4eyShm1h0hl_10serde_json3map3MapNtNtCsdJPVW0sQgAG_5alloc6string6StringNtNtB17_5value5ValueENtNtB17_5error5ErrorEEB17_(ptr noalias noundef nonnull readonly align 8 captures(none) dereferenceable(32) %_1) unnamed_addr #3 personality ptr @rust_eh_personality {
start:
  %_x.i.i.i = alloca [72 x i8], align 8
  %_2 = load i64, ptr %_1, align 8, !range !206, !noundef !2
  %0 = icmp eq i64 %_2, 0
  %1 = getelementptr inbounds nuw i8, ptr %_1, i64 8
  br i1 %0, label %bb2, label %bb3

bb2:                                              ; preds = %start
  tail call void @llvm.experimental.noalias.scope.decl(metadata !207)
  tail call void @llvm.experimental.noalias.scope.decl(metadata !210)
  tail call void @llvm.experimental.noalias.scope.decl(metadata !213)
  call void @llvm.lifetime.start.p0(i64 72, ptr nonnull %_x.i.i.i), !noalias !216
  %self1.sroa.0.0.copyload.i.i.i = load ptr, ptr %1, align 8, !alias.scope !216
  %.not.i.i.i = icmp eq ptr %self1.sroa.0.0.copyload.i.i.i, null
  br i1 %.not.i.i.i, label %_RINvNtCsjMrxcFdYDNN_4core3ptr13drop_in_placeINtNtCs4eyShm1h0hl_10serde_json3map3MapNtNtCsdJPVW0sQgAG_5alloc6string6StringNtNtBL_5value5ValueEEBL_.exit, label %bb1.i.i.i

bb1.i.i.i:                                        ; preds = %bb2
  %self1.sroa.5.0.self.sroa_idx.i.i.i = getelementptr inbounds nuw i8, ptr %_1, i64 24
  %self1.sroa.5.0.copyload.i.i.i = load i64, ptr %self1.sroa.5.0.self.sroa_idx.i.i.i, align 8, !alias.scope !216
  %self1.sroa.4.0.self.sroa_idx.i.i.i = getelementptr inbounds nuw i8, ptr %_1, i64 16
  %self1.sroa.4.0.copyload.i.i.i = load i64, ptr %self1.sroa.4.0.self.sroa_idx.i.i.i, align 8, !alias.scope !216
  %full_range.sroa.4.0._x.sroa_idx.i.i.i = getelementptr inbounds nuw i8, ptr %_x.i.i.i, i64 8
  store ptr null, ptr %full_range.sroa.4.0._x.sroa_idx.i.i.i, align 8, !noalias !216
  %full_range.sroa.4.sroa.4.0.full_range.sroa.4.0._x.sroa_idx.sroa_idx.i.i.i = getelementptr inbounds nuw i8, ptr %_x.i.i.i, i64 16
  store ptr %self1.sroa.0.0.copyload.i.i.i, ptr %full_range.sroa.4.sroa.4.0.full_range.sroa.4.0._x.sroa_idx.sroa_idx.i.i.i, align 8, !noalias !216
  %full_range.sroa.4.sroa.5.0.full_range.sroa.4.0._x.sroa_idx.sroa_idx.i.i.i = getelementptr inbounds nuw i8, ptr %_x.i.i.i, i64 24
  store i64 %self1.sroa.4.0.copyload.i.i.i, ptr %full_range.sroa.4.sroa.5.0.full_range.sroa.4.0._x.sroa_idx.sroa_idx.i.i.i, align 8, !noalias !216
  %full_range.sroa.6.0._x.sroa_idx.i.i.i = getelementptr inbounds nuw i8, ptr %_x.i.i.i, i64 40
  store ptr null, ptr %full_range.sroa.6.0._x.sroa_idx.i.i.i, align 8, !noalias !216
  %full_range.sroa.6.sroa.4.0.full_range.sroa.6.0._x.sroa_idx.sroa_idx.i.i.i = getelementptr inbounds nuw i8, ptr %_x.i.i.i, i64 48
  store ptr %self1.sroa.0.0.copyload.i.i.i, ptr %full_range.sroa.6.sroa.4.0.full_range.sroa.6.0._x.sroa_idx.sroa_idx.i.i.i, align 8, !noalias !216
  %full_range.sroa.6.sroa.5.0.full_range.sroa.6.0._x.sroa_idx.sroa_idx.i.i.i = getelementptr inbounds nuw i8, ptr %_x.i.i.i, i64 56
  store i64 %self1.sroa.4.0.copyload.i.i.i, ptr %full_range.sroa.6.sroa.5.0.full_range.sroa.6.0._x.sroa_idx.sroa_idx.i.i.i, align 8, !noalias !216
  br label %_RINvNtCsjMrxcFdYDNN_4core3ptr13drop_in_placeINtNtCs4eyShm1h0hl_10serde_json3map3MapNtNtCsdJPVW0sQgAG_5alloc6string6StringNtNtBL_5value5ValueEEBL_.exit

_RINvNtCsjMrxcFdYDNN_4core3ptr13drop_in_placeINtNtCs4eyShm1h0hl_10serde_json3map3MapNtNtCsdJPVW0sQgAG_5alloc6string6StringNtNtBL_5value5ValueEEBL_.exit: ; preds = %bb2, %bb1.i.i.i
  %.sink1.i.i = phi i64 [ 1, %bb1.i.i.i ], [ 0, %bb2 ]
  %self1.sroa.5.0.copyload.i.sink.i.i = phi i64 [ %self1.sroa.5.0.copyload.i.i.i, %bb1.i.i.i ], [ 0, %bb2 ]
  store i64 %.sink1.i.i, ptr %_x.i.i.i, align 8, !noalias !216
  %2 = getelementptr inbounds nuw i8, ptr %_x.i.i.i, i64 32
  store i64 %.sink1.i.i, ptr %2, align 8, !noalias !216
  %3 = getelementptr inbounds nuw i8, ptr %_x.i.i.i, i64 64
  store i64 %self1.sroa.5.0.copyload.i.sink.i.i, ptr %3, align 8, !noalias !216
; call core::ptr::drop_in_place::<alloc::collections::btree::map::IntoIter<alloc::string::String, serde_json::value::Value>>
  call fastcc void @_RINvNtCsjMrxcFdYDNN_4core3ptr13drop_in_placeINtNtNtNtCsdJPVW0sQgAG_5alloc11collections5btree3map8IntoIterNtNtBP_6string6StringNtNtCs4eyShm1h0hl_10serde_json5value5ValueEEB24_(ptr noalias noundef align 8 dereferenceable(72) %_x.i.i.i), !noalias !216
  call void @llvm.lifetime.end.p0(i64 72, ptr nonnull %_x.i.i.i), !noalias !216
  br label %bb1

bb3:                                              ; preds = %start
  tail call void @llvm.experimental.noalias.scope.decl(metadata !217)
  %_1.val.i = load ptr, ptr %1, align 8, !alias.scope !217, !nonnull !2, !noundef !2
; invoke core::ptr::drop_in_place::<serde_json::error::ErrorCode>
  invoke fastcc void @_RINvNtCsjMrxcFdYDNN_4core3ptr13drop_in_placeNtNtCs4eyShm1h0hl_10serde_json5error9ErrorCodeEBK_(ptr noalias noundef nonnull readonly align 8 dereferenceable(40) %_1.val.i)
          to label %_RINvNtCsjMrxcFdYDNN_4core3ptr13drop_in_placeNtNtCs4eyShm1h0hl_10serde_json5error5ErrorEBK_.exit unwind label %bb1.i.i, !noalias !217

bb1.i.i:                                          ; preds = %bb3
  %4 = landingpad { ptr, i32 }
          cleanup
; call __rustc::__rust_dealloc
  tail call void @_RNvCsKhRCbHf33p_7___rustc14___rust_dealloc(ptr noundef nonnull %_1.val.i, i64 noundef 40, i64 noundef 8) #34, !noalias !217
  resume { ptr, i32 } %4

_RINvNtCsjMrxcFdYDNN_4core3ptr13drop_in_placeNtNtCs4eyShm1h0hl_10serde_json5error5ErrorEBK_.exit: ; preds = %bb3
; call __rustc::__rust_dealloc
  tail call void @_RNvCsKhRCbHf33p_7___rustc14___rust_dealloc(ptr noundef nonnull %_1.val.i, i64 noundef 40, i64 noundef 8) #34, !noalias !217
  br label %bb1

bb1:                                              ; preds = %_RINvNtCsjMrxcFdYDNN_4core3ptr13drop_in_placeNtNtCs4eyShm1h0hl_10serde_json5error5ErrorEBK_.exit, %_RINvNtCsjMrxcFdYDNN_4core3ptr13drop_in_placeINtNtCs4eyShm1h0hl_10serde_json3map3MapNtNtCsdJPVW0sQgAG_5alloc6string6StringNtNtBL_5value5ValueEEBL_.exit
  ret void
}

; core::ptr::drop_in_place::<core::result::Result<serde_json::de::ParserNumber, serde_json::error::Error>>
; Function Attrs: uwtable
define internal fastcc void @_RINvNtCsjMrxcFdYDNN_4core3ptr13drop_in_placeINtNtB4_6result6ResultNtNtCs4eyShm1h0hl_10serde_json2de12ParserNumberNtNtB16_5error5ErrorEEB16_(i64 %_1.0.val, ptr %_1.8.val) unnamed_addr #3 personality ptr @rust_eh_personality {
start:
  %.not = icmp eq i64 %_1.0.val, 3
  br i1 %.not, label %bb2, label %bb1

bb1:                                              ; preds = %_RINvNtCsjMrxcFdYDNN_4core3ptr13drop_in_placeNtNtCs4eyShm1h0hl_10serde_json5error5ErrorEBK_.exit, %start
  ret void

bb2:                                              ; preds = %start
  %0 = icmp ne ptr %_1.8.val, null
  tail call void @llvm.assume(i1 %0)
; invoke core::ptr::drop_in_place::<serde_json::error::ErrorCode>
  invoke fastcc void @_RINvNtCsjMrxcFdYDNN_4core3ptr13drop_in_placeNtNtCs4eyShm1h0hl_10serde_json5error9ErrorCodeEBK_(ptr noalias noundef nonnull readonly align 8 dereferenceable(40) %_1.8.val)
          to label %_RINvNtCsjMrxcFdYDNN_4core3ptr13drop_in_placeNtNtCs4eyShm1h0hl_10serde_json5error5ErrorEBK_.exit unwind label %bb1.i.i, !noalias !220

bb1.i.i:                                          ; preds = %bb2
  %1 = landingpad { ptr, i32 }
          cleanup
; call __rustc::__rust_dealloc
  tail call void @_RNvCsKhRCbHf33p_7___rustc14___rust_dealloc(ptr noundef nonnull %_1.8.val, i64 noundef 40, i64 noundef 8) #34, !noalias !220
  resume { ptr, i32 } %1

_RINvNtCsjMrxcFdYDNN_4core3ptr13drop_in_placeNtNtCs4eyShm1h0hl_10serde_json5error5ErrorEBK_.exit: ; preds = %bb2
; call __rustc::__rust_dealloc
  tail call void @_RNvCsKhRCbHf33p_7___rustc14___rust_dealloc(ptr noundef nonnull %_1.8.val, i64 noundef 40, i64 noundef 8) #34, !noalias !220
  br label %bb1
}

; core::ptr::drop_in_place::<core::result::Result<serde_json::value::Value, serde_json::error::Error>>
; Function Attrs: uwtable
define internal fastcc void @_RINvNtCsjMrxcFdYDNN_4core3ptr13drop_in_placeINtNtB4_6result6ResultNtNtCs4eyShm1h0hl_10serde_json5value5ValueNtNtB16_5error5ErrorEEB16_(ptr noalias noundef nonnull readonly align 8 captures(none) dereferenceable(32) %_1) unnamed_addr #3 personality ptr @rust_eh_personality {
start:
  %0 = load i8, ptr %_1, align 8, !range !223, !noundef !2
  %.not = icmp eq i8 %0, 6
  br i1 %.not, label %bb3, label %bb2

bb2:                                              ; preds = %start
; call core::ptr::drop_in_place::<serde_json::value::Value>
  tail call fastcc void @_RINvNtCsjMrxcFdYDNN_4core3ptr13drop_in_placeNtNtCs4eyShm1h0hl_10serde_json5value5ValueEBK_(ptr noalias noundef align 8 dereferenceable(32) %_1)
  br label %bb1

bb3:                                              ; preds = %start
  %1 = getelementptr inbounds nuw i8, ptr %_1, i64 8
  tail call void @llvm.experimental.noalias.scope.decl(metadata !224)
  %_1.val.i = load ptr, ptr %1, align 8, !alias.scope !224, !nonnull !2, !noundef !2
; invoke core::ptr::drop_in_place::<serde_json::error::ErrorCode>
  invoke fastcc void @_RINvNtCsjMrxcFdYDNN_4core3ptr13drop_in_placeNtNtCs4eyShm1h0hl_10serde_json5error9ErrorCodeEBK_(ptr noalias noundef nonnull readonly align 8 dereferenceable(40) %_1.val.i)
          to label %_RINvNtCsjMrxcFdYDNN_4core3ptr13drop_in_placeNtNtCs4eyShm1h0hl_10serde_json5error5ErrorEBK_.exit unwind label %bb1.i.i, !noalias !224

bb1.i.i:                                          ; preds = %bb3
  %2 = landingpad { ptr, i32 }
          cleanup
; call __rustc::__rust_dealloc
  tail call void @_RNvCsKhRCbHf33p_7___rustc14___rust_dealloc(ptr noundef nonnull %_1.val.i, i64 noundef 40, i64 noundef 8) #34, !noalias !224
  resume { ptr, i32 } %2

_RINvNtCsjMrxcFdYDNN_4core3ptr13drop_in_placeNtNtCs4eyShm1h0hl_10serde_json5error5ErrorEBK_.exit: ; preds = %bb3
; call __rustc::__rust_dealloc
  tail call void @_RNvCsKhRCbHf33p_7___rustc14___rust_dealloc(ptr noundef nonnull %_1.val.i, i64 noundef 40, i64 noundef 8) #34, !noalias !224
  br label %bb1

bb1:                                              ; preds = %_RINvNtCsjMrxcFdYDNN_4core3ptr13drop_in_placeNtNtCs4eyShm1h0hl_10serde_json5error5ErrorEBK_.exit, %bb2
  ret void
}

; core::ptr::drop_in_place::<serde_json::map::Map<alloc::string::String, serde_json::value::Value>>
; Function Attrs: uwtable
define internal fastcc void @_RINvNtCsjMrxcFdYDNN_4core3ptr13drop_in_placeINtNtCs4eyShm1h0hl_10serde_json3map3MapNtNtCsdJPVW0sQgAG_5alloc6string6StringNtNtBL_5value5ValueEEBL_(ptr noalias noundef nonnull readonly align 8 captures(none) dereferenceable(24) %_1) unnamed_addr #3 {
start:
  %_x.i.i = alloca [72 x i8], align 8
  tail call void @llvm.experimental.noalias.scope.decl(metadata !227)
  tail call void @llvm.experimental.noalias.scope.decl(metadata !230)
  call void @llvm.lifetime.start.p0(i64 72, ptr nonnull %_x.i.i), !noalias !233
  %self1.sroa.0.0.copyload.i.i = load ptr, ptr %_1, align 8, !alias.scope !233
  %.not.i.i = icmp eq ptr %self1.sroa.0.0.copyload.i.i, null
  br i1 %.not.i.i, label %_RINvNtCsjMrxcFdYDNN_4core3ptr13drop_in_placeINtNtNtNtCsdJPVW0sQgAG_5alloc11collections5btree3map8BTreeMapNtNtBP_6string6StringNtNtCs4eyShm1h0hl_10serde_json5value5ValueEEB24_.exit, label %bb1.i.i

bb1.i.i:                                          ; preds = %start
  %self1.sroa.5.0.self.sroa_idx.i.i = getelementptr inbounds nuw i8, ptr %_1, i64 16
  %self1.sroa.5.0.copyload.i.i = load i64, ptr %self1.sroa.5.0.self.sroa_idx.i.i, align 8, !alias.scope !233
  %self1.sroa.4.0.self.sroa_idx.i.i = getelementptr inbounds nuw i8, ptr %_1, i64 8
  %self1.sroa.4.0.copyload.i.i = load i64, ptr %self1.sroa.4.0.self.sroa_idx.i.i, align 8, !alias.scope !233
  %full_range.sroa.4.0._x.sroa_idx.i.i = getelementptr inbounds nuw i8, ptr %_x.i.i, i64 8
  store ptr null, ptr %full_range.sroa.4.0._x.sroa_idx.i.i, align 8, !noalias !233
  %full_range.sroa.4.sroa.4.0.full_range.sroa.4.0._x.sroa_idx.sroa_idx.i.i = getelementptr inbounds nuw i8, ptr %_x.i.i, i64 16
  store ptr %self1.sroa.0.0.copyload.i.i, ptr %full_range.sroa.4.sroa.4.0.full_range.sroa.4.0._x.sroa_idx.sroa_idx.i.i, align 8, !noalias !233
  %full_range.sroa.4.sroa.5.0.full_range.sroa.4.0._x.sroa_idx.sroa_idx.i.i = getelementptr inbounds nuw i8, ptr %_x.i.i, i64 24
  store i64 %self1.sroa.4.0.copyload.i.i, ptr %full_range.sroa.4.sroa.5.0.full_range.sroa.4.0._x.sroa_idx.sroa_idx.i.i, align 8, !noalias !233
  %full_range.sroa.6.0._x.sroa_idx.i.i = getelementptr inbounds nuw i8, ptr %_x.i.i, i64 40
  store ptr null, ptr %full_range.sroa.6.0._x.sroa_idx.i.i, align 8, !noalias !233
  %full_range.sroa.6.sroa.4.0.full_range.sroa.6.0._x.sroa_idx.sroa_idx.i.i = getelementptr inbounds nuw i8, ptr %_x.i.i, i64 48
  store ptr %self1.sroa.0.0.copyload.i.i, ptr %full_range.sroa.6.sroa.4.0.full_range.sroa.6.0._x.sroa_idx.sroa_idx.i.i, align 8, !noalias !233
  %full_range.sroa.6.sroa.5.0.full_range.sroa.6.0._x.sroa_idx.sroa_idx.i.i = getelementptr inbounds nuw i8, ptr %_x.i.i, i64 56
  store i64 %self1.sroa.4.0.copyload.i.i, ptr %full_range.sroa.6.sroa.5.0.full_range.sroa.6.0._x.sroa_idx.sroa_idx.i.i, align 8, !noalias !233
  br label %_RINvNtCsjMrxcFdYDNN_4core3ptr13drop_in_placeINtNtNtNtCsdJPVW0sQgAG_5alloc11collections5btree3map8BTreeMapNtNtBP_6string6StringNtNtCs4eyShm1h0hl_10serde_json5value5ValueEEB24_.exit

_RINvNtCsjMrxcFdYDNN_4core3ptr13drop_in_placeINtNtNtNtCsdJPVW0sQgAG_5alloc11collections5btree3map8BTreeMapNtNtBP_6string6StringNtNtCs4eyShm1h0hl_10serde_json5value5ValueEEB24_.exit: ; preds = %start, %bb1.i.i
  %.sink1.i = phi i64 [ 1, %bb1.i.i ], [ 0, %start ]
  %self1.sroa.5.0.copyload.i.sink.i = phi i64 [ %self1.sroa.5.0.copyload.i.i, %bb1.i.i ], [ 0, %start ]
  store i64 %.sink1.i, ptr %_x.i.i, align 8, !noalias !233
  %0 = getelementptr inbounds nuw i8, ptr %_x.i.i, i64 32
  store i64 %.sink1.i, ptr %0, align 8, !noalias !233
  %1 = getelementptr inbounds nuw i8, ptr %_x.i.i, i64 64
  store i64 %self1.sroa.5.0.copyload.i.sink.i, ptr %1, align 8, !noalias !233
; call core::ptr::drop_in_place::<alloc::collections::btree::map::IntoIter<alloc::string::String, serde_json::value::Value>>
  call fastcc void @_RINvNtCsjMrxcFdYDNN_4core3ptr13drop_in_placeINtNtNtNtCsdJPVW0sQgAG_5alloc11collections5btree3map8IntoIterNtNtBP_6string6StringNtNtCs4eyShm1h0hl_10serde_json5value5ValueEEB24_(ptr noalias noundef align 8 dereferenceable(72) %_x.i.i), !noalias !233
  call void @llvm.lifetime.end.p0(i64 72, ptr nonnull %_x.i.i), !noalias !233
  ret void
}

; core::ptr::drop_in_place::<alloc::vec::Vec<serde_json::value::Value>>
; Function Attrs: uwtable
define internal fastcc void @_RINvNtCsjMrxcFdYDNN_4core3ptr13drop_in_placeINtNtCsdJPVW0sQgAG_5alloc3vec3VecNtNtCs4eyShm1h0hl_10serde_json5value5ValueEEB1h_(ptr noalias noundef nonnull readonly align 8 captures(none) dereferenceable(24) %_1) unnamed_addr #3 personality ptr @rust_eh_personality {
start:
  %0 = getelementptr inbounds nuw i8, ptr %_1, i64 8
  %_1.val4 = load ptr, ptr %0, align 8, !nonnull !2, !noundef !2
  %1 = getelementptr inbounds nuw i8, ptr %_1, i64 16
  %_1.val5 = load i64, ptr %1, align 8, !noundef !2
  br label %bb6.i.i

bb6.i.i:                                          ; preds = %bb5.i.i, %start
  %_3.sroa.0.0.i.i = phi i64 [ 0, %start ], [ %2, %bb5.i.i ]
  %_7.i.i = icmp eq i64 %_3.sroa.0.0.i.i, %_1.val5
  br i1 %_7.i.i, label %bb4, label %bb5.i.i

bb5.i.i:                                          ; preds = %bb6.i.i
  %_6.i.i = getelementptr inbounds nuw %"value::Value", ptr %_1.val4, i64 %_3.sroa.0.0.i.i
  %2 = add i64 %_3.sroa.0.0.i.i, 1
; invoke core::ptr::drop_in_place::<serde_json::value::Value>
  invoke fastcc void @_RINvNtCsjMrxcFdYDNN_4core3ptr13drop_in_placeNtNtCs4eyShm1h0hl_10serde_json5value5ValueEBK_(ptr noalias noundef readonly align 8 dereferenceable(32) %_6.i.i)
          to label %bb6.i.i unwind label %cleanup.i.i

bb4.i.i:                                          ; preds = %bb3.i.i, %cleanup.i.i
  %_3.sroa.0.1.i.i = phi i64 [ %2, %cleanup.i.i ], [ %4, %bb3.i.i ]
  %_5.i.i = icmp eq i64 %_3.sroa.0.1.i.i, %_1.val5
  br i1 %_5.i.i, label %cleanup.body, label %bb3.i.i

cleanup.i.i:                                      ; preds = %bb5.i.i
  %3 = landingpad { ptr, i32 }
          cleanup
  br label %bb4.i.i

bb3.i.i:                                          ; preds = %bb4.i.i
  %_4.i.i = getelementptr inbounds nuw %"value::Value", ptr %_1.val4, i64 %_3.sroa.0.1.i.i
  %4 = add i64 %_3.sroa.0.1.i.i, 1
; invoke core::ptr::drop_in_place::<serde_json::value::Value>
  invoke fastcc void @_RINvNtCsjMrxcFdYDNN_4core3ptr13drop_in_placeNtNtCs4eyShm1h0hl_10serde_json5value5ValueEBK_(ptr noalias noundef readonly align 8 dereferenceable(32) %_4.i.i) #37
          to label %bb4.i.i unwind label %terminate.i.i

terminate.i.i:                                    ; preds = %bb3.i.i
  %5 = landingpad { ptr, i32 }
          filter [0 x ptr] zeroinitializer
; call core::panicking::panic_in_cleanup
  tail call void @_RNvNtCsjMrxcFdYDNN_4core9panicking16panic_in_cleanup() #38
  unreachable

cleanup.body:                                     ; preds = %bb4.i.i
  %_1.val = load i64, ptr %_1, align 8, !range !27, !noundef !2
  %6 = icmp eq i64 %_1.val, 0
  br i1 %6, label %bb1, label %bb2.i.i.i

bb2.i.i.i:                                        ; preds = %cleanup.body
  %alloc_size.i.i.i.i = shl nuw i64 %_1.val, 5
; call __rustc::__rust_dealloc
  tail call void @_RNvCsKhRCbHf33p_7___rustc14___rust_dealloc(ptr noundef nonnull %_1.val4, i64 noundef %alloc_size.i.i.i.i, i64 noundef range(i64 1, -9223372036854775807) 8) #34
  br label %bb1

bb4:                                              ; preds = %bb6.i.i
  %_1.val2 = load i64, ptr %_1, align 8, !range !27, !noundef !2
  %7 = icmp eq i64 %_1.val2, 0
  br i1 %7, label %_RINvNtCsjMrxcFdYDNN_4core3ptr13drop_in_placeINtNtCsdJPVW0sQgAG_5alloc7raw_vec6RawVecNtNtCs4eyShm1h0hl_10serde_json5value5ValueEEB1o_.exit8, label %bb2.i.i.i6

bb2.i.i.i6:                                       ; preds = %bb4
  %alloc_size.i.i.i.i7 = shl nuw i64 %_1.val2, 5
; call __rustc::__rust_dealloc
  tail call void @_RNvCsKhRCbHf33p_7___rustc14___rust_dealloc(ptr noundef nonnull %_1.val4, i64 noundef %alloc_size.i.i.i.i7, i64 noundef range(i64 1, -9223372036854775807) 8) #34
  br label %_RINvNtCsjMrxcFdYDNN_4core3ptr13drop_in_placeINtNtCsdJPVW0sQgAG_5alloc7raw_vec6RawVecNtNtCs4eyShm1h0hl_10serde_json5value5ValueEEB1o_.exit8

_RINvNtCsjMrxcFdYDNN_4core3ptr13drop_in_placeINtNtCsdJPVW0sQgAG_5alloc7raw_vec6RawVecNtNtCs4eyShm1h0hl_10serde_json5value5ValueEEB1o_.exit8: ; preds = %bb4, %bb2.i.i.i6
  ret void

bb1:                                              ; preds = %bb2.i.i.i, %cleanup.body
  resume { ptr, i32 } %3
}

; core::ptr::drop_in_place::<alloc::collections::btree::map::IntoIter<alloc::string::String, serde_json::value::Value>>
; Function Attrs: uwtable
define internal fastcc void @_RINvNtCsjMrxcFdYDNN_4core3ptr13drop_in_placeINtNtNtNtCsdJPVW0sQgAG_5alloc11collections5btree3map8IntoIterNtNtBP_6string6StringNtNtCs4eyShm1h0hl_10serde_json5value5ValueEEB24_(ptr noalias noundef nonnull align 8 dereferenceable(72) %_1) unnamed_addr #3 personality ptr @rust_eh_personality {
start:
  %guard.i = alloca [8 x i8], align 8
  %_2.i = alloca [24 x i8], align 8
  call void @llvm.lifetime.start.p0(i64 24, ptr nonnull %_2.i), !noalias !234
; call <alloc::collections::btree::map::IntoIter<alloc::string::String, serde_json::value::Value>>::dying_next
  call fastcc void @_RNvMsz_NtNtNtCsdJPVW0sQgAG_5alloc11collections5btree3mapINtB5_8IntoIterNtNtBb_6string6StringNtNtCs4eyShm1h0hl_10serde_json5value5ValueE10dying_nextB1w_(ptr noalias noundef align 8 captures(none) dereferenceable(24) %_2.i, ptr noalias noundef nonnull align 8 dereferenceable(72) %_1)
  %0 = load ptr, ptr %_2.i, align 8, !noalias !234, !noundef !2
  %.not.i2 = icmp eq ptr %0, null
  br i1 %.not.i2, label %_RNvXsy_NtNtNtCsdJPVW0sQgAG_5alloc11collections5btree3mapINtB5_8IntoIterNtNtBb_6string6StringNtNtCs4eyShm1h0hl_10serde_json5value5ValueENtNtNtCsjMrxcFdYDNN_4core3ops4drop4Drop4dropB1w_.exit, label %bb3.i.lr.ph

bb3.i.lr.ph:                                      ; preds = %start
  %kv.i.sroa.41.0._2.i.sroa_idx = getelementptr inbounds nuw i8, ptr %_2.i, i64 16
  br label %bb3.i

bb3.i:                                            ; preds = %bb3.i.lr.ph, %bb4.i
  %1 = phi ptr [ %0, %bb3.i.lr.ph ], [ %5, %bb4.i ]
  %kv.i.sroa.41.0.copyload = load i64, ptr %kv.i.sroa.41.0._2.i.sroa_idx, align 8, !noalias !234
  call void @llvm.lifetime.start.p0(i64 8, ptr nonnull %guard.i), !noalias !234
  store ptr %_1, ptr %guard.i, align 8, !noalias !234
  %_5.i = getelementptr inbounds nuw i8, ptr %1, i64 360
  %key.i = getelementptr inbounds nuw %"core::mem::maybe_uninit::MaybeUninit<alloc::string::String>", ptr %_5.i, i64 %kv.i.sroa.41.0.copyload
  %_17.i = getelementptr inbounds nuw %"core::mem::maybe_uninit::MaybeUninit<value::Value>", ptr %1, i64 %kv.i.sroa.41.0.copyload
  tail call void @llvm.experimental.noalias.scope.decl(metadata !237)
  %_1.val.i.i = load i64, ptr %key.i, align 8, !alias.scope !237, !noalias !240
  %2 = icmp eq i64 %_1.val.i.i, 0
  br i1 %2, label %_RINvNtCsjMrxcFdYDNN_4core3ptr13drop_in_placeNtNtCsdJPVW0sQgAG_5alloc6string6StringECs4eyShm1h0hl_10serde_json.exit.i, label %bb2.i.i.i4.i.i.i

bb2.i.i.i4.i.i.i:                                 ; preds = %bb3.i
  %3 = getelementptr inbounds nuw i8, ptr %key.i, i64 8
  %_1.val1.i.i = load ptr, ptr %3, align 8, !alias.scope !237, !noalias !240, !nonnull !2, !noundef !2
; call __rustc::__rust_dealloc
  tail call void @_RNvCsKhRCbHf33p_7___rustc14___rust_dealloc(ptr noundef nonnull %_1.val1.i.i, i64 noundef %_1.val.i.i, i64 noundef range(i64 1, -9223372036854775807) 1) #34, !noalias !243
  br label %_RINvNtCsjMrxcFdYDNN_4core3ptr13drop_in_placeNtNtCsdJPVW0sQgAG_5alloc6string6StringECs4eyShm1h0hl_10serde_json.exit.i

_RINvNtCsjMrxcFdYDNN_4core3ptr13drop_in_placeNtNtCsdJPVW0sQgAG_5alloc6string6StringECs4eyShm1h0hl_10serde_json.exit.i: ; preds = %bb2.i.i.i4.i.i.i, %bb3.i
; invoke core::ptr::drop_in_place::<serde_json::value::Value>
  invoke fastcc void @_RINvNtCsjMrxcFdYDNN_4core3ptr13drop_in_placeNtNtCs4eyShm1h0hl_10serde_json5value5ValueEBK_(ptr noalias noundef align 8 dereferenceable(32) %_17.i)
          to label %bb4.i unwind label %cleanup.i

cleanup.i:                                        ; preds = %_RINvNtCsjMrxcFdYDNN_4core3ptr13drop_in_placeNtNtCsdJPVW0sQgAG_5alloc6string6StringECs4eyShm1h0hl_10serde_json.exit.i
  %4 = landingpad { ptr, i32 }
          cleanup
; invoke core::ptr::drop_in_place::<<alloc::collections::btree::map::IntoIter<_, _, _> as core::ops::drop::Drop>::drop::DropGuard<alloc::string::String, serde_json::value::Value, alloc::alloc::Global>>
  invoke fastcc void @_RINvNtCsjMrxcFdYDNN_4core3ptr13drop_in_placeINtNvXsy_NtNtNtCsdJPVW0sQgAG_5alloc11collections5btree3mapINtBP_8IntoIterpppENtNtNtB4_3ops4drop4Drop4drop9DropGuardNtNtBV_6string6StringNtNtCs4eyShm1h0hl_10serde_json5value5ValueNtNtBV_5alloc6GlobalEEB2W_(ptr noalias noundef align 8 dereferenceable(8) %guard.i) #37
          to label %bb6.i unwind label %terminate.i

bb4.i:                                            ; preds = %_RINvNtCsjMrxcFdYDNN_4core3ptr13drop_in_placeNtNtCsdJPVW0sQgAG_5alloc6string6StringECs4eyShm1h0hl_10serde_json.exit.i
  call void @llvm.lifetime.end.p0(i64 8, ptr nonnull %guard.i), !noalias !234
  call void @llvm.lifetime.end.p0(i64 24, ptr nonnull %_2.i), !noalias !234
  call void @llvm.lifetime.start.p0(i64 24, ptr nonnull %_2.i), !noalias !234
; call <alloc::collections::btree::map::IntoIter<alloc::string::String, serde_json::value::Value>>::dying_next
  call fastcc void @_RNvMsz_NtNtNtCsdJPVW0sQgAG_5alloc11collections5btree3mapINtB5_8IntoIterNtNtBb_6string6StringNtNtCs4eyShm1h0hl_10serde_json5value5ValueE10dying_nextB1w_(ptr noalias noundef align 8 captures(none) dereferenceable(24) %_2.i, ptr noalias noundef nonnull align 8 dereferenceable(72) %_1)
  %5 = load ptr, ptr %_2.i, align 8, !noalias !234, !noundef !2
  %.not.i = icmp eq ptr %5, null
  br i1 %.not.i, label %_RNvXsy_NtNtNtCsdJPVW0sQgAG_5alloc11collections5btree3mapINtB5_8IntoIterNtNtBb_6string6StringNtNtCs4eyShm1h0hl_10serde_json5value5ValueENtNtNtCsjMrxcFdYDNN_4core3ops4drop4Drop4dropB1w_.exit, label %bb3.i

terminate.i:                                      ; preds = %cleanup.i
  %6 = landingpad { ptr, i32 }
          filter [0 x ptr] zeroinitializer
; call core::panicking::panic_in_cleanup
  tail call void @_RNvNtCsjMrxcFdYDNN_4core9panicking16panic_in_cleanup() #38
  unreachable

bb6.i:                                            ; preds = %cleanup.i
  resume { ptr, i32 } %4

_RNvXsy_NtNtNtCsdJPVW0sQgAG_5alloc11collections5btree3mapINtB5_8IntoIterNtNtBb_6string6StringNtNtCs4eyShm1h0hl_10serde_json5value5ValueENtNtNtCsjMrxcFdYDNN_4core3ops4drop4Drop4dropB1w_.exit: ; preds = %bb4.i, %start
  call void @llvm.lifetime.end.p0(i64 24, ptr nonnull %_2.i), !noalias !234
  ret void
}

; core::ptr::drop_in_place::<<alloc::collections::btree::map::IntoIter<_, _, _> as core::ops::drop::Drop>::drop::DropGuard<alloc::string::String, serde_json::value::Value, alloc::alloc::Global>>
; Function Attrs: uwtable
define internal fastcc void @_RINvNtCsjMrxcFdYDNN_4core3ptr13drop_in_placeINtNvXsy_NtNtNtCsdJPVW0sQgAG_5alloc11collections5btree3mapINtBP_8IntoIterpppENtNtNtB4_3ops4drop4Drop4drop9DropGuardNtNtBV_6string6StringNtNtCs4eyShm1h0hl_10serde_json5value5ValueNtNtBV_5alloc6GlobalEEB2W_(ptr noalias noundef nonnull readonly align 8 captures(none) dereferenceable(8) %_1) unnamed_addr #3 personality ptr @rust_eh_personality {
start:
  %_2.i = alloca [24 x i8], align 8
  tail call void @llvm.experimental.noalias.scope.decl(metadata !244)
  %_6.i = load ptr, ptr %_1, align 8, !alias.scope !244, !nonnull !2, !align !91, !noundef !2
  call void @llvm.lifetime.start.p0(i64 24, ptr nonnull %_2.i), !noalias !244
; call <alloc::collections::btree::map::IntoIter<alloc::string::String, serde_json::value::Value>>::dying_next
  call fastcc void @_RNvMsz_NtNtNtCsdJPVW0sQgAG_5alloc11collections5btree3mapINtB5_8IntoIterNtNtBb_6string6StringNtNtCs4eyShm1h0hl_10serde_json5value5ValueE10dying_nextB1w_(ptr noalias noundef align 8 captures(none) dereferenceable(24) %_2.i, ptr noalias noundef align 8 dereferenceable(72) %_6.i), !noalias !244
  %0 = load ptr, ptr %_2.i, align 8, !noalias !244, !noundef !2
  %.not.i2 = icmp eq ptr %0, null
  br i1 %.not.i2, label %_RNvXNvXsy_NtNtNtCsdJPVW0sQgAG_5alloc11collections5btree3mapINtB8_8IntoIterpppENtNtNtCsjMrxcFdYDNN_4core3ops4drop4Drop4dropINtB2_9DropGuardNtNtBe_6string6StringNtNtCs4eyShm1h0hl_10serde_json5value5ValueNtNtBe_5alloc6GlobalEB1e_4dropB2B_.exit, label %bb3.i.lr.ph

bb3.i.lr.ph:                                      ; preds = %start
  %kv.i.sroa.41.0._2.i.sroa_idx = getelementptr inbounds nuw i8, ptr %_2.i, i64 16
  br label %bb3.i

bb3.i:                                            ; preds = %bb3.i.lr.ph, %_RNvMsT_NtNtNtCsdJPVW0sQgAG_5alloc11collections5btree4nodeINtB5_6HandleINtB5_7NodeRefNtNtB5_6marker5DyingNtNtBb_6string6StringNtNtCs4eyShm1h0hl_10serde_json5value5ValueNtB1m_14LeafOrInternalENtB1m_2KVE12drop_key_valB23_.exit
  %1 = phi ptr [ %0, %bb3.i.lr.ph ], [ %4, %_RNvMsT_NtNtNtCsdJPVW0sQgAG_5alloc11collections5btree4nodeINtB5_6HandleINtB5_7NodeRefNtNtB5_6marker5DyingNtNtBb_6string6StringNtNtCs4eyShm1h0hl_10serde_json5value5ValueNtB1m_14LeafOrInternalENtB1m_2KVE12drop_key_valB23_.exit ]
  %kv.i.sroa.41.0.copyload = load i64, ptr %kv.i.sroa.41.0._2.i.sroa_idx, align 8, !noalias !244
  %_5.i = getelementptr inbounds nuw i8, ptr %1, i64 360
  %key.i = getelementptr inbounds nuw %"core::mem::maybe_uninit::MaybeUninit<alloc::string::String>", ptr %_5.i, i64 %kv.i.sroa.41.0.copyload
  %_17.i = getelementptr inbounds nuw %"core::mem::maybe_uninit::MaybeUninit<value::Value>", ptr %1, i64 %kv.i.sroa.41.0.copyload
  tail call void @llvm.experimental.noalias.scope.decl(metadata !247), !noalias !244
  %_1.val.i.i = load i64, ptr %key.i, align 8, !alias.scope !247, !noalias !250
  %2 = icmp eq i64 %_1.val.i.i, 0
  br i1 %2, label %_RNvMsT_NtNtNtCsdJPVW0sQgAG_5alloc11collections5btree4nodeINtB5_6HandleINtB5_7NodeRefNtNtB5_6marker5DyingNtNtBb_6string6StringNtNtCs4eyShm1h0hl_10serde_json5value5ValueNtB1m_14LeafOrInternalENtB1m_2KVE12drop_key_valB23_.exit, label %bb2.i.i.i4.i.i.i

bb2.i.i.i4.i.i.i:                                 ; preds = %bb3.i
  %3 = getelementptr inbounds nuw i8, ptr %key.i, i64 8
  %_1.val1.i.i = load ptr, ptr %3, align 8, !alias.scope !247, !noalias !250, !nonnull !2, !noundef !2
; call __rustc::__rust_dealloc
  tail call void @_RNvCsKhRCbHf33p_7___rustc14___rust_dealloc(ptr noundef nonnull %_1.val1.i.i, i64 noundef %_1.val.i.i, i64 noundef range(i64 1, -9223372036854775807) 1) #34, !noalias !253
  br label %_RNvMsT_NtNtNtCsdJPVW0sQgAG_5alloc11collections5btree4nodeINtB5_6HandleINtB5_7NodeRefNtNtB5_6marker5DyingNtNtBb_6string6StringNtNtCs4eyShm1h0hl_10serde_json5value5ValueNtB1m_14LeafOrInternalENtB1m_2KVE12drop_key_valB23_.exit

_RNvMsT_NtNtNtCsdJPVW0sQgAG_5alloc11collections5btree4nodeINtB5_6HandleINtB5_7NodeRefNtNtB5_6marker5DyingNtNtBb_6string6StringNtNtCs4eyShm1h0hl_10serde_json5value5ValueNtB1m_14LeafOrInternalENtB1m_2KVE12drop_key_valB23_.exit: ; preds = %bb3.i, %bb2.i.i.i4.i.i.i
; call core::ptr::drop_in_place::<serde_json::value::Value>
  tail call fastcc void @_RINvNtCsjMrxcFdYDNN_4core3ptr13drop_in_placeNtNtCs4eyShm1h0hl_10serde_json5value5ValueEBK_(ptr noalias noundef align 8 dereferenceable(32) %_17.i), !noalias !254
  call void @llvm.lifetime.end.p0(i64 24, ptr nonnull %_2.i), !noalias !244
  call void @llvm.lifetime.start.p0(i64 24, ptr nonnull %_2.i), !noalias !244
; call <alloc::collections::btree::map::IntoIter<alloc::string::String, serde_json::value::Value>>::dying_next
  call fastcc void @_RNvMsz_NtNtNtCsdJPVW0sQgAG_5alloc11collections5btree3mapINtB5_8IntoIterNtNtBb_6string6StringNtNtCs4eyShm1h0hl_10serde_json5value5ValueE10dying_nextB1w_(ptr noalias noundef align 8 captures(none) dereferenceable(24) %_2.i, ptr noalias noundef align 8 dereferenceable(72) %_6.i), !noalias !244
  %4 = load ptr, ptr %_2.i, align 8, !noalias !244, !noundef !2
  %.not.i = icmp eq ptr %4, null
  br i1 %.not.i, label %_RNvXNvXsy_NtNtNtCsdJPVW0sQgAG_5alloc11collections5btree3mapINtB8_8IntoIterpppENtNtNtCsjMrxcFdYDNN_4core3ops4drop4Drop4dropINtB2_9DropGuardNtNtBe_6string6StringNtNtCs4eyShm1h0hl_10serde_json5value5ValueNtNtBe_5alloc6GlobalEB1e_4dropB2B_.exit, label %bb3.i

_RNvXNvXsy_NtNtNtCsdJPVW0sQgAG_5alloc11collections5btree3mapINtB8_8IntoIterpppENtNtNtCsjMrxcFdYDNN_4core3ops4drop4Drop4dropINtB2_9DropGuardNtNtBe_6string6StringNtNtCs4eyShm1h0hl_10serde_json5value5ValueNtNtBe_5alloc6GlobalEB1e_4dropB2B_.exit: ; preds = %_RNvMsT_NtNtNtCsdJPVW0sQgAG_5alloc11collections5btree4nodeINtB5_6HandleINtB5_7NodeRefNtNtB5_6marker5DyingNtNtBb_6string6StringNtNtCs4eyShm1h0hl_10serde_json5value5ValueNtB1m_14LeafOrInternalENtB1m_2KVE12drop_key_valB23_.exit, %start
  call void @llvm.lifetime.end.p0(i64 24, ptr nonnull %_2.i), !noalias !244
  ret void
}

; core::ptr::drop_in_place::<serde_json::error::Error>
; Function Attrs: uwtable
define internal void @_RINvNtCsjMrxcFdYDNN_4core3ptr13drop_in_placeNtNtCs4eyShm1h0hl_10serde_json5error5ErrorEBK_(ptr noalias noundef readonly align 8 captures(none) dereferenceable(8) %_1) unnamed_addr #3 personality ptr @rust_eh_personality {
start:
  %_1.val = load ptr, ptr %_1, align 8, !nonnull !2, !noundef !2
; invoke core::ptr::drop_in_place::<serde_json::error::ErrorCode>
  invoke fastcc void @_RINvNtCsjMrxcFdYDNN_4core3ptr13drop_in_placeNtNtCs4eyShm1h0hl_10serde_json5error9ErrorCodeEBK_(ptr noalias noundef nonnull readonly align 8 dereferenceable(40) %_1.val)
          to label %_RINvNtCsjMrxcFdYDNN_4core3ptr13drop_in_placeINtNtCsdJPVW0sQgAG_5alloc5boxed3BoxNtNtCs4eyShm1h0hl_10serde_json5error9ErrorImplEEB1j_.exit unwind label %bb1.i

bb1.i:                                            ; preds = %start
  %0 = landingpad { ptr, i32 }
          cleanup
; call __rustc::__rust_dealloc
  tail call void @_RNvCsKhRCbHf33p_7___rustc14___rust_dealloc(ptr noundef nonnull %_1.val, i64 noundef 40, i64 noundef 8) #34
  resume { ptr, i32 } %0

_RINvNtCsjMrxcFdYDNN_4core3ptr13drop_in_placeINtNtCsdJPVW0sQgAG_5alloc5boxed3BoxNtNtCs4eyShm1h0hl_10serde_json5error9ErrorImplEEB1j_.exit: ; preds = %start
; call __rustc::__rust_dealloc
  tail call void @_RNvCsKhRCbHf33p_7___rustc14___rust_dealloc(ptr noundef nonnull %_1.val, i64 noundef 40, i64 noundef 8) #34
  ret void
}

; core::ptr::drop_in_place::<serde_json::error::ErrorCode>
; Function Attrs: uwtable
define internal fastcc void @_RINvNtCsjMrxcFdYDNN_4core3ptr13drop_in_placeNtNtCs4eyShm1h0hl_10serde_json5error9ErrorCodeEBK_(ptr noalias noundef nonnull readonly align 8 captures(none) dereferenceable(24) %_1) unnamed_addr #3 personality ptr @rust_eh_personality {
start:
  %_2 = load i64, ptr %_1, align 8, !range !257, !noundef !2
  switch i64 %_2, label %bb1 [
    i64 0, label %bb2
    i64 1, label %bb3
  ]

bb1:                                              ; preds = %_RINvNtCsjMrxcFdYDNN_4core3ptr13drop_in_placeINtNtCsdJPVW0sQgAG_5alloc5boxed3BoxNtNtNtCs5sEH5CPMdak_3std2io5error6CustomEECs4eyShm1h0hl_10serde_json.exit.i.i.i.i, %bb3, %_RNvXs_NtCsdJPVW0sQgAG_5alloc5allocNtB4_6GlobalNtNtCsjMrxcFdYDNN_4core5alloc9Allocator10deallocate.exit.i.i, %bb2, %start
  ret void

bb2:                                              ; preds = %start
  %0 = getelementptr inbounds nuw i8, ptr %_1, i64 16
  %.val1 = load i64, ptr %0, align 8, !noundef !2
  %1 = icmp eq i64 %.val1, 0
  br i1 %1, label %bb1, label %_RNvXs_NtCsdJPVW0sQgAG_5alloc5allocNtB4_6GlobalNtNtCsjMrxcFdYDNN_4core5alloc9Allocator10deallocate.exit.i.i

_RNvXs_NtCsdJPVW0sQgAG_5alloc5allocNtB4_6GlobalNtNtCsjMrxcFdYDNN_4core5alloc9Allocator10deallocate.exit.i.i: ; preds = %bb2
  %2 = getelementptr inbounds nuw i8, ptr %_1, i64 8
  %.val = load ptr, ptr %2, align 8, !nonnull !2, !noundef !2
; call __rustc::__rust_dealloc
  tail call void @_RNvCsKhRCbHf33p_7___rustc14___rust_dealloc(ptr noundef nonnull %.val, i64 noundef %.val1, i64 noundef 1) #34
  br label %bb1

bb3:                                              ; preds = %start
  %3 = getelementptr inbounds nuw i8, ptr %_1, i64 8
  %.val2 = load ptr, ptr %3, align 8, !nonnull !2, !noundef !2
  %bits.i.i.i.i = ptrtoint ptr %.val2 to i64
  %_5.i.i.i.i = and i64 %bits.i.i.i.i, 3
  %switch.i.i.i = icmp eq i64 %_5.i.i.i.i, 1
  br i1 %switch.i.i.i, label %bb2.i2.i.i.i, label %bb1, !prof !258

bb2.i2.i.i.i:                                     ; preds = %bb3
  %4 = getelementptr i8, ptr %.val2, i64 -1
  %5 = icmp ne ptr %4, null
  tail call void @llvm.assume(i1 %5)
  %_6.val.i.i.i.i.i = load ptr, ptr %4, align 8
  %6 = getelementptr i8, ptr %.val2, i64 7
  %_6.val1.i.i.i.i.i = load ptr, ptr %6, align 8, !nonnull !2, !align !91, !noundef !2
  %7 = load ptr, ptr %_6.val1.i.i.i.i.i, align 8, !invariant.load !2
  %.not.i.i.i.i.i.i.i = icmp eq ptr %7, null
  br i1 %.not.i.i.i.i.i.i.i, label %bb3.i.i.i.i.i.i.i, label %is_not_null.i.i.i.i.i.i.i

is_not_null.i.i.i.i.i.i.i:                        ; preds = %bb2.i2.i.i.i
  %8 = icmp ne ptr %_6.val.i.i.i.i.i, null
  tail call void @llvm.assume(i1 %8)
  invoke void %7(ptr noundef nonnull %_6.val.i.i.i.i.i)
          to label %bb3.i.i.i.i.i.i.i unwind label %cleanup.i.i.i.i.i.i.i

bb3.i.i.i.i.i.i.i:                                ; preds = %is_not_null.i.i.i.i.i.i.i, %bb2.i2.i.i.i
  %9 = icmp ne ptr %_6.val.i.i.i.i.i, null
  tail call void @llvm.assume(i1 %9)
  %10 = getelementptr inbounds nuw i8, ptr %_6.val1.i.i.i.i.i, i64 8
  %11 = load i64, ptr %10, align 8, !range !27, !invariant.load !2
  %12 = getelementptr inbounds nuw i8, ptr %_6.val1.i.i.i.i.i, i64 16
  %13 = load i64, ptr %12, align 8, !range !259, !invariant.load !2
  %14 = add i64 %13, -1
  %15 = icmp sgt i64 %14, -1
  tail call void @llvm.assume(i1 %15)
  %16 = icmp eq i64 %11, 0
  br i1 %16, label %_RINvNtCsjMrxcFdYDNN_4core3ptr13drop_in_placeINtNtCsdJPVW0sQgAG_5alloc5boxed3BoxNtNtNtCs5sEH5CPMdak_3std2io5error6CustomEECs4eyShm1h0hl_10serde_json.exit.i.i.i.i, label %_RNvXs_NtCsdJPVW0sQgAG_5alloc5allocNtB4_6GlobalNtNtCsjMrxcFdYDNN_4core5alloc9Allocator10deallocate.exit.i.i.i.i.i.i.i.i

_RNvXs_NtCsdJPVW0sQgAG_5alloc5allocNtB4_6GlobalNtNtCsjMrxcFdYDNN_4core5alloc9Allocator10deallocate.exit.i.i.i.i.i.i.i.i: ; preds = %bb3.i.i.i.i.i.i.i
; call __rustc::__rust_dealloc
  tail call void @_RNvCsKhRCbHf33p_7___rustc14___rust_dealloc(ptr noundef nonnull %_6.val.i.i.i.i.i, i64 noundef %11, i64 noundef range(i64 1, -9223372036854775807) %13) #34
  br label %_RINvNtCsjMrxcFdYDNN_4core3ptr13drop_in_placeINtNtCsdJPVW0sQgAG_5alloc5boxed3BoxNtNtNtCs5sEH5CPMdak_3std2io5error6CustomEECs4eyShm1h0hl_10serde_json.exit.i.i.i.i

cleanup.i.i.i.i.i.i.i:                            ; preds = %is_not_null.i.i.i.i.i.i.i
  %17 = landingpad { ptr, i32 }
          cleanup
  %18 = getelementptr inbounds nuw i8, ptr %_6.val1.i.i.i.i.i, i64 8
  %19 = load i64, ptr %18, align 8, !range !27, !invariant.load !2
  %20 = getelementptr inbounds nuw i8, ptr %_6.val1.i.i.i.i.i, i64 16
  %21 = load i64, ptr %20, align 8, !range !259, !invariant.load !2
  %22 = add i64 %21, -1
  %23 = icmp sgt i64 %22, -1
  tail call void @llvm.assume(i1 %23)
  %24 = icmp eq i64 %19, 0
  br i1 %24, label %bb1.i.i.i.i.i, label %_RNvXs_NtCsdJPVW0sQgAG_5alloc5allocNtB4_6GlobalNtNtCsjMrxcFdYDNN_4core5alloc9Allocator10deallocate.exit.i4.i.i.i.i.i.i.i

_RNvXs_NtCsdJPVW0sQgAG_5alloc5allocNtB4_6GlobalNtNtCsjMrxcFdYDNN_4core5alloc9Allocator10deallocate.exit.i4.i.i.i.i.i.i.i: ; preds = %cleanup.i.i.i.i.i.i.i
; call __rustc::__rust_dealloc
  tail call void @_RNvCsKhRCbHf33p_7___rustc14___rust_dealloc(ptr noundef nonnull %_6.val.i.i.i.i.i, i64 noundef %19, i64 noundef range(i64 1, -9223372036854775807) %21) #34
  br label %bb1.i.i.i.i.i

bb1.i.i.i.i.i:                                    ; preds = %_RNvXs_NtCsdJPVW0sQgAG_5alloc5allocNtB4_6GlobalNtNtCsjMrxcFdYDNN_4core5alloc9Allocator10deallocate.exit.i4.i.i.i.i.i.i.i, %cleanup.i.i.i.i.i.i.i
; call __rustc::__rust_dealloc
  tail call void @_RNvCsKhRCbHf33p_7___rustc14___rust_dealloc(ptr noundef nonnull %4, i64 noundef 24, i64 noundef 8) #34
  resume { ptr, i32 } %17

_RINvNtCsjMrxcFdYDNN_4core3ptr13drop_in_placeINtNtCsdJPVW0sQgAG_5alloc5boxed3BoxNtNtNtCs5sEH5CPMdak_3std2io5error6CustomEECs4eyShm1h0hl_10serde_json.exit.i.i.i.i: ; preds = %_RNvXs_NtCsdJPVW0sQgAG_5alloc5allocNtB4_6GlobalNtNtCsjMrxcFdYDNN_4core5alloc9Allocator10deallocate.exit.i.i.i.i.i.i.i.i, %bb3.i.i.i.i.i.i.i
; call __rustc::__rust_dealloc
  tail call void @_RNvCsKhRCbHf33p_7___rustc14___rust_dealloc(ptr noundef nonnull %4, i64 noundef 24, i64 noundef 8) #34
  br label %bb1
}

; core::ptr::drop_in_place::<serde_json::value::Value>
; Function Attrs: uwtable
define internal fastcc void @_RINvNtCsjMrxcFdYDNN_4core3ptr13drop_in_placeNtNtCs4eyShm1h0hl_10serde_json5value5ValueEBK_(ptr noalias noundef nonnull readonly align 8 captures(none) dereferenceable(32) %_1) unnamed_addr #3 personality ptr @rust_eh_personality {
start:
  %_x.i.i = alloca [72 x i8], align 8
  %0 = load i8, ptr %_1, align 8, !range !260, !noundef !2
  switch i8 %0, label %bb4 [
    i8 0, label %bb1
    i8 1, label %bb1
    i8 2, label %bb1
    i8 3, label %bb2
    i8 4, label %bb3
  ]

bb4:                                              ; preds = %start
  %1 = getelementptr inbounds nuw i8, ptr %_1, i64 8
  tail call void @llvm.experimental.noalias.scope.decl(metadata !261)
  tail call void @llvm.experimental.noalias.scope.decl(metadata !264)
  call void @llvm.lifetime.start.p0(i64 72, ptr nonnull %_x.i.i), !noalias !267
  %self1.sroa.0.0.copyload.i.i = load ptr, ptr %1, align 8, !alias.scope !267
  %.not.i.i = icmp eq ptr %self1.sroa.0.0.copyload.i.i, null
  br i1 %.not.i.i, label %_RINvNtCsjMrxcFdYDNN_4core3ptr13drop_in_placeINtNtNtNtCsdJPVW0sQgAG_5alloc11collections5btree3map8BTreeMapNtNtBP_6string6StringNtNtCs4eyShm1h0hl_10serde_json5value5ValueEEB24_.exit, label %bb1.i.i

bb1.i.i:                                          ; preds = %bb4
  %self1.sroa.5.0.self.sroa_idx.i.i = getelementptr inbounds nuw i8, ptr %_1, i64 24
  %self1.sroa.5.0.copyload.i.i = load i64, ptr %self1.sroa.5.0.self.sroa_idx.i.i, align 8, !alias.scope !267
  %self1.sroa.4.0.self.sroa_idx.i.i = getelementptr inbounds nuw i8, ptr %_1, i64 16
  %self1.sroa.4.0.copyload.i.i = load i64, ptr %self1.sroa.4.0.self.sroa_idx.i.i, align 8, !alias.scope !267
  %full_range.sroa.4.0._x.sroa_idx.i.i = getelementptr inbounds nuw i8, ptr %_x.i.i, i64 8
  store ptr null, ptr %full_range.sroa.4.0._x.sroa_idx.i.i, align 8, !noalias !267
  %full_range.sroa.4.sroa.4.0.full_range.sroa.4.0._x.sroa_idx.sroa_idx.i.i = getelementptr inbounds nuw i8, ptr %_x.i.i, i64 16
  store ptr %self1.sroa.0.0.copyload.i.i, ptr %full_range.sroa.4.sroa.4.0.full_range.sroa.4.0._x.sroa_idx.sroa_idx.i.i, align 8, !noalias !267
  %full_range.sroa.4.sroa.5.0.full_range.sroa.4.0._x.sroa_idx.sroa_idx.i.i = getelementptr inbounds nuw i8, ptr %_x.i.i, i64 24
  store i64 %self1.sroa.4.0.copyload.i.i, ptr %full_range.sroa.4.sroa.5.0.full_range.sroa.4.0._x.sroa_idx.sroa_idx.i.i, align 8, !noalias !267
  %full_range.sroa.6.0._x.sroa_idx.i.i = getelementptr inbounds nuw i8, ptr %_x.i.i, i64 40
  store ptr null, ptr %full_range.sroa.6.0._x.sroa_idx.i.i, align 8, !noalias !267
  %full_range.sroa.6.sroa.4.0.full_range.sroa.6.0._x.sroa_idx.sroa_idx.i.i = getelementptr inbounds nuw i8, ptr %_x.i.i, i64 48
  store ptr %self1.sroa.0.0.copyload.i.i, ptr %full_range.sroa.6.sroa.4.0.full_range.sroa.6.0._x.sroa_idx.sroa_idx.i.i, align 8, !noalias !267
  %full_range.sroa.6.sroa.5.0.full_range.sroa.6.0._x.sroa_idx.sroa_idx.i.i = getelementptr inbounds nuw i8, ptr %_x.i.i, i64 56
  store i64 %self1.sroa.4.0.copyload.i.i, ptr %full_range.sroa.6.sroa.5.0.full_range.sroa.6.0._x.sroa_idx.sroa_idx.i.i, align 8, !noalias !267
  br label %_RINvNtCsjMrxcFdYDNN_4core3ptr13drop_in_placeINtNtNtNtCsdJPVW0sQgAG_5alloc11collections5btree3map8BTreeMapNtNtBP_6string6StringNtNtCs4eyShm1h0hl_10serde_json5value5ValueEEB24_.exit

_RINvNtCsjMrxcFdYDNN_4core3ptr13drop_in_placeINtNtNtNtCsdJPVW0sQgAG_5alloc11collections5btree3map8BTreeMapNtNtBP_6string6StringNtNtCs4eyShm1h0hl_10serde_json5value5ValueEEB24_.exit: ; preds = %bb4, %bb1.i.i
  %.sink7 = phi i64 [ 1, %bb1.i.i ], [ 0, %bb4 ]
  %self1.sroa.5.0.copyload.i.i.sink = phi i64 [ %self1.sroa.5.0.copyload.i.i, %bb1.i.i ], [ 0, %bb4 ]
  store i64 %.sink7, ptr %_x.i.i, align 8, !noalias !267
  %2 = getelementptr inbounds nuw i8, ptr %_x.i.i, i64 32
  store i64 %.sink7, ptr %2, align 8, !noalias !267
  %3 = getelementptr inbounds nuw i8, ptr %_x.i.i, i64 64
  store i64 %self1.sroa.5.0.copyload.i.i.sink, ptr %3, align 8, !noalias !267
; call core::ptr::drop_in_place::<alloc::collections::btree::map::IntoIter<alloc::string::String, serde_json::value::Value>>
  call fastcc void @_RINvNtCsjMrxcFdYDNN_4core3ptr13drop_in_placeINtNtNtNtCsdJPVW0sQgAG_5alloc11collections5btree3map8IntoIterNtNtBP_6string6StringNtNtCs4eyShm1h0hl_10serde_json5value5ValueEEB24_(ptr noalias noundef align 8 dereferenceable(72) %_x.i.i), !noalias !267
  call void @llvm.lifetime.end.p0(i64 72, ptr nonnull %_x.i.i), !noalias !267
  br label %bb1

bb1:                                              ; preds = %bb2.i.i.i, %_RINvNtCsjMrxcFdYDNN_4core3ptr13drop_in_placeINtNtCsdJPVW0sQgAG_5alloc3vec3VecNtNtCs4eyShm1h0hl_10serde_json5value5ValueEEB1h_.exit, %bb2.i.i.i4.i.i, %bb2, %_RINvNtCsjMrxcFdYDNN_4core3ptr13drop_in_placeINtNtNtNtCsdJPVW0sQgAG_5alloc11collections5btree3map8BTreeMapNtNtBP_6string6StringNtNtCs4eyShm1h0hl_10serde_json5value5ValueEEB24_.exit, %start, %start, %start
  ret void

bb2:                                              ; preds = %start
  %4 = getelementptr inbounds nuw i8, ptr %_1, i64 8
  tail call void @llvm.experimental.noalias.scope.decl(metadata !268)
  %_1.val.i = load i64, ptr %4, align 8, !alias.scope !268
  %5 = icmp eq i64 %_1.val.i, 0
  br i1 %5, label %bb1, label %bb2.i.i.i4.i.i

bb2.i.i.i4.i.i:                                   ; preds = %bb2
  %6 = getelementptr inbounds nuw i8, ptr %_1, i64 16
  %_1.val1.i = load ptr, ptr %6, align 8, !alias.scope !268, !nonnull !2, !noundef !2
; call __rustc::__rust_dealloc
  tail call void @_RNvCsKhRCbHf33p_7___rustc14___rust_dealloc(ptr noundef nonnull %_1.val1.i, i64 noundef %_1.val.i, i64 noundef range(i64 1, -9223372036854775807) 1) #34, !noalias !268
  br label %bb1

bb3:                                              ; preds = %start
  %7 = getelementptr inbounds nuw i8, ptr %_1, i64 8
  tail call void @llvm.experimental.noalias.scope.decl(metadata !271)
  %8 = getelementptr inbounds nuw i8, ptr %_1, i64 16
  %_5.i = load ptr, ptr %8, align 8, !alias.scope !271, !nonnull !2, !noundef !2
  %9 = getelementptr inbounds nuw i8, ptr %_1, i64 24
  %len.i = load i64, ptr %9, align 8, !alias.scope !271, !noundef !2
  br label %bb6.i.i

bb6.i.i:                                          ; preds = %bb5.i.i, %bb3
  %_3.sroa.0.0.i.i = phi i64 [ 0, %bb3 ], [ %10, %bb5.i.i ]
  %_7.i.i = icmp eq i64 %_3.sroa.0.0.i.i, %len.i
  br i1 %_7.i.i, label %_RINvNtCsjMrxcFdYDNN_4core3ptr13drop_in_placeINtNtCsdJPVW0sQgAG_5alloc3vec3VecNtNtCs4eyShm1h0hl_10serde_json5value5ValueEEB1h_.exit, label %bb5.i.i

bb5.i.i:                                          ; preds = %bb6.i.i
  %_6.i.i = getelementptr inbounds nuw %"value::Value", ptr %_5.i, i64 %_3.sroa.0.0.i.i
  %10 = add i64 %_3.sroa.0.0.i.i, 1
; invoke core::ptr::drop_in_place::<serde_json::value::Value>
  invoke fastcc void @_RINvNtCsjMrxcFdYDNN_4core3ptr13drop_in_placeNtNtCs4eyShm1h0hl_10serde_json5value5ValueEBK_(ptr noalias noundef align 8 dereferenceable(32) %_6.i.i)
          to label %bb6.i.i unwind label %cleanup.i.i, !noalias !271

bb4.i.i:                                          ; preds = %bb3.i.i, %cleanup.i.i
  %_3.sroa.0.1.i.i = phi i64 [ %10, %cleanup.i.i ], [ %12, %bb3.i.i ]
  %_5.i.i = icmp eq i64 %_3.sroa.0.1.i.i, %len.i
  br i1 %_5.i.i, label %cleanup.i.body, label %bb3.i.i

cleanup.i.i:                                      ; preds = %bb5.i.i
  %11 = landingpad { ptr, i32 }
          cleanup
  br label %bb4.i.i

bb3.i.i:                                          ; preds = %bb4.i.i
  %_4.i.i = getelementptr inbounds nuw %"value::Value", ptr %_5.i, i64 %_3.sroa.0.1.i.i
  %12 = add i64 %_3.sroa.0.1.i.i, 1
; invoke core::ptr::drop_in_place::<serde_json::value::Value>
  invoke fastcc void @_RINvNtCsjMrxcFdYDNN_4core3ptr13drop_in_placeNtNtCs4eyShm1h0hl_10serde_json5value5ValueEBK_(ptr noalias noundef align 8 dereferenceable(32) %_4.i.i) #37
          to label %bb4.i.i unwind label %terminate.i.i, !noalias !271

terminate.i.i:                                    ; preds = %bb3.i.i
  %13 = landingpad { ptr, i32 }
          filter [0 x ptr] zeroinitializer
; call core::panicking::panic_in_cleanup
  tail call void @_RNvNtCsjMrxcFdYDNN_4core9panicking16panic_in_cleanup() #38, !noalias !271
  unreachable

cleanup.i.body:                                   ; preds = %bb4.i.i
  %_1.val.i1 = load i64, ptr %7, align 8, !range !27, !alias.scope !274, !noundef !2
  %14 = icmp eq i64 %_1.val.i1, 0
  br i1 %14, label %bb1.i, label %bb2.i.i.i3

bb2.i.i.i3:                                       ; preds = %cleanup.i.body
  %alloc_size.i.i.i.i4 = shl nuw i64 %_1.val.i1, 5
; call __rustc::__rust_dealloc
  tail call void @_RNvCsKhRCbHf33p_7___rustc14___rust_dealloc(ptr noundef nonnull %_5.i, i64 noundef %alloc_size.i.i.i.i4, i64 noundef range(i64 1, -9223372036854775807) 8) #34
  br label %bb1.i

bb1.i:                                            ; preds = %bb2.i.i.i3, %cleanup.i.body
  resume { ptr, i32 } %11

_RINvNtCsjMrxcFdYDNN_4core3ptr13drop_in_placeINtNtCsdJPVW0sQgAG_5alloc3vec3VecNtNtCs4eyShm1h0hl_10serde_json5value5ValueEEB1h_.exit: ; preds = %bb6.i.i
  %_1.val2.i = load i64, ptr %7, align 8, !range !27, !alias.scope !274, !noundef !2
  %15 = icmp eq i64 %_1.val2.i, 0
  br i1 %15, label %bb1, label %bb2.i.i.i

bb2.i.i.i:                                        ; preds = %_RINvNtCsjMrxcFdYDNN_4core3ptr13drop_in_placeINtNtCsdJPVW0sQgAG_5alloc3vec3VecNtNtCs4eyShm1h0hl_10serde_json5value5ValueEEB1h_.exit
  %alloc_size.i.i.i.i = shl nuw i64 %_1.val2.i, 5
; call __rustc::__rust_dealloc
  tail call void @_RNvCsKhRCbHf33p_7___rustc14___rust_dealloc(ptr noundef nonnull %_5.i, i64 noundef %alloc_size.i.i.i.i, i64 noundef range(i64 1, -9223372036854775807) 8) #34
  br label %bb1
}

; core::ptr::drop_in_place::<alloc::string::String>
; Function Attrs: nounwind uwtable
define internal void @_RINvNtCsjMrxcFdYDNN_4core3ptr13drop_in_placeNtNtCsdJPVW0sQgAG_5alloc6string6StringECs4eyShm1h0hl_10serde_json(ptr noalias noundef readonly align 8 captures(none) dereferenceable(24) %_1) unnamed_addr #4 personality ptr @rust_eh_personality {
start:
  %_1.val = load i64, ptr %_1, align 8
  %0 = icmp eq i64 %_1.val, 0
  br i1 %0, label %_RINvNtCsjMrxcFdYDNN_4core3ptr13drop_in_placeINtNtCsdJPVW0sQgAG_5alloc3vec3VechEECs4eyShm1h0hl_10serde_json.exit, label %bb2.i.i.i4.i

bb2.i.i.i4.i:                                     ; preds = %start
  %1 = getelementptr inbounds nuw i8, ptr %_1, i64 8
  %_1.val1 = load ptr, ptr %1, align 8, !nonnull !2, !noundef !2
; call __rustc::__rust_dealloc
  tail call void @_RNvCsKhRCbHf33p_7___rustc14___rust_dealloc(ptr noundef nonnull %_1.val1, i64 noundef %_1.val, i64 noundef range(i64 1, -9223372036854775807) 1) #34
  br label %_RINvNtCsjMrxcFdYDNN_4core3ptr13drop_in_placeINtNtCsdJPVW0sQgAG_5alloc3vec3VechEECs4eyShm1h0hl_10serde_json.exit

_RINvNtCsjMrxcFdYDNN_4core3ptr13drop_in_placeINtNtCsdJPVW0sQgAG_5alloc3vec3VechEECs4eyShm1h0hl_10serde_json.exit: ; preds = %start, %bb2.i.i.i4.i
  ret void
}

; core::ptr::drop_in_place::<(alloc::string::String, serde_json::value::Value)>
; Function Attrs: uwtable
define internal fastcc void @_RINvNtCsjMrxcFdYDNN_4core3ptr13drop_in_placeTNtNtCsdJPVW0sQgAG_5alloc6string6StringNtNtCs4eyShm1h0hl_10serde_json5value5ValueEEB1n_(ptr noalias noundef nonnull readonly align 8 captures(none) dereferenceable(56) %_1) unnamed_addr #3 personality ptr @rust_eh_personality {
start:
  tail call void @llvm.experimental.noalias.scope.decl(metadata !277)
  %_1.val.i = load i64, ptr %_1, align 8, !alias.scope !277
  %0 = icmp eq i64 %_1.val.i, 0
  br i1 %0, label %bb4, label %bb2.i.i.i4.i.i

bb2.i.i.i4.i.i:                                   ; preds = %start
  %1 = getelementptr inbounds nuw i8, ptr %_1, i64 8
  %_1.val1.i = load ptr, ptr %1, align 8, !alias.scope !277, !nonnull !2, !noundef !2
; call __rustc::__rust_dealloc
  tail call void @_RNvCsKhRCbHf33p_7___rustc14___rust_dealloc(ptr noundef nonnull %_1.val1.i, i64 noundef %_1.val.i, i64 noundef range(i64 1, -9223372036854775807) 1) #34, !noalias !277
  br label %bb4

bb4:                                              ; preds = %bb2.i.i.i4.i.i, %start
  %2 = getelementptr inbounds nuw i8, ptr %_1, i64 24
; call core::ptr::drop_in_place::<serde_json::value::Value>
  tail call fastcc void @_RINvNtCsjMrxcFdYDNN_4core3ptr13drop_in_placeNtNtCs4eyShm1h0hl_10serde_json5value5ValueEBK_(ptr noalias noundef align 8 dereferenceable(32) %2)
  ret void
}

; <alloc::raw_vec::RawVecInner<_>>::reserve::do_reserve_and_handle::<alloc::alloc::Global>
; Function Attrs: cold uwtable
define internal fastcc void @_RINvNvMs2_NtCsdJPVW0sQgAG_5alloc7raw_vecINtB8_11RawVecInnerpE7reserve21do_reserve_and_handleNtNtBa_5alloc6GlobalECs4eyShm1h0hl_10serde_json(ptr noalias noundef nonnull align 8 captures(none) dereferenceable(16) %slf, i64 noundef %len, i64 noundef %additional, i64 noundef range(i64 1, 9) %elem_layout.0, i64 noundef range(i64 1, 33) %elem_layout.1) unnamed_addr #0 personality ptr @rust_eh_personality {
start:
  %self3.i = alloca [24 x i8], align 8
  tail call void @llvm.experimental.noalias.scope.decl(metadata !280)
  %_25.0.i = add i64 %additional, %len
  %_25.1.i = icmp ult i64 %_25.0.i, %len
  br i1 %_25.1.i, label %bb2, label %bb9.i

bb9.i:                                            ; preds = %start
  %self5.i = load i64, ptr %slf, align 8, !range !27, !alias.scope !280, !noundef !2
  %v16.i = shl nuw i64 %self5.i, 1
  %_0.sroa.0.0.i.i = tail call noundef i64 @llvm.umax.i64(i64 %_25.0.i, i64 %v16.i)
  %0 = icmp eq i64 %elem_layout.1, 1
  %v1.sroa.0.0.i = select i1 %0, i64 8, i64 4
  %_0.sroa.0.0.i16.i = tail call noundef i64 @llvm.umax.i64(i64 %_0.sroa.0.0.i.i, i64 %v1.sroa.0.0.i)
  call void @llvm.lifetime.start.p0(i64 24, ptr nonnull %self3.i), !noalias !280
  %1 = getelementptr inbounds nuw i8, ptr %slf, i64 8
  %self.val15.i = load ptr, ptr %1, align 8, !alias.scope !280
; call <alloc::raw_vec::RawVecInner>::finish_grow
  call fastcc void @_RNvMs4_NtCsdJPVW0sQgAG_5alloc7raw_vecNtB5_11RawVecInner11finish_growCs4eyShm1h0hl_10serde_json(ptr noalias noundef align 8 captures(none) dereferenceable(24) %self3.i, i64 %self5.i, ptr %self.val15.i, i64 noundef %_0.sroa.0.0.i16.i, i64 noundef range(i64 1, 9) %elem_layout.0, i64 noundef range(i64 1, 33) %elem_layout.1), !noalias !280
  %_35.i = load i64, ptr %self3.i, align 8, !range !206, !noalias !280, !noundef !2
  %2 = trunc nuw i64 %_35.i to i1
  %3 = getelementptr inbounds nuw i8, ptr %self3.i, i64 8
  br i1 %2, label %bb18.i, label %bb3

bb18.i:                                           ; preds = %bb9.i
  %e.0.i = load i64, ptr %3, align 8, !range !283, !noalias !280, !noundef !2
  %4 = getelementptr inbounds nuw i8, ptr %self3.i, i64 16
  %e.1.i = load i64, ptr %4, align 8, !noalias !280
  call void @llvm.lifetime.end.p0(i64 24, ptr nonnull %self3.i), !noalias !280
  br label %bb2

bb2:                                              ; preds = %bb18.i, %start
  %_0.sroa.5.0.i.ph = phi i64 [ undef, %start ], [ %e.1.i, %bb18.i ]
  %_0.sroa.0.0.i.ph = phi i64 [ 0, %start ], [ %e.0.i, %bb18.i ]
; call alloc::raw_vec::handle_error
  tail call void @_RNvNtCsdJPVW0sQgAG_5alloc7raw_vec12handle_error(i64 noundef %_0.sroa.0.0.i.ph, i64 %_0.sroa.5.0.i.ph) #36
  unreachable

bb3:                                              ; preds = %bb9.i
  %v.0.i = load ptr, ptr %3, align 8, !noalias !280, !nonnull !2, !noundef !2
  call void @llvm.lifetime.end.p0(i64 24, ptr nonnull %self3.i), !noalias !280
  store ptr %v.0.i, ptr %1, align 8, !alias.scope !280
  %5 = icmp sgt i64 %_0.sroa.0.0.i16.i, -1
  tail call void @llvm.assume(i1 %5)
  store i64 %_0.sroa.0.0.i16.i, ptr %slf, align 8, !alias.scope !280
  ret void
}

; <serde_json::de::MapAccess<_> as serde_core::de::MapAccess>::next_key_seed::has_next_key::<serde_json::read::StrRead>
; Function Attrs: uwtable
define internal fastcc void @_RINvNvXs9_NtCs4eyShm1h0hl_10serde_json2deINtB8_9MapAccesspENtNtCsasqbmkB9jT1_10serde_core2de9MapAccess13next_key_seed12has_next_keyNtNtBa_4read7StrReadEBa_(ptr dead_on_unwind noalias noundef nonnull writable writeonly align 8 captures(none) dereferenceable(16) %_0, ptr noalias noundef nonnull align 8 captures(none) dereferenceable(16) %map) unnamed_addr #3 {
start:
  %_31 = alloca [24 x i8], align 8
  %_28 = alloca [24 x i8], align 8
  %_25 = alloca [24 x i8], align 8
  %_22 = alloca [24 x i8], align 8
  %_14 = alloca [24 x i8], align 8
  %_10 = alloca [24 x i8], align 8
  %_32 = load ptr, ptr %map, align 8, !nonnull !2, !align !91, !noundef !2
  tail call void @llvm.experimental.noalias.scope.decl(metadata !284)
  %0 = getelementptr inbounds nuw i8, ptr %_32, i64 40
  %1 = getelementptr inbounds nuw i8, ptr %_32, i64 32
  %_10.1.i.i.i = load i64, ptr %1, align 8, !alias.scope !287, !noalias !292, !noundef !2
  %.promoted.i = load i64, ptr %0, align 8, !alias.scope !284, !noalias !296
  %_3.i.i7.i = icmp ult i64 %.promoted.i, %_10.1.i.i.i
  br i1 %_3.i.i7.i, label %bb6.lr.ph.i, label %bb33

bb6.lr.ph.i:                                      ; preds = %start
  %_6.i = getelementptr inbounds nuw i8, ptr %_32, i64 24
  %_12.0.i.i.i = load ptr, ptr %_6.i, align 8, !alias.scope !287, !noalias !292, !nonnull !2, !align !87, !noundef !2
  br label %bb6.i

bb6.i:                                            ; preds = %bb7.i, %bb6.lr.ph.i
  %2 = phi i64 [ %.promoted.i, %bb6.lr.ph.i ], [ %4, %bb7.i ]
  tail call void @llvm.experimental.noalias.scope.decl(metadata !297)
  tail call void @llvm.experimental.noalias.scope.decl(metadata !298)
  %3 = getelementptr inbounds nuw i8, ptr %_12.0.i.i.i, i64 %2
  %_6.i.i.i = load i8, ptr %3, align 1, !noalias !299, !noundef !2
  switch i8 %_6.i.i.i, label %bb9 [
    i8 32, label %bb7.i
    i8 10, label %bb7.i
    i8 9, label %bb7.i
    i8 13, label %bb7.i
    i8 125, label %bb8
  ]

bb7.i:                                            ; preds = %bb6.i, %bb6.i, %bb6.i, %bb6.i
  %4 = add i64 %2, 1
  store i64 %4, ptr %0, align 8, !alias.scope !300, !noalias !296
  %exitcond.not.i = icmp eq i64 %4, %_10.1.i.i.i
  br i1 %exitcond.not.i, label %bb33, label %bb6.i

bb33:                                             ; preds = %bb7.i, %start
  call void @llvm.lifetime.start.p0(i64 24, ptr nonnull %_10)
  store i64 3, ptr %_10, align 8
; call <serde_json::de::Deserializer<serde_json::read::StrRead>>::peek_error
  %_8 = call fastcc noundef nonnull align 8 ptr @_RNvMs3_NtCs4eyShm1h0hl_10serde_json2deINtB5_12DeserializerNtNtB7_4read7StrReadE10peek_errorB7_(ptr noalias noundef readonly align 8 captures(address, read_provenance) dereferenceable(56) %_32, ptr noalias noundef align 8 captures(address) dereferenceable(24) %_10)
  call void @llvm.lifetime.end.p0(i64 24, ptr nonnull %_10)
  %5 = getelementptr inbounds nuw i8, ptr %_0, i64 8
  store ptr %_8, ptr %5, align 8
  br label %bb35

bb8:                                              ; preds = %bb6.i
  %6 = getelementptr inbounds nuw i8, ptr %_0, i64 1
  store i8 0, ptr %6, align 1
  br label %bb35

bb9:                                              ; preds = %bb6.i
  %7 = getelementptr inbounds nuw i8, ptr %map, i64 8
  %8 = load i8, ptr %7, align 8, !range !90, !noundef !2
  %_11 = trunc nuw i8 %8 to i1
  br i1 %_11, label %bb10, label %bb15

bb15:                                             ; preds = %bb9
  %9 = icmp eq i8 %_6.i.i.i, 44
  br i1 %9, label %bb16, label %bb28, !prof !303

bb10:                                             ; preds = %bb9
  store i8 0, ptr %7, align 8
  %10 = icmp eq i8 %_6.i.i.i, 34
  br i1 %10, label %bb11, label %bb12, !prof !303

bb16:                                             ; preds = %bb15
  %11 = add i64 %2, 1
  store i64 %11, ptr %0, align 8, !alias.scope !304
  tail call void @llvm.experimental.noalias.scope.decl(metadata !307)
  %_3.i.i7.i7 = icmp ult i64 %11, %_10.1.i.i.i
  br i1 %_3.i.i7.i7, label %bb6.i12, label %bb21

bb6.i12:                                          ; preds = %bb16, %bb7.i15
  %_4.i.i68.i13 = phi i64 [ %13, %bb7.i15 ], [ %11, %bb16 ]
  %12 = getelementptr inbounds nuw i8, ptr %_12.0.i.i.i, i64 %_4.i.i68.i13
  %_6.i.i.i14 = load i8, ptr %12, align 1, !noalias !310, !noundef !2
  switch i8 %_6.i.i.i14, label %bb22 [
    i8 32, label %bb7.i15
    i8 10, label %bb7.i15
    i8 9, label %bb7.i15
    i8 13, label %bb7.i15
    i8 34, label %bb24
    i8 125, label %bb23
  ], !prof !318

bb7.i15:                                          ; preds = %bb6.i12, %bb6.i12, %bb6.i12, %bb6.i12
  %13 = add i64 %_4.i.i68.i13, 1
  store i64 %13, ptr %0, align 8, !alias.scope !319, !noalias !322
  %exitcond.not.i16 = icmp eq i64 %13, %_10.1.i.i.i
  br i1 %exitcond.not.i16, label %bb21, label %bb6.i12

bb28:                                             ; preds = %bb15
  call void @llvm.lifetime.start.p0(i64 24, ptr nonnull %_31)
  store i64 8, ptr %_31, align 8
; call <serde_json::de::Deserializer<serde_json::read::StrRead>>::peek_error
  %_29 = call fastcc noundef nonnull align 8 ptr @_RNvMs3_NtCs4eyShm1h0hl_10serde_json2deINtB5_12DeserializerNtNtB7_4read7StrReadE10peek_errorB7_(ptr noalias noundef readonly align 8 captures(address, read_provenance) dereferenceable(56) %_32, ptr noalias noundef align 8 captures(address) dereferenceable(24) %_31)
  call void @llvm.lifetime.end.p0(i64 24, ptr nonnull %_31)
  %14 = getelementptr inbounds nuw i8, ptr %_0, i64 8
  store ptr %_29, ptr %14, align 8
  br label %bb35

bb21:                                             ; preds = %bb7.i15, %bb16
  call void @llvm.lifetime.start.p0(i64 24, ptr nonnull %_28)
  store i64 5, ptr %_28, align 8
; call <serde_json::de::Deserializer<serde_json::read::StrRead>>::peek_error
  %_26 = call fastcc noundef nonnull align 8 ptr @_RNvMs3_NtCs4eyShm1h0hl_10serde_json2deINtB5_12DeserializerNtNtB7_4read7StrReadE10peek_errorB7_(ptr noalias noundef readonly align 8 captures(address, read_provenance) dereferenceable(56) %_32, ptr noalias noundef align 8 captures(address) dereferenceable(24) %_28)
  call void @llvm.lifetime.end.p0(i64 24, ptr nonnull %_28)
  %15 = getelementptr inbounds nuw i8, ptr %_0, i64 8
  store ptr %_26, ptr %15, align 8
  br label %bb35

bb22:                                             ; preds = %bb6.i12
  call void @llvm.lifetime.start.p0(i64 24, ptr nonnull %_25)
  store i64 17, ptr %_25, align 8
; call <serde_json::de::Deserializer<serde_json::read::StrRead>>::peek_error
  %_23 = call fastcc noundef nonnull align 8 ptr @_RNvMs3_NtCs4eyShm1h0hl_10serde_json2deINtB5_12DeserializerNtNtB7_4read7StrReadE10peek_errorB7_(ptr noalias noundef readonly align 8 captures(address, read_provenance) dereferenceable(56) %_32, ptr noalias noundef align 8 captures(address) dereferenceable(24) %_25)
  call void @llvm.lifetime.end.p0(i64 24, ptr nonnull %_25)
  %16 = getelementptr inbounds nuw i8, ptr %_0, i64 8
  store ptr %_23, ptr %16, align 8
  br label %bb35

bb24:                                             ; preds = %bb6.i12
  %17 = getelementptr inbounds nuw i8, ptr %_0, i64 1
  store i8 1, ptr %17, align 1
  br label %bb35

bb23:                                             ; preds = %bb6.i12
  call void @llvm.lifetime.start.p0(i64 24, ptr nonnull %_22)
  store i64 21, ptr %_22, align 8
; call <serde_json::de::Deserializer<serde_json::read::StrRead>>::peek_error
  %_20 = call fastcc noundef nonnull align 8 ptr @_RNvMs3_NtCs4eyShm1h0hl_10serde_json2deINtB5_12DeserializerNtNtB7_4read7StrReadE10peek_errorB7_(ptr noalias noundef readonly align 8 captures(address, read_provenance) dereferenceable(56) %_32, ptr noalias noundef align 8 captures(address) dereferenceable(24) %_22)
  call void @llvm.lifetime.end.p0(i64 24, ptr nonnull %_22)
  %18 = getelementptr inbounds nuw i8, ptr %_0, i64 8
  store ptr %_20, ptr %18, align 8
  br label %bb35

bb11:                                             ; preds = %bb10
  %19 = getelementptr inbounds nuw i8, ptr %_0, i64 1
  store i8 1, ptr %19, align 1
  br label %bb35

bb12:                                             ; preds = %bb10
  call void @llvm.lifetime.start.p0(i64 24, ptr nonnull %_14)
  store i64 17, ptr %_14, align 8
; call <serde_json::de::Deserializer<serde_json::read::StrRead>>::peek_error
  %_12 = call fastcc noundef nonnull align 8 ptr @_RNvMs3_NtCs4eyShm1h0hl_10serde_json2deINtB5_12DeserializerNtNtB7_4read7StrReadE10peek_errorB7_(ptr noalias noundef readonly align 8 captures(address, read_provenance) dereferenceable(56) %_32, ptr noalias noundef align 8 captures(address) dereferenceable(24) %_14)
  call void @llvm.lifetime.end.p0(i64 24, ptr nonnull %_14)
  %20 = getelementptr inbounds nuw i8, ptr %_0, i64 8
  store ptr %_12, ptr %20, align 8
  br label %bb35

bb35:                                             ; preds = %bb21, %bb24, %bb23, %bb22, %bb11, %bb12, %bb28, %bb33, %bb8
  %.sink = phi i8 [ 1, %bb21 ], [ 0, %bb24 ], [ 1, %bb23 ], [ 1, %bb22 ], [ 0, %bb11 ], [ 1, %bb12 ], [ 1, %bb28 ], [ 1, %bb33 ], [ 0, %bb8 ]
  store i8 %.sink, ptr %_0, align 8
  ret void
}

; <serde_json::value::Value as serde_core::ser::Serialize>::serialize::<&mut serde_json::ser::Serializer<&mut <serde_json::value::Value as core::fmt::Display>::fmt::WriterFormatter>>
; Function Attrs: inlinehint uwtable
define internal fastcc noundef align 8 ptr @_RINvXNtNtCs4eyShm1h0hl_10serde_json5value3serNtB5_5ValueNtNtCsasqbmkB9jT1_10serde_core3ser9Serialize9serializeQINtNtB7_3ser10SerializerQNtNvXs_B5_BH_NtNtCsjMrxcFdYDNN_4core3fmt7Display3fmt15WriterFormatterEEB7_(ptr noalias noundef nonnull readonly align 8 captures(none) dereferenceable(32) %self, ptr noalias noundef nonnull align 8 dereferenceable(8) %serializer) unnamed_addr #1 personality ptr @rust_eh_personality {
start:
  %buffer.i.i29.i = alloca [24 x i8], align 1
  %buffer.i.i3.i = alloca [40 x i8], align 1
  %buffer.i.i.i = alloca [40 x i8], align 1
  %0 = load i8, ptr %self, align 8, !range !260, !noundef !2
  switch i8 %0, label %default.unreachable178 [
    i8 0, label %bb7
    i8 1, label %bb6
    i8 2, label %bb5
    i8 3, label %bb4
    i8 4, label %bb27.i
    i8 5, label %bb2
  ]

default.unreachable178:                           ; preds = %bb5, %start
  unreachable

bb7:                                              ; preds = %start
  %serializer.val = load ptr, ptr %serializer, align 8, !nonnull !2, !align !91, !noundef !2
; call <&mut <serde_json::value::Value as core::fmt::Display>::fmt::WriterFormatter as std::io::Write>::write_all
  %_0.i.i = tail call fastcc noundef ptr @_RNvXs_NtNtCs5sEH5CPMdak_3std2io5implsQNtNvXs_NtCs4eyShm1h0hl_10serde_json5valueNtBH_5ValueNtNtCsjMrxcFdYDNN_4core3fmt7Display3fmt15WriterFormatterNtB6_5Write9write_allBJ_(ptr nonnull readonly %serializer.val, ptr noalias noundef nonnull readonly align 1 captures(address, read_provenance) @alloc_5eb17490b841d10d23675c699111e444, i64 noundef 4) #39
  %.not.i = icmp eq ptr %_0.i.i, null
  br i1 %.not.i, label %bb21, label %bb4.i, !prof !303

bb4.i:                                            ; preds = %bb7
; call <serde_json::error::Error>::io
  %_7.i = tail call noundef nonnull align 8 ptr @_RNvMs0_NtCs4eyShm1h0hl_10serde_json5errorNtB5_5Error2io(ptr noundef nonnull %_0.i.i)
  br label %bb21

bb6:                                              ; preds = %start
  %1 = getelementptr inbounds nuw i8, ptr %self, i64 1
  %2 = load i8, ptr %1, align 1, !range !90, !noundef !2
  %_5 = trunc nuw i8 %2 to i1
  %serializer.val19 = load ptr, ptr %serializer, align 8, !nonnull !2, !noundef !2
  br i1 %_5, label %bb1.split.i.i, label %bb2.split.i.i

bb2.split.i.i:                                    ; preds = %bb6
; call <&mut <serde_json::value::Value as core::fmt::Display>::fmt::WriterFormatter as std::io::Write>::write_all
  %_02.i.i = tail call fastcc noundef ptr @_RNvXs_NtNtCs5sEH5CPMdak_3std2io5implsQNtNvXs_NtCs4eyShm1h0hl_10serde_json5valueNtBH_5ValueNtNtCsjMrxcFdYDNN_4core3fmt7Display3fmt15WriterFormatterNtB6_5Write9write_allBJ_(ptr nonnull readonly %serializer.val19, ptr noalias noundef nonnull readonly align 1 captures(address, read_provenance) @alloc_6f4357e3a3c9006d5d6d935934a9de54, i64 noundef 5) #39
  br label %_RINvYNtNtCs4eyShm1h0hl_10serde_json3ser16CompactFormatterNtB5_9Formatter10write_boolQNtNvXs_NtB7_5valueNtB1s_5ValueNtNtCsjMrxcFdYDNN_4core3fmt7Display3fmt15WriterFormatterEB7_.exit.i

bb1.split.i.i:                                    ; preds = %bb6
; call <&mut <serde_json::value::Value as core::fmt::Display>::fmt::WriterFormatter as std::io::Write>::write_all
  %_01.i.i = tail call fastcc noundef ptr @_RNvXs_NtNtCs5sEH5CPMdak_3std2io5implsQNtNvXs_NtCs4eyShm1h0hl_10serde_json5valueNtBH_5ValueNtNtCsjMrxcFdYDNN_4core3fmt7Display3fmt15WriterFormatterNtB6_5Write9write_allBJ_(ptr nonnull readonly %serializer.val19, ptr noalias noundef nonnull readonly align 1 captures(address, read_provenance) @alloc_c9ee9951a160df092319190fa06505e4, i64 noundef 4) #39
  br label %_RINvYNtNtCs4eyShm1h0hl_10serde_json3ser16CompactFormatterNtB5_9Formatter10write_boolQNtNvXs_NtB7_5valueNtB1s_5ValueNtNtCsjMrxcFdYDNN_4core3fmt7Display3fmt15WriterFormatterEB7_.exit.i

_RINvYNtNtCs4eyShm1h0hl_10serde_json3ser16CompactFormatterNtB5_9Formatter10write_boolQNtNvXs_NtB7_5valueNtB1s_5ValueNtNtCsjMrxcFdYDNN_4core3fmt7Display3fmt15WriterFormatterEB7_.exit.i: ; preds = %bb1.split.i.i, %bb2.split.i.i
  %phi.call.i.i = phi ptr [ %_01.i.i, %bb1.split.i.i ], [ %_02.i.i, %bb2.split.i.i ]
  %.not.i22 = icmp eq ptr %phi.call.i.i, null
  br i1 %.not.i22, label %bb21, label %bb4.i23, !prof !303

bb4.i23:                                          ; preds = %_RINvYNtNtCs4eyShm1h0hl_10serde_json3ser16CompactFormatterNtB5_9Formatter10write_boolQNtNvXs_NtB7_5valueNtB1s_5ValueNtNtCsjMrxcFdYDNN_4core3fmt7Display3fmt15WriterFormatterEB7_.exit.i
; call <serde_json::error::Error>::io
  %_8.i = tail call noundef nonnull align 8 ptr @_RNvMs0_NtCs4eyShm1h0hl_10serde_json5errorNtB5_5Error2io(ptr noundef nonnull %phi.call.i.i)
  br label %bb21

bb5:                                              ; preds = %start
  %n = getelementptr inbounds nuw i8, ptr %self, i64 8
  %serializer.val20 = load ptr, ptr %serializer, align 8
  tail call void @llvm.experimental.noalias.scope.decl(metadata !323)
  %_3.i = load i64, ptr %n, align 8, !range !326, !alias.scope !323, !noundef !2
  %3 = getelementptr inbounds nuw i8, ptr %self, i64 16
  switch i64 %_3.i, label %default.unreachable178 [
    i64 0, label %bb4.i26
    i64 1, label %bb3.i
    i64 2, label %bb2.i
  ]

bb4.i26:                                          ; preds = %bb5
  %u.i = load i64, ptr %3, align 8, !alias.scope !323, !noundef !2
  call void @llvm.lifetime.start.p0(i64 40, ptr nonnull %buffer.i.i.i), !noalias !323
  tail call void @llvm.experimental.noalias.scope.decl(metadata !327)
  %invariant.gep.i.i.i.i = getelementptr i8, ptr %buffer.i.i.i, i64 -2
  %_1026.i.i.i.i = icmp ugt i64 %u.i, 9999
  br i1 %_1026.i.i.i.i, label %bb5.i.i.i.i, label %bb6.i.i.i.i

bb6.i.i.i.i:                                      ; preds = %bb5.i.i.i.i, %bb4.i26
  %curr.sroa.0.0.lcssa.i.i.i.i = phi i64 [ 20, %bb4.i26 ], [ %9, %bb5.i.i.i.i ]
  %self.sroa.0.1.lcssa.i.i.i.i = phi i64 [ %u.i, %bb4.i26 ], [ %4, %bb5.i.i.i.i ]
  %_27.i.i.i.i = icmp samesign ugt i64 %self.sroa.0.1.lcssa.i.i.i.i, 99
  br i1 %_27.i.i.i.i, label %bb7.i.i.i.i, label %bb9.i.i.i.i

bb5.i.i.i.i:                                      ; preds = %bb4.i26, %bb5.i.i.i.i
  %self.sroa.0.128.i.i.i.i = phi i64 [ %4, %bb5.i.i.i.i ], [ %u.i, %bb4.i26 ]
  %curr.sroa.0.027.i.i.i.i = phi i64 [ %9, %bb5.i.i.i.i ], [ 20, %bb4.i26 ]
  %self.sroa.0.128.i.i.i.i.frozen = freeze i64 %self.sroa.0.128.i.i.i.i
  %4 = udiv i64 %self.sroa.0.128.i.i.i.i.frozen, 10000
  %5 = mul i64 %4, 10000
  %rem.i.i.i.i.decomposed = sub i64 %self.sroa.0.128.i.i.i.i.frozen, %5
  %_16.lhs.trunc.i.i.i.i = trunc nuw nsw i64 %rem.i.i.i.i.decomposed to i16
  %_1623.i.i.i.i = udiv i16 %_16.lhs.trunc.i.i.i.i, 100
  %6 = shl nuw nsw i16 %_1623.i.i.i.i, 1
  %_15.i.i.i.i = zext nneg i16 %6 to i64
  %7 = mul i16 %_1623.i.i.i.i, 100
  %_1924.i.i.i.i.decomposed = sub i16 %_16.lhs.trunc.i.i.i.i, %7
  %8 = shl nuw nsw i16 %_1924.i.i.i.i.decomposed, 1
  %_18.i.i.i.i = zext nneg i16 %8 to i64
  %9 = add i64 %curr.sroa.0.027.i.i.i.i, -4
  %_20.i.i.i.i = getelementptr inbounds nuw i8, ptr @alloc_7ef6fe6e5749e409bd35c794f395407d, i64 %_15.i.i.i.i
  %_21.i.i.i.i = getelementptr inbounds nuw i8, ptr %buffer.i.i.i, i64 %9
  %10 = load i16, ptr %_20.i.i.i.i, align 1, !noalias !330
  store i16 %10, ptr %_21.i.i.i.i, align 1, !alias.scope !327, !noalias !323
  %_23.i.i.i.i = getelementptr inbounds nuw i8, ptr @alloc_7ef6fe6e5749e409bd35c794f395407d, i64 %_18.i.i.i.i
  %gep.i.i.i.i = getelementptr i8, ptr %invariant.gep.i.i.i.i, i64 %curr.sroa.0.027.i.i.i.i
  %11 = load i16, ptr %_23.i.i.i.i, align 1, !noalias !330
  store i16 %11, ptr %gep.i.i.i.i, align 1, !alias.scope !327, !noalias !323
  %_10.i.i.i.i = icmp ugt i64 %self.sroa.0.128.i.i.i.i, 99999999
  br i1 %_10.i.i.i.i, label %bb5.i.i.i.i, label %bb6.i.i.i.i

bb7.i.i.i.i:                                      ; preds = %bb6.i.i.i.i
  %_31.lhs.trunc.i.i.i.i = trunc nuw i64 %self.sroa.0.1.lcssa.i.i.i.i to i16
  %12 = udiv i16 %_31.lhs.trunc.i.i.i.i, 100
  %13 = mul i16 %12, 100
  %_3125.i.i.i.i.decomposed = sub i16 %_31.lhs.trunc.i.i.i.i, %13
  %14 = shl nuw nsw i16 %_3125.i.i.i.i.decomposed, 1
  %_30.i.i.i.i = zext nneg i16 %14 to i64
  %.zext.i.i.i.i = zext nneg i16 %12 to i64
  %15 = add i64 %curr.sroa.0.0.lcssa.i.i.i.i, -2
  %_33.i.i.i.i = getelementptr inbounds nuw i8, ptr @alloc_7ef6fe6e5749e409bd35c794f395407d, i64 %_30.i.i.i.i
  %_34.i.i.i.i = getelementptr inbounds nuw i8, ptr %buffer.i.i.i, i64 %15
  %16 = load i16, ptr %_33.i.i.i.i, align 1, !noalias !330
  store i16 %16, ptr %_34.i.i.i.i, align 1, !alias.scope !327, !noalias !323
  br label %bb9.i.i.i.i

bb9.i.i.i.i:                                      ; preds = %bb7.i.i.i.i, %bb6.i.i.i.i
  %curr.sroa.0.1.i.i.i.i = phi i64 [ %15, %bb7.i.i.i.i ], [ %curr.sroa.0.0.lcssa.i.i.i.i, %bb6.i.i.i.i ]
  %self.sroa.0.2.i.i.i.i = phi i64 [ %.zext.i.i.i.i, %bb7.i.i.i.i ], [ %self.sroa.0.1.lcssa.i.i.i.i, %bb6.i.i.i.i ]
  %_36.i.i.i.i = icmp samesign ult i64 %self.sroa.0.2.i.i.i.i, 10
  br i1 %_36.i.i.i.i, label %bb10.i.i.i.i, label %bb11.i.i.i.i

bb11.i.i.i.i:                                     ; preds = %bb9.i.i.i.i
  %_42.i.i.i.i = shl nuw nsw i64 %self.sroa.0.2.i.i.i.i, 1
  %17 = add i64 %curr.sroa.0.1.i.i.i.i, -2
  %_43.i.i.i.i = getelementptr inbounds nuw i8, ptr @alloc_7ef6fe6e5749e409bd35c794f395407d, i64 %_42.i.i.i.i
  %_44.i.i.i.i = getelementptr inbounds nuw i8, ptr %buffer.i.i.i, i64 %17
  %18 = load i16, ptr %_43.i.i.i.i, align 1, !noalias !330
  store i16 %18, ptr %_44.i.i.i.i, align 1, !alias.scope !327, !noalias !323
  br label %_RINvYNtNtCs4eyShm1h0hl_10serde_json3ser16CompactFormatterNtB5_9Formatter9write_u64QNtNvXs_NtB7_5valueNtB1q_5ValueNtNtCsjMrxcFdYDNN_4core3fmt7Display3fmt15WriterFormatterEB7_.exit.i.i

bb10.i.i.i.i:                                     ; preds = %bb9.i.i.i.i
  %19 = add i64 %curr.sroa.0.1.i.i.i.i, -1
  %_38.i.i.i.i = trunc nuw nsw i64 %self.sroa.0.2.i.i.i.i to i8
  %_39.i.i.i.i = getelementptr inbounds nuw i8, ptr %buffer.i.i.i, i64 %19
  %20 = or disjoint i8 %_38.i.i.i.i, 48
  store i8 %20, ptr %_39.i.i.i.i, align 1, !alias.scope !327, !noalias !323
  br label %_RINvYNtNtCs4eyShm1h0hl_10serde_json3ser16CompactFormatterNtB5_9Formatter9write_u64QNtNvXs_NtB7_5valueNtB1q_5ValueNtNtCsjMrxcFdYDNN_4core3fmt7Display3fmt15WriterFormatterEB7_.exit.i.i

_RINvYNtNtCs4eyShm1h0hl_10serde_json3ser16CompactFormatterNtB5_9Formatter9write_u64QNtNvXs_NtB7_5valueNtB1q_5ValueNtNtCsjMrxcFdYDNN_4core3fmt7Display3fmt15WriterFormatterEB7_.exit.i.i: ; preds = %bb10.i.i.i.i, %bb11.i.i.i.i
  %curr.sroa.0.2.i.i.i.i = phi i64 [ %19, %bb10.i.i.i.i ], [ %17, %bb11.i.i.i.i ]
  %len.i.i.i.i = sub i64 20, %curr.sroa.0.2.i.i.i.i
  %_52.i.i.i.i = getelementptr inbounds nuw i8, ptr %buffer.i.i.i, i64 %curr.sroa.0.2.i.i.i.i
  %_9.i.i.i = icmp ult i64 %len.i.i.i.i, 21
  tail call void @llvm.assume(i1 %_9.i.i.i)
  %21 = icmp ne ptr %serializer.val20, null
  tail call void @llvm.assume(i1 %21)
; call <&mut <serde_json::value::Value as core::fmt::Display>::fmt::WriterFormatter as std::io::Write>::write_all
  %_0.i.i.i = call fastcc noundef ptr @_RNvXs_NtNtCs5sEH5CPMdak_3std2io5implsQNtNvXs_NtCs4eyShm1h0hl_10serde_json5valueNtBH_5ValueNtNtCsjMrxcFdYDNN_4core3fmt7Display3fmt15WriterFormatterNtB6_5Write9write_allBJ_(ptr nonnull readonly %serializer.val20, ptr noalias noundef nonnull readonly align 1 captures(address, read_provenance) %_52.i.i.i.i, i64 noundef %len.i.i.i.i) #39, !noalias !323
  call void @llvm.lifetime.end.p0(i64 40, ptr nonnull %buffer.i.i.i), !noalias !323
  %.not.i.i = icmp eq ptr %_0.i.i.i, null
  br i1 %.not.i.i, label %bb21, label %bb4.i.i, !prof !303

bb4.i.i:                                          ; preds = %_RINvYNtNtCs4eyShm1h0hl_10serde_json3ser16CompactFormatterNtB5_9Formatter9write_u64QNtNvXs_NtB7_5valueNtB1q_5ValueNtNtCsjMrxcFdYDNN_4core3fmt7Display3fmt15WriterFormatterEB7_.exit.i.i
; call <serde_json::error::Error>::io
  %_8.i.i = call noundef nonnull align 8 ptr @_RNvMs0_NtCs4eyShm1h0hl_10serde_json5errorNtB5_5Error2io(ptr noundef nonnull %_0.i.i.i), !noalias !323
  br label %bb21

bb3.i:                                            ; preds = %bb5
  %i.i = load i64, ptr %3, align 8, !alias.scope !323, !noundef !2
  call void @llvm.lifetime.start.p0(i64 40, ptr nonnull %buffer.i.i3.i), !noalias !323
  tail call void @llvm.experimental.noalias.scope.decl(metadata !331)
  %is_nonnegative.i.i.i.i = icmp sgt i64 %i.i, -1
  %n.sroa.0.0.i.i.i.i = tail call i64 @llvm.abs.i64(i64 %i.i, i1 false)
  %invariant.gep.i.i.i4.i = getelementptr i8, ptr %buffer.i.i3.i, i64 -2
  %_1224.i.i.i.i = icmp ugt i64 %n.sroa.0.0.i.i.i.i, 9999
  br i1 %_1224.i.i.i.i, label %bb5.i.i.i24.i, label %bb6.i.i.i5.i

bb6.i.i.i5.i:                                     ; preds = %bb5.i.i.i24.i, %bb3.i
  %curr.sroa.0.0.lcssa.i.i.i6.i = phi i64 [ 20, %bb3.i ], [ %27, %bb5.i.i.i24.i ]
  %n.sroa.0.1.lcssa.i.i.i.i = phi i64 [ %n.sroa.0.0.i.i.i.i, %bb3.i ], [ %22, %bb5.i.i.i24.i ]
  %_29.i.i.i.i = icmp samesign ugt i64 %n.sroa.0.1.lcssa.i.i.i.i, 99
  br i1 %_29.i.i.i.i, label %bb7.i.i.i21.i, label %bb9.i.i.i7.i

bb5.i.i.i24.i:                                    ; preds = %bb3.i, %bb5.i.i.i24.i
  %n.sroa.0.126.i.i.i.i = phi i64 [ %22, %bb5.i.i.i24.i ], [ %n.sroa.0.0.i.i.i.i, %bb3.i ]
  %curr.sroa.0.025.i.i.i.i = phi i64 [ %27, %bb5.i.i.i24.i ], [ 20, %bb3.i ]
  %n.sroa.0.126.i.i.i.i.frozen = freeze i64 %n.sroa.0.126.i.i.i.i
  %22 = udiv i64 %n.sroa.0.126.i.i.i.i.frozen, 10000
  %23 = mul i64 %22, 10000
  %rem.i.i.i25.i.decomposed = sub i64 %n.sroa.0.126.i.i.i.i.frozen, %23
  %_18.lhs.trunc.i.i.i.i = trunc nuw nsw i64 %rem.i.i.i25.i.decomposed to i16
  %_1821.i.i.i.i = udiv i16 %_18.lhs.trunc.i.i.i.i, 100
  %24 = shl nuw nsw i16 %_1821.i.i.i.i, 1
  %_17.i.i.i.i = zext nneg i16 %24 to i64
  %25 = mul i16 %_1821.i.i.i.i, 100
  %_2122.i.i.i.i.decomposed = sub i16 %_18.lhs.trunc.i.i.i.i, %25
  %26 = shl nuw nsw i16 %_2122.i.i.i.i.decomposed, 1
  %_20.i.i.i26.i = zext nneg i16 %26 to i64
  %27 = add i64 %curr.sroa.0.025.i.i.i.i, -4
  %_22.i.i.i.i = getelementptr inbounds nuw i8, ptr @alloc_7ef6fe6e5749e409bd35c794f395407d, i64 %_17.i.i.i.i
