; ModuleID = 'serde_yaml.88523a590a8e2905-cgu.0'
source_filename = "serde_yaml.88523a590a8e2905-cgu.0"
target datalayout = "e-m:o-p270:32:32-p271:32:32-p272:64:64-i64:64-i128:128-n32:64-S128-Fn32"
target triple = "arm64-apple-macosx11.0.0"

%"std::sys::thread_local::native::lazy::Storage<core::cell::Cell<(u64, u64)>, !>" = type { %"core::cell::UnsafeCell<core::mem::maybe_uninit::MaybeUninit<core::cell::Cell<(u64, u64)>>>", i8, [7 x i8] }
%"core::cell::UnsafeCell<core::mem::maybe_uninit::MaybeUninit<core::cell::Cell<(u64, u64)>>>" = type { %"core::mem::maybe_uninit::MaybeUninit<core::cell::Cell<(u64, u64)>>" }
%"core::mem::maybe_uninit::MaybeUninit<core::cell::Cell<(u64, u64)>>" = type { [2 x i64] }
%"indexmap::Bucket<value::Value, value::Value>" = type { %"value::Value", %"value::Value", i64 }
%"value::Value" = type { i64, [8 x i64] }
%"de::Event<'_>" = type { [64 x i8], i8, [7 x i8] }
%"libyaml::error::Mark" = type { %"unsafe_libyaml::yaml::yaml_mark_t" }
%"unsafe_libyaml::yaml::yaml_mark_t" = type { i64, i64, i64 }
%"core::mem::maybe_uninit::MaybeUninit<libyaml::parser::Anchor>" = type { [2 x i64] }
%"libyaml::parser::Anchor" = type { %"alloc::boxed::Box<[u8]>" }
%"alloc::boxed::Box<[u8]>" = type { %"core::ptr::unique::Unique<[u8]>", %"alloc::alloc::Global" }
%"core::ptr::unique::Unique<[u8]>" = type { %"core::ptr::non_null::NonNull<[u8]>", %"core::marker::PhantomData<[u8]>" }
%"core::ptr::non_null::NonNull<[u8]>" = type { { ptr, i64 } }
%"core::marker::PhantomData<[u8]>" = type {}
%"alloc::alloc::Global" = type {}
%"core::mem::maybe_uninit::MaybeUninit<value::Value>" = type { [9 x i64] }
%"std::io::IoSlice<'_>" = type { %"std::sys::io::io_slice::iovec::IoSlice<'_>" }
%"std::sys::io::io_slice::iovec::IoSlice<'_>" = type { %"libc::unix::iovec", %"core::marker::PhantomData<&[u8]>" }
%"libc::unix::iovec" = type { ptr, i64 }
%"core::marker::PhantomData<&[u8]>" = type {}

@alloc_d173ebde96ee797e667c0150fe43d92e = private unnamed_addr constant [121 x i8] c"/Users/hongyaotang/.cargo/registry/src/index.crates.io-1949cf8c6b5b557f/serde_yaml-0.9.34+deprecated/src/value/tagged.rs\00", align 1
@alloc_8fbf9e603a9e3b96169cccffdc08343d = private unnamed_addr constant [29 x i8] c"empty YAML tag is not allowed", align 1
@alloc_e9394414c78f56365932d1f00f86545f = private unnamed_addr constant <{ ptr, [16 x i8] }> <{ ptr @alloc_d173ebde96ee797e667c0150fe43d92e, [16 x i8] c"x\00\00\00\00\00\00\00Y\00\00\00\09\00\00\00" }>, align 8
@alloc_a500d906b91607583596fa15e63c2ada = private unnamed_addr constant [40 x i8] c"internal error: entered unreachable code", align 1
@alloc_fc4b6782799043ebb55741f8478febf3 = private unnamed_addr constant [99 x i8] c"/Users/hongyaotang/.cargo/registry/src/index.crates.io-1949cf8c6b5b557f/indexmap-2.12.0/src/map.rs\00", align 1
@alloc_e42887cc5efdd3d41ff6a821ea5b2632 = private unnamed_addr constant <{ ptr, [16 x i8] }> <{ ptr @alloc_fc4b6782799043ebb55741f8478febf3, [16 x i8] c"b\00\00\00\00\00\00\00G\03\00\00\1A\00\00\00" }>, align 8
@alloc_dc5a447de5bcc5344b26167e2e9f6f84 = private unnamed_addr constant <{ ptr, [16 x i8] }> <{ ptr @alloc_fc4b6782799043ebb55741f8478febf3, [16 x i8] c"b\00\00\00\00\00\00\00\88\03\00\00\1E\00\00\00" }>, align 8
@vtable.0 = private unnamed_addr constant <{ [24 x i8], ptr }> <{ [24 x i8] c"\00\00\00\00\00\00\00\00\08\00\00\00\00\00\00\00\08\00\00\00\00\00\00\00", ptr @_RNvXs1g_NtCsjMrxcFdYDNN_4core3fmtRNtNtCsbHDlgkaPqr9_10serde_yaml5value5ValueNtB6_5Debug3fmtBA_ }>, align 8
@alloc_a51357dfbcca0800220965a98e80088f = private unnamed_addr constant [132 x i8] c"/Users/hongyaotang/.rustup/toolchains/nightly-aarch64-apple-darwin/lib/rustlib/src/rust/library/alloc/src/collections/btree/node.rs\00", align 1
@alloc_36e9d3034d1040a1b97b71beadbdf183 = private unnamed_addr constant <{ ptr, [16 x i8] }> <{ ptr @alloc_a51357dfbcca0800220965a98e80088f, [16 x i8] c"\83\00\00\00\00\00\00\00\F0\00\00\00M\00\00\00" }>, align 8
@alloc_5c50b0573939a5b3b419995fc3e13e19 = private unnamed_addr constant <{ ptr, [16 x i8] }> <{ ptr @alloc_a51357dfbcca0800220965a98e80088f, [16 x i8] c"\83\00\00\00\00\00\00\00\13\05\00\00$\00\00\00" }>, align 8
@alloc_a48736f782ce01888cde2ce41f6badc9 = private unnamed_addr constant [8 x i8] c"\FF\FF\FF\FF\FF\FF\FF\FF", align 8
@anon.71065b72a41e556a91f33c34c24f9f14.0 = private unnamed_addr constant <{ ptr, [24 x i8] }> <{ ptr @alloc_a48736f782ce01888cde2ce41f6badc9, [24 x i8] zeroinitializer }>, align 8
@alloc_69009fdc319497586282719e739ab5f8 = private unnamed_addr constant [136 x i8] c"/Users/hongyaotang/.rustup/toolchains/nightly-aarch64-apple-darwin/lib/rustlib/src/rust/library/alloc/src/collections/btree/navigate.rs\00", align 1
@alloc_1df1e5171bffdf21494df69d159bd444 = private unnamed_addr constant <{ ptr, [16 x i8] }> <{ ptr @alloc_69009fdc319497586282719e739ab5f8, [16 x i8] c"\87\00\00\00\00\00\00\00\C6\00\00\00'\00\00\00" }>, align 8
@alloc_3ffc3189cb6314b84344fd9b9e1a5940 = private unnamed_addr constant [22 x i8] c"tag:yaml.org,2002:bool", align 1
@alloc_e135529acdda61eeb7dd72a08dca12a7 = private unnamed_addr constant [21 x i8] c"tag:yaml.org,2002:int", align 1
@alloc_aeb3c137c3c7b4797beb6d278629fa85 = private unnamed_addr constant [23 x i8] c"tag:yaml.org,2002:float", align 1
@alloc_6c2c21c2aea987b4a3bcd7dc0fbe60ab = private unnamed_addr constant [22 x i8] c"tag:yaml.org,2002:null", align 1
@alloc_5eb17490b841d10d23675c699111e444 = private unnamed_addr constant [4 x i8] c"null", align 1
@alloc_5f6ee6031c6ec8ee15a373c875096199 = private unnamed_addr constant <{ ptr, [8 x i8] }> <{ ptr @alloc_5eb17490b841d10d23675c699111e444, [8 x i8] c"\04\00\00\00\00\00\00\00" }>, align 8
@vtable.6 = private unnamed_addr constant <{ [24 x i8], ptr }> <{ [24 x i8] c"\00\00\00\00\00\00\00\00\10\00\00\00\00\00\00\00\08\00\00\00\00\00\00\00", ptr @_RNvXs0_NtCsasqbmkB9jT1_10serde_core2deReNtB5_8Expected3fmt }>, align 8
@alloc_d65406d2c9a3b2f5e537fca7bc28c259 = private unnamed_addr constant [7 x i8] c"a float", align 1
@alloc_482bd3dc86d5ea557cf18c332a07158b = private unnamed_addr constant <{ ptr, [8 x i8] }> <{ ptr @alloc_d65406d2c9a3b2f5e537fca7bc28c259, [8 x i8] c"\07\00\00\00\00\00\00\00" }>, align 8
@alloc_a45aab79b1349dc8dcfa9a0871485b38 = private unnamed_addr constant [10 x i8] c"an integer", align 1
@alloc_63c1780b8da044e9d375b28a85249755 = private unnamed_addr constant <{ ptr, [8 x i8] }> <{ ptr @alloc_a45aab79b1349dc8dcfa9a0871485b38, [8 x i8] c"\0A\00\00\00\00\00\00\00" }>, align 8
@alloc_64c46d602bcdf61cecebd9c07a8ffbde = private unnamed_addr constant [9 x i8] c"a boolean", align 1
@alloc_459bd5231bc343916ff5067dcb2f5ba1 = private unnamed_addr constant <{ ptr, [8 x i8] }> <{ ptr @alloc_64c46d602bcdf61cecebd9c07a8ffbde, [8 x i8] c"\09\00\00\00\00\00\00\00" }>, align 8
@vtable.7 = private unnamed_addr constant <{ [24 x i8], ptr }> <{ [24 x i8] c"\00\00\00\00\00\00\00\00\10\00\00\00\00\00\00\00\08\00\00\00\00\00\00\00", ptr @_RNvXs_NtCsasqbmkB9jT1_10serde_core2deNtNvNtCsbHDlgkaPqr9_10serde_yaml2de12invalid_type11InvalidTypeNtB4_8Expected3fmtBF_ }>, align 8
@alloc_d49e492815bdb5d79356de42ff8baf31 = private unnamed_addr constant [3 x i8] c"-0x", align 1
@alloc_68a248632dd07609b57f8501a3ed0c3d = private unnamed_addr constant [4 x i8] c"\01-\C0\00", align 1
@alloc_25c4fcca6fcceefe253684797f27b0ef = private unnamed_addr constant [3 x i8] c"-0o", align 1
@alloc_680020dc4a42e88f3dee006e6e0a3f9d = private unnamed_addr constant [3 x i8] c"-0b", align 1
@alloc_83d8d36e705c58ed11bda7b90dabc655 = private unnamed_addr constant [2 x i8] c"0x", align 1
@alloc_3f5e304b2d3feb2147d7ca807297437a = private unnamed_addr constant [2 x i8] c"0o", align 1
@alloc_27d35d5cbe30361bd1ed04847fdae817 = private unnamed_addr constant [2 x i8] c"0b", align 1
@anon.71065b72a41e556a91f33c34c24f9f14.1 = private unnamed_addr constant [16 x i8] c"0123456789abcdef", align 1
@vtable.8 = private unnamed_addr constant <{ [24 x i8], ptr }> <{ [24 x i8] c"\00\00\00\00\00\00\00\00\08\00\00\00\00\00\00\00\08\00\00\00\00\00\00\00", ptr @_RNvXs1g_NtCsjMrxcFdYDNN_4core3fmtRINtNtB8_6option6OptionRhENtB6_5Debug3fmtCsbHDlgkaPqr9_10serde_yaml }>, align 8
@alloc_d5dca9d41e944c67d1b3bde48fe5d29e = private unnamed_addr constant [120 x i8] c"/Users/hongyaotang/.cargo/registry/src/index.crates.io-1949cf8c6b5b557f/serde_yaml-0.9.34+deprecated/src/value/index.rs\00", align 1
@alloc_b584fa6f04d9107b5777484f832cb8dc = private unnamed_addr constant <{ ptr, [16 x i8] }> <{ ptr @alloc_d5dca9d41e944c67d1b3bde48fe5d29e, [16 x i8] c"w\00\00\00\00\00\00\00`\00\00\00'\00\00\00" }>, align 8
@alloc_35225ba38bf4e0e54117009690ce5b37 = private unnamed_addr constant [32 x i8] c"\12cannot access key \C0\09 in YAML \C0\00", align 1
@alloc_9ed75034b7c26e1051a2ce462c911b91 = private unnamed_addr constant <{ ptr, [16 x i8] }> <{ ptr @alloc_d5dca9d41e944c67d1b3bde48fe5d29e, [16 x i8] c"w\00\00\00\00\00\00\00k\00\00\00\12\00\00\00" }>, align 8
@alloc_930f3883875d82d5043e839301ab22e6 = private unnamed_addr constant [40 x i8] c"assertion failed: src.len() == dst.len()", align 1
@alloc_3d1b356cbfc916b26f15e548d269cb74 = private unnamed_addr constant <{ ptr, [16 x i8] }> <{ ptr @alloc_a51357dfbcca0800220965a98e80088f, [16 x i8] c"\83\00\00\00\00\00\00\00T\07\00\00\05\00\00\00" }>, align 8
@alloc_74d19fd2f6ebacd6902753249f054837 = private unnamed_addr constant [136 x i8] c"/Users/hongyaotang/.rustup/toolchains/nightly-aarch64-apple-darwin/lib/rustlib/src/rust/library/core/src/slice/sort/stable/quicksort.rs\00", align 1
@alloc_63b5b202754b5efb770c3fd338a9a466 = private unnamed_addr constant <{ ptr, [16 x i8] }> <{ ptr @alloc_74d19fd2f6ebacd6902753249f054837, [16 x i8] c"\87\00\00\00\00\00\00\00J\00\00\00\1F\00\00\00" }>, align 8
@alloc_36ce49ab0499b14b6f7dec8f3551378e = private unnamed_addr constant <{ ptr, [16 x i8] }> <{ ptr @alloc_74d19fd2f6ebacd6902753249f054837, [16 x i8] c"\87\00\00\00\00\00\00\00D\00\00\00\17\00\00\00" }>, align 8
@anon.71065b72a41e556a91f33c34c24f9f14.2 = private unnamed_addr constant <{ [32 x i8], [40 x i8] }> <{ [32 x i8] c"\03\00\00\00\00\00\00\80\00\00\00\00\00\00\00\00\01\00\00\00\00\00\00\00\00\00\00\00\00\00\00\00", [40 x i8] undef }>, align 8
@vtable.9 = private unnamed_addr constant <{ [24 x i8], ptr }> <{ [24 x i8] c"\00\00\00\00\00\00\00\00\00\00\00\00\00\00\00\00\01\00\00\00\00\00\00\00", ptr @_RNvXs_NtCsasqbmkB9jT1_10serde_core2deNtNtB4_5impls11UnitVisitorNtB4_8Expected3fmtCsbHDlgkaPqr9_10serde_yaml }>, align 8
@alloc_3ff9044cfe32a7cac3db4c2f000c9af3 = private unnamed_addr constant [22 x i8] c"\09integer `\C0\09` as i128\00", align 1
@vtable.a = private unnamed_addr constant <{ [24 x i8], ptr, ptr, ptr }> <{ [24 x i8] c"\00\00\00\00\00\00\00\00\18\00\00\00\00\00\00\00\08\00\00\00\00\00\00\00", ptr @_RNvXs_NtCsasqbmkB9jT1_10serde_core6formatNtB4_3BufNtNtCsjMrxcFdYDNN_4core3fmt5Write9write_str, ptr @_RNvYNtNtCsasqbmkB9jT1_10serde_core6format3BufNtNtCsjMrxcFdYDNN_4core3fmt5Write10write_charCsbHDlgkaPqr9_10serde_yaml, ptr @_RNvYNtNtCsasqbmkB9jT1_10serde_core6format3BufNtNtCsjMrxcFdYDNN_4core3fmt5Write9write_fmtCsbHDlgkaPqr9_10serde_yaml }>, align 8
@alloc_5f48178c5219df04021288a13cc9767c = private unnamed_addr constant [105 x i8] c"/Users/hongyaotang/.cargo/registry/src/index.crates.io-1949cf8c6b5b557f/serde_core-1.0.228/src/de/mod.rs\00", align 1
@alloc_d734ffb4826c9c2563756b09d15e8d8c = private unnamed_addr constant <{ ptr, [16 x i8] }> <{ ptr @alloc_5f48178c5219df04021288a13cc9767c, [16 x i8] c"h\00\00\00\00\00\00\00\82\05\00\00U\00\00\00" }>, align 8
@vtable.b = private unnamed_addr constant <{ [24 x i8], ptr }> <{ [24 x i8] c"\00\00\00\00\00\00\00\00\00\00\00\00\00\00\00\00\01\00\00\00\00\00\00\00", ptr @_RNvXs_NtCsasqbmkB9jT1_10serde_core2deNtNtCsbHDlgkaPqr9_10serde_yaml6number13NumberVisitorNtB4_8Expected3fmtBD_ }>, align 8
@alloc_8619f0b955e7fad7cd327d72a99e1ec5 = private unnamed_addr constant [22 x i8] c"\09integer `\C0\09` as u128\00", align 1
@alloc_5f92cdaa592249c83f8b6c617c287db0 = private unnamed_addr constant <{ ptr, [16 x i8] }> <{ ptr @alloc_5f48178c5219df04021288a13cc9767c, [16 x i8] c"h\00\00\00\00\00\00\00\C0\05\00\00U\00\00\00" }>, align 8
@alloc_93816f04728d387347072ad30618ff9c = private unnamed_addr constant <{ ptr, [16 x i8] }> <{ ptr @alloc_69009fdc319497586282719e739ab5f8, [16 x i8] c"\87\00\00\00\00\00\00\00X\02\00\000\00\00\00" }>, align 8
@alloc_3d13ed261cfe25f6d12fed5835b6630c = private unnamed_addr constant [104 x i8] c"/Users/hongyaotang/.cargo/registry/src/index.crates.io-1949cf8c6b5b557f/indexmap-2.12.0/src/map/core.rs\00", align 1
@alloc_9f8525899d72254738d4324b7a87b3ce = private unnamed_addr constant <{ ptr, [16 x i8] }> <{ ptr @alloc_3d13ed261cfe25f6d12fed5835b6630c, [16 x i8] c"g\00\00\00\00\00\00\00;\00\00\00#\00\00\00" }>, align 8
@alloc_3fae09c86951907c85a9d05209a03c0f = private unnamed_addr constant <{ ptr, [16 x i8] }> <{ ptr @alloc_3d13ed261cfe25f6d12fed5835b6630c, [16 x i8] c"g\00\00\00\00\00\00\003\00\00\00\0F\00\00\00" }>, align 8
@_RNvNCNKNvNvMNtNtCs5sEH5CPMdak_3std4hash6randomNtBa_11RandomState3new4KEYS0s_023___RUST_STD_INTERNAL_VAL = external thread_local local_unnamed_addr global %"std::sys::thread_local::native::lazy::Storage<core::cell::Cell<(u64, u64)>, !>"
@alloc_d22444afca1197b450786e0c4c0e1c18 = private unnamed_addr constant [115 x i8] c"/Users/hongyaotang/.cargo/registry/src/index.crates.io-1949cf8c6b5b557f/serde_yaml-0.9.34+deprecated/src/loader.rs\00", align 1
@alloc_8ec013d766ae4e921d88f49b39249ddf = private unnamed_addr constant <{ ptr, [16 x i8] }> <{ ptr @alloc_d22444afca1197b450786e0c4c0e1c18, [16 x i8] c"r\00\00\00\00\00\00\00!\00\00\00>\00\00\00" }>, align 8
@alloc_d1084648e479974e70c9329824bf76f9 = private unnamed_addr constant [9 x i8] c"mid > len", align 1
@vtable.c = private unnamed_addr constant <{ [24 x i8], ptr }> <{ [24 x i8] c"\00\00\00\00\00\00\00\00\00\00\00\00\00\00\00\00\01\00\00\00\00\00\00\00", ptr @_RNvXsK_NtCsjMrxcFdYDNN_4core3fmtNtB5_5ErrorNtB5_5Debug3fmt }>, align 8
@alloc_00ae4b301f7fab8ac9617c03fcbd7274 = private unnamed_addr constant [43 x i8] c"called `Result::unwrap()` on an `Err` value", align 1
@alloc_3a1cbfee01543ba9fa771038bb8d1c55 = private unnamed_addr constant [45 x i8] c"libyaml emitter failed but there is no error\00", align 1
@alloc_5f7e61f5ff15c0932f9e45be2a369bcc = private unnamed_addr constant [44 x i8] c"libyaml parser failed but there is no error\00", align 1
@alloc_771d42e3187c485e76fce2ac6a3222b8 = private unnamed_addr constant [17 x i8] c"\0Emalloc error: \C0\00", align 1
@alloc_468ee2f4b4eb78bf66a1dc1562e606f2 = private unnamed_addr constant [123 x i8] c"/Users/hongyaotang/.cargo/registry/src/index.crates.io-1949cf8c6b5b557f/serde_yaml-0.9.34+deprecated/src/libyaml/parser.rs\00", align 1
@alloc_384cd06105e40426428c3b9f2f524817 = private unnamed_addr constant <{ ptr, [16 x i8] }> <{ ptr @alloc_468ee2f4b4eb78bf66a1dc1562e606f2, [16 x i8] c"z\00\00\00\00\00\00\00I\00\00\00\11\00\00\00" }>, align 8
@vtable.d = private unnamed_addr constant <{ [24 x i8], ptr, ptr, ptr, ptr, ptr, ptr, ptr }> <{ [24 x i8] c"\00\00\00\00\00\00\00\00\00\00\00\00\00\00\00\00\01\00\00\00\00\00\00\00", ptr @_RNvXs7_NtNtCs5sEH5CPMdak_3std2io4utilNtB5_4SinkNtB7_5Write5write, ptr @_RNvXs7_NtNtCs5sEH5CPMdak_3std2io4utilNtB5_4SinkNtB7_5Write14write_vectored, ptr @_RNvXs7_NtNtCs5sEH5CPMdak_3std2io4utilNtB5_4SinkNtB7_5Write17is_write_vectored, ptr @_RNvXs7_NtNtCs5sEH5CPMdak_3std2io4utilNtB5_4SinkNtB7_5Write5flush, ptr @_RNvXs7_NtNtCs5sEH5CPMdak_3std2io4utilNtB5_4SinkNtB7_5Write9write_all, ptr @_RNvXs7_NtNtCs5sEH5CPMdak_3std2io4utilNtB5_4SinkNtB7_5Write18write_all_vectored, ptr @_RNvXs7_NtNtCs5sEH5CPMdak_3std2io4utilNtB5_4SinkNtB7_5Write9write_fmt }>, align 8
@alloc_7777926d569727837dbdbaffb2983d01 = private unnamed_addr constant [124 x i8] c"/Users/hongyaotang/.cargo/registry/src/index.crates.io-1949cf8c6b5b557f/serde_yaml-0.9.34+deprecated/src/libyaml/emitter.rs\00", align 1
@alloc_a6fce268bdf3bb9d93b7a6ba08d17528 = private unnamed_addr constant <{ ptr, [16 x i8] }> <{ ptr @alloc_7777926d569727837dbdbaffb2983d01, [16 x i8] c"{\00\00\00\00\00\00\00F\00\00\00\11\00\00\00" }>, align 8
@alloc_bfb4ce365847b5f879dc82754bfc4fd9 = private unnamed_addr constant [121 x i8] c"/Users/hongyaotang/.cargo/registry/src/index.crates.io-1949cf8c6b5b557f/serde_yaml-0.9.34+deprecated/src/libyaml/cstr.rs\00", align 1
@alloc_8d55f00e32793ed852b854fba1410252 = private unnamed_addr constant <{ ptr, [16 x i8] }> <{ ptr @alloc_3d13ed261cfe25f6d12fed5835b6630c, [16 x i8] c"g\00\00\00\00\00\00\00\A2\02\00\00,\00\00\00" }>, align 8
@alloc_6c4f7aec2b241fde0b45c863c2d928fa = private unnamed_addr constant <{ ptr, [16 x i8] }> <{ ptr @alloc_3d13ed261cfe25f6d12fed5835b6630c, [16 x i8] c"g\00\00\00\00\00\00\00z\02\00\00\22\00\00\00" }>, align 8
@alloc_dc36f5e7f414ee4871a5d8a54127b47b = private unnamed_addr constant [26 x i8] c"unexpected end of sequence", align 1
@alloc_155f4dc7146a66915c2057f8316afc51 = private unnamed_addr constant [111 x i8] c"/Users/hongyaotang/.cargo/registry/src/index.crates.io-1949cf8c6b5b557f/serde_yaml-0.9.34+deprecated/src/de.rs\00", align 1
@alloc_ebb9573b0aeb4b46b8aa8d4cbede39b6 = private unnamed_addr constant <{ ptr, [16 x i8] }> <{ ptr @alloc_155f4dc7146a66915c2057f8316afc51, [16 x i8] c"n\00\00\00\00\00\00\00\06\02\00\00\19\00\00\00" }>, align 8
@alloc_821a48323ab72f83f3b5c6f0e763cda9 = private unnamed_addr constant [25 x i8] c"unexpected end of mapping", align 1
@alloc_8e72e87a523ec9defae4ee44a1a7aa25 = private unnamed_addr constant <{ ptr, [16 x i8] }> <{ ptr @alloc_155f4dc7146a66915c2057f8316afc51, [16 x i8] c"n\00\00\00\00\00\00\00\0C\02\00\00\19\00\00\00" }>, align 8
@vtable.e = private unnamed_addr constant <{ [24 x i8], ptr }> <{ [24 x i8] c"\00\00\00\00\00\00\00\00\08\00\00\00\00\00\00\00\08\00\00\00\00\00\00\00", ptr @_RNvXNvMs1_NtCsbHDlgkaPqr9_10serde_yaml2deNtB8_22DeserializerFromEvents11end_mappingNtB2_11ExpectedMapNtNtCsasqbmkB9jT1_10serde_core2de8Expected3fmt }>, align 8
@alloc_0604383b51e8107974c4aa01601ee2be = private unnamed_addr constant [27 x i8] c"expected a MappingEnd event", align 1
@alloc_b28f33bb0e9cb4522a389521e076fe33 = private unnamed_addr constant <{ ptr, [16 x i8] }> <{ ptr @alloc_155f4dc7146a66915c2057f8316afc51, [16 x i8] c"n\00\00\00\00\00\00\00e\02\00\00\12\00\00\00" }>, align 8
@vtable.f = private unnamed_addr constant <{ [24 x i8], ptr }> <{ [24 x i8] c"\00\00\00\00\00\00\00\00\08\00\00\00\00\00\00\00\08\00\00\00\00\00\00\00", ptr @_RNvXNvMs1_NtCsbHDlgkaPqr9_10serde_yaml2deNtB8_22DeserializerFromEvents12end_sequenceNtB2_11ExpectedSeqNtNtCsasqbmkB9jT1_10serde_core2de8Expected3fmt }>, align 8
@alloc_c83584c27e1086cd3c2eb546fb4dd586 = private unnamed_addr constant [28 x i8] c"expected a SequenceEnd event", align 1
@alloc_a4ffe284e88ea54f91dad273a7225f7f = private unnamed_addr constant <{ ptr, [16 x i8] }> <{ ptr @alloc_155f4dc7146a66915c2057f8316afc51, [16 x i8] c"n\00\00\00\00\00\00\00E\02\00\00\12\00\00\00" }>, align 8
@alloc_94597ac7c9f5138418dcb3763bf53f71 = private unnamed_addr constant [21 x i8] c"\12unresolved alias: \C0\00", align 1
@alloc_5bfab82e0299d0f17ed9fb75f4ff5771 = private unnamed_addr constant <{ ptr, [16 x i8] }> <{ ptr @alloc_155f4dc7146a66915c2057f8316afc51, [16 x i8] c"n\00\00\00\00\00\00\00\EE\01\00\00\15\00\00\00" }>, align 8
@alloc_7f334cf8a7442b5587a32836a5159e46 = private unnamed_addr constant [110 x i8] c"/Users/hongyaotang/.cargo/registry/src/index.crates.io-1949cf8c6b5b557f/indexmap-2.12.0/src/map/core/entry.rs\00", align 1
@alloc_00a7f73b61746ccf872c1c48bfb7162d = private unnamed_addr constant <{ ptr, [16 x i8] }> <{ ptr @alloc_7f334cf8a7442b5587a32836a5159e46, [16 x i8] c"m\00\00\00\00\00\00\00\CB\00\00\00\1A\00\00\00" }>, align 8
@alloc_0f52f98e9fa44caf6668aeb0b1c94ca5 = private unnamed_addr constant [1 x i8] c".", align 1
@alloc_b496d0f98e2aa0413b37c3c30dba2cbe = private unnamed_addr constant [5 x i8] c"\C0\02: \00", align 1
@alloc_7e454971a7d37c60c7aa69fd24e9eedf = private unnamed_addr constant [114 x i8] c"/Users/hongyaotang/.cargo/registry/src/index.crates.io-1949cf8c6b5b557f/serde_yaml-0.9.34+deprecated/src/error.rs\00", align 1
@alloc_0780702d508bc03b8b22e8489bd32e79 = private unnamed_addr constant <{ ptr, [16 x i8] }> <{ ptr @alloc_7e454971a7d37c60c7aa69fd24e9eedf, [16 x i8] c"q\00\00\00\00\00\00\00\D8\00\00\00&\00\00\00" }>, align 8
@alloc_615621f349e377ef2ca46ce8554ff7af = private unnamed_addr constant [25 x i8] c"EOF while parsing a value", align 1
@alloc_9f565a25d73903ea042621cfe78867db = private unnamed_addr constant [74 x i8] c"deserializing from YAML containing more than one document is not supported", align 1
@alloc_9b7e2b3ed55ad3874cb824ad14a4bdef = private unnamed_addr constant [24 x i8] c"recursion limit exceeded", align 1
@alloc_b3805e854d23c6c848974dd0fec7c111 = private unnamed_addr constant [25 x i8] c"repetition limit exceeded", align 1
@alloc_74b6cf2ff159558284fac40d26c93d15 = private unnamed_addr constant [69 x i8] c"serialization and deserialization of bytes in YAML is not implemented", align 1
@alloc_ed1a4f122bf037c9f80bc69de972e0d6 = private unnamed_addr constant [14 x i8] c"unknown anchor", align 1
@alloc_3e3934beafe8fe6e86a1f34ec849cc9b = private unnamed_addr constant [53 x i8] c"serializing nested enums in YAML is not supported yet", align 1
@alloc_057e0fcbd4d44a7b5be513037b7df2f4 = private unnamed_addr constant [68 x i8] c"expected a mapping or list of mappings for merging, but found scalar", align 1
@alloc_a6249f7044244a535c2d67173b875a4a = private unnamed_addr constant [32 x i8] c"unexpected tagged value in merge", align 1
@alloc_536c0668a09246d084455732e677ea51 = private unnamed_addr constant [48 x i8] c"expected a mapping for merging, but found scalar", align 1
@alloc_ed6c07d7db2ea63d0a604101f16c8f46 = private unnamed_addr constant [50 x i8] c"expected a mapping for merging, but found sequence", align 1
@alloc_66e4422c70f6bfb6d1943dc6dd52e164 = private unnamed_addr constant [27 x i8] c"failed to parse YAML number", align 1
@alloc_17f98436e92f64e0ab8fd26f0d876459 = private unnamed_addr constant <{ ptr, [16 x i8] }> <{ ptr @alloc_7e454971a7d37c60c7aa69fd24e9eedf, [16 x i8] c"q\00\00\00\00\00\00\00\F4\00\00\00%\00\00\00" }>, align 8
@alloc_a90baf21ebe725dfa01271762f4e36d3 = private unnamed_addr constant [6 x i8] c"Error(", align 1
@alloc_a83d1c324169321390d3edc2a930e831 = private unnamed_addr constant [23 x i8] c"\08, line: \C0\0A, column: \C0\00", align 1
@alloc_9e3f62b0e6490cc45676dc85f910c2d0 = private unnamed_addr constant [1 x i8] c")", align 1
@alloc_d9c5b0e239ebdae23cdaded61198dcd3 = private unnamed_addr constant [7 x i8] c"\04 at \C0\00", align 1
@alloc_3b611519799cbfb75d0d73ffee3ba2b1 = private unnamed_addr constant [116 x i8] c"/Users/hongyaotang/.rustup/toolchains/nightly-aarch64-apple-darwin/lib/rustlib/src/rust/library/core/src/num/mod.rs\00", align 1
@alloc_b0d6f4768d6dbcaaba9bf9a6c0de2b5f = private unnamed_addr constant <{ ptr, [16 x i8] }> <{ ptr @alloc_a51357dfbcca0800220965a98e80088f, [16 x i8] c"\83\00\00\00\00\00\00\00\D0\04\00\00#\00\00\00" }>, align 8
@alloc_8bf6e2a89d3a6de72f722a6da74569b5 = private unnamed_addr constant [2 x i8] c"<<", align 1
@alloc_199f3a230e05caabbfa2108b8cce8f13 = private unnamed_addr constant <{ ptr, [16 x i8] }> <{ ptr @alloc_3b611519799cbfb75d0d73ffee3ba2b1, [16 x i8] c"s\00\00\00\00\00\00\00\83\06\00\00\01\00\00\00" }>, align 8
@alloc_50679f783fca94dab7457816f752eff0 = private unnamed_addr constant [48 x i8] c"assertion failed: edge.height == self.height - 1", align 1
@alloc_6f083584960555ed8732225b7b53e5b1 = private unnamed_addr constant <{ ptr, [16 x i8] }> <{ ptr @alloc_a51357dfbcca0800220965a98e80088f, [16 x i8] c"\83\00\00\00\00\00\00\00\B6\02\00\00\09\00\00\00" }>, align 8
@alloc_da967f6e9acf91e913e9d8172d81c5c3 = private unnamed_addr constant [4 x i8] c"true", align 1
@alloc_8fc678ffe05a7ff2d448f8f9e8007117 = private unnamed_addr constant [4 x i8] c"True", align 1
@alloc_2b504d17a1e238627ddedbed4dab6695 = private unnamed_addr constant [4 x i8] c"TRUE", align 1
@alloc_b81e52ca1a07489f49a3e5fe131c4b29 = private unnamed_addr constant [5 x i8] c"false", align 1
@alloc_ece86a924e9ec8e46ada674747a3d69d = private unnamed_addr constant [5 x i8] c"False", align 1
@alloc_68f48cf6a349f4cec4586456aa96a5f4 = private unnamed_addr constant [5 x i8] c"FALSE", align 1
@alloc_5da662ed5ac11bee5f66f0b9be5f8242 = private unnamed_addr constant <{ ptr, [16 x i8] }> <{ ptr @alloc_155f4dc7146a66915c2057f8316afc51, [16 x i8] c"n\00\00\00\00\00\00\00\99\04\00\00\1C\00\00\00" }>, align 8
@alloc_01de4c8c13f0cc152cc858068db4cf66 = private unnamed_addr constant <{ ptr, [16 x i8] }> <{ ptr @alloc_155f4dc7146a66915c2057f8316afc51, [16 x i8] c"n\00\00\00\00\00\00\00\A3\04\00\00\1F\00\00\00" }>, align 8
@alloc_05fffe32194314c4948248e4330f90ac = private unnamed_addr constant <{ ptr, [16 x i8] }> <{ ptr @alloc_155f4dc7146a66915c2057f8316afc51, [16 x i8] c"n\00\00\00\00\00\00\00\A4\04\00\00\1E\00\00\00" }>, align 8
@alloc_49301138a214b9221623d3426b6cdb60 = private unnamed_addr constant <{ ptr, [16 x i8] }> <{ ptr @alloc_155f4dc7146a66915c2057f8316afc51, [16 x i8] c"n\00\00\00\00\00\00\00H\04\00\00:\00\00\00" }>, align 8
@alloc_2984161f4c9fa8681f22abfd480c4a38 = private unnamed_addr constant [4 x i8] c".inf", align 1
@alloc_a3de7dc9e82e066ad4c0f4f3bf893ba3 = private unnamed_addr constant [4 x i8] c".Inf", align 1
@alloc_0e770927e6700288f5f6a7767fa396a7 = private unnamed_addr constant [4 x i8] c".INF", align 1
@alloc_0e77af838d8ed876cc041ec4788aed52 = private unnamed_addr constant [5 x i8] c"-.inf", align 1
@alloc_6e483e0fdb9c1b07b903c8693ee38846 = private unnamed_addr constant [5 x i8] c"-.Inf", align 1
@alloc_776c7dc8e5a25a25a52410f70b759eae = private unnamed_addr constant [5 x i8] c"-.INF", align 1
@alloc_ee85a4cd714e9e2e7f390cd2d3e2a317 = private unnamed_addr constant [4 x i8] c".nan", align 1
@alloc_eacb3c261d914f553aeecdb58d638779 = private unnamed_addr constant [4 x i8] c".NaN", align 1
@alloc_8f111a103daa753c2ad710f5e70bdd92 = private unnamed_addr constant [4 x i8] c".NAN", align 1
@alloc_3c8749512a8a3c5e666ff6bdeceacc67 = private unnamed_addr constant <{ ptr, [16 x i8] }> <{ ptr @alloc_bfb4ce365847b5f879dc82754bfc4fd9, [16 x i8] c"x\00\00\00\00\00\00\00l\00\00\00#\00\00\00" }>, align 8
@alloc_33671a93b2ca9c9bacac5ac0cffa88d1 = private unnamed_addr constant [11 x i8] c"\02\\x\C3 \00\00i\02\00\00", align 1
@alloc_feadcc19abd3bd3afd2902aabeebbfd8 = private unnamed_addr constant <{ ptr, [16 x i8] }> <{ ptr @alloc_bfb4ce365847b5f879dc82754bfc4fd9, [16 x i8] c"x\00\00\00\00\00\00\00v\00\00\00 \00\00\00" }>, align 8
@alloc_7e6505e43d9028f716ecac97d7896539 = private unnamed_addr constant <{ ptr, [16 x i8] }> <{ ptr @alloc_bfb4ce365847b5f879dc82754bfc4fd9, [16 x i8] c"x\00\00\00\00\00\00\00e\00\00\00+\00\00\00" }>, align 8
@alloc_41a900f4e40c324cf8c3fb79c52a8e29 = private unnamed_addr constant <{ ptr, [16 x i8] }> <{ ptr @alloc_bfb4ce365847b5f879dc82754bfc4fd9, [16 x i8] c"x\00\00\00\00\00\00\00]\00\00\009\00\00\00" }>, align 8
@alloc_b48a9f581f79114fabb013acc8cadbda = private unnamed_addr constant <{ ptr, [16 x i8] }> <{ ptr @alloc_bfb4ce365847b5f879dc82754bfc4fd9, [16 x i8] c"x\00\00\00\00\00\00\00K\00\00\00#\00\00\00" }>, align 8
@alloc_2257f48dce4e367839aa739cdfa50085 = private unnamed_addr constant <{ ptr, [16 x i8] }> <{ ptr @alloc_bfb4ce365847b5f879dc82754bfc4fd9, [16 x i8] c"x\00\00\00\00\00\00\00G\00\00\00E\00\00\00" }>, align 8
@alloc_86ee9582a968c9a8a242acd094f1baba = private unnamed_addr constant <{ ptr, [16 x i8] }> <{ ptr @alloc_468ee2f4b4eb78bf66a1dc1562e606f2, [16 x i8] c"z\00\00\00\00\00\00\00\92\00\00\00\1F\00\00\00" }>, align 8
@alloc_eba4aaca15059bea7603d93355b4d5be = private unnamed_addr constant <{ ptr, [16 x i8] }> <{ ptr @alloc_468ee2f4b4eb78bf66a1dc1562e606f2, [16 x i8] c"z\00\00\00\00\00\00\00r\00\00\00L\00\00\00" }>, align 8
@alloc_04cfc52a5a96f5f4321360b4ff29379e = private unnamed_addr constant <{ ptr, [16 x i8] }> <{ ptr @alloc_468ee2f4b4eb78bf66a1dc1562e606f2, [16 x i8] c"z\00\00\00\00\00\00\00\83\00\00\00\1C\00\00\00" }>, align 8
@alloc_091e1c6289d8e4d8a1f417e5f238e566 = private unnamed_addr constant <{ ptr, [16 x i8] }> <{ ptr @alloc_468ee2f4b4eb78bf66a1dc1562e606f2, [16 x i8] c"z\00\00\00\00\00\00\00\80\00\00\003\00\00\00" }>, align 8
@alloc_58b9fce9c147172297c5421eb5419574 = private unnamed_addr constant [15 x i8] c"index not found", align 1
@alloc_69cf307c9c877670c9a9d469f83fec9b = private unnamed_addr constant <{ ptr, [16 x i8] }> <{ ptr @alloc_3d13ed261cfe25f6d12fed5835b6630c, [16 x i8] c"g\00\00\00\00\00\00\00K\00\00\00\0A\00\00\00" }>, align 8
@_RNvNvXs4_NtNtCsbHDlgkaPqr9_10serde_yaml5value5indexNtB9_5ValueINtNtNtCsjMrxcFdYDNN_4core3ops5index5IndexpE5index4NULL = local_unnamed_addr constant <{ [8 x i8], [64 x i8] }> <{ [8 x i8] c"\00\00\00\00\00\00\00\80", [64 x i8] undef }>, align 8
@_RNvNvXs9_NtNtCsbHDlgkaPqr9_10serde_yaml5value2deRNtB9_5ValueNtNtCsasqbmkB9jT1_10serde_core2de12Deserializer15deserialize_seq5EMPTY = local_unnamed_addr constant [24 x i8] c"\00\00\00\00\00\00\00\00\08\00\00\00\00\00\00\00\00\00\00\00\00\00\00\00", align 8
@alloc_6b68ddf550ac33a8524c9a464267a36b = private unnamed_addr constant [7 x i8] c"\C0\01[\C0\01]\00", align 1
@alloc_981055920b6c6d61caeffdf36eeb06f6 = private unnamed_addr constant [3 x i8] c"\C0\C0\00", align 1
@alloc_0c812808379efded5a4fb82d2790b556 = private unnamed_addr constant [2 x i8] c"\C0\00", align 1
@alloc_1ae38103d4d5c78079d728988ef97055 = private unnamed_addr constant [4 x i8] c"\C0\01?\00", align 1
@alloc_574c398ffa55a88d5b3cd87bcd19f74a = private unnamed_addr constant [4 x i8] c"Null", align 1
@alloc_b16f7ef596ddd6cd656a0798c2a672ff = private unnamed_addr constant [10 x i8] c"\05Bool(\C0\01)\00", align 1
@alloc_e8abb4c5ba36cca777fd16bac071df75 = private unnamed_addr constant [12 x i8] c"\07Number(\C0\01)\00", align 1
@alloc_da95c585deb382e34a391ab0c637bfb0 = private unnamed_addr constant [12 x i8] c"\07String(\C0\01)\00", align 1
@alloc_2dc2e6ce2aab83a0bfb455ef3bfb02a9 = private unnamed_addr constant [9 x i8] c"Sequence ", align 1
@vtable.g = private unnamed_addr constant <{ ptr, [16 x i8], ptr }> <{ ptr @_RINvNtCsjMrxcFdYDNN_4core3ptr13drop_in_placeNtNtNtCsbHDlgkaPqr9_10serde_yaml5value6tagged3TagEBM_, [16 x i8] c"\18\00\00\00\00\00\00\00\08\00\00\00\00\00\00\00", ptr @_RNvXs7_NtNtCsbHDlgkaPqr9_10serde_yaml5value6taggedNtB5_3TagNtNtCsjMrxcFdYDNN_4core3fmt5Debug3fmt }>, align 8
@alloc_93bbf8028687e24f57e458e9eae74861 = private unnamed_addr constant [11 x i8] c"TaggedValue", align 1
@alloc_125af81ac88d8b2d4254bab0c6fa4f63 = private unnamed_addr constant [3 x i8] c"tag", align 1
@alloc_2fce15d1a77c62e67d5eacceaee24476 = private unnamed_addr constant [5 x i8] c"value", align 1
@alloc_81f894d4946a411289053abed3c68cd6 = private unnamed_addr constant [53 x i8] c"\14cannot access index \C0\1C of YAML sequence of length \C0\00", align 1
@alloc_388cc376f9961419a8e23acad9c47f72 = private unnamed_addr constant <{ ptr, [16 x i8] }> <{ ptr @alloc_d5dca9d41e944c67d1b3bde48fe5d29e, [16 x i8] c"w\00\00\00\00\00\00\001\00\00\00\19\00\00\00" }>, align 8
@alloc_be97d508749e7d4a354920ac3f146a67 = private unnamed_addr constant [34 x i8] c"\14cannot access index \C0\09 of YAML \C0\00", align 1
@alloc_2b9d914347dcb8673375988ac24163c4 = private unnamed_addr constant <{ ptr, [16 x i8] }> <{ ptr @alloc_d5dca9d41e944c67d1b3bde48fe5d29e, [16 x i8] c"w\00\00\00\00\00\00\00<\00\00\00\16\00\00\00" }>, align 8
@alloc_8078fbfae8c313d48cf855e736c6dd2f = private unnamed_addr constant [22 x i8] c"map containing 1 entry", align 1
@alloc_dd5f7b382f2d77bea97b3e42db24b0ec = private unnamed_addr constant [27 x i8] c"\0Fmap containing \C0\08 entries\00", align 1
@alloc_7e461d5a6fbd6888bb0adc21b7778281 = private unnamed_addr constant [21 x i8] c"sequence of 1 element", align 1
@alloc_2c0fa1a91282211c9751b78675dee769 = private unnamed_addr constant [25 x i8] c"\0Csequence of \C0\09 elements\00", align 1
@alloc_e5059f129a529c615f3de6fc20c59635 = private unnamed_addr constant [4 x i8] c"\C0\01.\00", align 1
@alloc_61490aa3b79c013c1cb62019bf294fb1 = private unnamed_addr constant [14 x i8] c"any YAML value", align 1
@alloc_df3f7062d18d8898c0cb7eb361ec176a = private unnamed_addr constant [24 x i8] c"a YAML value with a !Tag", align 1
@alloc_f2012d245e619335196f64477c311933 = private unnamed_addr constant [8 x i8] c"I wonder", align 1
@alloc_1f10c1b9c2948291068fcbe83d925fea = private unnamed_addr constant [14 x i8] c"a YAML mapping", align 1
@alloc_99ac8a81a24cac863217ce4a5cbfabea = private unnamed_addr constant [5 x i8] c"Error", align 1
@alloc_b2f2ab8c49c96e40058f54e154f502a4 = private unnamed_addr constant [6 x i8] c"MEMORY", align 1
@alloc_4f4ce3b518b04505181749a387c5dba1 = private unnamed_addr constant [6 x i8] c"READER", align 1
@alloc_ad9be30b646dd9998e312f269161589d = private unnamed_addr constant [7 x i8] c"SCANNER", align 1
@alloc_4b552c001a0e1d4bcd00face851d6ed5 = private unnamed_addr constant [6 x i8] c"PARSER", align 1
@alloc_29d7142e6e9fb918823a803aad923807 = private unnamed_addr constant [8 x i8] c"COMPOSER", align 1
@alloc_1418b8ec7138ae3c32c9f68082e485cb = private unnamed_addr constant [6 x i8] c"WRITER", align 1
@alloc_71af2e66c61094a8756a688ab4ef7fac = private unnamed_addr constant [7 x i8] c"EMITTER", align 1
@vtable.h = private unnamed_addr constant <{ [24 x i8], ptr }> <{ [24 x i8] c"\00\00\00\00\00\00\00\00\10\00\00\00\00\00\00\00\08\00\00\00\00\00\00\00", ptr @_RNvXs7_NtCsjMrxcFdYDNN_4core3fmtNtB5_9ArgumentsNtB5_5Debug3fmt }>, align 8
@alloc_a5d866b1768ad3f826bccdb004a1a8ae = private unnamed_addr constant [4 x i8] c"kind", align 1
@vtable.i = private unnamed_addr constant <{ [24 x i8], ptr }> <{ [24 x i8] c"\00\00\00\00\00\00\00\00\08\00\00\00\00\00\00\00\08\00\00\00\00\00\00\00", ptr @_RNvXs2_NtNtCsbHDlgkaPqr9_10serde_yaml7libyaml4cstrNtB5_4CStrNtNtCsjMrxcFdYDNN_4core3fmt5Debug3fmt }>, align 8
@alloc_a248b745c1295ade7cc24c2f5d580160 = private unnamed_addr constant [7 x i8] c"problem", align 1
@vtable.j = private unnamed_addr constant <{ [24 x i8], ptr }> <{ [24 x i8] c"\00\00\00\00\00\00\00\00\08\00\00\00\00\00\00\00\08\00\00\00\00\00\00\00", ptr @_RNvXsX_NtNtCsjMrxcFdYDNN_4core3fmt3numyNtB7_5Debug3fmt }>, align 8
@alloc_4d50e53feb026fc4d6d8393386f72ef3 = private unnamed_addr constant [14 x i8] c"problem_offset", align 1
@vtable.k = private unnamed_addr constant <{ [24 x i8], ptr }> <{ [24 x i8] c"\00\00\00\00\00\00\00\00\18\00\00\00\00\00\00\00\08\00\00\00\00\00\00\00", ptr @_RNvXs3_NtNtCsbHDlgkaPqr9_10serde_yaml7libyaml5errorNtB5_4MarkNtNtCsjMrxcFdYDNN_4core3fmt5Debug3fmt }>, align 8
@alloc_2b4a388ebec1b78b6d0607de0cb617a0 = private unnamed_addr constant [12 x i8] c"problem_mark", align 1
@alloc_9bc3ac41e22a4a8376a6b200b0a43e06 = private unnamed_addr constant [7 x i8] c"context", align 1
@alloc_a5de7f4736a40a6b369ac8aadf85b4ed = private unnamed_addr constant [12 x i8] c"context_mark", align 1
@alloc_e820ed0ecb37faa5d83cd38029581d71 = private unnamed_addr constant [8 x i8] c"Mapping ", align 1
@vtable.l = private unnamed_addr constant <{ [24 x i8], ptr }> <{ [24 x i8] c"\00\00\00\00\00\00\00\00\01\00\00\00\00\00\00\00\01\00\00\00\00\00\00\00", ptr @_RNvXsf_NtCsjMrxcFdYDNN_4core3fmtbNtB5_5Debug3fmt }>, align 8
@vtable.m = private unnamed_addr constant <{ [24 x i8], ptr }> <{ [24 x i8] c"\00\00\00\00\00\00\00\00\08\00\00\00\00\00\00\00\08\00\00\00\00\00\00\00", ptr @_RNvXs_NtNtCsbHDlgkaPqr9_10serde_yaml5value5debugNtB4_13DisplayNumberNtNtCsjMrxcFdYDNN_4core3fmt5Debug3fmt }>, align 8
@vtable.n = private unnamed_addr constant <{ ptr, [16 x i8], ptr }> <{ ptr @_RINvNtCsjMrxcFdYDNN_4core3ptr13drop_in_placeNtNtCsdJPVW0sQgAG_5alloc6string6StringECsbHDlgkaPqr9_10serde_yaml, [16 x i8] c"\18\00\00\00\00\00\00\00\08\00\00\00\00\00\00\00", ptr @_RNvXsr_NtCsdJPVW0sQgAG_5alloc6stringNtB5_6StringNtNtCsjMrxcFdYDNN_4core3fmt5Debug3fmt }>, align 8
@vtable.o = private unnamed_addr constant <{ ptr, [16 x i8], ptr }> <{ ptr @_RINvNtCsjMrxcFdYDNN_4core3ptr13drop_in_placeNtNtCsbHDlgkaPqr9_10serde_yaml5value5ValueEBK_, [16 x i8] c"H\00\00\00\00\00\00\00\08\00\00\00\00\00\00\00", ptr @_RNvXNtNtCsbHDlgkaPqr9_10serde_yaml5value5debugNtB4_5ValueNtNtCsjMrxcFdYDNN_4core3fmt5Debug3fmt }>, align 8
@alloc_f3aac0306a377d4ccb758f370f1bbe5c = private unnamed_addr constant [12 x i8] c"\09position \C0\00", align 1
@alloc_cf33dc2aabfef884bb265c679c810278 = private unnamed_addr constant [18 x i8] c"\05line \C0\08 column \C0\00", align 1
@alloc_719a8be112812cd9ff3dab2745e0fd2d = private unnamed_addr constant [7 x i8] c"boolean", align 1
@alloc_678475faa858074d0c5940e3ad1c78be = private unnamed_addr constant [6 x i8] c"number", align 1
@alloc_cf3ed130eaac04f7756610ea20f33fce = private unnamed_addr constant [6 x i8] c"string", align 1
@alloc_28627ebe4d30a1dba10489a5b7ee6c08 = private unnamed_addr constant [8 x i8] c"sequence", align 1
@alloc_11104981124ce583da6a4ed0f48b8afb = private unnamed_addr constant [7 x i8] c"mapping", align 1
@alloc_09786ee3feeb52242416075b679874a2 = private unnamed_addr constant <{ ptr, [16 x i8] }> <{ ptr @alloc_d5dca9d41e944c67d1b3bde48fe5d29e, [16 x i8] c"w\00\00\00\00\00\00\00\AF\00\00\00!\00\00\00" }>, align 8
@alloc_1af7e1ccb79f822f87ae2569d335ba68 = private unnamed_addr constant [4 x i8] c"Mark", align 1
@alloc_ce52de59c922b8759e2388a62b9c641f = private unnamed_addr constant [5 x i8] c"index", align 1
@alloc_228b951a53cd2b066a5833c8dc256a67 = private unnamed_addr constant [4 x i8] c"line", align 1
@alloc_e93acdbd9a9ac66f06dbac574421e116 = private unnamed_addr constant [6 x i8] c"column", align 1
@alloc_7ba9ff967f54f2f2ecb6a25077578783 = private unnamed_addr constant [8 x i8] c"a number", align 1
@alloc_cee386583203eba970c996905b2bf2ce = private unnamed_addr constant [4 x i8] c"\01!\C0\00", align 1
@vtable.p = private unnamed_addr constant <{ ptr, [16 x i8], ptr, ptr, ptr }> <{ ptr @_RINvNtCsjMrxcFdYDNN_4core3ptr13drop_in_placeNtNtCsdJPVW0sQgAG_5alloc6string6StringECsbHDlgkaPqr9_10serde_yaml, [16 x i8] c"\18\00\00\00\00\00\00\00\08\00\00\00\00\00\00\00", ptr @_RNvXsZ_NtCsdJPVW0sQgAG_5alloc6stringNtB5_6StringNtNtCsjMrxcFdYDNN_4core3fmt5Write9write_str, ptr @_RNvXsZ_NtCsdJPVW0sQgAG_5alloc6stringNtB5_6StringNtNtCsjMrxcFdYDNN_4core3fmt5Write10write_char, ptr @_RNvYNtNtCsdJPVW0sQgAG_5alloc6string6StringNtNtCsjMrxcFdYDNN_4core3fmt5Write9write_fmtCsbHDlgkaPqr9_10serde_yaml }>, align 8
@alloc_cc656815297f75969399c3f4b1ad3de4 = private unnamed_addr constant [55 x i8] c"a Display implementation returned an error unexpectedly", align 1
@alloc_82687d2573a6ed8a4d1fcf733f159466 = private unnamed_addr constant [116 x i8] c"/Users/hongyaotang/.rustup/toolchains/nightly-aarch64-apple-darwin/lib/rustlib/src/rust/library/alloc/src/string.rs\00", align 1
@alloc_f3c70bf9d2724ff8f638341943ddf3c8 = private unnamed_addr constant <{ ptr, [16 x i8] }> <{ ptr @alloc_82687d2573a6ed8a4d1fcf733f159466, [16 x i8] c"s\00\00\00\00\00\00\00f\0B\00\00\0E\00\00\00" }>, align 8
@alloc_37d2e53432a03a1f90b3e7253015eaf9 = private unnamed_addr constant [4 x i8] c"None", align 1
@vtable.q = private unnamed_addr constant <{ [24 x i8], ptr }> <{ [24 x i8] c"\00\00\00\00\00\00\00\00\08\00\00\00\00\00\00\00\08\00\00\00\00\00\00\00", ptr @_RNvXs1g_NtCsjMrxcFdYDNN_4core3fmtRNtNtNtCsbHDlgkaPqr9_10serde_yaml7libyaml3tag3TagNtB6_5Debug3fmtBC_ }>, align 8
@alloc_9535bf4c204f3eb9b19ec2c83e446e52 = private unnamed_addr constant [4 x i8] c"Some", align 1
@vtable.r = private unnamed_addr constant <{ [24 x i8], ptr }> <{ [24 x i8] c"\00\00\00\00\00\00\00\00\08\00\00\00\00\00\00\00\08\00\00\00\00\00\00\00", ptr @_RNvXs1g_NtCsjMrxcFdYDNN_4core3fmtRNtNtNtCsbHDlgkaPqr9_10serde_yaml7libyaml3tag3TagNtB6_5Debug3fmtBC_ }>, align 8
@vtable.s = private unnamed_addr constant <{ [24 x i8], ptr }> <{ [24 x i8] c"\00\00\00\00\00\00\00\00\08\00\00\00\00\00\00\00\08\00\00\00\00\00\00\00", ptr @_RNvXs1g_NtCsjMrxcFdYDNN_4core3fmtRRhNtB6_5Debug3fmtCsbHDlgkaPqr9_10serde_yaml }>, align 8
@alloc_f4997664f0d36b10db709aef0b934e49 = private unnamed_addr constant [16 x i8] c"\0D at position \C0\00", align 1
@alloc_7f5ef2f6119ef4c57f82f4b0a198a927 = private unnamed_addr constant [5 x i8] c"\02, \C0\00", align 1
@alloc_7a3f29e7e30155b2c7808828a7b3802f = private unnamed_addr constant [6 x i8] c"Scalar", align 1
@vtable.t = private unnamed_addr constant <{ ptr, [16 x i8], ptr }> <{ ptr @_RINvNtCsjMrxcFdYDNN_4core3ptr13drop_in_placeINtNtB4_6option6OptionNtNtNtCsbHDlgkaPqr9_10serde_yaml7libyaml3tag3TagEEB18_, [16 x i8] c"\10\00\00\00\00\00\00\00\08\00\00\00\00\00\00\00", ptr @_RNvXsR_NtCsjMrxcFdYDNN_4core6optionINtB5_6OptionNtNtNtCsbHDlgkaPqr9_10serde_yaml7libyaml6parser6AnchorENtNtB7_3fmt5Debug3fmtBQ_ }>, align 8
@alloc_19f8ec87950d3b1a1c31e3e5c3671acd = private unnamed_addr constant [6 x i8] c"anchor", align 1
@vtable.u = private unnamed_addr constant <{ ptr, [16 x i8], ptr }> <{ ptr @_RINvNtCsjMrxcFdYDNN_4core3ptr13drop_in_placeINtNtB4_6option6OptionNtNtNtCsbHDlgkaPqr9_10serde_yaml7libyaml3tag3TagEEB18_, [16 x i8] c"\10\00\00\00\00\00\00\00\08\00\00\00\00\00\00\00", ptr @_RNvXsR_NtCsjMrxcFdYDNN_4core6optionINtB5_6OptionNtNtNtCsbHDlgkaPqr9_10serde_yaml7libyaml3tag3TagENtNtB7_3fmt5Debug3fmtBQ_ }>, align 8
@vtable.v = private unnamed_addr constant <{ [24 x i8], ptr }> <{ [24 x i8] c"\00\00\00\00\00\00\00\00\10\00\00\00\00\00\00\00\08\00\00\00\00\00\00\00", ptr @_RNvXNvXs_NtNtCsbHDlgkaPqr9_10serde_yaml7libyaml6parserNtB7_6ScalarNtNtCsjMrxcFdYDNN_4core3fmt5Debug3fmtNtB2_10LossySliceB12_3fmt }>, align 8
@vtable.w = private unnamed_addr constant <{ [24 x i8], ptr }> <{ [24 x i8] c"\00\00\00\00\00\00\00\00\01\00\00\00\00\00\00\00\01\00\00\00\00\00\00\00", ptr @_RNvXsg_NtNtCsbHDlgkaPqr9_10serde_yaml7libyaml6parserNtB5_11ScalarStyleNtNtCsjMrxcFdYDNN_4core3fmt5Debug3fmt }>, align 8
@alloc_21a5f04001fa58a0194273413a976dbd = private unnamed_addr constant [5 x i8] c"style", align 1
@alloc_7ef6fe6e5749e409bd35c794f395407d = private unnamed_addr constant [200 x i8] c"00010203040506070809101112131415161718192021222324252627282930313233343536373839404142434445464748495051525354555657585960616263646566676869707172737475767778798081828384858687888990919293949596979899", align 1
@alloc_ab2aba7abc0ab06d95955f5994c7f640 = private unnamed_addr constant [17 x i8] c"a YAML tag string", align 1
@alloc_e8546246acd97b93b20f8589ec2b2dbe = private unnamed_addr constant [5 x i8] c"Plain", align 1
@alloc_241c4b83f88d634be1f90a5cc81f7e30 = private unnamed_addr constant [12 x i8] c"SingleQuoted", align 1
@alloc_3e50bf43e6d4624d1a2d87df5c001715 = private unnamed_addr constant [12 x i8] c"DoubleQuoted", align 1
@alloc_33ac9531a9c2c24dc222b4b41e31ecf8 = private unnamed_addr constant [7 x i8] c"Literal", align 1
@alloc_54acb04fd27d1da08fb67c8e027b2997 = private unnamed_addr constant [6 x i8] c"Folded", align 1
@alloc_7502955c4237b94f8c160f1700717275 = private unnamed_addr constant [16 x i8] c"duplicate entry ", align 1
@alloc_109c79f86236e31ddfaa4c98e1752c77 = private unnamed_addr constant <{ ptr, [16 x i8] }> <{ ptr @alloc_7f334cf8a7442b5587a32836a5159e46, [16 x i8] c"m\00\00\00\00\00\00\00\B1\00\00\00\16\00\00\00" }>, align 8
@alloc_50f289a0323d51aba0a4b4a441c999a1 = private unnamed_addr constant [13 x i8] c"with null key", align 1
@alloc_ca4f38f6e276fef3571289a0d231ce87 = private unnamed_addr constant [15 x i8] c"\0Awith key `\C0\01`\00", align 1
@alloc_ebc0d9847158160f1459dbe72fd8348e = private unnamed_addr constant [12 x i8] c"\09with key \C0\00", align 1
@alloc_528cdc1a40f011c928fd747f015e21ce = private unnamed_addr constant [11 x i8] c"in YAML map", align 1
@alloc_74ba04968dbb54708bdec56490e550ab = private unnamed_addr constant [30 x i8] c"\0Einvalid type: \C0\0B, expected \C0\00", align 1
@alloc_8ba0b158282f9a35404692a944b4de66 = private unnamed_addr constant [31 x i8] c"\0Finvalid value: \C0\0B, expected \C0\00", align 1
@alloc_4b97381eef8aec9f40bfb565c67b7a3f = private unnamed_addr constant [31 x i8] c"\0Finvalid length \C0\0B, expected \C0\00", align 1
@switch.table._RNvMNtNtCsbHDlgkaPqr9_10serde_yaml7libyaml7emitterNtB2_7Emitter4emit = private unnamed_addr constant [4 x i32] [i32 0, i32 1, i32 2, i32 4], align 4
@switch.table._RNvXsg_NtNtCsbHDlgkaPqr9_10serde_yaml7libyaml6parserNtB5_11ScalarStyleNtNtCsjMrxcFdYDNN_4core3fmt5Debug3fmt = private unnamed_addr constant [5 x i64] [i64 5, i64 12, i64 12, i64 7, i64 6], align 8
@switch.table._RNvXsg_NtNtCsbHDlgkaPqr9_10serde_yaml7libyaml6parserNtB5_11ScalarStyleNtNtCsjMrxcFdYDNN_4core3fmt5Debug3fmt.398 = private unnamed_addr constant [5 x ptr] [ptr @alloc_e8546246acd97b93b20f8589ec2b2dbe, ptr @alloc_241c4b83f88d634be1f90a5cc81f7e30, ptr @alloc_3e50bf43e6d4624d1a2d87df5c001715, ptr @alloc_33ac9531a9c2c24dc222b4b41e31ecf8, ptr @alloc_54acb04fd27d1da08fb67c8e027b2997], align 8

@_RNvXsj_NtNtCsbHDlgkaPqr9_10serde_yaml5value10partial_eqQNtB7_5ValueINtNtCsjMrxcFdYDNN_4core3cmp9PartialEqhE2eq = unnamed_addr alias i1 (ptr, ptr), ptr @_RNvXsi_NtNtCsbHDlgkaPqr9_10serde_yaml5value10partial_eqRNtB7_5ValueINtNtCsjMrxcFdYDNN_4core3cmp9PartialEqhE2eq
@_RNvXsm_NtNtCsbHDlgkaPqr9_10serde_yaml5value10partial_eqQNtB7_5ValueINtNtCsjMrxcFdYDNN_4core3cmp9PartialEqtE2eq = unnamed_addr alias i1 (ptr, ptr), ptr @_RNvXsl_NtNtCsbHDlgkaPqr9_10serde_yaml5value10partial_eqRNtB7_5ValueINtNtCsjMrxcFdYDNN_4core3cmp9PartialEqtE2eq
@_RNvXsp_NtNtCsbHDlgkaPqr9_10serde_yaml5value10partial_eqQNtB7_5ValueINtNtCsjMrxcFdYDNN_4core3cmp9PartialEqmE2eq = unnamed_addr alias i1 (ptr, ptr), ptr @_RNvXso_NtNtCsbHDlgkaPqr9_10serde_yaml5value10partial_eqRNtB7_5ValueINtNtCsjMrxcFdYDNN_4core3cmp9PartialEqmE2eq
@_RNvXs1_NtCsbHDlgkaPqr9_10serde_yaml5errorNtB5_5ErrorINtNtCsjMrxcFdYDNN_4core7convert4FromNtNtNtB7_7libyaml5error5ErrorE4from = unnamed_addr alias ptr (ptr), ptr @_RNvNtCsbHDlgkaPqr9_10serde_yaml5error3new
@_RNvXs_NtNtCsbHDlgkaPqr9_10serde_yaml5value3serNtB4_10SerializerNtNtCsasqbmkB9jT1_10serde_core3ser10Serializer13serialize_seq = unnamed_addr alias void (ptr, i64, i64), ptr @_RNvXNvXs4_NtNtCsbHDlgkaPqr9_10serde_yaml5value3serNtB8_12SerializeMapNtNtCsasqbmkB9jT1_10serde_core3ser12SerializeMap15serialize_entryNtB2_11CheckForTagNtB17_10Serializer13serialize_seq
@_RNvXsy_NtNtCsbHDlgkaPqr9_10serde_yaml5value10partial_eqQNtB7_5ValueINtNtCsjMrxcFdYDNN_4core3cmp9PartialEqfE2eq = unnamed_addr alias i1 (ptr, ptr), ptr @_RNvXsx_NtNtCsbHDlgkaPqr9_10serde_yaml5value10partial_eqRNtB7_5ValueINtNtCsjMrxcFdYDNN_4core3cmp9PartialEqfE2eq
@_RNvMNtCsbHDlgkaPqr9_10serde_yaml7mappingNtB2_7Mapping9into_keys = unnamed_addr alias void (ptr, ptr), ptr @_RNvMNtCsbHDlgkaPqr9_10serde_yaml7mappingNtB2_7Mapping11into_values
@_RNvXsd_NtNtCsbHDlgkaPqr9_10serde_yaml5value10partial_eqQNtB7_5ValueINtNtCsjMrxcFdYDNN_4core3cmp9PartialEqxE2eq = unnamed_addr alias i1 (ptr, ptr), ptr @_RNvXsc_NtNtCsbHDlgkaPqr9_10serde_yaml5value10partial_eqRNtB7_5ValueINtNtCsjMrxcFdYDNN_4core3cmp9PartialEqxE2eq
@_RNvXsf_NtNtCsbHDlgkaPqr9_10serde_yaml5value10partial_eqRNtB7_5ValueINtNtCsjMrxcFdYDNN_4core3cmp9PartialEqiE2eq = unnamed_addr alias i1 (ptr, ptr), ptr @_RNvXsc_NtNtCsbHDlgkaPqr9_10serde_yaml5value10partial_eqRNtB7_5ValueINtNtCsjMrxcFdYDNN_4core3cmp9PartialEqxE2eq
@_RNvXsg_NtNtCsbHDlgkaPqr9_10serde_yaml5value10partial_eqQNtB7_5ValueINtNtCsjMrxcFdYDNN_4core3cmp9PartialEqiE2eq = unnamed_addr alias i1 (ptr, ptr), ptr @_RNvXsc_NtNtCsbHDlgkaPqr9_10serde_yaml5value10partial_eqRNtB7_5ValueINtNtCsjMrxcFdYDNN_4core3cmp9PartialEqxE2eq
@_RNvXs2_NtNtCsbHDlgkaPqr9_10serde_yaml7libyaml3tagNtB5_3TagNtNtCsjMrxcFdYDNN_4core3fmt5Debug3fmt = unnamed_addr alias i1 (ptr, ptr), ptr @_RNvXs0_NtNtCsbHDlgkaPqr9_10serde_yaml7libyaml6parserNtB5_6AnchorNtNtCsjMrxcFdYDNN_4core3fmt5Debug3fmt
@_RNvXss_NtNtCsbHDlgkaPqr9_10serde_yaml5value10partial_eqQNtB7_5ValueINtNtCsjMrxcFdYDNN_4core3cmp9PartialEqyE2eq = unnamed_addr alias i1 (ptr, ptr), ptr @_RNvXsr_NtNtCsbHDlgkaPqr9_10serde_yaml5value10partial_eqRNtB7_5ValueINtNtCsjMrxcFdYDNN_4core3cmp9PartialEqyE2eq
@_RNvXsu_NtNtCsbHDlgkaPqr9_10serde_yaml5value10partial_eqRNtB7_5ValueINtNtCsjMrxcFdYDNN_4core3cmp9PartialEqjE2eq = unnamed_addr alias i1 (ptr, ptr), ptr @_RNvXsr_NtNtCsbHDlgkaPqr9_10serde_yaml5value10partial_eqRNtB7_5ValueINtNtCsjMrxcFdYDNN_4core3cmp9PartialEqyE2eq
@_RNvXsv_NtNtCsbHDlgkaPqr9_10serde_yaml5value10partial_eqQNtB7_5ValueINtNtCsjMrxcFdYDNN_4core3cmp9PartialEqjE2eq = unnamed_addr alias i1 (ptr, ptr), ptr @_RNvXsr_NtNtCsbHDlgkaPqr9_10serde_yaml5value10partial_eqRNtB7_5ValueINtNtCsjMrxcFdYDNN_4core3cmp9PartialEqyE2eq
@_RNvXst_NtNtCsbHDlgkaPqr9_10serde_yaml5value10partial_eqNtB7_5ValueINtNtCsjMrxcFdYDNN_4core3cmp9PartialEqjE2eq = unnamed_addr alias i1 (ptr, ptr), ptr @_RNvXsq_NtNtCsbHDlgkaPqr9_10serde_yaml5value10partial_eqNtB7_5ValueINtNtCsjMrxcFdYDNN_4core3cmp9PartialEqyE2eq
@_RNvXs_NtNtCsbHDlgkaPqr9_10serde_yaml5value3serNtB4_10SerializerNtNtCsasqbmkB9jT1_10serde_core3ser10Serializer14serialize_char = unnamed_addr alias void (ptr, i32), ptr @_RNvXNvXs4_NtNtCsbHDlgkaPqr9_10serde_yaml5value3serNtB8_12SerializeMapNtNtCsasqbmkB9jT1_10serde_core3ser12SerializeMap15serialize_entryNtB2_11CheckForTagNtB17_10Serializer14serialize_char
@_RNvXse_NtNtCsbHDlgkaPqr9_10serde_yaml5value10partial_eqNtB7_5ValueINtNtCsjMrxcFdYDNN_4core3cmp9PartialEqiE2eq = unnamed_addr alias i1 (ptr, ptr), ptr @_RNvXsb_NtNtCsbHDlgkaPqr9_10serde_yaml5value10partial_eqNtB7_5ValueINtNtCsjMrxcFdYDNN_4core3cmp9PartialEqxE2eq
@_RNvXs4_NtNtCsbHDlgkaPqr9_10serde_yaml5value10partial_eqQNtB7_5ValueINtNtCsjMrxcFdYDNN_4core3cmp9PartialEqaE2eq = unnamed_addr alias i1 (ptr, ptr), ptr @_RNvXs3_NtNtCsbHDlgkaPqr9_10serde_yaml5value10partial_eqRNtB7_5ValueINtNtCsjMrxcFdYDNN_4core3cmp9PartialEqaE2eq
@_RNvXs7_NtNtCsbHDlgkaPqr9_10serde_yaml5value10partial_eqQNtB7_5ValueINtNtCsjMrxcFdYDNN_4core3cmp9PartialEqsE2eq = unnamed_addr alias i1 (ptr, ptr), ptr @_RNvXs6_NtNtCsbHDlgkaPqr9_10serde_yaml5value10partial_eqRNtB7_5ValueINtNtCsjMrxcFdYDNN_4core3cmp9PartialEqsE2eq
@_RNvXsa_NtNtCsbHDlgkaPqr9_10serde_yaml5value10partial_eqQNtB7_5ValueINtNtCsjMrxcFdYDNN_4core3cmp9PartialEqlE2eq = unnamed_addr alias i1 (ptr, ptr), ptr @_RNvXs9_NtNtCsbHDlgkaPqr9_10serde_yaml5value10partial_eqRNtB7_5ValueINtNtCsjMrxcFdYDNN_4core3cmp9PartialEqlE2eq
@_RNvXsB_NtNtCsbHDlgkaPqr9_10serde_yaml5value10partial_eqQNtB7_5ValueINtNtCsjMrxcFdYDNN_4core3cmp9PartialEqdE2eq = unnamed_addr alias i1 (ptr, ptr), ptr @_RNvXsA_NtNtCsbHDlgkaPqr9_10serde_yaml5value10partial_eqRNtB7_5ValueINtNtCsjMrxcFdYDNN_4core3cmp9PartialEqdE2eq

; <indexmap::map::IndexMap<serde_yaml::value::Value, serde_yaml::value::Value>>::get_index_of::<serde_yaml::value::Value>
; Function Attrs: uwtable
define internal fastcc { i64, i64 } @_RINvMs3_NtCsfSG22zIyQn9_8indexmap3mapINtB6_8IndexMapNtNtCsbHDlgkaPqr9_10serde_yaml5value5ValueBO_E12get_index_ofBO_EBS_(ptr noalias noundef nonnull readonly align 8 captures(none) dereferenceable(72) %self, ptr noalias noundef nonnull readonly align 8 captures(none) dereferenceable(72) %key) unnamed_addr #0 personality ptr @rust_eh_personality {
start:
  %0 = getelementptr inbounds nuw i8, ptr %self, i64 16
  %_10 = load i64, ptr %0, align 8, !noundef !2
  switch i64 %_10, label %bb1 [
    i64 0, label %bb7
    i64 1, label %bb3
  ]

bb7:                                              ; preds = %bb9.i.i.i, %bb4.i, %bb3, %start
  %_0.sroa.5.0 = phi i64 [ undef, %start ], [ 0, %bb3 ], [ %_19.i, %bb4.i ], [ undef, %bb9.i.i.i ]
  %_0.sroa.0.0 = phi i64 [ %_10, %start ], [ %.1, %bb3 ], [ 1, %bb4.i ], [ 0, %bb9.i.i.i ]
  %1 = insertvalue { i64, i64 } poison, i64 %_0.sroa.0.0, 0
  %2 = insertvalue { i64, i64 } %1, i64 %_0.sroa.5.0, 1
  ret { i64, i64 } %2

bb3:                                              ; preds = %start
  %3 = getelementptr inbounds nuw i8, ptr %self, i64 8
  %_11 = load ptr, ptr %3, align 8, !nonnull !2, !noundef !2
; call <serde_yaml::value::Value as core::cmp::PartialEq>::eq
  %_0.i = tail call fastcc noundef zeroext i1 @_RNvXs5_NtCsbHDlgkaPqr9_10serde_yaml5valueNtB5_5ValueNtNtCsjMrxcFdYDNN_4core3cmp9PartialEq2eq(ptr noalias noundef nonnull readonly align 8 captures(address, read_provenance) dereferenceable(72) %key, ptr noalias noundef nonnull readonly align 8 captures(address, read_provenance) dereferenceable(72) %_11) #41
  %.1 = zext i1 %_0.i to i64
  br label %bb7

bb1:                                              ; preds = %start
  %_13 = getelementptr inbounds nuw i8, ptr %self, i64 56
  %_13.val = load i64, ptr %_13, align 8, !noundef !2
  %4 = getelementptr inbounds nuw i8, ptr %self, i64 64
  %_13.val2 = load i64, ptr %4, align 8, !noundef !2
; call <std::hash::random::RandomState as core::hash::BuildHasher>::hash_one::<&serde_yaml::value::Value>
  %_12 = tail call fastcc noundef i64 @_RINvYNtNtNtCs5sEH5CPMdak_3std4hash6random11RandomStateNtNtCsjMrxcFdYDNN_4core4hash11BuildHasher8hash_oneRNtNtCsbHDlgkaPqr9_10serde_yaml5value5ValueEB1J_(i64 %_13.val, i64 %_13.val2, ptr noalias noundef readonly align 8 captures(address, read_provenance) dereferenceable(72) %key)
  tail call void @llvm.experimental.noalias.scope.decl(metadata !3)
  %5 = getelementptr inbounds nuw i8, ptr %self, i64 8
  %_11.i = load ptr, ptr %5, align 8, !alias.scope !3, !noalias !6, !nonnull !2, !noundef !2
  %_12.i = getelementptr inbounds nuw i8, ptr %self, i64 24
  tail call void @llvm.experimental.noalias.scope.decl(metadata !8)
  %_17.i.i.i = lshr i64 %_12, 57
  %_18.i.i.i = trunc nuw nsw i64 %_17.i.i.i to i8
  %6 = getelementptr inbounds nuw i8, ptr %self, i64 32
  %_22.i.i.i = load i64, ptr %6, align 8, !alias.scope !11, !noalias !14, !noundef !2
  %_25.i.i.i = load ptr, ptr %_12.i, align 8, !alias.scope !11, !noalias !14, !nonnull !2, !noundef !2
  %7 = insertelement <1 x i8> poison, i8 %_18.i.i.i, i64 0
  %8 = shufflevector <1 x i8> %7, <1 x i8> poison, <8 x i32> zeroinitializer
  %invariant.gep.i = getelementptr i8, ptr %_25.i.i.i, i64 -8
  br label %bb1.i.i.i

bb1.i.i.i:                                        ; preds = %bb16.i.i.i, %bb1
  %probe_seq1.sroa.0.0.i.i.i = phi i64 [ 0, %bb1 ], [ %18, %bb16.i.i.i ]
  %hash.pn.i = phi i64 [ %_12, %bb1 ], [ %19, %bb16.i.i.i ]
  %probe_seq.sroa.0.0.i.i.i = and i64 %hash.pn.i, %_22.i.i.i
  %_23.i.i.i = getelementptr inbounds nuw i8, ptr %_25.i.i.i, i64 %probe_seq.sroa.0.0.i.i.i
  %tmp.sroa.0.0.copyload.i.i.i.i = load <8 x i8>, ptr %_23.i.i.i, align 1, !noalias !17
  %9 = icmp eq <8 x i8> %tmp.sroa.0.0.copyload.i.i.i.i, %8
  %10 = sext <8 x i1> %9 to <8 x i8>
  %11 = bitcast <8 x i8> %10 to i64
  %12 = and i64 %11, -9187201950435737472
  %.not.i.i.not13.i = icmp eq i64 %12, 0
  br i1 %.not.i.i.not13.i, label %bb9.i.i.i, label %bb8.i.i.i

bb8.i.i.i:                                        ; preds = %bb1.i.i.i, %bb13.i.i.i
  %iter.sroa.0.0.i.i14.i = phi i64 [ %_38.i.i.i, %bb13.i.i.i ], [ %12, %bb1.i.i.i ]
  %13 = tail call range(i64 1, 65) i64 @llvm.cttz.i64(i64 %iter.sroa.0.0.i.i14.i, i1 true)
  %_349.i.i.i = lshr i64 %13, 3
  %_10.i.i.i = add i64 %_349.i.i.i, %probe_seq.sroa.0.0.i.i.i
  %index.i.i.i = and i64 %_10.i.i.i, %_22.i.i.i
  %_11.i.i.i = sub nsw i64 0, %index.i.i.i
  %gep.i = getelementptr i64, ptr %invariant.gep.i, i64 %_11.i.i.i
  tail call void @llvm.experimental.noalias.scope.decl(metadata !22)
  %i.i.i = load i64, ptr %gep.i, align 8, !alias.scope !22, !noalias !25, !noundef !2
  %_6.i.i = icmp ult i64 %i.i.i, %_10
  br i1 %_6.i.i, label %_RNCINvNtNtCsfSG22zIyQn9_8indexmap3map4core10equivalentNtNtCsbHDlgkaPqr9_10serde_yaml5value5ValueBQ_BQ_E0BU_.exit.i, label %panic.i.i

panic.i.i:                                        ; preds = %bb8.i.i.i
; call core::panicking::panic_bounds_check
  tail call void @_RNvNtCsjMrxcFdYDNN_4core9panicking18panic_bounds_check(i64 noundef %i.i.i, i64 noundef %_10, ptr noalias noundef readonly align 8 captures(address, read_provenance) dereferenceable(24) @alloc_9f8525899d72254738d4324b7a87b3ce) #42, !noalias !29
  unreachable

_RNCINvNtNtCsfSG22zIyQn9_8indexmap3map4core10equivalentNtNtCsbHDlgkaPqr9_10serde_yaml5value5ValueBQ_BQ_E0BU_.exit.i: ; preds = %bb8.i.i.i
  %_4.i.i = getelementptr inbounds nuw %"indexmap::Bucket<value::Value, value::Value>", ptr %_11.i, i64 %i.i.i
; call <serde_yaml::value::Value as core::cmp::PartialEq>::eq
  %_0.i.i1.i = tail call fastcc noundef zeroext i1 @_RNvXs5_NtCsbHDlgkaPqr9_10serde_yaml5valueNtB5_5ValueNtNtCsjMrxcFdYDNN_4core3cmp9PartialEq2eq(ptr noalias noundef nonnull readonly align 8 captures(address, read_provenance) dereferenceable(72) %key, ptr noalias noundef readonly align 8 captures(address, read_provenance) dereferenceable(72) %_4.i.i) #41, !noalias !30
  br i1 %_0.i.i1.i, label %bb4.i, label %bb13.i.i.i, !prof !31

bb9.i.i.i:                                        ; preds = %bb13.i.i.i, %bb1.i.i.i
  %14 = icmp eq <8 x i8> %tmp.sroa.0.0.copyload.i.i.i.i, splat (i8 -1)
  %15 = bitcast <8 x i1> %14 to i8
  %16 = icmp eq i8 %15, 0
  br i1 %16, label %bb16.i.i.i, label %bb7, !prof !32

bb13.i.i.i:                                       ; preds = %_RNCINvNtNtCsfSG22zIyQn9_8indexmap3map4core10equivalentNtNtCsbHDlgkaPqr9_10serde_yaml5value5ValueBQ_BQ_E0BU_.exit.i
  %17 = add i64 %iter.sroa.0.0.i.i14.i, -1
  %_38.i.i.i = and i64 %17, %iter.sroa.0.0.i.i14.i
  %.not.i.i.not.i = icmp eq i64 %_38.i.i.i, 0
  br i1 %.not.i.i.not.i, label %bb9.i.i.i, label %bb8.i.i.i

bb16.i.i.i:                                       ; preds = %bb9.i.i.i
  %18 = add i64 %probe_seq1.sroa.0.0.i.i.i, 8
  %19 = add i64 %probe_seq.sroa.0.0.i.i.i, %18
  br label %bb1.i.i.i

bb4.i:                                            ; preds = %_RNCINvNtNtCsfSG22zIyQn9_8indexmap3map4core10equivalentNtNtCsbHDlgkaPqr9_10serde_yaml5value5ValueBQ_BQ_E0BU_.exit.i
  %20 = getelementptr inbounds i64, ptr %_25.i.i.i, i64 %_11.i.i.i
  %_16.i = getelementptr inbounds i8, ptr %20, i64 -8
  %_19.i = load i64, ptr %_16.i, align 8, !noalias !33, !noundef !2
  br label %bb7
}

; <indexmap::map::IndexMap<serde_yaml::value::Value, serde_yaml::value::Value>>::get_index_of::<serde_yaml::mapping::HashLikeValue>
; Function Attrs: uwtable
define internal fastcc { i64, i64 } @_RINvMs3_NtCsfSG22zIyQn9_8indexmap3mapINtB6_8IndexMapNtNtCsbHDlgkaPqr9_10serde_yaml5value5ValueBO_E12get_index_ofNtNtBS_7mapping13HashLikeValueEBS_(ptr noalias noundef nonnull readonly align 8 captures(none) dereferenceable(72) %self, ptr noalias noundef nonnull readonly align 8 captures(none) dereferenceable(16) %key) unnamed_addr #0 personality ptr @rust_eh_personality {
start:
  %0 = getelementptr inbounds nuw i8, ptr %self, i64 16
  %_10 = load i64, ptr %0, align 8, !noundef !2
  switch i64 %_10, label %bb1 [
    i64 0, label %bb7
    i64 1, label %bb3
  ]

bb7:                                              ; preds = %bb9.i.i.i, %_RNCINvMs6_NtCs2iGD339VwsL_9hashbrown3rawINtB8_8RawTablejE4findNCINvNtNtCsfSG22zIyQn9_8indexmap3map4core10equivalentNtNtCsbHDlgkaPqr9_10serde_yaml5value5ValueB1P_NtNtB1T_7mapping13HashLikeValueE0E0B1T_.exit.i.i, %_RNvXs_NtCsbHDlgkaPqr9_10serde_yaml7mappingNtB4_13HashLikeValueINtCszqFBBEm2l1_10equivalent10EquivalentNtNtB6_5value5ValueE10equivalent.exit, %bb2.i, %bb3, %start
  %_0.sroa.5.0 = phi i64 [ undef, %start ], [ 0, %bb3 ], [ 0, %bb2.i ], [ 0, %_RNvXs_NtCsbHDlgkaPqr9_10serde_yaml7mappingNtB4_13HashLikeValueINtCszqFBBEm2l1_10equivalent10EquivalentNtNtB6_5value5ValueE10equivalent.exit ], [ %.val.i.i.i, %_RNCINvMs6_NtCs2iGD339VwsL_9hashbrown3rawINtB8_8RawTablejE4findNCINvNtNtCsfSG22zIyQn9_8indexmap3map4core10equivalentNtNtCsbHDlgkaPqr9_10serde_yaml5value5ValueB1P_NtNtB1T_7mapping13HashLikeValueE0E0B1T_.exit.i.i ], [ undef, %bb9.i.i.i ]
  %_0.sroa.0.0 = phi i64 [ %_10, %start ], [ 0, %bb3 ], [ 0, %bb2.i ], [ %spec.select, %_RNvXs_NtCsbHDlgkaPqr9_10serde_yaml7mappingNtB4_13HashLikeValueINtCszqFBBEm2l1_10equivalent10EquivalentNtNtB6_5value5ValueE10equivalent.exit ], [ 1, %_RNCINvMs6_NtCs2iGD339VwsL_9hashbrown3rawINtB8_8RawTablejE4findNCINvNtNtCsfSG22zIyQn9_8indexmap3map4core10equivalentNtNtCsbHDlgkaPqr9_10serde_yaml5value5ValueB1P_NtNtB1T_7mapping13HashLikeValueE0E0B1T_.exit.i.i ], [ 0, %bb9.i.i.i ]
  %1 = insertvalue { i64, i64 } poison, i64 %_0.sroa.0.0, 0
  %2 = insertvalue { i64, i64 } %1, i64 %_0.sroa.5.0, 1
  ret { i64, i64 } %2

bb3:                                              ; preds = %start
  %3 = getelementptr inbounds nuw i8, ptr %self, i64 8
  %_11 = load ptr, ptr %3, align 8, !nonnull !2, !noundef !2
  tail call void @llvm.experimental.noalias.scope.decl(metadata !34)
  tail call void @llvm.experimental.noalias.scope.decl(metadata !37)
  %4 = load i64, ptr %_11, align 8, !range !39, !alias.scope !37, !noalias !34, !noundef !2
  %5 = icmp ne i64 %4, -9223372036854775803
  tail call void @llvm.assume(i1 %5)
  %6 = icmp eq i64 %4, -9223372036854775805
  br i1 %6, label %bb2.i, label %bb7

bb2.i:                                            ; preds = %bb3
  %7 = getelementptr inbounds nuw i8, ptr %key, i64 8
  %_5.1.i = load i64, ptr %7, align 8, !alias.scope !34, !noalias !37, !noundef !2
  %8 = getelementptr inbounds nuw i8, ptr %_11, i64 24
  %_10.i = load i64, ptr %8, align 8, !alias.scope !37, !noalias !34, !noundef !2
  %_3.not.i.i = icmp eq i64 %_5.1.i, %_10.i
  br i1 %_3.not.i.i, label %_RNvXs_NtCsbHDlgkaPqr9_10serde_yaml7mappingNtB4_13HashLikeValueINtCszqFBBEm2l1_10equivalent10EquivalentNtNtB6_5value5ValueE10equivalent.exit, label %bb7

_RNvXs_NtCsbHDlgkaPqr9_10serde_yaml7mappingNtB4_13HashLikeValueINtCszqFBBEm2l1_10equivalent10EquivalentNtNtB6_5value5ValueE10equivalent.exit: ; preds = %bb2.i
  %9 = getelementptr inbounds nuw i8, ptr %_11, i64 16
  %_11.i = load ptr, ptr %9, align 8, !alias.scope !37, !noalias !34, !nonnull !2, !noundef !2
  %_5.0.i = load ptr, ptr %key, align 8, !alias.scope !34, !noalias !37, !nonnull !2, !align !40, !noundef !2
  %10 = tail call i32 @memcmp(ptr nonnull readonly align 1 %_5.0.i, ptr nonnull readonly align 1 %_11.i, i64 range(i64 0, -9223372036854775808) %_5.1.i), !alias.scope !41, !noalias !45
  %.fr = freeze i32 %10
  %11 = icmp eq i32 %.fr, 0
  %spec.select = zext i1 %11 to i64
  br label %bb7

bb1:                                              ; preds = %start
  %_13 = getelementptr inbounds nuw i8, ptr %self, i64 56
  %_13.val = load i64, ptr %_13, align 8, !noundef !2
  %12 = getelementptr inbounds nuw i8, ptr %self, i64 64
  %_13.val2 = load i64, ptr %12, align 8, !noundef !2
; call <std::hash::random::RandomState as core::hash::BuildHasher>::hash_one::<&serde_yaml::mapping::HashLikeValue>
  %_12 = tail call fastcc noundef i64 @_RINvYNtNtNtCs5sEH5CPMdak_3std4hash6random11RandomStateNtNtCsjMrxcFdYDNN_4core4hash11BuildHasher8hash_oneRNtNtCsbHDlgkaPqr9_10serde_yaml7mapping13HashLikeValueEB1J_(i64 %_13.val, i64 %_13.val2, ptr noalias noundef readonly align 8 captures(address, read_provenance) dereferenceable(16) %key)
  tail call void @llvm.experimental.noalias.scope.decl(metadata !46)
  tail call void @llvm.experimental.noalias.scope.decl(metadata !49)
  %13 = getelementptr inbounds nuw i8, ptr %self, i64 8
  %_11.i3 = load ptr, ptr %13, align 8, !alias.scope !46, !noalias !49, !nonnull !2, !noundef !2
  %_12.i = getelementptr inbounds nuw i8, ptr %self, i64 24
  tail call void @llvm.experimental.noalias.scope.decl(metadata !51)
  tail call void @llvm.experimental.noalias.scope.decl(metadata !54)
  %_17.i.i.i = lshr i64 %_12, 57
  %_18.i.i.i = trunc nuw nsw i64 %_17.i.i.i to i8
  %14 = getelementptr inbounds nuw i8, ptr %self, i64 32
  %_22.i.i.i = load i64, ptr %14, align 8, !alias.scope !57, !noalias !58, !noundef !2
  %_25.i.i.i = load ptr, ptr %_12.i, align 8, !alias.scope !57, !noalias !58, !nonnull !2, !noundef !2
  %15 = insertelement <1 x i8> poison, i8 %_18.i.i.i, i64 0
  %16 = shufflevector <1 x i8> %15, <1 x i8> poison, <8 x i32> zeroinitializer
  %invariant.gep.i.i = getelementptr i8, ptr %_25.i.i.i, i64 -8
  %17 = getelementptr inbounds nuw i8, ptr %key, i64 8
  %_5.1.i.i.i.i.i = load i64, ptr %17, align 8, !alias.scope !49, !noalias !46
  %_5.0.i.i.i.i.i = load ptr, ptr %key, align 8, !alias.scope !49, !noalias !46, !nonnull !2, !align !40
  br label %bb1.i.i.i

bb1.i.i.i:                                        ; preds = %bb16.i.i.i, %bb1
  %probe_seq1.sroa.0.0.i.i.i = phi i64 [ 0, %bb1 ], [ %34, %bb16.i.i.i ]
  %hash.pn.i.i = phi i64 [ %_12, %bb1 ], [ %35, %bb16.i.i.i ]
  %probe_seq.sroa.0.0.i.i.i = and i64 %hash.pn.i.i, %_22.i.i.i
  %_23.i.i.i = getelementptr inbounds nuw i8, ptr %_25.i.i.i, i64 %probe_seq.sroa.0.0.i.i.i
  %tmp.sroa.0.0.copyload.i.i.i.i = load <8 x i8>, ptr %_23.i.i.i, align 1, !noalias !61
  %18 = icmp eq <8 x i8> %tmp.sroa.0.0.copyload.i.i.i.i, %16
  %19 = sext <8 x i1> %18 to <8 x i8>
  %20 = bitcast <8 x i8> %19 to i64
  %21 = and i64 %20, -9187201950435737472
  %.not.i.not16.i.i = icmp eq i64 %21, 0
  br i1 %.not.i.not16.i.i, label %bb9.i.i.i, label %bb8.i.i.i

bb8.i.i.i:                                        ; preds = %bb1.i.i.i, %bb13.i.i.i
  %iter.sroa.0.0.i17.i.i = phi i64 [ %_38.i.i.i, %bb13.i.i.i ], [ %21, %bb1.i.i.i ]
  %22 = tail call range(i64 1, 65) i64 @llvm.cttz.i64(i64 %iter.sroa.0.0.i17.i.i, i1 true)
  %_349.i.i.i = lshr i64 %22, 3
  %_10.i.i.i = add i64 %_349.i.i.i, %probe_seq.sroa.0.0.i.i.i
  %index.i.i.i = and i64 %_10.i.i.i, %_22.i.i.i
  %_11.i.i.i = sub nsw i64 0, %index.i.i.i
  %gep.i.i = getelementptr i64, ptr %invariant.gep.i.i, i64 %_11.i.i.i
  %.val.i.i.i = load i64, ptr %gep.i.i, align 8, !noalias !66, !noundef !2
  %_6.i.i.i.i = icmp ult i64 %.val.i.i.i, %_10
  br i1 %_6.i.i.i.i, label %bb1.i.i.i.i, label %panic.i.i.i.i

bb1.i.i.i.i:                                      ; preds = %bb8.i.i.i
  %_4.i.i.i.i = getelementptr inbounds nuw %"indexmap::Bucket<value::Value, value::Value>", ptr %_11.i3, i64 %.val.i.i.i
  tail call void @llvm.experimental.noalias.scope.decl(metadata !69), !noalias !72
  %23 = load i64, ptr %_4.i.i.i.i, align 8, !range !39, !alias.scope !69, !noalias !73, !noundef !2
  %24 = icmp ne i64 %23, -9223372036854775803
  tail call void @llvm.assume(i1 %24), !noalias !72
  %25 = icmp eq i64 %23, -9223372036854775805
  br i1 %25, label %bb2.i.i.i.i.i, label %bb13.i.i.i, !prof !77

bb2.i.i.i.i.i:                                    ; preds = %bb1.i.i.i.i
  %26 = getelementptr inbounds nuw i8, ptr %_4.i.i.i.i, i64 24
  %_10.i.i.i.i.i = load i64, ptr %26, align 8, !alias.scope !69, !noalias !73, !noundef !2
  %_3.not.i.i.i.i.i.i = icmp eq i64 %_5.1.i.i.i.i.i, %_10.i.i.i.i.i
  br i1 %_3.not.i.i.i.i.i.i, label %_RNCINvMs6_NtCs2iGD339VwsL_9hashbrown3rawINtB8_8RawTablejE4findNCINvNtNtCsfSG22zIyQn9_8indexmap3map4core10equivalentNtNtCsbHDlgkaPqr9_10serde_yaml5value5ValueB1P_NtNtB1T_7mapping13HashLikeValueE0E0B1T_.exit.i.i, label %bb13.i.i.i, !prof !77

panic.i.i.i.i:                                    ; preds = %bb8.i.i.i
; call core::panicking::panic_bounds_check
  tail call void @_RNvNtCsjMrxcFdYDNN_4core9panicking18panic_bounds_check(i64 noundef %.val.i.i.i, i64 noundef %_10, ptr noalias noundef readonly align 8 captures(address, read_provenance) dereferenceable(24) @alloc_9f8525899d72254738d4324b7a87b3ce) #42, !noalias !78
  unreachable

_RNCINvMs6_NtCs2iGD339VwsL_9hashbrown3rawINtB8_8RawTablejE4findNCINvNtNtCsfSG22zIyQn9_8indexmap3map4core10equivalentNtNtCsbHDlgkaPqr9_10serde_yaml5value5ValueB1P_NtNtB1T_7mapping13HashLikeValueE0E0B1T_.exit.i.i: ; preds = %bb2.i.i.i.i.i
  %27 = getelementptr inbounds nuw i8, ptr %_4.i.i.i.i, i64 16
  %_11.i.i.i.i.i = load ptr, ptr %27, align 8, !alias.scope !69, !noalias !73, !nonnull !2, !noundef !2
  %28 = tail call i32 @memcmp(ptr nonnull readonly align 1 %_5.0.i.i.i.i.i, ptr nonnull readonly align 1 %_11.i.i.i.i.i, i64 range(i64 0, -9223372036854775808) %_5.1.i.i.i.i.i), !alias.scope !79, !noalias !83
  %29 = icmp eq i32 %28, 0
  br i1 %29, label %bb7, label %bb13.i.i.i, !prof !84

bb9.i.i.i:                                        ; preds = %bb13.i.i.i, %bb1.i.i.i
  %30 = icmp eq <8 x i8> %tmp.sroa.0.0.copyload.i.i.i.i, splat (i8 -1)
  %31 = bitcast <8 x i1> %30 to i8
  %32 = icmp eq i8 %31, 0
  br i1 %32, label %bb16.i.i.i, label %bb7, !prof !32

bb13.i.i.i:                                       ; preds = %_RNCINvMs6_NtCs2iGD339VwsL_9hashbrown3rawINtB8_8RawTablejE4findNCINvNtNtCsfSG22zIyQn9_8indexmap3map4core10equivalentNtNtCsbHDlgkaPqr9_10serde_yaml5value5ValueB1P_NtNtB1T_7mapping13HashLikeValueE0E0B1T_.exit.i.i, %bb2.i.i.i.i.i, %bb1.i.i.i.i
  %33 = add i64 %iter.sroa.0.0.i17.i.i, -1
  %_38.i.i.i = and i64 %33, %iter.sroa.0.0.i17.i.i
  %.not.i.not.i.i = icmp eq i64 %_38.i.i.i, 0
  br i1 %.not.i.not.i.i, label %bb9.i.i.i, label %bb8.i.i.i

bb16.i.i.i:                                       ; preds = %bb9.i.i.i
  %34 = add i64 %probe_seq1.sroa.0.0.i.i.i, 8
  %35 = add i64 %probe_seq.sroa.0.0.i.i.i, %34
  br label %bb1.i.i.i
}

; <indexmap::map::IndexMap<serde_yaml::value::Value, serde_yaml::value::Value>>::swap_remove_full::<serde_yaml::value::Value>
; Function Attrs: uwtable
define internal fastcc void @_RINvMs3_NtCsfSG22zIyQn9_8indexmap3mapINtB6_8IndexMapNtNtCsbHDlgkaPqr9_10serde_yaml5value5ValueBO_E16swap_remove_fullBO_EBS_(ptr dead_on_unwind noalias noundef nonnull writable writeonly align 8 captures(none) dereferenceable(152) %_0, ptr noalias noundef nonnull align 8 captures(address_is_null) dereferenceable(72) %self, ptr noalias noundef nonnull readonly align 8 captures(none) dereferenceable(72) %key) unnamed_addr #0 personality ptr @rust_eh_personality {
start:
  %_11.i2 = alloca [144 x i8], align 8
  %_8.i.sroa.4.sroa.0 = alloca [64 x i8], align 8
  %_8.i.sroa.4.sroa.2 = alloca [72 x i8], align 8
  %entry.sroa.0.i.sroa.4 = alloca [64 x i8], align 8
  %entry.sroa.0.i.sroa.5 = alloca [72 x i8], align 8
  %0 = getelementptr inbounds nuw i8, ptr %self, i64 16
  %_15 = load i64, ptr %0, align 8, !noundef !2
  switch i64 %_15, label %bb1 [
    i64 1, label %bb4
    i64 0, label %bb3
  ]

bb4:                                              ; preds = %start
  %1 = getelementptr inbounds nuw i8, ptr %self, i64 8
  %_16 = load ptr, ptr %1, align 8, !nonnull !2, !noundef !2
; call <serde_yaml::value::Value as core::cmp::PartialEq>::eq
  %_0.i = tail call fastcc noundef zeroext i1 @_RNvXs5_NtCsbHDlgkaPqr9_10serde_yaml5valueNtB5_5ValueNtNtCsjMrxcFdYDNN_4core3cmp9PartialEq2eq(ptr noalias noundef nonnull readonly align 8 captures(address, read_provenance) dereferenceable(72) %key, ptr noalias noundef nonnull readonly align 8 captures(address, read_provenance) dereferenceable(72) %_16) #41
  br i1 %_0.i, label %bb6.i, label %bb3

bb6.i:                                            ; preds = %bb4
  tail call void @llvm.experimental.noalias.scope.decl(metadata !85)
  store i64 0, ptr %0, align 8, !alias.scope !85, !noalias !88
  %_19.i = load i64, ptr %self, align 8, !range !90, !alias.scope !85, !noalias !88, !noundef !2
  %_12.i = icmp ne i64 %_19.i, 0
  tail call void @llvm.assume(i1 %_12.i)
  call void @llvm.lifetime.start.p0(i64 64, ptr nonnull %entry.sroa.0.i.sroa.4)
  call void @llvm.lifetime.start.p0(i64 72, ptr nonnull %entry.sroa.0.i.sroa.5)
  %entry.sroa.0.i.sroa.0.0.copyload = load i64, ptr %_16, align 8, !noalias !91
  %entry.sroa.0.i.sroa.4.0._16.i.sroa_idx = getelementptr inbounds nuw i8, ptr %_16, i64 8
  call void @llvm.memcpy.p0.p0.i64(ptr noundef nonnull align 8 dereferenceable(64) %entry.sroa.0.i.sroa.4, ptr noundef nonnull align 8 dereferenceable(64) %entry.sroa.0.i.sroa.4.0._16.i.sroa_idx, i64 64, i1 false), !noalias !91
  %entry.sroa.0.i.sroa.5.0._16.i.sroa_idx = getelementptr inbounds nuw i8, ptr %_16, i64 72
  call void @llvm.memcpy.p0.p0.i64(ptr noundef nonnull align 8 dereferenceable(72) %entry.sroa.0.i.sroa.5, ptr noundef nonnull align 8 dereferenceable(72) %entry.sroa.0.i.sroa.5.0._16.i.sroa_idx, i64 72, i1 false), !noalias !91
  %_15.sroa.4.0._16.sroa_idx.i = getelementptr inbounds nuw i8, ptr %_16, i64 144
  %_15.sroa.4.0.copyload.i = load i64, ptr %_15.sroa.4.0._16.sroa_idx.i, align 8, !noalias !91
  %_6.i = getelementptr inbounds nuw i8, ptr %self, i64 24
  tail call void @llvm.experimental.noalias.scope.decl(metadata !92)
  tail call void @llvm.experimental.noalias.scope.decl(metadata !95)
  tail call void @llvm.experimental.noalias.scope.decl(metadata !98)
  %_17.i.i.i.i = lshr i64 %_15.sroa.4.0.copyload.i, 57
  %_18.i.i.i.i = trunc nuw nsw i64 %_17.i.i.i.i to i8
  %2 = getelementptr inbounds nuw i8, ptr %self, i64 32
  %_22.i.i.i.i = load i64, ptr %2, align 8, !alias.scope !101, !noalias !102, !noundef !2
  %_25.i.i.i.i = load ptr, ptr %_6.i, align 8, !alias.scope !101, !noalias !102, !nonnull !2, !noundef !2
  %3 = insertelement <1 x i8> poison, i8 %_18.i.i.i.i, i64 0
  %4 = shufflevector <1 x i8> %3, <1 x i8> poison, <8 x i32> zeroinitializer
  %invariant.gep.i.i.i = getelementptr i8, ptr %_25.i.i.i.i, i64 -8
  br label %bb1.i.i.i.i

bb1.i.i.i.i:                                      ; preds = %bb16.i.i.i.i, %bb6.i
  %probe_seq1.sroa.0.0.i.i.i.i = phi i64 [ 0, %bb6.i ], [ %14, %bb16.i.i.i.i ]
  %hash.pn.i.i.i = phi i64 [ %_15.sroa.4.0.copyload.i, %bb6.i ], [ %15, %bb16.i.i.i.i ]
  %probe_seq.sroa.0.0.i.i.i.i = and i64 %hash.pn.i.i.i, %_22.i.i.i.i
  %_23.i.i.i.i = getelementptr inbounds nuw i8, ptr %_25.i.i.i.i, i64 %probe_seq.sroa.0.0.i.i.i.i
  %tmp.sroa.0.0.copyload.i.i.i.i.i = load <8 x i8>, ptr %_23.i.i.i.i, align 1, !noalias !104
  %5 = icmp eq <8 x i8> %tmp.sroa.0.0.copyload.i.i.i.i.i, %4
  %6 = sext <8 x i1> %5 to <8 x i8>
  %7 = bitcast <8 x i8> %6 to i64
  %8 = and i64 %7, -9187201950435737472
  %.not.i.not10.i.i.i = icmp eq i64 %8, 0
  br i1 %.not.i.not10.i.i.i, label %bb9.i.i.i.i, label %bb8.i.i.i.i

bb8.i.i.i.i:                                      ; preds = %bb1.i.i.i.i, %bb13.i.i.i.i
  %iter.sroa.0.0.i11.i.i.i = phi i64 [ %_38.i.i.i.i, %bb13.i.i.i.i ], [ %8, %bb1.i.i.i.i ]
  %9 = tail call range(i64 1, 65) i64 @llvm.cttz.i64(i64 %iter.sroa.0.0.i11.i.i.i, i1 true)
  %_349.i.i.i.i = lshr i64 %9, 3
  %_10.i.i.i.i = add i64 %_349.i.i.i.i, %probe_seq.sroa.0.0.i.i.i.i
  %index.i.i.i.i = and i64 %_10.i.i.i.i, %_22.i.i.i.i
  %_11.i.i.i.i = sub nsw i64 0, %index.i.i.i.i
  %gep.i.i.i = getelementptr i64, ptr %invariant.gep.i.i.i, i64 %_11.i.i.i.i
  %.val.i.i.i.i = load i64, ptr %gep.i.i.i, align 8, !noalias !109, !noundef !2
  %_0.i.i.i.i.i = icmp eq i64 %.val.i.i.i.i, 0
  br i1 %_0.i.i.i.i.i, label %bb5.i.i, label %bb13.i.i.i.i, !prof !31

bb9.i.i.i.i:                                      ; preds = %bb13.i.i.i.i, %bb1.i.i.i.i
  %10 = icmp eq <8 x i8> %tmp.sroa.0.0.copyload.i.i.i.i.i, splat (i8 -1)
  %11 = bitcast <8 x i1> %10 to i8
  %12 = icmp eq i8 %11, 0
  br i1 %12, label %bb16.i.i.i.i, label %_RNvMs_NtNtCsfSG22zIyQn9_8indexmap3map4coreINtB4_12IndexMapCoreNtNtCsbHDlgkaPqr9_10serde_yaml5value5ValueBY_E3popB12_.exit, !prof !32

bb13.i.i.i.i:                                     ; preds = %bb8.i.i.i.i
  %13 = add i64 %iter.sroa.0.0.i11.i.i.i, -1
  %_38.i.i.i.i = and i64 %13, %iter.sroa.0.0.i11.i.i.i
  %.not.i.not.i.i.i = icmp eq i64 %_38.i.i.i.i, 0
  br i1 %.not.i.not.i.i.i, label %bb9.i.i.i.i, label %bb8.i.i.i.i

bb16.i.i.i.i:                                     ; preds = %bb9.i.i.i.i
  %14 = add i64 %probe_seq1.sroa.0.0.i.i.i.i, 8
  %15 = add i64 %probe_seq.sroa.0.0.i.i.i.i, %14
  br label %bb1.i.i.i.i

bb5.i.i:                                          ; preds = %bb8.i.i.i.i
  tail call void @llvm.experimental.noalias.scope.decl(metadata !112)
  tail call void @llvm.experimental.noalias.scope.decl(metadata !115)
  tail call void @llvm.experimental.noalias.scope.decl(metadata !118)
  %_4.i.i.i.i.i = add nsw i64 %index.i.i.i.i, -8
  %index_before.i.i.i.i.i = and i64 %_4.i.i.i.i.i, %_22.i.i.i.i
  %_15.i.i.i.i.i = getelementptr inbounds nuw i8, ptr %_25.i.i.i.i, i64 %index_before.i.i.i.i.i
  %tmp.sroa.0.0.copyload.i.i.i.i.i.i.i = load <8 x i8>, ptr %_15.i.i.i.i.i, align 1, !noalias !121
  %16 = icmp eq <8 x i8> %tmp.sroa.0.0.copyload.i.i.i.i.i.i.i, splat (i8 -1)
  %17 = sext <8 x i1> %16 to <8 x i8>
  %18 = bitcast <8 x i8> %17 to i64
  %_20.i.i.i.i.i = getelementptr inbounds nuw i8, ptr %_25.i.i.i.i, i64 %index.i.i.i.i
  %tmp.sroa.0.0.copyload.i.i6.i.i.i.i.i = load <8 x i8>, ptr %_20.i.i.i.i.i, align 1, !noalias !126
  %19 = icmp eq <8 x i8> %tmp.sroa.0.0.copyload.i.i6.i.i.i.i.i, splat (i8 -1)
  %20 = sext <8 x i1> %19 to <8 x i8>
  %21 = bitcast <8 x i8> %20 to i64
  %22 = tail call range(i64 0, 65) i64 @llvm.ctlz.i64(i64 %18, i1 false)
  %_133.i.i.i.i.i = lshr i64 %22, 3
  %23 = tail call range(i64 0, 65) i64 @llvm.cttz.i64(i64 %21, i1 false)
  %_144.i.i.i.i.i = lshr i64 %23, 3
  %_12.i.i.i.i.i = add nuw nsw i64 %_144.i.i.i.i.i, %_133.i.i.i.i.i
  %_11.i.i.i.i.i = icmp samesign ugt i64 %_12.i.i.i.i.i, 7
  br i1 %_11.i.i.i.i.i, label %_RNvMs6_NtCs2iGD339VwsL_9hashbrown3rawINtB5_8RawTablejE6removeCsbHDlgkaPqr9_10serde_yaml.exit.i.i, label %bb2.i.i.i.i.i

bb2.i.i.i.i.i:                                    ; preds = %bb5.i.i
  %24 = getelementptr inbounds nuw i8, ptr %self, i64 40
  %25 = load i64, ptr %24, align 8, !alias.scope !131, !noalias !88, !noundef !2
  %26 = add i64 %25, 1
  store i64 %26, ptr %24, align 8, !alias.scope !131, !noalias !88
  br label %_RNvMs6_NtCs2iGD339VwsL_9hashbrown3rawINtB5_8RawTablejE6removeCsbHDlgkaPqr9_10serde_yaml.exit.i.i

_RNvMs6_NtCs2iGD339VwsL_9hashbrown3rawINtB5_8RawTablejE6removeCsbHDlgkaPqr9_10serde_yaml.exit.i.i: ; preds = %bb2.i.i.i.i.i, %bb5.i.i
  %ctrl.sroa.0.0.i.i.i.i.i = phi i8 [ -1, %bb2.i.i.i.i.i ], [ -128, %bb5.i.i ]
  store i8 %ctrl.sroa.0.0.i.i.i.i.i, ptr %_20.i.i.i.i.i, align 1, !noalias !132
  %_38.i.i.i.i.i = getelementptr i8, ptr %_15.i.i.i.i.i, i64 8
  store i8 %ctrl.sroa.0.0.i.i.i.i.i, ptr %_38.i.i.i.i.i, align 1, !noalias !132
  %27 = getelementptr inbounds nuw i8, ptr %self, i64 48
  %28 = load i64, ptr %27, align 8, !alias.scope !131, !noalias !88, !noundef !2
  %29 = add i64 %28, -1
  store i64 %29, ptr %27, align 8, !alias.scope !131, !noalias !88
  br label %_RNvMs_NtNtCsfSG22zIyQn9_8indexmap3map4coreINtB4_12IndexMapCoreNtNtCsbHDlgkaPqr9_10serde_yaml5value5ValueBY_E3popB12_.exit

_RNvMs_NtNtCsfSG22zIyQn9_8indexmap3map4coreINtB4_12IndexMapCoreNtNtCsbHDlgkaPqr9_10serde_yaml5value5ValueBY_E3popB12_.exit: ; preds = %bb9.i.i.i.i, %_RNvMs6_NtCs2iGD339VwsL_9hashbrown3rawINtB5_8RawTablejE6removeCsbHDlgkaPqr9_10serde_yaml.exit.i.i
  call void @llvm.memcpy.p0.p0.i64(ptr noundef nonnull align 8 dereferenceable(64) %_8.i.sroa.4.sroa.0, ptr noundef nonnull align 8 dereferenceable(64) %entry.sroa.0.i.sroa.4, i64 64, i1 false)
  call void @llvm.memcpy.p0.p0.i64(ptr noundef nonnull align 8 dereferenceable(72) %_8.i.sroa.4.sroa.2, ptr noundef nonnull align 8 dereferenceable(72) %entry.sroa.0.i.sroa.5, i64 72, i1 false)
  call void @llvm.lifetime.end.p0(i64 64, ptr nonnull %entry.sroa.0.i.sroa.4)
  call void @llvm.lifetime.end.p0(i64 72, ptr nonnull %entry.sroa.0.i.sroa.5)
  %.not = icmp eq i64 %entry.sroa.0.i.sroa.0.0.copyload, -9223372036854775801
  br i1 %.not, label %bb13, label %bb14

bb3:                                              ; preds = %bb4, %start
  store i64 -9223372036854775801, ptr %_0, align 8
  br label %bb11

bb14:                                             ; preds = %_RNvMs_NtNtCsfSG22zIyQn9_8indexmap3map4coreINtB4_12IndexMapCoreNtNtCsbHDlgkaPqr9_10serde_yaml5value5ValueBY_E3popB12_.exit
  %_10.sroa.0.sroa.4.0._0.sroa_idx = getelementptr inbounds nuw i8, ptr %_0, i64 8
  call void @llvm.memcpy.p0.p0.i64(ptr noundef nonnull align 8 dereferenceable(64) %_10.sroa.0.sroa.4.0._0.sroa_idx, ptr noundef nonnull align 8 dereferenceable(64) %_8.i.sroa.4.sroa.0, i64 64, i1 false)
  %_10.sroa.5.0._0.sroa_idx = getelementptr inbounds nuw i8, ptr %_0, i64 80
  call void @llvm.memcpy.p0.p0.i64(ptr noundef nonnull align 8 dereferenceable(72) %_10.sroa.5.0._0.sroa_idx, ptr noundef nonnull align 8 dereferenceable(72) %_8.i.sroa.4.sroa.2, i64 72, i1 false)
  store i64 %entry.sroa.0.i.sroa.0.0.copyload, ptr %_0, align 8
  %_10.sroa.4.0._0.sroa_idx = getelementptr inbounds nuw i8, ptr %_0, i64 72
  store i64 0, ptr %_10.sroa.4.0._0.sroa_idx, align 8
  br label %bb11

bb13:                                             ; preds = %_RNvMs_NtNtCsfSG22zIyQn9_8indexmap3map4coreINtB4_12IndexMapCoreNtNtCsbHDlgkaPqr9_10serde_yaml5value5ValueBY_E3popB12_.exit
  store i64 -9223372036854775801, ptr %_0, align 8
  br label %bb11

bb11:                                             ; preds = %bb5.i3, %_RNvMs6_NtCs2iGD339VwsL_9hashbrown3rawINtB5_8RawTablejE6removeCsbHDlgkaPqr9_10serde_yaml.exit.i, %bb3, %bb14, %bb13
  ret void

bb1:                                              ; preds = %start
  %_18 = getelementptr inbounds nuw i8, ptr %self, i64 56
  %_18.val = load i64, ptr %_18, align 8, !noundef !2
  %30 = getelementptr inbounds nuw i8, ptr %self, i64 64
  %_18.val1 = load i64, ptr %30, align 8, !noundef !2
; call <std::hash::random::RandomState as core::hash::BuildHasher>::hash_one::<&serde_yaml::value::Value>
  %_17 = tail call fastcc noundef i64 @_RINvYNtNtNtCs5sEH5CPMdak_3std4hash6random11RandomStateNtNtCsjMrxcFdYDNN_4core4hash11BuildHasher8hash_oneRNtNtCsbHDlgkaPqr9_10serde_yaml5value5ValueEB1J_(i64 %_18.val, i64 %_18.val1, ptr noalias noundef readonly align 8 captures(address, read_provenance) dereferenceable(72) %key)
  tail call void @llvm.experimental.noalias.scope.decl(metadata !133)
  tail call void @llvm.experimental.noalias.scope.decl(metadata !136)
  %31 = getelementptr inbounds nuw i8, ptr %self, i64 8
  %_18.i = load ptr, ptr %31, align 8, !alias.scope !136, !noalias !138, !nonnull !2, !noundef !2
  %_7.i = getelementptr inbounds nuw i8, ptr %self, i64 24
  tail call void @llvm.experimental.noalias.scope.decl(metadata !140)
  tail call void @llvm.experimental.noalias.scope.decl(metadata !143)
  %_17.i.i.i = lshr i64 %_17, 57
  %_18.i.i.i = trunc nuw nsw i64 %_17.i.i.i to i8
  %32 = getelementptr inbounds nuw i8, ptr %self, i64 32
  %_22.i.i.i = load i64, ptr %32, align 8, !alias.scope !146, !noalias !147, !noundef !2
  %_25.i.i.i = load ptr, ptr %_7.i, align 8, !alias.scope !146, !noalias !147, !nonnull !2, !noundef !2
  %33 = insertelement <1 x i8> poison, i8 %_18.i.i.i, i64 0
  %34 = shufflevector <1 x i8> %33, <1 x i8> poison, <8 x i32> zeroinitializer
  %invariant.gep.i.i = getelementptr i8, ptr %_25.i.i.i, i64 -8
  br label %bb1.i.i.i

bb1.i.i.i:                                        ; preds = %bb16.i.i.i, %bb1
  %probe_seq1.sroa.0.0.i.i.i = phi i64 [ 0, %bb1 ], [ %44, %bb16.i.i.i ]
  %hash.pn.i.i = phi i64 [ %_17, %bb1 ], [ %45, %bb16.i.i.i ]
  %probe_seq.sroa.0.0.i.i.i = and i64 %hash.pn.i.i, %_22.i.i.i
  %_23.i.i.i = getelementptr inbounds nuw i8, ptr %_25.i.i.i, i64 %probe_seq.sroa.0.0.i.i.i
  %tmp.sroa.0.0.copyload.i.i.i.i = load <8 x i8>, ptr %_23.i.i.i, align 1, !noalias !150
  %35 = icmp eq <8 x i8> %tmp.sroa.0.0.copyload.i.i.i.i, %34
  %36 = sext <8 x i1> %35 to <8 x i8>
  %37 = bitcast <8 x i8> %36 to i64
  %38 = and i64 %37, -9187201950435737472
  %.not.i.not19.i.i = icmp eq i64 %38, 0
  br i1 %.not.i.not19.i.i, label %bb9.i.i.i, label %bb8.i.i.i

bb8.i.i.i:                                        ; preds = %bb1.i.i.i, %bb13.i.i.i
  %iter.sroa.0.0.i20.i.i = phi i64 [ %_38.i.i.i, %bb13.i.i.i ], [ %38, %bb1.i.i.i ]
  %39 = tail call range(i64 1, 65) i64 @llvm.cttz.i64(i64 %iter.sroa.0.0.i20.i.i, i1 true)
  %_349.i.i.i = lshr i64 %39, 3
  %_10.i.i.i = add i64 %_349.i.i.i, %probe_seq.sroa.0.0.i.i.i
  %index.i.i.i = and i64 %_10.i.i.i, %_22.i.i.i
  %_11.i.i.i = sub nsw i64 0, %index.i.i.i
  %gep.i.i = getelementptr i64, ptr %invariant.gep.i.i, i64 %_11.i.i.i
  %.val3.i.i = load i64, ptr %gep.i.i, align 8, !noalias !155, !noundef !2
  %_6.i4.i.i = icmp ult i64 %.val3.i.i, %_15
  br i1 %_6.i4.i.i, label %_RNCINvNtNtCsfSG22zIyQn9_8indexmap3map4core10equivalentNtNtCsbHDlgkaPqr9_10serde_yaml5value5ValueBQ_BQ_E0BU_.exit.i.i, label %panic.i.i.i

panic.i.i.i:                                      ; preds = %bb8.i.i.i
; call core::panicking::panic_bounds_check
  tail call void @_RNvNtCsjMrxcFdYDNN_4core9panicking18panic_bounds_check(i64 noundef %.val3.i.i, i64 noundef %_15, ptr noalias noundef readonly align 8 captures(address, read_provenance) dereferenceable(24) @alloc_9f8525899d72254738d4324b7a87b3ce) #42, !noalias !156
  unreachable

_RNCINvNtNtCsfSG22zIyQn9_8indexmap3map4core10equivalentNtNtCsbHDlgkaPqr9_10serde_yaml5value5ValueBQ_BQ_E0BU_.exit.i.i: ; preds = %bb8.i.i.i
  %_4.i.i.i = getelementptr inbounds nuw %"indexmap::Bucket<value::Value, value::Value>", ptr %_18.i, i64 %.val3.i.i
; call <serde_yaml::value::Value as core::cmp::PartialEq>::eq
  %_0.i.i.i.i = tail call fastcc noundef zeroext i1 @_RNvXs5_NtCsbHDlgkaPqr9_10serde_yaml5valueNtB5_5ValueNtNtCsjMrxcFdYDNN_4core3cmp9PartialEq2eq(ptr noalias noundef nonnull readonly align 8 captures(address, read_provenance) dereferenceable(72) %key, ptr noalias noundef readonly align 8 captures(address, read_provenance) dereferenceable(72) %_4.i.i.i) #41, !noalias !159
  br i1 %_0.i.i.i.i, label %bb6.i4, label %bb13.i.i.i, !prof !31

bb9.i.i.i:                                        ; preds = %bb13.i.i.i, %bb1.i.i.i
  %40 = icmp eq <8 x i8> %tmp.sroa.0.0.copyload.i.i.i.i, splat (i8 -1)
  %41 = bitcast <8 x i1> %40 to i8
  %42 = icmp eq i8 %41, 0
  br i1 %42, label %bb16.i.i.i, label %bb5.i3, !prof !32

bb13.i.i.i:                                       ; preds = %_RNCINvNtNtCsfSG22zIyQn9_8indexmap3map4core10equivalentNtNtCsbHDlgkaPqr9_10serde_yaml5value5ValueBQ_BQ_E0BU_.exit.i.i
  %43 = add i64 %iter.sroa.0.0.i20.i.i, -1
  %_38.i.i.i = and i64 %43, %iter.sroa.0.0.i20.i.i
  %.not.i.not.i.i = icmp eq i64 %_38.i.i.i, 0
  br i1 %.not.i.not.i.i, label %bb9.i.i.i, label %bb8.i.i.i

bb16.i.i.i:                                       ; preds = %bb9.i.i.i
  %44 = add i64 %probe_seq1.sroa.0.0.i.i.i, 8
  %45 = add i64 %probe_seq.sroa.0.0.i.i.i, %44
  br label %bb1.i.i.i

bb6.i4:                                           ; preds = %_RNCINvNtNtCsfSG22zIyQn9_8indexmap3map4core10equivalentNtNtCsbHDlgkaPqr9_10serde_yaml5value5ValueBQ_BQ_E0BU_.exit.i.i
  %46 = getelementptr inbounds i64, ptr %_25.i.i.i, i64 %_11.i.i.i
  tail call void @llvm.experimental.noalias.scope.decl(metadata !160)
  tail call void @llvm.experimental.noalias.scope.decl(metadata !163)
  tail call void @llvm.experimental.noalias.scope.decl(metadata !166)
  %_4.i.i.i.i = add nsw i64 %index.i.i.i, -8
  %index_before.i.i.i.i = and i64 %_4.i.i.i.i, %_22.i.i.i
  %_15.i.i.i.i = getelementptr inbounds nuw i8, ptr %_25.i.i.i, i64 %index_before.i.i.i.i
  %tmp.sroa.0.0.copyload.i.i.i.i.i.i = load <8 x i8>, ptr %_15.i.i.i.i, align 1, !noalias !169
  %47 = icmp eq <8 x i8> %tmp.sroa.0.0.copyload.i.i.i.i.i.i, splat (i8 -1)
  %48 = sext <8 x i1> %47 to <8 x i8>
  %49 = bitcast <8 x i8> %48 to i64
  %_20.i.i.i.i = getelementptr inbounds nuw i8, ptr %_25.i.i.i, i64 %index.i.i.i
  %tmp.sroa.0.0.copyload.i.i6.i.i.i.i = load <8 x i8>, ptr %_20.i.i.i.i, align 1, !noalias !174
  %50 = icmp eq <8 x i8> %tmp.sroa.0.0.copyload.i.i6.i.i.i.i, splat (i8 -1)
  %51 = sext <8 x i1> %50 to <8 x i8>
  %52 = bitcast <8 x i8> %51 to i64
  %53 = tail call range(i64 0, 65) i64 @llvm.ctlz.i64(i64 %49, i1 false)
  %_133.i.i.i.i = lshr i64 %53, 3
  %54 = tail call range(i64 0, 65) i64 @llvm.cttz.i64(i64 %52, i1 false)
  %_144.i.i.i.i = lshr i64 %54, 3
  %_12.i.i.i.i = add nuw nsw i64 %_144.i.i.i.i, %_133.i.i.i.i
  %_11.i.i.i.i5 = icmp samesign ugt i64 %_12.i.i.i.i, 7
  br i1 %_11.i.i.i.i5, label %_RNvMs6_NtCs2iGD339VwsL_9hashbrown3rawINtB5_8RawTablejE6removeCsbHDlgkaPqr9_10serde_yaml.exit.i, label %bb2.i.i.i.i

bb2.i.i.i.i:                                      ; preds = %bb6.i4
  %55 = getelementptr inbounds nuw i8, ptr %self, i64 40
  %56 = load i64, ptr %55, align 8, !alias.scope !179, !noalias !138, !noundef !2
  %57 = add i64 %56, 1
  store i64 %57, ptr %55, align 8, !alias.scope !179, !noalias !138
  br label %_RNvMs6_NtCs2iGD339VwsL_9hashbrown3rawINtB5_8RawTablejE6removeCsbHDlgkaPqr9_10serde_yaml.exit.i

_RNvMs6_NtCs2iGD339VwsL_9hashbrown3rawINtB5_8RawTablejE6removeCsbHDlgkaPqr9_10serde_yaml.exit.i: ; preds = %bb2.i.i.i.i, %bb6.i4
  %ctrl.sroa.0.0.i.i.i.i = phi i8 [ -1, %bb2.i.i.i.i ], [ -128, %bb6.i4 ]
  store i8 %ctrl.sroa.0.0.i.i.i.i, ptr %_20.i.i.i.i, align 1, !noalias !180
  %_38.i.i.i.i6 = getelementptr i8, ptr %_15.i.i.i.i, i64 8
  store i8 %ctrl.sroa.0.0.i.i.i.i, ptr %_38.i.i.i.i6, align 1, !noalias !180
  %58 = getelementptr inbounds nuw i8, ptr %self, i64 48
  %59 = load i64, ptr %58, align 8, !alias.scope !179, !noalias !138, !noundef !2
  %60 = add i64 %59, -1
  store i64 %60, ptr %58, align 8, !alias.scope !179, !noalias !138
  %61 = getelementptr inbounds i8, ptr %46, i64 -8
  %_5.i.i = load i64, ptr %61, align 8, !noalias !181, !noundef !2
  call void @llvm.lifetime.start.p0(i64 144, ptr nonnull %_11.i2), !noalias !182
; call <indexmap::map::core::RefMut<serde_yaml::value::Value, serde_yaml::value::Value>>::swap_remove_finish
  call fastcc void @_RNvMs0_NtNtCsfSG22zIyQn9_8indexmap3map4coreINtB5_6RefMutNtNtCsbHDlgkaPqr9_10serde_yaml5value5ValueBS_E18swap_remove_finishBW_(ptr noalias noundef align 8 captures(none) dereferenceable(144) %_11.i2, ptr nonnull %_7.i, ptr nonnull align 8 dereferenceable(56) %self, i64 noundef %_5.i.i), !noalias !138
  call void @llvm.memcpy.p0.p0.i64(ptr noundef nonnull align 8 dereferenceable(152) %_0, ptr noundef nonnull align 8 dereferenceable(72) %_11.i2, i64 72, i1 false), !noalias !183
  %62 = getelementptr inbounds nuw i8, ptr %_11.i2, i64 72
  %_14.sroa.5.0._0.sroa_idx.i = getelementptr inbounds nuw i8, ptr %_0, i64 80
  call void @llvm.memcpy.p0.p0.i64(ptr noundef nonnull align 8 dereferenceable(72) %_14.sroa.5.0._0.sroa_idx.i, ptr noundef nonnull align 8 dereferenceable(72) %62, i64 72, i1 false), !noalias !183
  call void @llvm.lifetime.end.p0(i64 144, ptr nonnull %_11.i2), !noalias !182
  %_14.sroa.4.0._0.sroa_idx.i = getelementptr inbounds nuw i8, ptr %_0, i64 72
  store i64 %_5.i.i, ptr %_14.sroa.4.0._0.sroa_idx.i, align 8, !alias.scope !133, !noalias !183
  br label %bb11

bb5.i3:                                           ; preds = %bb9.i.i.i
  store i64 -9223372036854775801, ptr %_0, align 8, !alias.scope !133, !noalias !183
  br label %bb11
}

; <indexmap::map::IndexMap<serde_yaml::value::Value, serde_yaml::value::Value>>::swap_remove_full::<serde_yaml::mapping::HashLikeValue>
; Function Attrs: uwtable
define internal fastcc void @_RINvMs3_NtCsfSG22zIyQn9_8indexmap3mapINtB6_8IndexMapNtNtCsbHDlgkaPqr9_10serde_yaml5value5ValueBO_E16swap_remove_fullNtNtBS_7mapping13HashLikeValueEBS_(ptr dead_on_unwind noalias noundef nonnull writable writeonly align 8 captures(none) dereferenceable(152) %_0, ptr noalias noundef nonnull align 8 captures(address_is_null) dereferenceable(72) %self, ptr noalias noundef nonnull readonly align 8 captures(none) dereferenceable(16) %key) unnamed_addr #0 personality ptr @rust_eh_personality {
start:
  %_11.i3 = alloca [144 x i8], align 8
  %_8.i.sroa.4.sroa.0 = alloca [64 x i8], align 8
  %_8.i.sroa.4.sroa.2 = alloca [72 x i8], align 8
  %entry.sroa.0.i.sroa.4 = alloca [64 x i8], align 8
  %entry.sroa.0.i.sroa.5 = alloca [72 x i8], align 8
  %0 = getelementptr inbounds nuw i8, ptr %self, i64 16
  %_15 = load i64, ptr %0, align 8, !noundef !2
  switch i64 %_15, label %bb1 [
    i64 1, label %bb4
    i64 0, label %bb3
  ]

bb4:                                              ; preds = %start
  %1 = getelementptr inbounds nuw i8, ptr %self, i64 8
  %_16 = load ptr, ptr %1, align 8, !nonnull !2, !noundef !2
  tail call void @llvm.experimental.noalias.scope.decl(metadata !184)
  tail call void @llvm.experimental.noalias.scope.decl(metadata !187)
  %2 = load i64, ptr %_16, align 8, !range !39, !alias.scope !187, !noalias !184, !noundef !2
  %3 = icmp ne i64 %2, -9223372036854775803
  tail call void @llvm.assume(i1 %3)
  %4 = icmp eq i64 %2, -9223372036854775805
  br i1 %4, label %bb2.i, label %bb3

bb2.i:                                            ; preds = %bb4
  %5 = getelementptr inbounds nuw i8, ptr %key, i64 8
  %_5.1.i = load i64, ptr %5, align 8, !alias.scope !184, !noalias !187, !noundef !2
  %6 = getelementptr inbounds nuw i8, ptr %_16, i64 24
  %_10.i = load i64, ptr %6, align 8, !alias.scope !187, !noalias !184, !noundef !2
  %_3.not.i.i = icmp eq i64 %_5.1.i, %_10.i
  br i1 %_3.not.i.i, label %_RNvXs_NtCsbHDlgkaPqr9_10serde_yaml7mappingNtB4_13HashLikeValueINtCszqFBBEm2l1_10equivalent10EquivalentNtNtB6_5value5ValueE10equivalent.exit, label %bb3

_RNvXs_NtCsbHDlgkaPqr9_10serde_yaml7mappingNtB4_13HashLikeValueINtCszqFBBEm2l1_10equivalent10EquivalentNtNtB6_5value5ValueE10equivalent.exit: ; preds = %bb2.i
  %7 = getelementptr inbounds nuw i8, ptr %_16, i64 16
  %_11.i = load ptr, ptr %7, align 8, !alias.scope !187, !noalias !184, !nonnull !2, !noundef !2
  %_5.0.i = load ptr, ptr %key, align 8, !alias.scope !184, !noalias !187, !nonnull !2, !align !40, !noundef !2
  %8 = tail call i32 @memcmp(ptr nonnull readonly align 1 %_5.0.i, ptr nonnull readonly align 1 %_11.i, i64 range(i64 0, -9223372036854775808) %_5.1.i), !alias.scope !189, !noalias !193
  %9 = icmp eq i32 %8, 0
  br i1 %9, label %bb6.i, label %bb3

bb6.i:                                            ; preds = %_RNvXs_NtCsbHDlgkaPqr9_10serde_yaml7mappingNtB4_13HashLikeValueINtCszqFBBEm2l1_10equivalent10EquivalentNtNtB6_5value5ValueE10equivalent.exit
  tail call void @llvm.experimental.noalias.scope.decl(metadata !194)
  store i64 0, ptr %0, align 8, !alias.scope !194, !noalias !197
  %_19.i = load i64, ptr %self, align 8, !range !90, !alias.scope !194, !noalias !197, !noundef !2
  %_12.i = icmp ne i64 %_19.i, 0
  tail call void @llvm.assume(i1 %_12.i)
  call void @llvm.lifetime.start.p0(i64 64, ptr nonnull %entry.sroa.0.i.sroa.4)
  call void @llvm.lifetime.start.p0(i64 72, ptr nonnull %entry.sroa.0.i.sroa.5)
  %entry.sroa.0.i.sroa.4.0._16.i.sroa_idx = getelementptr inbounds nuw i8, ptr %_16, i64 8
  call void @llvm.memcpy.p0.p0.i64(ptr noundef nonnull align 8 dereferenceable(64) %entry.sroa.0.i.sroa.4, ptr noundef nonnull align 8 dereferenceable(64) %entry.sroa.0.i.sroa.4.0._16.i.sroa_idx, i64 64, i1 false), !noalias !199
  %entry.sroa.0.i.sroa.5.0._16.i.sroa_idx = getelementptr inbounds nuw i8, ptr %_16, i64 72
  call void @llvm.memcpy.p0.p0.i64(ptr noundef nonnull align 8 dereferenceable(72) %entry.sroa.0.i.sroa.5, ptr noundef nonnull align 8 dereferenceable(72) %entry.sroa.0.i.sroa.5.0._16.i.sroa_idx, i64 72, i1 false), !noalias !199
  %_15.sroa.4.0._16.sroa_idx.i = getelementptr inbounds nuw i8, ptr %_16, i64 144
  %_15.sroa.4.0.copyload.i = load i64, ptr %_15.sroa.4.0._16.sroa_idx.i, align 8, !noalias !199
  %_6.i = getelementptr inbounds nuw i8, ptr %self, i64 24
  tail call void @llvm.experimental.noalias.scope.decl(metadata !200)
  tail call void @llvm.experimental.noalias.scope.decl(metadata !203)
  tail call void @llvm.experimental.noalias.scope.decl(metadata !206)
  %_17.i.i.i.i = lshr i64 %_15.sroa.4.0.copyload.i, 57
  %_18.i.i.i.i = trunc nuw nsw i64 %_17.i.i.i.i to i8
  %10 = getelementptr inbounds nuw i8, ptr %self, i64 32
  %_22.i.i.i.i = load i64, ptr %10, align 8, !alias.scope !209, !noalias !210, !noundef !2
  %_25.i.i.i.i = load ptr, ptr %_6.i, align 8, !alias.scope !209, !noalias !210, !nonnull !2, !noundef !2
  %11 = insertelement <1 x i8> poison, i8 %_18.i.i.i.i, i64 0
  %12 = shufflevector <1 x i8> %11, <1 x i8> poison, <8 x i32> zeroinitializer
  %invariant.gep.i.i.i = getelementptr i8, ptr %_25.i.i.i.i, i64 -8
  br label %bb1.i.i.i.i

bb1.i.i.i.i:                                      ; preds = %bb16.i.i.i.i, %bb6.i
  %probe_seq1.sroa.0.0.i.i.i.i = phi i64 [ 0, %bb6.i ], [ %22, %bb16.i.i.i.i ]
  %hash.pn.i.i.i = phi i64 [ %_15.sroa.4.0.copyload.i, %bb6.i ], [ %23, %bb16.i.i.i.i ]
  %probe_seq.sroa.0.0.i.i.i.i = and i64 %hash.pn.i.i.i, %_22.i.i.i.i
  %_23.i.i.i.i = getelementptr inbounds nuw i8, ptr %_25.i.i.i.i, i64 %probe_seq.sroa.0.0.i.i.i.i
  %tmp.sroa.0.0.copyload.i.i.i.i.i = load <8 x i8>, ptr %_23.i.i.i.i, align 1, !noalias !212
  %13 = icmp eq <8 x i8> %tmp.sroa.0.0.copyload.i.i.i.i.i, %12
  %14 = sext <8 x i1> %13 to <8 x i8>
  %15 = bitcast <8 x i8> %14 to i64
  %16 = and i64 %15, -9187201950435737472
  %.not.i.not10.i.i.i = icmp eq i64 %16, 0
  br i1 %.not.i.not10.i.i.i, label %bb9.i.i.i.i, label %bb8.i.i.i.i

bb8.i.i.i.i:                                      ; preds = %bb1.i.i.i.i, %bb13.i.i.i.i
  %iter.sroa.0.0.i11.i.i.i = phi i64 [ %_38.i.i.i.i, %bb13.i.i.i.i ], [ %16, %bb1.i.i.i.i ]
  %17 = tail call range(i64 1, 65) i64 @llvm.cttz.i64(i64 %iter.sroa.0.0.i11.i.i.i, i1 true)
  %_349.i.i.i.i = lshr i64 %17, 3
  %_10.i.i.i.i = add i64 %_349.i.i.i.i, %probe_seq.sroa.0.0.i.i.i.i
  %index.i.i.i.i = and i64 %_10.i.i.i.i, %_22.i.i.i.i
  %_11.i.i.i.i = sub nsw i64 0, %index.i.i.i.i
  %gep.i.i.i = getelementptr i64, ptr %invariant.gep.i.i.i, i64 %_11.i.i.i.i
  %.val.i.i.i.i = load i64, ptr %gep.i.i.i, align 8, !noalias !217, !noundef !2
  %_0.i.i.i.i.i = icmp eq i64 %.val.i.i.i.i, 0
  br i1 %_0.i.i.i.i.i, label %bb5.i.i, label %bb13.i.i.i.i, !prof !31

bb9.i.i.i.i:                                      ; preds = %bb13.i.i.i.i, %bb1.i.i.i.i
  %18 = icmp eq <8 x i8> %tmp.sroa.0.0.copyload.i.i.i.i.i, splat (i8 -1)
  %19 = bitcast <8 x i1> %18 to i8
  %20 = icmp eq i8 %19, 0
  br i1 %20, label %bb16.i.i.i.i, label %bb14, !prof !32

bb13.i.i.i.i:                                     ; preds = %bb8.i.i.i.i
  %21 = add i64 %iter.sroa.0.0.i11.i.i.i, -1
  %_38.i.i.i.i = and i64 %21, %iter.sroa.0.0.i11.i.i.i
  %.not.i.not.i.i.i = icmp eq i64 %_38.i.i.i.i, 0
  br i1 %.not.i.not.i.i.i, label %bb9.i.i.i.i, label %bb8.i.i.i.i

bb16.i.i.i.i:                                     ; preds = %bb9.i.i.i.i
  %22 = add i64 %probe_seq1.sroa.0.0.i.i.i.i, 8
  %23 = add i64 %probe_seq.sroa.0.0.i.i.i.i, %22
  br label %bb1.i.i.i.i

bb5.i.i:                                          ; preds = %bb8.i.i.i.i
  tail call void @llvm.experimental.noalias.scope.decl(metadata !220)
  tail call void @llvm.experimental.noalias.scope.decl(metadata !223)
  tail call void @llvm.experimental.noalias.scope.decl(metadata !226)
  %_4.i.i.i.i.i = add nsw i64 %index.i.i.i.i, -8
  %index_before.i.i.i.i.i = and i64 %_4.i.i.i.i.i, %_22.i.i.i.i
  %_15.i.i.i.i.i = getelementptr inbounds nuw i8, ptr %_25.i.i.i.i, i64 %index_before.i.i.i.i.i
  %tmp.sroa.0.0.copyload.i.i.i.i.i.i.i = load <8 x i8>, ptr %_15.i.i.i.i.i, align 1, !noalias !229
  %24 = icmp eq <8 x i8> %tmp.sroa.0.0.copyload.i.i.i.i.i.i.i, splat (i8 -1)
  %25 = sext <8 x i1> %24 to <8 x i8>
  %26 = bitcast <8 x i8> %25 to i64
  %_20.i.i.i.i.i = getelementptr inbounds nuw i8, ptr %_25.i.i.i.i, i64 %index.i.i.i.i
  %tmp.sroa.0.0.copyload.i.i6.i.i.i.i.i = load <8 x i8>, ptr %_20.i.i.i.i.i, align 1, !noalias !234
  %27 = icmp eq <8 x i8> %tmp.sroa.0.0.copyload.i.i6.i.i.i.i.i, splat (i8 -1)
  %28 = sext <8 x i1> %27 to <8 x i8>
  %29 = bitcast <8 x i8> %28 to i64
  %30 = tail call range(i64 0, 65) i64 @llvm.ctlz.i64(i64 %26, i1 false)
  %_133.i.i.i.i.i = lshr i64 %30, 3
  %31 = tail call range(i64 0, 65) i64 @llvm.cttz.i64(i64 %29, i1 false)
  %_144.i.i.i.i.i = lshr i64 %31, 3
  %_12.i.i.i.i.i = add nuw nsw i64 %_144.i.i.i.i.i, %_133.i.i.i.i.i
  %_11.i.i.i.i.i = icmp samesign ugt i64 %_12.i.i.i.i.i, 7
  br i1 %_11.i.i.i.i.i, label %_RNvMs6_NtCs2iGD339VwsL_9hashbrown3rawINtB5_8RawTablejE6removeCsbHDlgkaPqr9_10serde_yaml.exit.i.i, label %bb2.i.i.i.i.i

bb2.i.i.i.i.i:                                    ; preds = %bb5.i.i
  %32 = getelementptr inbounds nuw i8, ptr %self, i64 40
  %33 = load i64, ptr %32, align 8, !alias.scope !239, !noalias !197, !noundef !2
  %34 = add i64 %33, 1
  store i64 %34, ptr %32, align 8, !alias.scope !239, !noalias !197
  br label %_RNvMs6_NtCs2iGD339VwsL_9hashbrown3rawINtB5_8RawTablejE6removeCsbHDlgkaPqr9_10serde_yaml.exit.i.i

_RNvMs6_NtCs2iGD339VwsL_9hashbrown3rawINtB5_8RawTablejE6removeCsbHDlgkaPqr9_10serde_yaml.exit.i.i: ; preds = %bb2.i.i.i.i.i, %bb5.i.i
  %ctrl.sroa.0.0.i.i.i.i.i = phi i8 [ -1, %bb2.i.i.i.i.i ], [ -128, %bb5.i.i ]
  store i8 %ctrl.sroa.0.0.i.i.i.i.i, ptr %_20.i.i.i.i.i, align 1, !noalias !240
  %_38.i.i.i.i.i = getelementptr i8, ptr %_15.i.i.i.i.i, i64 8
  store i8 %ctrl.sroa.0.0.i.i.i.i.i, ptr %_38.i.i.i.i.i, align 1, !noalias !240
  %35 = getelementptr inbounds nuw i8, ptr %self, i64 48
  %36 = load i64, ptr %35, align 8, !alias.scope !239, !noalias !197, !noundef !2
  %37 = add i64 %36, -1
  store i64 %37, ptr %35, align 8, !alias.scope !239, !noalias !197
  br label %bb14

bb3:                                              ; preds = %bb2.i, %bb4, %_RNvXs_NtCsbHDlgkaPqr9_10serde_yaml7mappingNtB4_13HashLikeValueINtCszqFBBEm2l1_10equivalent10EquivalentNtNtB6_5value5ValueE10equivalent.exit, %start
  store i64 -9223372036854775801, ptr %_0, align 8
  br label %bb11

bb14:                                             ; preds = %bb9.i.i.i.i, %_RNvMs6_NtCs2iGD339VwsL_9hashbrown3rawINtB5_8RawTablejE6removeCsbHDlgkaPqr9_10serde_yaml.exit.i.i
  call void @llvm.memcpy.p0.p0.i64(ptr noundef nonnull align 8 dereferenceable(64) %_8.i.sroa.4.sroa.0, ptr noundef nonnull align 8 dereferenceable(64) %entry.sroa.0.i.sroa.4, i64 64, i1 false)
  call void @llvm.memcpy.p0.p0.i64(ptr noundef nonnull align 8 dereferenceable(72) %_8.i.sroa.4.sroa.2, ptr noundef nonnull align 8 dereferenceable(72) %entry.sroa.0.i.sroa.5, i64 72, i1 false)
  call void @llvm.lifetime.end.p0(i64 64, ptr nonnull %entry.sroa.0.i.sroa.4)
  call void @llvm.lifetime.end.p0(i64 72, ptr nonnull %entry.sroa.0.i.sroa.5)
  %_10.sroa.0.sroa.4.0._0.sroa_idx = getelementptr inbounds nuw i8, ptr %_0, i64 8
  call void @llvm.memcpy.p0.p0.i64(ptr noundef nonnull align 8 dereferenceable(64) %_10.sroa.0.sroa.4.0._0.sroa_idx, ptr noundef nonnull align 8 dereferenceable(64) %_8.i.sroa.4.sroa.0, i64 64, i1 false)
  %_10.sroa.5.0._0.sroa_idx = getelementptr inbounds nuw i8, ptr %_0, i64 80
  call void @llvm.memcpy.p0.p0.i64(ptr noundef nonnull align 8 dereferenceable(72) %_10.sroa.5.0._0.sroa_idx, ptr noundef nonnull align 8 dereferenceable(72) %_8.i.sroa.4.sroa.2, i64 72, i1 false)
  store i64 -9223372036854775805, ptr %_0, align 8
  %_10.sroa.4.0._0.sroa_idx = getelementptr inbounds nuw i8, ptr %_0, i64 72
  store i64 0, ptr %_10.sroa.4.0._0.sroa_idx, align 8
  br label %bb11

bb11:                                             ; preds = %bb5.i5, %_RNvMs6_NtCs2iGD339VwsL_9hashbrown3rawINtB5_8RawTablejE6removeCsbHDlgkaPqr9_10serde_yaml.exit.i, %bb3, %bb14
  ret void

bb1:                                              ; preds = %start
  %_18 = getelementptr inbounds nuw i8, ptr %self, i64 56
  %_18.val = load i64, ptr %_18, align 8, !noundef !2
  %38 = getelementptr inbounds nuw i8, ptr %self, i64 64
  %_18.val1 = load i64, ptr %38, align 8, !noundef !2
; call <std::hash::random::RandomState as core::hash::BuildHasher>::hash_one::<&serde_yaml::mapping::HashLikeValue>
  %_17 = tail call fastcc noundef i64 @_RINvYNtNtNtCs5sEH5CPMdak_3std4hash6random11RandomStateNtNtCsjMrxcFdYDNN_4core4hash11BuildHasher8hash_oneRNtNtCsbHDlgkaPqr9_10serde_yaml7mapping13HashLikeValueEB1J_(i64 %_18.val, i64 %_18.val1, ptr noalias noundef readonly align 8 captures(address, read_provenance) dereferenceable(16) %key)
  tail call void @llvm.experimental.noalias.scope.decl(metadata !241)
  tail call void @llvm.experimental.noalias.scope.decl(metadata !244)
  tail call void @llvm.experimental.noalias.scope.decl(metadata !246)
  %39 = getelementptr inbounds nuw i8, ptr %self, i64 8
  %_18.i = load ptr, ptr %39, align 8, !alias.scope !244, !noalias !248, !nonnull !2, !noundef !2
  %_7.i = getelementptr inbounds nuw i8, ptr %self, i64 24
  tail call void @llvm.experimental.noalias.scope.decl(metadata !249)
  tail call void @llvm.experimental.noalias.scope.decl(metadata !252)
  %_17.i.i.i = lshr i64 %_17, 57
  %_18.i.i.i = trunc nuw nsw i64 %_17.i.i.i to i8
  %40 = getelementptr inbounds nuw i8, ptr %self, i64 32
  %_22.i.i.i = load i64, ptr %40, align 8, !alias.scope !255, !noalias !256, !noundef !2
  %_25.i.i.i = load ptr, ptr %_7.i, align 8, !alias.scope !255, !noalias !256, !nonnull !2, !noundef !2
  %41 = insertelement <1 x i8> poison, i8 %_18.i.i.i, i64 0
  %42 = shufflevector <1 x i8> %41, <1 x i8> poison, <8 x i32> zeroinitializer
  %invariant.gep.i.i = getelementptr i8, ptr %_25.i.i.i, i64 -8
  %43 = getelementptr inbounds nuw i8, ptr %key, i64 8
  %_5.1.i.i.i.i.i = load i64, ptr %43, align 8, !alias.scope !246, !noalias !259
  %_5.0.i.i.i.i.i = load ptr, ptr %key, align 8, !alias.scope !246, !noalias !259, !nonnull !2, !align !40
  br label %bb1.i.i.i

bb1.i.i.i:                                        ; preds = %bb16.i.i.i, %bb1
  %probe_seq1.sroa.0.0.i.i.i = phi i64 [ 0, %bb1 ], [ %60, %bb16.i.i.i ]
  %hash.pn.i.i = phi i64 [ %_17, %bb1 ], [ %61, %bb16.i.i.i ]
  %probe_seq.sroa.0.0.i.i.i = and i64 %hash.pn.i.i, %_22.i.i.i
  %_23.i.i.i = getelementptr inbounds nuw i8, ptr %_25.i.i.i, i64 %probe_seq.sroa.0.0.i.i.i
  %tmp.sroa.0.0.copyload.i.i.i.i = load <8 x i8>, ptr %_23.i.i.i, align 1, !noalias !260
  %44 = icmp eq <8 x i8> %tmp.sroa.0.0.copyload.i.i.i.i, %42
  %45 = sext <8 x i1> %44 to <8 x i8>
  %46 = bitcast <8 x i8> %45 to i64
  %47 = and i64 %46, -9187201950435737472
  %.not.i.not16.i.i = icmp eq i64 %47, 0
  br i1 %.not.i.not16.i.i, label %bb9.i.i.i, label %bb8.i.i.i

bb8.i.i.i:                                        ; preds = %bb1.i.i.i, %bb13.i.i.i
  %iter.sroa.0.0.i17.i.i = phi i64 [ %_38.i.i.i, %bb13.i.i.i ], [ %47, %bb1.i.i.i ]
  %48 = tail call range(i64 1, 65) i64 @llvm.cttz.i64(i64 %iter.sroa.0.0.i17.i.i, i1 true)
  %_349.i.i.i = lshr i64 %48, 3
  %_10.i.i.i = add i64 %_349.i.i.i, %probe_seq.sroa.0.0.i.i.i
  %index.i.i.i = and i64 %_10.i.i.i, %_22.i.i.i
  %_11.i.i.i = sub nsw i64 0, %index.i.i.i
  %gep.i.i = getelementptr i64, ptr %invariant.gep.i.i, i64 %_11.i.i.i
  %.val.i.i.i = load i64, ptr %gep.i.i, align 8, !noalias !265, !noundef !2
  %_6.i.i.i.i = icmp ult i64 %.val.i.i.i, %_15
  br i1 %_6.i.i.i.i, label %bb1.i.i.i.i4, label %panic.i.i.i.i

bb1.i.i.i.i4:                                     ; preds = %bb8.i.i.i
  %_4.i.i.i.i = getelementptr inbounds nuw %"indexmap::Bucket<value::Value, value::Value>", ptr %_18.i, i64 %.val.i.i.i
  tail call void @llvm.experimental.noalias.scope.decl(metadata !268), !noalias !271
  %49 = load i64, ptr %_4.i.i.i.i, align 8, !range !39, !alias.scope !268, !noalias !272, !noundef !2
  %50 = icmp ne i64 %49, -9223372036854775803
  tail call void @llvm.assume(i1 %50), !noalias !271
  %51 = icmp eq i64 %49, -9223372036854775805
  br i1 %51, label %bb2.i.i.i.i.i6, label %bb13.i.i.i, !prof !77

bb2.i.i.i.i.i6:                                   ; preds = %bb1.i.i.i.i4
  %52 = getelementptr inbounds nuw i8, ptr %_4.i.i.i.i, i64 24
  %_10.i.i.i.i.i = load i64, ptr %52, align 8, !alias.scope !268, !noalias !272, !noundef !2
  %_3.not.i.i.i.i.i.i = icmp eq i64 %_5.1.i.i.i.i.i, %_10.i.i.i.i.i
  br i1 %_3.not.i.i.i.i.i.i, label %_RNCINvMs6_NtCs2iGD339VwsL_9hashbrown3rawINtB8_8RawTablejE4findNCINvNtNtCsfSG22zIyQn9_8indexmap3map4core10equivalentNtNtCsbHDlgkaPqr9_10serde_yaml5value5ValueB1P_NtNtB1T_7mapping13HashLikeValueE0E0B1T_.exit.i.i, label %bb13.i.i.i, !prof !77

panic.i.i.i.i:                                    ; preds = %bb8.i.i.i
; call core::panicking::panic_bounds_check
  tail call void @_RNvNtCsjMrxcFdYDNN_4core9panicking18panic_bounds_check(i64 noundef %.val.i.i.i, i64 noundef %_15, ptr noalias noundef readonly align 8 captures(address, read_provenance) dereferenceable(24) @alloc_9f8525899d72254738d4324b7a87b3ce) #42, !noalias !276
  unreachable

_RNCINvMs6_NtCs2iGD339VwsL_9hashbrown3rawINtB8_8RawTablejE4findNCINvNtNtCsfSG22zIyQn9_8indexmap3map4core10equivalentNtNtCsbHDlgkaPqr9_10serde_yaml5value5ValueB1P_NtNtB1T_7mapping13HashLikeValueE0E0B1T_.exit.i.i: ; preds = %bb2.i.i.i.i.i6
  %53 = getelementptr inbounds nuw i8, ptr %_4.i.i.i.i, i64 16
  %_11.i.i.i.i.i7 = load ptr, ptr %53, align 8, !alias.scope !268, !noalias !272, !nonnull !2, !noundef !2
  %54 = tail call i32 @memcmp(ptr nonnull readonly align 1 %_5.0.i.i.i.i.i, ptr nonnull readonly align 1 %_11.i.i.i.i.i7, i64 range(i64 0, -9223372036854775808) %_5.1.i.i.i.i.i), !alias.scope !277, !noalias !281
  %55 = icmp eq i32 %54, 0
  br i1 %55, label %bb6.i8, label %bb13.i.i.i, !prof !84

bb9.i.i.i:                                        ; preds = %bb13.i.i.i, %bb1.i.i.i
  %56 = icmp eq <8 x i8> %tmp.sroa.0.0.copyload.i.i.i.i, splat (i8 -1)
  %57 = bitcast <8 x i1> %56 to i8
  %58 = icmp eq i8 %57, 0
  br i1 %58, label %bb16.i.i.i, label %bb5.i5, !prof !32

bb13.i.i.i:                                       ; preds = %_RNCINvMs6_NtCs2iGD339VwsL_9hashbrown3rawINtB8_8RawTablejE4findNCINvNtNtCsfSG22zIyQn9_8indexmap3map4core10equivalentNtNtCsbHDlgkaPqr9_10serde_yaml5value5ValueB1P_NtNtB1T_7mapping13HashLikeValueE0E0B1T_.exit.i.i, %bb2.i.i.i.i.i6, %bb1.i.i.i.i4
  %59 = add i64 %iter.sroa.0.0.i17.i.i, -1
  %_38.i.i.i = and i64 %59, %iter.sroa.0.0.i17.i.i
  %.not.i.not.i.i = icmp eq i64 %_38.i.i.i, 0
  br i1 %.not.i.not.i.i, label %bb9.i.i.i, label %bb8.i.i.i

bb16.i.i.i:                                       ; preds = %bb9.i.i.i
  %60 = add i64 %probe_seq1.sroa.0.0.i.i.i, 8
  %61 = add i64 %probe_seq.sroa.0.0.i.i.i, %60
  br label %bb1.i.i.i

bb6.i8:                                           ; preds = %_RNCINvMs6_NtCs2iGD339VwsL_9hashbrown3rawINtB8_8RawTablejE4findNCINvNtNtCsfSG22zIyQn9_8indexmap3map4core10equivalentNtNtCsbHDlgkaPqr9_10serde_yaml5value5ValueB1P_NtNtB1T_7mapping13HashLikeValueE0E0B1T_.exit.i.i
  %62 = getelementptr inbounds i64, ptr %_25.i.i.i, i64 %_11.i.i.i
  tail call void @llvm.experimental.noalias.scope.decl(metadata !282)
  tail call void @llvm.experimental.noalias.scope.decl(metadata !285)
  tail call void @llvm.experimental.noalias.scope.decl(metadata !288)
  %_4.i.i.i5.i = add nsw i64 %index.i.i.i, -8
  %index_before.i.i.i.i = and i64 %_4.i.i.i5.i, %_22.i.i.i
  %_15.i.i.i.i = getelementptr inbounds nuw i8, ptr %_25.i.i.i, i64 %index_before.i.i.i.i
  %tmp.sroa.0.0.copyload.i.i.i.i.i.i = load <8 x i8>, ptr %_15.i.i.i.i, align 1, !noalias !291
  %63 = icmp eq <8 x i8> %tmp.sroa.0.0.copyload.i.i.i.i.i.i, splat (i8 -1)
  %64 = sext <8 x i1> %63 to <8 x i8>
  %65 = bitcast <8 x i8> %64 to i64
  %_20.i.i.i.i = getelementptr inbounds nuw i8, ptr %_25.i.i.i, i64 %index.i.i.i
  %tmp.sroa.0.0.copyload.i.i6.i.i.i.i = load <8 x i8>, ptr %_20.i.i.i.i, align 1, !noalias !296
  %66 = icmp eq <8 x i8> %tmp.sroa.0.0.copyload.i.i6.i.i.i.i, splat (i8 -1)
  %67 = sext <8 x i1> %66 to <8 x i8>
  %68 = bitcast <8 x i8> %67 to i64
  %69 = tail call range(i64 0, 65) i64 @llvm.ctlz.i64(i64 %65, i1 false)
  %_133.i.i.i.i = lshr i64 %69, 3
  %70 = tail call range(i64 0, 65) i64 @llvm.cttz.i64(i64 %68, i1 false)
  %_144.i.i.i.i = lshr i64 %70, 3
  %_12.i.i.i.i = add nuw nsw i64 %_144.i.i.i.i, %_133.i.i.i.i
  %_11.i.i.i.i9 = icmp samesign ugt i64 %_12.i.i.i.i, 7
  br i1 %_11.i.i.i.i9, label %_RNvMs6_NtCs2iGD339VwsL_9hashbrown3rawINtB5_8RawTablejE6removeCsbHDlgkaPqr9_10serde_yaml.exit.i, label %bb2.i.i.i.i

bb2.i.i.i.i:                                      ; preds = %bb6.i8
  %71 = getelementptr inbounds nuw i8, ptr %self, i64 40
  %72 = load i64, ptr %71, align 8, !alias.scope !301, !noalias !248, !noundef !2
  %73 = add i64 %72, 1
  store i64 %73, ptr %71, align 8, !alias.scope !301, !noalias !248
  br label %_RNvMs6_NtCs2iGD339VwsL_9hashbrown3rawINtB5_8RawTablejE6removeCsbHDlgkaPqr9_10serde_yaml.exit.i

_RNvMs6_NtCs2iGD339VwsL_9hashbrown3rawINtB5_8RawTablejE6removeCsbHDlgkaPqr9_10serde_yaml.exit.i: ; preds = %bb2.i.i.i.i, %bb6.i8
  %ctrl.sroa.0.0.i.i.i.i = phi i8 [ -1, %bb2.i.i.i.i ], [ -128, %bb6.i8 ]
  store i8 %ctrl.sroa.0.0.i.i.i.i, ptr %_20.i.i.i.i, align 1, !noalias !302
  %_38.i.i.i.i10 = getelementptr i8, ptr %_15.i.i.i.i, i64 8
  store i8 %ctrl.sroa.0.0.i.i.i.i, ptr %_38.i.i.i.i10, align 1, !noalias !302
  %74 = getelementptr inbounds nuw i8, ptr %self, i64 48
  %75 = load i64, ptr %74, align 8, !alias.scope !301, !noalias !248, !noundef !2
  %76 = add i64 %75, -1
  store i64 %76, ptr %74, align 8, !alias.scope !301, !noalias !248
  %77 = getelementptr inbounds i8, ptr %62, i64 -8
  %_5.i.i = load i64, ptr %77, align 8, !noalias !303, !noundef !2
  call void @llvm.lifetime.start.p0(i64 144, ptr nonnull %_11.i3), !noalias !304
; call <indexmap::map::core::RefMut<serde_yaml::value::Value, serde_yaml::value::Value>>::swap_remove_finish
  call fastcc void @_RNvMs0_NtNtCsfSG22zIyQn9_8indexmap3map4coreINtB5_6RefMutNtNtCsbHDlgkaPqr9_10serde_yaml5value5ValueBS_E18swap_remove_finishBW_(ptr noalias noundef align 8 captures(none) dereferenceable(144) %_11.i3, ptr nonnull %_7.i, ptr nonnull align 8 dereferenceable(56) %self, i64 noundef %_5.i.i), !noalias !248
  call void @llvm.memcpy.p0.p0.i64(ptr noundef nonnull align 8 dereferenceable(152) %_0, ptr noundef nonnull align 8 dereferenceable(72) %_11.i3, i64 72, i1 false), !noalias !305
  %78 = getelementptr inbounds nuw i8, ptr %_11.i3, i64 72
  %_14.sroa.5.0._0.sroa_idx.i = getelementptr inbounds nuw i8, ptr %_0, i64 80
  call void @llvm.memcpy.p0.p0.i64(ptr noundef nonnull align 8 dereferenceable(72) %_14.sroa.5.0._0.sroa_idx.i, ptr noundef nonnull align 8 dereferenceable(72) %78, i64 72, i1 false), !noalias !305
  call void @llvm.lifetime.end.p0(i64 144, ptr nonnull %_11.i3), !noalias !304
  %_14.sroa.4.0._0.sroa_idx.i = getelementptr inbounds nuw i8, ptr %_0, i64 72
  store i64 %_5.i.i, ptr %_14.sroa.4.0._0.sroa_idx.i, align 8, !alias.scope !241, !noalias !305
  br label %bb11

bb5.i5:                                           ; preds = %bb9.i.i.i
  store i64 -9223372036854775801, ptr %_0, align 8, !alias.scope !241, !noalias !305
  br label %bb11
}

; <indexmap::map::IndexMap<serde_yaml::value::Value, serde_yaml::value::Value>>::shift_remove_full::<serde_yaml::value::Value>
; Function Attrs: uwtable
define internal fastcc void @_RINvMs3_NtCsfSG22zIyQn9_8indexmap3mapINtB6_8IndexMapNtNtCsbHDlgkaPqr9_10serde_yaml5value5ValueBO_E17shift_remove_fullBO_EBS_(ptr dead_on_unwind noalias noundef nonnull writable writeonly align 8 captures(none) dereferenceable(152) %_0, ptr noalias noundef nonnull align 8 captures(address_is_null) dereferenceable(72) %self, ptr noalias noundef nonnull readonly align 8 captures(none) dereferenceable(72) %key) unnamed_addr #0 personality ptr @rust_eh_personality {
start:
  %_11.i2 = alloca [144 x i8], align 8
  %_8.i.sroa.4.sroa.0 = alloca [64 x i8], align 8
  %_8.i.sroa.4.sroa.2 = alloca [72 x i8], align 8
  %entry.sroa.0.i.sroa.4 = alloca [64 x i8], align 8
  %entry.sroa.0.i.sroa.5 = alloca [72 x i8], align 8
  %0 = getelementptr inbounds nuw i8, ptr %self, i64 16
  %_15 = load i64, ptr %0, align 8, !noundef !2
  switch i64 %_15, label %bb1 [
    i64 1, label %bb4
    i64 0, label %bb3
  ]

bb4:                                              ; preds = %start
  %1 = getelementptr inbounds nuw i8, ptr %self, i64 8
  %_16 = load ptr, ptr %1, align 8, !nonnull !2, !noundef !2
; call <serde_yaml::value::Value as core::cmp::PartialEq>::eq
  %_0.i = tail call fastcc noundef zeroext i1 @_RNvXs5_NtCsbHDlgkaPqr9_10serde_yaml5valueNtB5_5ValueNtNtCsjMrxcFdYDNN_4core3cmp9PartialEq2eq(ptr noalias noundef nonnull readonly align 8 captures(address, read_provenance) dereferenceable(72) %key, ptr noalias noundef nonnull readonly align 8 captures(address, read_provenance) dereferenceable(72) %_16) #41
  br i1 %_0.i, label %bb6.i, label %bb3

bb6.i:                                            ; preds = %bb4
  tail call void @llvm.experimental.noalias.scope.decl(metadata !306)
  store i64 0, ptr %0, align 8, !alias.scope !306, !noalias !309
  %_19.i = load i64, ptr %self, align 8, !range !90, !alias.scope !306, !noalias !309, !noundef !2
  %_12.i = icmp ne i64 %_19.i, 0
  tail call void @llvm.assume(i1 %_12.i)
  call void @llvm.lifetime.start.p0(i64 64, ptr nonnull %entry.sroa.0.i.sroa.4)
  call void @llvm.lifetime.start.p0(i64 72, ptr nonnull %entry.sroa.0.i.sroa.5)
  %entry.sroa.0.i.sroa.0.0.copyload = load i64, ptr %_16, align 8, !noalias !311
  %entry.sroa.0.i.sroa.4.0._16.i.sroa_idx = getelementptr inbounds nuw i8, ptr %_16, i64 8
  call void @llvm.memcpy.p0.p0.i64(ptr noundef nonnull align 8 dereferenceable(64) %entry.sroa.0.i.sroa.4, ptr noundef nonnull align 8 dereferenceable(64) %entry.sroa.0.i.sroa.4.0._16.i.sroa_idx, i64 64, i1 false), !noalias !311
  %entry.sroa.0.i.sroa.5.0._16.i.sroa_idx = getelementptr inbounds nuw i8, ptr %_16, i64 72
  call void @llvm.memcpy.p0.p0.i64(ptr noundef nonnull align 8 dereferenceable(72) %entry.sroa.0.i.sroa.5, ptr noundef nonnull align 8 dereferenceable(72) %entry.sroa.0.i.sroa.5.0._16.i.sroa_idx, i64 72, i1 false), !noalias !311
  %_15.sroa.4.0._16.sroa_idx.i = getelementptr inbounds nuw i8, ptr %_16, i64 144
  %_15.sroa.4.0.copyload.i = load i64, ptr %_15.sroa.4.0._16.sroa_idx.i, align 8, !noalias !311
  %_6.i = getelementptr inbounds nuw i8, ptr %self, i64 24
  tail call void @llvm.experimental.noalias.scope.decl(metadata !312)
  tail call void @llvm.experimental.noalias.scope.decl(metadata !315)
  tail call void @llvm.experimental.noalias.scope.decl(metadata !318)
  %_17.i.i.i.i = lshr i64 %_15.sroa.4.0.copyload.i, 57
  %_18.i.i.i.i = trunc nuw nsw i64 %_17.i.i.i.i to i8
  %2 = getelementptr inbounds nuw i8, ptr %self, i64 32
  %_22.i.i.i.i = load i64, ptr %2, align 8, !alias.scope !321, !noalias !322, !noundef !2
  %_25.i.i.i.i = load ptr, ptr %_6.i, align 8, !alias.scope !321, !noalias !322, !nonnull !2, !noundef !2
  %3 = insertelement <1 x i8> poison, i8 %_18.i.i.i.i, i64 0
  %4 = shufflevector <1 x i8> %3, <1 x i8> poison, <8 x i32> zeroinitializer
  %invariant.gep.i.i.i = getelementptr i8, ptr %_25.i.i.i.i, i64 -8
  br label %bb1.i.i.i.i

bb1.i.i.i.i:                                      ; preds = %bb16.i.i.i.i, %bb6.i
  %probe_seq1.sroa.0.0.i.i.i.i = phi i64 [ 0, %bb6.i ], [ %14, %bb16.i.i.i.i ]
  %hash.pn.i.i.i = phi i64 [ %_15.sroa.4.0.copyload.i, %bb6.i ], [ %15, %bb16.i.i.i.i ]
  %probe_seq.sroa.0.0.i.i.i.i = and i64 %hash.pn.i.i.i, %_22.i.i.i.i
  %_23.i.i.i.i = getelementptr inbounds nuw i8, ptr %_25.i.i.i.i, i64 %probe_seq.sroa.0.0.i.i.i.i
  %tmp.sroa.0.0.copyload.i.i.i.i.i = load <8 x i8>, ptr %_23.i.i.i.i, align 1, !noalias !324
  %5 = icmp eq <8 x i8> %tmp.sroa.0.0.copyload.i.i.i.i.i, %4
  %6 = sext <8 x i1> %5 to <8 x i8>
  %7 = bitcast <8 x i8> %6 to i64
  %8 = and i64 %7, -9187201950435737472
  %.not.i.not10.i.i.i = icmp eq i64 %8, 0
  br i1 %.not.i.not10.i.i.i, label %bb9.i.i.i.i, label %bb8.i.i.i.i

bb8.i.i.i.i:                                      ; preds = %bb1.i.i.i.i, %bb13.i.i.i.i
  %iter.sroa.0.0.i11.i.i.i = phi i64 [ %_38.i.i.i.i, %bb13.i.i.i.i ], [ %8, %bb1.i.i.i.i ]
  %9 = tail call range(i64 1, 65) i64 @llvm.cttz.i64(i64 %iter.sroa.0.0.i11.i.i.i, i1 true)
  %_349.i.i.i.i = lshr i64 %9, 3
  %_10.i.i.i.i = add i64 %_349.i.i.i.i, %probe_seq.sroa.0.0.i.i.i.i
  %index.i.i.i.i = and i64 %_10.i.i.i.i, %_22.i.i.i.i
  %_11.i.i.i.i = sub nsw i64 0, %index.i.i.i.i
  %gep.i.i.i = getelementptr i64, ptr %invariant.gep.i.i.i, i64 %_11.i.i.i.i
  %.val.i.i.i.i = load i64, ptr %gep.i.i.i, align 8, !noalias !329, !noundef !2
  %_0.i.i.i.i.i = icmp eq i64 %.val.i.i.i.i, 0
  br i1 %_0.i.i.i.i.i, label %bb5.i.i, label %bb13.i.i.i.i, !prof !31

bb9.i.i.i.i:                                      ; preds = %bb13.i.i.i.i, %bb1.i.i.i.i
  %10 = icmp eq <8 x i8> %tmp.sroa.0.0.copyload.i.i.i.i.i, splat (i8 -1)
  %11 = bitcast <8 x i1> %10 to i8
  %12 = icmp eq i8 %11, 0
  br i1 %12, label %bb16.i.i.i.i, label %_RNvMs_NtNtCsfSG22zIyQn9_8indexmap3map4coreINtB4_12IndexMapCoreNtNtCsbHDlgkaPqr9_10serde_yaml5value5ValueBY_E3popB12_.exit, !prof !32

bb13.i.i.i.i:                                     ; preds = %bb8.i.i.i.i
  %13 = add i64 %iter.sroa.0.0.i11.i.i.i, -1
  %_38.i.i.i.i = and i64 %13, %iter.sroa.0.0.i11.i.i.i
  %.not.i.not.i.i.i = icmp eq i64 %_38.i.i.i.i, 0
  br i1 %.not.i.not.i.i.i, label %bb9.i.i.i.i, label %bb8.i.i.i.i

bb16.i.i.i.i:                                     ; preds = %bb9.i.i.i.i
  %14 = add i64 %probe_seq1.sroa.0.0.i.i.i.i, 8
  %15 = add i64 %probe_seq.sroa.0.0.i.i.i.i, %14
  br label %bb1.i.i.i.i

bb5.i.i:                                          ; preds = %bb8.i.i.i.i
  tail call void @llvm.experimental.noalias.scope.decl(metadata !332)
  tail call void @llvm.experimental.noalias.scope.decl(metadata !335)
  tail call void @llvm.experimental.noalias.scope.decl(metadata !338)
  %_4.i.i.i.i.i = add nsw i64 %index.i.i.i.i, -8
  %index_before.i.i.i.i.i = and i64 %_4.i.i.i.i.i, %_22.i.i.i.i
  %_15.i.i.i.i.i = getelementptr inbounds nuw i8, ptr %_25.i.i.i.i, i64 %index_before.i.i.i.i.i
  %tmp.sroa.0.0.copyload.i.i.i.i.i.i.i = load <8 x i8>, ptr %_15.i.i.i.i.i, align 1, !noalias !341
  %16 = icmp eq <8 x i8> %tmp.sroa.0.0.copyload.i.i.i.i.i.i.i, splat (i8 -1)
  %17 = sext <8 x i1> %16 to <8 x i8>
  %18 = bitcast <8 x i8> %17 to i64
  %_20.i.i.i.i.i = getelementptr inbounds nuw i8, ptr %_25.i.i.i.i, i64 %index.i.i.i.i
  %tmp.sroa.0.0.copyload.i.i6.i.i.i.i.i = load <8 x i8>, ptr %_20.i.i.i.i.i, align 1, !noalias !346
  %19 = icmp eq <8 x i8> %tmp.sroa.0.0.copyload.i.i6.i.i.i.i.i, splat (i8 -1)
  %20 = sext <8 x i1> %19 to <8 x i8>
  %21 = bitcast <8 x i8> %20 to i64
  %22 = tail call range(i64 0, 65) i64 @llvm.ctlz.i64(i64 %18, i1 false)
  %_133.i.i.i.i.i = lshr i64 %22, 3
  %23 = tail call range(i64 0, 65) i64 @llvm.cttz.i64(i64 %21, i1 false)
  %_144.i.i.i.i.i = lshr i64 %23, 3
  %_12.i.i.i.i.i = add nuw nsw i64 %_144.i.i.i.i.i, %_133.i.i.i.i.i
  %_11.i.i.i.i.i = icmp samesign ugt i64 %_12.i.i.i.i.i, 7
  br i1 %_11.i.i.i.i.i, label %_RNvMs6_NtCs2iGD339VwsL_9hashbrown3rawINtB5_8RawTablejE6removeCsbHDlgkaPqr9_10serde_yaml.exit.i.i, label %bb2.i.i.i.i.i

bb2.i.i.i.i.i:                                    ; preds = %bb5.i.i
  %24 = getelementptr inbounds nuw i8, ptr %self, i64 40
  %25 = load i64, ptr %24, align 8, !alias.scope !351, !noalias !309, !noundef !2
  %26 = add i64 %25, 1
  store i64 %26, ptr %24, align 8, !alias.scope !351, !noalias !309
  br label %_RNvMs6_NtCs2iGD339VwsL_9hashbrown3rawINtB5_8RawTablejE6removeCsbHDlgkaPqr9_10serde_yaml.exit.i.i

_RNvMs6_NtCs2iGD339VwsL_9hashbrown3rawINtB5_8RawTablejE6removeCsbHDlgkaPqr9_10serde_yaml.exit.i.i: ; preds = %bb2.i.i.i.i.i, %bb5.i.i
  %ctrl.sroa.0.0.i.i.i.i.i = phi i8 [ -1, %bb2.i.i.i.i.i ], [ -128, %bb5.i.i ]
  store i8 %ctrl.sroa.0.0.i.i.i.i.i, ptr %_20.i.i.i.i.i, align 1, !noalias !352
  %_38.i.i.i.i.i = getelementptr i8, ptr %_15.i.i.i.i.i, i64 8
  store i8 %ctrl.sroa.0.0.i.i.i.i.i, ptr %_38.i.i.i.i.i, align 1, !noalias !352
  %27 = getelementptr inbounds nuw i8, ptr %self, i64 48
  %28 = load i64, ptr %27, align 8, !alias.scope !351, !noalias !309, !noundef !2
  %29 = add i64 %28, -1
  store i64 %29, ptr %27, align 8, !alias.scope !351, !noalias !309
  br label %_RNvMs_NtNtCsfSG22zIyQn9_8indexmap3map4coreINtB4_12IndexMapCoreNtNtCsbHDlgkaPqr9_10serde_yaml5value5ValueBY_E3popB12_.exit

_RNvMs_NtNtCsfSG22zIyQn9_8indexmap3map4coreINtB4_12IndexMapCoreNtNtCsbHDlgkaPqr9_10serde_yaml5value5ValueBY_E3popB12_.exit: ; preds = %bb9.i.i.i.i, %_RNvMs6_NtCs2iGD339VwsL_9hashbrown3rawINtB5_8RawTablejE6removeCsbHDlgkaPqr9_10serde_yaml.exit.i.i
  call void @llvm.memcpy.p0.p0.i64(ptr noundef nonnull align 8 dereferenceable(64) %_8.i.sroa.4.sroa.0, ptr noundef nonnull align 8 dereferenceable(64) %entry.sroa.0.i.sroa.4, i64 64, i1 false)
  call void @llvm.memcpy.p0.p0.i64(ptr noundef nonnull align 8 dereferenceable(72) %_8.i.sroa.4.sroa.2, ptr noundef nonnull align 8 dereferenceable(72) %entry.sroa.0.i.sroa.5, i64 72, i1 false)
  call void @llvm.lifetime.end.p0(i64 64, ptr nonnull %entry.sroa.0.i.sroa.4)
  call void @llvm.lifetime.end.p0(i64 72, ptr nonnull %entry.sroa.0.i.sroa.5)
  %.not = icmp eq i64 %entry.sroa.0.i.sroa.0.0.copyload, -9223372036854775801
  br i1 %.not, label %bb13, label %bb14

bb3:                                              ; preds = %bb4, %start
  store i64 -9223372036854775801, ptr %_0, align 8
  br label %bb11

bb14:                                             ; preds = %_RNvMs_NtNtCsfSG22zIyQn9_8indexmap3map4coreINtB4_12IndexMapCoreNtNtCsbHDlgkaPqr9_10serde_yaml5value5ValueBY_E3popB12_.exit
  %_10.sroa.0.sroa.4.0._0.sroa_idx = getelementptr inbounds nuw i8, ptr %_0, i64 8
  call void @llvm.memcpy.p0.p0.i64(ptr noundef nonnull align 8 dereferenceable(64) %_10.sroa.0.sroa.4.0._0.sroa_idx, ptr noundef nonnull align 8 dereferenceable(64) %_8.i.sroa.4.sroa.0, i64 64, i1 false)
  %_10.sroa.5.0._0.sroa_idx = getelementptr inbounds nuw i8, ptr %_0, i64 80
  call void @llvm.memcpy.p0.p0.i64(ptr noundef nonnull align 8 dereferenceable(72) %_10.sroa.5.0._0.sroa_idx, ptr noundef nonnull align 8 dereferenceable(72) %_8.i.sroa.4.sroa.2, i64 72, i1 false)
  store i64 %entry.sroa.0.i.sroa.0.0.copyload, ptr %_0, align 8
  %_10.sroa.4.0._0.sroa_idx = getelementptr inbounds nuw i8, ptr %_0, i64 72
  store i64 0, ptr %_10.sroa.4.0._0.sroa_idx, align 8
  br label %bb11

bb13:                                             ; preds = %_RNvMs_NtNtCsfSG22zIyQn9_8indexmap3map4coreINtB4_12IndexMapCoreNtNtCsbHDlgkaPqr9_10serde_yaml5value5ValueBY_E3popB12_.exit
  store i64 -9223372036854775801, ptr %_0, align 8
  br label %bb11

bb11:                                             ; preds = %bb5.i3, %_RNvMs6_NtCs2iGD339VwsL_9hashbrown3rawINtB5_8RawTablejE6removeCsbHDlgkaPqr9_10serde_yaml.exit.i, %bb3, %bb14, %bb13
  ret void

bb1:                                              ; preds = %start
  %_18 = getelementptr inbounds nuw i8, ptr %self, i64 56
  %_18.val = load i64, ptr %_18, align 8, !noundef !2
  %30 = getelementptr inbounds nuw i8, ptr %self, i64 64
  %_18.val1 = load i64, ptr %30, align 8, !noundef !2
; call <std::hash::random::RandomState as core::hash::BuildHasher>::hash_one::<&serde_yaml::value::Value>
  %_17 = tail call fastcc noundef i64 @_RINvYNtNtNtCs5sEH5CPMdak_3std4hash6random11RandomStateNtNtCsjMrxcFdYDNN_4core4hash11BuildHasher8hash_oneRNtNtCsbHDlgkaPqr9_10serde_yaml5value5ValueEB1J_(i64 %_18.val, i64 %_18.val1, ptr noalias noundef readonly align 8 captures(address, read_provenance) dereferenceable(72) %key)
  tail call void @llvm.experimental.noalias.scope.decl(metadata !353)
  tail call void @llvm.experimental.noalias.scope.decl(metadata !356)
  %31 = getelementptr inbounds nuw i8, ptr %self, i64 8
  %_18.i = load ptr, ptr %31, align 8, !alias.scope !356, !noalias !358, !nonnull !2, !noundef !2
  %_7.i = getelementptr inbounds nuw i8, ptr %self, i64 24
  tail call void @llvm.experimental.noalias.scope.decl(metadata !360)
  tail call void @llvm.experimental.noalias.scope.decl(metadata !363)
  %_17.i.i.i = lshr i64 %_17, 57
  %_18.i.i.i = trunc nuw nsw i64 %_17.i.i.i to i8
  %32 = getelementptr inbounds nuw i8, ptr %self, i64 32
  %_22.i.i.i = load i64, ptr %32, align 8, !alias.scope !366, !noalias !367, !noundef !2
  %_25.i.i.i = load ptr, ptr %_7.i, align 8, !alias.scope !366, !noalias !367, !nonnull !2, !noundef !2
  %33 = insertelement <1 x i8> poison, i8 %_18.i.i.i, i64 0
  %34 = shufflevector <1 x i8> %33, <1 x i8> poison, <8 x i32> zeroinitializer
  %invariant.gep.i.i = getelementptr i8, ptr %_25.i.i.i, i64 -8
  br label %bb1.i.i.i

bb1.i.i.i:                                        ; preds = %bb16.i.i.i, %bb1
  %probe_seq1.sroa.0.0.i.i.i = phi i64 [ 0, %bb1 ], [ %44, %bb16.i.i.i ]
  %hash.pn.i.i = phi i64 [ %_17, %bb1 ], [ %45, %bb16.i.i.i ]
  %probe_seq.sroa.0.0.i.i.i = and i64 %hash.pn.i.i, %_22.i.i.i
  %_23.i.i.i = getelementptr inbounds nuw i8, ptr %_25.i.i.i, i64 %probe_seq.sroa.0.0.i.i.i
  %tmp.sroa.0.0.copyload.i.i.i.i = load <8 x i8>, ptr %_23.i.i.i, align 1, !noalias !370
  %35 = icmp eq <8 x i8> %tmp.sroa.0.0.copyload.i.i.i.i, %34
  %36 = sext <8 x i1> %35 to <8 x i8>
  %37 = bitcast <8 x i8> %36 to i64
  %38 = and i64 %37, -9187201950435737472
  %.not.i.not19.i.i = icmp eq i64 %38, 0
  br i1 %.not.i.not19.i.i, label %bb9.i.i.i, label %bb8.i.i.i

bb8.i.i.i:                                        ; preds = %bb1.i.i.i, %bb13.i.i.i
  %iter.sroa.0.0.i20.i.i = phi i64 [ %_38.i.i.i, %bb13.i.i.i ], [ %38, %bb1.i.i.i ]
  %39 = tail call range(i64 1, 65) i64 @llvm.cttz.i64(i64 %iter.sroa.0.0.i20.i.i, i1 true)
  %_349.i.i.i = lshr i64 %39, 3
  %_10.i.i.i = add i64 %_349.i.i.i, %probe_seq.sroa.0.0.i.i.i
  %index.i.i.i = and i64 %_10.i.i.i, %_22.i.i.i
  %_11.i.i.i = sub nsw i64 0, %index.i.i.i
  %gep.i.i = getelementptr i64, ptr %invariant.gep.i.i, i64 %_11.i.i.i
  %.val3.i.i = load i64, ptr %gep.i.i, align 8, !noalias !375, !noundef !2
  %_6.i4.i.i = icmp ult i64 %.val3.i.i, %_15
  br i1 %_6.i4.i.i, label %_RNCINvNtNtCsfSG22zIyQn9_8indexmap3map4core10equivalentNtNtCsbHDlgkaPqr9_10serde_yaml5value5ValueBQ_BQ_E0BU_.exit.i.i, label %panic.i.i.i

panic.i.i.i:                                      ; preds = %bb8.i.i.i
; call core::panicking::panic_bounds_check
  tail call void @_RNvNtCsjMrxcFdYDNN_4core9panicking18panic_bounds_check(i64 noundef %.val3.i.i, i64 noundef %_15, ptr noalias noundef readonly align 8 captures(address, read_provenance) dereferenceable(24) @alloc_9f8525899d72254738d4324b7a87b3ce) #42, !noalias !376
  unreachable

_RNCINvNtNtCsfSG22zIyQn9_8indexmap3map4core10equivalentNtNtCsbHDlgkaPqr9_10serde_yaml5value5ValueBQ_BQ_E0BU_.exit.i.i: ; preds = %bb8.i.i.i
  %_4.i.i.i = getelementptr inbounds nuw %"indexmap::Bucket<value::Value, value::Value>", ptr %_18.i, i64 %.val3.i.i
; call <serde_yaml::value::Value as core::cmp::PartialEq>::eq
  %_0.i.i.i.i = tail call fastcc noundef zeroext i1 @_RNvXs5_NtCsbHDlgkaPqr9_10serde_yaml5valueNtB5_5ValueNtNtCsjMrxcFdYDNN_4core3cmp9PartialEq2eq(ptr noalias noundef nonnull readonly align 8 captures(address, read_provenance) dereferenceable(72) %key, ptr noalias noundef readonly align 8 captures(address, read_provenance) dereferenceable(72) %_4.i.i.i) #41, !noalias !379
  br i1 %_0.i.i.i.i, label %bb6.i4, label %bb13.i.i.i, !prof !31

bb9.i.i.i:                                        ; preds = %bb13.i.i.i, %bb1.i.i.i
  %40 = icmp eq <8 x i8> %tmp.sroa.0.0.copyload.i.i.i.i, splat (i8 -1)
  %41 = bitcast <8 x i1> %40 to i8
  %42 = icmp eq i8 %41, 0
  br i1 %42, label %bb16.i.i.i, label %bb5.i3, !prof !32

bb13.i.i.i:                                       ; preds = %_RNCINvNtNtCsfSG22zIyQn9_8indexmap3map4core10equivalentNtNtCsbHDlgkaPqr9_10serde_yaml5value5ValueBQ_BQ_E0BU_.exit.i.i
  %43 = add i64 %iter.sroa.0.0.i20.i.i, -1
  %_38.i.i.i = and i64 %43, %iter.sroa.0.0.i20.i.i
  %.not.i.not.i.i = icmp eq i64 %_38.i.i.i, 0
  br i1 %.not.i.not.i.i, label %bb9.i.i.i, label %bb8.i.i.i

bb16.i.i.i:                                       ; preds = %bb9.i.i.i
  %44 = add i64 %probe_seq1.sroa.0.0.i.i.i, 8
  %45 = add i64 %probe_seq.sroa.0.0.i.i.i, %44
  br label %bb1.i.i.i

bb6.i4:                                           ; preds = %_RNCINvNtNtCsfSG22zIyQn9_8indexmap3map4core10equivalentNtNtCsbHDlgkaPqr9_10serde_yaml5value5ValueBQ_BQ_E0BU_.exit.i.i
  %46 = getelementptr inbounds i64, ptr %_25.i.i.i, i64 %_11.i.i.i
  tail call void @llvm.experimental.noalias.scope.decl(metadata !380)
  tail call void @llvm.experimental.noalias.scope.decl(metadata !383)
  tail call void @llvm.experimental.noalias.scope.decl(metadata !386)
  %_4.i.i.i.i = add nsw i64 %index.i.i.i, -8
  %index_before.i.i.i.i = and i64 %_4.i.i.i.i, %_22.i.i.i
  %_15.i.i.i.i = getelementptr inbounds nuw i8, ptr %_25.i.i.i, i64 %index_before.i.i.i.i
  %tmp.sroa.0.0.copyload.i.i.i.i.i.i = load <8 x i8>, ptr %_15.i.i.i.i, align 1, !noalias !389
  %47 = icmp eq <8 x i8> %tmp.sroa.0.0.copyload.i.i.i.i.i.i, splat (i8 -1)
  %48 = sext <8 x i1> %47 to <8 x i8>
  %49 = bitcast <8 x i8> %48 to i64
  %_20.i.i.i.i = getelementptr inbounds nuw i8, ptr %_25.i.i.i, i64 %index.i.i.i
  %tmp.sroa.0.0.copyload.i.i6.i.i.i.i = load <8 x i8>, ptr %_20.i.i.i.i, align 1, !noalias !394
  %50 = icmp eq <8 x i8> %tmp.sroa.0.0.copyload.i.i6.i.i.i.i, splat (i8 -1)
  %51 = sext <8 x i1> %50 to <8 x i8>
  %52 = bitcast <8 x i8> %51 to i64
  %53 = tail call range(i64 0, 65) i64 @llvm.ctlz.i64(i64 %49, i1 false)
  %_133.i.i.i.i = lshr i64 %53, 3
  %54 = tail call range(i64 0, 65) i64 @llvm.cttz.i64(i64 %52, i1 false)
  %_144.i.i.i.i = lshr i64 %54, 3
  %_12.i.i.i.i = add nuw nsw i64 %_144.i.i.i.i, %_133.i.i.i.i
  %_11.i.i.i.i5 = icmp samesign ugt i64 %_12.i.i.i.i, 7
  br i1 %_11.i.i.i.i5, label %_RNvMs6_NtCs2iGD339VwsL_9hashbrown3rawINtB5_8RawTablejE6removeCsbHDlgkaPqr9_10serde_yaml.exit.i, label %bb2.i.i.i.i

bb2.i.i.i.i:                                      ; preds = %bb6.i4
  %55 = getelementptr inbounds nuw i8, ptr %self, i64 40
  %56 = load i64, ptr %55, align 8, !alias.scope !399, !noalias !358, !noundef !2
  %57 = add i64 %56, 1
  store i64 %57, ptr %55, align 8, !alias.scope !399, !noalias !358
  br label %_RNvMs6_NtCs2iGD339VwsL_9hashbrown3rawINtB5_8RawTablejE6removeCsbHDlgkaPqr9_10serde_yaml.exit.i

_RNvMs6_NtCs2iGD339VwsL_9hashbrown3rawINtB5_8RawTablejE6removeCsbHDlgkaPqr9_10serde_yaml.exit.i: ; preds = %bb2.i.i.i.i, %bb6.i4
  %ctrl.sroa.0.0.i.i.i.i = phi i8 [ -1, %bb2.i.i.i.i ], [ -128, %bb6.i4 ]
  store i8 %ctrl.sroa.0.0.i.i.i.i, ptr %_20.i.i.i.i, align 1, !noalias !400
  %_38.i.i.i.i6 = getelementptr i8, ptr %_15.i.i.i.i, i64 8
  store i8 %ctrl.sroa.0.0.i.i.i.i, ptr %_38.i.i.i.i6, align 1, !noalias !400
  %58 = getelementptr inbounds nuw i8, ptr %self, i64 48
  %59 = load i64, ptr %58, align 8, !alias.scope !399, !noalias !358, !noundef !2
  %60 = add i64 %59, -1
  store i64 %60, ptr %58, align 8, !alias.scope !399, !noalias !358
  %61 = getelementptr inbounds i8, ptr %46, i64 -8
  %_5.i.i = load i64, ptr %61, align 8, !noalias !401, !noundef !2
  call void @llvm.lifetime.start.p0(i64 144, ptr nonnull %_11.i2), !noalias !402
; call <indexmap::map::core::RefMut<serde_yaml::value::Value, serde_yaml::value::Value>>::shift_remove_finish
  call fastcc void @_RNvMs0_NtNtCsfSG22zIyQn9_8indexmap3map4coreINtB5_6RefMutNtNtCsbHDlgkaPqr9_10serde_yaml5value5ValueBS_E19shift_remove_finishBW_(ptr noalias noundef align 8 captures(none) dereferenceable(144) %_11.i2, ptr nonnull %_7.i, ptr nonnull align 8 dereferenceable(56) %self, i64 noundef %_5.i.i), !noalias !358
  call void @llvm.memcpy.p0.p0.i64(ptr noundef nonnull align 8 dereferenceable(152) %_0, ptr noundef nonnull align 8 dereferenceable(72) %_11.i2, i64 72, i1 false), !noalias !403
  %62 = getelementptr inbounds nuw i8, ptr %_11.i2, i64 72
  %_14.sroa.5.0._0.sroa_idx.i = getelementptr inbounds nuw i8, ptr %_0, i64 80
  call void @llvm.memcpy.p0.p0.i64(ptr noundef nonnull align 8 dereferenceable(72) %_14.sroa.5.0._0.sroa_idx.i, ptr noundef nonnull align 8 dereferenceable(72) %62, i64 72, i1 false), !noalias !403
  call void @llvm.lifetime.end.p0(i64 144, ptr nonnull %_11.i2), !noalias !402
  %_14.sroa.4.0._0.sroa_idx.i = getelementptr inbounds nuw i8, ptr %_0, i64 72
  store i64 %_5.i.i, ptr %_14.sroa.4.0._0.sroa_idx.i, align 8, !alias.scope !353, !noalias !403
  br label %bb11

bb5.i3:                                           ; preds = %bb9.i.i.i
  store i64 -9223372036854775801, ptr %_0, align 8, !alias.scope !353, !noalias !403
  br label %bb11
}

; <indexmap::map::IndexMap<serde_yaml::value::Value, serde_yaml::value::Value>>::shift_remove_full::<serde_yaml::mapping::HashLikeValue>
; Function Attrs: uwtable
define internal fastcc void @_RINvMs3_NtCsfSG22zIyQn9_8indexmap3mapINtB6_8IndexMapNtNtCsbHDlgkaPqr9_10serde_yaml5value5ValueBO_E17shift_remove_fullNtNtBS_7mapping13HashLikeValueEBS_(ptr dead_on_unwind noalias noundef nonnull writable writeonly align 8 captures(none) dereferenceable(152) %_0, ptr noalias noundef nonnull align 8 captures(address_is_null) dereferenceable(72) %self, ptr noalias noundef nonnull readonly align 8 captures(none) dereferenceable(16) %key) unnamed_addr #0 personality ptr @rust_eh_personality {
start:
  %_11.i3 = alloca [144 x i8], align 8
  %_8.i.sroa.4.sroa.0 = alloca [64 x i8], align 8
  %_8.i.sroa.4.sroa.2 = alloca [72 x i8], align 8
  %entry.sroa.0.i.sroa.4 = alloca [64 x i8], align 8
  %entry.sroa.0.i.sroa.5 = alloca [72 x i8], align 8
  %0 = getelementptr inbounds nuw i8, ptr %self, i64 16
  %_15 = load i64, ptr %0, align 8, !noundef !2
  switch i64 %_15, label %bb1 [
    i64 1, label %bb4
    i64 0, label %bb3
  ]

bb4:                                              ; preds = %start
  %1 = getelementptr inbounds nuw i8, ptr %self, i64 8
  %_16 = load ptr, ptr %1, align 8, !nonnull !2, !noundef !2
  tail call void @llvm.experimental.noalias.scope.decl(metadata !404)
  tail call void @llvm.experimental.noalias.scope.decl(metadata !407)
  %2 = load i64, ptr %_16, align 8, !range !39, !alias.scope !407, !noalias !404, !noundef !2
  %3 = icmp ne i64 %2, -9223372036854775803
  tail call void @llvm.assume(i1 %3)
  %4 = icmp eq i64 %2, -9223372036854775805
  br i1 %4, label %bb2.i, label %bb3

bb2.i:                                            ; preds = %bb4
  %5 = getelementptr inbounds nuw i8, ptr %key, i64 8
  %_5.1.i = load i64, ptr %5, align 8, !alias.scope !404, !noalias !407, !noundef !2
  %6 = getelementptr inbounds nuw i8, ptr %_16, i64 24
  %_10.i = load i64, ptr %6, align 8, !alias.scope !407, !noalias !404, !noundef !2
  %_3.not.i.i = icmp eq i64 %_5.1.i, %_10.i
  br i1 %_3.not.i.i, label %_RNvXs_NtCsbHDlgkaPqr9_10serde_yaml7mappingNtB4_13HashLikeValueINtCszqFBBEm2l1_10equivalent10EquivalentNtNtB6_5value5ValueE10equivalent.exit, label %bb3

_RNvXs_NtCsbHDlgkaPqr9_10serde_yaml7mappingNtB4_13HashLikeValueINtCszqFBBEm2l1_10equivalent10EquivalentNtNtB6_5value5ValueE10equivalent.exit: ; preds = %bb2.i
  %7 = getelementptr inbounds nuw i8, ptr %_16, i64 16
  %_11.i = load ptr, ptr %7, align 8, !alias.scope !407, !noalias !404, !nonnull !2, !noundef !2
  %_5.0.i = load ptr, ptr %key, align 8, !alias.scope !404, !noalias !407, !nonnull !2, !align !40, !noundef !2
  %8 = tail call i32 @memcmp(ptr nonnull readonly align 1 %_5.0.i, ptr nonnull readonly align 1 %_11.i, i64 range(i64 0, -9223372036854775808) %_5.1.i), !alias.scope !409, !noalias !413
  %9 = icmp eq i32 %8, 0
  br i1 %9, label %bb6.i, label %bb3

bb6.i:                                            ; preds = %_RNvXs_NtCsbHDlgkaPqr9_10serde_yaml7mappingNtB4_13HashLikeValueINtCszqFBBEm2l1_10equivalent10EquivalentNtNtB6_5value5ValueE10equivalent.exit
  tail call void @llvm.experimental.noalias.scope.decl(metadata !414)
  store i64 0, ptr %0, align 8, !alias.scope !414, !noalias !417
  %_19.i = load i64, ptr %self, align 8, !range !90, !alias.scope !414, !noalias !417, !noundef !2
  %_12.i = icmp ne i64 %_19.i, 0
  tail call void @llvm.assume(i1 %_12.i)
  call void @llvm.lifetime.start.p0(i64 64, ptr nonnull %entry.sroa.0.i.sroa.4)
  call void @llvm.lifetime.start.p0(i64 72, ptr nonnull %entry.sroa.0.i.sroa.5)
  %entry.sroa.0.i.sroa.4.0._16.i.sroa_idx = getelementptr inbounds nuw i8, ptr %_16, i64 8
  call void @llvm.memcpy.p0.p0.i64(ptr noundef nonnull align 8 dereferenceable(64) %entry.sroa.0.i.sroa.4, ptr noundef nonnull align 8 dereferenceable(64) %entry.sroa.0.i.sroa.4.0._16.i.sroa_idx, i64 64, i1 false), !noalias !419
  %entry.sroa.0.i.sroa.5.0._16.i.sroa_idx = getelementptr inbounds nuw i8, ptr %_16, i64 72
  call void @llvm.memcpy.p0.p0.i64(ptr noundef nonnull align 8 dereferenceable(72) %entry.sroa.0.i.sroa.5, ptr noundef nonnull align 8 dereferenceable(72) %entry.sroa.0.i.sroa.5.0._16.i.sroa_idx, i64 72, i1 false), !noalias !419
  %_15.sroa.4.0._16.sroa_idx.i = getelementptr inbounds nuw i8, ptr %_16, i64 144
  %_15.sroa.4.0.copyload.i = load i64, ptr %_15.sroa.4.0._16.sroa_idx.i, align 8, !noalias !419
  %_6.i = getelementptr inbounds nuw i8, ptr %self, i64 24
  tail call void @llvm.experimental.noalias.scope.decl(metadata !420)
  tail call void @llvm.experimental.noalias.scope.decl(metadata !423)
  tail call void @llvm.experimental.noalias.scope.decl(metadata !426)
  %_17.i.i.i.i = lshr i64 %_15.sroa.4.0.copyload.i, 57
  %_18.i.i.i.i = trunc nuw nsw i64 %_17.i.i.i.i to i8
  %10 = getelementptr inbounds nuw i8, ptr %self, i64 32
  %_22.i.i.i.i = load i64, ptr %10, align 8, !alias.scope !429, !noalias !430, !noundef !2
  %_25.i.i.i.i = load ptr, ptr %_6.i, align 8, !alias.scope !429, !noalias !430, !nonnull !2, !noundef !2
  %11 = insertelement <1 x i8> poison, i8 %_18.i.i.i.i, i64 0
  %12 = shufflevector <1 x i8> %11, <1 x i8> poison, <8 x i32> zeroinitializer
  %invariant.gep.i.i.i = getelementptr i8, ptr %_25.i.i.i.i, i64 -8
  br label %bb1.i.i.i.i

bb1.i.i.i.i:                                      ; preds = %bb16.i.i.i.i, %bb6.i
  %probe_seq1.sroa.0.0.i.i.i.i = phi i64 [ 0, %bb6.i ], [ %22, %bb16.i.i.i.i ]
  %hash.pn.i.i.i = phi i64 [ %_15.sroa.4.0.copyload.i, %bb6.i ], [ %23, %bb16.i.i.i.i ]
  %probe_seq.sroa.0.0.i.i.i.i = and i64 %hash.pn.i.i.i, %_22.i.i.i.i
  %_23.i.i.i.i = getelementptr inbounds nuw i8, ptr %_25.i.i.i.i, i64 %probe_seq.sroa.0.0.i.i.i.i
  %tmp.sroa.0.0.copyload.i.i.i.i.i = load <8 x i8>, ptr %_23.i.i.i.i, align 1, !noalias !432
  %13 = icmp eq <8 x i8> %tmp.sroa.0.0.copyload.i.i.i.i.i, %12
  %14 = sext <8 x i1> %13 to <8 x i8>
  %15 = bitcast <8 x i8> %14 to i64
  %16 = and i64 %15, -9187201950435737472
  %.not.i.not10.i.i.i = icmp eq i64 %16, 0
  br i1 %.not.i.not10.i.i.i, label %bb9.i.i.i.i, label %bb8.i.i.i.i

bb8.i.i.i.i:                                      ; preds = %bb1.i.i.i.i, %bb13.i.i.i.i
  %iter.sroa.0.0.i11.i.i.i = phi i64 [ %_38.i.i.i.i, %bb13.i.i.i.i ], [ %16, %bb1.i.i.i.i ]
  %17 = tail call range(i64 1, 65) i64 @llvm.cttz.i64(i64 %iter.sroa.0.0.i11.i.i.i, i1 true)
  %_349.i.i.i.i = lshr i64 %17, 3
  %_10.i.i.i.i = add i64 %_349.i.i.i.i, %probe_seq.sroa.0.0.i.i.i.i
  %index.i.i.i.i = and i64 %_10.i.i.i.i, %_22.i.i.i.i
  %_11.i.i.i.i = sub nsw i64 0, %index.i.i.i.i
  %gep.i.i.i = getelementptr i64, ptr %invariant.gep.i.i.i, i64 %_11.i.i.i.i
  %.val.i.i.i.i = load i64, ptr %gep.i.i.i, align 8, !noalias !437, !noundef !2
  %_0.i.i.i.i.i = icmp eq i64 %.val.i.i.i.i, 0
  br i1 %_0.i.i.i.i.i, label %bb5.i.i, label %bb13.i.i.i.i, !prof !31

bb9.i.i.i.i:                                      ; preds = %bb13.i.i.i.i, %bb1.i.i.i.i
  %18 = icmp eq <8 x i8> %tmp.sroa.0.0.copyload.i.i.i.i.i, splat (i8 -1)
  %19 = bitcast <8 x i1> %18 to i8
  %20 = icmp eq i8 %19, 0
  br i1 %20, label %bb16.i.i.i.i, label %bb14, !prof !32

bb13.i.i.i.i:                                     ; preds = %bb8.i.i.i.i
  %21 = add i64 %iter.sroa.0.0.i11.i.i.i, -1
  %_38.i.i.i.i = and i64 %21, %iter.sroa.0.0.i11.i.i.i
  %.not.i.not.i.i.i = icmp eq i64 %_38.i.i.i.i, 0
  br i1 %.not.i.not.i.i.i, label %bb9.i.i.i.i, label %bb8.i.i.i.i

bb16.i.i.i.i:                                     ; preds = %bb9.i.i.i.i
  %22 = add i64 %probe_seq1.sroa.0.0.i.i.i.i, 8
  %23 = add i64 %probe_seq.sroa.0.0.i.i.i.i, %22
  br label %bb1.i.i.i.i

bb5.i.i:                                          ; preds = %bb8.i.i.i.i
  tail call void @llvm.experimental.noalias.scope.decl(metadata !440)
  tail call void @llvm.experimental.noalias.scope.decl(metadata !443)
  tail call void @llvm.experimental.noalias.scope.decl(metadata !446)
  %_4.i.i.i.i.i = add nsw i64 %index.i.i.i.i, -8
  %index_before.i.i.i.i.i = and i64 %_4.i.i.i.i.i, %_22.i.i.i.i
  %_15.i.i.i.i.i = getelementptr inbounds nuw i8, ptr %_25.i.i.i.i, i64 %index_before.i.i.i.i.i
  %tmp.sroa.0.0.copyload.i.i.i.i.i.i.i = load <8 x i8>, ptr %_15.i.i.i.i.i, align 1, !noalias !449
  %24 = icmp eq <8 x i8> %tmp.sroa.0.0.copyload.i.i.i.i.i.i.i, splat (i8 -1)
  %25 = sext <8 x i1> %24 to <8 x i8>
  %26 = bitcast <8 x i8> %25 to i64
  %_20.i.i.i.i.i = getelementptr inbounds nuw i8, ptr %_25.i.i.i.i, i64 %index.i.i.i.i
  %tmp.sroa.0.0.copyload.i.i6.i.i.i.i.i = load <8 x i8>, ptr %_20.i.i.i.i.i, align 1, !noalias !454
  %27 = icmp eq <8 x i8> %tmp.sroa.0.0.copyload.i.i6.i.i.i.i.i, splat (i8 -1)
  %28 = sext <8 x i1> %27 to <8 x i8>
  %29 = bitcast <8 x i8> %28 to i64
  %30 = tail call range(i64 0, 65) i64 @llvm.ctlz.i64(i64 %26, i1 false)
  %_133.i.i.i.i.i = lshr i64 %30, 3
  %31 = tail call range(i64 0, 65) i64 @llvm.cttz.i64(i64 %29, i1 false)
  %_144.i.i.i.i.i = lshr i64 %31, 3
  %_12.i.i.i.i.i = add nuw nsw i64 %_144.i.i.i.i.i, %_133.i.i.i.i.i
  %_11.i.i.i.i.i = icmp samesign ugt i64 %_12.i.i.i.i.i, 7
  br i1 %_11.i.i.i.i.i, label %_RNvMs6_NtCs2iGD339VwsL_9hashbrown3rawINtB5_8RawTablejE6removeCsbHDlgkaPqr9_10serde_yaml.exit.i.i, label %bb2.i.i.i.i.i

bb2.i.i.i.i.i:                                    ; preds = %bb5.i.i
  %32 = getelementptr inbounds nuw i8, ptr %self, i64 40
  %33 = load i64, ptr %32, align 8, !alias.scope !459, !noalias !417, !noundef !2
  %34 = add i64 %33, 1
  store i64 %34, ptr %32, align 8, !alias.scope !459, !noalias !417
  br label %_RNvMs6_NtCs2iGD339VwsL_9hashbrown3rawINtB5_8RawTablejE6removeCsbHDlgkaPqr9_10serde_yaml.exit.i.i

_RNvMs6_NtCs2iGD339VwsL_9hashbrown3rawINtB5_8RawTablejE6removeCsbHDlgkaPqr9_10serde_yaml.exit.i.i: ; preds = %bb2.i.i.i.i.i, %bb5.i.i
  %ctrl.sroa.0.0.i.i.i.i.i = phi i8 [ -1, %bb2.i.i.i.i.i ], [ -128, %bb5.i.i ]
  store i8 %ctrl.sroa.0.0.i.i.i.i.i, ptr %_20.i.i.i.i.i, align 1, !noalias !460
  %_38.i.i.i.i.i = getelementptr i8, ptr %_15.i.i.i.i.i, i64 8
  store i8 %ctrl.sroa.0.0.i.i.i.i.i, ptr %_38.i.i.i.i.i, align 1, !noalias !460
  %35 = getelementptr inbounds nuw i8, ptr %self, i64 48
  %36 = load i64, ptr %35, align 8, !alias.scope !459, !noalias !417, !noundef !2
  %37 = add i64 %36, -1
  store i64 %37, ptr %35, align 8, !alias.scope !459, !noalias !417
  br label %bb14

bb3:                                              ; preds = %bb2.i, %bb4, %_RNvXs_NtCsbHDlgkaPqr9_10serde_yaml7mappingNtB4_13HashLikeValueINtCszqFBBEm2l1_10equivalent10EquivalentNtNtB6_5value5ValueE10equivalent.exit, %start
  store i64 -9223372036854775801, ptr %_0, align 8
  br label %bb11

bb14:                                             ; preds = %bb9.i.i.i.i, %_RNvMs6_NtCs2iGD339VwsL_9hashbrown3rawINtB5_8RawTablejE6removeCsbHDlgkaPqr9_10serde_yaml.exit.i.i
  call void @llvm.memcpy.p0.p0.i64(ptr noundef nonnull align 8 dereferenceable(64) %_8.i.sroa.4.sroa.0, ptr noundef nonnull align 8 dereferenceable(64) %entry.sroa.0.i.sroa.4, i64 64, i1 false)
  call void @llvm.memcpy.p0.p0.i64(ptr noundef nonnull align 8 dereferenceable(72) %_8.i.sroa.4.sroa.2, ptr noundef nonnull align 8 dereferenceable(72) %entry.sroa.0.i.sroa.5, i64 72, i1 false)
  call void @llvm.lifetime.end.p0(i64 64, ptr nonnull %entry.sroa.0.i.sroa.4)
  call void @llvm.lifetime.end.p0(i64 72, ptr nonnull %entry.sroa.0.i.sroa.5)
  %_10.sroa.0.sroa.4.0._0.sroa_idx = getelementptr inbounds nuw i8, ptr %_0, i64 8
  call void @llvm.memcpy.p0.p0.i64(ptr noundef nonnull align 8 dereferenceable(64) %_10.sroa.0.sroa.4.0._0.sroa_idx, ptr noundef nonnull align 8 dereferenceable(64) %_8.i.sroa.4.sroa.0, i64 64, i1 false)
  %_10.sroa.5.0._0.sroa_idx = getelementptr inbounds nuw i8, ptr %_0, i64 80
  call void @llvm.memcpy.p0.p0.i64(ptr noundef nonnull align 8 dereferenceable(72) %_10.sroa.5.0._0.sroa_idx, ptr noundef nonnull align 8 dereferenceable(72) %_8.i.sroa.4.sroa.2, i64 72, i1 false)
  store i64 -9223372036854775805, ptr %_0, align 8
  %_10.sroa.4.0._0.sroa_idx = getelementptr inbounds nuw i8, ptr %_0, i64 72
  store i64 0, ptr %_10.sroa.4.0._0.sroa_idx, align 8
  br label %bb11

bb11:                                             ; preds = %bb5.i5, %_RNvMs6_NtCs2iGD339VwsL_9hashbrown3rawINtB5_8RawTablejE6removeCsbHDlgkaPqr9_10serde_yaml.exit.i, %bb3, %bb14
  ret void

bb1:                                              ; preds = %start
  %_18 = getelementptr inbounds nuw i8, ptr %self, i64 56
  %_18.val = load i64, ptr %_18, align 8, !noundef !2
  %38 = getelementptr inbounds nuw i8, ptr %self, i64 64
  %_18.val1 = load i64, ptr %38, align 8, !noundef !2
; call <std::hash::random::RandomState as core::hash::BuildHasher>::hash_one::<&serde_yaml::mapping::HashLikeValue>
  %_17 = tail call fastcc noundef i64 @_RINvYNtNtNtCs5sEH5CPMdak_3std4hash6random11RandomStateNtNtCsjMrxcFdYDNN_4core4hash11BuildHasher8hash_oneRNtNtCsbHDlgkaPqr9_10serde_yaml7mapping13HashLikeValueEB1J_(i64 %_18.val, i64 %_18.val1, ptr noalias noundef readonly align 8 captures(address, read_provenance) dereferenceable(16) %key)
  tail call void @llvm.experimental.noalias.scope.decl(metadata !461)
  tail call void @llvm.experimental.noalias.scope.decl(metadata !464)
  tail call void @llvm.experimental.noalias.scope.decl(metadata !466)
  %39 = getelementptr inbounds nuw i8, ptr %self, i64 8
  %_18.i = load ptr, ptr %39, align 8, !alias.scope !464, !noalias !468, !nonnull !2, !noundef !2
  %_7.i = getelementptr inbounds nuw i8, ptr %self, i64 24
  tail call void @llvm.experimental.noalias.scope.decl(metadata !469)
  tail call void @llvm.experimental.noalias.scope.decl(metadata !472)
  %_17.i.i.i = lshr i64 %_17, 57
  %_18.i.i.i = trunc nuw nsw i64 %_17.i.i.i to i8
  %40 = getelementptr inbounds nuw i8, ptr %self, i64 32
  %_22.i.i.i = load i64, ptr %40, align 8, !alias.scope !475, !noalias !476, !noundef !2
  %_25.i.i.i = load ptr, ptr %_7.i, align 8, !alias.scope !475, !noalias !476, !nonnull !2, !noundef !2
  %41 = insertelement <1 x i8> poison, i8 %_18.i.i.i, i64 0
  %42 = shufflevector <1 x i8> %41, <1 x i8> poison, <8 x i32> zeroinitializer
  %invariant.gep.i.i = getelementptr i8, ptr %_25.i.i.i, i64 -8
  %43 = getelementptr inbounds nuw i8, ptr %key, i64 8
  %_5.1.i.i.i.i.i = load i64, ptr %43, align 8, !alias.scope !466, !noalias !479
  %_5.0.i.i.i.i.i = load ptr, ptr %key, align 8, !alias.scope !466, !noalias !479, !nonnull !2, !align !40
  br label %bb1.i.i.i

bb1.i.i.i:                                        ; preds = %bb16.i.i.i, %bb1
  %probe_seq1.sroa.0.0.i.i.i = phi i64 [ 0, %bb1 ], [ %60, %bb16.i.i.i ]
  %hash.pn.i.i = phi i64 [ %_17, %bb1 ], [ %61, %bb16.i.i.i ]
  %probe_seq.sroa.0.0.i.i.i = and i64 %hash.pn.i.i, %_22.i.i.i
  %_23.i.i.i = getelementptr inbounds nuw i8, ptr %_25.i.i.i, i64 %probe_seq.sroa.0.0.i.i.i
  %tmp.sroa.0.0.copyload.i.i.i.i = load <8 x i8>, ptr %_23.i.i.i, align 1, !noalias !480
  %44 = icmp eq <8 x i8> %tmp.sroa.0.0.copyload.i.i.i.i, %42
  %45 = sext <8 x i1> %44 to <8 x i8>
  %46 = bitcast <8 x i8> %45 to i64
  %47 = and i64 %46, -9187201950435737472
  %.not.i.not16.i.i = icmp eq i64 %47, 0
  br i1 %.not.i.not16.i.i, label %bb9.i.i.i, label %bb8.i.i.i

bb8.i.i.i:                                        ; preds = %bb1.i.i.i, %bb13.i.i.i
  %iter.sroa.0.0.i17.i.i = phi i64 [ %_38.i.i.i, %bb13.i.i.i ], [ %47, %bb1.i.i.i ]
  %48 = tail call range(i64 1, 65) i64 @llvm.cttz.i64(i64 %iter.sroa.0.0.i17.i.i, i1 true)
  %_349.i.i.i = lshr i64 %48, 3
  %_10.i.i.i = add i64 %_349.i.i.i, %probe_seq.sroa.0.0.i.i.i
  %index.i.i.i = and i64 %_10.i.i.i, %_22.i.i.i
  %_11.i.i.i = sub nsw i64 0, %index.i.i.i
  %gep.i.i = getelementptr i64, ptr %invariant.gep.i.i, i64 %_11.i.i.i
  %.val.i.i.i = load i64, ptr %gep.i.i, align 8, !noalias !485, !noundef !2
  %_6.i.i.i.i = icmp ult i64 %.val.i.i.i, %_15
  br i1 %_6.i.i.i.i, label %bb1.i.i.i.i4, label %panic.i.i.i.i

bb1.i.i.i.i4:                                     ; preds = %bb8.i.i.i
  %_4.i.i.i.i = getelementptr inbounds nuw %"indexmap::Bucket<value::Value, value::Value>", ptr %_18.i, i64 %.val.i.i.i
  tail call void @llvm.experimental.noalias.scope.decl(metadata !488), !noalias !491
  %49 = load i64, ptr %_4.i.i.i.i, align 8, !range !39, !alias.scope !488, !noalias !492, !noundef !2
  %50 = icmp ne i64 %49, -9223372036854775803
  tail call void @llvm.assume(i1 %50), !noalias !491
  %51 = icmp eq i64 %49, -9223372036854775805
  br i1 %51, label %bb2.i.i.i.i.i6, label %bb13.i.i.i, !prof !77

bb2.i.i.i.i.i6:                                   ; preds = %bb1.i.i.i.i4
  %52 = getelementptr inbounds nuw i8, ptr %_4.i.i.i.i, i64 24
  %_10.i.i.i.i.i = load i64, ptr %52, align 8, !alias.scope !488, !noalias !492, !noundef !2
  %_3.not.i.i.i.i.i.i = icmp eq i64 %_5.1.i.i.i.i.i, %_10.i.i.i.i.i
  br i1 %_3.not.i.i.i.i.i.i, label %_RNCINvMs6_NtCs2iGD339VwsL_9hashbrown3rawINtB8_8RawTablejE4findNCINvNtNtCsfSG22zIyQn9_8indexmap3map4core10equivalentNtNtCsbHDlgkaPqr9_10serde_yaml5value5ValueB1P_NtNtB1T_7mapping13HashLikeValueE0E0B1T_.exit.i.i, label %bb13.i.i.i, !prof !77

panic.i.i.i.i:                                    ; preds = %bb8.i.i.i
; call core::panicking::panic_bounds_check
  tail call void @_RNvNtCsjMrxcFdYDNN_4core9panicking18panic_bounds_check(i64 noundef %.val.i.i.i, i64 noundef %_15, ptr noalias noundef readonly align 8 captures(address, read_provenance) dereferenceable(24) @alloc_9f8525899d72254738d4324b7a87b3ce) #42, !noalias !496
  unreachable

_RNCINvMs6_NtCs2iGD339VwsL_9hashbrown3rawINtB8_8RawTablejE4findNCINvNtNtCsfSG22zIyQn9_8indexmap3map4core10equivalentNtNtCsbHDlgkaPqr9_10serde_yaml5value5ValueB1P_NtNtB1T_7mapping13HashLikeValueE0E0B1T_.exit.i.i: ; preds = %bb2.i.i.i.i.i6
  %53 = getelementptr inbounds nuw i8, ptr %_4.i.i.i.i, i64 16
  %_11.i.i.i.i.i7 = load ptr, ptr %53, align 8, !alias.scope !488, !noalias !492, !nonnull !2, !noundef !2
  %54 = tail call i32 @memcmp(ptr nonnull readonly align 1 %_5.0.i.i.i.i.i, ptr nonnull readonly align 1 %_11.i.i.i.i.i7, i64 range(i64 0, -9223372036854775808) %_5.1.i.i.i.i.i), !alias.scope !497, !noalias !501
  %55 = icmp eq i32 %54, 0
  br i1 %55, label %bb6.i8, label %bb13.i.i.i, !prof !84

bb9.i.i.i:                                        ; preds = %bb13.i.i.i, %bb1.i.i.i
  %56 = icmp eq <8 x i8> %tmp.sroa.0.0.copyload.i.i.i.i, splat (i8 -1)
  %57 = bitcast <8 x i1> %56 to i8
  %58 = icmp eq i8 %57, 0
  br i1 %58, label %bb16.i.i.i, label %bb5.i5, !prof !32

bb13.i.i.i:                                       ; preds = %_RNCINvMs6_NtCs2iGD339VwsL_9hashbrown3rawINtB8_8RawTablejE4findNCINvNtNtCsfSG22zIyQn9_8indexmap3map4core10equivalentNtNtCsbHDlgkaPqr9_10serde_yaml5value5ValueB1P_NtNtB1T_7mapping13HashLikeValueE0E0B1T_.exit.i.i, %bb2.i.i.i.i.i6, %bb1.i.i.i.i4
  %59 = add i64 %iter.sroa.0.0.i17.i.i, -1
  %_38.i.i.i = and i64 %59, %iter.sroa.0.0.i17.i.i
  %.not.i.not.i.i = icmp eq i64 %_38.i.i.i, 0
  br i1 %.not.i.not.i.i, label %bb9.i.i.i, label %bb8.i.i.i

bb16.i.i.i:                                       ; preds = %bb9.i.i.i
  %60 = add i64 %probe_seq1.sroa.0.0.i.i.i, 8
  %61 = add i64 %probe_seq.sroa.0.0.i.i.i, %60
  br label %bb1.i.i.i

bb6.i8:                                           ; preds = %_RNCINvMs6_NtCs2iGD339VwsL_9hashbrown3rawINtB8_8RawTablejE4findNCINvNtNtCsfSG22zIyQn9_8indexmap3map4core10equivalentNtNtCsbHDlgkaPqr9_10serde_yaml5value5ValueB1P_NtNtB1T_7mapping13HashLikeValueE0E0B1T_.exit.i.i
  %62 = getelementptr inbounds i64, ptr %_25.i.i.i, i64 %_11.i.i.i
  tail call void @llvm.experimental.noalias.scope.decl(metadata !502)
  tail call void @llvm.experimental.noalias.scope.decl(metadata !505)
  tail call void @llvm.experimental.noalias.scope.decl(metadata !508)
  %_4.i.i.i5.i = add nsw i64 %index.i.i.i, -8
  %index_before.i.i.i.i = and i64 %_4.i.i.i5.i, %_22.i.i.i
  %_15.i.i.i.i = getelementptr inbounds nuw i8, ptr %_25.i.i.i, i64 %index_before.i.i.i.i
  %tmp.sroa.0.0.copyload.i.i.i.i.i.i = load <8 x i8>, ptr %_15.i.i.i.i, align 1, !noalias !511
  %63 = icmp eq <8 x i8> %tmp.sroa.0.0.copyload.i.i.i.i.i.i, splat (i8 -1)
  %64 = sext <8 x i1> %63 to <8 x i8>
  %65 = bitcast <8 x i8> %64 to i64
  %_20.i.i.i.i = getelementptr inbounds nuw i8, ptr %_25.i.i.i, i64 %index.i.i.i
  %tmp.sroa.0.0.copyload.i.i6.i.i.i.i = load <8 x i8>, ptr %_20.i.i.i.i, align 1, !noalias !516
  %66 = icmp eq <8 x i8> %tmp.sroa.0.0.copyload.i.i6.i.i.i.i, splat (i8 -1)
  %67 = sext <8 x i1> %66 to <8 x i8>
  %68 = bitcast <8 x i8> %67 to i64
  %69 = tail call range(i64 0, 65) i64 @llvm.ctlz.i64(i64 %65, i1 false)
  %_133.i.i.i.i = lshr i64 %69, 3
  %70 = tail call range(i64 0, 65) i64 @llvm.cttz.i64(i64 %68, i1 false)
  %_144.i.i.i.i = lshr i64 %70, 3
  %_12.i.i.i.i = add nuw nsw i64 %_144.i.i.i.i, %_133.i.i.i.i
  %_11.i.i.i.i9 = icmp samesign ugt i64 %_12.i.i.i.i, 7
  br i1 %_11.i.i.i.i9, label %_RNvMs6_NtCs2iGD339VwsL_9hashbrown3rawINtB5_8RawTablejE6removeCsbHDlgkaPqr9_10serde_yaml.exit.i, label %bb2.i.i.i.i

bb2.i.i.i.i:                                      ; preds = %bb6.i8
  %71 = getelementptr inbounds nuw i8, ptr %self, i64 40
  %72 = load i64, ptr %71, align 8, !alias.scope !521, !noalias !468, !noundef !2
  %73 = add i64 %72, 1
  store i64 %73, ptr %71, align 8, !alias.scope !521, !noalias !468
  br label %_RNvMs6_NtCs2iGD339VwsL_9hashbrown3rawINtB5_8RawTablejE6removeCsbHDlgkaPqr9_10serde_yaml.exit.i

_RNvMs6_NtCs2iGD339VwsL_9hashbrown3rawINtB5_8RawTablejE6removeCsbHDlgkaPqr9_10serde_yaml.exit.i: ; preds = %bb2.i.i.i.i, %bb6.i8
  %ctrl.sroa.0.0.i.i.i.i = phi i8 [ -1, %bb2.i.i.i.i ], [ -128, %bb6.i8 ]
  store i8 %ctrl.sroa.0.0.i.i.i.i, ptr %_20.i.i.i.i, align 1, !noalias !522
  %_38.i.i.i.i10 = getelementptr i8, ptr %_15.i.i.i.i, i64 8
  store i8 %ctrl.sroa.0.0.i.i.i.i, ptr %_38.i.i.i.i10, align 1, !noalias !522
  %74 = getelementptr inbounds nuw i8, ptr %self, i64 48
  %75 = load i64, ptr %74, align 8, !alias.scope !521, !noalias !468, !noundef !2
  %76 = add i64 %75, -1
  store i64 %76, ptr %74, align 8, !alias.scope !521, !noalias !468
  %77 = getelementptr inbounds i8, ptr %62, i64 -8
  %_5.i.i = load i64, ptr %77, align 8, !noalias !523, !noundef !2
  call void @llvm.lifetime.start.p0(i64 144, ptr nonnull %_11.i3), !noalias !524
; call <indexmap::map::core::RefMut<serde_yaml::value::Value, serde_yaml::value::Value>>::shift_remove_finish
  call fastcc void @_RNvMs0_NtNtCsfSG22zIyQn9_8indexmap3map4coreINtB5_6RefMutNtNtCsbHDlgkaPqr9_10serde_yaml5value5ValueBS_E19shift_remove_finishBW_(ptr noalias noundef align 8 captures(none) dereferenceable(144) %_11.i3, ptr nonnull %_7.i, ptr nonnull align 8 dereferenceable(56) %self, i64 noundef %_5.i.i), !noalias !468
  call void @llvm.memcpy.p0.p0.i64(ptr noundef nonnull align 8 dereferenceable(152) %_0, ptr noundef nonnull align 8 dereferenceable(72) %_11.i3, i64 72, i1 false), !noalias !525
  %78 = getelementptr inbounds nuw i8, ptr %_11.i3, i64 72
  %_14.sroa.5.0._0.sroa_idx.i = getelementptr inbounds nuw i8, ptr %_0, i64 80
  call void @llvm.memcpy.p0.p0.i64(ptr noundef nonnull align 8 dereferenceable(72) %_14.sroa.5.0._0.sroa_idx.i, ptr noundef nonnull align 8 dereferenceable(72) %78, i64 72, i1 false), !noalias !525
  call void @llvm.lifetime.end.p0(i64 144, ptr nonnull %_11.i3), !noalias !524
  %_14.sroa.4.0._0.sroa_idx.i = getelementptr inbounds nuw i8, ptr %_0, i64 72
  store i64 %_5.i.i, ptr %_14.sroa.4.0._0.sroa_idx.i, align 8, !alias.scope !461, !noalias !525
  br label %bb11

bb5.i5:                                           ; preds = %bb9.i.i.i
  store i64 -9223372036854775801, ptr %_0, align 8, !alias.scope !461, !noalias !525
  br label %bb11
}

; <hashbrown::raw::RawTable<usize>>::reserve_rehash::<indexmap::map::core::get_hash<serde_yaml::value::Value, serde_yaml::value::Value>::{closure#0}>
; Function Attrs: cold noinline uwtable
define { i64, i64 } @_RINvMs6_NtCs2iGD339VwsL_9hashbrown3rawINtB6_8RawTablejE14reserve_rehashNCINvNtNtCsfSG22zIyQn9_8indexmap3map4core8get_hashNtNtCsbHDlgkaPqr9_10serde_yaml5value5ValueB1V_E0EB1Z_(ptr noalias noundef align 8 dereferenceable(32) %self, i64 noundef %additional, ptr noalias noundef nonnull readonly align 8 captures(none) %0, i64 noundef %1, i1 noundef zeroext %fallibility) unnamed_addr #1 personality ptr @rust_eh_personality {
start:
  %guard.i = alloca [24 x i8], align 8
  %new_table.i.i = alloca [56 x i8], align 8
  %_6 = getelementptr inbounds nuw i8, ptr %self, i64 32
  tail call void @llvm.experimental.noalias.scope.decl(metadata !526)
  %2 = getelementptr inbounds nuw i8, ptr %self, i64 24
  %_9.i = load i64, ptr %2, align 8, !alias.scope !526, !noalias !529, !noundef !2
  %_21.0.i = add i64 %_9.i, %additional
  %_21.1.i = icmp ult i64 %_21.0.i, %_9.i
  br i1 %_21.1.i, label %bb9.i, label %bb11.i, !prof !32

bb11.i:                                           ; preds = %start
  %3 = getelementptr inbounds nuw i8, ptr %self, i64 8
  %4 = load i64, ptr %3, align 8, !alias.scope !526, !noalias !529, !noundef !2
  %_24.i = icmp ult i64 %4, 8
  %_26.i = add i64 %4, 1
  %_254.i = lshr i64 %_26.i, 3
  %5 = mul nuw i64 %_254.i, 7
  %full_capacity.sroa.0.0.i = select i1 %_24.i, i64 %4, i64 %5
  %_145.i = lshr i64 %full_capacity.sroa.0.0.i, 1
  %_13.not.i = icmp ugt i64 %_21.0.i, %_145.i
  br i1 %_13.not.i, label %bb4.i, label %bb2.i

bb9.i:                                            ; preds = %start
; call <hashbrown::raw::Fallibility>::capacity_overflow
  %6 = tail call { i64, i64 } @_RNvMNtCs2iGD339VwsL_9hashbrown3rawNtB2_11Fallibility17capacity_overflow(i1 noundef zeroext %fallibility), !noalias !531
  %_11.0.i = extractvalue { i64, i64 } %6, 0
  %_11.1.i = extractvalue { i64, i64 } %6, 1
  br label %_RINvMsa_NtCs2iGD339VwsL_9hashbrown3rawNtB6_13RawTableInner20reserve_rehash_innerNtNtNtB6_5alloc5inner6GlobalECsbHDlgkaPqr9_10serde_yaml.exit

bb4.i:                                            ; preds = %bb11.i
  %_19.i = add nuw i64 %full_capacity.sroa.0.0.i, 1
  %_0.sroa.0.0.i6 = tail call noundef i64 @llvm.umax.i64(i64 %_19.i, i64 %_21.0.i)
  tail call void @llvm.experimental.noalias.scope.decl(metadata !532)
  call void @llvm.lifetime.start.p0(i64 56, ptr nonnull %new_table.i.i), !noalias !535
  %_6.i.i = icmp ult i64 %_0.sroa.0.0.i6, 15
  br i1 %_6.i.i, label %bb10.thread.i, label %bb13.i.i8

bb13.i.i8:                                        ; preds = %bb4.i
  %_22.1.i.i = icmp ugt i64 %_0.sroa.0.0.i6, 2305843009213693951
  br i1 %_22.1.i.i, label %bb9.i11, label %bb10.i, !prof !32

bb10.thread.i:                                    ; preds = %bb4.i
  %_13.i.i = icmp samesign ult i64 %_0.sroa.0.0.i6, 4
  %7 = and i64 %_0.sroa.0.0.i6, 8
  %..i.i = add nuw nsw i64 %7, 8
  %_12.sroa.0.0.i.i = select i1 %_13.i.i, i64 4, i64 %..i.i
  br label %bb11.i.i.i

bb10.i:                                           ; preds = %bb13.i.i8
  %_22.0.i.i = shl nuw i64 %_0.sroa.0.0.i6, 3
  %adjusted_cap.i.i = udiv i64 %_22.0.i.i, 7
  %_30.i.i = add nsw i64 %adjusted_cap.i.i, -1
  %8 = tail call range(i64 0, 65) i64 @llvm.ctlz.i64(i64 %_30.i.i, i1 true)
  %9 = lshr i64 -1, %8
  %10 = add nuw nsw i64 %9, 1
  %_24.1.i.i.i = icmp samesign ugt i64 %9, 2305843009213693950
  br i1 %_24.1.i.i.i, label %bb3.i.i, label %bb11.i.i.i, !prof !537

bb11.i.i.i:                                       ; preds = %bb10.i, %bb10.thread.i
  %_0.sroa.4.0.i.ph8.i = phi i64 [ %_12.sroa.0.0.i.i, %bb10.thread.i ], [ %10, %bb10.i ]
  %_24.0.i.i.i = shl nuw i64 %_0.sroa.4.0.i.ph8.i, 3
  %_16.i.i.i = add nuw nsw i64 %_0.sroa.4.0.i.ph8.i, 8
  %_36.0.i.i.i = add i64 %_16.i.i.i, %_24.0.i.i.i
  %_36.1.i.i.i = icmp ult i64 %_36.0.i.i.i, %_24.0.i.i.i
  %_18.i.i.i = icmp ugt i64 %_36.0.i.i.i, 9223372036854775800
  %or.cond.i.i = or i1 %_36.1.i.i.i, %_18.i.i.i
  br i1 %or.cond.i.i, label %bb3.i.i, label %bb4.i.i9, !prof !538

bb4.i.i9:                                         ; preds = %bb11.i.i.i
; call __rustc::__rust_no_alloc_shim_is_unstable_v2
  tail call void @_RNvCsKhRCbHf33p_7___rustc35___rust_no_alloc_shim_is_unstable_v2() #43, !noalias !539
; call __rustc::__rust_alloc
  %_4.i.i.i = tail call noalias noundef align 8 ptr @_RNvCsKhRCbHf33p_7___rustc12___rust_alloc(i64 noundef %_36.0.i.i.i, i64 noundef range(i64 1, -9223372036854775807) 8) #43, !noalias !539
  %11 = icmp eq ptr %_4.i.i.i, null
  br i1 %11, label %bb6.i.i10, label %_RINvMsa_NtCs2iGD339VwsL_9hashbrown3rawNtB6_13RawTableInner22fallible_with_capacityNtNtNtB6_5alloc5inner6GlobalECsbHDlgkaPqr9_10serde_yaml.exit

bb3.i.i:                                          ; preds = %bb11.i.i.i, %bb10.i
; call <hashbrown::raw::Fallibility>::capacity_overflow
  %12 = tail call { i64, i64 } @_RNvMNtCs2iGD339VwsL_9hashbrown3rawNtB2_11Fallibility17capacity_overflow(i1 noundef zeroext %fallibility), !noalias !539
  br label %bb12.i.i

bb6.i.i10:                                        ; preds = %bb4.i.i9
; call <hashbrown::raw::Fallibility>::alloc_err
  %13 = tail call { i64, i64 } @_RNvMNtCs2iGD339VwsL_9hashbrown3rawNtB2_11Fallibility9alloc_err(i1 noundef zeroext %fallibility, i64 noundef 8, i64 noundef %_36.0.i.i.i), !noalias !539
  br label %bb12.i.i

bb9.i11:                                          ; preds = %bb13.i.i8
; call <hashbrown::raw::Fallibility>::capacity_overflow
  %14 = tail call { i64, i64 } @_RNvMNtCs2iGD339VwsL_9hashbrown3rawNtB2_11Fallibility17capacity_overflow(i1 noundef zeroext %fallibility), !noalias !544
  br label %bb12.i.i

_RINvMsa_NtCs2iGD339VwsL_9hashbrown3rawNtB6_13RawTableInner22fallible_with_capacityNtNtNtB6_5alloc5inner6GlobalECsbHDlgkaPqr9_10serde_yaml.exit: ; preds = %bb4.i.i9
  %_16.i.i = add nsw i64 %_0.sroa.4.0.i.ph8.i, -1
  %_21.i.i = icmp samesign ult i64 %_16.i.i, 8
  %_221.i.i = lshr i64 %_0.sroa.4.0.i.ph8.i, 3
  %15 = mul nuw nsw i64 %_221.i.i, 7
  %_17.sroa.0.0.i.i = select i1 %_21.i.i, i64 %_16.i.i, i64 %15
  %_14.i.i = getelementptr inbounds nuw i8, ptr %_4.i.i.i, i64 %_24.0.i.i.i
  tail call void @llvm.memset.p0.i64(ptr noundef nonnull align 8 dereferenceable(1) %_14.i.i, i8 -1, i64 %_16.i.i.i, i1 false), !noalias !544
  store ptr %_6, ptr %new_table.i.i, align 8, !noalias !535
  %val.sroa.4.0.new_table.sroa_idx.i.i = getelementptr inbounds nuw i8, ptr %new_table.i.i, i64 8
  store <2 x i64> splat (i64 8), ptr %val.sroa.4.0.new_table.sroa_idx.i.i, align 8, !noalias !535
  %val.sroa.6.0.new_table.sroa_idx.i.i = getelementptr inbounds nuw i8, ptr %new_table.i.i, i64 24
  store ptr %_14.i.i, ptr %val.sroa.6.0.new_table.sroa_idx.i.i, align 8, !noalias !535
  %val.sroa.6.sroa.4.0.val.sroa.6.0.new_table.sroa_idx.sroa_idx.i.i = getelementptr inbounds nuw i8, ptr %new_table.i.i, i64 32
  store i64 %_16.i.i, ptr %val.sroa.6.sroa.4.0.val.sroa.6.0.new_table.sroa_idx.sroa_idx.i.i, align 8, !noalias !535
  %val.sroa.6.sroa.5.0.val.sroa.6.0.new_table.sroa_idx.sroa_idx.i.i = getelementptr inbounds nuw i8, ptr %new_table.i.i, i64 40
  store i64 %_17.sroa.0.0.i.i, ptr %val.sroa.6.sroa.5.0.val.sroa.6.0.new_table.sroa_idx.sroa_idx.i.i, align 8, !noalias !535
  %val.sroa.6.sroa.6.0.val.sroa.6.0.new_table.sroa_idx.sroa_idx.i.i = getelementptr inbounds nuw i8, ptr %new_table.i.i, i64 48
  store i64 0, ptr %val.sroa.6.sroa.6.0.val.sroa.6.0.new_table.sroa_idx.sroa_idx.i.i, align 8, !noalias !535
  %_48.i.i = load i64, ptr %2, align 8, !alias.scope !545, !noalias !546, !noundef !2
  %invariant.gep = getelementptr i8, ptr %_14.i.i, i64 8
  %16 = icmp eq i64 %_48.i.i, 0
  %17 = ptrtoint ptr %_14.i.i to i64
  br i1 %16, label %_RINvMsa_NtCs2iGD339VwsL_9hashbrown3rawNtB6_13RawTableInner22fallible_with_capacityNtNtNtB6_5alloc5inner6GlobalECsbHDlgkaPqr9_10serde_yaml.exit.bb4.i.i_crit_edge, label %bb1.i.preheader.lr.ph

_RINvMsa_NtCs2iGD339VwsL_9hashbrown3rawNtB6_13RawTableInner22fallible_with_capacityNtNtNtB6_5alloc5inner6GlobalECsbHDlgkaPqr9_10serde_yaml.exit.bb4.i.i_crit_edge: ; preds = %_RINvMsa_NtCs2iGD339VwsL_9hashbrown3rawNtB6_13RawTableInner22fallible_with_capacityNtNtNtB6_5alloc5inner6GlobalECsbHDlgkaPqr9_10serde_yaml.exit
  %_3.sroa.0.0.copyload.i.i.i.i.i.pre = load i64, ptr %self, align 8, !alias.scope !547, !noalias !550
  %_3.sroa.0.0.copyload.i.i.i.i.i.pre.ptr = inttoptr i64 %_3.sroa.0.0.copyload.i.i.i.i.i.pre to ptr
  br label %bb4.i.i

bb1.i.preheader.lr.ph:                            ; preds = %_RINvMsa_NtCs2iGD339VwsL_9hashbrown3rawNtB6_13RawTableInner22fallible_with_capacityNtNtNtB6_5alloc5inner6GlobalECsbHDlgkaPqr9_10serde_yaml.exit
  %_49.i.i = load ptr, ptr %self, align 8, !alias.scope !545, !noalias !546, !nonnull !2, !noundef !2
  %tmp.sroa.0.0.copyload.i.i = load <8 x i8>, ptr %_49.i.i, align 1, !noalias !552
  %18 = icmp sgt <8 x i8> %tmp.sroa.0.0.copyload.i.i, splat (i8 -1)
  %19 = sext <8 x i1> %18 to <8 x i8>
  %20 = bitcast <8 x i8> %19 to i64
  %_53.i.i = and i64 %20, -9187201950435737472
  %invariant.gep90 = getelementptr i8, ptr %_49.i.i, i64 -8
  br label %bb1.i.preheader

bb12.i.i:                                         ; preds = %bb3.i.i, %bb6.i.i10, %bb9.i11
  %.pn = phi { i64, i64 } [ %14, %bb9.i11 ], [ %13, %bb6.i.i10 ], [ %12, %bb3.i.i ]
  %_31.i.i.sroa.7.066 = extractvalue { i64, i64 } %.pn, 0
  %_31.i.i.sroa.12.067 = extractvalue { i64, i64 } %.pn, 1
  call void @llvm.lifetime.end.p0(i64 56, ptr nonnull %new_table.i.i), !noalias !535
  br label %_RINvMsa_NtCs2iGD339VwsL_9hashbrown3rawNtB6_13RawTableInner20reserve_rehash_innerNtNtNtB6_5alloc5inner6GlobalECsbHDlgkaPqr9_10serde_yaml.exit

cleanup.i.i:                                      ; preds = %panic.i.i
  %21 = landingpad { ptr, i32 }
          cleanup
; call core::ptr::drop_in_place::<hashbrown::scopeguard::ScopeGuard<hashbrown::raw::RawTableInner, <hashbrown::raw::RawTableInner>::prepare_resize<hashbrown::raw::alloc::inner::Global>::{closure#0}>>
  call fastcc void @_RINvNtCsjMrxcFdYDNN_4core3ptr13drop_in_placeINtNtCs2iGD339VwsL_9hashbrown10scopeguard10ScopeGuardNtNtBL_3raw13RawTableInnerNCINvMsa_B1z_B1x_14prepare_resizeNtNtNtB1z_5alloc5inner6GlobalE0EECsbHDlgkaPqr9_10serde_yaml(ptr noalias noundef align 8 dereferenceable(56) %new_table.i.i) #44
  br label %common.resume

bb1.i.preheader:                                  ; preds = %bb1.i.preheader.lr.ph, %bb6.i.i
  %iter.i.i.sroa.0.089 = phi ptr [ %_49.i.i, %bb1.i.preheader.lr.ph ], [ %iter.i.i.sroa.0.1.lcssa, %bb6.i.i ]
  %iter.i.i.sroa.5.088 = phi i64 [ %_53.i.i, %bb1.i.preheader.lr.ph ], [ %_22.i, %bb6.i.i ]
  %iter.i.i.sroa.9.087 = phi i64 [ 0, %bb1.i.preheader.lr.ph ], [ %iter.i.i.sroa.9.1.lcssa, %bb6.i.i ]
  %iter.i.i.sroa.13.086 = phi i64 [ %_48.i.i, %bb1.i.preheader.lr.ph ], [ %31, %bb6.i.i ]
  %.not.i81 = icmp eq i64 %iter.i.i.sroa.5.088, 0
  br i1 %.not.i81, label %_10.i.noexc, label %bb18.i.i

_10.i.noexc:                                      ; preds = %bb1.i.preheader, %_10.i.noexc
  %iter.i.i.sroa.0.183 = phi ptr [ %_6.i, %_10.i.noexc ], [ %iter.i.i.sroa.0.089, %bb1.i.preheader ]
  %iter.i.i.sroa.9.182 = phi i64 [ %25, %_10.i.noexc ], [ %iter.i.i.sroa.9.087, %bb1.i.preheader ]
  %_6.i = getelementptr inbounds nuw i8, ptr %iter.i.i.sroa.0.183, i64 8
  %tmp.sroa.0.0.copyload.i.i13 = load <8 x i8>, ptr %_6.i, align 1, !noalias !557
  %22 = icmp sgt <8 x i8> %tmp.sroa.0.0.copyload.i.i13, splat (i8 -1)
  %23 = sext <8 x i1> %22 to <8 x i8>
  %24 = bitcast <8 x i8> %23 to i64
  %_30.i = and i64 %24, -9187201950435737472
  %25 = add i64 %iter.i.i.sroa.9.182, 8
  %.not.i = icmp eq i64 %_30.i, 0
  br i1 %.not.i, label %_10.i.noexc, label %bb18.i.i

bb4.i.i:                                          ; preds = %bb6.i.i, %_RINvMsa_NtCs2iGD339VwsL_9hashbrown3rawNtB6_13RawTableInner22fallible_with_capacityNtNtNtB6_5alloc5inner6GlobalECsbHDlgkaPqr9_10serde_yaml.exit.bb4.i.i_crit_edge
  %_3.sroa.0.0.copyload.i.i.i.i.i.ptr = phi ptr [ %_3.sroa.0.0.copyload.i.i.i.i.i.pre.ptr, %_RINvMsa_NtCs2iGD339VwsL_9hashbrown3rawNtB6_13RawTableInner22fallible_with_capacityNtNtNtB6_5alloc5inner6GlobalECsbHDlgkaPqr9_10serde_yaml.exit.bb4.i.i_crit_edge ], [ %_49.i.i, %bb6.i.i ]
  %26 = sub i64 %_17.sroa.0.0.i.i, %_48.i.i
  store i64 %17, ptr %self, align 8, !alias.scope !547, !noalias !550
  %_3.sroa.0.0.copyload.i.i.i.1.i.i = load i64, ptr %3, align 8, !alias.scope !562, !noalias !564
  store i64 %_16.i.i, ptr %3, align 8, !alias.scope !562, !noalias !564
  %_11.i.i.2.i.i = getelementptr inbounds nuw i8, ptr %self, i64 16
  store i64 %26, ptr %_11.i.i.2.i.i, align 8, !alias.scope !566, !noalias !568
  %27 = icmp eq i64 %_3.sroa.0.0.copyload.i.i.i.1.i.i, 0
  br i1 %27, label %_RINvNtCsjMrxcFdYDNN_4core3ptr13drop_in_placeINtNtCs2iGD339VwsL_9hashbrown10scopeguard10ScopeGuardNtNtBL_3raw13RawTableInnerNCINvMsa_B1z_B1x_14prepare_resizeNtNtNtB1z_5alloc5inner6GlobalE0EECsbHDlgkaPqr9_10serde_yaml.exit, label %bb2.i.i.i

bb2.i.i.i:                                        ; preds = %bb4.i.i
  %_8.i.i.i = shl i64 %_3.sroa.0.0.copyload.i.i.i.1.i.i, 3
  %28 = add i64 %_8.i.i.i, 8
  %_31.0.i.i.i.i = add i64 %_8.i.i.i, 15
  %_31.1.i.i.i.i = icmp uge i64 %_31.0.i.i.i.i, %28
  tail call void @llvm.assume(i1 %_31.1.i.i.i.i)
  %ctrl_offset.i.i.i.i = and i64 %_31.0.i.i.i.i, -8
  %_16.i.i.i.i = add i64 %_3.sroa.0.0.copyload.i.i.i.1.i.i, 9
  %_36.0.i.i.i.i = add i64 %_16.i.i.i.i, %ctrl_offset.i.i.i.i
  %_36.1.i.i.i.i = icmp uge i64 %_36.0.i.i.i.i, %ctrl_offset.i.i.i.i
  %_18.i.i.i.i = icmp ult i64 %_36.0.i.i.i.i, 9223372036854775801
  tail call void @llvm.assume(i1 %_36.1.i.i.i.i)
  tail call void @llvm.assume(i1 %_18.i.i.i.i)
  %_15.i.i.i = sub nsw i64 0, %ctrl_offset.i.i.i.i
  %_11.i.i.i = getelementptr inbounds i8, ptr %_3.sroa.0.0.copyload.i.i.i.i.i.ptr, i64 %_15.i.i.i
; call __rustc::__rust_dealloc
  tail call void @_RNvCsKhRCbHf33p_7___rustc14___rust_dealloc(ptr noundef nonnull %_11.i.i.i, i64 noundef %_36.0.i.i.i.i, i64 noundef range(i64 1, -9223372036854775807) 8) #43, !noalias !570
  br label %_RINvNtCsjMrxcFdYDNN_4core3ptr13drop_in_placeINtNtCs2iGD339VwsL_9hashbrown10scopeguard10ScopeGuardNtNtBL_3raw13RawTableInnerNCINvMsa_B1z_B1x_14prepare_resizeNtNtNtB1z_5alloc5inner6GlobalE0EECsbHDlgkaPqr9_10serde_yaml.exit

_RINvNtCsjMrxcFdYDNN_4core3ptr13drop_in_placeINtNtCs2iGD339VwsL_9hashbrown10scopeguard10ScopeGuardNtNtBL_3raw13RawTableInnerNCINvMsa_B1z_B1x_14prepare_resizeNtNtNtB1z_5alloc5inner6GlobalE0EECsbHDlgkaPqr9_10serde_yaml.exit: ; preds = %bb4.i.i, %bb2.i.i.i
  call void @llvm.lifetime.end.p0(i64 56, ptr nonnull %new_table.i.i), !noalias !535
  br label %_RINvMsa_NtCs2iGD339VwsL_9hashbrown3rawNtB6_13RawTableInner20reserve_rehash_innerNtNtNtB6_5alloc5inner6GlobalECsbHDlgkaPqr9_10serde_yaml.exit

bb18.i.i:                                         ; preds = %_10.i.noexc, %bb1.i.preheader
  %iter.i.i.sroa.9.1.lcssa = phi i64 [ %iter.i.i.sroa.9.087, %bb1.i.preheader ], [ %25, %_10.i.noexc ]
  %iter.i.i.sroa.5.1.lcssa = phi i64 [ %iter.i.i.sroa.5.088, %bb1.i.preheader ], [ %_30.i, %_10.i.noexc ]
  %iter.i.i.sroa.0.1.lcssa = phi ptr [ %iter.i.i.sroa.0.089, %bb1.i.preheader ], [ %_6.i, %_10.i.noexc ]
  %29 = add i64 %iter.i.i.sroa.5.1.lcssa, -1
  %30 = tail call range(i64 0, 65) i64 @llvm.cttz.i64(i64 %iter.i.i.sroa.5.1.lcssa, i1 true)
  %_182.i = lshr i64 %30, 3
  %_22.i = and i64 %29, %iter.i.i.sroa.5.1.lcssa
  %_3.i = add i64 %_182.i, %iter.i.i.sroa.9.1.lcssa
  %31 = add i64 %iter.i.i.sroa.13.086, -1
  %_11.i = sub nsw i64 0, %_3.i
  %gep91 = getelementptr i64, ptr %invariant.gep90, i64 %_11.i
  %.val.i = load i64, ptr %gep91, align 8, !noalias !575, !noundef !2
  %_5.i.i16 = icmp ult i64 %.val.i, %1
  br i1 %_5.i.i16, label %bb5.i.i, label %panic.i.i

panic.i.i:                                        ; preds = %bb18.i.i
; invoke core::panicking::panic_bounds_check
  invoke void @_RNvNtCsjMrxcFdYDNN_4core9panicking18panic_bounds_check(i64 noundef %.val.i, i64 noundef %1, ptr noalias noundef readonly align 8 captures(address, read_provenance) dereferenceable(24) @alloc_3fae09c86951907c85a9d05209a03c0f) #42
          to label %.noexc17 unwind label %cleanup.i.i

.noexc17:                                         ; preds = %panic.i.i
  unreachable

bb5.i.i:                                          ; preds = %bb18.i.i
  %32 = getelementptr inbounds nuw %"indexmap::Bucket<value::Value, value::Value>", ptr %0, i64 %.val.i, i32 2
  %_7.i.i = load i64, ptr %32, align 8, !noalias !575, !noundef !2
  %probe_seq.sroa.0.01.i.i = and i64 %_7.i.i, %_16.i.i
  %_142.i.i = getelementptr inbounds nuw i8, ptr %_14.i.i, i64 %probe_seq.sroa.0.01.i.i
  %tmp.sroa.0.0.copyload.i.i3.i.i = load <8 x i8>, ptr %_142.i.i, align 1, !noalias !579
  %.lobit.i.i.i4.i.i = ashr <8 x i8> %tmp.sroa.0.0.copyload.i.i3.i.i, splat (i8 7)
  %33 = bitcast <8 x i8> %.lobit.i.i.i4.i.i to i64
  %.not.i.not5.i.i = icmp eq i64 %33, 0
  br i1 %.not.i.not5.i.i, label %bb6.i.i21, label %bb9.i.i, !prof !584

bb6.i.i21:                                        ; preds = %bb5.i.i, %bb6.i.i21
  %probe_seq.sroa.0.06.i.i = phi i64 [ %probe_seq.sroa.0.0.i.i, %bb6.i.i21 ], [ %probe_seq.sroa.0.01.i.i, %bb5.i.i ]
  %34 = phi i64 [ %35, %bb6.i.i21 ], [ 0, %bb5.i.i ]
  %35 = add i64 %34, 8
  %36 = add i64 %35, %probe_seq.sroa.0.06.i.i
  %probe_seq.sroa.0.0.i.i = and i64 %36, %_16.i.i
  %_14.i.i22 = getelementptr inbounds nuw i8, ptr %_14.i.i, i64 %probe_seq.sroa.0.0.i.i
  %tmp.sroa.0.0.copyload.i.i.i.i = load <8 x i8>, ptr %_14.i.i22, align 1, !noalias !579
  %.lobit.i.i.i.i.i = ashr <8 x i8> %tmp.sroa.0.0.copyload.i.i.i.i, splat (i8 7)
  %37 = bitcast <8 x i8> %.lobit.i.i.i.i.i to i64
  %.not.i.not.i.i = icmp eq i64 %37, 0
  br i1 %.not.i.not.i.i, label %bb6.i.i21, label %bb9.i.i, !prof !585

bb9.i.i:                                          ; preds = %bb6.i.i21, %bb5.i.i
  %probe_seq.sroa.0.0.lcssa.i.i = phi i64 [ %probe_seq.sroa.0.01.i.i, %bb5.i.i ], [ %probe_seq.sroa.0.0.i.i, %bb6.i.i21 ]
  %.lcssa.i.i = phi i64 [ %33, %bb5.i.i ], [ %37, %bb6.i.i21 ]
  %38 = tail call range(i64 0, 65) i64 @llvm.cttz.i64(i64 %.lcssa.i.i, i1 true)
  %_175.i.i.i = lshr i64 %38, 3
  %_9.i.i.i = add nuw nsw i64 %_175.i.i.i, %probe_seq.sroa.0.0.lcssa.i.i
  %_8.i.i.i18 = and i64 %_9.i.i.i, %_16.i.i
  %_8.i4.i.i = getelementptr inbounds nuw i8, ptr %_14.i.i, i64 %_8.i.i.i18
  %_12.i.i.i = load i8, ptr %_8.i4.i.i, align 1, !noundef !2
  %39 = icmp sgt i8 %_12.i.i.i, -1
  br i1 %39, label %bb3.i.i.i, label %bb6.i.i, !prof !32

bb3.i.i.i:                                        ; preds = %bb9.i.i
  %tmp.sroa.0.0.copyload.i.i.i.i.i = load <8 x i8>, ptr %_14.i.i, align 8, !noalias !586
  %.lobit.i.i.i5.i.i = ashr <8 x i8> %tmp.sroa.0.0.copyload.i.i.i.i.i, splat (i8 7)
  %40 = bitcast <8 x i8> %.lobit.i.i.i5.i.i to i64
  %41 = icmp ne i64 %40, 0
  tail call void @llvm.assume(i1 %41)
  %42 = tail call range(i64 0, 65) i64 @llvm.cttz.i64(i64 %40, i1 true)
  %_213.i.i.i = lshr i64 %42, 3
  br label %bb6.i.i

bb6.i.i:                                          ; preds = %bb3.i.i.i, %bb9.i.i
  %index.sroa.0.0.i.i.i = phi i64 [ %_213.i.i.i, %bb3.i.i.i ], [ %_8.i.i.i18, %bb9.i.i ]
  %_8.i19 = getelementptr inbounds nuw i8, ptr %_14.i.i, i64 %index.sroa.0.0.i.i.i
  %_12.i = lshr i64 %_7.i.i, 57
  %_13.i = trunc nuw nsw i64 %_12.i to i8
  %_17.i = add nsw i64 %index.sroa.0.0.i.i.i, -8
  %_16.i = and i64 %_17.i, %_16.i.i
  store i8 %_13.i, ptr %_8.i19, align 1
  %gep = getelementptr i8, ptr %invariant.gep, i64 %_16.i
  store i8 %_13.i, ptr %gep, align 1
  %_59.i.i = shl i64 %_3.i, 3
  %_61.i.i = sub nuw nsw i64 -8, %_59.i.i
  %_24.i.i = getelementptr inbounds i8, ptr %_49.i.i, i64 %_61.i.i
  %_65.i.i = shl i64 %index.sroa.0.0.i.i.i, 3
  %_67.i.i = sub nuw nsw i64 -8, %_65.i.i
  %_26.i.i = getelementptr inbounds i8, ptr %_14.i.i, i64 %_67.i.i
  %43 = load i64, ptr %_24.i.i, align 1
  store i64 %43, ptr %_26.i.i, align 8
  %44 = icmp eq i64 %31, 0
  br i1 %44, label %bb4.i.i, label %bb1.i.preheader

common.resume:                                    ; preds = %cleanup.i, %cleanup.i.i
  %common.resume.op = phi { ptr, i32 } [ %21, %cleanup.i.i ], [ %57, %cleanup.i ]
  resume { ptr, i32 } %common.resume.op

bb2.i:                                            ; preds = %bb11.i
  tail call void @llvm.experimental.noalias.scope.decl(metadata !591)
  %self.val.i = load ptr, ptr %self, align 8, !alias.scope !591
  %_21.not4.i.i = icmp eq i64 %_26.i, 0
  br i1 %_21.not4.i.i, label %_RNvMsa_NtCs2iGD339VwsL_9hashbrown3rawNtB5_13RawTableInner15rehash_in_place.exit.thread, label %bb6.lr.ph.i.i

_RNvMsa_NtCs2iGD339VwsL_9hashbrown3rawNtB5_13RawTableInner15rehash_in_place.exit.thread: ; preds = %bb2.i
  %45 = icmp ne ptr %self.val.i, null
  tail call void @llvm.assume(i1 %45)
  call void @llvm.lifetime.start.p0(i64 24, ptr nonnull %guard.i), !noalias !591
  br label %79

bb6.lr.ph.i.i:                                    ; preds = %bb2.i
  %r1.i.i.i.i = and i64 %_26.i, 7
  %_19.not.i.i.i.i = icmp ne i64 %r1.i.i.i.i, 0
  %46 = zext i1 %_19.not.i.i.i.i to i64
  %yield_count.sroa.0.0.i.i.i.i = add nuw nsw i64 %_254.i, %46
  %47 = icmp ne ptr %self.val.i, null
  tail call void @llvm.assume(i1 %47)
  br label %bb6.i.i23

bb7.i.i:                                          ; preds = %bb6.i.i23
  %_9.i.i = icmp ult i64 %_26.i, 8
  %48 = getelementptr inbounds nuw i8, ptr %guard.i, i64 8
  %49 = getelementptr inbounds nuw i8, ptr %guard.i, i64 16
  br i1 %_9.i.i, label %_RNvMsa_NtCs2iGD339VwsL_9hashbrown3rawNtB5_13RawTableInner23prepare_rehash_in_place.exit.i, label %_RNvMsa_NtCs2iGD339VwsL_9hashbrown3rawNtB5_13RawTableInner23prepare_rehash_in_place.exit.thread.i, !prof !594

bb6.i.i23:                                        ; preds = %bb6.i.i23, %bb6.lr.ph.i.i
  %iter1.sroa.0.06.i.i = phi i64 [ %yield_count.sroa.0.0.i.i.i.i, %bb6.lr.ph.i.i ], [ %51, %bb6.i.i23 ]
  %iter.sroa.0.05.i.i = phi i64 [ 0, %bb6.lr.ph.i.i ], [ %50, %bb6.i.i23 ]
  %50 = add i64 %iter.sroa.0.05.i.i, 8
  %51 = add i64 %iter1.sroa.0.06.i.i, -1
  %_27.i.i24 = getelementptr inbounds nuw i8, ptr %self.val.i, i64 %iter.sroa.0.05.i.i
  %tmp.sroa.0.0.copyload.i.i.i.i25 = load <8 x i8>, ptr %_27.i.i24, align 1, !noalias !595
  %.lobit.i.i.i.i = ashr <8 x i8> %tmp.sroa.0.0.copyload.i.i.i.i25, splat (i8 7)
  %52 = or <8 x i8> %.lobit.i.i.i.i, splat (i8 -128)
  store <8 x i8> %52, ptr %_27.i.i24, align 1, !noalias !600
  %_21.not.i.i = icmp eq i64 %51, 0
  br i1 %_21.not.i.i, label %bb7.i.i, label %bb6.i.i23

_RNvMsa_NtCs2iGD339VwsL_9hashbrown3rawNtB5_13RawTableInner23prepare_rehash_in_place.exit.thread.i: ; preds = %bb7.i.i
  %_46.i.i = getelementptr inbounds nuw i8, ptr %self.val.i, i64 %_26.i
  %53 = load i64, ptr %self.val.i, align 1, !noalias !591
  store i64 %53, ptr %_46.i.i, align 1, !noalias !591
  br label %bb14.lr.ph.i

_RNvMsa_NtCs2iGD339VwsL_9hashbrown3rawNtB5_13RawTableInner23prepare_rehash_in_place.exit.i: ; preds = %bb7.i.i
  %_39.i.i = getelementptr inbounds nuw i8, ptr %self.val.i, i64 8
  tail call void @llvm.memmove.p0.p0.i64(ptr nonnull align 1 %_39.i.i, ptr nonnull align 1 %self.val.i, i64 %_26.i, i1 false), !noalias !591
  br label %bb14.lr.ph.i

bb14.lr.ph.i:                                     ; preds = %_RNvMsa_NtCs2iGD339VwsL_9hashbrown3rawNtB5_13RawTableInner23prepare_rehash_in_place.exit.i, %_RNvMsa_NtCs2iGD339VwsL_9hashbrown3rawNtB5_13RawTableInner23prepare_rehash_in_place.exit.thread.i
  call void @llvm.lifetime.start.p0(i64 24, ptr nonnull %guard.i), !noalias !591
  store ptr null, ptr %48, align 8, !noalias !591
  store i64 8, ptr %49, align 8, !noalias !591
  store ptr %self, ptr %guard.i, align 8, !noalias !591
  br label %bb14.i

bb14.i:                                           ; preds = %bb11.i26, %bb14.lr.ph.i
  %iter.sroa.0.019.i = phi i64 [ 0, %bb14.lr.ph.i ], [ %54, %bb11.i26 ]
  %54 = add nuw i64 %iter.sroa.0.019.i, 1
  %_48.i = load ptr, ptr %self, align 8, !alias.scope !591, !nonnull !2, !noundef !2
  %_46.i = getelementptr inbounds nuw i8, ptr %_48.i, i64 %iter.sroa.0.019.i
  %_50.i = load i8, ptr %_46.i, align 1, !noundef !2
  %_49.not.i = icmp eq i8 %_50.i, -128
  br i1 %_49.not.i, label %bb5.i28, label %bb11.i26

bb5.i28:                                          ; preds = %bb14.i
  %.neg.i = xor i64 %iter.sroa.0.019.i, -1
  %_52.neg.i = shl i64 %.neg.i, 3
  %i_p.i = getelementptr inbounds i8, ptr %_48.i, i64 %_52.neg.i
  %_11.i.i = sub nsw i64 0, %iter.sroa.0.019.i
  %55 = getelementptr inbounds i64, ptr %_48.i, i64 %_11.i.i
  %56 = getelementptr inbounds i8, ptr %55, i64 -8
  %.val.i11.i = load i64, ptr %56, align 8, !noalias !605, !noundef !2
  %_5.i.i12.i = icmp ult i64 %.val.i11.i, %1
  br i1 %_5.i.i12.i, label %bb7.i, label %panic.i.i.i

panic.i.i.i:                                      ; preds = %bb5.i28, %bb3.i.i15.preheader.i
  %.val.i.lcssa.i = phi i64 [ %.val.i.i, %bb3.i.i15.preheader.i ], [ %.val.i11.i, %bb5.i28 ]
; invoke core::panicking::panic_bounds_check
  invoke void @_RNvNtCsjMrxcFdYDNN_4core9panicking18panic_bounds_check(i64 noundef %.val.i.lcssa.i, i64 noundef %1, ptr noalias noundef readonly align 8 captures(address, read_provenance) dereferenceable(24) @alloc_3fae09c86951907c85a9d05209a03c0f) #42
          to label %.noexc.i unwind label %cleanup.i

.noexc.i:                                         ; preds = %panic.i.i.i
  unreachable

cleanup.i:                                        ; preds = %panic.i.i.i
  %57 = landingpad { ptr, i32 }
          cleanup
; invoke core::ptr::drop_in_place::<hashbrown::scopeguard::ScopeGuard<&mut hashbrown::raw::RawTableInner, <hashbrown::raw::RawTableInner>::rehash_in_place::{closure#0}>>
  invoke fastcc void @_RINvNtCsjMrxcFdYDNN_4core3ptr13drop_in_placeINtNtCs2iGD339VwsL_9hashbrown10scopeguard10ScopeGuardQNtNtBL_3raw13RawTableInnerNCNvMsa_B1A_B1y_15rehash_in_place0EECsbHDlgkaPqr9_10serde_yaml(ptr noalias noundef align 8 dereferenceable(24) %guard.i) #44
          to label %common.resume unwind label %terminate.i

bb7.i:                                            ; preds = %bb5.i28, %bb3.i.i15.preheader.i
  %.val.i14.i = phi i64 [ %.val.i.i, %bb3.i.i15.preheader.i ], [ %.val.i11.i, %bb5.i28 ]
  %_7.i13.i = phi ptr [ %_7.i.i45, %bb3.i.i15.preheader.i ], [ %_48.i, %bb5.i28 ]
  %58 = getelementptr inbounds nuw %"indexmap::Bucket<value::Value, value::Value>", ptr %0, i64 %.val.i14.i, i32 2
  %_7.i.i.i = load i64, ptr %58, align 8, !noalias !609, !noundef !2
  %_32.val11.i = load i64, ptr %3, align 8, !alias.scope !591, !noundef !2
  %probe_seq.sroa.0.01.i.i30 = and i64 %_32.val11.i, %_7.i.i.i
  %_142.i.i31 = getelementptr inbounds nuw i8, ptr %_7.i13.i, i64 %probe_seq.sroa.0.01.i.i30
  %tmp.sroa.0.0.copyload.i.i3.i.i32 = load <8 x i8>, ptr %_142.i.i31, align 1, !noalias !611
  %.lobit.i.i.i4.i.i33 = ashr <8 x i8> %tmp.sroa.0.0.copyload.i.i3.i.i32, splat (i8 7)
  %59 = bitcast <8 x i8> %.lobit.i.i.i4.i.i33 to i64
  %.not.i.not5.i.i34 = icmp eq i64 %59, 0
  br i1 %.not.i.not5.i.i34, label %bb6.i13.i, label %bb9.i.i35, !prof !584

bb6.i13.i:                                        ; preds = %bb7.i, %bb6.i13.i
  %probe_seq.sroa.0.06.i.i51 = phi i64 [ %probe_seq.sroa.0.0.i.i52, %bb6.i13.i ], [ %probe_seq.sroa.0.01.i.i30, %bb7.i ]
  %60 = phi i64 [ %61, %bb6.i13.i ], [ 0, %bb7.i ]
  %61 = add i64 %60, 8
  %62 = add i64 %61, %probe_seq.sroa.0.06.i.i51
  %probe_seq.sroa.0.0.i.i52 = and i64 %62, %_32.val11.i
  %_14.i.i53 = getelementptr inbounds nuw i8, ptr %_7.i13.i, i64 %probe_seq.sroa.0.0.i.i52
  %tmp.sroa.0.0.copyload.i.i.i14.i = load <8 x i8>, ptr %_14.i.i53, align 1, !noalias !611
  %.lobit.i.i.i.i.i54 = ashr <8 x i8> %tmp.sroa.0.0.copyload.i.i.i14.i, splat (i8 7)
  %63 = bitcast <8 x i8> %.lobit.i.i.i.i.i54 to i64
  %.not.i.not.i.i55 = icmp eq i64 %63, 0
  br i1 %.not.i.not.i.i55, label %bb6.i13.i, label %bb9.i.i35, !prof !585

bb9.i.i35:                                        ; preds = %bb6.i13.i, %bb7.i
  %probe_seq.sroa.0.0.lcssa.i.i36 = phi i64 [ %probe_seq.sroa.0.01.i.i30, %bb7.i ], [ %probe_seq.sroa.0.0.i.i52, %bb6.i13.i ]
  %.lcssa.i.i37 = phi i64 [ %59, %bb7.i ], [ %63, %bb6.i13.i ]
  %64 = tail call range(i64 0, 65) i64 @llvm.cttz.i64(i64 %.lcssa.i.i37, i1 true)
  %_175.i.i.i38 = lshr i64 %64, 3
  %_9.i.i.i39 = add i64 %_175.i.i.i38, %probe_seq.sroa.0.0.lcssa.i.i36
  %_8.i.i.i40 = and i64 %_9.i.i.i39, %_32.val11.i
  %_8.i4.i.i41 = getelementptr inbounds nuw i8, ptr %_7.i13.i, i64 %_8.i.i.i40
  %_12.i.i.i42 = load i8, ptr %_8.i4.i.i41, align 1, !noundef !2
  %65 = icmp sgt i8 %_12.i.i.i42, -1
  br i1 %65, label %bb3.i.i.i47, label %bb8.i, !prof !32

bb3.i.i.i47:                                      ; preds = %bb9.i.i35
  %tmp.sroa.0.0.copyload.i.i.i.i.i48 = load <8 x i8>, ptr %_7.i13.i, align 1, !noalias !616
  %.lobit.i.i.i5.i.i49 = ashr <8 x i8> %tmp.sroa.0.0.copyload.i.i.i.i.i48, splat (i8 7)
  %66 = bitcast <8 x i8> %.lobit.i.i.i5.i.i49 to i64
  %67 = icmp ne i64 %66, 0
  tail call void @llvm.assume(i1 %67)
  %68 = tail call range(i64 0, 65) i64 @llvm.cttz.i64(i64 %66, i1 true)
  %_213.i.i.i50 = lshr i64 %68, 3
  br label %bb8.i

bb8.i:                                            ; preds = %bb3.i.i.i47, %bb9.i.i35
  %index.sroa.0.0.i.i.i43 = phi i64 [ %_213.i.i.i50, %bb3.i.i.i47 ], [ %_8.i.i.i40, %bb9.i.i35 ]
  %_63.i = sub i64 %iter.sroa.0.019.i, %probe_seq.sroa.0.01.i.i30
  %_65.i = sub i64 %index.sroa.0.0.i.i.i43, %probe_seq.sroa.0.01.i.i30
  %_6210.i = xor i64 %_65.i, %_63.i
  %_19.unshifted.i = and i64 %_6210.i, %_32.val11.i
  %_19.i44 = icmp ult i64 %_19.unshifted.i, 8
  br i1 %_19.i44, label %bb16.i, label %bb18.i, !prof !31

bb16.i:                                           ; preds = %bb8.i
  %_68.i = lshr i64 %_7.i.i.i, 57
  %_69.i = trunc nuw nsw i64 %_68.i to i8
  %_73.i = add i64 %iter.sroa.0.019.i, -8
  %_72.i = and i64 %_32.val11.i, %_73.i
  %_77.i = getelementptr inbounds nuw i8, ptr %_7.i13.i, i64 %iter.sroa.0.019.i
  store i8 %_69.i, ptr %_77.i, align 1
  %_82.i = load ptr, ptr %self, align 8, !alias.scope !591, !nonnull !2, !noundef !2
  %69 = getelementptr i8, ptr %_82.i, i64 %_72.i
  %_80.i = getelementptr i8, ptr %69, i64 8
  store i8 %_69.i, ptr %_80.i, align 1
  br label %bb11.i26

bb18.i:                                           ; preds = %bb8.i
  %_85.i = shl i64 %index.sroa.0.0.i.i.i43, 3
  %_87.i = sub nuw nsw i64 -8, %_85.i
  %new_i_p.i = getelementptr inbounds i8, ptr %_7.i13.i, i64 %_87.i
  %_90.i = getelementptr inbounds nuw i8, ptr %_7.i13.i, i64 %index.sroa.0.0.i.i.i43
  %prev_ctrl.i = load i8, ptr %_90.i, align 1, !noundef !2
  %_94.i = lshr i64 %_7.i.i.i, 57
  %_95.i = trunc nuw nsw i64 %_94.i to i8
  %_99.i = add i64 %index.sroa.0.0.i.i.i43, -8
  %_98.i = and i64 %_99.i, %_32.val11.i
  store i8 %_95.i, ptr %_90.i, align 1
  %_108.i = load ptr, ptr %self, align 8, !alias.scope !591, !nonnull !2, !noundef !2
  %70 = getelementptr i8, ptr %_108.i, i64 %_98.i
  %_106.i = getelementptr i8, ptr %70, i64 8
  store i8 %_95.i, ptr %_106.i, align 1
  %71 = icmp eq i8 %prev_ctrl.i, -1
  br i1 %71, label %bb9.i46, label %bb3.i.i15.preheader.i

bb3.i.i15.preheader.i:                            ; preds = %bb18.i
  tail call void @llvm.experimental.noalias.scope.decl(metadata !621)
  tail call void @llvm.experimental.noalias.scope.decl(metadata !624)
  %_3.sroa.0.0.copyload.i.i.i.i = load i64, ptr %i_p.i, align 1, !alias.scope !621, !noalias !624
  %_4.sroa.0.0.copyload.i.i.i.i = load i64, ptr %new_i_p.i, align 1, !alias.scope !624, !noalias !621
  store i64 %_4.sroa.0.0.copyload.i.i.i.i, ptr %i_p.i, align 1, !alias.scope !621, !noalias !624
  store i64 %_3.sroa.0.0.copyload.i.i.i.i, ptr %new_i_p.i, align 1, !alias.scope !624, !noalias !621
  tail call void @llvm.experimental.noalias.scope.decl(metadata !626)
  %_7.i.i45 = load ptr, ptr %self, align 8, !alias.scope !628, !noalias !629, !nonnull !2, !noundef !2
  %72 = getelementptr inbounds i64, ptr %_7.i.i45, i64 %_11.i.i
  %73 = getelementptr inbounds i8, ptr %72, i64 -8
  %.val.i.i = load i64, ptr %73, align 8, !noalias !630, !noundef !2
  %_5.i.i.i = icmp ult i64 %.val.i.i, %1
  br i1 %_5.i.i.i, label %bb7.i, label %panic.i.i.i

bb9.i46:                                          ; preds = %bb18.i
  %_112.i = add i64 %iter.sroa.0.019.i, -8
  %_113.i = load i64, ptr %3, align 8, !alias.scope !591, !noundef !2
  %_111.i = and i64 %_113.i, %_112.i
  %_118.i = load ptr, ptr %self, align 8, !alias.scope !591, !nonnull !2, !noundef !2
  %_116.i = getelementptr inbounds nuw i8, ptr %_118.i, i64 %iter.sroa.0.019.i
  store i8 -1, ptr %_116.i, align 1
  %_121.i = load ptr, ptr %self, align 8, !alias.scope !591, !nonnull !2, !noundef !2
  %74 = getelementptr i8, ptr %_121.i, i64 %_111.i
  %_119.i = getelementptr i8, ptr %74, i64 8
  store i8 -1, ptr %_119.i, align 1
  %75 = load i64, ptr %i_p.i, align 1
  store i64 %75, ptr %new_i_p.i, align 1
  br label %bb11.i26

bb11.i26:                                         ; preds = %bb9.i46, %bb16.i, %bb14.i
  %exitcond.not.i = icmp eq i64 %iter.sroa.0.019.i, %4
  br i1 %exitcond.not.i, label %_RNvMsa_NtCs2iGD339VwsL_9hashbrown3rawNtB5_13RawTableInner15rehash_in_place.exit, label %bb14.i

terminate.i:                                      ; preds = %cleanup.i
  %76 = landingpad { ptr, i32 }
          filter [0 x ptr] zeroinitializer
; call core::panicking::panic_in_cleanup
  tail call void @_RNvNtCsjMrxcFdYDNN_4core9panicking16panic_in_cleanup() #45
  unreachable

_RNvMsa_NtCs2iGD339VwsL_9hashbrown3rawNtB5_13RawTableInner15rehash_in_place.exit: ; preds = %bb11.i26
  %.pre.i = load i64, ptr %3, align 8, !alias.scope !591
  %.pre.i.fr = freeze i64 %.pre.i
  %.pre32.i = add i64 %.pre.i.fr, 1
  %77 = lshr i64 %.pre32.i, 3
  %78 = mul nuw i64 %77, 7
  %_129.i = icmp ult i64 %.pre.i.fr, 8
  %spec.select = select i1 %_129.i, i64 %.pre.i.fr, i64 %78
  %_27.i27.pre = load i64, ptr %2, align 8, !alias.scope !591
  br label %79

79:                                               ; preds = %_RNvMsa_NtCs2iGD339VwsL_9hashbrown3rawNtB5_13RawTableInner15rehash_in_place.exit, %_RNvMsa_NtCs2iGD339VwsL_9hashbrown3rawNtB5_13RawTableInner15rehash_in_place.exit.thread
  %_27.i27 = phi i64 [ %_9.i, %_RNvMsa_NtCs2iGD339VwsL_9hashbrown3rawNtB5_13RawTableInner15rehash_in_place.exit.thread ], [ %_27.i27.pre, %_RNvMsa_NtCs2iGD339VwsL_9hashbrown3rawNtB5_13RawTableInner15rehash_in_place.exit ]
  %80 = phi i64 [ 0, %_RNvMsa_NtCs2iGD339VwsL_9hashbrown3rawNtB5_13RawTableInner15rehash_in_place.exit.thread ], [ %spec.select, %_RNvMsa_NtCs2iGD339VwsL_9hashbrown3rawNtB5_13RawTableInner15rehash_in_place.exit ]
  %81 = getelementptr inbounds nuw i8, ptr %self, i64 16
  %82 = sub i64 %80, %_27.i27
  store i64 %82, ptr %81, align 8, !alias.scope !591
  call void @llvm.lifetime.end.p0(i64 24, ptr nonnull %guard.i), !noalias !591
  br label %_RINvMsa_NtCs2iGD339VwsL_9hashbrown3rawNtB6_13RawTableInner20reserve_rehash_innerNtNtNtB6_5alloc5inner6GlobalECsbHDlgkaPqr9_10serde_yaml.exit

_RINvMsa_NtCs2iGD339VwsL_9hashbrown3rawNtB6_13RawTableInner20reserve_rehash_innerNtNtNtB6_5alloc5inner6GlobalECsbHDlgkaPqr9_10serde_yaml.exit: ; preds = %bb12.i.i, %_RINvNtCsjMrxcFdYDNN_4core3ptr13drop_in_placeINtNtCs2iGD339VwsL_9hashbrown10scopeguard10ScopeGuardNtNtBL_3raw13RawTableInnerNCINvMsa_B1z_B1x_14prepare_resizeNtNtNtB1z_5alloc5inner6GlobalE0EECsbHDlgkaPqr9_10serde_yaml.exit, %bb9.i, %79
  %_0.sroa.4.0.i = phi i64 [ %_11.1.i, %bb9.i ], [ undef, %79 ], [ %_31.i.i.sroa.12.067, %bb12.i.i ], [ undef, %_RINvNtCsjMrxcFdYDNN_4core3ptr13drop_in_placeINtNtCs2iGD339VwsL_9hashbrown10scopeguard10ScopeGuardNtNtBL_3raw13RawTableInnerNCINvMsa_B1z_B1x_14prepare_resizeNtNtNtB1z_5alloc5inner6GlobalE0EECsbHDlgkaPqr9_10serde_yaml.exit ]
  %_0.sroa.0.0.i = phi i64 [ %_11.0.i, %bb9.i ], [ -9223372036854775807, %79 ], [ %_31.i.i.sroa.7.066, %bb12.i.i ], [ -9223372036854775807, %_RINvNtCsjMrxcFdYDNN_4core3ptr13drop_in_placeINtNtCs2iGD339VwsL_9hashbrown10scopeguard10ScopeGuardNtNtBL_3raw13RawTableInnerNCINvMsa_B1z_B1x_14prepare_resizeNtNtNtB1z_5alloc5inner6GlobalE0EECsbHDlgkaPqr9_10serde_yaml.exit ]
  %83 = insertvalue { i64, i64 } poison, i64 %_0.sroa.0.0.i, 0
  %84 = insertvalue { i64, i64 } %83, i64 %_0.sroa.4.0.i, 1
  ret { i64, i64 } %84
}

; <serde_yaml::value::Value>::invalid_type::<serde_yaml::error::Error>
; Function Attrs: cold uwtable
define internal fastcc noalias noundef nonnull align 8 ptr @_RINvMsi_NtNtCsbHDlgkaPqr9_10serde_yaml5value2deNtB8_5Value12invalid_typeNtNtBa_5error5ErrorEBa_(ptr noalias noundef nonnull readonly align 8 captures(none) dereferenceable(72) %self, ptr noundef nonnull align 1 %exp.0) unnamed_addr #2 {
start:
  %args.i = alloca [32 x i8], align 8
  %exp.i = alloca [16 x i8], align 8
  %_3 = alloca [24 x i8], align 8
  call void @llvm.lifetime.start.p0(i64 24, ptr nonnull %_3)
; call <serde_yaml::value::Value>::unexpected
  call fastcc void @_RNvMsi_NtNtCsbHDlgkaPqr9_10serde_yaml5value2deNtB7_5Value10unexpected(ptr noalias noundef align 8 captures(none) dereferenceable(24) %_3, ptr noalias noundef readonly align 8 captures(address, read_provenance) dereferenceable(72) %self)
  call void @llvm.lifetime.start.p0(i64 16, ptr nonnull %exp.i)
  store ptr %exp.0, ptr %exp.i, align 8, !noalias !631
  %0 = getelementptr inbounds nuw i8, ptr %exp.i, i64 8
  store ptr @vtable.9, ptr %0, align 8, !noalias !631
  call void @llvm.lifetime.start.p0(i64 32, ptr nonnull %args.i), !noalias !631
  store ptr %_3, ptr %args.i, align 8, !noalias !631
  %_7.sroa.4.0..sroa_idx.i = getelementptr inbounds nuw i8, ptr %args.i, i64 8
  store ptr @_RNvXNtCsasqbmkB9jT1_10serde_core2deNtB2_10UnexpectedNtNtCsjMrxcFdYDNN_4core3fmt7Display3fmt, ptr %_7.sroa.4.0..sroa_idx.i, align 8, !noalias !631
  %1 = getelementptr inbounds nuw i8, ptr %args.i, i64 16
  store ptr %exp.i, ptr %1, align 8, !noalias !631
  %_8.sroa.4.0..sroa_idx.i = getelementptr inbounds nuw i8, ptr %args.i, i64 24
  store ptr @_RNvXs1i_NtCsjMrxcFdYDNN_4core3fmtRDNtNtCsasqbmkB9jT1_10serde_core2de8ExpectedEL_NtB6_7Display3fmtCsbHDlgkaPqr9_10serde_yaml, ptr %_8.sroa.4.0..sroa_idx.i, align 8, !noalias !631
; call <serde_yaml::error::Error as serde_core::de::Error>::custom::<core::fmt::Arguments>
  %_0.i = call fastcc noalias noundef nonnull align 8 ptr @_RINvXs7_NtCsbHDlgkaPqr9_10serde_yaml5errorNtB6_5ErrorNtNtCsasqbmkB9jT1_10serde_core2de5Error6customNtNtCsjMrxcFdYDNN_4core3fmt9ArgumentsEB8_(ptr noundef nonnull @alloc_74ba04968dbb54708bdec56490e550ab, ptr noundef nonnull %args.i)
  call void @llvm.lifetime.end.p0(i64 32, ptr nonnull %args.i), !noalias !631
  call void @llvm.lifetime.end.p0(i64 16, ptr nonnull %exp.i)
  call void @llvm.lifetime.end.p0(i64 24, ptr nonnull %_3)
  ret ptr %_0.i
}

; serde_yaml::de::parse_negative_int::<i128>
; Function Attrs: uwtable
define internal fastcc void @_RINvNtCsbHDlgkaPqr9_10serde_yaml2de18parse_negative_intnEB4_(ptr dead_on_unwind noalias noundef nonnull writable writeonly align 16 captures(none) dereferenceable(32) %_0, ptr noalias noundef nonnull readonly align 1 captures(address, read_provenance) %scalar.0, i64 noundef %scalar.1) unnamed_addr #0 personality ptr @rust_eh_personality {
start:
  %_43 = alloca [32 x i8], align 16
  %_38 = alloca [32 x i8], align 16
  %args6 = alloca [16 x i8], align 8
  %_32 = alloca [24 x i8], align 8
  %rest4 = alloca [16 x i8], align 8
  %_25 = alloca [32 x i8], align 16
  %args3 = alloca [16 x i8], align 8
  %_19 = alloca [24 x i8], align 8
  %rest1 = alloca [16 x i8], align 8
  %_12 = alloca [32 x i8], align 16
  %args = alloca [16 x i8], align 8
  %_6 = alloca [24 x i8], align 8
  %rest = alloca [16 x i8], align 8
  %_4.not.i = icmp samesign ult i64 %scalar.1, 3
  br i1 %_4.not.i, label %bb15, label %_RNvMNtCsjMrxcFdYDNN_4core5sliceSh11starts_withCsbHDlgkaPqr9_10serde_yaml.exit

_RNvMNtCsjMrxcFdYDNN_4core5sliceSh11starts_withCsbHDlgkaPqr9_10serde_yaml.exit: ; preds = %start
  %0 = tail call i32 @memcmp(ptr noundef nonnull readonly align 1 dereferenceable(3) @alloc_d49e492815bdb5d79356de42ff8baf31, ptr noundef nonnull readonly align 1 dereferenceable(3) %scalar.0, i64 range(i64 0, -9223372036854775808) 3), !alias.scope !635
  %1 = icmp eq i32 %0, 0
  br i1 %1, label %bb28, label %_RNvMNtCsjMrxcFdYDNN_4core5sliceSh11starts_withCsbHDlgkaPqr9_10serde_yaml.exit18

bb28:                                             ; preds = %_RNvMNtCsjMrxcFdYDNN_4core5sliceSh11starts_withCsbHDlgkaPqr9_10serde_yaml.exit
  %_52 = add i64 %scalar.1, -3
  %_54 = getelementptr inbounds nuw i8, ptr %scalar.0, i64 3
  call void @llvm.lifetime.start.p0(i64 16, ptr nonnull %rest)
  store ptr %_54, ptr %rest, align 8
  %2 = getelementptr inbounds nuw i8, ptr %rest, i64 8
  store i64 %_52, ptr %2, align 8
  call void @llvm.lifetime.start.p0(i64 24, ptr nonnull %_6)
  call void @llvm.lifetime.start.p0(i64 16, ptr nonnull %args)
  store ptr %rest, ptr %args, align 8
  %_10.sroa.4.0..sroa_idx = getelementptr inbounds nuw i8, ptr %args, i64 8
  store ptr @_RNvXs1i_NtCsjMrxcFdYDNN_4core3fmtReNtB6_7Display3fmtCsbHDlgkaPqr9_10serde_yaml, ptr %_10.sroa.4.0..sroa_idx, align 8
; call alloc::fmt::format::format_inner
  call void @_RNvNvNtCsdJPVW0sQgAG_5alloc3fmt6format12format_inner(ptr noalias noundef nonnull sret([24 x i8]) align 8 captures(none) dereferenceable(24) %_6, ptr noundef nonnull @alloc_68a248632dd07609b57f8501a3ed0c3d, ptr noundef nonnull %args), !noalias !642
  call void @llvm.lifetime.end.p0(i64 16, ptr nonnull %args)
  %negative.sroa.0.0.copyload = load i64, ptr %_6, align 8
  %negative.sroa.7.0._6.sroa_idx = getelementptr inbounds nuw i8, ptr %_6, i64 8
  %negative.sroa.7.0.copyload = load ptr, ptr %negative.sroa.7.0._6.sroa_idx, align 8, !nonnull !2, !noundef !2
  %negative.sroa.11.0._6.sroa_idx = getelementptr inbounds nuw i8, ptr %_6, i64 16
  %negative.sroa.11.0.copyload = load i64, ptr %negative.sroa.11.0._6.sroa_idx, align 8
  call void @llvm.lifetime.end.p0(i64 24, ptr nonnull %_6)
  call void @llvm.lifetime.start.p0(i64 32, ptr nonnull %_12)
; invoke <i128>::from_str_radix
  invoke fastcc void @_RNvMst_NtCsjMrxcFdYDNN_4core3numn14from_str_radix(ptr noalias noundef nonnull sret([32 x i8]) align 16 captures(address) dereferenceable(32) %_12, ptr noalias noundef nonnull readonly align 1 captures(address, read_provenance) %negative.sroa.7.0.copyload, i64 noundef %negative.sroa.11.0.copyload, i32 noundef 16)
          to label %bb1 unwind label %cleanup

_RNvMNtCsjMrxcFdYDNN_4core5sliceSh11starts_withCsbHDlgkaPqr9_10serde_yaml.exit18: ; preds = %_RINvNtCsjMrxcFdYDNN_4core3ptr13drop_in_placeNtNtCsdJPVW0sQgAG_5alloc6string6StringECsbHDlgkaPqr9_10serde_yaml.exit22, %_RNvMNtCsjMrxcFdYDNN_4core5sliceSh11starts_withCsbHDlgkaPqr9_10serde_yaml.exit
  %3 = call i32 @memcmp(ptr noundef nonnull readonly align 1 dereferenceable(3) @alloc_25c4fcca6fcceefe253684797f27b0ef, ptr noundef nonnull readonly align 1 dereferenceable(3) %scalar.0, i64 range(i64 0, -9223372036854775808) 3), !alias.scope !645
  %4 = icmp eq i32 %3, 0
  br i1 %4, label %bb35, label %_RNvMNtCsjMrxcFdYDNN_4core5sliceSh11starts_withCsbHDlgkaPqr9_10serde_yaml.exit30

cleanup:                                          ; preds = %bb28
  %5 = landingpad { ptr, i32 }
          cleanup
  %6 = icmp eq i64 %negative.sroa.0.0.copyload, 0
  br i1 %6, label %bb27, label %bb2.i.i.i4.i.i

bb2.i.i.i4.i.i:                                   ; preds = %cleanup
; call __rustc::__rust_dealloc
  call void @_RNvCsKhRCbHf33p_7___rustc14___rust_dealloc(ptr noundef nonnull %negative.sroa.7.0.copyload, i64 noundef %negative.sroa.0.0.copyload, i64 noundef range(i64 1, -9223372036854775807) 1) #43, !noalias !652
  br label %bb27

bb1:                                              ; preds = %bb28
  %7 = load i8, ptr %_12, align 16, !range !655, !noundef !2
  %8 = trunc nuw i8 %7 to i1
  br i1 %8, label %bb3, label %bb2

bb3:                                              ; preds = %bb1
  %9 = icmp eq i64 %negative.sroa.0.0.copyload, 0
  br i1 %9, label %_RINvNtCsjMrxcFdYDNN_4core3ptr13drop_in_placeNtNtCsdJPVW0sQgAG_5alloc6string6StringECsbHDlgkaPqr9_10serde_yaml.exit22, label %bb2.i.i.i4.i.i20

bb2.i.i.i4.i.i20:                                 ; preds = %bb3
; call __rustc::__rust_dealloc
  call void @_RNvCsKhRCbHf33p_7___rustc14___rust_dealloc(ptr noundef nonnull %negative.sroa.7.0.copyload, i64 noundef %negative.sroa.0.0.copyload, i64 noundef range(i64 1, -9223372036854775807) 1) #43, !noalias !656
  br label %_RINvNtCsjMrxcFdYDNN_4core3ptr13drop_in_placeNtNtCsdJPVW0sQgAG_5alloc6string6StringECsbHDlgkaPqr9_10serde_yaml.exit22

_RINvNtCsjMrxcFdYDNN_4core3ptr13drop_in_placeNtNtCsdJPVW0sQgAG_5alloc6string6StringECsbHDlgkaPqr9_10serde_yaml.exit22: ; preds = %bb3, %bb2.i.i.i4.i.i20
  call void @llvm.lifetime.end.p0(i64 32, ptr nonnull %_12)
  call void @llvm.lifetime.end.p0(i64 16, ptr nonnull %rest)
  br label %_RNvMNtCsjMrxcFdYDNN_4core5sliceSh11starts_withCsbHDlgkaPqr9_10serde_yaml.exit18

bb2:                                              ; preds = %bb1
  %10 = getelementptr inbounds nuw i8, ptr %_12, i64 16
  %int = load i128, ptr %10, align 16, !noundef !2
  %11 = getelementptr inbounds nuw i8, ptr %_0, i64 16
  store i128 %int, ptr %11, align 16
  store i128 1, ptr %_0, align 16
  %12 = icmp eq i64 %negative.sroa.0.0.copyload, 0
  br i1 %12, label %_RINvNtCsjMrxcFdYDNN_4core3ptr13drop_in_placeNtNtCsdJPVW0sQgAG_5alloc6string6StringECsbHDlgkaPqr9_10serde_yaml.exit26, label %bb2.i.i.i4.i.i24

bb2.i.i.i4.i.i24:                                 ; preds = %bb2
; call __rustc::__rust_dealloc
  call void @_RNvCsKhRCbHf33p_7___rustc14___rust_dealloc(ptr noundef nonnull %negative.sroa.7.0.copyload, i64 noundef %negative.sroa.0.0.copyload, i64 noundef range(i64 1, -9223372036854775807) 1) #43, !noalias !659
  br label %_RINvNtCsjMrxcFdYDNN_4core3ptr13drop_in_placeNtNtCsdJPVW0sQgAG_5alloc6string6StringECsbHDlgkaPqr9_10serde_yaml.exit26

_RINvNtCsjMrxcFdYDNN_4core3ptr13drop_in_placeNtNtCsdJPVW0sQgAG_5alloc6string6StringECsbHDlgkaPqr9_10serde_yaml.exit26: ; preds = %bb2, %bb2.i.i.i4.i.i24
  call void @llvm.lifetime.end.p0(i64 32, ptr nonnull %_12)
  call void @llvm.lifetime.end.p0(i64 16, ptr nonnull %rest)
  br label %bb23

bb23:                                             ; preds = %bb17, %bb54, %_RINvNtCsjMrxcFdYDNN_4core3ptr13drop_in_placeNtNtCsdJPVW0sQgAG_5alloc6string6StringECsbHDlgkaPqr9_10serde_yaml.exit54, %_RINvNtCsjMrxcFdYDNN_4core3ptr13drop_in_placeNtNtCsdJPVW0sQgAG_5alloc6string6StringECsbHDlgkaPqr9_10serde_yaml.exit42, %_RINvNtCsjMrxcFdYDNN_4core3ptr13drop_in_placeNtNtCsdJPVW0sQgAG_5alloc6string6StringECsbHDlgkaPqr9_10serde_yaml.exit26
  ret void

bb35:                                             ; preds = %_RNvMNtCsjMrxcFdYDNN_4core5sliceSh11starts_withCsbHDlgkaPqr9_10serde_yaml.exit18
  %_86 = add i64 %scalar.1, -3
  %_88 = getelementptr inbounds nuw i8, ptr %scalar.0, i64 3
  call void @llvm.lifetime.start.p0(i64 16, ptr nonnull %rest1)
  store ptr %_88, ptr %rest1, align 8
  %13 = getelementptr inbounds nuw i8, ptr %rest1, i64 8
  store i64 %_86, ptr %13, align 8
  call void @llvm.lifetime.start.p0(i64 24, ptr nonnull %_19)
  call void @llvm.lifetime.start.p0(i64 16, ptr nonnull %args3)
  store ptr %rest1, ptr %args3, align 8
  %_23.sroa.4.0..sroa_idx = getelementptr inbounds nuw i8, ptr %args3, i64 8
  store ptr @_RNvXs1i_NtCsjMrxcFdYDNN_4core3fmtReNtB6_7Display3fmtCsbHDlgkaPqr9_10serde_yaml, ptr %_23.sroa.4.0..sroa_idx, align 8
; call alloc::fmt::format::format_inner
  call void @_RNvNvNtCsdJPVW0sQgAG_5alloc3fmt6format12format_inner(ptr noalias noundef nonnull sret([24 x i8]) align 8 captures(none) dereferenceable(24) %_19, ptr noundef nonnull @alloc_68a248632dd07609b57f8501a3ed0c3d, ptr noundef nonnull %args3), !noalias !662
  call void @llvm.lifetime.end.p0(i64 16, ptr nonnull %args3)
  %negative2.sroa.0.0.copyload = load i64, ptr %_19, align 8
  %negative2.sroa.7.0._19.sroa_idx = getelementptr inbounds nuw i8, ptr %_19, i64 8
  %negative2.sroa.7.0.copyload = load ptr, ptr %negative2.sroa.7.0._19.sroa_idx, align 8, !nonnull !2, !noundef !2
  %negative2.sroa.11.0._19.sroa_idx = getelementptr inbounds nuw i8, ptr %_19, i64 16
  %negative2.sroa.11.0.copyload = load i64, ptr %negative2.sroa.11.0._19.sroa_idx, align 8
  call void @llvm.lifetime.end.p0(i64 24, ptr nonnull %_19)
  call void @llvm.lifetime.start.p0(i64 32, ptr nonnull %_25)
; invoke <i128>::from_str_radix
  invoke fastcc void @_RNvMst_NtCsjMrxcFdYDNN_4core3numn14from_str_radix(ptr noalias noundef nonnull sret([32 x i8]) align 16 captures(address) dereferenceable(32) %_25, ptr noalias noundef nonnull readonly align 1 captures(address, read_provenance) %negative2.sroa.7.0.copyload, i64 noundef %negative2.sroa.11.0.copyload, i32 noundef 8)
          to label %bb6 unwind label %cleanup7

_RNvMNtCsjMrxcFdYDNN_4core5sliceSh11starts_withCsbHDlgkaPqr9_10serde_yaml.exit30: ; preds = %_RINvNtCsjMrxcFdYDNN_4core3ptr13drop_in_placeNtNtCsdJPVW0sQgAG_5alloc6string6StringECsbHDlgkaPqr9_10serde_yaml.exit38, %_RNvMNtCsjMrxcFdYDNN_4core5sliceSh11starts_withCsbHDlgkaPqr9_10serde_yaml.exit18
  %14 = call i32 @memcmp(ptr noundef nonnull readonly align 1 dereferenceable(3) @alloc_680020dc4a42e88f3dee006e6e0a3f9d, ptr noundef nonnull readonly align 1 dereferenceable(3) %scalar.0, i64 range(i64 0, -9223372036854775808) 3), !alias.scope !665
  %15 = icmp eq i32 %14, 0
  br i1 %15, label %bb42, label %bb15

cleanup7:                                         ; preds = %bb35
  %16 = landingpad { ptr, i32 }
          cleanup
  %17 = icmp eq i64 %negative2.sroa.0.0.copyload, 0
  br i1 %17, label %bb27, label %bb2.i.i.i4.i.i32

bb2.i.i.i4.i.i32:                                 ; preds = %cleanup7
; call __rustc::__rust_dealloc
  call void @_RNvCsKhRCbHf33p_7___rustc14___rust_dealloc(ptr noundef nonnull %negative2.sroa.7.0.copyload, i64 noundef %negative2.sroa.0.0.copyload, i64 noundef range(i64 1, -9223372036854775807) 1) #43, !noalias !672
  br label %bb27

bb6:                                              ; preds = %bb35
  %18 = load i8, ptr %_25, align 16, !range !655, !noundef !2
  %19 = trunc nuw i8 %18 to i1
  br i1 %19, label %bb8, label %bb7

bb8:                                              ; preds = %bb6
  %20 = icmp eq i64 %negative2.sroa.0.0.copyload, 0
  br i1 %20, label %_RINvNtCsjMrxcFdYDNN_4core3ptr13drop_in_placeNtNtCsdJPVW0sQgAG_5alloc6string6StringECsbHDlgkaPqr9_10serde_yaml.exit38, label %bb2.i.i.i4.i.i36

bb2.i.i.i4.i.i36:                                 ; preds = %bb8
; call __rustc::__rust_dealloc
  call void @_RNvCsKhRCbHf33p_7___rustc14___rust_dealloc(ptr noundef nonnull %negative2.sroa.7.0.copyload, i64 noundef %negative2.sroa.0.0.copyload, i64 noundef range(i64 1, -9223372036854775807) 1) #43, !noalias !675
  br label %_RINvNtCsjMrxcFdYDNN_4core3ptr13drop_in_placeNtNtCsdJPVW0sQgAG_5alloc6string6StringECsbHDlgkaPqr9_10serde_yaml.exit38

_RINvNtCsjMrxcFdYDNN_4core3ptr13drop_in_placeNtNtCsdJPVW0sQgAG_5alloc6string6StringECsbHDlgkaPqr9_10serde_yaml.exit38: ; preds = %bb8, %bb2.i.i.i4.i.i36
  call void @llvm.lifetime.end.p0(i64 32, ptr nonnull %_25)
  call void @llvm.lifetime.end.p0(i64 16, ptr nonnull %rest1)
  br label %_RNvMNtCsjMrxcFdYDNN_4core5sliceSh11starts_withCsbHDlgkaPqr9_10serde_yaml.exit30

bb7:                                              ; preds = %bb6
  %21 = getelementptr inbounds nuw i8, ptr %_25, i64 16
  %int8 = load i128, ptr %21, align 16, !noundef !2
  %22 = getelementptr inbounds nuw i8, ptr %_0, i64 16
  store i128 %int8, ptr %22, align 16
  store i128 1, ptr %_0, align 16
  %23 = icmp eq i64 %negative2.sroa.0.0.copyload, 0
  br i1 %23, label %_RINvNtCsjMrxcFdYDNN_4core3ptr13drop_in_placeNtNtCsdJPVW0sQgAG_5alloc6string6StringECsbHDlgkaPqr9_10serde_yaml.exit42, label %bb2.i.i.i4.i.i40

bb2.i.i.i4.i.i40:                                 ; preds = %bb7
; call __rustc::__rust_dealloc
  call void @_RNvCsKhRCbHf33p_7___rustc14___rust_dealloc(ptr noundef nonnull %negative2.sroa.7.0.copyload, i64 noundef %negative2.sroa.0.0.copyload, i64 noundef range(i64 1, -9223372036854775807) 1) #43, !noalias !678
  br label %_RINvNtCsjMrxcFdYDNN_4core3ptr13drop_in_placeNtNtCsdJPVW0sQgAG_5alloc6string6StringECsbHDlgkaPqr9_10serde_yaml.exit42

_RINvNtCsjMrxcFdYDNN_4core3ptr13drop_in_placeNtNtCsdJPVW0sQgAG_5alloc6string6StringECsbHDlgkaPqr9_10serde_yaml.exit42: ; preds = %bb7, %bb2.i.i.i4.i.i40
  call void @llvm.lifetime.end.p0(i64 32, ptr nonnull %_25)
  call void @llvm.lifetime.end.p0(i64 16, ptr nonnull %rest1)
  br label %bb23

bb42:                                             ; preds = %_RNvMNtCsjMrxcFdYDNN_4core5sliceSh11starts_withCsbHDlgkaPqr9_10serde_yaml.exit30
  %_120 = add i64 %scalar.1, -3
  %_122 = getelementptr inbounds nuw i8, ptr %scalar.0, i64 3
  call void @llvm.lifetime.start.p0(i64 16, ptr nonnull %rest4)
  store ptr %_122, ptr %rest4, align 8
  %24 = getelementptr inbounds nuw i8, ptr %rest4, i64 8
  store i64 %_120, ptr %24, align 8
  call void @llvm.lifetime.start.p0(i64 24, ptr nonnull %_32)
  call void @llvm.lifetime.start.p0(i64 16, ptr nonnull %args6)
  store ptr %rest4, ptr %args6, align 8
  %_36.sroa.4.0..sroa_idx = getelementptr inbounds nuw i8, ptr %args6, i64 8
  store ptr @_RNvXs1i_NtCsjMrxcFdYDNN_4core3fmtReNtB6_7Display3fmtCsbHDlgkaPqr9_10serde_yaml, ptr %_36.sroa.4.0..sroa_idx, align 8
; call alloc::fmt::format::format_inner
  call void @_RNvNvNtCsdJPVW0sQgAG_5alloc3fmt6format12format_inner(ptr noalias noundef nonnull sret([24 x i8]) align 8 captures(none) dereferenceable(24) %_32, ptr noundef nonnull @alloc_68a248632dd07609b57f8501a3ed0c3d, ptr noundef nonnull %args6), !noalias !681
  call void @llvm.lifetime.end.p0(i64 16, ptr nonnull %args6)
  %negative5.sroa.0.0.copyload = load i64, ptr %_32, align 8
  %negative5.sroa.7.0._32.sroa_idx = getelementptr inbounds nuw i8, ptr %_32, i64 8
  %negative5.sroa.7.0.copyload = load ptr, ptr %negative5.sroa.7.0._32.sroa_idx, align 8, !nonnull !2, !noundef !2
  %negative5.sroa.11.0._32.sroa_idx = getelementptr inbounds nuw i8, ptr %_32, i64 16
  %negative5.sroa.11.0.copyload = load i64, ptr %negative5.sroa.11.0._32.sroa_idx, align 8
  call void @llvm.lifetime.end.p0(i64 24, ptr nonnull %_32)
  call void @llvm.lifetime.start.p0(i64 32, ptr nonnull %_38)
; invoke <i128>::from_str_radix
  invoke fastcc void @_RNvMst_NtCsjMrxcFdYDNN_4core3numn14from_str_radix(ptr noalias noundef nonnull sret([32 x i8]) align 16 captures(address) dereferenceable(32) %_38, ptr noalias noundef nonnull readonly align 1 captures(address, read_provenance) %negative5.sroa.7.0.copyload, i64 noundef %negative5.sroa.11.0.copyload, i32 noundef 2)
          to label %bb11 unwind label %cleanup9

bb15:                                             ; preds = %start, %_RNvMNtCsjMrxcFdYDNN_4core5sliceSh11starts_withCsbHDlgkaPqr9_10serde_yaml.exit30, %_RINvNtCsjMrxcFdYDNN_4core3ptr13drop_in_placeNtNtCsdJPVW0sQgAG_5alloc6string6StringECsbHDlgkaPqr9_10serde_yaml.exit50
; call serde_yaml::de::digits_but_not_number
  %_42 = call noundef zeroext i1 @_RNvNtCsbHDlgkaPqr9_10serde_yaml2de21digits_but_not_number(ptr noalias noundef nonnull readonly align 1 captures(address, read_provenance) %scalar.0, i64 noundef %scalar.1)
  br i1 %_42, label %bb17, label %bb18

cleanup9:                                         ; preds = %bb42
  %25 = landingpad { ptr, i32 }
          cleanup
  %26 = icmp eq i64 %negative5.sroa.0.0.copyload, 0
  br i1 %26, label %bb27, label %bb2.i.i.i4.i.i44

bb2.i.i.i4.i.i44:                                 ; preds = %cleanup9
; call __rustc::__rust_dealloc
  call void @_RNvCsKhRCbHf33p_7___rustc14___rust_dealloc(ptr noundef nonnull %negative5.sroa.7.0.copyload, i64 noundef %negative5.sroa.0.0.copyload, i64 noundef range(i64 1, -9223372036854775807) 1) #43, !noalias !684
  br label %bb27

bb11:                                             ; preds = %bb42
  %27 = load i8, ptr %_38, align 16, !range !655, !noundef !2
  %28 = trunc nuw i8 %27 to i1
  br i1 %28, label %bb13, label %bb12

bb13:                                             ; preds = %bb11
  %29 = icmp eq i64 %negative5.sroa.0.0.copyload, 0
  br i1 %29, label %_RINvNtCsjMrxcFdYDNN_4core3ptr13drop_in_placeNtNtCsdJPVW0sQgAG_5alloc6string6StringECsbHDlgkaPqr9_10serde_yaml.exit50, label %bb2.i.i.i4.i.i48

bb2.i.i.i4.i.i48:                                 ; preds = %bb13
; call __rustc::__rust_dealloc
  call void @_RNvCsKhRCbHf33p_7___rustc14___rust_dealloc(ptr noundef nonnull %negative5.sroa.7.0.copyload, i64 noundef %negative5.sroa.0.0.copyload, i64 noundef range(i64 1, -9223372036854775807) 1) #43, !noalias !687
  br label %_RINvNtCsjMrxcFdYDNN_4core3ptr13drop_in_placeNtNtCsdJPVW0sQgAG_5alloc6string6StringECsbHDlgkaPqr9_10serde_yaml.exit50

_RINvNtCsjMrxcFdYDNN_4core3ptr13drop_in_placeNtNtCsdJPVW0sQgAG_5alloc6string6StringECsbHDlgkaPqr9_10serde_yaml.exit50: ; preds = %bb13, %bb2.i.i.i4.i.i48
  call void @llvm.lifetime.end.p0(i64 32, ptr nonnull %_38)
  call void @llvm.lifetime.end.p0(i64 16, ptr nonnull %rest4)
  br label %bb15

bb12:                                             ; preds = %bb11
  %30 = getelementptr inbounds nuw i8, ptr %_38, i64 16
  %int10 = load i128, ptr %30, align 16, !noundef !2
  %31 = getelementptr inbounds nuw i8, ptr %_0, i64 16
  store i128 %int10, ptr %31, align 16
  store i128 1, ptr %_0, align 16
  %32 = icmp eq i64 %negative5.sroa.0.0.copyload, 0
  br i1 %32, label %_RINvNtCsjMrxcFdYDNN_4core3ptr13drop_in_placeNtNtCsdJPVW0sQgAG_5alloc6string6StringECsbHDlgkaPqr9_10serde_yaml.exit54, label %bb2.i.i.i4.i.i52

bb2.i.i.i4.i.i52:                                 ; preds = %bb12
; call __rustc::__rust_dealloc
  call void @_RNvCsKhRCbHf33p_7___rustc14___rust_dealloc(ptr noundef nonnull %negative5.sroa.7.0.copyload, i64 noundef %negative5.sroa.0.0.copyload, i64 noundef range(i64 1, -9223372036854775807) 1) #43, !noalias !690
  br label %_RINvNtCsjMrxcFdYDNN_4core3ptr13drop_in_placeNtNtCsdJPVW0sQgAG_5alloc6string6StringECsbHDlgkaPqr9_10serde_yaml.exit54

_RINvNtCsjMrxcFdYDNN_4core3ptr13drop_in_placeNtNtCsdJPVW0sQgAG_5alloc6string6StringECsbHDlgkaPqr9_10serde_yaml.exit54: ; preds = %bb12, %bb2.i.i.i4.i.i52
  call void @llvm.lifetime.end.p0(i64 32, ptr nonnull %_38)
  call void @llvm.lifetime.end.p0(i64 16, ptr nonnull %rest4)
  br label %bb23

bb18:                                             ; preds = %bb15
  call void @llvm.lifetime.start.p0(i64 32, ptr nonnull %_43)
; call <i128>::from_str_radix
  call fastcc void @_RNvMst_NtCsjMrxcFdYDNN_4core3numn14from_str_radix(ptr noalias noundef nonnull sret([32 x i8]) align 16 captures(address) dereferenceable(32) %_43, ptr noalias noundef nonnull readonly align 1 captures(address, read_provenance) %scalar.0, i64 noundef %scalar.1, i32 noundef 10)
  %33 = load i8, ptr %_43, align 16, !range !655, !noundef !2
  %34 = trunc nuw i8 %33 to i1
  br i1 %34, label %bb54, label %bb51

bb17:                                             ; preds = %bb15
  store i128 0, ptr %_0, align 16
  br label %bb23

bb51:                                             ; preds = %bb18
  %35 = getelementptr inbounds nuw i8, ptr %_43, i64 16
  %_148 = load i128, ptr %35, align 16, !noundef !2
  %36 = getelementptr inbounds nuw i8, ptr %_0, i64 16
  store i128 %_148, ptr %36, align 16
  br label %bb54

bb54:                                             ; preds = %bb18, %bb51
  %storemerge = phi i128 [ 1, %bb51 ], [ 0, %bb18 ]
  store i128 %storemerge, ptr %_0, align 16
  call void @llvm.lifetime.end.p0(i64 32, ptr nonnull %_43)
  br label %bb23

bb27:                                             ; preds = %bb2.i.i.i4.i.i44, %cleanup9, %bb2.i.i.i4.i.i32, %cleanup7, %bb2.i.i.i4.i.i, %cleanup
  %.pn = phi { ptr, i32 } [ %5, %cleanup ], [ %5, %bb2.i.i.i4.i.i ], [ %16, %cleanup7 ], [ %16, %bb2.i.i.i4.i.i32 ], [ %25, %cleanup9 ], [ %25, %bb2.i.i.i4.i.i44 ]
  resume { ptr, i32 } %.pn
}

; serde_yaml::de::parse_negative_int::<i64>
; Function Attrs: uwtable
define internal fastcc { i64, i64 } @_RINvNtCsbHDlgkaPqr9_10serde_yaml2de18parse_negative_intxEB4_(ptr noalias noundef nonnull readonly align 1 captures(address, read_provenance) %scalar.0, i64 noundef %scalar.1) unnamed_addr #0 personality ptr @rust_eh_personality {
start:
  %_43 = alloca [16 x i8], align 8
  %_38 = alloca [16 x i8], align 8
  %args6 = alloca [16 x i8], align 8
  %_32 = alloca [24 x i8], align 8
  %rest4 = alloca [16 x i8], align 8
  %_25 = alloca [16 x i8], align 8
  %args3 = alloca [16 x i8], align 8
  %_19 = alloca [24 x i8], align 8
  %rest1 = alloca [16 x i8], align 8
  %_12 = alloca [16 x i8], align 8
  %args = alloca [16 x i8], align 8
  %_6 = alloca [24 x i8], align 8
  %rest = alloca [16 x i8], align 8
  %_4.not.i = icmp samesign ult i64 %scalar.1, 3
  br i1 %_4.not.i, label %bb15, label %_RNvMNtCsjMrxcFdYDNN_4core5sliceSh11starts_withCsbHDlgkaPqr9_10serde_yaml.exit

_RNvMNtCsjMrxcFdYDNN_4core5sliceSh11starts_withCsbHDlgkaPqr9_10serde_yaml.exit: ; preds = %start
  %0 = tail call i32 @memcmp(ptr noundef nonnull readonly align 1 dereferenceable(3) @alloc_d49e492815bdb5d79356de42ff8baf31, ptr noundef nonnull readonly align 1 dereferenceable(3) %scalar.0, i64 range(i64 0, -9223372036854775808) 3), !alias.scope !693
  %1 = icmp eq i32 %0, 0
  br i1 %1, label %bb28, label %_RNvMNtCsjMrxcFdYDNN_4core5sliceSh11starts_withCsbHDlgkaPqr9_10serde_yaml.exit18

bb28:                                             ; preds = %_RNvMNtCsjMrxcFdYDNN_4core5sliceSh11starts_withCsbHDlgkaPqr9_10serde_yaml.exit
  %_52 = add i64 %scalar.1, -3
  %_54 = getelementptr inbounds nuw i8, ptr %scalar.0, i64 3
  call void @llvm.lifetime.start.p0(i64 16, ptr nonnull %rest)
  store ptr %_54, ptr %rest, align 8
  %2 = getelementptr inbounds nuw i8, ptr %rest, i64 8
  store i64 %_52, ptr %2, align 8
  call void @llvm.lifetime.start.p0(i64 24, ptr nonnull %_6)
  call void @llvm.lifetime.start.p0(i64 16, ptr nonnull %args)
  store ptr %rest, ptr %args, align 8
  %_10.sroa.4.0..sroa_idx = getelementptr inbounds nuw i8, ptr %args, i64 8
  store ptr @_RNvXs1i_NtCsjMrxcFdYDNN_4core3fmtReNtB6_7Display3fmtCsbHDlgkaPqr9_10serde_yaml, ptr %_10.sroa.4.0..sroa_idx, align 8
; call alloc::fmt::format::format_inner
  call void @_RNvNvNtCsdJPVW0sQgAG_5alloc3fmt6format12format_inner(ptr noalias noundef nonnull sret([24 x i8]) align 8 captures(none) dereferenceable(24) %_6, ptr noundef nonnull @alloc_68a248632dd07609b57f8501a3ed0c3d, ptr noundef nonnull %args), !noalias !700
  call void @llvm.lifetime.end.p0(i64 16, ptr nonnull %args)
  %negative.sroa.0.0.copyload = load i64, ptr %_6, align 8
  %negative.sroa.7.0._6.sroa_idx = getelementptr inbounds nuw i8, ptr %_6, i64 8
  %negative.sroa.7.0.copyload = load ptr, ptr %negative.sroa.7.0._6.sroa_idx, align 8, !nonnull !2, !noundef !2
  %negative.sroa.11.0._6.sroa_idx = getelementptr inbounds nuw i8, ptr %_6, i64 16
  %negative.sroa.11.0.copyload = load i64, ptr %negative.sroa.11.0._6.sroa_idx, align 8
  call void @llvm.lifetime.end.p0(i64 24, ptr nonnull %_6)
  call void @llvm.lifetime.start.p0(i64 16, ptr nonnull %_12)
; invoke <i64>::from_str_radix
  invoke fastcc void @_RNvMsr_NtCsjMrxcFdYDNN_4core3numx14from_str_radix(ptr noalias noundef nonnull sret([16 x i8]) align 8 captures(address) dereferenceable(16) %_12, ptr noalias noundef nonnull readonly align 1 captures(address, read_provenance) %negative.sroa.7.0.copyload, i64 noundef %negative.sroa.11.0.copyload, i32 noundef 16)
          to label %bb1 unwind label %cleanup

_RNvMNtCsjMrxcFdYDNN_4core5sliceSh11starts_withCsbHDlgkaPqr9_10serde_yaml.exit18: ; preds = %_RINvNtCsjMrxcFdYDNN_4core3ptr13drop_in_placeNtNtCsdJPVW0sQgAG_5alloc6string6StringECsbHDlgkaPqr9_10serde_yaml.exit22, %_RNvMNtCsjMrxcFdYDNN_4core5sliceSh11starts_withCsbHDlgkaPqr9_10serde_yaml.exit
  %3 = call i32 @memcmp(ptr noundef nonnull readonly align 1 dereferenceable(3) @alloc_25c4fcca6fcceefe253684797f27b0ef, ptr noundef nonnull readonly align 1 dereferenceable(3) %scalar.0, i64 range(i64 0, -9223372036854775808) 3), !alias.scope !703
  %4 = icmp eq i32 %3, 0
  br i1 %4, label %bb35, label %_RNvMNtCsjMrxcFdYDNN_4core5sliceSh11starts_withCsbHDlgkaPqr9_10serde_yaml.exit30

cleanup:                                          ; preds = %bb28
  %5 = landingpad { ptr, i32 }
          cleanup
  %6 = icmp eq i64 %negative.sroa.0.0.copyload, 0
  br i1 %6, label %bb27, label %bb2.i.i.i4.i.i

bb2.i.i.i4.i.i:                                   ; preds = %cleanup
; call __rustc::__rust_dealloc
  call void @_RNvCsKhRCbHf33p_7___rustc14___rust_dealloc(ptr noundef nonnull %negative.sroa.7.0.copyload, i64 noundef %negative.sroa.0.0.copyload, i64 noundef range(i64 1, -9223372036854775807) 1) #43, !noalias !710
  br label %bb27

bb1:                                              ; preds = %bb28
  %7 = load i8, ptr %_12, align 8, !range !655, !noundef !2
  %8 = trunc nuw i8 %7 to i1
  br i1 %8, label %bb3, label %bb2

bb3:                                              ; preds = %bb1
  %9 = icmp eq i64 %negative.sroa.0.0.copyload, 0
  br i1 %9, label %_RINvNtCsjMrxcFdYDNN_4core3ptr13drop_in_placeNtNtCsdJPVW0sQgAG_5alloc6string6StringECsbHDlgkaPqr9_10serde_yaml.exit22, label %bb2.i.i.i4.i.i20

bb2.i.i.i4.i.i20:                                 ; preds = %bb3
; call __rustc::__rust_dealloc
  call void @_RNvCsKhRCbHf33p_7___rustc14___rust_dealloc(ptr noundef nonnull %negative.sroa.7.0.copyload, i64 noundef %negative.sroa.0.0.copyload, i64 noundef range(i64 1, -9223372036854775807) 1) #43, !noalias !713
  br label %_RINvNtCsjMrxcFdYDNN_4core3ptr13drop_in_placeNtNtCsdJPVW0sQgAG_5alloc6string6StringECsbHDlgkaPqr9_10serde_yaml.exit22

_RINvNtCsjMrxcFdYDNN_4core3ptr13drop_in_placeNtNtCsdJPVW0sQgAG_5alloc6string6StringECsbHDlgkaPqr9_10serde_yaml.exit22: ; preds = %bb3, %bb2.i.i.i4.i.i20
  call void @llvm.lifetime.end.p0(i64 16, ptr nonnull %_12)
  call void @llvm.lifetime.end.p0(i64 16, ptr nonnull %rest)
  br label %_RNvMNtCsjMrxcFdYDNN_4core5sliceSh11starts_withCsbHDlgkaPqr9_10serde_yaml.exit18

bb2:                                              ; preds = %bb1
  %10 = getelementptr inbounds nuw i8, ptr %_12, i64 8
  %int = load i64, ptr %10, align 8, !noundef !2
  %11 = icmp eq i64 %negative.sroa.0.0.copyload, 0
  br i1 %11, label %_RINvNtCsjMrxcFdYDNN_4core3ptr13drop_in_placeNtNtCsdJPVW0sQgAG_5alloc6string6StringECsbHDlgkaPqr9_10serde_yaml.exit26, label %bb2.i.i.i4.i.i24

bb2.i.i.i4.i.i24:                                 ; preds = %bb2
; call __rustc::__rust_dealloc
  call void @_RNvCsKhRCbHf33p_7___rustc14___rust_dealloc(ptr noundef nonnull %negative.sroa.7.0.copyload, i64 noundef %negative.sroa.0.0.copyload, i64 noundef range(i64 1, -9223372036854775807) 1) #43, !noalias !716
  br label %_RINvNtCsjMrxcFdYDNN_4core3ptr13drop_in_placeNtNtCsdJPVW0sQgAG_5alloc6string6StringECsbHDlgkaPqr9_10serde_yaml.exit26

_RINvNtCsjMrxcFdYDNN_4core3ptr13drop_in_placeNtNtCsdJPVW0sQgAG_5alloc6string6StringECsbHDlgkaPqr9_10serde_yaml.exit26: ; preds = %bb2, %bb2.i.i.i4.i.i24
  call void @llvm.lifetime.end.p0(i64 16, ptr nonnull %_12)
  call void @llvm.lifetime.end.p0(i64 16, ptr nonnull %rest)
  br label %bb23

bb23:                                             ; preds = %bb15, %bb18, %_RINvNtCsjMrxcFdYDNN_4core3ptr13drop_in_placeNtNtCsdJPVW0sQgAG_5alloc6string6StringECsbHDlgkaPqr9_10serde_yaml.exit54, %_RINvNtCsjMrxcFdYDNN_4core3ptr13drop_in_placeNtNtCsdJPVW0sQgAG_5alloc6string6StringECsbHDlgkaPqr9_10serde_yaml.exit42, %_RINvNtCsjMrxcFdYDNN_4core3ptr13drop_in_placeNtNtCsdJPVW0sQgAG_5alloc6string6StringECsbHDlgkaPqr9_10serde_yaml.exit26
  %_0.sroa.7.0 = phi i64 [ %_0.sroa.7.1, %bb18 ], [ %int10, %_RINvNtCsjMrxcFdYDNN_4core3ptr13drop_in_placeNtNtCsdJPVW0sQgAG_5alloc6string6StringECsbHDlgkaPqr9_10serde_yaml.exit54 ], [ %int8, %_RINvNtCsjMrxcFdYDNN_4core3ptr13drop_in_placeNtNtCsdJPVW0sQgAG_5alloc6string6StringECsbHDlgkaPqr9_10serde_yaml.exit42 ], [ %int, %_RINvNtCsjMrxcFdYDNN_4core3ptr13drop_in_placeNtNtCsdJPVW0sQgAG_5alloc6string6StringECsbHDlgkaPqr9_10serde_yaml.exit26 ], [ undef, %bb15 ]
  %_0.sroa.0.0 = phi i64 [ %_0.sroa.0.1, %bb18 ], [ 1, %_RINvNtCsjMrxcFdYDNN_4core3ptr13drop_in_placeNtNtCsdJPVW0sQgAG_5alloc6string6StringECsbHDlgkaPqr9_10serde_yaml.exit54 ], [ 1, %_RINvNtCsjMrxcFdYDNN_4core3ptr13drop_in_placeNtNtCsdJPVW0sQgAG_5alloc6string6StringECsbHDlgkaPqr9_10serde_yaml.exit42 ], [ 1, %_RINvNtCsjMrxcFdYDNN_4core3ptr13drop_in_placeNtNtCsdJPVW0sQgAG_5alloc6string6StringECsbHDlgkaPqr9_10serde_yaml.exit26 ], [ 0, %bb15 ]
  %12 = insertvalue { i64, i64 } poison, i64 %_0.sroa.0.0, 0
  %13 = insertvalue { i64, i64 } %12, i64 %_0.sroa.7.0, 1
  ret { i64, i64 } %13

bb35:                                             ; preds = %_RNvMNtCsjMrxcFdYDNN_4core5sliceSh11starts_withCsbHDlgkaPqr9_10serde_yaml.exit18
  %_86 = add i64 %scalar.1, -3
  %_88 = getelementptr inbounds nuw i8, ptr %scalar.0, i64 3
  call void @llvm.lifetime.start.p0(i64 16, ptr nonnull %rest1)
  store ptr %_88, ptr %rest1, align 8
  %14 = getelementptr inbounds nuw i8, ptr %rest1, i64 8
  store i64 %_86, ptr %14, align 8
  call void @llvm.lifetime.start.p0(i64 24, ptr nonnull %_19)
  call void @llvm.lifetime.start.p0(i64 16, ptr nonnull %args3)
  store ptr %rest1, ptr %args3, align 8
  %_23.sroa.4.0..sroa_idx = getelementptr inbounds nuw i8, ptr %args3, i64 8
  store ptr @_RNvXs1i_NtCsjMrxcFdYDNN_4core3fmtReNtB6_7Display3fmtCsbHDlgkaPqr9_10serde_yaml, ptr %_23.sroa.4.0..sroa_idx, align 8
; call alloc::fmt::format::format_inner
  call void @_RNvNvNtCsdJPVW0sQgAG_5alloc3fmt6format12format_inner(ptr noalias noundef nonnull sret([24 x i8]) align 8 captures(none) dereferenceable(24) %_19, ptr noundef nonnull @alloc_68a248632dd07609b57f8501a3ed0c3d, ptr noundef nonnull %args3), !noalias !719
  call void @llvm.lifetime.end.p0(i64 16, ptr nonnull %args3)
  %negative2.sroa.0.0.copyload = load i64, ptr %_19, align 8
  %negative2.sroa.7.0._19.sroa_idx = getelementptr inbounds nuw i8, ptr %_19, i64 8
  %negative2.sroa.7.0.copyload = load ptr, ptr %negative2.sroa.7.0._19.sroa_idx, align 8, !nonnull !2, !noundef !2
  %negative2.sroa.11.0._19.sroa_idx = getelementptr inbounds nuw i8, ptr %_19, i64 16
  %negative2.sroa.11.0.copyload = load i64, ptr %negative2.sroa.11.0._19.sroa_idx, align 8
  call void @llvm.lifetime.end.p0(i64 24, ptr nonnull %_19)
  call void @llvm.lifetime.start.p0(i64 16, ptr nonnull %_25)
; invoke <i64>::from_str_radix
  invoke fastcc void @_RNvMsr_NtCsjMrxcFdYDNN_4core3numx14from_str_radix(ptr noalias noundef nonnull sret([16 x i8]) align 8 captures(address) dereferenceable(16) %_25, ptr noalias noundef nonnull readonly align 1 captures(address, read_provenance) %negative2.sroa.7.0.copyload, i64 noundef %negative2.sroa.11.0.copyload, i32 noundef 8)
          to label %bb6 unwind label %cleanup7

_RNvMNtCsjMrxcFdYDNN_4core5sliceSh11starts_withCsbHDlgkaPqr9_10serde_yaml.exit30: ; preds = %_RINvNtCsjMrxcFdYDNN_4core3ptr13drop_in_placeNtNtCsdJPVW0sQgAG_5alloc6string6StringECsbHDlgkaPqr9_10serde_yaml.exit38, %_RNvMNtCsjMrxcFdYDNN_4core5sliceSh11starts_withCsbHDlgkaPqr9_10serde_yaml.exit18
  %15 = call i32 @memcmp(ptr noundef nonnull readonly align 1 dereferenceable(3) @alloc_680020dc4a42e88f3dee006e6e0a3f9d, ptr noundef nonnull readonly align 1 dereferenceable(3) %scalar.0, i64 range(i64 0, -9223372036854775808) 3), !alias.scope !722
  %16 = icmp eq i32 %15, 0
  br i1 %16, label %bb42, label %bb15

cleanup7:                                         ; preds = %bb35
  %17 = landingpad { ptr, i32 }
          cleanup
  %18 = icmp eq i64 %negative2.sroa.0.0.copyload, 0
  br i1 %18, label %bb27, label %bb2.i.i.i4.i.i32

bb2.i.i.i4.i.i32:                                 ; preds = %cleanup7
; call __rustc::__rust_dealloc
  call void @_RNvCsKhRCbHf33p_7___rustc14___rust_dealloc(ptr noundef nonnull %negative2.sroa.7.0.copyload, i64 noundef %negative2.sroa.0.0.copyload, i64 noundef range(i64 1, -9223372036854775807) 1) #43, !noalias !729
  br label %bb27

bb6:                                              ; preds = %bb35
  %19 = load i8, ptr %_25, align 8, !range !655, !noundef !2
  %20 = trunc nuw i8 %19 to i1
  br i1 %20, label %bb8, label %bb7

bb8:                                              ; preds = %bb6
  %21 = icmp eq i64 %negative2.sroa.0.0.copyload, 0
  br i1 %21, label %_RINvNtCsjMrxcFdYDNN_4core3ptr13drop_in_placeNtNtCsdJPVW0sQgAG_5alloc6string6StringECsbHDlgkaPqr9_10serde_yaml.exit38, label %bb2.i.i.i4.i.i36

bb2.i.i.i4.i.i36:                                 ; preds = %bb8
; call __rustc::__rust_dealloc
  call void @_RNvCsKhRCbHf33p_7___rustc14___rust_dealloc(ptr noundef nonnull %negative2.sroa.7.0.copyload, i64 noundef %negative2.sroa.0.0.copyload, i64 noundef range(i64 1, -9223372036854775807) 1) #43, !noalias !732
  br label %_RINvNtCsjMrxcFdYDNN_4core3ptr13drop_in_placeNtNtCsdJPVW0sQgAG_5alloc6string6StringECsbHDlgkaPqr9_10serde_yaml.exit38

_RINvNtCsjMrxcFdYDNN_4core3ptr13drop_in_placeNtNtCsdJPVW0sQgAG_5alloc6string6StringECsbHDlgkaPqr9_10serde_yaml.exit38: ; preds = %bb8, %bb2.i.i.i4.i.i36
  call void @llvm.lifetime.end.p0(i64 16, ptr nonnull %_25)
  call void @llvm.lifetime.end.p0(i64 16, ptr nonnull %rest1)
  br label %_RNvMNtCsjMrxcFdYDNN_4core5sliceSh11starts_withCsbHDlgkaPqr9_10serde_yaml.exit30

bb7:                                              ; preds = %bb6
  %22 = getelementptr inbounds nuw i8, ptr %_25, i64 8
  %int8 = load i64, ptr %22, align 8, !noundef !2
  %23 = icmp eq i64 %negative2.sroa.0.0.copyload, 0
  br i1 %23, label %_RINvNtCsjMrxcFdYDNN_4core3ptr13drop_in_placeNtNtCsdJPVW0sQgAG_5alloc6string6StringECsbHDlgkaPqr9_10serde_yaml.exit42, label %bb2.i.i.i4.i.i40

bb2.i.i.i4.i.i40:                                 ; preds = %bb7
; call __rustc::__rust_dealloc
  call void @_RNvCsKhRCbHf33p_7___rustc14___rust_dealloc(ptr noundef nonnull %negative2.sroa.7.0.copyload, i64 noundef %negative2.sroa.0.0.copyload, i64 noundef range(i64 1, -9223372036854775807) 1) #43, !noalias !735
  br label %_RINvNtCsjMrxcFdYDNN_4core3ptr13drop_in_placeNtNtCsdJPVW0sQgAG_5alloc6string6StringECsbHDlgkaPqr9_10serde_yaml.exit42

_RINvNtCsjMrxcFdYDNN_4core3ptr13drop_in_placeNtNtCsdJPVW0sQgAG_5alloc6string6StringECsbHDlgkaPqr9_10serde_yaml.exit42: ; preds = %bb7, %bb2.i.i.i4.i.i40
  call void @llvm.lifetime.end.p0(i64 16, ptr nonnull %_25)
  call void @llvm.lifetime.end.p0(i64 16, ptr nonnull %rest1)
  br label %bb23

bb42:                                             ; preds = %_RNvMNtCsjMrxcFdYDNN_4core5sliceSh11starts_withCsbHDlgkaPqr9_10serde_yaml.exit30
  %_120 = add i64 %scalar.1, -3
  %_122 = getelementptr inbounds nuw i8, ptr %scalar.0, i64 3
  call void @llvm.lifetime.start.p0(i64 16, ptr nonnull %rest4)
  store ptr %_122, ptr %rest4, align 8
  %24 = getelementptr inbounds nuw i8, ptr %rest4, i64 8
  store i64 %_120, ptr %24, align 8
  call void @llvm.lifetime.start.p0(i64 24, ptr nonnull %_32)
  call void @llvm.lifetime.start.p0(i64 16, ptr nonnull %args6)
  store ptr %rest4, ptr %args6, align 8
  %_36.sroa.4.0..sroa_idx = getelementptr inbounds nuw i8, ptr %args6, i64 8
  store ptr @_RNvXs1i_NtCsjMrxcFdYDNN_4core3fmtReNtB6_7Display3fmtCsbHDlgkaPqr9_10serde_yaml, ptr %_36.sroa.4.0..sroa_idx, align 8
; call alloc::fmt::format::format_inner
  call void @_RNvNvNtCsdJPVW0sQgAG_5alloc3fmt6format12format_inner(ptr noalias noundef nonnull sret([24 x i8]) align 8 captures(none) dereferenceable(24) %_32, ptr noundef nonnull @alloc_68a248632dd07609b57f8501a3ed0c3d, ptr noundef nonnull %args6), !noalias !738
  call void @llvm.lifetime.end.p0(i64 16, ptr nonnull %args6)
  %negative5.sroa.0.0.copyload = load i64, ptr %_32, align 8
  %negative5.sroa.7.0._32.sroa_idx = getelementptr inbounds nuw i8, ptr %_32, i64 8
  %negative5.sroa.7.0.copyload = load ptr, ptr %negative5.sroa.7.0._32.sroa_idx, align 8, !nonnull !2, !noundef !2
  %negative5.sroa.11.0._32.sroa_idx = getelementptr inbounds nuw i8, ptr %_32, i64 16
  %negative5.sroa.11.0.copyload = load i64, ptr %negative5.sroa.11.0._32.sroa_idx, align 8
  call void @llvm.lifetime.end.p0(i64 24, ptr nonnull %_32)
  call void @llvm.lifetime.start.p0(i64 16, ptr nonnull %_38)
; invoke <i64>::from_str_radix
  invoke fastcc void @_RNvMsr_NtCsjMrxcFdYDNN_4core3numx14from_str_radix(ptr noalias noundef nonnull sret([16 x i8]) align 8 captures(address) dereferenceable(16) %_38, ptr noalias noundef nonnull readonly align 1 captures(address, read_provenance) %negative5.sroa.7.0.copyload, i64 noundef %negative5.sroa.11.0.copyload, i32 noundef 2)
          to label %bb11 unwind label %cleanup9

bb15:                                             ; preds = %start, %_RNvMNtCsjMrxcFdYDNN_4core5sliceSh11starts_withCsbHDlgkaPqr9_10serde_yaml.exit30, %_RINvNtCsjMrxcFdYDNN_4core3ptr13drop_in_placeNtNtCsdJPVW0sQgAG_5alloc6string6StringECsbHDlgkaPqr9_10serde_yaml.exit50
; call serde_yaml::de::digits_but_not_number
  %_42 = call noundef zeroext i1 @_RNvNtCsbHDlgkaPqr9_10serde_yaml2de21digits_but_not_number(ptr noalias noundef nonnull readonly align 1 captures(address, read_provenance) %scalar.0, i64 noundef %scalar.1)
  br i1 %_42, label %bb23, label %bb18

cleanup9:                                         ; preds = %bb42
  %25 = landingpad { ptr, i32 }
          cleanup
  %26 = icmp eq i64 %negative5.sroa.0.0.copyload, 0
  br i1 %26, label %bb27, label %bb2.i.i.i4.i.i44

bb2.i.i.i4.i.i44:                                 ; preds = %cleanup9
; call __rustc::__rust_dealloc
  call void @_RNvCsKhRCbHf33p_7___rustc14___rust_dealloc(ptr noundef nonnull %negative5.sroa.7.0.copyload, i64 noundef %negative5.sroa.0.0.copyload, i64 noundef range(i64 1, -9223372036854775807) 1) #43, !noalias !741
  br label %bb27

bb11:                                             ; preds = %bb42
  %27 = load i8, ptr %_38, align 8, !range !655, !noundef !2
  %28 = trunc nuw i8 %27 to i1
  br i1 %28, label %bb13, label %bb12

bb13:                                             ; preds = %bb11
  %29 = icmp eq i64 %negative5.sroa.0.0.copyload, 0
  br i1 %29, label %_RINvNtCsjMrxcFdYDNN_4core3ptr13drop_in_placeNtNtCsdJPVW0sQgAG_5alloc6string6StringECsbHDlgkaPqr9_10serde_yaml.exit50, label %bb2.i.i.i4.i.i48

bb2.i.i.i4.i.i48:                                 ; preds = %bb13
; call __rustc::__rust_dealloc
  call void @_RNvCsKhRCbHf33p_7___rustc14___rust_dealloc(ptr noundef nonnull %negative5.sroa.7.0.copyload, i64 noundef %negative5.sroa.0.0.copyload, i64 noundef range(i64 1, -9223372036854775807) 1) #43, !noalias !744
  br label %_RINvNtCsjMrxcFdYDNN_4core3ptr13drop_in_placeNtNtCsdJPVW0sQgAG_5alloc6string6StringECsbHDlgkaPqr9_10serde_yaml.exit50

_RINvNtCsjMrxcFdYDNN_4core3ptr13drop_in_placeNtNtCsdJPVW0sQgAG_5alloc6string6StringECsbHDlgkaPqr9_10serde_yaml.exit50: ; preds = %bb13, %bb2.i.i.i4.i.i48
  call void @llvm.lifetime.end.p0(i64 16, ptr nonnull %_38)
  call void @llvm.lifetime.end.p0(i64 16, ptr nonnull %rest4)
  br label %bb15

bb12:                                             ; preds = %bb11
  %30 = getelementptr inbounds nuw i8, ptr %_38, i64 8
  %int10 = load i64, ptr %30, align 8, !noundef !2
  %31 = icmp eq i64 %negative5.sroa.0.0.copyload, 0
  br i1 %31, label %_RINvNtCsjMrxcFdYDNN_4core3ptr13drop_in_placeNtNtCsdJPVW0sQgAG_5alloc6string6StringECsbHDlgkaPqr9_10serde_yaml.exit54, label %bb2.i.i.i4.i.i52

bb2.i.i.i4.i.i52:                                 ; preds = %bb12
; call __rustc::__rust_dealloc
  call void @_RNvCsKhRCbHf33p_7___rustc14___rust_dealloc(ptr noundef nonnull %negative5.sroa.7.0.copyload, i64 noundef %negative5.sroa.0.0.copyload, i64 noundef range(i64 1, -9223372036854775807) 1) #43, !noalias !747
  br label %_RINvNtCsjMrxcFdYDNN_4core3ptr13drop_in_placeNtNtCsdJPVW0sQgAG_5alloc6string6StringECsbHDlgkaPqr9_10serde_yaml.exit54

_RINvNtCsjMrxcFdYDNN_4core3ptr13drop_in_placeNtNtCsdJPVW0sQgAG_5alloc6string6StringECsbHDlgkaPqr9_10serde_yaml.exit54: ; preds = %bb12, %bb2.i.i.i4.i.i52
  call void @llvm.lifetime.end.p0(i64 16, ptr nonnull %_38)
  call void @llvm.lifetime.end.p0(i64 16, ptr nonnull %rest4)
  br label %bb23

bb18:                                             ; preds = %bb15
  call void @llvm.lifetime.start.p0(i64 16, ptr nonnull %_43)
; call <i64>::from_str_radix
  call fastcc void @_RNvMsr_NtCsjMrxcFdYDNN_4core3numx14from_str_radix(ptr noalias noundef nonnull sret([16 x i8]) align 8 captures(address) dereferenceable(16) %_43, ptr noalias noundef nonnull readonly align 1 captures(address, read_provenance) %scalar.0, i64 noundef %scalar.1, i32 noundef 10)
  %32 = load i8, ptr %_43, align 8, !range !655, !noundef !2
  %33 = trunc nuw i8 %32 to i1
  %34 = getelementptr inbounds nuw i8, ptr %_43, i64 8
  %_148 = load i64, ptr %34, align 8
  %_0.sroa.7.1 = select i1 %33, i64 undef, i64 %_148
  %not. = xor i1 %33, true
  %_0.sroa.0.1 = zext i1 %not. to i64
  call void @llvm.lifetime.end.p0(i64 16, ptr nonnull %_43)
  br label %bb23

bb27:                                             ; preds = %bb2.i.i.i4.i.i44, %cleanup9, %bb2.i.i.i4.i.i32, %cleanup7, %bb2.i.i.i4.i.i, %cleanup
  %.pn = phi { ptr, i32 } [ %5, %cleanup ], [ %5, %bb2.i.i.i4.i.i ], [ %17, %cleanup7 ], [ %17, %bb2.i.i.i4.i.i32 ], [ %25, %cleanup9 ], [ %25, %bb2.i.i.i4.i.i44 ]
  resume { ptr, i32 } %.pn
}

; serde_yaml::de::parse_unsigned_int::<u128>
; Function Attrs: uwtable
define internal fastcc void @_RINvNtCsbHDlgkaPqr9_10serde_yaml2de18parse_unsigned_intoEB4_(ptr dead_on_unwind noalias noundef nonnull writable writeonly align 16 captures(none) dereferenceable(32) %_0, ptr noalias noundef nonnull readonly align 1 captures(address, read_provenance) %scalar.0, i64 noundef %scalar.1) unnamed_addr #0 personality ptr @rust_eh_personality {
start:
  %_4.not.i = icmp eq i64 %scalar.1, 0
  br i1 %_4.not.i, label %bb20, label %_RNvMNtCsjMrxcFdYDNN_4core5sliceSh11starts_withCsbHDlgkaPqr9_10serde_yaml.exit

_RNvMNtCsjMrxcFdYDNN_4core5sliceSh11starts_withCsbHDlgkaPqr9_10serde_yaml.exit: ; preds = %start
  %rhsc = load i8, ptr %scalar.0, align 1
  %0 = icmp eq i8 %rhsc, 43
  %_49 = sext i1 %0 to i64
  %unpositive.sroa.7.0 = add i64 %scalar.1, %_49
  %unpositive.sroa.0.0.idx = zext i1 %0 to i64
  %unpositive.sroa.0.0 = getelementptr inbounds nuw i8, ptr %scalar.0, i64 %unpositive.sroa.0.0.idx
  %_4.not.i17 = icmp samesign ult i64 %unpositive.sroa.7.0, 2
  br i1 %_4.not.i17, label %bb18, label %_RNvMNtCsjMrxcFdYDNN_4core5sliceSh11starts_withCsbHDlgkaPqr9_10serde_yaml.exit20

_RNvMNtCsjMrxcFdYDNN_4core5sliceSh11starts_withCsbHDlgkaPqr9_10serde_yaml.exit20: ; preds = %_RNvMNtCsjMrxcFdYDNN_4core5sliceSh11starts_withCsbHDlgkaPqr9_10serde_yaml.exit
  %1 = tail call i32 @memcmp(ptr noundef nonnull readonly align 1 dereferenceable(2) @alloc_83d8d36e705c58ed11bda7b90dabc655, ptr noundef nonnull readonly align 1 dereferenceable(2) %unpositive.sroa.0.0, i64 range(i64 0, -9223372036854775808) 2), !alias.scope !750
  %2 = icmp eq i32 %1, 0
  br i1 %2, label %bb36, label %_RNvMNtCsjMrxcFdYDNN_4core5sliceSh11starts_withCsbHDlgkaPqr9_10serde_yaml.exit24

bb36:                                             ; preds = %_RNvMNtCsjMrxcFdYDNN_4core5sliceSh11starts_withCsbHDlgkaPqr9_10serde_yaml.exit20
  %_61 = add i64 %unpositive.sroa.7.0, -2
  %_63 = getelementptr inbounds nuw i8, ptr %unpositive.sroa.0.0, i64 2
  %_6.i.i.i.i.i = icmp samesign eq i64 %_61, 0
  br i1 %_6.i.i.i.i.i, label %_RNvMNtCsjMrxcFdYDNN_4core5sliceSh11starts_withCsbHDlgkaPqr9_10serde_yaml.exit24, label %bb14.i.i.i.i

bb14.i.i.i.i:                                     ; preds = %bb36
  %x.i.i.i.i = load i8, ptr %_63, align 1, !alias.scope !757, !noalias !760, !noundef !2
  %_6.i.i.i.i = icmp sgt i8 %x.i.i.i.i, -1
  br i1 %_6.i.i.i.i, label %bb3.i.i.i.i, label %bb4.i.i.i.i

bb4.i.i.i.i:                                      ; preds = %bb14.i.i.i.i
  %_16.i.i.i.i.i = getelementptr inbounds nuw i8, ptr %unpositive.sroa.0.0, i64 3
  %_30.i.i.i.i = and i8 %x.i.i.i.i, 31
  %init.i.i.i.i = zext nneg i8 %_30.i.i.i.i to i32
  %_6.i10.i.i.i.i = icmp samesign ne i64 %_61, 1
  tail call void @llvm.assume(i1 %_6.i10.i.i.i.i)
  %y.i.i.i.i = load i8, ptr %_16.i.i.i.i.i, align 1, !alias.scope !757, !noalias !760, !noundef !2
  %_33.i.i.i.i = shl nuw nsw i32 %init.i.i.i.i, 6
  %_35.i.i.i.i = and i8 %y.i.i.i.i, 63
  %_34.i.i.i.i = zext nneg i8 %_35.i.i.i.i to i32
  %3 = or disjoint i32 %_33.i.i.i.i, %_34.i.i.i.i
  %_13.i.i.i.i = icmp samesign ugt i8 %x.i.i.i.i, -33
  br i1 %_13.i.i.i.i, label %bb6.i.i.i.i, label %_RNvYINtNtNtCsjMrxcFdYDNN_4core3str7pattern18MultiCharEqPatternAcj2_ENtB5_7Pattern12is_prefix_ofCsbHDlgkaPqr9_10serde_yaml.exit

bb3.i.i.i.i:                                      ; preds = %bb14.i.i.i.i
  %_7.i.i.i.i = zext nneg i8 %x.i.i.i.i to i32
  br label %_RNvYINtNtNtCsjMrxcFdYDNN_4core3str7pattern18MultiCharEqPatternAcj2_ENtB5_7Pattern12is_prefix_ofCsbHDlgkaPqr9_10serde_yaml.exit

bb6.i.i.i.i:                                      ; preds = %bb4.i.i.i.i
  %_16.i12.i.i.i.i = getelementptr inbounds nuw i8, ptr %unpositive.sroa.0.0, i64 4
  %_6.i17.i.i.i.i = icmp samesign ne i64 %_61, 2
  tail call void @llvm.assume(i1 %_6.i17.i.i.i.i)
  %z.i.i.i.i = load i8, ptr %_16.i12.i.i.i.i, align 1, !alias.scope !757, !noalias !760, !noundef !2
  %_38.i.i.i.i = shl nuw nsw i32 %_34.i.i.i.i, 6
  %_40.i.i.i.i = and i8 %z.i.i.i.i, 63
  %_39.i.i.i.i = zext nneg i8 %_40.i.i.i.i to i32
  %y_z.i.i.i.i = or disjoint i32 %_38.i.i.i.i, %_39.i.i.i.i
  %_20.i.i.i.i = shl nuw nsw i32 %init.i.i.i.i, 12
  %4 = or disjoint i32 %y_z.i.i.i.i, %_20.i.i.i.i
  %_21.i.i.i.i = icmp samesign ugt i8 %x.i.i.i.i, -17
  br i1 %_21.i.i.i.i, label %bb8.i.i.i.i, label %_RNvYINtNtNtCsjMrxcFdYDNN_4core3str7pattern18MultiCharEqPatternAcj2_ENtB5_7Pattern12is_prefix_ofCsbHDlgkaPqr9_10serde_yaml.exit

bb8.i.i.i.i:                                      ; preds = %bb6.i.i.i.i
  %_16.i19.i.i.i.i = getelementptr inbounds nuw i8, ptr %unpositive.sroa.0.0, i64 5
  %_6.i24.i.i.i.i = icmp samesign ne i64 %_61, 3
  tail call void @llvm.assume(i1 %_6.i24.i.i.i.i)
  %w.i.i.i.i = load i8, ptr %_16.i19.i.i.i.i, align 1, !alias.scope !757, !noalias !760, !noundef !2
  %_26.i.i.i.i = shl nuw nsw i32 %init.i.i.i.i, 18
  %_25.i.i.i.i = and i32 %_26.i.i.i.i, 1835008
  %_43.i.i.i.i = shl nuw nsw i32 %y_z.i.i.i.i, 6
  %_45.i.i.i.i = and i8 %w.i.i.i.i, 63
  %_44.i.i.i.i = zext nneg i8 %_45.i.i.i.i to i32
  %_27.i.i.i.i = or disjoint i32 %_43.i.i.i.i, %_44.i.i.i.i
  %5 = or disjoint i32 %_27.i.i.i.i, %_25.i.i.i.i
  br label %_RNvYINtNtNtCsjMrxcFdYDNN_4core3str7pattern18MultiCharEqPatternAcj2_ENtB5_7Pattern12is_prefix_ofCsbHDlgkaPqr9_10serde_yaml.exit

_RNvYINtNtNtCsjMrxcFdYDNN_4core3str7pattern18MultiCharEqPatternAcj2_ENtB5_7Pattern12is_prefix_ofCsbHDlgkaPqr9_10serde_yaml.exit: ; preds = %bb4.i.i.i.i, %bb3.i.i.i.i, %bb6.i.i.i.i, %bb8.i.i.i.i
  %_0.sroa.4.0.i.ph.i.i.i = phi i32 [ %3, %bb4.i.i.i.i ], [ %4, %bb6.i.i.i.i ], [ %5, %bb8.i.i.i.i ], [ %_7.i.i.i.i, %bb3.i.i.i.i ]
  %6 = icmp samesign ult i32 %_0.sroa.4.0.i.ph.i.i.i, 1114112
  tail call void @llvm.assume(i1 %6)
  switch i32 %_0.sroa.4.0.i.ph.i.i.i, label %bb2 [
    i32 45, label %bb29
    i32 43, label %bb29
  ]

_RNvMNtCsjMrxcFdYDNN_4core5sliceSh11starts_withCsbHDlgkaPqr9_10serde_yaml.exit24: ; preds = %bb33.i.i, %bb23.i.i, %bb16.i.i, %bb7.i.i, %bb7.i.i, %bb36, %_RNvMNtCsjMrxcFdYDNN_4core5sliceSh11starts_withCsbHDlgkaPqr9_10serde_yaml.exit20
  %7 = tail call i32 @memcmp(ptr noundef nonnull readonly align 1 dereferenceable(2) @alloc_3f5e304b2d3feb2147d7ca807297437a, ptr noundef nonnull readonly align 1 dereferenceable(2) %unpositive.sroa.0.0, i64 range(i64 0, -9223372036854775808) 2), !alias.scope !768
  %8 = icmp eq i32 %7, 0
  br i1 %8, label %bb40, label %_RNvMNtCsjMrxcFdYDNN_4core5sliceSh11starts_withCsbHDlgkaPqr9_10serde_yaml.exit72

bb2:                                              ; preds = %_RNvYINtNtNtCsjMrxcFdYDNN_4core3str7pattern18MultiCharEqPatternAcj2_ENtB5_7Pattern12is_prefix_ofCsbHDlgkaPqr9_10serde_yaml.exit
  %cond29 = icmp eq i64 %_61, 1
  br i1 %cond29, label %bb7.i.i, label %bb9.i.i

bb7.i.i:                                          ; preds = %bb2
  switch i8 %x.i.i.i.i, label %bb9.i.i [
    i8 43, label %_RNvMNtCsjMrxcFdYDNN_4core5sliceSh11starts_withCsbHDlgkaPqr9_10serde_yaml.exit24
    i8 45, label %_RNvMNtCsjMrxcFdYDNN_4core5sliceSh11starts_withCsbHDlgkaPqr9_10serde_yaml.exit24
  ]

bb9.i.i:                                          ; preds = %bb2, %bb7.i.i
  %cond.i.i = icmp eq i8 %x.i.i.i.i, 43
  %rest.1.i.i = sext i1 %cond.i.i to i64
  %src.sroa.15.0.i.i = add nsw i64 %_61, %rest.1.i.i
  %src.sroa.0.0.idx.i.i = zext i1 %cond.i.i to i64
  %src.sroa.0.0.i.i = getelementptr inbounds nuw i8, ptr %_63, i64 %src.sroa.0.0.idx.i.i
  %_10.i.i = icmp samesign ult i64 %src.sroa.15.0.i.i, 33
  br i1 %_10.i.i, label %bb15.preheader.i.i, label %bb22.i.i

bb15.preheader.i.i:                               ; preds = %bb9.i.i
  %_13.not69.i.i = icmp eq i64 %src.sroa.15.0.i.i, 0
  br i1 %_13.not69.i.i, label %bb29.sink.split, label %bb16.i.i

bb22.i.i:                                         ; preds = %bb9.i.i, %bb33.i.i
  %result.sroa.0.0.i.i = phi i128 [ %_63.0.i.i, %bb33.i.i ], [ 0, %bb9.i.i ]
  %src.sroa.15.1.i.i = phi i64 [ %rest.12.i.i, %bb33.i.i ], [ %src.sroa.15.0.i.i, %bb9.i.i ]
  %src.sroa.0.1.i.i = phi ptr [ %rest.01.i.i, %bb33.i.i ], [ %src.sroa.0.0.i.i, %bb9.i.i ]
  %_30.not.i.i = icmp eq i64 %src.sroa.15.1.i.i, 0
  br i1 %_30.not.i.i, label %bb29.sink.split, label %bb23.i.i

bb23.i.i:                                         ; preds = %bb22.i.i
  %_60.1.i.i = icmp ugt i128 %result.sroa.0.0.i.i, 21267647932558653966460912964485513215
  br i1 %_60.1.i.i, label %_RNvMNtCsjMrxcFdYDNN_4core5sliceSh11starts_withCsbHDlgkaPqr9_10serde_yaml.exit24, label %bb33.i.i, !prof !32

bb33.i.i:                                         ; preds = %bb23.i.i
  %_60.0.i.i = shl nuw i128 %result.sroa.0.0.i.i, 4
  %rest.12.i.i = add nsw i64 %src.sroa.15.1.i.i, -1
  %rest.01.i.i = getelementptr inbounds nuw i8, ptr %src.sroa.0.1.i.i, i64 1
  %9 = load i8, ptr %src.sroa.0.1.i.i, align 1, !alias.scope !775, !noalias !780, !noundef !2
  %10 = zext i8 %9 to i32
  %_8.i.i.i = icmp ugt i8 %9, 57
  %_11.i.i.i = add nsw i32 %10, -65
  %_10.i.i.i = and i32 %_11.i.i.i, -33
  %11 = add nuw nsw i32 %_10.i.i.i, 10
  %12 = add nsw i32 %10, -48
  %spec.select.i.i = select i1 %_8.i.i.i, i32 %11, i32 %12
  %_14.i.i.i = icmp ugt i32 %spec.select.i.i, 15
  %13 = zext nneg i32 %spec.select.i.i to i128
  %_63.0.i.i = add i128 %_60.0.i.i, %13
  %_63.1.i.i = icmp ult i128 %_63.0.i.i, %_60.0.i.i
  %or.cond = select i1 %_14.i.i.i, i1 true, i1 %_63.1.i.i
  br i1 %or.cond, label %_RNvMNtCsjMrxcFdYDNN_4core5sliceSh11starts_withCsbHDlgkaPqr9_10serde_yaml.exit24, label %bb22.i.i, !prof !538

bb16.i.i:                                         ; preds = %bb15.preheader.i.i, %bb20.i.i
  %src.sroa.0.272.i.i = phi ptr [ %rest.05.i.i, %bb20.i.i ], [ %src.sroa.0.0.i.i, %bb15.preheader.i.i ]
  %src.sroa.15.271.i.i = phi i64 [ %rest.16.i.i, %bb20.i.i ], [ %src.sroa.15.0.i.i, %bb15.preheader.i.i ]
  %result.sroa.0.270.i.i = phi i128 [ %17, %bb20.i.i ], [ 0, %bb15.preheader.i.i ]
  %_20.i.i = load i8, ptr %src.sroa.0.272.i.i, align 1, !alias.scope !775, !noalias !780, !noundef !2
  %_19.i.i = zext i8 %_20.i.i to i32
  %_8.i52.i.i = icmp ugt i8 %_20.i.i, 57
  %_11.i55.i.i = add nsw i32 %_19.i.i, -65
  %_10.i56.i.i = and i32 %_11.i55.i.i, -33
  %14 = add nuw nsw i32 %_10.i56.i.i, 10
  %15 = add nsw i32 %_19.i.i, -48
  %spec.select75.i.i = select i1 %_8.i52.i.i, i32 %14, i32 %15
  %_14.i58.i.i = icmp ult i32 %spec.select75.i.i, 16
  br i1 %_14.i58.i.i, label %bb20.i.i, label %_RNvMNtCsjMrxcFdYDNN_4core5sliceSh11starts_withCsbHDlgkaPqr9_10serde_yaml.exit24

bb20.i.i:                                         ; preds = %bb16.i.i
  %16 = shl i128 %result.sroa.0.270.i.i, 4
  %rest.16.i.i = add nsw i64 %src.sroa.15.271.i.i, -1
  %rest.05.i.i = getelementptr inbounds nuw i8, ptr %src.sroa.0.272.i.i, i64 1
  %_24.i.i = zext nneg i32 %spec.select75.i.i to i128
  %17 = or disjoint i128 %16, %_24.i.i
  %_13.not.i.i = icmp eq i64 %rest.16.i.i, 0
  br i1 %_13.not.i.i, label %bb29.sink.split, label %bb16.i.i

bb40:                                             ; preds = %_RNvMNtCsjMrxcFdYDNN_4core5sliceSh11starts_withCsbHDlgkaPqr9_10serde_yaml.exit24
  %_74 = add i64 %unpositive.sroa.7.0, -2
  %_76 = getelementptr inbounds nuw i8, ptr %unpositive.sroa.0.0, i64 2
