; ModuleID = 'strsim.4eaa3c055b8b769f-cgu.0'
source_filename = "strsim.4eaa3c055b8b769f-cgu.0"
target datalayout = "e-m:o-p270:32:32-p271:32:32-p272:64:64-i64:64-i128:128-n32:64-S128-Fn32"
target triple = "arm64-apple-macosx11.0.0"

%"std::sys::thread_local::native::lazy::Storage<core::cell::Cell<(u64, u64)>, !>" = type { %"core::cell::UnsafeCell<core::mem::maybe_uninit::MaybeUninit<core::cell::Cell<(u64, u64)>>>", i8, [7 x i8] }
%"core::cell::UnsafeCell<core::mem::maybe_uninit::MaybeUninit<core::cell::Cell<(u64, u64)>>>" = type { %"core::mem::maybe_uninit::MaybeUninit<core::cell::Cell<(u64, u64)>>" }
%"core::mem::maybe_uninit::MaybeUninit<core::cell::Cell<(u64, u64)>>" = type { [2 x i64] }
%"GrowingHashmapMapElemChar<RowId>" = type { i64, i32, [1 x i32] }

@alloc_9e0e4f78394e4fcc2308aabb1453004e = private unnamed_addr constant [97 x i8] c"/Users/hongyaotang/.cargo/registry/src/index.crates.io-1949cf8c6b5b557f/strsim-0.11.1/src/lib.rs\00", align 1
@alloc_b796bdecba9627647adb3e704eedc700 = private unnamed_addr constant <{ ptr, [16 x i8] }> <{ ptr @alloc_9e0e4f78394e4fcc2308aabb1453004e, [16 x i8] c"`\00\00\00\00\00\00\00n\00\00\00+\00\00\00" }>, align 8
@alloc_b0edf788d54645fb4e0f80eae3b38cde = private unnamed_addr constant <{ ptr, [16 x i8] }> <{ ptr @alloc_9e0e4f78394e4fcc2308aabb1453004e, [16 x i8] c"`\00\00\00\00\00\00\00}\00\00\007\00\00\00" }>, align 8
@alloc_51d3fde95428bd5e448f6069d0d69356 = private unnamed_addr constant <{ ptr, [16 x i8] }> <{ ptr @alloc_9e0e4f78394e4fcc2308aabb1453004e, [16 x i8] c"`\00\00\00\00\00\00\00~\00\00\00\11\00\00\00" }>, align 8
@alloc_33490829e982a20313b24b098088ff01 = private unnamed_addr constant <{ ptr, [16 x i8] }> <{ ptr @alloc_9e0e4f78394e4fcc2308aabb1453004e, [16 x i8] c"`\00\00\00\00\00\00\00\FC\00\00\00\1F\00\00\00" }>, align 8
@alloc_979475be75b63577188022943ab16aa0 = private unnamed_addr constant <{ ptr, [16 x i8] }> <{ ptr @alloc_9e0e4f78394e4fcc2308aabb1453004e, [16 x i8] c"`\00\00\00\00\00\00\00\9A\02\00\00\06\00\00\00" }>, align 8
@alloc_62d10971df7d5a4785f495974ef28733 = private unnamed_addr constant <{ ptr, [16 x i8] }> <{ ptr @alloc_9e0e4f78394e4fcc2308aabb1453004e, [16 x i8] c"`\00\00\00\00\00\00\00y\02\00\00\1E\00\00\00" }>, align 8
@alloc_862551a6b5209c91aedf6fe87f92b332 = private unnamed_addr constant <{ ptr, [16 x i8] }> <{ ptr @alloc_9e0e4f78394e4fcc2308aabb1453004e, [16 x i8] c"`\00\00\00\00\00\00\00~\02\00\00\1A\00\00\00" }>, align 8
@alloc_8da7b938e9f69bada7a79d2c6e57c2b6 = private unnamed_addr constant <{ ptr, [16 x i8] }> <{ ptr @alloc_9e0e4f78394e4fcc2308aabb1453004e, [16 x i8] c"`\00\00\00\00\00\00\00\80\02\00\00\18\00\00\00" }>, align 8
@alloc_6bf673dbe204d5f5608d7daead0841b4 = private unnamed_addr constant <{ ptr, [16 x i8] }> <{ ptr @alloc_9e0e4f78394e4fcc2308aabb1453004e, [16 x i8] c"`\00\00\00\00\00\00\00\8C\02\00\00'\00\00\00" }>, align 8
@alloc_6e277f70d633006168d39b714ca85e89 = private unnamed_addr constant <{ ptr, [16 x i8] }> <{ ptr @alloc_9e0e4f78394e4fcc2308aabb1453004e, [16 x i8] c"`\00\00\00\00\00\00\00\85\02\00\00\13\00\00\00" }>, align 8
@alloc_b944b20bc9fbafa729d24f8cbad2dd57 = private unnamed_addr constant <{ ptr, [16 x i8] }> <{ ptr @alloc_9e0e4f78394e4fcc2308aabb1453004e, [16 x i8] c"`\00\00\00\00\00\00\00\94\02\00\00\1A\00\00\00" }>, align 8
@alloc_a48736f782ce01888cde2ce41f6badc9 = private unnamed_addr constant [8 x i8] c"\FF\FF\FF\FF\FF\FF\FF\FF", align 8
@anon.5b7b4b03f51fa7c2fe1eb56c4b7bdd51.0 = private unnamed_addr constant <{ ptr, [24 x i8] }> <{ ptr @alloc_a48736f782ce01888cde2ce41f6badc9, [24 x i8] zeroinitializer }>, align 8
@_RNvNCNKNvNvMNtNtCs5sEH5CPMdak_3std4hash6randomNtBa_11RandomState3new4KEYS0s_023___RUST_STD_INTERNAL_VAL = external thread_local local_unnamed_addr global %"std::sys::thread_local::native::lazy::Storage<core::cell::Cell<(u64, u64)>, !>"
@alloc_713c70d72f94083925b2dbcd729a89c1 = private unnamed_addr constant <{ ptr, [16 x i8] }> <{ ptr @alloc_9e0e4f78394e4fcc2308aabb1453004e, [16 x i8] c"`\00\00\00\00\00\00\00\D4\01\00\00:\00\00\00" }>, align 8
@alloc_f07197f8880f02704fbb192991fd92e5 = private unnamed_addr constant <{ ptr, [16 x i8] }> <{ ptr @alloc_9e0e4f78394e4fcc2308aabb1453004e, [16 x i8] c"`\00\00\00\00\00\00\00P\01\00\00\13\00\00\00" }>, align 8
@alloc_5008b3d584a72b0077539f66d172f9b5 = private unnamed_addr constant <{ ptr, [16 x i8] }> <{ ptr @alloc_9e0e4f78394e4fcc2308aabb1453004e, [16 x i8] c"`\00\00\00\00\00\00\008\01\00\00\17\00\00\00" }>, align 8
@alloc_2bae18778776445d604cc9d7d59ee8c2 = private unnamed_addr constant <{ ptr, [16 x i8] }> <{ ptr @alloc_9e0e4f78394e4fcc2308aabb1453004e, [16 x i8] c"`\00\00\00\00\00\00\00>\01\00\00#\00\00\00" }>, align 8
@alloc_6944f81dd681dfdbe5866d7fa21924c3 = private unnamed_addr constant <{ ptr, [16 x i8] }> <{ ptr @alloc_9e0e4f78394e4fcc2308aabb1453004e, [16 x i8] c"`\00\00\00\00\00\00\00<\01\00\00\1B\00\00\00" }>, align 8
@alloc_1a619d5774b4c6a4ea0553f4f8c35387 = private unnamed_addr constant <{ ptr, [16 x i8] }> <{ ptr @alloc_9e0e4f78394e4fcc2308aabb1453004e, [16 x i8] c"`\00\00\00\00\00\00\00B\01\00\00V\00\00\00" }>, align 8
@alloc_d1084648e479974e70c9329824bf76f9 = private unnamed_addr constant [9 x i8] c"mid > len", align 1
@alloc_a649d603cf56162b8a3f165589c1de6f = private unnamed_addr constant [39 x i8] c"callers have to ensure map is allocated", align 1
@alloc_1c02a211ff8957e465458a51c31a81de = private unnamed_addr constant <{ ptr, [16 x i8] }> <{ ptr @alloc_9e0e4f78394e4fcc2308aabb1453004e, [16 x i8] c"`\00\00\00\00\00\00\00)\02\00\00R\00\00\00" }>, align 8
@alloc_42d8339c69e16a1e3f5e0ef029dbe447 = private unnamed_addr constant <{ ptr, [16 x i8] }> <{ ptr @alloc_9e0e4f78394e4fcc2308aabb1453004e, [16 x i8] c"`\00\00\00\00\00\00\00\04\02\00\00\0E\00\00\00" }>, align 8
@alloc_d619813ccfd16ab2fd70bc85a627a0cb = private unnamed_addr constant <{ ptr, [16 x i8] }> <{ ptr @alloc_9e0e4f78394e4fcc2308aabb1453004e, [16 x i8] c"`\00\00\00\00\00\00\00\06\02\00\00\0F\00\00\00" }>, align 8
@alloc_0a640bf0e45dbde7c4f1706a4879d5ca = private unnamed_addr constant <{ ptr, [16 x i8] }> <{ ptr @alloc_9e0e4f78394e4fcc2308aabb1453004e, [16 x i8] c"`\00\00\00\00\00\00\00\0E\02\00\00\13\00\00\00" }>, align 8
@alloc_96408fa515ac8b1e77c68a6bc3e8f856 = private unnamed_addr constant <{ ptr, [16 x i8] }> <{ ptr @alloc_9e0e4f78394e4fcc2308aabb1453004e, [16 x i8] c"`\00\00\00\00\00\00\00\E0\01\00\00:\00\00\00" }>, align 8
@alloc_caa5cd3ec5b4a333d6ac178e6b813739 = private unnamed_addr constant <{ ptr, [16 x i8] }> <{ ptr @alloc_9e0e4f78394e4fcc2308aabb1453004e, [16 x i8] c"`\00\00\00\00\00\00\00\F1\01\00\00:\00\00\00" }>, align 8
@_RNvNtNtNtCsjMrxcFdYDNN_4core7unicode12unicode_data11white_space14WHITESPACE_MAP = external local_unnamed_addr global [256 x i8]
@alloc_f5d606a991b48f2a72fc31ffd42f8a04 = private unnamed_addr constant [35 x i8] c"Differing length arguments provided", align 1
@alloc_0c812808379efded5a4fb82d2790b556 = private unnamed_addr constant [2 x i8] c"\C0\00", align 1
@alloc_db51a71a1b6b25b4224d4dc5277f93e7 = private unnamed_addr constant [256 x i8] c"\01\01\01\01\01\01\01\01\01\01\01\01\01\01\01\01\01\01\01\01\01\01\01\01\01\01\01\01\01\01\01\01\01\01\01\01\01\01\01\01\01\01\01\01\01\01\01\01\01\01\01\01\01\01\01\01\01\01\01\01\01\01\01\01\01\01\01\01\01\01\01\01\01\01\01\01\01\01\01\01\01\01\01\01\01\01\01\01\01\01\01\01\01\01\01\01\01\01\01\01\01\01\01\01\01\01\01\01\01\01\01\01\01\01\01\01\01\01\01\01\01\01\01\01\01\01\01\01\00\00\00\00\00\00\00\00\00\00\00\00\00\00\00\00\00\00\00\00\00\00\00\00\00\00\00\00\00\00\00\00\00\00\00\00\00\00\00\00\00\00\00\00\00\00\00\00\00\00\00\00\00\00\00\00\00\00\00\00\00\00\00\00\00\00\02\02\02\02\02\02\02\02\02\02\02\02\02\02\02\02\02\02\02\02\02\02\02\02\02\02\02\02\02\02\03\03\03\03\03\03\03\03\03\03\03\03\03\03\03\03\04\04\04\04\04\00\00\00\00\00\00\00\00\00\00\00", align 1

; strsim::generic_jaro::<strsim::StringWrapper, strsim::StringWrapper, char, char>
; Function Attrs: uwtable
define internal fastcc noundef double @_RINvCs6KJnav5oeQt_6strsim12generic_jaroNtB2_13StringWrapperBB_ccEB2_(ptr captures(address, read_provenance) %a.0.val, i64 %a.8.val, ptr captures(address, read_provenance) %b.0.val, i64 %b.8.val) unnamed_addr #0 personality ptr @rust_eh_personality {
start:
  %0 = icmp ne ptr %a.0.val, null
  tail call void @llvm.assume(i1 %0)
  %_8.i = getelementptr inbounds nuw i8, ptr %a.0.val, i64 %a.8.val
  %_6.i = icmp ult i64 %a.8.val, 32
  br i1 %_6.i, label %bb2.i, label %bb3.i

bb3.i:                                            ; preds = %start
; call core::str::count::do_count_chars
  %1 = tail call noundef i64 @_RNvNtNtCsjMrxcFdYDNN_4core3str5count14do_count_chars(ptr noalias noundef nonnull readonly align 1 captures(address, read_provenance) %a.0.val, i64 noundef %a.8.val)
  br label %_RNvXNtNtCsjMrxcFdYDNN_4core3str4iterNtB2_5CharsNtNtNtNtB6_4iter6traits8iterator8Iterator5count.exit

bb2.i:                                            ; preds = %start
; call core::str::count::char_count_general_case
  %2 = tail call noundef i64 @_RNvNtNtCsjMrxcFdYDNN_4core3str5count23char_count_general_case(ptr noalias noundef nonnull readonly align 1 captures(address, read_provenance) %a.0.val, i64 noundef %a.8.val)
  br label %_RNvXNtNtCsjMrxcFdYDNN_4core3str4iterNtB2_5CharsNtNtNtNtB6_4iter6traits8iterator8Iterator5count.exit

_RNvXNtNtCsjMrxcFdYDNN_4core3str4iterNtB2_5CharsNtNtNtNtB6_4iter6traits8iterator8Iterator5count.exit: ; preds = %bb3.i, %bb2.i
  %_0.sroa.0.0.i = phi i64 [ %2, %bb2.i ], [ %1, %bb3.i ]
  %3 = icmp ne ptr %b.0.val, null
  tail call void @llvm.assume(i1 %3)
  %_8.i50 = getelementptr inbounds nuw i8, ptr %b.0.val, i64 %b.8.val
  %_6.i51 = icmp ult i64 %b.8.val, 32
  br i1 %_6.i51, label %bb2.i54, label %bb3.i52

bb3.i52:                                          ; preds = %_RNvXNtNtCsjMrxcFdYDNN_4core3str4iterNtB2_5CharsNtNtNtNtB6_4iter6traits8iterator8Iterator5count.exit
; call core::str::count::do_count_chars
  %4 = tail call noundef i64 @_RNvNtNtCsjMrxcFdYDNN_4core3str5count14do_count_chars(ptr noalias noundef nonnull readonly align 1 captures(address, read_provenance) %b.0.val, i64 noundef %b.8.val)
  br label %_RNvXNtNtCsjMrxcFdYDNN_4core3str4iterNtB2_5CharsNtNtNtNtB6_4iter6traits8iterator8Iterator5count.exit55

bb2.i54:                                          ; preds = %_RNvXNtNtCsjMrxcFdYDNN_4core3str4iterNtB2_5CharsNtNtNtNtB6_4iter6traits8iterator8Iterator5count.exit
; call core::str::count::char_count_general_case
  %5 = tail call noundef i64 @_RNvNtNtCsjMrxcFdYDNN_4core3str5count23char_count_general_case(ptr noalias noundef nonnull readonly align 1 captures(address, read_provenance) %b.0.val, i64 noundef %b.8.val)
  br label %_RNvXNtNtCsjMrxcFdYDNN_4core3str4iterNtB2_5CharsNtNtNtNtB6_4iter6traits8iterator8Iterator5count.exit55

_RNvXNtNtCsjMrxcFdYDNN_4core3str4iterNtB2_5CharsNtNtNtNtB6_4iter6traits8iterator8Iterator5count.exit55: ; preds = %bb3.i52, %bb2.i54
  %_0.sroa.0.0.i53 = phi i64 [ %5, %bb2.i54 ], [ %4, %bb3.i52 ]
  %6 = icmp eq i64 %_0.sroa.0.0.i, 0
  %7 = icmp eq i64 %_0.sroa.0.0.i53, 0
  br i1 %6, label %bb5, label %bb7

bb5:                                              ; preds = %_RNvXNtNtCsjMrxcFdYDNN_4core3str4iterNtB2_5CharsNtNtNtNtB6_4iter6traits8iterator8Iterator5count.exit55
  br i1 %7, label %bb68, label %bb8

bb7:                                              ; preds = %_RNvXNtNtCsjMrxcFdYDNN_4core3str4iterNtB2_5CharsNtNtNtNtB6_4iter6traits8iterator8Iterator5count.exit55
  br i1 %7, label %bb8, label %bb9

bb8:                                              ; preds = %bb7, %bb5
  br label %bb68

bb9:                                              ; preds = %bb7
  %_0.sroa.0.0.i56 = tail call noundef i64 @llvm.umax.i64(i64 %_0.sroa.0.0.i53, i64 %_0.sroa.0.0.i)
  %8 = lshr i64 %_0.sroa.0.0.i56, 1
  %9 = tail call i64 @llvm.usub.sat.i64(i64 %8, i64 1)
  %_11 = add i64 %_0.sroa.0.0.i53, %_0.sroa.0.0.i
  %_23.i.i.i = icmp eq i64 %_11, 0
  br i1 %_23.i.i.i, label %_RINvXs_NtNtCsdJPVW0sQgAG_5alloc3vec14spec_from_elembNtB5_12SpecFromElem9from_elemNtNtB9_5alloc6GlobalECs6KJnav5oeQt_6strsim.exit, label %bb6.i.i.i

bb6.i.i.i:                                        ; preds = %bb9
  %or.cond.not.i = icmp sgt i64 %_11, 0
  br i1 %or.cond.not.i, label %bb3.i4.i, label %bb14.i, !prof !2

bb3.i4.i:                                         ; preds = %bb6.i.i.i
; call __rustc::__rust_no_alloc_shim_is_unstable_v2
  tail call void @_RNvCsKhRCbHf33p_7___rustc35___rust_no_alloc_shim_is_unstable_v2() #23, !noalias !3
; call __rustc::__rust_alloc_zeroed
  %10 = tail call noundef ptr @_RNvCsKhRCbHf33p_7___rustc19___rust_alloc_zeroed(i64 noundef range(i64 1, 0) %_11, i64 noundef range(i64 1, -9223372036854775807) 1) #23, !noalias !3
  %11 = icmp eq ptr %10, null
  br i1 %11, label %bb14.i, label %bb10.i.i

bb10.i.i:                                         ; preds = %bb3.i4.i
  %12 = ptrtoint ptr %10 to i64
  br label %_RINvXs_NtNtCsdJPVW0sQgAG_5alloc3vec14spec_from_elembNtB5_12SpecFromElem9from_elemNtNtB9_5alloc6GlobalECs6KJnav5oeQt_6strsim.exit

bb14.i:                                           ; preds = %bb3.i4.i, %bb6.i.i.i
  %_16.sroa.4.0.ph.i = phi i64 [ 1, %bb3.i4.i ], [ 0, %bb6.i.i.i ]
; call alloc::raw_vec::handle_error
  tail call void @_RNvNtCsdJPVW0sQgAG_5alloc7raw_vec12handle_error(i64 noundef %_16.sroa.4.0.ph.i, i64 %_11) #24, !noalias !8
  unreachable

_RINvXs_NtNtCsdJPVW0sQgAG_5alloc3vec14spec_from_elembNtB5_12SpecFromElem9from_elemNtNtB9_5alloc6GlobalECs6KJnav5oeQt_6strsim.exit: ; preds = %bb9, %bb10.i.i
  %_16.sroa.10.0.i = phi i64 [ %12, %bb10.i.i ], [ 1, %bb9 ]
  %13 = inttoptr i64 %_16.sroa.10.0.i to ptr
  %_6.not.i = icmp ugt i64 %_0.sroa.0.0.i, %_11
  br i1 %_6.not.i, label %bb3.i58, label %bb13, !prof !9

bb3.i58:                                          ; preds = %_RINvXs_NtNtCsdJPVW0sQgAG_5alloc3vec14spec_from_elembNtB5_12SpecFromElem9from_elemNtNtB9_5alloc6GlobalECs6KJnav5oeQt_6strsim.exit
; invoke core::panicking::panic_fmt
  invoke void @_RNvNtCsjMrxcFdYDNN_4core9panicking9panic_fmt(ptr noundef nonnull @alloc_d1084648e479974e70c9329824bf76f9, ptr noundef nonnull inttoptr (i64 19 to ptr), ptr noalias noundef readonly align 8 captures(address, read_provenance) dereferenceable(24) @alloc_b796bdecba9627647adb3e704eedc700) #25
          to label %.noexc unwind label %cleanup

.noexc:                                           ; preds = %bb3.i58
  unreachable

bb68:                                             ; preds = %bb2.i.i.i4.i103, %bb5, %bb8
  %_0.sroa.0.0 = phi double [ 0.000000e+00, %bb8 ], [ 1.000000e+00, %bb5 ], [ %_0.sroa.0.1, %bb2.i.i.i4.i103 ]
  ret double %_0.sroa.0.0

bb77:                                             ; preds = %cleanup10, %cleanup
  %.pn = phi { ptr, i32 } [ %38, %cleanup10 ], [ %14, %cleanup ]
  br i1 %_23.i.i.i, label %bb78, label %bb2.i.i.i4.i

bb2.i.i.i4.i:                                     ; preds = %bb77
; call __rustc::__rust_dealloc
  tail call void @_RNvCsKhRCbHf33p_7___rustc14___rust_dealloc(ptr noundef nonnull %13, i64 noundef %_11, i64 noundef range(i64 1, -9223372036854775807) 1) #23
  br label %bb78

cleanup:                                          ; preds = %bb3.i58
  %14 = landingpad { ptr, i32 }
          cleanup
  br label %bb77

bb13:                                             ; preds = %_RINvXs_NtNtCsdJPVW0sQgAG_5alloc3vec14spec_from_elembNtB5_12SpecFromElem9from_elemNtNtB9_5alloc6GlobalECs6KJnav5oeQt_6strsim.exit
  %data.i.i = getelementptr inbounds nuw i8, ptr %13, i64 %_0.sroa.0.0.i
  %_6.i.i.not.i.i73 = icmp samesign eq i64 %a.8.val, 0
  br i1 %_6.i.i.not.i.i73, label %bb2.i.i.i4.i103, label %bb14.i.i.i.lr.ph

bb14.i.i.i.lr.ph:                                 ; preds = %bb13
  %_31 = add nuw nsw i64 %9, 1
  br label %bb14.i.i.i

bb14.i.i.i:                                       ; preds = %bb14.i.i.i.lr.ph, %bb81
  %matches.sroa.0.076 = phi i64 [ 0, %bb14.i.i.i.lr.ph ], [ %matches.sroa.0.1, %bb81 ]
  %iter.sroa.10.075 = phi i64 [ 0, %bb14.i.i.i.lr.ph ], [ %_8.0.i15, %bb81 ]
  %iter.sroa.0.074 = phi ptr [ %a.0.val, %bb14.i.i.i.lr.ph ], [ %iter.sroa.0.113, %bb81 ]
  %_16.i.i.i.i = getelementptr inbounds nuw i8, ptr %iter.sroa.0.074, i64 1
  %x.i.i.i = load i8, ptr %iter.sroa.0.074, align 1, !noalias !10, !noundef !17
  %_6.i.i.i = icmp sgt i8 %x.i.i.i, -1
  br i1 %_6.i.i.i, label %bb3.i.i.i, label %bb4.i.i.i

bb4.i.i.i:                                        ; preds = %bb14.i.i.i
  %_30.i.i.i = and i8 %x.i.i.i, 31
  %init.i.i.i = zext nneg i8 %_30.i.i.i to i32
  %_6.i10.i.i.i = icmp ne ptr %_16.i.i.i.i, %_8.i
  tail call void @llvm.assume(i1 %_6.i10.i.i.i)
  %_16.i12.i.i.i = getelementptr inbounds nuw i8, ptr %iter.sroa.0.074, i64 2
  %y.i.i.i = load i8, ptr %_16.i.i.i.i, align 1, !noalias !10, !noundef !17
  %_33.i.i.i = shl nuw nsw i32 %init.i.i.i, 6
  %_35.i.i.i = and i8 %y.i.i.i, 63
  %_34.i.i.i = zext nneg i8 %_35.i.i.i to i32
  %15 = or disjoint i32 %_33.i.i.i, %_34.i.i.i
  %_13.i.i.i = icmp samesign ugt i8 %x.i.i.i, -33
  br i1 %_13.i.i.i, label %bb6.i.i.i61, label %bb23

bb3.i.i.i:                                        ; preds = %bb14.i.i.i
  %_7.i.i.i = zext nneg i8 %x.i.i.i to i32
  br label %bb23

bb6.i.i.i61:                                      ; preds = %bb4.i.i.i
  %_6.i17.i.i.i = icmp ne ptr %_16.i12.i.i.i, %_8.i
  tail call void @llvm.assume(i1 %_6.i17.i.i.i)
  %_16.i19.i.i.i = getelementptr inbounds nuw i8, ptr %iter.sroa.0.074, i64 3
  %z.i.i.i = load i8, ptr %_16.i12.i.i.i, align 1, !noalias !10, !noundef !17
  %_38.i.i.i = shl nuw nsw i32 %_34.i.i.i, 6
  %_40.i.i.i = and i8 %z.i.i.i, 63
  %_39.i.i.i = zext nneg i8 %_40.i.i.i to i32
  %y_z.i.i.i = or disjoint i32 %_38.i.i.i, %_39.i.i.i
  %_20.i.i.i = shl nuw nsw i32 %init.i.i.i, 12
  %16 = or disjoint i32 %y_z.i.i.i, %_20.i.i.i
  %_21.i.i.i = icmp samesign ugt i8 %x.i.i.i, -17
  br i1 %_21.i.i.i, label %_RNvXNtNtCsjMrxcFdYDNN_4core3str4iterNtB2_5CharsNtNtNtNtB6_4iter6traits8iterator8Iterator4next.exit.i, label %bb23

_RNvXNtNtCsjMrxcFdYDNN_4core3str4iterNtB2_5CharsNtNtNtNtB6_4iter6traits8iterator8Iterator4next.exit.i: ; preds = %bb6.i.i.i61
  %_6.i24.i.i.i = icmp ne ptr %_16.i19.i.i.i, %_8.i
  tail call void @llvm.assume(i1 %_6.i24.i.i.i)
  %w.i.i.i = load i8, ptr %_16.i19.i.i.i, align 1, !noalias !10, !noundef !17
  %_26.i.i.i = shl nuw nsw i32 %init.i.i.i, 18
  %_25.i.i.i = and i32 %_26.i.i.i, 1835008
  %_43.i.i.i = shl nuw nsw i32 %y_z.i.i.i, 6
  %_45.i.i.i = and i8 %w.i.i.i, 63
  %_44.i.i.i = zext nneg i8 %_45.i.i.i to i32
  %_27.i.i.i = or disjoint i32 %_43.i.i.i, %_44.i.i.i
  %17 = or disjoint i32 %_27.i.i.i, %_25.i.i.i
  %.not.i = icmp eq i32 %17, 1114112
  br i1 %.not.i, label %bb18, label %bb15

bb15:                                             ; preds = %_RNvXNtNtCsjMrxcFdYDNN_4core3str4iterNtB2_5CharsNtNtNtNtB6_4iter6traits8iterator8Iterator4next.exit.i
  %_16.i26.i.i.i = getelementptr inbounds nuw i8, ptr %iter.sroa.0.074, i64 4
  br label %bb23

bb18:                                             ; preds = %_RNvXNtNtCsjMrxcFdYDNN_4core3str4iterNtB2_5CharsNtNtNtNtB6_4iter6traits8iterator8Iterator4next.exit.i, %bb81
  %matches.sroa.0.0.lcssa = phi i64 [ %matches.sroa.0.076, %_RNvXNtNtCsjMrxcFdYDNN_4core3str4iterNtB2_5CharsNtNtNtNtB6_4iter6traits8iterator8Iterator4next.exit.i ], [ %matches.sroa.0.1, %bb81 ]
  %18 = icmp eq i64 %matches.sroa.0.0.lcssa, 0
  br i1 %18, label %bb2.i.i.i4.i103, label %bb9.i.preheader

bb9.i.preheader:                                  ; preds = %bb18
  %_100 = getelementptr inbounds nuw i8, ptr %data.i.i, i64 %_0.sroa.0.0.i53
  br label %bb9.i

bb9.i:                                            ; preds = %bb9.i.preheader, %bb58
  %transpositions.sroa.0.183 = phi i64 [ %transpositions.sroa.0.3, %bb58 ], [ 0, %bb9.i.preheader ]
  %iter2.sroa.7.082 = phi ptr [ %iter2.sroa.7.123, %bb58 ], [ %a.0.val, %bb9.i.preheader ]
  %iter2.sroa.0.081 = phi ptr [ %_16.i.i, %bb58 ], [ %13, %bb9.i.preheader ]
  %b_iter.sroa.7.080 = phi ptr [ %b_iter.sroa.7.3, %bb58 ], [ %b.0.val, %bb9.i.preheader ]
  %b_iter.sroa.0.079 = phi ptr [ %b_iter.sroa.0.3, %bb58 ], [ %data.i.i, %bb9.i.preheader ]
  %_16.i.i = getelementptr inbounds nuw i8, ptr %iter2.sroa.0.081, i64 1
  %_6.i.i.not.i.i66 = icmp eq ptr %iter2.sroa.7.082, %_8.i
  br i1 %_6.i.i.not.i.i66, label %bb64, label %bb14.i.i.i67

bb14.i.i.i67:                                     ; preds = %bb9.i
  %_16.i.i.i.i68 = getelementptr inbounds nuw i8, ptr %iter2.sroa.7.082, i64 1
  %x.i.i.i69 = load i8, ptr %iter2.sroa.7.082, align 1, !noalias !18, !noundef !17
  %_6.i.i.i70 = icmp sgt i8 %x.i.i.i69, -1
  br i1 %_6.i.i.i70, label %bb3.i.i.i101, label %bb4.i.i.i71

bb4.i.i.i71:                                      ; preds = %bb14.i.i.i67
  %_30.i.i.i72 = and i8 %x.i.i.i69, 31
  %init.i.i.i73 = zext nneg i8 %_30.i.i.i72 to i32
  %_6.i10.i.i.i74 = icmp ne ptr %_16.i.i.i.i68, %_8.i
  tail call void @llvm.assume(i1 %_6.i10.i.i.i74)
  %_16.i12.i.i.i75 = getelementptr inbounds nuw i8, ptr %iter2.sroa.7.082, i64 2
  %y.i.i.i76 = load i8, ptr %_16.i.i.i.i68, align 1, !noalias !18, !noundef !17
  %_33.i.i.i77 = shl nuw nsw i32 %init.i.i.i73, 6
  %_35.i.i.i78 = and i8 %y.i.i.i76, 63
  %_34.i.i.i79 = zext nneg i8 %_35.i.i.i78 to i32
  %19 = or disjoint i32 %_33.i.i.i77, %_34.i.i.i79
  %_13.i.i.i80 = icmp samesign ugt i8 %x.i.i.i69, -33
  br i1 %_13.i.i.i80, label %bb6.i.i.i82, label %bb44

bb3.i.i.i101:                                     ; preds = %bb14.i.i.i67
  %_7.i.i.i102 = zext nneg i8 %x.i.i.i69 to i32
  br label %bb44

bb6.i.i.i82:                                      ; preds = %bb4.i.i.i71
  %_6.i17.i.i.i83 = icmp ne ptr %_16.i12.i.i.i75, %_8.i
  tail call void @llvm.assume(i1 %_6.i17.i.i.i83)
  %_16.i19.i.i.i84 = getelementptr inbounds nuw i8, ptr %iter2.sroa.7.082, i64 3
  %z.i.i.i85 = load i8, ptr %_16.i12.i.i.i75, align 1, !noalias !18, !noundef !17
  %_38.i.i.i86 = shl nuw nsw i32 %_34.i.i.i79, 6
  %_40.i.i.i87 = and i8 %z.i.i.i85, 63
  %_39.i.i.i88 = zext nneg i8 %_40.i.i.i87 to i32
  %y_z.i.i.i89 = or disjoint i32 %_38.i.i.i86, %_39.i.i.i88
  %_20.i.i.i90 = shl nuw nsw i32 %init.i.i.i73, 12
  %20 = or disjoint i32 %y_z.i.i.i89, %_20.i.i.i90
  %_21.i.i.i91 = icmp samesign ugt i8 %x.i.i.i69, -17
  br i1 %_21.i.i.i91, label %bb89, label %bb44

bb89:                                             ; preds = %bb6.i.i.i82
  %_6.i24.i.i.i92 = icmp ne ptr %_16.i19.i.i.i84, %_8.i
  tail call void @llvm.assume(i1 %_6.i24.i.i.i92)
  %_16.i26.i.i.i93 = getelementptr inbounds nuw i8, ptr %iter2.sroa.7.082, i64 4
  %w.i.i.i94 = load i8, ptr %_16.i19.i.i.i84, align 1, !noalias !18, !noundef !17
  %_26.i.i.i95 = shl nuw nsw i32 %init.i.i.i73, 18
  %_25.i.i.i96 = and i32 %_26.i.i.i95, 1835008
  %_43.i.i.i97 = shl nuw nsw i32 %y_z.i.i.i89, 6
  %_45.i.i.i98 = and i8 %w.i.i.i94, 63
  %_44.i.i.i99 = zext nneg i8 %_45.i.i.i98 to i32
  %_27.i.i.i100 = or disjoint i32 %_43.i.i.i97, %_44.i.i.i99
  %21 = or disjoint i32 %_27.i.i.i100, %_25.i.i.i96
  %.not33 = icmp eq i32 %21, 1114112
  br i1 %.not33, label %bb64, label %bb44

bb44:                                             ; preds = %bb6.i.i.i82, %bb3.i.i.i101, %bb4.i.i.i71, %bb89
  %_0.sroa.2.0.i8125 = phi i32 [ %21, %bb89 ], [ %20, %bb6.i.i.i82 ], [ %_7.i.i.i102, %bb3.i.i.i101 ], [ %19, %bb4.i.i.i71 ]
  %iter2.sroa.7.123 = phi ptr [ %_16.i26.i.i.i93, %bb89 ], [ %_16.i19.i.i.i84, %bb6.i.i.i82 ], [ %_16.i.i.i.i68, %bb3.i.i.i101 ], [ %_16.i12.i.i.i75, %bb4.i.i.i71 ]
  %22 = icmp ne ptr %iter2.sroa.0.081, null
  tail call void @llvm.assume(i1 %22)
  %23 = load i8, ptr %iter2.sroa.0.081, align 1, !range !25, !noundef !17
  %_63 = trunc nuw i8 %23 to i1
  br i1 %_63, label %bb46.outer, label %bb58

bb64:                                             ; preds = %bb9.i, %bb58, %bb89
  %transpositions.sroa.0.1.lcssa.ph = phi i64 [ %transpositions.sroa.0.183, %bb9.i ], [ %transpositions.sroa.0.3, %bb58 ], [ %transpositions.sroa.0.183, %bb89 ]
  %24 = lshr i64 %transpositions.sroa.0.1.lcssa.ph, 1
  %_77 = uitofp i64 %matches.sroa.0.0.lcssa to double
  %_79 = uitofp i64 %_0.sroa.0.0.i to double
  %_76 = fdiv double %_77, %_79
  %_83 = uitofp i64 %_0.sroa.0.0.i53 to double
  %_80 = fdiv double %_77, %_83
  %_75 = fadd double %_76, %_80
  %_86 = sub i64 %matches.sroa.0.0.lcssa, %24
  %_85 = uitofp i64 %_86 to double
  %_84 = fdiv double %_85, %_77
  %_74 = fadd double %_75, %_84
  %25 = fdiv double %_74, 3.000000e+00
  br label %bb2.i.i.i4.i103

bb2.i.i.i4.i103:                                  ; preds = %bb13, %bb64, %bb18
  %_0.sroa.0.1 = phi double [ %25, %bb64 ], [ 0.000000e+00, %bb18 ], [ 0.000000e+00, %bb13 ]
; call __rustc::__rust_dealloc
  tail call void @_RNvCsKhRCbHf33p_7___rustc14___rust_dealloc(ptr noundef nonnull %13, i64 noundef %_11, i64 noundef range(i64 1, -9223372036854775807) 1) #23
  br label %bb68

bb46:                                             ; preds = %bb46.outer, %bb46
  br label %bb46, !llvm.loop !26

bb9.i108:                                         ; preds = %bb46.outer
  %_16.i.i109 = getelementptr inbounds nuw i8, ptr %b_iter.sroa.0.1.ph, i64 1
  %26 = icmp ne ptr %b_iter.sroa.7.1.ph, null
  tail call void @llvm.assume(i1 %26)
  %_6.i.i.not.i.i113 = icmp eq ptr %b_iter.sroa.7.1.ph, %_8.i50
  br i1 %_6.i.i.not.i.i113, label %bb46.outer.backedge, label %bb14.i.i.i114

bb14.i.i.i114:                                    ; preds = %bb9.i108
  %_16.i.i.i.i115 = getelementptr inbounds nuw i8, ptr %b_iter.sroa.7.1.ph, i64 1
  %x.i.i.i116 = load i8, ptr %b_iter.sroa.7.1.ph, align 1, !noalias !28, !noundef !17
  %_6.i.i.i117 = icmp sgt i8 %x.i.i.i116, -1
  br i1 %_6.i.i.i117, label %bb3.i.i.i150, label %bb4.i.i.i118

bb4.i.i.i118:                                     ; preds = %bb14.i.i.i114
  %_30.i.i.i119 = and i8 %x.i.i.i116, 31
  %init.i.i.i120 = zext nneg i8 %_30.i.i.i119 to i32
  %_6.i10.i.i.i121 = icmp ne ptr %_16.i.i.i.i115, %_8.i50
  tail call void @llvm.assume(i1 %_6.i10.i.i.i121)
  %_16.i12.i.i.i122 = getelementptr inbounds nuw i8, ptr %b_iter.sroa.7.1.ph, i64 2
  %y.i.i.i123 = load i8, ptr %_16.i.i.i.i115, align 1, !noalias !28, !noundef !17
  %_33.i.i.i124 = shl nuw nsw i32 %init.i.i.i120, 6
  %_35.i.i.i125 = and i8 %y.i.i.i123, 63
  %_34.i.i.i126 = zext nneg i8 %_35.i.i.i125 to i32
  %27 = or disjoint i32 %_33.i.i.i124, %_34.i.i.i126
  %_13.i.i.i127 = icmp samesign ugt i8 %x.i.i.i116, -33
  br i1 %_13.i.i.i127, label %bb6.i.i.i130, label %bb47

bb3.i.i.i150:                                     ; preds = %bb14.i.i.i114
  %_7.i.i.i151 = zext nneg i8 %x.i.i.i116 to i32
  br label %bb47

bb6.i.i.i130:                                     ; preds = %bb4.i.i.i118
  %_6.i17.i.i.i131 = icmp ne ptr %_16.i12.i.i.i122, %_8.i50
  tail call void @llvm.assume(i1 %_6.i17.i.i.i131)
  %_16.i19.i.i.i132 = getelementptr inbounds nuw i8, ptr %b_iter.sroa.7.1.ph, i64 3
  %z.i.i.i133 = load i8, ptr %_16.i12.i.i.i122, align 1, !noalias !28, !noundef !17
  %_38.i.i.i134 = shl nuw nsw i32 %_34.i.i.i126, 6
  %_40.i.i.i135 = and i8 %z.i.i.i133, 63
  %_39.i.i.i136 = zext nneg i8 %_40.i.i.i135 to i32
  %y_z.i.i.i137 = or disjoint i32 %_38.i.i.i134, %_39.i.i.i136
  %_20.i.i.i138 = shl nuw nsw i32 %init.i.i.i120, 12
  %28 = or disjoint i32 %y_z.i.i.i137, %_20.i.i.i138
  %_21.i.i.i139 = icmp samesign ugt i8 %x.i.i.i116, -17
  br i1 %_21.i.i.i139, label %bb90, label %bb47

bb90:                                             ; preds = %bb6.i.i.i130
  %_6.i24.i.i.i141 = icmp ne ptr %_16.i19.i.i.i132, %_8.i50
  tail call void @llvm.assume(i1 %_6.i24.i.i.i141)
  %_16.i26.i.i.i142 = getelementptr inbounds nuw i8, ptr %b_iter.sroa.7.1.ph, i64 4
  %w.i.i.i143 = load i8, ptr %_16.i19.i.i.i132, align 1, !noalias !28, !noundef !17
  %_26.i.i.i144 = shl nuw nsw i32 %init.i.i.i120, 18
  %_25.i.i.i145 = and i32 %_26.i.i.i144, 1835008
  %_43.i.i.i146 = shl nuw nsw i32 %y_z.i.i.i137, 6
  %_45.i.i.i147 = and i8 %w.i.i.i143, 63
  %_44.i.i.i148 = zext nneg i8 %_45.i.i.i147 to i32
  %_27.i.i.i149 = or disjoint i32 %_43.i.i.i146, %_44.i.i.i148
  %29 = or disjoint i32 %_27.i.i.i149, %_25.i.i.i145
  %.not34 = icmp eq i32 %29, 1114112
  br i1 %.not34, label %bb46.outer.backedge, label %bb47

bb46.outer.backedge:                              ; preds = %bb90, %bb47, %bb9.i108
  %b_iter.sroa.7.1.ph.be = phi ptr [ %_8.i50, %bb9.i108 ], [ %b_iter.sroa.7.239, %bb47 ], [ %_16.i26.i.i.i142, %bb90 ]
  br label %bb46.outer

bb46.outer:                                       ; preds = %bb44, %bb46.outer.backedge
  %b_iter.sroa.0.1.ph = phi ptr [ %_16.i.i109, %bb46.outer.backedge ], [ %b_iter.sroa.0.079, %bb44 ]
  %b_iter.sroa.7.1.ph = phi ptr [ %b_iter.sroa.7.1.ph.be, %bb46.outer.backedge ], [ %b_iter.sroa.7.080, %bb44 ]
  %30 = icmp ne ptr %b_iter.sroa.0.1.ph, null
  tail call void @llvm.assume(i1 %30)
  %_6.i.i107.peel = icmp eq ptr %b_iter.sroa.0.1.ph, %_100
  br i1 %_6.i.i107.peel, label %bb46, label %bb9.i108

bb47:                                             ; preds = %bb6.i.i.i130, %bb3.i.i.i150, %bb4.i.i.i118, %bb90
  %_0.sroa.2.0.i12941 = phi i32 [ %29, %bb90 ], [ %28, %bb6.i.i.i130 ], [ %_7.i.i.i151, %bb3.i.i.i150 ], [ %27, %bb4.i.i.i118 ]
  %b_iter.sroa.7.239 = phi ptr [ %_16.i26.i.i.i142, %bb90 ], [ %_16.i19.i.i.i132, %bb6.i.i.i130 ], [ %_16.i.i.i.i115, %bb3.i.i.i150 ], [ %_16.i12.i.i.i122, %bb4.i.i.i118 ]
  %31 = load i8, ptr %b_iter.sroa.0.1.ph, align 1, !range !25, !noundef !17
  %_69 = trunc nuw i8 %31 to i1
  br i1 %_69, label %bb49, label %bb46.outer.backedge

bb49:                                             ; preds = %bb47
  %_0.i.not = icmp ne i32 %_0.sroa.2.0.i8125, %_0.sroa.2.0.i12941
  %32 = zext i1 %_0.i.not to i64
  %spec.select = add i64 %transpositions.sroa.0.183, %32
  br label %bb58

bb58:                                             ; preds = %bb44, %bb49
  %b_iter.sroa.0.3 = phi ptr [ %_16.i.i109, %bb49 ], [ %b_iter.sroa.0.079, %bb44 ]
  %b_iter.sroa.7.3 = phi ptr [ %b_iter.sroa.7.239, %bb49 ], [ %b_iter.sroa.7.080, %bb44 ]
  %transpositions.sroa.0.3 = phi i64 [ %spec.select, %bb49 ], [ %transpositions.sroa.0.183, %bb44 ]
  %_6.i.i = icmp eq ptr %_16.i.i, %data.i.i
  br i1 %_6.i.i, label %bb64, label %bb9.i

bb23:                                             ; preds = %bb3.i.i.i, %bb6.i.i.i61, %bb4.i.i.i, %bb15
  %spec.select.i5.i14 = phi i32 [ %17, %bb15 ], [ %15, %bb4.i.i.i ], [ %16, %bb6.i.i.i61 ], [ %_7.i.i.i, %bb3.i.i.i ]
  %iter.sroa.0.113 = phi ptr [ %_16.i26.i.i.i, %bb15 ], [ %_16.i12.i.i.i, %bb4.i.i.i ], [ %_16.i19.i.i.i, %bb6.i.i.i61 ], [ %_16.i.i.i.i, %bb3.i.i.i ]
  %_8.0.i15 = add i64 %iter.sroa.10.075, 1
  %min_bound.sroa.0.0 = tail call i64 @llvm.usub.sat.i64(i64 %iter.sroa.10.075, i64 %9)
  %_30 = add i64 %_31, %iter.sroa.10.075
  %33 = icmp eq i64 %_30, 0
  br i1 %33, label %bb81, label %bb86.preheader

bb86.preheader:                                   ; preds = %bb23
  %_0.sroa.0.0.i62 = tail call noundef i64 @llvm.umin.i64(i64 %_30, i64 %_0.sroa.0.0.i53)
  br label %bb86

bb86:                                             ; preds = %bb86.preheader, %bb35
  %iter1.sroa.13.072 = phi i64 [ %34, %bb35 ], [ %_0.sroa.0.0.i62, %bb86.preheader ]
  %iter1.sroa.10.071 = phi i64 [ %_8.0.i17463, %bb35 ], [ 0, %bb86.preheader ]
  %iter1.sroa.0.070 = phi ptr [ %iter1.sroa.0.161, %bb35 ], [ %b.0.val, %bb86.preheader ]
  %34 = add i64 %iter1.sroa.13.072, -1
  %_6.i.i.not.i.i156 = icmp eq ptr %iter1.sroa.0.070, %_8.i50
  br i1 %_6.i.i.not.i.i156, label %bb81, label %bb14.i.i.i157

bb14.i.i.i157:                                    ; preds = %bb86
  %_16.i.i.i.i158 = getelementptr inbounds nuw i8, ptr %iter1.sroa.0.070, i64 1
  %x.i.i.i159 = load i8, ptr %iter1.sroa.0.070, align 1, !noalias !35, !noundef !17
  %_6.i.i.i160 = icmp sgt i8 %x.i.i.i159, -1
  br i1 %_6.i.i.i160, label %bb3.i.i.i198, label %bb4.i.i.i161

bb4.i.i.i161:                                     ; preds = %bb14.i.i.i157
  %_30.i.i.i162 = and i8 %x.i.i.i159, 31
  %init.i.i.i163 = zext nneg i8 %_30.i.i.i162 to i32
  %_6.i10.i.i.i164 = icmp ne ptr %_16.i.i.i.i158, %_8.i50
  tail call void @llvm.assume(i1 %_6.i10.i.i.i164)
  %_16.i12.i.i.i165 = getelementptr inbounds nuw i8, ptr %iter1.sroa.0.070, i64 2
  %y.i.i.i166 = load i8, ptr %_16.i.i.i.i158, align 1, !noalias !35, !noundef !17
  %_33.i.i.i167 = shl nuw nsw i32 %init.i.i.i163, 6
  %_35.i.i.i168 = and i8 %y.i.i.i166, 63
  %_34.i.i.i169 = zext nneg i8 %_35.i.i.i168 to i32
  %35 = or disjoint i32 %_33.i.i.i167, %_34.i.i.i169
  %_13.i.i.i170 = icmp samesign ugt i8 %x.i.i.i159, -33
  br i1 %_13.i.i.i170, label %bb6.i.i.i177, label %bb25

bb3.i.i.i198:                                     ; preds = %bb14.i.i.i157
  %_7.i.i.i199 = zext nneg i8 %x.i.i.i159 to i32
  br label %bb25

bb6.i.i.i177:                                     ; preds = %bb4.i.i.i161
  %_6.i17.i.i.i178 = icmp ne ptr %_16.i12.i.i.i165, %_8.i50
  tail call void @llvm.assume(i1 %_6.i17.i.i.i178)
  %_16.i19.i.i.i179 = getelementptr inbounds nuw i8, ptr %iter1.sroa.0.070, i64 3
  %z.i.i.i180 = load i8, ptr %_16.i12.i.i.i165, align 1, !noalias !35, !noundef !17
  %_38.i.i.i181 = shl nuw nsw i32 %_34.i.i.i169, 6
  %_40.i.i.i182 = and i8 %z.i.i.i180, 63
  %_39.i.i.i183 = zext nneg i8 %_40.i.i.i182 to i32
  %y_z.i.i.i184 = or disjoint i32 %_38.i.i.i181, %_39.i.i.i183
  %_20.i.i.i185 = shl nuw nsw i32 %init.i.i.i163, 12
  %36 = or disjoint i32 %y_z.i.i.i184, %_20.i.i.i185
  %_21.i.i.i186 = icmp samesign ugt i8 %x.i.i.i159, -17
  br i1 %_21.i.i.i186, label %_RNvXNtNtCsjMrxcFdYDNN_4core3str4iterNtB2_5CharsNtNtNtNtB6_4iter6traits8iterator8Iterator4next.exit.i187, label %bb25

_RNvXNtNtCsjMrxcFdYDNN_4core3str4iterNtB2_5CharsNtNtNtNtB6_4iter6traits8iterator8Iterator4next.exit.i187: ; preds = %bb6.i.i.i177
  %_6.i24.i.i.i188 = icmp ne ptr %_16.i19.i.i.i179, %_8.i50
  tail call void @llvm.assume(i1 %_6.i24.i.i.i188)
  %w.i.i.i190 = load i8, ptr %_16.i19.i.i.i179, align 1, !noalias !35, !noundef !17
  %_26.i.i.i191 = shl nuw nsw i32 %init.i.i.i163, 18
  %_25.i.i.i192 = and i32 %_26.i.i.i191, 1835008
  %_43.i.i.i193 = shl nuw nsw i32 %y_z.i.i.i184, 6
  %_45.i.i.i194 = and i8 %w.i.i.i190, 63
  %_44.i.i.i195 = zext nneg i8 %_45.i.i.i194 to i32
  %_27.i.i.i196 = or disjoint i32 %_43.i.i.i193, %_44.i.i.i195
  %37 = or disjoint i32 %_27.i.i.i196, %_25.i.i.i192
  %.not.i197 = icmp eq i32 %37, 1114112
  br i1 %.not.i197, label %bb81, label %bb85

bb85:                                             ; preds = %_RNvXNtNtCsjMrxcFdYDNN_4core3str4iterNtB2_5CharsNtNtNtNtB6_4iter6traits8iterator8Iterator4next.exit.i187
  %_16.i26.i.i.i189 = getelementptr inbounds nuw i8, ptr %iter1.sroa.0.070, i64 4
  br label %bb25

bb25:                                             ; preds = %bb3.i.i.i198, %bb6.i.i.i177, %bb4.i.i.i161, %bb85
  %spec.select.i5.i17262 = phi i32 [ %37, %bb85 ], [ %35, %bb4.i.i.i161 ], [ %36, %bb6.i.i.i177 ], [ %_7.i.i.i199, %bb3.i.i.i198 ]
  %iter1.sroa.0.161 = phi ptr [ %_16.i26.i.i.i189, %bb85 ], [ %_16.i12.i.i.i165, %bb4.i.i.i161 ], [ %_16.i19.i.i.i179, %bb6.i.i.i177 ], [ %_16.i.i.i.i158, %bb3.i.i.i198 ]
  %_8.0.i17463 = add i64 %iter1.sroa.10.071, 1
  %_41.not = icmp ule i64 %min_bound.sroa.0.0, %iter1.sroa.10.071
  %_0.i201 = icmp eq i32 %spec.select.i5.i14, %spec.select.i5.i17262
  %or.cond = select i1 %_41.not, i1 %_0.i201, i1 false
  br i1 %or.cond, label %bb28, label %bb35

bb81:                                             ; preds = %bb35, %_RNvXNtNtCsjMrxcFdYDNN_4core3str4iterNtB2_5CharsNtNtNtNtB6_4iter6traits8iterator8Iterator4next.exit.i187, %bb86, %bb23, %bb31
  %matches.sroa.0.1 = phi i64 [ %43, %bb31 ], [ %matches.sroa.0.076, %bb23 ], [ %matches.sroa.0.076, %bb86 ], [ %matches.sroa.0.076, %_RNvXNtNtCsjMrxcFdYDNN_4core3str4iterNtB2_5CharsNtNtNtNtB6_4iter6traits8iterator8Iterator4next.exit.i187 ], [ %matches.sroa.0.076, %bb35 ]
  %_6.i.i.not.i.i = icmp eq ptr %iter.sroa.0.113, %_8.i
  br i1 %_6.i.i.not.i.i, label %bb18, label %bb14.i.i.i

cleanup10:                                        ; preds = %panic11.invoke
  %38 = landingpad { ptr, i32 }
          cleanup
  br label %bb77

bb28:                                             ; preds = %bb25
  %_48 = icmp ult i64 %iter1.sroa.10.071, %_0.sroa.0.0.i53
  br i1 %_48, label %bb29, label %panic11.invoke

bb29:                                             ; preds = %bb28
  %39 = getelementptr inbounds nuw i8, ptr %data.i.i, i64 %iter1.sroa.10.071
  %40 = load i8, ptr %39, align 1, !range !25, !noundef !17
  %_46 = trunc nuw i8 %40 to i1
  br i1 %_46, label %bb35, label %bb30

bb30:                                             ; preds = %bb29
  %_50 = icmp ult i64 %iter.sroa.10.075, %_0.sroa.0.0.i
  br i1 %_50, label %bb31, label %panic11.invoke

bb31:                                             ; preds = %bb30
  %41 = getelementptr inbounds nuw i8, ptr %data.i.i, i64 %iter1.sroa.10.071
  %42 = getelementptr inbounds nuw i8, ptr %13, i64 %iter.sroa.10.075
  store i8 1, ptr %42, align 1
  store i8 1, ptr %41, align 1
  %43 = add i64 %matches.sroa.0.076, 1
  br label %bb81

panic11.invoke:                                   ; preds = %bb30, %bb28
  %44 = phi i64 [ %iter1.sroa.10.071, %bb28 ], [ %iter.sroa.10.075, %bb30 ]
  %45 = phi i64 [ %_0.sroa.0.0.i53, %bb28 ], [ %_0.sroa.0.0.i, %bb30 ]
  %46 = phi ptr [ @alloc_b0edf788d54645fb4e0f80eae3b38cde, %bb28 ], [ @alloc_51d3fde95428bd5e448f6069d0d69356, %bb30 ]
; invoke core::panicking::panic_bounds_check
  invoke void @_RNvNtCsjMrxcFdYDNN_4core9panicking18panic_bounds_check(i64 noundef %44, i64 noundef %45, ptr noalias noundef readonly align 8 captures(address, read_provenance) dereferenceable(24) %46) #24
          to label %panic11.cont unwind label %cleanup10

panic11.cont:                                     ; preds = %panic11.invoke
  unreachable

bb35:                                             ; preds = %bb29, %bb25
  %47 = icmp eq i64 %34, 0
  br i1 %47, label %bb81, label %bb86

bb78:                                             ; preds = %bb2.i.i.i4.i, %bb77
  resume { ptr, i32 } %.pn
}

; strsim::damerau_levenshtein_impl::<core::str::iter::Chars, core::str::iter::Chars>
; Function Attrs: uwtable
define internal fastcc noundef i64 @_RINvCs6KJnav5oeQt_6strsim24damerau_levenshtein_implNtNtNtCsjMrxcFdYDNN_4core3str4iter5CharsBN_EB2_(ptr noundef nonnull readonly captures(address) %s1.0, ptr noundef nonnull readnone captures(address) %s1.1, i64 noundef %len1, ptr noundef nonnull readonly captures(address) %0, ptr noundef nonnull readnone captures(address) %1, i64 noundef %len2) unnamed_addr #0 personality ptr @rust_eh_personality {
start:
  %r1 = alloca [24 x i8], align 8
  %fr = alloca [24 x i8], align 8
  %last_row_id = alloca [2088 x i8], align 8
  %_0.sroa.0.0.i = tail call noundef i64 @llvm.umax.i64(i64 %len2, i64 %len1)
  %max_val = add i64 %_0.sroa.0.0.i, 1
  call void @llvm.lifetime.start.p0(i64 2088, ptr nonnull %last_row_id)
  %2 = getelementptr inbounds nuw i8, ptr %last_row_id, i64 40
  call void @llvm.memset.p0.i64(ptr noundef nonnull align 8 dereferenceable(2048) %2, i8 -1, i64 2048, i1 false), !alias.scope !42
  store i64 -9223372036854775808, ptr %last_row_id, align 8, !alias.scope !42
  %_1.sroa.62.0._0.sroa_idx.i = getelementptr inbounds nuw i8, ptr %last_row_id, i64 24
  %_1.sroa.7.0._0.sroa_idx.i = getelementptr inbounds nuw i8, ptr %last_row_id, i64 28
  store <2 x i32> zeroinitializer, ptr %_1.sroa.62.0._0.sroa_idx.i, align 8, !alias.scope !42
  %_1.sroa.8.0._0.sroa_idx.i = getelementptr inbounds nuw i8, ptr %last_row_id, i64 32
  store i32 -1, ptr %_1.sroa.8.0._0.sroa_idx.i, align 8, !alias.scope !42
  %size = add i64 %len2, 2
  call void @llvm.lifetime.start.p0(i64 24, ptr nonnull %fr)
; invoke <isize as alloc::vec::spec_from_elem::SpecFromElem>::from_elem::<alloc::alloc::Global>
  invoke fastcc void @_RINvXs_NtNtCsdJPVW0sQgAG_5alloc3vec14spec_from_elemiNtB5_12SpecFromElem9from_elemNtNtB9_5alloc6GlobalECs6KJnav5oeQt_6strsim(ptr noalias noundef align 8 captures(none) dereferenceable(24) %fr, i64 noundef %max_val, i64 noundef %size)
          to label %bb38 unwind label %cleanup2

bb32:                                             ; preds = %bb2.i.i.i4.i, %bb31, %cleanup2
  %.pn.pn.pn.pn = phi { ptr, i32 } [ %4, %cleanup2 ], [ %.pn.pn.pn, %bb31 ], [ %.pn.pn.pn, %bb2.i.i.i4.i ]
  %last_row_id.val42 = load i64, ptr %last_row_id, align 8, !range !45, !noundef !17
  switch i64 %last_row_id.val42, label %bb2.i.i.i4.i.i.i.i [
    i64 -9223372036854775808, label %bb34
    i64 0, label %bb34
  ]

bb2.i.i.i4.i.i.i.i:                               ; preds = %bb32
  %3 = getelementptr inbounds nuw i8, ptr %last_row_id, i64 8
  %last_row_id.val43 = load ptr, ptr %3, align 8, !nonnull !17, !noundef !17
  %alloc_size.i.i.i.i5.i.i.i.i = shl nuw i64 %last_row_id.val42, 4
; call __rustc::__rust_dealloc
  tail call void @_RNvCsKhRCbHf33p_7___rustc14___rust_dealloc(ptr noundef nonnull %last_row_id.val43, i64 noundef %alloc_size.i.i.i.i5.i.i.i.i, i64 noundef range(i64 1, -9223372036854775807) 8) #23
  br label %bb34

cleanup2:                                         ; preds = %start
  %4 = landingpad { ptr, i32 }
          cleanup
  br label %bb32

bb38:                                             ; preds = %start
  call void @llvm.lifetime.start.p0(i64 24, ptr nonnull %r1)
; invoke <isize as alloc::vec::spec_from_elem::SpecFromElem>::from_elem::<alloc::alloc::Global>
  invoke fastcc void @_RINvXs_NtNtCsdJPVW0sQgAG_5alloc3vec14spec_from_elemiNtB5_12SpecFromElem9from_elemNtNtB9_5alloc6GlobalECs6KJnav5oeQt_6strsim(ptr noalias noundef align 8 captures(none) dereferenceable(24) %r1, i64 noundef %max_val, i64 noundef %size)
          to label %_RNvXs_NtNtNtCsjMrxcFdYDNN_4core4iter8adapters5chainINtB4_5ChainINtNtNtBa_3ops5range5RangeiEBZ_ENtNtNtB8_6traits8iterator8Iterator9size_hintCs6KJnav5oeQt_6strsim.exit.i unwind label %cleanup3

bb31:                                             ; preds = %bb2.i.i.i4.i45, %bb30, %cleanup3
  %.pn.pn.pn = phi { ptr, i32 } [ %7, %cleanup3 ], [ %.pn.pn, %bb30 ], [ %.pn.pn, %bb2.i.i.i4.i45 ]
  %fr.val = load i64, ptr %fr, align 8
  %5 = icmp eq i64 %fr.val, 0
  br i1 %5, label %bb32, label %bb2.i.i.i4.i

bb2.i.i.i4.i:                                     ; preds = %bb31
  %6 = getelementptr inbounds nuw i8, ptr %fr, i64 8
  %fr.val32 = load ptr, ptr %6, align 8, !nonnull !17, !noundef !17
  %alloc_size.i.i.i.i5.i = shl nuw i64 %fr.val, 3
; call __rustc::__rust_dealloc
  tail call void @_RNvCsKhRCbHf33p_7___rustc14___rust_dealloc(ptr noundef nonnull %fr.val32, i64 noundef %alloc_size.i.i.i.i5.i, i64 noundef range(i64 1, -9223372036854775807) 8) #23
  br label %bb32

cleanup3:                                         ; preds = %bb38
  %7 = landingpad { ptr, i32 }
          cleanup
  br label %bb31

bb30:                                             ; preds = %bb2.i.i.i4.i49, %bb29, %cleanup4
  %.pn.pn = phi { ptr, i32 } [ %10, %cleanup4 ], [ %.pn, %bb29 ], [ %.pn, %bb2.i.i.i4.i49 ]
  %r1.val = load i64, ptr %r1, align 8
  %8 = icmp eq i64 %r1.val, 0
  br i1 %8, label %bb31, label %bb2.i.i.i4.i45

bb2.i.i.i4.i45:                                   ; preds = %bb30
  %9 = getelementptr inbounds nuw i8, ptr %r1, i64 8
  %r1.val33 = load ptr, ptr %9, align 8, !nonnull !17, !noundef !17
  %alloc_size.i.i.i.i5.i46 = shl nuw i64 %r1.val, 3
; call __rustc::__rust_dealloc
  tail call void @_RNvCsKhRCbHf33p_7___rustc14___rust_dealloc(ptr noundef nonnull %r1.val33, i64 noundef %alloc_size.i.i.i.i5.i46, i64 noundef range(i64 1, -9223372036854775807) 8) #23
  br label %bb31

cleanup4:                                         ; preds = %bb3.i5.i
  %10 = landingpad { ptr, i32 }
          cleanup
  br label %bb30

_RNvXs_NtNtNtCsjMrxcFdYDNN_4core4iter8adapters5chainINtB4_5ChainINtNtNtBa_3ops5range5RangeiEBZ_ENtNtNtB8_6traits8iterator8Iterator9size_hintCs6KJnav5oeQt_6strsim.exit.i: ; preds = %bb38
  %_15 = add i64 %_0.sroa.0.0.i, 2
  %_18 = add i64 %len2, 1
  %_0.i.i9.i.i = icmp slt i64 %max_val, %_15
  %spec.select.i11.i.i = zext i1 %_0.i.i9.i.i to i64
  %spec.select.i14.i.i = tail call i64 @llvm.smax.i64(i64 %_18, i64 0)
  %_22.0.i.i = add nuw i64 %spec.select.i14.i.i, %spec.select.i11.i.i
  %_23.i.i.i.i = icmp eq i64 %_22.0.i.i, 0
  br i1 %_23.i.i.i.i, label %_RNvMs_NtCsdJPVW0sQgAG_5alloc3vecINtB4_3VeciE7reserveCs6KJnav5oeQt_6strsim.exit.i.i.i, label %bb6.i.i.i.i

bb6.i.i.i.i:                                      ; preds = %_RNvXs_NtNtNtCsjMrxcFdYDNN_4core4iter8adapters5chainINtB4_5ChainINtNtNtBa_3ops5range5RangeiEBZ_ENtNtNtB8_6traits8iterator8Iterator9size_hintCs6KJnav5oeQt_6strsim.exit.i
  %_24.i.i.i.i = add i64 %_22.0.i.i, -1
  %_27.0.i.i.i.i = shl i64 %_24.i.i.i.i, 3
  %_27.1.i.i.i.i = icmp samesign ugt i64 %_24.i.i.i.i, 2305843009213693951
  %_40.i.i.i.i = icmp ugt i64 %_27.0.i.i.i.i, 9223372036854775799
  %or.cond.i = or i1 %_27.1.i.i.i.i, %_40.i.i.i.i
  br i1 %or.cond.i, label %bb3.i5.i, label %bb3.i.i.i, !prof !46

bb3.i.i.i:                                        ; preds = %bb6.i.i.i.i
  %new_size2.i.i.i.i = add nuw nsw i64 %_27.0.i.i.i.i, 8
; call __rustc::__rust_no_alloc_shim_is_unstable_v2
  tail call void @_RNvCsKhRCbHf33p_7___rustc35___rust_no_alloc_shim_is_unstable_v2() #23, !noalias !47
; call __rustc::__rust_alloc
  %11 = tail call noundef align 8 ptr @_RNvCsKhRCbHf33p_7___rustc12___rust_alloc(i64 noundef %new_size2.i.i.i.i, i64 noundef range(i64 1, 9) 8) #23, !noalias !47
  %12 = icmp eq ptr %11, null
  br i1 %12, label %bb3.i5.i, label %_RNvMs_NtCsdJPVW0sQgAG_5alloc3vecINtB4_3VeciE7reserveCs6KJnav5oeQt_6strsim.exit.i.i.i

bb3.i5.i:                                         ; preds = %bb3.i.i.i, %bb6.i.i.i.i
  %_4.sroa.4.0.ph.i.i = phi i64 [ 8, %bb3.i.i.i ], [ 0, %bb6.i.i.i.i ]
  %_4.sroa.10.0.ph.i.i = phi i64 [ %new_size2.i.i.i.i, %bb3.i.i.i ], [ undef, %bb6.i.i.i.i ]
; invoke alloc::raw_vec::handle_error
  invoke void @_RNvNtCsdJPVW0sQgAG_5alloc7raw_vec12handle_error(i64 noundef %_4.sroa.4.0.ph.i.i, i64 %_4.sroa.10.0.ph.i.i) #24
          to label %.noexc unwind label %cleanup4

.noexc:                                           ; preds = %bb3.i5.i
  unreachable

_RNvMs_NtCsdJPVW0sQgAG_5alloc3vecINtB4_3VeciE7reserveCs6KJnav5oeQt_6strsim.exit.i.i.i: ; preds = %bb3.i.i.i, %_RNvXs_NtNtNtCsjMrxcFdYDNN_4core4iter8adapters5chainINtB4_5ChainINtNtNtBa_3ops5range5RangeiEBZ_ENtNtNtB8_6traits8iterator8Iterator9size_hintCs6KJnav5oeQt_6strsim.exit.i
  %_4.sroa.10.0.i.i = phi ptr [ inttoptr (i64 8 to ptr), %_RNvXs_NtNtNtCsjMrxcFdYDNN_4core4iter8adapters5chainINtB4_5ChainINtNtNtBa_3ops5range5RangeiEBZ_ENtNtNtB8_6traits8iterator8Iterator9size_hintCs6KJnav5oeQt_6strsim.exit.i ], [ %11, %bb3.i.i.i ]
  %13 = ptrtoint ptr %_4.sroa.10.0.i.i to i64
  br i1 %_0.i.i9.i.i, label %bb3.i.i.i.i.i.i.preheader, label %bb3.i.i.i.i.i

bb3.i.i.i.i.i.i.preheader:                        ; preds = %_RNvMs_NtCsdJPVW0sQgAG_5alloc3vecINtB4_3VeciE7reserveCs6KJnav5oeQt_6strsim.exit.i.i.i
  store i64 %max_val, ptr %_4.sroa.10.0.i.i, align 8, !noalias !53
  br label %bb3.i.i.i.i.i

bb3.i.i.i.i.i:                                    ; preds = %bb3.i.i.i.i.i.i.preheader, %_RNvMs_NtCsdJPVW0sQgAG_5alloc3vecINtB4_3VeciE7reserveCs6KJnav5oeQt_6strsim.exit.i.i.i
  %_4.sroa.5.0.i.i.i.i = phi i64 [ 0, %_RNvMs_NtCsdJPVW0sQgAG_5alloc3vecINtB4_3VeciE7reserveCs6KJnav5oeQt_6strsim.exit.i.i.i ], [ 1, %bb3.i.i.i.i.i.i.preheader ]
  %_0.i.i.i11.i.i.i.i.i.i = icmp ult i64 %len2, 9223372036854775807
  br i1 %_0.i.i.i11.i.i.i.i.i.i, label %bb3.i9.i.i.i.i.i.preheader, label %bb3

bb3.i9.i.i.i.i.i.preheader:                       ; preds = %bb3.i.i.i.i.i
  %14 = add nuw i64 %len2, 1
  %min.iters.check = icmp ult i64 %len2, 7
  br i1 %min.iters.check, label %bb3.i9.i.i.i.i.i.preheader886, label %vector.ph

vector.ph:                                        ; preds = %bb3.i9.i.i.i.i.i.preheader
  %n.vec = and i64 %14, -8
  %15 = or disjoint i64 %_4.sroa.5.0.i.i.i.i, %n.vec
  %16 = getelementptr inbounds nuw i64, ptr %_4.sroa.10.0.i.i, i64 %_4.sroa.5.0.i.i.i.i
  br label %vector.body

vector.body:                                      ; preds = %vector.body, %vector.ph
  %index = phi i64 [ 0, %vector.ph ], [ %index.next, %vector.body ]
  %vec.ind = phi <2 x i64> [ <i64 0, i64 1>, %vector.ph ], [ %vec.ind.next, %vector.body ]
  %step.add = add <2 x i64> %vec.ind, splat (i64 2)
  %step.add.2 = add <2 x i64> %vec.ind, splat (i64 4)
  %step.add.3 = add <2 x i64> %vec.ind, splat (i64 6)
  %17 = getelementptr inbounds nuw i64, ptr %16, i64 %index
  %18 = getelementptr inbounds nuw i8, ptr %17, i64 16
  %19 = getelementptr inbounds nuw i8, ptr %17, i64 32
  %20 = getelementptr inbounds nuw i8, ptr %17, i64 48
  store <2 x i64> %vec.ind, ptr %17, align 8, !noalias !72
  store <2 x i64> %step.add, ptr %18, align 8, !noalias !72
  store <2 x i64> %step.add.2, ptr %19, align 8, !noalias !72
  store <2 x i64> %step.add.3, ptr %20, align 8, !noalias !72
  %index.next = add nuw i64 %index, 8
  %vec.ind.next = add <2 x i64> %vec.ind, splat (i64 8)
  %21 = icmp eq i64 %index.next, %n.vec
  br i1 %21, label %middle.block, label %vector.body, !llvm.loop !79

middle.block:                                     ; preds = %vector.body
  %cmp.n = icmp eq i64 %14, %n.vec
  br i1 %cmp.n, label %bb3, label %bb3.i9.i.i.i.i.i.preheader886

bb3.i9.i.i.i.i.i.preheader886:                    ; preds = %bb3.i9.i.i.i.i.i.preheader, %middle.block
  %.ph887 = phi i64 [ %_4.sroa.5.0.i.i.i.i, %bb3.i9.i.i.i.i.i.preheader ], [ %15, %middle.block ]
  %self.sroa.0.012.i.i.i.i.i.i.ph = phi i64 [ 0, %bb3.i9.i.i.i.i.i.preheader ], [ %n.vec, %middle.block ]
  br label %bb3.i9.i.i.i.i.i

bb3.i9.i.i.i.i.i:                                 ; preds = %bb3.i9.i.i.i.i.i.preheader886, %bb3.i9.i.i.i.i.i
  %22 = phi i64 [ %24, %bb3.i9.i.i.i.i.i ], [ %.ph887, %bb3.i9.i.i.i.i.i.preheader886 ]
  %self.sroa.0.012.i.i.i.i.i.i = phi i64 [ %23, %bb3.i9.i.i.i.i.i ], [ %self.sroa.0.012.i.i.i.i.i.i.ph, %bb3.i9.i.i.i.i.i.preheader886 ]
  %23 = add nuw nsw i64 %self.sroa.0.012.i.i.i.i.i.i, 1
  %_3.i.i.i.i.i.i.i.i = getelementptr inbounds nuw i64, ptr %_4.sroa.10.0.i.i, i64 %22
  store i64 %self.sroa.0.012.i.i.i.i.i.i, ptr %_3.i.i.i.i.i.i.i.i, align 8, !noalias !72
  %24 = add i64 %22, 1
  %exitcond.not.i10.i.i.i.i.i = icmp eq i64 %self.sroa.0.012.i.i.i.i.i.i, %len2
  br i1 %exitcond.not.i10.i.i.i.i.i, label %bb3, label %bb3.i9.i.i.i.i.i, !llvm.loop !82

bb29:                                             ; preds = %cleanup6.loopexit, %cleanup6.loopexit.split-lp, %cleanup.i.i.i, %bb2.i.i.i.i.i4.i.i.i.i.i, %cleanup9, %cleanup5
  %r.sroa.7.0 = phi i64 [ %r.sroa.7.1.lcssa, %cleanup5 ], [ %_4.sroa.0.0.copyload.i.i.i.1.i.i, %cleanup9 ], [ %_4.sroa.0.0.copyload.i.i.i.1.i.i, %bb2.i.i.i.i.i4.i.i.i.i.i ], [ %_4.sroa.0.0.copyload.i.i.i.1.i.i, %cleanup.i.i.i ], [ %_4.sroa.0.0.copyload.i.i.i.1.i.i, %cleanup6.loopexit ], [ %_4.sroa.0.0.copyload.i.i.i.1.i.i, %cleanup6.loopexit.split-lp ]
  %r.sroa.0.0 = phi i64 [ %r.sroa.0.1.lcssa, %cleanup5 ], [ %_4.sroa.0.0.copyload.i.i.i.i.i, %cleanup9 ], [ %_4.sroa.0.0.copyload.i.i.i.i.i, %bb2.i.i.i.i.i4.i.i.i.i.i ], [ %_4.sroa.0.0.copyload.i.i.i.i.i, %cleanup.i.i.i ], [ %_4.sroa.0.0.copyload.i.i.i.i.i, %cleanup6.loopexit ], [ %_4.sroa.0.0.copyload.i.i.i.i.i, %cleanup6.loopexit.split-lp ]
  %.pn = phi { ptr, i32 } [ %28, %cleanup5 ], [ %53, %cleanup9 ], [ %lpad.phi.i.i.i, %bb2.i.i.i.i.i4.i.i.i.i.i ], [ %lpad.phi.i.i.i, %cleanup.i.i.i ], [ %lpad.loopexit, %cleanup6.loopexit ], [ %lpad.loopexit.split-lp, %cleanup6.loopexit.split-lp ]
  %25 = icmp eq i64 %r.sroa.0.0, 0
  br i1 %25, label %bb30, label %bb2.i.i.i4.i49

bb2.i.i.i4.i49:                                   ; preds = %bb29
  %26 = inttoptr i64 %r.sroa.7.0 to ptr
  %alloc_size.i.i.i.i5.i50 = shl nuw i64 %r.sroa.0.0, 3
  %27 = icmp ne i64 %r.sroa.7.0, 0
  tail call void @llvm.assume(i1 %27)
; call __rustc::__rust_dealloc
  tail call void @_RNvCsKhRCbHf33p_7___rustc14___rust_dealloc(ptr noundef nonnull %26, i64 noundef %alloc_size.i.i.i.i5.i50, i64 noundef range(i64 1, -9223372036854775807) 8) #23
  br label %bb30

cleanup5:                                         ; preds = %panic
  %28 = landingpad { ptr, i32 }
          cleanup
  br label %bb29

bb3:                                              ; preds = %bb3.i9.i.i.i.i.i, %middle.block, %bb3.i.i.i.i.i
  %storemerge.i.i.i.i = phi i64 [ %_4.sroa.5.0.i.i.i.i, %bb3.i.i.i.i.i ], [ %15, %middle.block ], [ %24, %bb3.i9.i.i.i.i.i ]
  %_6.i.i.not.i.i386 = icmp eq ptr %s1.0, %s1.1
  br i1 %_6.i.i.not.i.i386, label %bb42, label %bb14.i.i.i.lr.ph

bb14.i.i.i.lr.ph:                                 ; preds = %bb3
  %_13.i.i.1.i.i = getelementptr inbounds nuw i8, ptr %r1, i64 8
  %_13.i.i.2.i.i = getelementptr inbounds nuw i8, ptr %r1, i64 16
  %_6.i.i.not.i.i70380 = icmp eq ptr %0, %1
  %29 = getelementptr inbounds nuw i8, ptr %last_row_id, i64 8
  %30 = getelementptr inbounds nuw i8, ptr %last_row_id, i64 16
  %31 = getelementptr inbounds nuw i8, ptr %fr, i64 16
  %32 = getelementptr inbounds nuw i8, ptr %fr, i64 8
  br label %bb14.i.i.i

bb14.i.i.i:                                       ; preds = %bb14.i.i.i.lr.ph, %bb20
  %r.sroa.0.1391 = phi i64 [ %_22.0.i.i, %bb14.i.i.i.lr.ph ], [ %_4.sroa.0.0.copyload.i.i.i.i.i, %bb20 ]
  %r.sroa.7.1390 = phi i64 [ %13, %bb14.i.i.i.lr.ph ], [ %_4.sroa.0.0.copyload.i.i.i.1.i.i, %bb20 ]
  %r.sroa.15.0389 = phi i64 [ %storemerge.i.i.i.i, %bb14.i.i.i.lr.ph ], [ %_4.sroa.0.0.copyload.i.i.i.2.i.i, %bb20 ]
  %iter.sroa.10.0388 = phi i64 [ 0, %bb14.i.i.i.lr.ph ], [ %_8.0.i178, %bb20 ]
  %iter.sroa.0.0387 = phi ptr [ %s1.0, %bb14.i.i.i.lr.ph ], [ %iter.sroa.0.1176, %bb20 ]
  %_16.i.i.i.i = getelementptr inbounds nuw i8, ptr %iter.sroa.0.0387, i64 1
  %x.i.i.i = load i8, ptr %iter.sroa.0.0387, align 1, !noalias !83, !noundef !17
  %_6.i.i.i = icmp sgt i8 %x.i.i.i, -1
  br i1 %_6.i.i.i, label %bb3.i.i.i55, label %bb4.i.i.i

bb4.i.i.i:                                        ; preds = %bb14.i.i.i
  %_30.i.i.i = and i8 %x.i.i.i, 31
  %init.i.i.i = zext nneg i8 %_30.i.i.i to i32
  %_6.i10.i.i.i = icmp ne ptr %_16.i.i.i.i, %s1.1
  tail call void @llvm.assume(i1 %_6.i10.i.i.i)
  %_16.i12.i.i.i = getelementptr inbounds nuw i8, ptr %iter.sroa.0.0387, i64 2
  %y.i.i.i = load i8, ptr %_16.i.i.i.i, align 1, !noalias !83, !noundef !17
  %_33.i.i.i = shl nuw nsw i32 %init.i.i.i, 6
  %_35.i.i.i = and i8 %y.i.i.i, 63
  %_34.i.i.i = zext nneg i8 %_35.i.i.i to i32
  %33 = or disjoint i32 %_33.i.i.i, %_34.i.i.i
  %_13.i.i.i = icmp samesign ugt i8 %x.i.i.i, -33
  br i1 %_13.i.i.i, label %bb6.i.i.i, label %bb43

bb3.i.i.i55:                                      ; preds = %bb14.i.i.i
  %_7.i.i.i = zext nneg i8 %x.i.i.i to i32
  br label %bb43

bb6.i.i.i:                                        ; preds = %bb4.i.i.i
  %_6.i17.i.i.i = icmp ne ptr %_16.i12.i.i.i, %s1.1
  tail call void @llvm.assume(i1 %_6.i17.i.i.i)
  %_16.i19.i.i.i = getelementptr inbounds nuw i8, ptr %iter.sroa.0.0387, i64 3
  %z.i.i.i = load i8, ptr %_16.i12.i.i.i, align 1, !noalias !83, !noundef !17
  %_38.i.i.i = shl nuw nsw i32 %_34.i.i.i, 6
  %_40.i.i.i = and i8 %z.i.i.i, 63
  %_39.i.i.i = zext nneg i8 %_40.i.i.i to i32
  %y_z.i.i.i = or disjoint i32 %_38.i.i.i, %_39.i.i.i
  %_20.i.i.i = shl nuw nsw i32 %init.i.i.i, 12
  %34 = or disjoint i32 %y_z.i.i.i, %_20.i.i.i
  %_21.i.i.i = icmp samesign ugt i8 %x.i.i.i, -17
  br i1 %_21.i.i.i, label %_RNvXNtNtCsjMrxcFdYDNN_4core3str4iterNtB2_5CharsNtNtNtNtB6_4iter6traits8iterator8Iterator4next.exit.i, label %bb43

_RNvXNtNtCsjMrxcFdYDNN_4core3str4iterNtB2_5CharsNtNtNtNtB6_4iter6traits8iterator8Iterator4next.exit.i: ; preds = %bb6.i.i.i
  %_6.i24.i.i.i = icmp ne ptr %_16.i19.i.i.i, %s1.1
  tail call void @llvm.assume(i1 %_6.i24.i.i.i)
  %w.i.i.i = load i8, ptr %_16.i19.i.i.i, align 1, !noalias !83, !noundef !17
  %_26.i.i.i53 = shl nuw nsw i32 %init.i.i.i, 18
  %_25.i.i.i = and i32 %_26.i.i.i53, 1835008
  %_43.i.i.i = shl nuw nsw i32 %y_z.i.i.i, 6
  %_45.i.i.i = and i8 %w.i.i.i, 63
  %_44.i.i.i = zext nneg i8 %_45.i.i.i to i32
  %_27.i.i.i54 = or disjoint i32 %_43.i.i.i, %_44.i.i.i
  %35 = or disjoint i32 %_27.i.i.i54, %_25.i.i.i
  %.not.i = icmp eq i32 %35, 1114112
  br i1 %.not.i, label %bb42, label %bb41

cleanup6.loopexit:                                ; preds = %bb16.i.i, %_RNvMs3_Cs6KJnav5oeQt_6strsimINtB5_18GrowingHashmapCharNtB5_5RowIdE4growB5_.exit.i.i
  %lpad.loopexit = landingpad { ptr, i32 }
          cleanup
  br label %bb29

cleanup6.loopexit.split-lp:                       ; preds = %panic.i.i.invoke, %bb3.i.i.i.i.i123.invoke, %panic7
  %lpad.loopexit.split-lp = landingpad { ptr, i32 }
          cleanup
  br label %bb29

bb41:                                             ; preds = %_RNvXNtNtCsjMrxcFdYDNN_4core3str4iterNtB2_5CharsNtNtNtNtB6_4iter6traits8iterator8Iterator4next.exit.i
  %_16.i26.i.i.i = getelementptr inbounds nuw i8, ptr %iter.sroa.0.0387, i64 4
  br label %bb43

bb43:                                             ; preds = %bb3.i.i.i55, %bb6.i.i.i, %bb4.i.i.i, %bb41
  %spec.select.i5.i177 = phi i32 [ %35, %bb41 ], [ %33, %bb4.i.i.i ], [ %34, %bb6.i.i.i ], [ %_7.i.i.i, %bb3.i.i.i55 ]
  %iter.sroa.0.1176 = phi ptr [ %_16.i26.i.i.i, %bb41 ], [ %_16.i12.i.i.i, %bb4.i.i.i ], [ %_16.i19.i.i.i, %bb6.i.i.i ], [ %_16.i.i.i.i, %bb3.i.i.i55 ]
  %_8.0.i178 = add i64 %iter.sroa.10.0388, 1
  %_4.sroa.0.0.copyload.i.i.i.i.i = load i64, ptr %r1, align 8, !alias.scope !90, !noalias !93
  store i64 %r.sroa.0.1391, ptr %r1, align 8, !alias.scope !90, !noalias !93
  %_4.sroa.0.0.copyload.i.i.i.1.i.i = load i64, ptr %_13.i.i.1.i.i, align 8, !alias.scope !95, !noalias !97
  store i64 %r.sroa.7.1390, ptr %_13.i.i.1.i.i, align 8, !alias.scope !95, !noalias !97
  %_4.sroa.0.0.copyload.i.i.i.2.i.i = load i64, ptr %_13.i.i.2.i.i, align 8, !alias.scope !99, !noalias !101
  store i64 %r.sroa.15.0389, ptr %_13.i.i.2.i.i, align 8, !alias.scope !99, !noalias !101
  %_95 = icmp ugt i64 %_4.sroa.0.0.copyload.i.i.i.2.i.i, 1
  %36 = inttoptr i64 %r.sroa.7.1390 to ptr
  br i1 %_95, label %bb7, label %panic7

bb42:                                             ; preds = %_RNvXNtNtCsjMrxcFdYDNN_4core3str4iterNtB2_5CharsNtNtNtNtB6_4iter6traits8iterator8Iterator4next.exit.i, %bb20, %bb3
  %r.sroa.15.0.lcssa = phi i64 [ %storemerge.i.i.i.i, %bb3 ], [ %_4.sroa.0.0.copyload.i.i.i.2.i.i, %bb20 ], [ %r.sroa.15.0389, %_RNvXNtNtCsjMrxcFdYDNN_4core3str4iterNtB2_5CharsNtNtNtNtB6_4iter6traits8iterator8Iterator4next.exit.i ]
  %r.sroa.7.1.lcssa = phi i64 [ %13, %bb3 ], [ %_4.sroa.0.0.copyload.i.i.i.1.i.i, %bb20 ], [ %r.sroa.7.1390, %_RNvXNtNtCsjMrxcFdYDNN_4core3str4iterNtB2_5CharsNtNtNtNtB6_4iter6traits8iterator8Iterator4next.exit.i ]
  %r.sroa.0.1.lcssa = phi i64 [ %_22.0.i.i, %bb3 ], [ %_4.sroa.0.0.copyload.i.i.i.i.i, %bb20 ], [ %r.sroa.0.1391, %_RNvXNtNtCsjMrxcFdYDNN_4core3str4iterNtB2_5CharsNtNtNtNtB6_4iter6traits8iterator8Iterator4next.exit.i ]
  %_153 = icmp ult i64 %_18, %r.sroa.15.0.lcssa
  br i1 %_153, label %bb62, label %panic

bb62:                                             ; preds = %bb42
  %37 = inttoptr i64 %r.sroa.7.1.lcssa to ptr
  %_81 = getelementptr inbounds nuw i64, ptr %37, i64 %_18
  %_80 = load i64, ptr %_81, align 8, !noundef !17
  %38 = icmp eq i64 %r.sroa.0.1.lcssa, 0
  br i1 %38, label %bb22, label %bb2.i.i.i4.i56

bb2.i.i.i4.i56:                                   ; preds = %bb62
  %alloc_size.i.i.i.i5.i57 = shl nuw i64 %r.sroa.0.1.lcssa, 3
; call __rustc::__rust_dealloc
  tail call void @_RNvCsKhRCbHf33p_7___rustc14___rust_dealloc(ptr noundef nonnull %37, i64 noundef %alloc_size.i.i.i.i5.i57, i64 noundef range(i64 1, -9223372036854775807) 8) #23
  br label %bb22

panic:                                            ; preds = %bb42
; invoke core::panicking::panic_bounds_check
  invoke void @_RNvNtCsjMrxcFdYDNN_4core9panicking18panic_bounds_check(i64 noundef %_18, i64 noundef %r.sroa.15.0.lcssa, ptr noalias noundef readonly align 8 captures(address, read_provenance) dereferenceable(24) @alloc_979475be75b63577188022943ab16aa0) #24
          to label %unreachable unwind label %cleanup5

unreachable:                                      ; preds = %panic7, %panic
  unreachable

bb22:                                             ; preds = %bb2.i.i.i4.i56, %bb62
  %r1.val37 = load i64, ptr %r1, align 8
  %39 = icmp eq i64 %r1.val37, 0
  br i1 %39, label %bb23, label %bb2.i.i.i4.i59

bb2.i.i.i4.i59:                                   ; preds = %bb22
  %40 = getelementptr inbounds nuw i8, ptr %r1, i64 8
  %r1.val38 = load ptr, ptr %40, align 8, !nonnull !17, !noundef !17
  %alloc_size.i.i.i.i5.i60 = shl nuw i64 %r1.val37, 3
; call __rustc::__rust_dealloc
  tail call void @_RNvCsKhRCbHf33p_7___rustc14___rust_dealloc(ptr noundef nonnull %r1.val38, i64 noundef %alloc_size.i.i.i.i5.i60, i64 noundef range(i64 1, -9223372036854775807) 8) #23
  br label %bb23

bb23:                                             ; preds = %bb2.i.i.i4.i59, %bb22
  call void @llvm.lifetime.end.p0(i64 24, ptr nonnull %r1)
  %fr.val35 = load i64, ptr %fr, align 8
  %41 = icmp eq i64 %fr.val35, 0
  br i1 %41, label %bb24, label %bb2.i.i.i4.i62

bb2.i.i.i4.i62:                                   ; preds = %bb23
  %42 = getelementptr inbounds nuw i8, ptr %fr, i64 8
  %fr.val36 = load ptr, ptr %42, align 8, !nonnull !17, !noundef !17
  %alloc_size.i.i.i.i5.i63 = shl nuw i64 %fr.val35, 3
; call __rustc::__rust_dealloc
  tail call void @_RNvCsKhRCbHf33p_7___rustc14___rust_dealloc(ptr noundef nonnull %fr.val36, i64 noundef %alloc_size.i.i.i.i5.i63, i64 noundef range(i64 1, -9223372036854775807) 8) #23
  br label %bb24

bb24:                                             ; preds = %bb2.i.i.i4.i62, %bb23
  call void @llvm.lifetime.end.p0(i64 24, ptr nonnull %fr)
  %last_row_id.val = load i64, ptr %last_row_id, align 8, !range !45, !noundef !17
  switch i64 %last_row_id.val, label %bb2.i.i.i4.i.i.i.i65 [
    i64 -9223372036854775808, label %_RINvNtCsjMrxcFdYDNN_4core3ptr13drop_in_placeINtCs6KJnav5oeQt_6strsim24HybridGrowingHashmapCharNtBJ_5RowIdEEBJ_.exit67
    i64 0, label %_RINvNtCsjMrxcFdYDNN_4core3ptr13drop_in_placeINtCs6KJnav5oeQt_6strsim24HybridGrowingHashmapCharNtBJ_5RowIdEEBJ_.exit67
  ]

bb2.i.i.i4.i.i.i.i65:                             ; preds = %bb24
  %43 = getelementptr inbounds nuw i8, ptr %last_row_id, i64 8
  %last_row_id.val41 = load ptr, ptr %43, align 8, !nonnull !17, !noundef !17
  %alloc_size.i.i.i.i5.i.i.i.i66 = shl nuw i64 %last_row_id.val, 4
; call __rustc::__rust_dealloc
  tail call void @_RNvCsKhRCbHf33p_7___rustc14___rust_dealloc(ptr noundef nonnull %last_row_id.val41, i64 noundef %alloc_size.i.i.i.i5.i.i.i.i66, i64 noundef range(i64 1, -9223372036854775807) 8) #23
  br label %_RINvNtCsjMrxcFdYDNN_4core3ptr13drop_in_placeINtCs6KJnav5oeQt_6strsim24HybridGrowingHashmapCharNtBJ_5RowIdEEBJ_.exit67

_RINvNtCsjMrxcFdYDNN_4core3ptr13drop_in_placeINtCs6KJnav5oeQt_6strsim24HybridGrowingHashmapCharNtBJ_5RowIdEEBJ_.exit67: ; preds = %bb24, %bb24, %bb2.i.i.i4.i.i.i.i65
  call void @llvm.lifetime.end.p0(i64 2088, ptr nonnull %last_row_id)
  ret i64 %_80

panic7:                                           ; preds = %bb43
; invoke core::panicking::panic_bounds_check
  invoke void @_RNvNtCsjMrxcFdYDNN_4core9panicking18panic_bounds_check(i64 noundef 1, i64 noundef %_4.sroa.0.0.copyload.i.i.i.2.i.i, ptr noalias noundef readonly align 8 captures(address, read_provenance) dereferenceable(24) @alloc_62d10971df7d5a4785f495974ef28733) #24
          to label %unreachable unwind label %cleanup6.loopexit.split-lp

bb7:                                              ; preds = %bb43
  %44 = inttoptr i64 %_4.sroa.0.0.copyload.i.i.i.1.i.i to ptr
  %_28 = getelementptr inbounds nuw i8, ptr %44, i64 8
  %45 = load i64, ptr %_28, align 8, !noundef !17
  store i64 %_8.0.i178, ptr %_28, align 8
  br i1 %_6.i.i.not.i.i70380, label %bb48, label %bb14.i.i.i71.lr.ph

bb14.i.i.i71.lr.ph:                               ; preds = %bb7
  %46 = load i64, ptr %last_row_id, align 8, !range !45
  %.not.i135 = icmp eq i64 %46, -9223372036854775808
  %.val.i.i = load ptr, ptr %29, align 8
  %.val1.i.i = load i64, ptr %30, align 8
  %_5.i = load i32, ptr %_1.sroa.8.0._0.sroa_idx.i, align 8
  %_4.i146 = sext i32 %_5.i to i64
  %_135 = load i64, ptr %31, align 8
  %_136 = load ptr, ptr %32, align 8, !nonnull !17
  %47 = tail call i64 @llvm.usub.sat.i64(i64 %r.sroa.15.0389, i64 1)
  %48 = tail call i64 @llvm.usub.sat.i64(i64 %r.sroa.15.0389, i64 2)
  %49 = add i64 %_4.sroa.0.0.copyload.i.i.i.2.i.i, -2
  br label %bb14.i.i.i71

bb14.i.i.i71:                                     ; preds = %bb14.i.i.i71.lr.ph, %bb61
  %last_col_id.sroa.0.0385 = phi i64 [ -1, %bb14.i.i.i71.lr.ph ], [ %last_col_id.sroa.0.1, %bb61 ]
  %t.sroa.0.0384 = phi i64 [ %max_val, %bb14.i.i.i71.lr.ph ], [ %t.sroa.0.1, %bb61 ]
  %last_i2l1.sroa.0.0383 = phi i64 [ %45, %bb14.i.i.i71.lr.ph ], [ %109, %bb61 ]
  %iter1.sroa.10.0382 = phi i64 [ 0, %bb14.i.i.i71.lr.ph ], [ %_8.0.i88192, %bb61 ]
  %iter1.sroa.0.0381 = phi ptr [ %0, %bb14.i.i.i71.lr.ph ], [ %iter1.sroa.0.1190, %bb61 ]
  %_16.i.i.i.i72 = getelementptr inbounds nuw i8, ptr %iter1.sroa.0.0381, i64 1
  %x.i.i.i73 = load i8, ptr %iter1.sroa.0.0381, align 1, !noalias !103, !noundef !17
  %_6.i.i.i74 = icmp sgt i8 %x.i.i.i73, -1
  br i1 %_6.i.i.i74, label %bb3.i.i.i112, label %bb4.i.i.i75

bb4.i.i.i75:                                      ; preds = %bb14.i.i.i71
  %_30.i.i.i76 = and i8 %x.i.i.i73, 31
  %init.i.i.i77 = zext nneg i8 %_30.i.i.i76 to i32
  %_6.i10.i.i.i78 = icmp ne ptr %_16.i.i.i.i72, %1
  tail call void @llvm.assume(i1 %_6.i10.i.i.i78)
  %_16.i12.i.i.i79 = getelementptr inbounds nuw i8, ptr %iter1.sroa.0.0381, i64 2
  %y.i.i.i80 = load i8, ptr %_16.i.i.i.i72, align 1, !noalias !103, !noundef !17
  %_33.i.i.i81 = shl nuw nsw i32 %init.i.i.i77, 6
  %_35.i.i.i82 = and i8 %y.i.i.i80, 63
  %_34.i.i.i83 = zext nneg i8 %_35.i.i.i82 to i32
  %50 = or disjoint i32 %_33.i.i.i81, %_34.i.i.i83
  %_13.i.i.i84 = icmp samesign ugt i8 %x.i.i.i73, -33
  br i1 %_13.i.i.i84, label %bb6.i.i.i91, label %bb49

bb3.i.i.i112:                                     ; preds = %bb14.i.i.i71
  %_7.i.i.i113 = zext nneg i8 %x.i.i.i73 to i32
  br label %bb49

bb6.i.i.i91:                                      ; preds = %bb4.i.i.i75
  %_6.i17.i.i.i92 = icmp ne ptr %_16.i12.i.i.i79, %1
  tail call void @llvm.assume(i1 %_6.i17.i.i.i92)
  %_16.i19.i.i.i93 = getelementptr inbounds nuw i8, ptr %iter1.sroa.0.0381, i64 3
  %z.i.i.i94 = load i8, ptr %_16.i12.i.i.i79, align 1, !noalias !103, !noundef !17
  %_38.i.i.i95 = shl nuw nsw i32 %_34.i.i.i83, 6
  %_40.i.i.i96 = and i8 %z.i.i.i94, 63
  %_39.i.i.i97 = zext nneg i8 %_40.i.i.i96 to i32
  %y_z.i.i.i98 = or disjoint i32 %_38.i.i.i95, %_39.i.i.i97
  %_20.i.i.i99 = shl nuw nsw i32 %init.i.i.i77, 12
  %51 = or disjoint i32 %y_z.i.i.i98, %_20.i.i.i99
  %_21.i.i.i100 = icmp samesign ugt i8 %x.i.i.i73, -17
  br i1 %_21.i.i.i100, label %_RNvXNtNtCsjMrxcFdYDNN_4core3str4iterNtB2_5CharsNtNtNtNtB6_4iter6traits8iterator8Iterator4next.exit.i101, label %bb49

_RNvXNtNtCsjMrxcFdYDNN_4core3str4iterNtB2_5CharsNtNtNtNtB6_4iter6traits8iterator8Iterator4next.exit.i101: ; preds = %bb6.i.i.i91
  %_6.i24.i.i.i102 = icmp ne ptr %_16.i19.i.i.i93, %1
  tail call void @llvm.assume(i1 %_6.i24.i.i.i102)
  %w.i.i.i104 = load i8, ptr %_16.i19.i.i.i93, align 1, !noalias !103, !noundef !17
  %_26.i.i.i105 = shl nuw nsw i32 %init.i.i.i77, 18
  %_25.i.i.i106 = and i32 %_26.i.i.i105, 1835008
  %_43.i.i.i107 = shl nuw nsw i32 %y_z.i.i.i98, 6
  %_45.i.i.i108 = and i8 %w.i.i.i104, 63
  %_44.i.i.i109 = zext nneg i8 %_45.i.i.i108 to i32
  %_27.i.i.i110 = or disjoint i32 %_43.i.i.i107, %_44.i.i.i109
  %52 = or disjoint i32 %_27.i.i.i110, %_25.i.i.i106
  %.not.i111 = icmp eq i32 %52, 1114112
  br i1 %.not.i111, label %bb48, label %bb47

cleanup9:                                         ; preds = %panic17.invoke, %panic2.i.invoke
  %53 = landingpad { ptr, i32 }
          cleanup
  br label %bb29

bb47:                                             ; preds = %_RNvXNtNtCsjMrxcFdYDNN_4core3str4iterNtB2_5CharsNtNtNtNtB6_4iter6traits8iterator8Iterator4next.exit.i101
  %_16.i26.i.i.i103 = getelementptr inbounds nuw i8, ptr %iter1.sroa.0.0381, i64 4
  br label %bb49

bb49:                                             ; preds = %bb3.i.i.i112, %bb6.i.i.i91, %bb4.i.i.i75, %bb47
  %spec.select.i5.i86191 = phi i32 [ %52, %bb47 ], [ %50, %bb4.i.i.i75 ], [ %51, %bb6.i.i.i91 ], [ %_7.i.i.i113, %bb3.i.i.i112 ]
  %iter1.sroa.0.1190 = phi ptr [ %_16.i26.i.i.i103, %bb47 ], [ %_16.i12.i.i.i79, %bb4.i.i.i75 ], [ %_16.i19.i.i.i93, %bb6.i.i.i91 ], [ %_16.i.i.i.i72, %bb3.i.i.i112 ]
  %_8.0.i88192 = add nuw i64 %iter1.sroa.10.0382, 1
  %exitcond.not = icmp eq i64 %iter1.sroa.10.0382, %47
  br i1 %exitcond.not, label %panic17.invoke, label %bb51

bb48:                                             ; preds = %_RNvXNtNtCsjMrxcFdYDNN_4core3str4iterNtB2_5CharsNtNtNtNtB6_4iter6traits8iterator8Iterator4next.exit.i101, %bb61, %bb7
  tail call void @llvm.experimental.noalias.scope.decl(metadata !110)
  %_4.i = icmp samesign ult i32 %spec.select.i5.i177, 256
  br i1 %_4.i, label %bb1.i, label %bb4.i

bb4.i:                                            ; preds = %bb48
  tail call void @llvm.experimental.noalias.scope.decl(metadata !113)
  %54 = load i64, ptr %last_row_id, align 8, !range !45, !alias.scope !116, !noundef !17
  %.not.i.i = icmp eq i64 %54, -9223372036854775808
  br i1 %.not.i.i, label %bb1.i.i, label %start.bb16_crit_edge.i.i

start.bb16_crit_edge.i.i:                         ; preds = %bb4.i
  %_36.pre.i.i = load i64, ptr %30, align 8, !alias.scope !116
  br label %bb16.i.i

bb1.i.i:                                          ; preds = %bb4.i
  tail call void @llvm.experimental.noalias.scope.decl(metadata !117)
  store i32 7, ptr %_1.sroa.8.0._0.sroa_idx.i, align 8, !alias.scope !120
; call __rustc::__rust_no_alloc_shim_is_unstable_v2
  tail call void @_RNvCsKhRCbHf33p_7___rustc35___rust_no_alloc_shim_is_unstable_v2() #23, !noalias !121
; call __rustc::__rust_alloc
  %55 = tail call noundef align 8 dereferenceable_or_null(128) ptr @_RNvCsKhRCbHf33p_7___rustc12___rust_alloc(i64 noundef 128, i64 noundef range(i64 1, 9) 8) #23, !noalias !121
  %56 = icmp eq ptr %55, null
  br i1 %56, label %bb3.i.i.i.i.i123.invoke, label %_RNvMs3_Cs6KJnav5oeQt_6strsimINtB5_18GrowingHashmapCharNtB5_5RowIdE8allocateB5_.exit.i.i

bb3.i.i.i.i.i123.invoke:                          ; preds = %bb6.i.i.i.i.i.i.i, %bb3.i.i.i.i.i.i120, %bb1.i.i
  %57 = phi i64 [ 8, %bb1.i.i ], [ 8, %bb3.i.i.i.i.i.i120 ], [ 0, %bb6.i.i.i.i.i.i.i ]
  %58 = phi i64 [ 128, %bb1.i.i ], [ %new_size2.i.i.i.i.i.i.i, %bb3.i.i.i.i.i.i120 ], [ undef, %bb6.i.i.i.i.i.i.i ]
; invoke alloc::raw_vec::handle_error
  invoke void @_RNvNtCsdJPVW0sQgAG_5alloc7raw_vec12handle_error(i64 noundef %57, i64 %58) #24
          to label %bb3.i.i.i.i.i123.cont unwind label %cleanup6.loopexit.split-lp

bb3.i.i.i.i.i123.cont:                            ; preds = %bb3.i.i.i.i.i123.invoke
  unreachable

_RNvMs3_Cs6KJnav5oeQt_6strsimINtB5_18GrowingHashmapCharNtB5_5RowIdE8allocateB5_.exit.i.i: ; preds = %bb1.i.i
  store i64 -1, ptr %55, align 8, !noalias !126
  %59 = getelementptr inbounds nuw i8, ptr %55, i64 8
  store i32 0, ptr %59, align 8, !noalias !126
  %_15.i.i.i.i.i = getelementptr inbounds nuw i8, ptr %55, i64 16
  store i64 -1, ptr %_15.i.i.i.i.i, align 8, !noalias !126
  %60 = getelementptr inbounds nuw i8, ptr %55, i64 24
  store i32 0, ptr %60, align 8, !noalias !126
  %_15.i.i.1.i.i.i = getelementptr inbounds nuw i8, ptr %55, i64 32
  store i64 -1, ptr %_15.i.i.1.i.i.i, align 8, !noalias !126
  %61 = getelementptr inbounds nuw i8, ptr %55, i64 40
  store i32 0, ptr %61, align 8, !noalias !126
  %_15.i.i.2.i.i.i = getelementptr inbounds nuw i8, ptr %55, i64 48
  store i64 -1, ptr %_15.i.i.2.i.i.i, align 8, !noalias !126
  %62 = getelementptr inbounds nuw i8, ptr %55, i64 56
  store i32 0, ptr %62, align 8, !noalias !126
  %_15.i.i.3.i.i.i = getelementptr inbounds nuw i8, ptr %55, i64 64
  store i64 -1, ptr %_15.i.i.3.i.i.i, align 8, !noalias !126
  %63 = getelementptr inbounds nuw i8, ptr %55, i64 72
  store i32 0, ptr %63, align 8, !noalias !126
  %_15.i.i.4.i.i.i = getelementptr inbounds nuw i8, ptr %55, i64 80
  store i64 -1, ptr %_15.i.i.4.i.i.i, align 8, !noalias !126
  %64 = getelementptr inbounds nuw i8, ptr %55, i64 88
  store i32 0, ptr %64, align 8, !noalias !126
  %_15.i.i.5.i.i.i = getelementptr inbounds nuw i8, ptr %55, i64 96
  store i64 -1, ptr %_15.i.i.5.i.i.i, align 8, !noalias !126
  %65 = getelementptr inbounds nuw i8, ptr %55, i64 104
  store i32 0, ptr %65, align 8, !noalias !126
  %_15.i.i.6.i.i.i = getelementptr inbounds nuw i8, ptr %55, i64 112
  store i64 -1, ptr %_15.i.i.6.i.i.i, align 8, !noalias !126
  %66 = getelementptr inbounds nuw i8, ptr %55, i64 120
  store i32 0, ptr %66, align 8, !noalias !126
  store i64 8, ptr %last_row_id, align 8, !alias.scope !120
  store ptr %55, ptr %29, align 8, !alias.scope !120
  store i64 8, ptr %30, align 8, !alias.scope !120
  br label %bb16.i.i

bb16.i.i:                                         ; preds = %_RNvMs3_Cs6KJnav5oeQt_6strsimINtB5_18GrowingHashmapCharNtB5_5RowIdE8allocateB5_.exit.i.i, %start.bb16_crit_edge.i.i
  %_36.i.i = phi i64 [ 8, %_RNvMs3_Cs6KJnav5oeQt_6strsimINtB5_18GrowingHashmapCharNtB5_5RowIdE8allocateB5_.exit.i.i ], [ %_36.pre.i.i, %start.bb16_crit_edge.i.i ]
  %67 = phi i64 [ 8, %_RNvMs3_Cs6KJnav5oeQt_6strsimINtB5_18GrowingHashmapCharNtB5_5RowIdE8allocateB5_.exit.i.i ], [ %54, %start.bb16_crit_edge.i.i ]
; invoke <strsim::GrowingHashmapChar<strsim::RowId>>::lookup
  %68 = invoke fastcc noundef i64 @_RNvMs3_Cs6KJnav5oeQt_6strsimINtB5_18GrowingHashmapCharNtB5_5RowIdE6lookupB5_(ptr noalias noundef nonnull readonly align 8 captures(address, read_provenance) dereferenceable(2088) %last_row_id, i32 noundef range(i32 256, 1114112) %spec.select.i5.i177)
          to label %.noexc125 unwind label %cleanup6.loopexit

.noexc125:                                        ; preds = %bb16.i.i
  %_38.i.i = icmp ult i64 %68, %_36.i.i
  br i1 %_38.i.i, label %bb17.i.i, label %panic.i.i.invoke

bb17.i.i:                                         ; preds = %.noexc125
  %_37.i.i = load ptr, ptr %29, align 8, !alias.scope !116, !nonnull !17, !noundef !17
  %_8.i.i = getelementptr inbounds nuw %"GrowingHashmapMapElemChar<RowId>", ptr %_37.i.i, i64 %68
  %_8.val.i.i = load i64, ptr %_8.i.i, align 8, !noalias !116, !noundef !17
  %_0.i.i.i = icmp eq i64 %_8.val.i.i, -1
  br i1 %_0.i.i.i, label %bb6.i.i117, label %bb19.i.i

panic.i.i.invoke:                                 ; preds = %bb19.i.i, %.noexc125
  %69 = phi i64 [ %68, %.noexc125 ], [ %i.sroa.0.0.i.i, %bb19.i.i ]
  %70 = phi i64 [ %_36.i.i, %.noexc125 ], [ %_45.i.i, %bb19.i.i ]
  %71 = phi ptr [ @alloc_96408fa515ac8b1e77c68a6bc3e8f856, %.noexc125 ], [ @alloc_caa5cd3ec5b4a333d6ac178e6b813739, %bb19.i.i ]
; invoke core::panicking::panic_bounds_check
  invoke void @_RNvNtCsjMrxcFdYDNN_4core9panicking18panic_bounds_check(i64 noundef %69, i64 noundef %70, ptr noalias noundef readonly align 8 captures(address, read_provenance) dereferenceable(24) %71) #25
          to label %panic.i.i.cont unwind label %cleanup6.loopexit.split-lp

panic.i.i.cont:                                   ; preds = %panic.i.i.invoke
  unreachable

bb6.i.i117:                                       ; preds = %bb17.i.i
  %72 = load i32, ptr %_1.sroa.7.0._0.sroa_idx.i, align 4, !alias.scope !116, !noundef !17
  %73 = add i32 %72, 1
  store i32 %73, ptr %_1.sroa.7.0._0.sroa_idx.i, align 4, !alias.scope !116
  %_15.i.i = mul i32 %73, 3
  %_19.i.i = load i32, ptr %_1.sroa.8.0._0.sroa_idx.i, align 8, !alias.scope !116, !noundef !17
  %_18.i.i = shl i32 %_19.i.i, 1
  %_17.i.i = add i32 %_18.i.i, 2
  %_14.not.i.i = icmp slt i32 %_15.i.i, %_17.i.i
  %.pre.i.i = load i32, ptr %_1.sroa.62.0._0.sroa_idx.i, align 8, !alias.scope !116
  br i1 %_14.not.i.i, label %bb11.i.i, label %bb7.i.i118

bb7.i.i118:                                       ; preds = %bb6.i.i117
  %_22.i.i = shl i32 %.pre.i.i, 1
  %_21.i.i = add i32 %_22.i.i, 2
  tail call void @llvm.experimental.noalias.scope.decl(metadata !129)
  %74 = add i32 %_19.i.i, 1
  br label %bb1.i.i.i

bb1.i.i.i:                                        ; preds = %bb1.i.i.i, %bb7.i.i118
  %new_size.sroa.0.0.i.i.i = phi i32 [ %74, %bb7.i.i118 ], [ %75, %bb1.i.i.i ]
  %_5.not.i.i.i = icmp sgt i32 %new_size.sroa.0.0.i.i.i, %_21.i.i
  %75 = shl i32 %new_size.sroa.0.0.i.i.i, 1
  br i1 %_5.not.i.i.i, label %bb21.i.i.i, label %bb1.i.i.i

bb21.i.i.i:                                       ; preds = %bb1.i.i.i
  store i32 %.pre.i.i, ptr %_1.sroa.7.0._0.sroa_idx.i, align 4, !alias.scope !132
  %76 = add nsw i32 %new_size.sroa.0.0.i.i.i, -1
  store i32 %76, ptr %_1.sroa.8.0._0.sroa_idx.i, align 8, !alias.scope !132
  %_13.i.i.i119 = sext i32 %new_size.sroa.0.0.i.i.i to i64
  %_23.i.i.i.i.i.i.i = icmp eq i32 %new_size.sroa.0.0.i.i.i, 0
  br i1 %_23.i.i.i.i.i.i.i, label %_RINvXNtNtCsdJPVW0sQgAG_5alloc3vec14spec_from_elemINtCs6KJnav5oeQt_6strsim25GrowingHashmapMapElemCharNtBO_5RowIdENtB3_12SpecFromElem9from_elemNtNtB7_5alloc6GlobalEBO_.exit.i.i.i, label %bb6.i.i.i.i.i.i.i

bb6.i.i.i.i.i.i.i:                                ; preds = %bb21.i.i.i
  %_24.i.i.i.i.i.i.i = add nsw i64 %_13.i.i.i119, -1
  %_27.0.i.i.i.i.i.i.i = shl nsw i64 %_24.i.i.i.i.i.i.i, 4
  %_27.1.i.i.i.i.i.i.i = icmp ugt i64 %_24.i.i.i.i.i.i.i, 1152921504606846975
  %_32.i.i.i.i.i.i.i = icmp ugt i64 %_27.0.i.i.i.i.i.i.i, 9223372036854775800
  %or.cond.i.i.i.i.i.i.i = or i1 %_27.1.i.i.i.i.i.i.i, %_32.i.i.i.i.i.i.i
  br i1 %or.cond.i.i.i.i.i.i.i, label %bb3.i.i.i.i.i123.invoke, label %bb3.i.i.i.i.i.i120, !prof !133

bb3.i.i.i.i.i.i120:                               ; preds = %bb6.i.i.i.i.i.i.i
  %new_size2.i.i.i.i.i.i.i = add nuw nsw i64 %_27.0.i.i.i.i.i.i.i, 16
; call __rustc::__rust_no_alloc_shim_is_unstable_v2
  tail call void @_RNvCsKhRCbHf33p_7___rustc35___rust_no_alloc_shim_is_unstable_v2() #23, !noalias !134
; call __rustc::__rust_alloc
  %77 = tail call noundef align 8 ptr @_RNvCsKhRCbHf33p_7___rustc12___rust_alloc(i64 noundef %new_size2.i.i.i.i.i.i.i, i64 noundef range(i64 1, 9) 8) #23, !noalias !134
  %78 = icmp eq ptr %77, null
  br i1 %78, label %bb3.i.i.i.i.i123.invoke, label %_RNvMs_NtCsdJPVW0sQgAG_5alloc3vecINtB4_3VecINtCs6KJnav5oeQt_6strsim25GrowingHashmapMapElemCharNtBH_5RowIdEE7reserveBH_.exit.i.i.i.i.i

_RNvMs_NtCsdJPVW0sQgAG_5alloc3vecINtB4_3VecINtCs6KJnav5oeQt_6strsim25GrowingHashmapMapElemCharNtBH_5RowIdEE7reserveBH_.exit.i.i.i.i.i: ; preds = %bb3.i.i.i.i.i.i120
  %_2418.i.not.i.i.i.i = icmp eq i32 %new_size.sroa.0.0.i.i.i, 1
  br i1 %_2418.i.not.i.i.i.i, label %bb4.i.i.i.i.i, label %bb3.i4.i.i.i.i

bb4.i.i.i.i.i:                                    ; preds = %bb3.i4.i.i.i.i, %_RNvMs_NtCsdJPVW0sQgAG_5alloc3vecINtB4_3VecINtCs6KJnav5oeQt_6strsim25GrowingHashmapMapElemCharNtBH_5RowIdEE7reserveBH_.exit.i.i.i.i.i
  %ptr.sroa.0.0.lcssa.i9.i.i.i.i = phi ptr [ %77, %_RNvMs_NtCsdJPVW0sQgAG_5alloc3vecINtB4_3VecINtCs6KJnav5oeQt_6strsim25GrowingHashmapMapElemCharNtBH_5RowIdEE7reserveBH_.exit.i.i.i.i.i ], [ %_15.i.i.i7.i.i, %bb3.i4.i.i.i.i ]
  store i64 -1, ptr %ptr.sroa.0.0.lcssa.i9.i.i.i.i, align 8, !noalias !139
  %79 = getelementptr inbounds nuw i8, ptr %ptr.sroa.0.0.lcssa.i9.i.i.i.i, i64 8
  store i32 0, ptr %79, align 8, !noalias !139
  br label %_RINvXNtNtCsdJPVW0sQgAG_5alloc3vec14spec_from_elemINtCs6KJnav5oeQt_6strsim25GrowingHashmapMapElemCharNtBO_5RowIdENtB3_12SpecFromElem9from_elemNtNtB7_5alloc6GlobalEBO_.exit.i.i.i

bb3.i4.i.i.i.i:                                   ; preds = %_RNvMs_NtCsdJPVW0sQgAG_5alloc3vecINtB4_3VecINtCs6KJnav5oeQt_6strsim25GrowingHashmapMapElemCharNtBH_5RowIdEE7reserveBH_.exit.i.i.i.i.i, %bb3.i4.i.i.i.i
  %ptr.sroa.0.021.i.i.i.i.i = phi ptr [ %_15.i.i.i7.i.i, %bb3.i4.i.i.i.i ], [ %77, %_RNvMs_NtCsdJPVW0sQgAG_5alloc3vecINtB4_3VecINtCs6KJnav5oeQt_6strsim25GrowingHashmapMapElemCharNtBH_5RowIdEE7reserveBH_.exit.i.i.i.i.i ]
  %iter.sroa.0.020.i.i.i.i.i = phi i64 [ %_28.i.i.i.i.i, %bb3.i4.i.i.i.i ], [ 1, %_RNvMs_NtCsdJPVW0sQgAG_5alloc3vecINtB4_3VecINtCs6KJnav5oeQt_6strsim25GrowingHashmapMapElemCharNtBH_5RowIdEE7reserveBH_.exit.i.i.i.i.i ]
  %_28.i.i.i.i.i = add nuw i64 %iter.sroa.0.020.i.i.i.i.i, 1
  store i64 -1, ptr %ptr.sroa.0.021.i.i.i.i.i, align 8, !noalias !139
  %80 = getelementptr inbounds nuw i8, ptr %ptr.sroa.0.021.i.i.i.i.i, i64 8
  store i32 0, ptr %80, align 8, !noalias !139
  %_15.i.i.i7.i.i = getelementptr inbounds nuw i8, ptr %ptr.sroa.0.021.i.i.i.i.i, i64 16
  %exitcond.not.i.i.i.i.i = icmp eq i64 %_28.i.i.i.i.i, %_13.i.i.i119
  br i1 %exitcond.not.i.i.i.i.i, label %bb4.i.i.i.i.i, label %bb3.i4.i.i.i.i

_RINvXNtNtCsdJPVW0sQgAG_5alloc3vec14spec_from_elemINtCs6KJnav5oeQt_6strsim25GrowingHashmapMapElemCharNtBO_5RowIdENtB3_12SpecFromElem9from_elemNtNtB7_5alloc6GlobalEBO_.exit.i.i.i: ; preds = %bb4.i.i.i.i.i, %bb21.i.i.i
  %_4.sroa.10.0.i14.i.i.i.i = phi ptr [ %77, %bb4.i.i.i.i.i ], [ inttoptr (i64 8 to ptr), %bb21.i.i.i ]
  store i64 %_13.i.i.i119, ptr %last_row_id, align 8, !alias.scope !132
  store ptr %_4.sroa.10.0.i14.i.i.i.i, ptr %29, align 8, !alias.scope !132
  store i64 %_13.i.i.i119, ptr %30, align 8, !alias.scope !132
  %_48.i.i.i = icmp ult i64 %_36.i.i, 576460752303423488
  tail call void @llvm.assume(i1 %_48.i.i.i)
  %_41.idx.i.i.i = shl nuw nsw i64 %_36.i.i, 4
  %_41.i.i.i = getelementptr inbounds nuw i8, ptr %_37.i.i, i64 %_41.idx.i.i.i
  br label %bb9.i.i.i

cleanup.loopexit.i.i.i:                           ; preds = %bb10.i.i.i122
  %lpad.loopexit.i.i.i = landingpad { ptr, i32 }
          cleanup
  br label %cleanup.i.i.i

cleanup.loopexit.split-lp.i.i.i:                  ; preds = %panic.i.i.i
  %lpad.loopexit.split-lp.i.i.i = landingpad { ptr, i32 }
          cleanup
  br label %cleanup.i.i.i

cleanup.i.i.i:                                    ; preds = %cleanup.loopexit.split-lp.i.i.i, %cleanup.loopexit.i.i.i
  %lpad.phi.i.i.i = phi { ptr, i32 } [ %lpad.loopexit.i.i.i, %cleanup.loopexit.i.i.i ], [ %lpad.loopexit.split-lp.i.i.i, %cleanup.loopexit.split-lp.i.i.i ]
  %81 = icmp eq i64 %67, 0
  br i1 %81, label %bb29, label %bb2.i.i.i.i.i4.i.i.i.i.i

bb2.i.i.i.i.i4.i.i.i.i.i:                         ; preds = %cleanup.i.i.i
  %alloc_size.i.i.i.i.i.i6.i.i.i.i.i = shl nuw i64 %67, 4
; call __rustc::__rust_dealloc
  tail call void @_RNvCsKhRCbHf33p_7___rustc14___rust_dealloc(ptr noundef nonnull %_37.i.i, i64 noundef %alloc_size.i.i.i.i.i.i6.i.i.i.i.i, i64 noundef range(i64 1, -9223372036854775807) 8) #23, !noalias !142
  br label %bb29

bb16.i.i.i:                                       ; preds = %bb33.i.i.i, %bb15.i.i.i
  %82 = icmp eq i64 %67, 0
  br i1 %82, label %_RNvMs3_Cs6KJnav5oeQt_6strsimINtB5_18GrowingHashmapCharNtB5_5RowIdE4growB5_.exit.i.i, label %bb2.i.i.i.i.i4.i.i10.i.i.i

bb2.i.i.i.i.i4.i.i10.i.i.i:                       ; preds = %bb16.i.i.i
  %alloc_size.i.i.i.i.i.i6.i.i11.i.i.i = shl nuw i64 %67, 4
; call __rustc::__rust_dealloc
  tail call void @_RNvCsKhRCbHf33p_7___rustc14___rust_dealloc(ptr noundef nonnull %_37.i.i, i64 noundef %alloc_size.i.i.i.i.i.i6.i.i11.i.i.i, i64 noundef range(i64 1, -9223372036854775807) 8) #23, !noalias !145
  br label %_RNvMs3_Cs6KJnav5oeQt_6strsimINtB5_18GrowingHashmapCharNtB5_5RowIdE4growB5_.exit.i.i

bb9.i.i.i:                                        ; preds = %bb15.i.i.i, %_RINvXNtNtCsdJPVW0sQgAG_5alloc3vec14spec_from_elemINtCs6KJnav5oeQt_6strsim25GrowingHashmapMapElemCharNtBO_5RowIdENtB3_12SpecFromElem9from_elemNtNtB7_5alloc6GlobalEBO_.exit.i.i.i
  %iter.sroa.5.022.i.i.i = phi ptr [ %_23.i.i.i.i121, %bb15.i.i.i ], [ %_37.i.i, %_RINvXNtNtCsdJPVW0sQgAG_5alloc3vec14spec_from_elemINtCs6KJnav5oeQt_6strsim25GrowingHashmapMapElemCharNtBO_5RowIdENtB3_12SpecFromElem9from_elemNtNtB7_5alloc6GlobalEBO_.exit.i.i.i ]
  %83 = phi i32 [ %85, %bb15.i.i.i ], [ %.pre.i.i, %_RINvXNtNtCsdJPVW0sQgAG_5alloc3vec14spec_from_elemINtCs6KJnav5oeQt_6strsim25GrowingHashmapMapElemCharNtBO_5RowIdENtB3_12SpecFromElem9from_elemNtNtB7_5alloc6GlobalEBO_.exit.i.i.i ]
  %_23.i.i.i.i121 = getelementptr inbounds nuw i8, ptr %iter.sroa.5.022.i.i.i, i64 16
  %_17.0.i.i.i.i = load i64, ptr %iter.sroa.5.022.i.i.i, align 8, !noalias !148, !noundef !17
  %84 = getelementptr inbounds nuw i8, ptr %iter.sroa.5.022.i.i.i, i64 8
  %_17.1.i.i.i.i = load i32, ptr %84, align 8, !noalias !148, !noundef !17
  %_0.i.i.not.i.i.i = icmp eq i64 %_17.0.i.i.i.i, -1
  br i1 %_0.i.i.not.i.i.i, label %bb15.i.i.i, label %bb10.i.i.i122

bb10.i.i.i122:                                    ; preds = %bb9.i.i.i
; invoke <strsim::GrowingHashmapChar<strsim::RowId>>::lookup
  %j.i.i.i = invoke fastcc noundef i64 @_RNvMs3_Cs6KJnav5oeQt_6strsimINtB5_18GrowingHashmapCharNtB5_5RowIdE6lookupB5_(ptr noalias noundef nonnull readonly align 8 captures(address, read_provenance) dereferenceable(2088) %last_row_id, i32 noundef %_17.1.i.i.i.i)
          to label %bb32.i.i.i unwind label %cleanup.loopexit.i.i.i

bb15.i.i.i:                                       ; preds = %bb33.i.i.i, %bb9.i.i.i
  %85 = phi i32 [ %83, %bb9.i.i.i ], [ %87, %bb33.i.i.i ]
  %_9.i.i.i.i = icmp eq ptr %_23.i.i.i.i121, %_41.i.i.i
  br i1 %_9.i.i.i.i, label %bb16.i.i.i, label %bb9.i.i.i

bb32.i.i.i:                                       ; preds = %bb10.i.i.i122
  %_57.i.i.i = icmp ult i64 %j.i.i.i, %_13.i.i.i119
  br i1 %_57.i.i.i, label %bb33.i.i.i, label %panic.i.i.i

unreachable.i.i.i:                                ; preds = %panic.i.i.i
  unreachable

bb33.i.i.i:                                       ; preds = %bb32.i.i.i
  %new_elem.i.i.i = getelementptr inbounds nuw %"GrowingHashmapMapElemChar<RowId>", ptr %_4.sroa.10.0.i14.i.i.i.i, i64 %j.i.i.i
  %86 = getelementptr inbounds nuw i8, ptr %new_elem.i.i.i, i64 8
  store i32 %_17.1.i.i.i.i, ptr %86, align 8, !noalias !132
  store i64 %_17.0.i.i.i.i, ptr %new_elem.i.i.i, align 8, !noalias !132
  %87 = add i32 %83, -1
  store i32 %87, ptr %_1.sroa.62.0._0.sroa_idx.i, align 8, !alias.scope !132
  %88 = icmp eq i32 %87, 0
  br i1 %88, label %bb16.i.i.i, label %bb15.i.i.i

panic.i.i.i:                                      ; preds = %bb32.i.i.i
; invoke core::panicking::panic_bounds_check
  invoke void @_RNvNtCsjMrxcFdYDNN_4core9panicking18panic_bounds_check(i64 noundef %j.i.i.i, i64 noundef %_13.i.i.i119, ptr noalias noundef readonly align 8 captures(address, read_provenance) dereferenceable(24) @alloc_1c02a211ff8957e465458a51c31a81de) #24
          to label %unreachable.i.i.i unwind label %cleanup.loopexit.split-lp.i.i.i, !noalias !132

_RNvMs3_Cs6KJnav5oeQt_6strsimINtB5_18GrowingHashmapCharNtB5_5RowIdE4growB5_.exit.i.i: ; preds = %bb2.i.i.i.i.i4.i.i10.i.i.i, %bb16.i.i.i
  store i32 %.pre.i.i, ptr %_1.sroa.62.0._0.sroa_idx.i, align 8, !alias.scope !132
; invoke <strsim::GrowingHashmapChar<strsim::RowId>>::lookup
  %89 = invoke fastcc noundef i64 @_RNvMs3_Cs6KJnav5oeQt_6strsimINtB5_18GrowingHashmapCharNtB5_5RowIdE6lookupB5_(ptr noalias noundef nonnull readonly align 8 captures(address, read_provenance) dereferenceable(2088) %last_row_id, i32 noundef range(i32 256, 1114112) %spec.select.i5.i177)
          to label %bb11.i.i unwind label %cleanup6.loopexit

bb11.i.i:                                         ; preds = %_RNvMs3_Cs6KJnav5oeQt_6strsimINtB5_18GrowingHashmapCharNtB5_5RowIdE4growB5_.exit.i.i, %bb6.i.i117
  %_4614.i.i = phi ptr [ %_37.i.i, %bb6.i.i117 ], [ %_4.sroa.10.0.i14.i.i.i.i, %_RNvMs3_Cs6KJnav5oeQt_6strsimINtB5_18GrowingHashmapCharNtB5_5RowIdE4growB5_.exit.i.i ]
  %_4512.i.i = phi i64 [ %_36.i.i, %bb6.i.i117 ], [ %_13.i.i.i119, %_RNvMs3_Cs6KJnav5oeQt_6strsimINtB5_18GrowingHashmapCharNtB5_5RowIdE4growB5_.exit.i.i ]
  %i.sroa.0.1.i.i = phi i64 [ %68, %bb6.i.i117 ], [ %89, %_RNvMs3_Cs6KJnav5oeQt_6strsimINtB5_18GrowingHashmapCharNtB5_5RowIdE4growB5_.exit.i.i ]
  %90 = add i32 %.pre.i.i, 1
  store i32 %90, ptr %_1.sroa.62.0._0.sroa_idx.i, align 8, !alias.scope !116
  br label %bb19.i.i

bb19.i.i:                                         ; preds = %bb11.i.i, %bb17.i.i
  %_46.i.i = phi ptr [ %_4614.i.i, %bb11.i.i ], [ %_37.i.i, %bb17.i.i ]
  %_45.i.i = phi i64 [ %_4512.i.i, %bb11.i.i ], [ %_36.i.i, %bb17.i.i ]
  %i.sroa.0.0.i.i = phi i64 [ %i.sroa.0.1.i.i, %bb11.i.i ], [ %68, %bb17.i.i ]
  %_47.i.i = icmp ult i64 %i.sroa.0.0.i.i, %_45.i.i
  br i1 %_47.i.i, label %_RNvMs3_Cs6KJnav5oeQt_6strsimINtB5_18GrowingHashmapCharNtB5_5RowIdE7get_mutB5_.exit.i, label %panic.i.i.invoke

_RNvMs3_Cs6KJnav5oeQt_6strsimINtB5_18GrowingHashmapCharNtB5_5RowIdE7get_mutB5_.exit.i: ; preds = %bb19.i.i
  %elem.i.i = getelementptr inbounds nuw %"GrowingHashmapMapElemChar<RowId>", ptr %_46.i.i, i64 %i.sroa.0.0.i.i
  %91 = getelementptr inbounds nuw i8, ptr %elem.i.i, i64 8
  store i32 %spec.select.i5.i177, ptr %91, align 8, !noalias !116
  br label %bb20

bb1.i:                                            ; preds = %bb48
  %_11.i = zext nneg i32 %spec.select.i5.i177 to i64
  %92 = getelementptr inbounds nuw i64, ptr %2, i64 %_11.i
  br label %bb20

bb20:                                             ; preds = %bb1.i, %_RNvMs3_Cs6KJnav5oeQt_6strsimINtB5_18GrowingHashmapCharNtB5_5RowIdE7get_mutB5_.exit.i
  %_0.sroa.0.0.i116 = phi ptr [ %92, %bb1.i ], [ %elem.i.i, %_RNvMs3_Cs6KJnav5oeQt_6strsimINtB5_18GrowingHashmapCharNtB5_5RowIdE7get_mutB5_.exit.i ]
  store i64 %_8.0.i178, ptr %_0.sroa.0.0.i116, align 8
  %_6.i.i.not.i.i = icmp eq ptr %iter.sroa.0.1176, %s1.1
  br i1 %_6.i.i.not.i.i, label %bb42, label %bb14.i.i.i

bb51:                                             ; preds = %bb49
  %_50 = add nuw i64 %iter1.sroa.10.0382, 2
  %exitcond562.not = icmp eq i64 %iter1.sroa.10.0382, %48
  br i1 %exitcond562.not, label %panic17.invoke, label %bb54

bb54:                                             ; preds = %bb51
  %_41 = getelementptr inbounds nuw i64, ptr %36, i64 %_8.0.i88192
  %_40 = load i64, ptr %_41, align 8, !noundef !17
  %_43 = icmp ne i32 %spec.select.i5.i177, %spec.select.i5.i86191
  %_42 = zext i1 %_43 to i64
  %diag = add i64 %_40, %_42
  %_46 = getelementptr inbounds nuw i64, ptr %44, i64 %_8.0.i88192
  %_45 = load i64, ptr %_46, align 8, !noundef !17
  %left = add i64 %_45, 1
  %_49 = getelementptr inbounds nuw i64, ptr %36, i64 %_50
  %_48 = load i64, ptr %_49, align 8, !noundef !17
  %up = add i64 %_48, 1
  %_0.sroa.0.0.i131 = tail call noundef i64 @llvm.smin.i64(i64 %up, i64 %left)
  %_0.sroa.0.0.i132 = tail call noundef i64 @llvm.smin.i64(i64 %_0.sroa.0.0.i131, i64 %diag)
  %_53 = icmp eq i32 %spec.select.i5.i177, %spec.select.i5.i86191
  br i1 %_53, label %bb55, label %bb10

bb10:                                             ; preds = %bb54
  %_4.i133 = icmp samesign ult i32 %spec.select.i5.i86191, 256
  br i1 %_4.i133, label %bb1.i141, label %bb4.i134

bb4.i134:                                         ; preds = %bb10
  br i1 %.not.i135, label %bb11, label %bb19.i

bb19.i:                                           ; preds = %bb4.i134
  %_3.i = zext nneg i32 %spec.select.i5.i86191 to i64
  %93 = and i64 %_4.i146, %_3.i
  %_43.i = icmp ult i64 %93, %.val1.i.i
  br i1 %_43.i, label %bb20.i, label %panic2.i.invoke

bb20.i:                                           ; preds = %bb19.i
  %_10.i = getelementptr inbounds nuw %"GrowingHashmapMapElemChar<RowId>", ptr %.val.i.i, i64 %93
  %_10.val.i = load i64, ptr %_10.i, align 8, !noalias !152, !noundef !17
  %_0.i.i = icmp eq i64 %_10.val.i, -1
  br i1 %_0.i.i, label %_4.i.i.i.noexc, label %bb21.i

bb21.i:                                           ; preds = %bb20.i
  %94 = getelementptr inbounds nuw %"GrowingHashmapMapElemChar<RowId>", ptr %.val.i.i, i64 %93, i32 1
  %_15.i = load i32, ptr %94, align 8, !noalias !152, !noundef !17
  %_14.i = icmp eq i32 %_15.i, %spec.select.i5.i86191
  br i1 %_14.i, label %_4.i.i.i.noexc, label %bb8.preheader.i

bb8.preheader.i:                                  ; preds = %bb21.i
  %_2114.i = mul nuw nsw i64 %93, 5
  %_2016.i = add nuw nsw i64 %_3.i, 1
  %_1917.i = add nuw nsw i64 %_2016.i, %_2114.i
  %95 = and i64 %_1917.i, %_4.i146
  %_5318.i = icmp ult i64 %95, %.val1.i.i
  br i1 %_5318.i, label %bb22.i, label %panic2.i.invoke

bb8.i148:                                         ; preds = %bb23.i
  %96 = lshr i32 %perturb.sroa.0.019.i, 5
  %_21.i = mul i64 %98, 5
  %narrow.i = add nuw nsw i32 %96, 1
  %_20.i = zext nneg i32 %narrow.i to i64
  %_19.i = add i64 %_21.i, %_20.i
  %97 = and i64 %_19.i, %_4.i146
  %_53.i = icmp ult i64 %97, %.val1.i.i
  br i1 %_53.i, label %bb22.i, label %panic2.i.invoke

bb22.i:                                           ; preds = %bb8.preheader.i, %bb8.i148
  %98 = phi i64 [ %97, %bb8.i148 ], [ %95, %bb8.preheader.i ]
  %perturb.sroa.0.019.i = phi i32 [ %96, %bb8.i148 ], [ %spec.select.i5.i86191, %bb8.preheader.i ]
  %_28.i = getelementptr inbounds nuw %"GrowingHashmapMapElemChar<RowId>", ptr %.val.i.i, i64 %98
  %_28.val.i = load i64, ptr %_28.i, align 8, !noalias !152, !noundef !17
  %_0.i12.i = icmp eq i64 %_28.val.i, -1
  br i1 %_0.i12.i, label %_4.i.i.i.noexc, label %bb23.i

panic2.i.invoke:                                  ; preds = %_4.i.i.i.noexc, %bb8.preheader.i, %bb19.i, %bb8.i148
  %99 = phi i64 [ %97, %bb8.i148 ], [ %i.sroa.0.1.i, %_4.i.i.i.noexc ], [ %95, %bb8.preheader.i ], [ %93, %bb19.i ]
  %100 = phi ptr [ @alloc_0a640bf0e45dbde7c4f1706a4879d5ca, %bb8.i148 ], [ @alloc_713c70d72f94083925b2dbcd729a89c1, %_4.i.i.i.noexc ], [ @alloc_0a640bf0e45dbde7c4f1706a4879d5ca, %bb8.preheader.i ], [ @alloc_d619813ccfd16ab2fd70bc85a627a0cb, %bb19.i ]
; invoke core::panicking::panic_bounds_check
  invoke void @_RNvNtCsjMrxcFdYDNN_4core9panicking18panic_bounds_check(i64 noundef %99, i64 noundef %.val1.i.i, ptr noalias noundef readonly align 8 captures(address, read_provenance) dereferenceable(24) %100) #25
          to label %panic2.i.cont unwind label %cleanup9

panic2.i.cont:                                    ; preds = %panic2.i.invoke
  unreachable

bb23.i:                                           ; preds = %bb22.i
  %101 = getelementptr inbounds nuw %"GrowingHashmapMapElemChar<RowId>", ptr %.val.i.i, i64 %98, i32 1
  %_33.i = load i32, ptr %101, align 8, !noalias !152, !noundef !17
  %_32.i = icmp eq i32 %_33.i, %spec.select.i5.i86191
  br i1 %_32.i, label %_4.i.i.i.noexc, label %bb8.i148

_4.i.i.i.noexc:                                   ; preds = %bb23.i, %bb22.i, %bb21.i, %bb20.i
  %_0.i.i.i139 = phi i64 [ %_10.val.i, %bb21.i ], [ -1, %bb20.i ], [ %_28.val.i, %bb23.i ], [ -1, %bb22.i ]
  %i.sroa.0.1.i = phi i64 [ %93, %bb21.i ], [ %93, %bb20.i ], [ %98, %bb22.i ], [ %98, %bb23.i ]
  %_13.i.i.i137 = icmp ult i64 %i.sroa.0.1.i, %.val1.i.i
  br i1 %_13.i.i.i137, label %bb11, label %panic2.i.invoke

bb1.i141:                                         ; preds = %bb10
  %_12.i = zext nneg i32 %spec.select.i5.i86191 to i64
  %102 = getelementptr inbounds nuw i64, ptr %2, i64 %_12.i
  %103 = load i64, ptr %102, align 8, !alias.scope !155, !noundef !17
  br label %bb11

bb11:                                             ; preds = %_4.i.i.i.noexc, %bb1.i141, %bb4.i134
  %_0.sroa.0.0.i140 = phi i64 [ %103, %bb1.i141 ], [ -1, %bb4.i134 ], [ %_0.i.i.i139, %_4.i.i.i.noexc ]
  %_62 = sub i64 %_8.0.i88192, %last_col_id.sroa.0.0385
  %104 = icmp eq i64 %_62, 1
  br i1 %104, label %bb12, label %bb13

bb12:                                             ; preds = %bb11
  %_137 = icmp ult i64 %_50, %_135
  br i1 %_137, label %bb57, label %panic17.invoke

bb13:                                             ; preds = %bb11
  %_70 = sub i64 %_8.0.i178, %_0.sroa.0.0.i140
  %105 = icmp eq i64 %_70, 1
  br i1 %105, label %bb14, label %bb18

bb57:                                             ; preds = %bb12
  %_66 = getelementptr inbounds nuw i64, ptr %_136, i64 %_50
  %_65 = load i64, ptr %_66, align 8, !noundef !17
  %_67 = sub i64 %_8.0.i178, %_0.sroa.0.0.i140
  %transpose = add i64 %_67, %_65
  %_0.sroa.0.0.i144 = tail call noundef i64 @llvm.smin.i64(i64 %transpose, i64 %_0.sroa.0.0.i132)
  br label %bb18

bb14:                                             ; preds = %bb13
  %transpose14 = add i64 %_62, %t.sroa.0.0384
  %_0.sroa.0.0.i145 = tail call noundef i64 @llvm.smin.i64(i64 %transpose14, i64 %_0.sroa.0.0.i132)
  br label %bb18

bb18:                                             ; preds = %bb14, %bb57, %bb13, %bb56
  %temp.sroa.0.0 = phi i64 [ %_0.sroa.0.0.i132, %bb56 ], [ %_0.sroa.0.0.i132, %bb13 ], [ %_0.sroa.0.0.i144, %bb57 ], [ %_0.sroa.0.0.i145, %bb14 ]
  %t.sroa.0.1 = phi i64 [ %last_i2l1.sroa.0.0383, %bb56 ], [ %t.sroa.0.0384, %bb13 ], [ %t.sroa.0.0384, %bb57 ], [ %t.sroa.0.0384, %bb14 ]
  %last_col_id.sroa.0.1 = phi i64 [ %_8.0.i88192, %bb56 ], [ %last_col_id.sroa.0.0385, %bb13 ], [ %last_col_id.sroa.0.0385, %bb57 ], [ %last_col_id.sroa.0.0385, %bb14 ]
  %exitcond563.not = icmp eq i64 %iter1.sroa.10.0382, %49
  br i1 %exitcond563.not, label %panic17.invoke, label %bb61

bb55:                                             ; preds = %bb54
  %_132 = icmp ult i64 %_50, %_135
  br i1 %_132, label %bb56, label %panic17.invoke

bb56:                                             ; preds = %bb55
  %_55 = getelementptr inbounds nuw i64, ptr %36, i64 %iter1.sroa.10.0382
  %_54 = load i64, ptr %_55, align 8, !noundef !17
  %_57 = getelementptr inbounds nuw i64, ptr %_136, i64 %_50
  store i64 %_54, ptr %_57, align 8
  br label %bb18

panic17.invoke:                                   ; preds = %bb18, %bb55, %bb12, %bb51, %bb49
  %106 = phi i64 [ %_8.0.i88192, %bb49 ], [ %_50, %bb51 ], [ %_50, %bb12 ], [ %_50, %bb55 ], [ %_4.sroa.0.0.copyload.i.i.i.2.i.i, %bb18 ]
  %107 = phi i64 [ %r.sroa.15.0389, %bb49 ], [ %r.sroa.15.0389, %bb51 ], [ %_135, %bb12 ], [ %_135, %bb55 ], [ %_4.sroa.0.0.copyload.i.i.i.2.i.i, %bb18 ]
  %108 = phi ptr [ @alloc_862551a6b5209c91aedf6fe87f92b332, %bb49 ], [ @alloc_8da7b938e9f69bada7a79d2c6e57c2b6, %bb51 ], [ @alloc_6bf673dbe204d5f5608d7daead0841b4, %bb12 ], [ @alloc_6e277f70d633006168d39b714ca85e89, %bb55 ], [ @alloc_b944b20bc9fbafa729d24f8cbad2dd57, %bb18 ]
; invoke core::panicking::panic_bounds_check
  invoke void @_RNvNtCsjMrxcFdYDNN_4core9panicking18panic_bounds_check(i64 noundef %106, i64 noundef %107, ptr noalias noundef readonly align 8 captures(address, read_provenance) dereferenceable(24) %108) #24
          to label %panic17.cont unwind label %cleanup9

panic17.cont:                                     ; preds = %panic17.invoke
  unreachable

bb61:                                             ; preds = %bb18
  %_76 = getelementptr inbounds nuw i64, ptr %44, i64 %_50
  %109 = load i64, ptr %_76, align 8, !noundef !17
  store i64 %temp.sroa.0.0, ptr %_76, align 8
  %_6.i.i.not.i.i70 = icmp eq ptr %iter1.sroa.0.1190, %1
  br i1 %_6.i.i.not.i.i70, label %bb48, label %bb14.i.i.i71

bb34:                                             ; preds = %bb2.i.i.i4.i.i.i.i, %bb32, %bb32
  resume { ptr, i32 } %.pn.pn.pn.pn
}

; <hashbrown::raw::RawTable<((char, char), usize)>>::reserve_rehash::<hashbrown::map::make_hasher<(char, char), usize, std::hash::random::RandomState>::{closure#0}>
; Function Attrs: cold noinline uwtable
define { i64, i64 } @_RINvMs6_NtCsh9QrOU9e3Ke_9hashbrown3rawINtB6_8RawTableTTccEjEE14reserve_rehashNCINvNtB8_3map11make_hasherBQ_jNtNtNtCs5sEH5CPMdak_3std4hash6random11RandomStateE0ECs6KJnav5oeQt_6strsim(ptr noalias noundef align 8 captures(none) dereferenceable(32) %self, i64 noundef %additional, ptr noalias noundef readonly align 8 captures(none) dereferenceable(16) %0, i1 noundef zeroext %fallibility) unnamed_addr #1 personality ptr @rust_eh_personality {
start:
  tail call void @llvm.experimental.noalias.scope.decl(metadata !158)
  %1 = getelementptr inbounds nuw i8, ptr %self, i64 24
  %self1.i = load i64, ptr %1, align 8, !alias.scope !158, !noalias !161, !noundef !17
  %_21.0.i = add i64 %self1.i, %additional
  %_21.1.i = icmp ult i64 %_21.0.i, %self1.i
  br i1 %_21.1.i, label %bb9.i, label %bb11.i, !prof !9

bb11.i:                                           ; preds = %start
  %2 = getelementptr inbounds nuw i8, ptr %self, i64 8
  %3 = load i64, ptr %2, align 8, !alias.scope !158, !noalias !161, !noundef !17
  %_24.i = icmp ult i64 %3, 8
  %_26.i = add i64 %3, 1
  %_255.i = lshr i64 %_26.i, 3
  %4 = mul nuw i64 %_255.i, 7
  %full_capacity.sroa.0.0.i = select i1 %_24.i, i64 %3, i64 %4
  %_146.i = lshr i64 %full_capacity.sroa.0.0.i, 1
  %_13.not.i = icmp ugt i64 %_21.0.i, %_146.i
  br i1 %_13.not.i, label %bb4.i, label %bb2.i

bb9.i:                                            ; preds = %start
; call <hashbrown::raw::Fallibility>::capacity_overflow
  %5 = tail call { i64, i64 } @_RNvMNtCsh9QrOU9e3Ke_9hashbrown3rawNtB2_11Fallibility17capacity_overflow(i1 noundef zeroext %fallibility), !noalias !163
  %_11.0.i = extractvalue { i64, i64 } %5, 0
  %_11.1.i = extractvalue { i64, i64 } %5, 1
  br label %_RINvMsa_NtCsh9QrOU9e3Ke_9hashbrown3rawNtB6_13RawTableInner20reserve_rehash_innerNtNtCsdJPVW0sQgAG_5alloc5alloc6GlobalECs6KJnav5oeQt_6strsim.exit

bb4.i:                                            ; preds = %bb11.i
  %_19.i = add nuw i64 %full_capacity.sroa.0.0.i, 1
  %_0.sroa.0.0.i5 = tail call noundef i64 @llvm.umax.i64(i64 %_19.i, i64 %_21.0.i)
  tail call void @llvm.experimental.noalias.scope.decl(metadata !164)
  %_6.i.i = icmp ult i64 %_0.sroa.0.0.i5, 15
  br i1 %_6.i.i, label %bb10.thread.i, label %bb13.i.i7

bb13.i.i7:                                        ; preds = %bb4.i
  %_30.1.i.i = icmp ugt i64 %_0.sroa.0.0.i5, 2305843009213693951
  br i1 %_30.1.i.i, label %bb9.i9, label %bb10.i, !prof !9

bb10.thread.i:                                    ; preds = %bb4.i
  %_13.i.i = icmp samesign ult i64 %_0.sroa.0.0.i5, 4
  %6 = and i64 %_0.sroa.0.0.i5, 8
  %..i.i = add nuw nsw i64 %6, 8
  %buckets.sroa.0.0.i.i = select i1 %_13.i.i, i64 4, i64 %..i.i
  br label %bb11.i.i.i

bb10.i:                                           ; preds = %bb13.i.i7
  %_30.0.i.i = shl nuw i64 %_0.sroa.0.0.i5, 3
  %adjusted_cap.i.i = udiv i64 %_30.0.i.i, 7
  %p.i.i = add nsw i64 %adjusted_cap.i.i, -1
  %7 = tail call range(i64 0, 65) i64 @llvm.ctlz.i64(i64 %p.i.i, i1 true)
  %8 = lshr i64 -1, %7
  %9 = add nuw nsw i64 %8, 1
  %_25.1.i.i.i = icmp samesign ugt i64 %8, 1152921504606846974
  br i1 %_25.1.i.i.i, label %bb3.i.i, label %bb11.i.i.i, !prof !167

bb11.i.i.i:                                       ; preds = %bb10.i, %bb10.thread.i
  %_0.sroa.4.0.i.ph8.i = phi i64 [ %buckets.sroa.0.0.i.i, %bb10.thread.i ], [ %9, %bb10.i ]
  %_25.0.i.i.i = shl nuw i64 %_0.sroa.4.0.i.ph8.i, 4
  %rhs5.i.i.i = add nuw nsw i64 %_0.sroa.4.0.i.ph8.i, 8
  %_37.0.i.i.i = add i64 %rhs5.i.i.i, %_25.0.i.i.i
  %_37.1.i.i.i = icmp ult i64 %_37.0.i.i.i, %_25.0.i.i.i
  %_19.i.i.i = icmp ugt i64 %_37.0.i.i.i, 9223372036854775800
  %or.cond.i.i = or i1 %_37.1.i.i.i, %_19.i.i.i
  br i1 %or.cond.i.i, label %bb3.i.i, label %_RNvXs_NtCsdJPVW0sQgAG_5alloc5allocNtB4_6GlobalNtNtCsjMrxcFdYDNN_4core5alloc9Allocator8allocate.exit.i.i, !prof !133

_RNvXs_NtCsdJPVW0sQgAG_5alloc5allocNtB4_6GlobalNtNtCsjMrxcFdYDNN_4core5alloc9Allocator8allocate.exit.i.i: ; preds = %bb11.i.i.i
; call __rustc::__rust_no_alloc_shim_is_unstable_v2
  tail call void @_RNvCsKhRCbHf33p_7___rustc35___rust_no_alloc_shim_is_unstable_v2() #23, !noalias !168
; call __rustc::__rust_alloc
  %10 = tail call noundef align 8 ptr @_RNvCsKhRCbHf33p_7___rustc12___rust_alloc(i64 noundef %_37.0.i.i.i, i64 noundef range(i64 1, -9223372036854775807) 8) #23, !noalias !168
  %11 = icmp eq ptr %10, null
  br i1 %11, label %bb14.i.i8, label %_RINvMsa_NtCsh9QrOU9e3Ke_9hashbrown3rawNtB6_13RawTableInner22fallible_with_capacityNtNtCsdJPVW0sQgAG_5alloc5alloc6GlobalECs6KJnav5oeQt_6strsim.exit

bb3.i.i:                                          ; preds = %bb11.i.i.i, %bb10.i
; call <hashbrown::raw::Fallibility>::capacity_overflow
  %12 = tail call { i64, i64 } @_RNvMNtCsh9QrOU9e3Ke_9hashbrown3rawNtB2_11Fallibility17capacity_overflow(i1 noundef zeroext %fallibility), !noalias !168
  br label %bb11.i.i

bb14.i.i8:                                        ; preds = %_RNvXs_NtCsdJPVW0sQgAG_5alloc5allocNtB4_6GlobalNtNtCsjMrxcFdYDNN_4core5alloc9Allocator8allocate.exit.i.i
; call <hashbrown::raw::Fallibility>::alloc_err
  %13 = tail call { i64, i64 } @_RNvMNtCsh9QrOU9e3Ke_9hashbrown3rawNtB2_11Fallibility9alloc_err(i1 noundef zeroext %fallibility, i64 noundef 8, i64 noundef %_37.0.i.i.i), !noalias !168
  br label %bb11.i.i

bb9.i9:                                           ; preds = %bb13.i.i7
; call <hashbrown::raw::Fallibility>::capacity_overflow
  %14 = tail call { i64, i64 } @_RNvMNtCsh9QrOU9e3Ke_9hashbrown3rawNtB2_11Fallibility17capacity_overflow(i1 noundef zeroext %fallibility), !noalias !173
  br label %bb11.i.i

_RINvMsa_NtCsh9QrOU9e3Ke_9hashbrown3rawNtB6_13RawTableInner22fallible_with_capacityNtNtCsdJPVW0sQgAG_5alloc5alloc6GlobalECs6KJnav5oeQt_6strsim.exit: ; preds = %_RNvXs_NtCsdJPVW0sQgAG_5alloc5allocNtB4_6GlobalNtNtCsjMrxcFdYDNN_4core5alloc9Allocator8allocate.exit.i.i
  %_26.i.i = add nsw i64 %_0.sroa.4.0.i.ph8.i, -1
  %_43.i.i = icmp samesign ult i64 %_26.i.i, 8
  %_447.i.i = lshr i64 %_0.sroa.4.0.i.ph8.i, 3
  %15 = mul nuw nsw i64 %_447.i.i, 7
  %bucket_mask.sroa.0.0.i.i = select i1 %_43.i.i, i64 %_26.i.i, i64 %15
  %ptr.i.i = getelementptr inbounds nuw i8, ptr %10, i64 %_25.0.i.i.i
  tail call void @llvm.memset.p0.i64(ptr noundef nonnull align 8 dereferenceable(1) %ptr.i.i, i8 -1, i64 %rhs5.i.i.i, i1 false), !noalias !173
  %16 = ptrtoint ptr %ptr.i.i to i64
  %invariant.gep = getelementptr i8, ptr %ptr.i.i, i64 8
  %17 = icmp eq i64 %self1.i, 0
  br i1 %17, label %_RINvMsa_NtCsh9QrOU9e3Ke_9hashbrown3rawNtB6_13RawTableInner22fallible_with_capacityNtNtCsdJPVW0sQgAG_5alloc5alloc6GlobalECs6KJnav5oeQt_6strsim.exit.bb4.i.i_crit_edge, label %bb1.i.preheader.lr.ph

_RINvMsa_NtCsh9QrOU9e3Ke_9hashbrown3rawNtB6_13RawTableInner22fallible_with_capacityNtNtCsdJPVW0sQgAG_5alloc5alloc6GlobalECs6KJnav5oeQt_6strsim.exit.bb4.i.i_crit_edge: ; preds = %_RINvMsa_NtCsh9QrOU9e3Ke_9hashbrown3rawNtB6_13RawTableInner22fallible_with_capacityNtNtCsdJPVW0sQgAG_5alloc5alloc6GlobalECs6KJnav5oeQt_6strsim.exit
  %_3.sroa.0.0.copyload.i.i.i.i.i.pre = load i64, ptr %self, align 8, !alias.scope !174, !noalias !177
  %_3.sroa.0.0.copyload.i.i.i.i.i.pre.ptr = inttoptr i64 %_3.sroa.0.0.copyload.i.i.i.i.i.pre to ptr
  br label %bb4.i.i

bb1.i.preheader.lr.ph:                            ; preds = %_RINvMsa_NtCsh9QrOU9e3Ke_9hashbrown3rawNtB6_13RawTableInner22fallible_with_capacityNtNtCsdJPVW0sQgAG_5alloc5alloc6GlobalECs6KJnav5oeQt_6strsim.exit
  %_57.i.i = load ptr, ptr %self, align 8, !alias.scope !179, !noalias !180, !nonnull !17, !noundef !17
  %tmp.sroa.0.0.copyload.i.i = load <8 x i8>, ptr %_57.i.i, align 1, !noalias !182
  %18 = icmp sgt <8 x i8> %tmp.sroa.0.0.copyload.i.i, splat (i8 -1)
  %19 = sext <8 x i1> %18 to <8 x i8>
  %20 = bitcast <8 x i8> %19 to i64
  %_64.i.i = and i64 %20, -9187201950435737472
  %hash_builder.val.i.i = load i64, ptr %0, align 8, !noalias !187, !noundef !17
  %21 = getelementptr inbounds nuw i8, ptr %0, i64 8
  %hash_builder.val1.i.i = load i64, ptr %21, align 8, !noalias !187, !noundef !17
  %22 = xor i64 %hash_builder.val.i.i, 7816392313619706465
  %23 = xor i64 %hash_builder.val1.i.i, 7237128888997146477
  %24 = xor i64 %hash_builder.val.i.i, 8317987319222330741
  %_2.i.i.i.i.i.i.i.i = add i64 %23, %24
  %25 = tail call noundef i64 @llvm.fshl.i64(i64 %23, i64 %23, i64 13)
  %26 = xor i64 %25, %_2.i.i.i.i.i.i.i.i
  %27 = tail call noundef i64 @llvm.fshl.i64(i64 %_2.i.i.i.i.i.i.i.i, i64 %_2.i.i.i.i.i.i.i.i, i64 32)
  %invariant.op46 = add i64 %22, %26
  %28 = tail call noundef i64 @llvm.fshl.i64(i64 %26, i64 %26, i64 17)
  %invariant.op68 = xor i64 %hash_builder.val1.i.i, 8387220255154660723
  br label %bb1.i.preheader

bb11.i.i:                                         ; preds = %bb3.i.i, %bb14.i.i8, %bb9.i9
  %.pn = phi { i64, i64 } [ %14, %bb9.i9 ], [ %13, %bb14.i.i8 ], [ %12, %bb3.i.i ]
  %self3.i.i.sroa.7.033 = extractvalue { i64, i64 } %.pn, 0
  %self3.i.i.sroa.12.034 = extractvalue { i64, i64 } %.pn, 1
  br label %_RINvMsa_NtCsh9QrOU9e3Ke_9hashbrown3rawNtB6_13RawTableInner20reserve_rehash_innerNtNtCsdJPVW0sQgAG_5alloc5alloc6GlobalECs6KJnav5oeQt_6strsim.exit

bb1.i.preheader:                                  ; preds = %bb1.i.preheader.lr.ph, %bb18.i.i
  %iter.i.i.sroa.0.045 = phi ptr [ %_57.i.i, %bb1.i.preheader.lr.ph ], [ %iter.i.i.sroa.0.1.lcssa, %bb18.i.i ]
  %iter.i.i.sroa.5.044 = phi i64 [ %_64.i.i, %bb1.i.preheader.lr.ph ], [ %_32.i, %bb18.i.i ]
  %iter.i.i.sroa.9.043 = phi i64 [ 0, %bb1.i.preheader.lr.ph ], [ %iter.i.i.sroa.9.1.lcssa, %bb18.i.i ]
  %iter.i.i.sroa.13.042 = phi i64 [ %self1.i, %bb1.i.preheader.lr.ph ], [ %40, %bb18.i.i ]
  %.not.i37 = icmp eq i64 %iter.i.i.sroa.5.044, 0
  br i1 %.not.i37, label %self6.i.noexc, label %bb5.i.i

self6.i.noexc:                                    ; preds = %bb1.i.preheader, %self6.i.noexc
  %iter.i.i.sroa.0.139 = phi ptr [ %ptr.i, %self6.i.noexc ], [ %iter.i.i.sroa.0.045, %bb1.i.preheader ]
  %iter.i.i.sroa.9.138 = phi i64 [ %32, %self6.i.noexc ], [ %iter.i.i.sroa.9.043, %bb1.i.preheader ]
  %ptr.i = getelementptr inbounds nuw i8, ptr %iter.i.i.sroa.0.139, i64 8
  %tmp.sroa.0.0.copyload.i.i11 = load <8 x i8>, ptr %ptr.i, align 1, !noalias !191
  %29 = icmp sgt <8 x i8> %tmp.sroa.0.0.copyload.i.i11, splat (i8 -1)
  %30 = sext <8 x i1> %29 to <8 x i8>
  %31 = bitcast <8 x i8> %30 to i64
  %_43.i = and i64 %31, -9187201950435737472
  %32 = add i64 %iter.i.i.sroa.9.138, 8
  %.not.i = icmp eq i64 %_43.i, 0
  br i1 %.not.i, label %self6.i.noexc, label %bb5.i.i

bb4.i.i:                                          ; preds = %bb18.i.i, %_RINvMsa_NtCsh9QrOU9e3Ke_9hashbrown3rawNtB6_13RawTableInner22fallible_with_capacityNtNtCsdJPVW0sQgAG_5alloc5alloc6GlobalECs6KJnav5oeQt_6strsim.exit.bb4.i.i_crit_edge
  %_3.sroa.0.0.copyload.i.i.i.i.i.ptr = phi ptr [ %_3.sroa.0.0.copyload.i.i.i.i.i.pre.ptr, %_RINvMsa_NtCsh9QrOU9e3Ke_9hashbrown3rawNtB6_13RawTableInner22fallible_with_capacityNtNtCsdJPVW0sQgAG_5alloc5alloc6GlobalECs6KJnav5oeQt_6strsim.exit.bb4.i.i_crit_edge ], [ %_57.i.i, %bb18.i.i ]
  %33 = sub i64 %bucket_mask.sroa.0.0.i.i, %self1.i
  store i64 %16, ptr %self, align 8, !alias.scope !174, !noalias !177
  store i64 %_26.i.i, ptr %2, align 8, !alias.scope !196, !noalias !198
  %_11.i.i.2.i.i = getelementptr inbounds nuw i8, ptr %self, i64 16
  store i64 %33, ptr %_11.i.i.2.i.i, align 8, !alias.scope !200, !noalias !202
  %34 = icmp eq i64 %3, 0
  br i1 %34, label %_RINvMsa_NtCsh9QrOU9e3Ke_9hashbrown3rawNtB6_13RawTableInner20reserve_rehash_innerNtNtCsdJPVW0sQgAG_5alloc5alloc6GlobalECs6KJnav5oeQt_6strsim.exit, label %bb2.i.i.i

bb2.i.i.i:                                        ; preds = %bb4.i.i
  %_9.i.i.i = shl i64 %3, 4
  %35 = add i64 %_9.i.i.i, 16
  %_32.0.i.i.i.i = add i64 %_9.i.i.i, 23
  %_32.1.i.i.i.i = icmp uge i64 %_32.0.i.i.i.i, %35
  tail call void @llvm.assume(i1 %_32.1.i.i.i.i)
  %ctrl_offset.i.i.i.i = and i64 %_32.0.i.i.i.i, -16
  %rhs5.i.i.i.i = add i64 %3, 9
  %_37.0.i.i.i.i = add i64 %rhs5.i.i.i.i, %ctrl_offset.i.i.i.i
  %_37.1.i.i.i.i = icmp uge i64 %_37.0.i.i.i.i, %ctrl_offset.i.i.i.i
  %_19.i.i.i.i = icmp ult i64 %_37.0.i.i.i.i, 9223372036854775801
  tail call void @llvm.assume(i1 %_37.1.i.i.i.i)
  tail call void @llvm.assume(i1 %_19.i.i.i.i)
  %36 = icmp ne ptr %_3.sroa.0.0.copyload.i.i.i.i.i.ptr, null
  tail call void @llvm.assume(i1 %36)
  %37 = icmp eq i64 %_37.0.i.i.i.i, 0
  br i1 %37, label %_RINvMsa_NtCsh9QrOU9e3Ke_9hashbrown3rawNtB6_13RawTableInner20reserve_rehash_innerNtNtCsdJPVW0sQgAG_5alloc5alloc6GlobalECs6KJnav5oeQt_6strsim.exit, label %bb1.i1.i.i.i

bb1.i1.i.i.i:                                     ; preds = %bb2.i.i.i
  %_17.i.i.i = sub nsw i64 0, %ctrl_offset.i.i.i.i
  %ptr.i.i.i = getelementptr inbounds i8, ptr %_3.sroa.0.0.copyload.i.i.i.i.i.ptr, i64 %_17.i.i.i
; call __rustc::__rust_dealloc
  tail call void @_RNvCsKhRCbHf33p_7___rustc14___rust_dealloc(ptr noundef nonnull %ptr.i.i.i, i64 noundef %_37.0.i.i.i.i, i64 noundef range(i64 1, -9223372036854775807) 8) #23, !noalias !204
  br label %_RINvMsa_NtCsh9QrOU9e3Ke_9hashbrown3rawNtB6_13RawTableInner20reserve_rehash_innerNtNtCsdJPVW0sQgAG_5alloc5alloc6GlobalECs6KJnav5oeQt_6strsim.exit

bb5.i.i:                                          ; preds = %self6.i.noexc, %bb1.i.preheader
  %iter.i.i.sroa.9.1.lcssa = phi i64 [ %iter.i.i.sroa.9.043, %bb1.i.preheader ], [ %32, %self6.i.noexc ]
  %iter.i.i.sroa.5.1.lcssa = phi i64 [ %iter.i.i.sroa.5.044, %bb1.i.preheader ], [ %_43.i, %self6.i.noexc ]
  %iter.i.i.sroa.0.1.lcssa = phi ptr [ %iter.i.i.sroa.0.045, %bb1.i.preheader ], [ %ptr.i, %self6.i.noexc ]
  %38 = add i64 %iter.i.i.sroa.5.1.lcssa, -1
  %39 = tail call range(i64 0, 65) i64 @llvm.cttz.i64(i64 %iter.i.i.sroa.5.1.lcssa, i1 true)
  %_228.i = lshr i64 %39, 3
  %_32.i = and i64 %38, %iter.i.i.sroa.5.1.lcssa
  %_5.i = add i64 %_228.i, %iter.i.i.sroa.9.1.lcssa
  %40 = add i64 %iter.i.i.sroa.13.042, -1
  %_18.i = sub nsw i64 0, %_5.i
  %41 = getelementptr inbounds { { i32, i32 }, i64 }, ptr %_57.i.i, i64 %_18.i
  %42 = getelementptr inbounds i8, ptr %41, i64 -16
  %.val.i = load i32, ptr %42, align 4, !range !209, !alias.scope !210, !noalias !213, !noundef !17
  %43 = getelementptr i8, ptr %41, i64 -12
  %.val1.i = load i32, ptr %43, align 4, !range !209, !alias.scope !210, !noalias !213, !noundef !17
  %44 = zext nneg i32 %.val1.i to i64
  %.pre.i.i77.i.i.i = zext nneg i32 %.val.i to i64
  %_7.i.i.i.i.i.i.i = shl nuw nsw i64 %44, 32
  %45 = or disjoint i64 %_7.i.i.i.i.i.i.i, %.pre.i.i77.i.i.i
  %.reass57.reass = xor i64 %45, %invariant.op68
  %_5.i33.i.i.i.i.i.i.i = add i64 %.reass57.reass, %22
  %46 = tail call noundef i64 @llvm.fshl.i64(i64 %.reass57.reass, i64 %.reass57.reass, i64 16)
  %47 = xor i64 %_5.i33.i.i.i.i.i.i.i, %46
  %_16.i34.i.i.i.i.i.i.i.reass = add i64 %.reass57.reass, %invariant.op46
  %_19.i35.i.i.i.i.i.i.i = add i64 %47, %27
  %48 = xor i64 %_16.i34.i.i.i.i.i.i.i.reass, %28
  %49 = tail call noundef i64 @llvm.fshl.i64(i64 %47, i64 %47, i64 21)
  %50 = tail call noundef i64 @llvm.fshl.i64(i64 %_16.i34.i.i.i.i.i.i.i.reass, i64 %_16.i34.i.i.i.i.i.i.i.reass, i64 32)
  %51 = xor i64 %_19.i35.i.i.i.i.i.i.i, %45
  %52 = xor i64 %49, %_19.i35.i.i.i.i.i.i.i
  %53 = xor i64 %52, 576460752303423488
  %_2.i.i.i.i.i.i = add i64 %51, %48
  %_5.i.i.i.i.i.i = add i64 %53, %50
  %54 = tail call noundef i64 @llvm.fshl.i64(i64 %48, i64 %48, i64 13)
  %55 = xor i64 %_2.i.i.i.i.i.i, %54
  %56 = tail call noundef i64 @llvm.fshl.i64(i64 %53, i64 %53, i64 16)
  %57 = xor i64 %56, %_5.i.i.i.i.i.i
  %58 = tail call noundef i64 @llvm.fshl.i64(i64 %_2.i.i.i.i.i.i, i64 %_2.i.i.i.i.i.i, i64 32)
  %_16.i.i.i.i.i.i = add i64 %_5.i.i.i.i.i.i, %55
  %_19.i.i.i.i.i.i = add i64 %57, %58
  %59 = tail call noundef i64 @llvm.fshl.i64(i64 %55, i64 %55, i64 17)
  %60 = xor i64 %_16.i.i.i.i.i.i, %59
  %61 = tail call noundef i64 @llvm.fshl.i64(i64 %57, i64 %57, i64 21)
  %62 = xor i64 %61, %_19.i.i.i.i.i.i
  %63 = tail call noundef i64 @llvm.fshl.i64(i64 %_16.i.i.i.i.i.i, i64 %_16.i.i.i.i.i.i, i64 32)
  %64 = xor i64 %_19.i.i.i.i.i.i, 576460752303423488
  %65 = xor i64 %63, 255
  %_2.i3.i.i.i.i.i = add i64 %64, %60
  %_5.i6.i.i.i.i.i = add i64 %62, %65
  %66 = tail call noundef i64 @llvm.fshl.i64(i64 %60, i64 %60, i64 13)
  %67 = xor i64 %_2.i3.i.i.i.i.i, %66
  %68 = tail call noundef i64 @llvm.fshl.i64(i64 %62, i64 %62, i64 16)
  %69 = xor i64 %68, %_5.i6.i.i.i.i.i
  %70 = tail call noundef i64 @llvm.fshl.i64(i64 %_2.i3.i.i.i.i.i, i64 %_2.i3.i.i.i.i.i, i64 32)
  %_16.i7.i.i.i.i.i = add i64 %67, %_5.i6.i.i.i.i.i
  %_19.i8.i.i.i.i.i = add i64 %69, %70
  %71 = tail call noundef i64 @llvm.fshl.i64(i64 %67, i64 %67, i64 17)
  %72 = xor i64 %_16.i7.i.i.i.i.i, %71
  %73 = tail call noundef i64 @llvm.fshl.i64(i64 %69, i64 %69, i64 21)
  %74 = xor i64 %73, %_19.i8.i.i.i.i.i
  %75 = tail call noundef i64 @llvm.fshl.i64(i64 %_16.i7.i.i.i.i.i, i64 %_16.i7.i.i.i.i.i, i64 32)
  %_30.i.i.i.i.i.i = add i64 %72, %_19.i8.i.i.i.i.i
  %_33.i.i.i.i.i.i = add i64 %74, %75
  %76 = tail call noundef i64 @llvm.fshl.i64(i64 %72, i64 %72, i64 13)
  %77 = xor i64 %76, %_30.i.i.i.i.i.i
  %78 = tail call noundef i64 @llvm.fshl.i64(i64 %74, i64 %74, i64 16)
  %79 = xor i64 %78, %_33.i.i.i.i.i.i
  %80 = tail call noundef i64 @llvm.fshl.i64(i64 %_30.i.i.i.i.i.i, i64 %_30.i.i.i.i.i.i, i64 32)
  %_44.i.i.i.i.i.i = add i64 %77, %_33.i.i.i.i.i.i
  %_47.i.i.i.i.i.i = add i64 %79, %80
  %81 = tail call noundef i64 @llvm.fshl.i64(i64 %77, i64 %77, i64 17)
  %82 = xor i64 %81, %_44.i.i.i.i.i.i
  %83 = tail call noundef i64 @llvm.fshl.i64(i64 %79, i64 %79, i64 21)
  %84 = xor i64 %83, %_47.i.i.i.i.i.i
  %85 = tail call noundef i64 @llvm.fshl.i64(i64 %_44.i.i.i.i.i.i, i64 %_44.i.i.i.i.i.i, i64 32)
  %_58.i.i.i.i.i.i = add i64 %82, %_47.i.i.i.i.i.i
  %_61.i.i.i.i.i.i = add i64 %84, %85
  %86 = tail call noundef i64 @llvm.fshl.i64(i64 %82, i64 %82, i64 13)
  %87 = xor i64 %86, %_58.i.i.i.i.i.i
  %88 = tail call noundef i64 @llvm.fshl.i64(i64 %84, i64 %84, i64 16)
  %89 = xor i64 %88, %_61.i.i.i.i.i.i
  %_72.i.i.i.i.i.i = add i64 %87, %_61.i.i.i.i.i.i
  %90 = tail call noundef i64 @llvm.fshl.i64(i64 %87, i64 %87, i64 17)
  %91 = tail call noundef i64 @llvm.fshl.i64(i64 %89, i64 %89, i64 21)
  %92 = tail call noundef i64 @llvm.fshl.i64(i64 %_72.i.i.i.i.i.i, i64 %_72.i.i.i.i.i.i, i64 32)
  %93 = xor i64 %91, %90
  %94 = xor i64 %93, %92
  %_0.i.i.i.i.i = xor i64 %94, %_72.i.i.i.i.i.i
  %probe_seq.sroa.0.01.i = and i64 %_0.i.i.i.i.i, %_26.i.i
  %_182.i = getelementptr inbounds nuw i8, ptr %ptr.i.i, i64 %probe_seq.sroa.0.01.i
  %tmp.sroa.0.0.copyload.i.i3.i = load <8 x i8>, ptr %_182.i, align 1, !noalias !216
  %.lobit.i.i.i4.i = ashr <8 x i8> %tmp.sroa.0.0.copyload.i.i3.i, splat (i8 7)
  %95 = bitcast <8 x i8> %.lobit.i.i.i4.i to i64
  %.not.i.not5.i = icmp eq i64 %95, 0
  br i1 %.not.i.not5.i, label %bb6.i, label %bb9.i13, !prof !221

bb6.i:                                            ; preds = %bb5.i.i, %bb6.i
  %probe_seq.sroa.0.06.i = phi i64 [ %probe_seq.sroa.0.0.i, %bb6.i ], [ %probe_seq.sroa.0.01.i, %bb5.i.i ]
  %96 = phi i64 [ %97, %bb6.i ], [ 0, %bb5.i.i ]
  %97 = add i64 %96, 8
  %98 = add i64 %97, %probe_seq.sroa.0.06.i
  %probe_seq.sroa.0.0.i = and i64 %98, %_26.i.i
  %_18.i15 = getelementptr inbounds nuw i8, ptr %ptr.i.i, i64 %probe_seq.sroa.0.0.i
  %tmp.sroa.0.0.copyload.i.i.i = load <8 x i8>, ptr %_18.i15, align 1, !noalias !216
  %.lobit.i.i.i.i = ashr <8 x i8> %tmp.sroa.0.0.copyload.i.i.i, splat (i8 7)
  %99 = bitcast <8 x i8> %.lobit.i.i.i.i to i64
  %.not.i.not.i = icmp eq i64 %99, 0
  br i1 %.not.i.not.i, label %bb6.i, label %bb9.i13, !prof !222

bb9.i13:                                          ; preds = %bb6.i, %bb5.i.i
  %probe_seq.sroa.0.0.lcssa.i = phi i64 [ %probe_seq.sroa.0.01.i, %bb5.i.i ], [ %probe_seq.sroa.0.0.i, %bb6.i ]
  %.lcssa.i = phi i64 [ %95, %bb5.i.i ], [ %99, %bb6.i ]
  %100 = tail call range(i64 0, 65) i64 @llvm.cttz.i64(i64 %.lcssa.i, i1 true)
  %_187.i.i = lshr i64 %100, 3
  %_10.i.i = add nuw nsw i64 %_187.i.i, %probe_seq.sroa.0.0.lcssa.i
  %_9.i.i = and i64 %_10.i.i, %_26.i.i
  %_10.i5.i = getelementptr inbounds nuw i8, ptr %ptr.i.i, i64 %_9.i.i
  %_14.i.i = load i8, ptr %_10.i5.i, align 1, !noundef !17
  %101 = icmp sgt i8 %_14.i.i, -1
  br i1 %101, label %bb3.i.i14, label %bb18.i.i, !prof !9

bb3.i.i14:                                        ; preds = %bb9.i13
  %tmp.sroa.0.0.copyload.i.i.i.i = load <8 x i8>, ptr %ptr.i.i, align 8, !noalias !223
  %.lobit.i.i.i6.i = ashr <8 x i8> %tmp.sroa.0.0.copyload.i.i.i.i, splat (i8 7)
  %102 = bitcast <8 x i8> %.lobit.i.i.i6.i to i64
  %103 = icmp ne i64 %102, 0
  tail call void @llvm.assume(i1 %103)
  %104 = tail call range(i64 0, 65) i64 @llvm.cttz.i64(i64 %102, i1 true)
  %_266.i.i = lshr i64 %104, 3
  br label %bb18.i.i

bb18.i.i:                                         ; preds = %bb3.i.i14, %bb9.i13
  %index.sroa.0.0.i.i = phi i64 [ %_266.i.i, %bb3.i.i14 ], [ %_9.i.i, %bb9.i13 ]
  %_72.i.i = getelementptr inbounds nuw i8, ptr %ptr.i.i, i64 %index.sroa.0.0.i.i
  %_76.i.i = lshr i64 %_0.i.i.i.i.i, 57
  %_77.i.i = trunc nuw nsw i64 %_76.i.i to i8
  %_81.i.i = add nsw i64 %index.sroa.0.0.i.i, -8
  %_80.i.i = and i64 %_81.i.i, %_26.i.i
  store i8 %_77.i.i, ptr %_72.i.i, align 1
  %gep = getelementptr i8, ptr %invariant.gep, i64 %_80.i.i
  store i8 %_77.i.i, ptr %gep, align 1
  %_93.i.i = shl i64 %_5.i, 4
  %_95.i.i = sub nuw nsw i64 -16, %_93.i.i
  %_23.i.i = getelementptr inbounds i8, ptr %_57.i.i, i64 %_95.i.i
  %_99.i.i = shl i64 %index.sroa.0.0.i.i, 4
  %_101.i.i = sub nuw nsw i64 -16, %_99.i.i
  %dst.i.i = getelementptr inbounds i8, ptr %ptr.i.i, i64 %_101.i.i
  tail call void @llvm.memcpy.p0.p0.i64(ptr noundef nonnull align 8 dereferenceable(16) %dst.i.i, ptr noundef nonnull align 1 dereferenceable(16) %_23.i.i, i64 16, i1 false)
  %105 = icmp eq i64 %40, 0
  br i1 %105, label %bb4.i.i, label %bb1.i.preheader

bb2.i:                                            ; preds = %bb11.i
  tail call void @llvm.experimental.noalias.scope.decl(metadata !228)
  %self.val.i = load ptr, ptr %self, align 8, !alias.scope !228
  %_27.not4.i.i = icmp eq i64 %_26.i, 0
  br i1 %_27.not4.i.i, label %_RNvMsa_NtCsh9QrOU9e3Ke_9hashbrown3rawNtB5_13RawTableInner23prepare_rehash_in_place.exit.thread11.i, label %bb6.lr.ph.i.i

_RNvMsa_NtCsh9QrOU9e3Ke_9hashbrown3rawNtB5_13RawTableInner23prepare_rehash_in_place.exit.thread11.i: ; preds = %bb2.i
  %106 = icmp ne ptr %self.val.i, null
  tail call void @llvm.assume(i1 %106)
  br label %_RNvMsa_NtCsh9QrOU9e3Ke_9hashbrown3rawNtB5_13RawTableInner15rehash_in_place.exit

bb6.lr.ph.i.i:                                    ; preds = %bb2.i
  %r1.i.i.i.i = and i64 %_26.i, 7
  %_19.not.i.i.i.i = icmp ne i64 %r1.i.i.i.i, 0
  %107 = zext i1 %_19.not.i.i.i.i to i64
  %yield_count.sroa.0.0.i.i.i.i = add nuw nsw i64 %_255.i, %107
  %108 = icmp ne ptr %self.val.i, null
  tail call void @llvm.assume(i1 %108)
  br label %bb6.i.i

bb7.i.i:                                          ; preds = %bb6.i.i
  %b.i.i = icmp ult i64 %_26.i, 8
  br i1 %b.i.i, label %_RNvMsa_NtCsh9QrOU9e3Ke_9hashbrown3rawNtB5_13RawTableInner23prepare_rehash_in_place.exit.i, label %_RNvMsa_NtCsh9QrOU9e3Ke_9hashbrown3rawNtB5_13RawTableInner23prepare_rehash_in_place.exit.thread.i, !prof !231

bb6.i.i:                                          ; preds = %bb6.i.i, %bb6.lr.ph.i.i
  %iter.sroa.0.06.i.i = phi i64 [ 0, %bb6.lr.ph.i.i ], [ %_29.i.i, %bb6.i.i ]
  %iter.sroa.3.05.i.i = phi i64 [ %yield_count.sroa.0.0.i.i.i.i, %bb6.lr.ph.i.i ], [ %109, %bb6.i.i ]
  %_29.i.i = add i64 %iter.sroa.0.06.i.i, 8
  %109 = add i64 %iter.sroa.3.05.i.i, -1
  %_34.i.i = getelementptr inbounds nuw i8, ptr %self.val.i, i64 %iter.sroa.0.06.i.i
  %tmp.sroa.0.0.copyload.i.i.i.i16 = load <8 x i8>, ptr %_34.i.i, align 1, !noalias !232
  %.lobit.i.i.i.i17 = ashr <8 x i8> %tmp.sroa.0.0.copyload.i.i.i.i16, splat (i8 7)
  %110 = or <8 x i8> %.lobit.i.i.i.i17, splat (i8 -128)
  store <8 x i8> %110, ptr %_34.i.i, align 1, !noalias !237
  %_27.not.i.i = icmp eq i64 %109, 0
  br i1 %_27.not.i.i, label %bb7.i.i, label %bb6.i.i

_RNvMsa_NtCsh9QrOU9e3Ke_9hashbrown3rawNtB5_13RawTableInner23prepare_rehash_in_place.exit.thread.i: ; preds = %bb7.i.i
  %_59.i.i = getelementptr inbounds nuw i8, ptr %self.val.i, i64 %_26.i
  %111 = load i64, ptr %self.val.i, align 1, !noalias !228
  store i64 %111, ptr %_59.i.i, align 1, !noalias !228
  br label %bb14.lr.ph.i

_RNvMsa_NtCsh9QrOU9e3Ke_9hashbrown3rawNtB5_13RawTableInner23prepare_rehash_in_place.exit.i: ; preds = %bb7.i.i
  %_52.i.i = getelementptr inbounds nuw i8, ptr %self.val.i, i64 8
  tail call void @llvm.memmove.p0.p0.i64(ptr nonnull align 1 %_52.i.i, ptr nonnull align 1 %self.val.i, i64 %_26.i, i1 false), !noalias !228
  br label %bb14.lr.ph.i

bb14.lr.ph.i:                                     ; preds = %_RNvMsa_NtCsh9QrOU9e3Ke_9hashbrown3rawNtB5_13RawTableInner23prepare_rehash_in_place.exit.i, %_RNvMsa_NtCsh9QrOU9e3Ke_9hashbrown3rawNtB5_13RawTableInner23prepare_rehash_in_place.exit.thread.i
  %invariant.gep.i = getelementptr i8, ptr %self.val.i, i64 8
  %hash_builder.val.i.i.i = load i64, ptr %0, align 8
  %112 = getelementptr inbounds nuw i8, ptr %0, i64 8
  %hash_builder.val1.i.i.i = load i64, ptr %112, align 8
  %113 = xor i64 %hash_builder.val.i.i.i, 7816392313619706465
  %114 = xor i64 %hash_builder.val1.i.i.i, 7237128888997146477
  %115 = xor i64 %hash_builder.val.i.i.i, 8317987319222330741
  %_2.i.i.i.i.i.i.i.i.i = add i64 %114, %115
  %116 = tail call i64 @llvm.fshl.i64(i64 %114, i64 %114, i64 13)
  %117 = xor i64 %116, %_2.i.i.i.i.i.i.i.i.i
  %118 = tail call i64 @llvm.fshl.i64(i64 %_2.i.i.i.i.i.i.i.i.i, i64 %_2.i.i.i.i.i.i.i.i.i, i64 32)
  %invariant.op = add i64 %113, %117
  %119 = tail call i64 @llvm.fshl.i64(i64 %117, i64 %117, i64 17)
  %invariant.op67 = xor i64 %hash_builder.val1.i.i.i, 8387220255154660723
  br label %bb14.i

bb14.i:                                           ; preds = %bb11.i18, %bb14.lr.ph.i
  %iter.sroa.0.05.i = phi i64 [ 0, %bb14.lr.ph.i ], [ %_63.i, %bb11.i18 ]
  %_63.i = add nuw i64 %iter.sroa.0.05.i, 1
  %_66.i = getelementptr inbounds nuw i8, ptr %self.val.i, i64 %iter.sroa.0.05.i
  %_70.i = load i8, ptr %_66.i, align 1, !noalias !228, !noundef !17
  %_69.not.i = icmp eq i8 %_70.i, -128
  br i1 %_69.not.i, label %bb5.i19, label %bb11.i18

bb5.i19:                                          ; preds = %bb14.i
  %_63.neg.i = xor i64 %iter.sroa.0.05.i, -1
  %_72.neg.i = shl i64 %_63.neg.i, 4
  %i_p.i = getelementptr inbounds i8, ptr %self.val.i, i64 %_72.neg.i
  %_18.i.i = sub nsw i64 0, %iter.sroa.0.05.i
  %120 = getelementptr inbounds { { i32, i32 }, i64 }, ptr %self.val.i, i64 %_18.i.i
  %121 = getelementptr inbounds i8, ptr %120, i64 -16
  %122 = getelementptr i8, ptr %120, i64 -12
  %_11.i.i.1.i = getelementptr inbounds nuw i8, ptr %i_p.i, i64 8
  br label %bb7.i

bb7.i:                                            ; preds = %bb3.i.i26.preheader.i, %bb5.i19
  %.val.i.i = load i32, ptr %121, align 4, !range !209, !alias.scope !242, !noalias !245, !noundef !17
  %.val1.i.i = load i32, ptr %122, align 4, !range !209, !alias.scope !242, !noalias !245, !noundef !17
  %123 = zext nneg i32 %.val1.i.i to i64
  %.pre.i.i77.i.i.i.i = zext nneg i32 %.val.i.i to i64
  %_7.i.i.i.i.i.i.i.i = shl nuw nsw i64 %123, 32
  %124 = or disjoint i64 %_7.i.i.i.i.i.i.i.i, %.pre.i.i77.i.i.i.i
  %.reass.reass = xor i64 %124, %invariant.op67
  %_5.i33.i.i.i.i.i.i.i.i = add i64 %.reass.reass, %113
  %125 = tail call noundef i64 @llvm.fshl.i64(i64 %.reass.reass, i64 %.reass.reass, i64 16)
  %126 = xor i64 %_5.i33.i.i.i.i.i.i.i.i, %125
  %_16.i34.i.i.i.i.i.i.i.i.reass = add i64 %.reass.reass, %invariant.op
  %_19.i35.i.i.i.i.i.i.i.i = add i64 %126, %118
  %127 = xor i64 %_16.i34.i.i.i.i.i.i.i.i.reass, %119
  %128 = tail call noundef i64 @llvm.fshl.i64(i64 %126, i64 %126, i64 21)
  %129 = tail call noundef i64 @llvm.fshl.i64(i64 %_16.i34.i.i.i.i.i.i.i.i.reass, i64 %_16.i34.i.i.i.i.i.i.i.i.reass, i64 32)
  %130 = xor i64 %_19.i35.i.i.i.i.i.i.i.i, %124
  %131 = xor i64 %_19.i35.i.i.i.i.i.i.i.i, %128
  %132 = xor i64 %131, 576460752303423488
  %_2.i.i.i.i.i.i.i = add i64 %130, %127
  %_5.i.i.i.i.i.i.i = add i64 %132, %129
  %133 = tail call noundef i64 @llvm.fshl.i64(i64 %127, i64 %127, i64 13)
  %134 = xor i64 %_2.i.i.i.i.i.i.i, %133
  %135 = tail call noundef i64 @llvm.fshl.i64(i64 %132, i64 %132, i64 16)
  %136 = xor i64 %135, %_5.i.i.i.i.i.i.i
  %137 = tail call noundef i64 @llvm.fshl.i64(i64 %_2.i.i.i.i.i.i.i, i64 %_2.i.i.i.i.i.i.i, i64 32)
  %_16.i.i.i.i.i.i.i = add i64 %_5.i.i.i.i.i.i.i, %134
  %_19.i.i.i.i.i.i.i = add i64 %136, %137
  %138 = tail call noundef i64 @llvm.fshl.i64(i64 %134, i64 %134, i64 17)
  %139 = xor i64 %_16.i.i.i.i.i.i.i, %138
  %140 = tail call noundef i64 @llvm.fshl.i64(i64 %136, i64 %136, i64 21)
  %141 = xor i64 %140, %_19.i.i.i.i.i.i.i
  %142 = tail call noundef i64 @llvm.fshl.i64(i64 %_16.i.i.i.i.i.i.i, i64 %_16.i.i.i.i.i.i.i, i64 32)
  %143 = xor i64 %_19.i.i.i.i.i.i.i, 576460752303423488
  %144 = xor i64 %142, 255
  %_2.i3.i.i.i.i.i.i = add i64 %143, %139
  %_5.i6.i.i.i.i.i.i = add i64 %141, %144
  %145 = tail call noundef i64 @llvm.fshl.i64(i64 %139, i64 %139, i64 13)
  %146 = xor i64 %_2.i3.i.i.i.i.i.i, %145
  %147 = tail call noundef i64 @llvm.fshl.i64(i64 %141, i64 %141, i64 16)
  %148 = xor i64 %147, %_5.i6.i.i.i.i.i.i
  %149 = tail call noundef i64 @llvm.fshl.i64(i64 %_2.i3.i.i.i.i.i.i, i64 %_2.i3.i.i.i.i.i.i, i64 32)
  %_16.i7.i.i.i.i.i.i = add i64 %146, %_5.i6.i.i.i.i.i.i
  %_19.i8.i.i.i.i.i.i = add i64 %148, %149
  %150 = tail call noundef i64 @llvm.fshl.i64(i64 %146, i64 %146, i64 17)
  %151 = xor i64 %_16.i7.i.i.i.i.i.i, %150
  %152 = tail call noundef i64 @llvm.fshl.i64(i64 %148, i64 %148, i64 21)
  %153 = xor i64 %152, %_19.i8.i.i.i.i.i.i
  %154 = tail call noundef i64 @llvm.fshl.i64(i64 %_16.i7.i.i.i.i.i.i, i64 %_16.i7.i.i.i.i.i.i, i64 32)
  %_30.i.i.i.i.i.i.i = add i64 %151, %_19.i8.i.i.i.i.i.i
  %_33.i.i.i.i.i.i.i = add i64 %153, %154
  %155 = tail call noundef i64 @llvm.fshl.i64(i64 %151, i64 %151, i64 13)
  %156 = xor i64 %155, %_30.i.i.i.i.i.i.i
  %157 = tail call noundef i64 @llvm.fshl.i64(i64 %153, i64 %153, i64 16)
  %158 = xor i64 %157, %_33.i.i.i.i.i.i.i
  %159 = tail call noundef i64 @llvm.fshl.i64(i64 %_30.i.i.i.i.i.i.i, i64 %_30.i.i.i.i.i.i.i, i64 32)
  %_44.i.i.i.i.i.i.i = add i64 %156, %_33.i.i.i.i.i.i.i
  %_47.i.i.i.i.i.i.i = add i64 %158, %159
  %160 = tail call noundef i64 @llvm.fshl.i64(i64 %156, i64 %156, i64 17)
  %161 = xor i64 %160, %_44.i.i.i.i.i.i.i
  %162 = tail call noundef i64 @llvm.fshl.i64(i64 %158, i64 %158, i64 21)
  %163 = xor i64 %162, %_47.i.i.i.i.i.i.i
  %164 = tail call noundef i64 @llvm.fshl.i64(i64 %_44.i.i.i.i.i.i.i, i64 %_44.i.i.i.i.i.i.i, i64 32)
  %_58.i.i.i.i.i.i.i = add i64 %161, %_47.i.i.i.i.i.i.i
  %_61.i.i.i.i.i.i.i = add i64 %163, %164
  %165 = tail call noundef i64 @llvm.fshl.i64(i64 %161, i64 %161, i64 13)
  %166 = xor i64 %165, %_58.i.i.i.i.i.i.i
  %167 = tail call noundef i64 @llvm.fshl.i64(i64 %163, i64 %163, i64 16)
  %168 = xor i64 %167, %_61.i.i.i.i.i.i.i
  %_72.i.i.i.i.i.i.i = add i64 %166, %_61.i.i.i.i.i.i.i
  %169 = tail call noundef i64 @llvm.fshl.i64(i64 %166, i64 %166, i64 17)
  %170 = tail call noundef i64 @llvm.fshl.i64(i64 %168, i64 %168, i64 21)
  %171 = tail call noundef i64 @llvm.fshl.i64(i64 %_72.i.i.i.i.i.i.i, i64 %_72.i.i.i.i.i.i.i, i64 32)
  %172 = xor i64 %170, %169
  %173 = xor i64 %172, %171
  %_0.i.i.i.i.i.i = xor i64 %173, %_72.i.i.i.i.i.i.i
  %probe_seq.sroa.0.01.i.i = and i64 %_0.i.i.i.i.i.i, %3
  %_182.i.i = getelementptr inbounds nuw i8, ptr %self.val.i, i64 %probe_seq.sroa.0.01.i.i
  %tmp.sroa.0.0.copyload.i.i3.i.i = load <8 x i8>, ptr %_182.i.i, align 1, !noalias !251
  %.lobit.i.i.i4.i.i = ashr <8 x i8> %tmp.sroa.0.0.copyload.i.i3.i.i, splat (i8 7)
  %174 = bitcast <8 x i8> %.lobit.i.i.i4.i.i to i64
  %.not.i.not5.i.i = icmp eq i64 %174, 0
  br i1 %.not.i.not5.i.i, label %bb6.i23.i, label %bb9.i.i20, !prof !221

bb6.i23.i:                                        ; preds = %bb7.i, %bb6.i23.i
  %probe_seq.sroa.0.06.i.i = phi i64 [ %probe_seq.sroa.0.0.i.i, %bb6.i23.i ], [ %probe_seq.sroa.0.01.i.i, %bb7.i ]
  %175 = phi i64 [ %176, %bb6.i23.i ], [ 0, %bb7.i ]
  %176 = add i64 %175, 8
  %177 = add i64 %176, %probe_seq.sroa.0.06.i.i
  %probe_seq.sroa.0.0.i.i = and i64 %177, %3
  %_18.i24.i = getelementptr inbounds nuw i8, ptr %self.val.i, i64 %probe_seq.sroa.0.0.i.i
  %tmp.sroa.0.0.copyload.i.i.i25.i = load <8 x i8>, ptr %_18.i24.i, align 1, !noalias !251
  %.lobit.i.i.i.i.i = ashr <8 x i8> %tmp.sroa.0.0.copyload.i.i.i25.i, splat (i8 7)
  %178 = bitcast <8 x i8> %.lobit.i.i.i.i.i to i64
  %.not.i.not.i.i = icmp eq i64 %178, 0
  br i1 %.not.i.not.i.i, label %bb6.i23.i, label %bb9.i.i20, !prof !222

bb9.i.i20:                                        ; preds = %bb6.i23.i, %bb7.i
  %probe_seq.sroa.0.0.lcssa.i.i = phi i64 [ %probe_seq.sroa.0.01.i.i, %bb7.i ], [ %probe_seq.sroa.0.0.i.i, %bb6.i23.i ]
  %.lcssa.i.i = phi i64 [ %174, %bb7.i ], [ %178, %bb6.i23.i ]
  %179 = tail call range(i64 0, 65) i64 @llvm.cttz.i64(i64 %.lcssa.i.i, i1 true)
  %_187.i.i.i = lshr i64 %179, 3
  %_10.i.i.i = add i64 %_187.i.i.i, %probe_seq.sroa.0.0.lcssa.i.i
  %_9.i.i.i21 = and i64 %_10.i.i.i, %3
  %_10.i5.i.i = getelementptr inbounds nuw i8, ptr %self.val.i, i64 %_9.i.i.i21
  %_14.i.i.i = load i8, ptr %_10.i5.i.i, align 1, !noalias !228, !noundef !17
  %180 = icmp sgt i8 %_14.i.i.i, -1
  br i1 %180, label %bb3.i.i.i, label %bb8.i, !prof !9

bb3.i.i.i:                                        ; preds = %bb9.i.i20
  %tmp.sroa.0.0.copyload.i.i.i.i.i = load <8 x i8>, ptr %self.val.i, align 1, !noalias !256
  %.lobit.i.i.i6.i.i = ashr <8 x i8> %tmp.sroa.0.0.copyload.i.i.i.i.i, splat (i8 7)
  %181 = bitcast <8 x i8> %.lobit.i.i.i6.i.i to i64
  %182 = icmp ne i64 %181, 0
  tail call void @llvm.assume(i1 %182)
  %183 = tail call range(i64 0, 65) i64 @llvm.cttz.i64(i64 %181, i1 true)
  %_266.i.i.i = lshr i64 %183, 3
  br label %bb8.i

bb8.i:                                            ; preds = %bb3.i.i.i, %bb9.i.i20
  %index.sroa.0.0.i.i.i = phi i64 [ %_266.i.i.i, %bb3.i.i.i ], [ %_9.i.i.i21, %bb9.i.i20 ]
  %_83.i = sub i64 %iter.sroa.0.05.i, %probe_seq.sroa.0.01.i.i
  %_85.i = sub i64 %index.sroa.0.0.i.i.i, %probe_seq.sroa.0.01.i.i
  %_8220.i = xor i64 %_85.i, %_83.i
  %b.unshifted.i = and i64 %_8220.i, %3
  %b.i = icmp ult i64 %b.unshifted.i, 8
  br i1 %b.i, label %bb16.i, label %bb17.i, !prof !261

bb17.i:                                           ; preds = %bb8.i
  %_105.i = shl i64 %index.sroa.0.0.i.i.i, 4
  %_107.i = sub nuw nsw i64 -16, %_105.i
  %new_i_p.i = getelementptr inbounds i8, ptr %self.val.i, i64 %_107.i
  %_110.i = getelementptr inbounds nuw i8, ptr %self.val.i, i64 %index.sroa.0.0.i.i.i
  %prev_ctrl.i = load i8, ptr %_110.i, align 1, !noalias !228, !noundef !17
  %_114.i = lshr i64 %_0.i.i.i.i.i.i, 57
  %_115.i = trunc nuw nsw i64 %_114.i to i8
  %_119.i = add i64 %index.sroa.0.0.i.i.i, -8
  %_118.i = and i64 %_119.i, %3
  store i8 %_115.i, ptr %_110.i, align 1, !noalias !228
  %gep.i = getelementptr i8, ptr %invariant.gep.i, i64 %_118.i
  store i8 %_115.i, ptr %gep.i, align 1, !noalias !228
  %184 = icmp eq i8 %prev_ctrl.i, -1
  br i1 %184, label %bb9.i22, label %bb3.i.i26.preheader.i

bb3.i.i26.preheader.i:                            ; preds = %bb17.i
  tail call void @llvm.experimental.noalias.scope.decl(metadata !262)
  tail call void @llvm.experimental.noalias.scope.decl(metadata !265)
  %_3.sroa.0.0.copyload.i.i.i.i = load i64, ptr %i_p.i, align 1, !alias.scope !262, !noalias !267
  %_4.sroa.0.0.copyload.i.i.i.i = load i64, ptr %new_i_p.i, align 1, !alias.scope !265, !noalias !268
  store i64 %_4.sroa.0.0.copyload.i.i.i.i, ptr %i_p.i, align 1, !alias.scope !262, !noalias !267
  store i64 %_3.sroa.0.0.copyload.i.i.i.i, ptr %new_i_p.i, align 1, !alias.scope !265, !noalias !268
  %_13.i.i.1.i = getelementptr inbounds nuw i8, ptr %new_i_p.i, i64 8
  tail call void @llvm.experimental.noalias.scope.decl(metadata !269)
  tail call void @llvm.experimental.noalias.scope.decl(metadata !271)
  %_3.sroa.0.0.copyload.i.i.i.1.i = load i64, ptr %_11.i.i.1.i, align 1, !alias.scope !269, !noalias !273
  %_4.sroa.0.0.copyload.i.i.i.1.i = load i64, ptr %_13.i.i.1.i, align 1, !alias.scope !271, !noalias !274
  store i64 %_4.sroa.0.0.copyload.i.i.i.1.i, ptr %_11.i.i.1.i, align 1, !alias.scope !269, !noalias !273
  store i64 %_3.sroa.0.0.copyload.i.i.i.1.i, ptr %_13.i.i.1.i, align 1, !alias.scope !271, !noalias !274
  br label %bb7.i

bb16.i:                                           ; preds = %bb8.i
  %_88.i = lshr i64 %_0.i.i.i.i.i.i, 57
  %_89.i = trunc nuw nsw i64 %_88.i to i8
  %_93.i = add i64 %iter.sroa.0.05.i, -8
  %_92.i = and i64 %_93.i, %3
  store i8 %_89.i, ptr %_66.i, align 1, !noalias !228
  %gep9.i = getelementptr i8, ptr %invariant.gep.i, i64 %_92.i
  store i8 %_89.i, ptr %gep9.i, align 1, !noalias !228
  br label %bb11.i18

bb9.i22:                                          ; preds = %bb17.i
  %_132.i = add i64 %iter.sroa.0.05.i, -8
  %_131.i = and i64 %_132.i, %3
  store i8 -1, ptr %_66.i, align 1, !noalias !228
  %gep7.i = getelementptr i8, ptr %invariant.gep.i, i64 %_131.i
  store i8 -1, ptr %gep7.i, align 1, !noalias !228
  tail call void @llvm.memcpy.p0.p0.i64(ptr noundef nonnull align 1 dereferenceable(16) %new_i_p.i, ptr noundef nonnull align 1 dereferenceable(16) %i_p.i, i64 16, i1 false), !noalias !228
  br label %bb11.i18

bb11.i18:                                         ; preds = %bb9.i22, %bb16.i, %bb14.i
  %exitcond.not.i = icmp eq i64 %iter.sroa.0.05.i, %3
  br i1 %exitcond.not.i, label %_RNvMsa_NtCsh9QrOU9e3Ke_9hashbrown3rawNtB5_13RawTableInner15rehash_in_place.exit, label %bb14.i

_RNvMsa_NtCsh9QrOU9e3Ke_9hashbrown3rawNtB5_13RawTableInner15rehash_in_place.exit: ; preds = %bb11.i18, %_RNvMsa_NtCsh9QrOU9e3Ke_9hashbrown3rawNtB5_13RawTableInner23prepare_rehash_in_place.exit.thread11.i
  %185 = getelementptr inbounds nuw i8, ptr %self, i64 16
  %186 = sub i64 %full_capacity.sroa.0.0.i, %self1.i
  store i64 %186, ptr %185, align 8, !alias.scope !228
  br label %_RINvMsa_NtCsh9QrOU9e3Ke_9hashbrown3rawNtB6_13RawTableInner20reserve_rehash_innerNtNtCsdJPVW0sQgAG_5alloc5alloc6GlobalECs6KJnav5oeQt_6strsim.exit

_RINvMsa_NtCsh9QrOU9e3Ke_9hashbrown3rawNtB6_13RawTableInner20reserve_rehash_innerNtNtCsdJPVW0sQgAG_5alloc5alloc6GlobalECs6KJnav5oeQt_6strsim.exit: ; preds = %bb1.i1.i.i.i, %bb2.i.i.i, %bb4.i.i, %bb11.i.i, %bb9.i, %_RNvMsa_NtCsh9QrOU9e3Ke_9hashbrown3rawNtB5_13RawTableInner15rehash_in_place.exit
  %_0.sroa.4.0.i = phi i64 [ %_11.1.i, %bb9.i ], [ undef, %_RNvMsa_NtCsh9QrOU9e3Ke_9hashbrown3rawNtB5_13RawTableInner15rehash_in_place.exit ], [ %self3.i.i.sroa.12.034, %bb11.i.i ], [ undef, %bb4.i.i ], [ undef, %bb2.i.i.i ], [ undef, %bb1.i1.i.i.i ]
  %_0.sroa.0.0.i = phi i64 [ %_11.0.i, %bb9.i ], [ -9223372036854775807, %_RNvMsa_NtCsh9QrOU9e3Ke_9hashbrown3rawNtB5_13RawTableInner15rehash_in_place.exit ], [ %self3.i.i.sroa.7.033, %bb11.i.i ], [ -9223372036854775807, %bb4.i.i ], [ -9223372036854775807, %bb2.i.i.i ], [ -9223372036854775807, %bb1.i1.i.i.i ]
  %187 = insertvalue { i64, i64 } poison, i64 %_0.sroa.0.0.i, 0
  %188 = insertvalue { i64, i64 } %187, i64 %_0.sroa.4.0.i, 1
  ret { i64, i64 } %188
}

; core::ptr::drop_in_place::<std::collections::hash::map::HashMap<(char, char), usize>>
; Function Attrs: nounwind uwtable
define internal fastcc void @_RINvNtCsjMrxcFdYDNN_4core3ptr13drop_in_placeINtNtNtNtCs5sEH5CPMdak_3std11collections4hash3map7HashMapTccEjEECs6KJnav5oeQt_6strsim(ptr %_1.0.val, i64 %_1.8.val) unnamed_addr #2 {
start:
  %0 = icmp eq i64 %_1.8.val, 0
  br i1 %0, label %_RINvNtCsjMrxcFdYDNN_4core3ptr13drop_in_placeINtNtCsh9QrOU9e3Ke_9hashbrown3map7HashMapTccEjNtNtNtCs5sEH5CPMdak_3std4hash6random11RandomStateEECs6KJnav5oeQt_6strsim.exit, label %bb2.i.i.i.i

bb2.i.i.i.i:                                      ; preds = %start
  %_9.i.i.i.i = shl i64 %_1.8.val, 4
  %1 = add i64 %_9.i.i.i.i, 16
  %rhs5.i.i.i.i.i = add i64 %_1.8.val, 9
  %_37.0.i.i.i.i.i = add i64 %rhs5.i.i.i.i.i, %1
  %_37.1.i.i.i.i.i = icmp uge i64 %_37.0.i.i.i.i.i, %1
  %_19.i.i.i.i.i = icmp ult i64 %_37.0.i.i.i.i.i, 9223372036854775801
  tail call void @llvm.assume(i1 %_37.1.i.i.i.i.i)
  tail call void @llvm.assume(i1 %_19.i.i.i.i.i)
  %2 = icmp ne ptr %_1.0.val, null
  tail call void @llvm.assume(i1 %2)
  %3 = icmp eq i64 %_37.0.i.i.i.i.i, 0
  br i1 %3, label %_RINvNtCsjMrxcFdYDNN_4core3ptr13drop_in_placeINtNtCsh9QrOU9e3Ke_9hashbrown3map7HashMapTccEjNtNtNtCs5sEH5CPMdak_3std4hash6random11RandomStateEECs6KJnav5oeQt_6strsim.exit, label %bb1.i2.i.i.i.i

bb1.i2.i.i.i.i:                                   ; preds = %bb2.i.i.i.i
  %_17.i.i.i.i = sub nuw nsw i64 -16, %_9.i.i.i.i
  %ptr.i.i.i.i = getelementptr inbounds i8, ptr %_1.0.val, i64 %_17.i.i.i.i
; call __rustc::__rust_dealloc
  tail call void @_RNvCsKhRCbHf33p_7___rustc14___rust_dealloc(ptr noundef nonnull %ptr.i.i.i.i, i64 noundef %_37.0.i.i.i.i.i, i64 noundef range(i64 1, -9223372036854775807) 8) #23
  br label %_RINvNtCsjMrxcFdYDNN_4core3ptr13drop_in_placeINtNtCsh9QrOU9e3Ke_9hashbrown3map7HashMapTccEjNtNtNtCs5sEH5CPMdak_3std4hash6random11RandomStateEECs6KJnav5oeQt_6strsim.exit

_RINvNtCsjMrxcFdYDNN_4core3ptr13drop_in_placeINtNtCsh9QrOU9e3Ke_9hashbrown3map7HashMapTccEjNtNtNtCs5sEH5CPMdak_3std4hash6random11RandomStateEECs6KJnav5oeQt_6strsim.exit: ; preds = %start, %bb2.i.i.i.i, %bb1.i2.i.i.i.i
  ret void
}

; <alloc::raw_vec::RawVecInner<_>>::reserve::do_reserve_and_handle::<alloc::alloc::Global>
; Function Attrs: cold uwtable
define internal fastcc void @_RINvNvMs2_NtCsdJPVW0sQgAG_5alloc7raw_vecINtB8_11RawVecInnerpE7reserve21do_reserve_and_handleNtNtBa_5alloc6GlobalECs6KJnav5oeQt_6strsim(ptr noalias noundef nonnull align 8 captures(none) dereferenceable(16) %slf, i64 noundef %len, i64 noundef %additional, i64 noundef range(i64 1, 9) %elem_layout.0, i64 noundef range(i64 1, 17) %elem_layout.1) unnamed_addr #3 personality ptr @rust_eh_personality {
start:
  %self3.i = alloca [24 x i8], align 8
  tail call void @llvm.experimental.noalias.scope.decl(metadata !275)
  %_25.0.i = add i64 %additional, %len
  %_25.1.i = icmp ult i64 %_25.0.i, %len
  br i1 %_25.1.i, label %bb2, label %bb9.i

bb9.i:                                            ; preds = %start
  %self5.i = load i64, ptr %slf, align 8, !range !278, !alias.scope !275, !noundef !17
  %v16.i = shl nuw i64 %self5.i, 1
  %_0.sroa.0.0.i.i = tail call noundef i64 @llvm.umax.i64(i64 %_25.0.i, i64 %v16.i)
  %0 = icmp eq i64 %elem_layout.1, 1
  %v1.sroa.0.0.i = select i1 %0, i64 8, i64 4
  %_0.sroa.0.0.i16.i = tail call noundef i64 @llvm.umax.i64(i64 %_0.sroa.0.0.i.i, i64 %v1.sroa.0.0.i)
  call void @llvm.lifetime.start.p0(i64 24, ptr nonnull %self3.i), !noalias !275
  %1 = getelementptr inbounds nuw i8, ptr %slf, i64 8
  %self.val15.i = load ptr, ptr %1, align 8, !alias.scope !275
; call <alloc::raw_vec::RawVecInner>::finish_grow
  call fastcc void @_RNvMs4_NtCsdJPVW0sQgAG_5alloc7raw_vecNtB5_11RawVecInner11finish_growCs6KJnav5oeQt_6strsim(ptr noalias noundef align 8 captures(none) dereferenceable(24) %self3.i, i64 %self5.i, ptr %self.val15.i, i64 noundef %_0.sroa.0.0.i16.i, i64 noundef range(i64 1, 9) %elem_layout.0, i64 noundef range(i64 1, 17) %elem_layout.1), !noalias !275
  %_35.i = load i64, ptr %self3.i, align 8, !range !279, !noalias !275, !noundef !17
  %2 = trunc nuw i64 %_35.i to i1
  %3 = getelementptr inbounds nuw i8, ptr %self3.i, i64 8
  br i1 %2, label %bb18.i, label %bb3

bb18.i:                                           ; preds = %bb9.i
  %e.0.i = load i64, ptr %3, align 8, !range !45, !noalias !275, !noundef !17
  %4 = getelementptr inbounds nuw i8, ptr %self3.i, i64 16
  %e.1.i = load i64, ptr %4, align 8, !noalias !275
  call void @llvm.lifetime.end.p0(i64 24, ptr nonnull %self3.i), !noalias !275
  br label %bb2

bb2:                                              ; preds = %bb18.i, %start
  %_0.sroa.5.0.i.ph = phi i64 [ undef, %start ], [ %e.1.i, %bb18.i ]
  %_0.sroa.0.0.i.ph = phi i64 [ 0, %start ], [ %e.0.i, %bb18.i ]
; call alloc::raw_vec::handle_error
  tail call void @_RNvNtCsdJPVW0sQgAG_5alloc7raw_vec12handle_error(i64 noundef %_0.sroa.0.0.i.ph, i64 %_0.sroa.5.0.i.ph) #24
  unreachable

bb3:                                              ; preds = %bb9.i
  %v.0.i = load ptr, ptr %3, align 8, !noalias !275, !nonnull !17, !noundef !17
  call void @llvm.lifetime.end.p0(i64 24, ptr nonnull %self3.i), !noalias !275
  store ptr %v.0.i, ptr %1, align 8, !alias.scope !275
  %5 = icmp sgt i64 %_0.sroa.0.0.i16.i, -1
  tail call void @llvm.assume(i1 %5)
  store i64 %_0.sroa.0.0.i16.i, ptr %slf, align 8, !alias.scope !275
  ret void
}

; <isize as alloc::vec::spec_from_elem::SpecFromElem>::from_elem::<alloc::alloc::Global>
; Function Attrs: inlinehint uwtable
define internal fastcc void @_RINvXs_NtNtCsdJPVW0sQgAG_5alloc3vec14spec_from_elemiNtB5_12SpecFromElem9from_elemNtNtB9_5alloc6GlobalECs6KJnav5oeQt_6strsim(ptr dead_on_unwind noalias noundef nonnull writable writeonly align 8 captures(none) dereferenceable(24) %_0, i64 noundef %0, i64 noundef %n) unnamed_addr #4 personality ptr @rust_eh_personality {
start:
  %_0.i = icmp eq i64 %0, 0
  %_23.i.i = icmp eq i64 %n, 0
  br i1 %_0.i, label %bb2, label %bb3

bb3:                                              ; preds = %start
  br i1 %_23.i.i, label %bb5, label %bb6.i.i.i

bb6.i.i.i:                                        ; preds = %bb3
  %_24.i.i.i = add i64 %n, -1
  %_27.0.i.i.i = shl i64 %_24.i.i.i, 3
  %_27.1.i.i.i = icmp ugt i64 %_24.i.i.i, 2305843009213693951
  %_40.i.i.i = icmp ugt i64 %_27.0.i.i.i, 9223372036854775799
  %or.cond = or i1 %_27.1.i.i.i, %_40.i.i.i
  br i1 %or.cond, label %bb3.i, label %bb3.i.i, !prof !46

bb3.i.i:                                          ; preds = %bb6.i.i.i
  %new_size2.i.i.i = add nuw nsw i64 %_27.0.i.i.i, 8
; call __rustc::__rust_no_alloc_shim_is_unstable_v2
  tail call void @_RNvCsKhRCbHf33p_7___rustc35___rust_no_alloc_shim_is_unstable_v2() #23, !noalias !280
; call __rustc::__rust_alloc
  %1 = tail call noundef align 8 ptr @_RNvCsKhRCbHf33p_7___rustc12___rust_alloc(i64 noundef %new_size2.i.i.i, i64 noundef range(i64 1, 9) 8) #23, !noalias !280
  %2 = icmp eq ptr %1, null
  br i1 %2, label %bb3.i, label %_RNvMs_NtCsdJPVW0sQgAG_5alloc3vecINtB4_3VeciE7reserveCs6KJnav5oeQt_6strsim.exit.i

bb3.i:                                            ; preds = %bb3.i.i, %bb6.i.i.i
  %_4.sroa.4.0.ph.i = phi i64 [ 8, %bb3.i.i ], [ 0, %bb6.i.i.i ]
  %_4.sroa.10.0.ph.i = phi i64 [ %new_size2.i.i.i, %bb3.i.i ], [ undef, %bb6.i.i.i ]
; call alloc::raw_vec::handle_error
  tail call void @_RNvNtCsdJPVW0sQgAG_5alloc7raw_vec12handle_error(i64 noundef %_4.sroa.4.0.ph.i, i64 %_4.sroa.10.0.ph.i) #24
  unreachable

_RNvMs_NtCsdJPVW0sQgAG_5alloc3vecINtB4_3VeciE7reserveCs6KJnav5oeQt_6strsim.exit.i: ; preds = %bb3.i.i
  %_2416.i.not = icmp eq i64 %n, 1
  br i1 %_2416.i.not, label %bb4.i, label %bb3.i4.preheader

bb3.i4.preheader:                                 ; preds = %_RNvMs_NtCsdJPVW0sQgAG_5alloc3vecINtB4_3VeciE7reserveCs6KJnav5oeQt_6strsim.exit.i
  %min.iters.check = icmp ult i64 %n, 9
  br i1 %min.iters.check, label %bb3.i4.preheader23, label %vector.ph

vector.ph:                                        ; preds = %bb3.i4.preheader
  %n.vec = and i64 %_24.i.i.i, 2305843009213693944
  %3 = shl nuw i64 %n.vec, 3
  %4 = getelementptr i8, ptr %1, i64 %3
  %5 = or disjoint i64 %n.vec, 1
  %broadcast.splatinsert = insertelement <2 x i64> poison, i64 %0, i64 0
  %broadcast.splat = shufflevector <2 x i64> %broadcast.splatinsert, <2 x i64> poison, <2 x i32> zeroinitializer
  br label %vector.body

vector.body:                                      ; preds = %vector.body, %vector.ph
  %index = phi i64 [ 0, %vector.ph ], [ %index.next, %vector.body ]
  %offset.idx = shl i64 %index, 3
  %next.gep = getelementptr i8, ptr %1, i64 %offset.idx
  %6 = getelementptr i8, ptr %next.gep, i64 16
  %7 = getelementptr i8, ptr %next.gep, i64 32
  %8 = getelementptr i8, ptr %next.gep, i64 48
  store <2 x i64> %broadcast.splat, ptr %next.gep, align 8, !noalias !283
  store <2 x i64> %broadcast.splat, ptr %6, align 8, !noalias !283
  store <2 x i64> %broadcast.splat, ptr %7, align 8, !noalias !283
  store <2 x i64> %broadcast.splat, ptr %8, align 8, !noalias !283
  %index.next = add nuw i64 %index, 8
  %9 = icmp eq i64 %index.next, %n.vec
  br i1 %9, label %middle.block, label %vector.body, !llvm.loop !286

middle.block:                                     ; preds = %vector.body
  %cmp.n = icmp eq i64 %_24.i.i.i, %n.vec
  br i1 %cmp.n, label %bb4.i, label %bb3.i4.preheader23

bb3.i4.preheader23:                               ; preds = %bb3.i4.preheader, %middle.block
  %ptr.sroa.0.019.i.ph = phi ptr [ %1, %bb3.i4.preheader ], [ %4, %middle.block ]
  %iter.sroa.0.018.i.ph = phi i64 [ 1, %bb3.i4.preheader ], [ %5, %middle.block ]
  br label %bb3.i4

bb4.i:                                            ; preds = %bb3.i4, %middle.block, %_RNvMs_NtCsdJPVW0sQgAG_5alloc3vecINtB4_3VeciE7reserveCs6KJnav5oeQt_6strsim.exit.i
  %ptr.sroa.0.0.lcssa26.i = phi ptr [ %1, %_RNvMs_NtCsdJPVW0sQgAG_5alloc3vecINtB4_3VeciE7reserveCs6KJnav5oeQt_6strsim.exit.i ], [ %4, %middle.block ], [ %_15.i, %bb3.i4 ]
  store i64 %0, ptr %ptr.sroa.0.0.lcssa26.i, align 8, !noalias !283
  br label %bb5

bb3.i4:                                           ; preds = %bb3.i4.preheader23, %bb3.i4
  %ptr.sroa.0.019.i = phi ptr [ %_15.i, %bb3.i4 ], [ %ptr.sroa.0.019.i.ph, %bb3.i4.preheader23 ]
  %iter.sroa.0.018.i = phi i64 [ %_28.i, %bb3.i4 ], [ %iter.sroa.0.018.i.ph, %bb3.i4.preheader23 ]
  %_28.i = add nuw i64 %iter.sroa.0.018.i, 1
  store i64 %0, ptr %ptr.sroa.0.019.i, align 8, !noalias !283
  %_15.i = getelementptr inbounds nuw i8, ptr %ptr.sroa.0.019.i, i64 8
  %exitcond.not.i = icmp eq i64 %_28.i, %n
  br i1 %exitcond.not.i, label %bb4.i, label %bb3.i4, !llvm.loop !287

bb2:                                              ; preds = %start
  br i1 %_23.i.i, label %bb15, label %bb6.i.i

bb6.i.i:                                          ; preds = %bb2
  %_24.i.i = add i64 %n, -1
  %_27.0.i.i = shl i64 %_24.i.i, 3
  %_27.1.i.i = icmp ugt i64 %_24.i.i, 2305843009213693951
  %_40.i.i = icmp ugt i64 %_27.0.i.i, 9223372036854775799
  %or.cond14 = or i1 %_27.1.i.i, %_40.i.i
  br i1 %or.cond14, label %bb14, label %bb3.i5, !prof !46

bb3.i5:                                           ; preds = %bb6.i.i
  %new_size2.i.i = add nuw nsw i64 %_27.0.i.i, 8
; call __rustc::__rust_no_alloc_shim_is_unstable_v2
  tail call void @_RNvCsKhRCbHf33p_7___rustc35___rust_no_alloc_shim_is_unstable_v2() #23, !noalias !288
; call __rustc::__rust_alloc_zeroed
  %10 = tail call noundef align 8 ptr @_RNvCsKhRCbHf33p_7___rustc19___rust_alloc_zeroed(i64 noundef range(i64 1, 0) %new_size2.i.i, i64 noundef range(i64 1, -9223372036854775807) 8) #23, !noalias !288
  %11 = icmp eq ptr %10, null
  br i1 %11, label %bb14, label %bb10.i

bb10.i:                                           ; preds = %bb3.i5
  %12 = ptrtoint ptr %10 to i64
  br label %bb15

bb5:                                              ; preds = %bb4.i, %bb3, %bb15
  %.sink = phi ptr [ %15, %bb15 ], [ %1, %bb4.i ], [ inttoptr (i64 8 to ptr), %bb3 ]
  %n.sink = phi i64 [ %n, %bb15 ], [ %n, %bb4.i ], [ 0, %bb3 ]
  store i64 %n, ptr %_0, align 8
  %13 = getelementptr inbounds nuw i8, ptr %_0, i64 8
  store ptr %.sink, ptr %13, align 8
  %14 = getelementptr inbounds nuw i8, ptr %_0, i64 16
  store i64 %n.sink, ptr %14, align 8
  ret void

bb14:                                             ; preds = %bb6.i.i, %bb3.i5
  %_16.sroa.4.0.ph = phi i64 [ 8, %bb3.i5 ], [ 0, %bb6.i.i ]
  %_16.sroa.10.0.ph = phi i64 [ %new_size2.i.i, %bb3.i5 ], [ undef, %bb6.i.i ]
; call alloc::raw_vec::handle_error
  tail call void @_RNvNtCsdJPVW0sQgAG_5alloc7raw_vec12handle_error(i64 noundef %_16.sroa.4.0.ph, i64 %_16.sroa.10.0.ph) #24
  unreachable

bb15:                                             ; preds = %bb10.i, %bb2
  %_16.sroa.10.0 = phi i64 [ %12, %bb10.i ], [ 8, %bb2 ]
  %15 = inttoptr i64 %_16.sroa.10.0 to ptr
  br label %bb5
}

; strsim::levenshtein
; Function Attrs: uwtable
define noundef i64 @_RNvCs6KJnav5oeQt_6strsim11levenshtein(ptr noalias noundef nonnull readonly align 1 captures(address) %a.0, i64 noundef %a.1, ptr noalias noundef nonnull readonly align 1 captures(address, read_provenance) %b.0, i64 noundef %b.1) unnamed_addr #0 personality ptr @rust_eh_personality {
start:
  %_8.i.i = getelementptr inbounds nuw i8, ptr %b.0, i64 %b.1
  %_6.i.i = icmp ult i64 %b.1, 32
  br i1 %_6.i.i, label %bb2.i.i, label %bb3.i.i

bb3.i.i:                                          ; preds = %start
; call core::str::count::do_count_chars
  %0 = tail call noundef i64 @_RNvNtNtCsjMrxcFdYDNN_4core3str5count14do_count_chars(ptr noalias noundef nonnull readonly align 1 captures(address, read_provenance) %b.0, i64 noundef %b.1)
  br label %_RNvXNtNtCsjMrxcFdYDNN_4core3str4iterNtB2_5CharsNtNtNtNtB6_4iter6traits8iterator8Iterator5count.exit.i

bb2.i.i:                                          ; preds = %start
; call core::str::count::char_count_general_case
  %1 = tail call noundef i64 @_RNvNtNtCsjMrxcFdYDNN_4core3str5count23char_count_general_case(ptr noalias noundef nonnull readonly align 1 captures(address, read_provenance) %b.0, i64 noundef %b.1)
  br label %_RNvXNtNtCsjMrxcFdYDNN_4core3str4iterNtB2_5CharsNtNtNtNtB6_4iter6traits8iterator8Iterator5count.exit.i

_RNvXNtNtCsjMrxcFdYDNN_4core3str4iterNtB2_5CharsNtNtNtNtB6_4iter6traits8iterator8Iterator5count.exit.i: ; preds = %bb2.i.i, %bb3.i.i
  %_0.sroa.0.0.i.i = phi i64 [ %1, %bb2.i.i ], [ %0, %bb3.i.i ]
  %_6.i = add i64 %_0.sroa.0.0.i.i, 1
  %spec.select.i.i.i = tail call i64 @llvm.usub.sat.i64(i64 %_6.i, i64 1)
  %_23.i.i.i.not.i.i = icmp ugt i64 %_6.i, 1
  br i1 %_23.i.i.i.not.i.i, label %bb6.i.i.i.i.i, label %bb4.i

bb6.i.i.i.i.i:                                    ; preds = %_RNvXNtNtCsjMrxcFdYDNN_4core3str4iterNtB2_5CharsNtNtNtNtB6_4iter6traits8iterator8Iterator5count.exit.i
  %_24.i.i.i.i.i = add i64 %spec.select.i.i.i, -1
  %_27.0.i.i.i.i.i = shl i64 %_24.i.i.i.i.i, 3
  %_27.1.i.i.i.i.i = icmp ugt i64 %_24.i.i.i.i.i, 2305843009213693951
  %_40.i.i.i.i.i = icmp ugt i64 %_27.0.i.i.i.i.i, 9223372036854775799
  %or.cond.i.i = or i1 %_27.1.i.i.i.i.i, %_40.i.i.i.i.i
  br i1 %or.cond.i.i, label %bb3.i.i.i, label %bb3.i.i.i.i, !prof !46

bb3.i.i.i.i:                                      ; preds = %bb6.i.i.i.i.i
  %new_size2.i.i.i.i.i = add nuw nsw i64 %_27.0.i.i.i.i.i, 8
; call __rustc::__rust_no_alloc_shim_is_unstable_v2
  tail call void @_RNvCsKhRCbHf33p_7___rustc35___rust_no_alloc_shim_is_unstable_v2() #23, !noalias !291
; call __rustc::__rust_alloc
  %2 = tail call noundef align 8 ptr @_RNvCsKhRCbHf33p_7___rustc12___rust_alloc(i64 noundef %new_size2.i.i.i.i.i, i64 noundef range(i64 1, 9) 8) #23, !noalias !291
  %3 = icmp eq ptr %2, null
  br i1 %3, label %bb3.i.i.i, label %bb3.i.i.i.i.i.i.preheader

bb3.i.i.i.i.i.i.preheader:                        ; preds = %bb3.i.i.i.i
  %min.iters.check = icmp ult i64 %_0.sroa.0.0.i.i, 8
  br i1 %min.iters.check, label %bb3.i.i.i.i.i.i.preheader14, label %vector.ph

vector.ph:                                        ; preds = %bb3.i.i.i.i.i.i.preheader
  %n.vec = and i64 %_0.sroa.0.0.i.i, -8
  %4 = or disjoint i64 %n.vec, 1
  br label %vector.body

vector.body:                                      ; preds = %vector.body, %vector.ph
  %index = phi i64 [ 0, %vector.ph ], [ %index.next, %vector.body ]
  %vec.ind = phi <2 x i64> [ <i64 1, i64 2>, %vector.ph ], [ %vec.ind.next, %vector.body ]
  %step.add = add <2 x i64> %vec.ind, splat (i64 2)
  %step.add.2 = add <2 x i64> %vec.ind, splat (i64 4)
  %step.add.3 = add <2 x i64> %vec.ind, splat (i64 6)
  %5 = getelementptr inbounds nuw i64, ptr %2, i64 %index
  %6 = getelementptr inbounds nuw i8, ptr %5, i64 16
  %7 = getelementptr inbounds nuw i8, ptr %5, i64 32
  %8 = getelementptr inbounds nuw i8, ptr %5, i64 48
  store <2 x i64> %vec.ind, ptr %5, align 8, !noalias !296
  store <2 x i64> %step.add, ptr %6, align 8, !noalias !296
  store <2 x i64> %step.add.2, ptr %7, align 8, !noalias !296
  store <2 x i64> %step.add.3, ptr %8, align 8, !noalias !296
  %index.next = add nuw i64 %index, 8
  %vec.ind.next = add <2 x i64> %vec.ind, splat (i64 8)
  %9 = icmp eq i64 %index.next, %n.vec
  br i1 %9, label %middle.block, label %vector.body, !llvm.loop !309

middle.block:                                     ; preds = %vector.body
  %cmp.n = icmp eq i64 %_0.sroa.0.0.i.i, %n.vec
  br i1 %cmp.n, label %bb4.i, label %bb3.i.i.i.i.i.i.preheader14

bb3.i.i.i.i.i.i.preheader14:                      ; preds = %bb3.i.i.i.i.i.i.preheader, %middle.block
  %.ph = phi i64 [ 0, %bb3.i.i.i.i.i.i.preheader ], [ %n.vec, %middle.block ]
  %self.sroa.0.012.i.i.i.i.i.i.ph = phi i64 [ 1, %bb3.i.i.i.i.i.i.preheader ], [ %4, %middle.block ]
  br label %bb3.i.i.i.i.i.i

bb3.i.i.i:                                        ; preds = %bb3.i.i.i.i, %bb6.i.i.i.i.i
  %_4.sroa.4.0.ph.i.i.i = phi i64 [ 8, %bb3.i.i.i.i ], [ 0, %bb6.i.i.i.i.i ]
  %_4.sroa.10.0.ph.i.i.i = phi i64 [ %new_size2.i.i.i.i.i, %bb3.i.i.i.i ], [ undef, %bb6.i.i.i.i.i ]
; call alloc::raw_vec::handle_error
  tail call void @_RNvNtCsdJPVW0sQgAG_5alloc7raw_vec12handle_error(i64 noundef %_4.sroa.4.0.ph.i.i.i, i64 %_4.sroa.10.0.ph.i.i.i) #24, !noalias !310
  unreachable

bb3.i.i.i.i.i.i:                                  ; preds = %bb3.i.i.i.i.i.i.preheader14, %bb3.i.i.i.i.i.i
  %10 = phi i64 [ %11, %bb3.i.i.i.i.i.i ], [ %.ph, %bb3.i.i.i.i.i.i.preheader14 ]
  %self.sroa.0.012.i.i.i.i.i.i = phi i64 [ %_0.i1.i.i.i.i.i.i.i.i, %bb3.i.i.i.i.i.i ], [ %self.sroa.0.012.i.i.i.i.i.i.ph, %bb3.i.i.i.i.i.i.preheader14 ]
  %_0.i1.i.i.i.i.i.i.i.i = add nuw i64 %self.sroa.0.012.i.i.i.i.i.i, 1
  %_3.i.i.i.i.i.i.i.i = getelementptr inbounds nuw i64, ptr %2, i64 %10
  store i64 %self.sroa.0.012.i.i.i.i.i.i, ptr %_3.i.i.i.i.i.i.i.i, align 8, !noalias !296
  %11 = add nuw i64 %10, 1
  %exitcond.not.i.i.i.i.i.i = icmp eq i64 %self.sroa.0.012.i.i.i.i.i.i, %_0.sroa.0.0.i.i
  br i1 %exitcond.not.i.i.i.i.i.i, label %bb4.i, label %bb3.i.i.i.i.i.i, !llvm.loop !311

bb2.i.i.i4.i.i:                                   ; preds = %cleanup5.i
  %alloc_size.i.i.i.i5.i.i = shl nuw i64 %spec.select.i.i.i, 3
; call __rustc::__rust_dealloc
  tail call void @_RNvCsKhRCbHf33p_7___rustc14___rust_dealloc(ptr noundef nonnull %_4.sroa.10.0.i7.i.i, i64 noundef %alloc_size.i.i.i.i5.i.i, i64 noundef range(i64 1, -9223372036854775807) 8) #23
  br label %bb27.i

bb4.i:                                            ; preds = %bb3.i.i.i.i.i.i, %middle.block, %_RNvXNtNtCsjMrxcFdYDNN_4core3str4iterNtB2_5CharsNtNtNtNtB6_4iter6traits8iterator8Iterator5count.exit.i
  %_4.sroa.10.0.i7.i.i = phi ptr [ inttoptr (i64 8 to ptr), %_RNvXNtNtCsjMrxcFdYDNN_4core3str4iterNtB2_5CharsNtNtNtNtB6_4iter6traits8iterator8Iterator5count.exit.i ], [ %2, %middle.block ], [ %2, %bb3.i.i.i.i.i.i ]
  %f.val4.i.i.i.i.i.i = phi i64 [ 0, %_RNvXNtNtCsjMrxcFdYDNN_4core3str4iterNtB2_5CharsNtNtNtNtB6_4iter6traits8iterator8Iterator5count.exit.i ], [ %_0.sroa.0.0.i.i, %middle.block ], [ %_0.sroa.0.0.i.i, %bb3.i.i.i.i.i.i ]
  %_8.i26.i = getelementptr inbounds nuw i8, ptr %a.0, i64 %a.1
  %_6.i.i.not.i.i40.i = icmp samesign eq i64 %a.1, 0
  br i1 %_6.i.i.not.i.i40.i, label %bb9.i, label %bb14.i.i.i.lr.ph.i

bb14.i.i.i.lr.ph.i:                               ; preds = %bb4.i
  %_6.i.i.not.i.i3534.i = icmp eq i64 %b.1, 0
  br i1 %_6.i.i.not.i.i3534.i, label %bb14.i.i.i.us.i, label %bb14.i.i.i.i

bb14.i.i.i.us.i:                                  ; preds = %bb14.i.i.i.lr.ph.i, %bb11.us.i
  %b_len.sroa.0.043.us.i = phi i64 [ %_8.0.i16.us.i, %bb11.us.i ], [ %_0.sroa.0.0.i.i, %bb14.i.i.i.lr.ph.i ]
  %iter.sroa.10.042.us.i = phi i64 [ %_8.0.i16.us.i, %bb11.us.i ], [ 0, %bb14.i.i.i.lr.ph.i ]
  %iter.sroa.0.041.us.i = phi ptr [ %iter.sroa.0.114.us.i, %bb11.us.i ], [ %a.0, %bb14.i.i.i.lr.ph.i ]
  %_16.i.i.i.i.us.i = getelementptr inbounds nuw i8, ptr %iter.sroa.0.041.us.i, i64 1
  %x.i.i.i.us.i = load i8, ptr %iter.sroa.0.041.us.i, align 1, !noalias !312, !noundef !17
  %_6.i.i.i.us.i = icmp sgt i8 %x.i.i.i.us.i, -1
  br i1 %_6.i.i.i.us.i, label %bb11.us.i, label %bb4.i.i.i.us.i

bb4.i.i.i.us.i:                                   ; preds = %bb14.i.i.i.us.i
  %init.i.i.i.us.i = zext i8 %x.i.i.i.us.i to i32
  %_6.i10.i.i.i.us.i = icmp ne ptr %_16.i.i.i.i.us.i, %_8.i26.i
  tail call void @llvm.assume(i1 %_6.i10.i.i.i.us.i)
  %_16.i12.i.i.i.us.i = getelementptr inbounds nuw i8, ptr %iter.sroa.0.041.us.i, i64 2
  %_13.i.i.i.us.i = icmp samesign ugt i8 %x.i.i.i.us.i, -33
  br i1 %_13.i.i.i.us.i, label %bb6.i.i.i.us.i, label %bb11.us.i

bb6.i.i.i.us.i:                                   ; preds = %bb4.i.i.i.us.i
  %y.i.i.i.us.i = load i8, ptr %_16.i.i.i.i.us.i, align 1, !noalias !312, !noundef !17
  %_6.i17.i.i.i.us.i = icmp ne ptr %_16.i12.i.i.i.us.i, %_8.i26.i
  tail call void @llvm.assume(i1 %_6.i17.i.i.i.us.i)
  %_16.i19.i.i.i.us.i = getelementptr inbounds nuw i8, ptr %iter.sroa.0.041.us.i, i64 3
  %_21.i.i.i.us.i = icmp samesign ugt i8 %x.i.i.i.us.i, -17
  br i1 %_21.i.i.i.us.i, label %_RNvXNtNtCsjMrxcFdYDNN_4core3str4iterNtB2_5CharsNtNtNtNtB6_4iter6traits8iterator8Iterator4next.exit.i.us.i, label %bb11.us.i

_RNvXNtNtCsjMrxcFdYDNN_4core3str4iterNtB2_5CharsNtNtNtNtB6_4iter6traits8iterator8Iterator4next.exit.i.us.i: ; preds = %bb6.i.i.i.us.i
  %z.i.i.i.us.i = load i8, ptr %_16.i12.i.i.i.us.i, align 1, !noalias !312, !noundef !17
  %_40.i.i.i.us.i = and i8 %z.i.i.i.us.i, 63
  %_39.i.i.i.us.i = zext nneg i8 %_40.i.i.i.us.i to i32
  %_35.i.i.i.us.i = and i8 %y.i.i.i.us.i, 63
  %_34.i.i.i.us.i = zext nneg i8 %_35.i.i.i.us.i to i32
  %_6.i24.i.i.i.us.i = icmp ne ptr %_16.i19.i.i.i.us.i, %_8.i26.i
  tail call void @llvm.assume(i1 %_6.i24.i.i.i.us.i)
  %w.i.i.i.us.i = load i8, ptr %_16.i19.i.i.i.us.i, align 1, !noalias !312, !noundef !17
  %_26.i.i.i.us.i = shl nuw nsw i32 %init.i.i.i.us.i, 18
  %_25.i.i.i.us.i = and i32 %_26.i.i.i.us.i, 1835008
  %12 = shl nuw nsw i32 %_34.i.i.i.us.i, 12
  %13 = shl nuw nsw i32 %_39.i.i.i.us.i, 6
  %_43.i.i.i.us.i = or disjoint i32 %13, %12
  %_45.i.i.i.us.i = and i8 %w.i.i.i.us.i, 63
  %_44.i.i.i.us.i = zext nneg i8 %_45.i.i.i.us.i to i32
  %_27.i.i.i.us.i = or disjoint i32 %_43.i.i.i.us.i, %_44.i.i.i.us.i
  %14 = or disjoint i32 %_27.i.i.i.us.i, %_25.i.i.i.us.i
  %.not.i.us.i = icmp eq i32 %14, 1114112
  br i1 %.not.i.us.i, label %bb9.i, label %bb6.us.i

bb6.us.i:                                         ; preds = %_RNvXNtNtCsjMrxcFdYDNN_4core3str4iterNtB2_5CharsNtNtNtNtB6_4iter6traits8iterator8Iterator4next.exit.i.us.i
  %_16.i26.i.i.i.us.i = getelementptr inbounds nuw i8, ptr %iter.sroa.0.041.us.i, i64 4
  br label %bb11.us.i

bb11.us.i:                                        ; preds = %bb6.us.i, %bb6.i.i.i.us.i, %bb4.i.i.i.us.i, %bb14.i.i.i.us.i
  %iter.sroa.0.114.us.i = phi ptr [ %_16.i26.i.i.i.us.i, %bb6.us.i ], [ %_16.i12.i.i.i.us.i, %bb4.i.i.i.us.i ], [ %_16.i19.i.i.i.us.i, %bb6.i.i.i.us.i ], [ %_16.i.i.i.i.us.i, %bb14.i.i.i.us.i ]
  %_8.0.i16.us.i = add i64 %iter.sroa.10.042.us.i, 1
  %_6.i.i.not.i.i.us.i = icmp eq ptr %iter.sroa.0.114.us.i, %_8.i26.i
  br i1 %_6.i.i.not.i.i.us.i, label %bb9.i, label %bb14.i.i.i.us.i

bb14.i.i.i.i:                                     ; preds = %bb14.i.i.i.lr.ph.i, %bb15.i
  %b_len.sroa.0.043.i = phi i64 [ %b_len.sroa.0.1.lcssa.i, %bb15.i ], [ %_0.sroa.0.0.i.i, %bb14.i.i.i.lr.ph.i ]
  %iter.sroa.10.042.i = phi i64 [ %_8.0.i16.i, %bb15.i ], [ 0, %bb14.i.i.i.lr.ph.i ]
  %iter.sroa.0.041.i = phi ptr [ %iter.sroa.0.114.i, %bb15.i ], [ %a.0, %bb14.i.i.i.lr.ph.i ]
  %_16.i.i.i.i.i = getelementptr inbounds nuw i8, ptr %iter.sroa.0.041.i, i64 1
  %x.i.i.i.i = load i8, ptr %iter.sroa.0.041.i, align 1, !noalias !312, !noundef !17
  %_6.i.i.i.i = icmp sgt i8 %x.i.i.i.i, -1
  br i1 %_6.i.i.i.i, label %bb3.i.i.i28.i, label %bb4.i.i.i.i

bb4.i.i.i.i:                                      ; preds = %bb14.i.i.i.i
  %_30.i.i.i.i = and i8 %x.i.i.i.i, 31
  %init.i.i.i.i = zext nneg i8 %_30.i.i.i.i to i32
  %_6.i10.i.i.i.i = icmp ne ptr %_16.i.i.i.i.i, %_8.i26.i
  tail call void @llvm.assume(i1 %_6.i10.i.i.i.i)
  %_16.i12.i.i.i.i = getelementptr inbounds nuw i8, ptr %iter.sroa.0.041.i, i64 2
  %y.i.i.i.i = load i8, ptr %_16.i.i.i.i.i, align 1, !noalias !312, !noundef !17
  %_33.i.i.i.i = shl nuw nsw i32 %init.i.i.i.i, 6
  %_35.i.i.i.i = and i8 %y.i.i.i.i, 63
  %_34.i.i.i.i = zext nneg i8 %_35.i.i.i.i to i32
  %15 = or disjoint i32 %_33.i.i.i.i, %_34.i.i.i.i
  %_13.i.i.i.i = icmp samesign ugt i8 %x.i.i.i.i, -33
  br i1 %_13.i.i.i.i, label %bb6.i.i.i.i, label %bb11.i

bb3.i.i.i28.i:                                    ; preds = %bb14.i.i.i.i
  %_7.i.i.i.i = zext nneg i8 %x.i.i.i.i to i32
  br label %bb11.i

bb6.i.i.i.i:                                      ; preds = %bb4.i.i.i.i
  %_6.i17.i.i.i.i = icmp ne ptr %_16.i12.i.i.i.i, %_8.i26.i
  tail call void @llvm.assume(i1 %_6.i17.i.i.i.i)
  %_16.i19.i.i.i.i = getelementptr inbounds nuw i8, ptr %iter.sroa.0.041.i, i64 3
  %z.i.i.i.i = load i8, ptr %_16.i12.i.i.i.i, align 1, !noalias !312, !noundef !17
  %_38.i.i.i.i = shl nuw nsw i32 %_34.i.i.i.i, 6
  %_40.i.i.i.i = and i8 %z.i.i.i.i, 63
  %_39.i.i.i.i = zext nneg i8 %_40.i.i.i.i to i32
  %y_z.i.i.i.i = or disjoint i32 %_38.i.i.i.i, %_39.i.i.i.i
  %_20.i.i.i.i = shl nuw nsw i32 %init.i.i.i.i, 12
  %16 = or disjoint i32 %y_z.i.i.i.i, %_20.i.i.i.i
  %_21.i.i.i.i = icmp samesign ugt i8 %x.i.i.i.i, -17
  br i1 %_21.i.i.i.i, label %_RNvXNtNtCsjMrxcFdYDNN_4core3str4iterNtB2_5CharsNtNtNtNtB6_4iter6traits8iterator8Iterator4next.exit.i.i, label %bb11.i

_RNvXNtNtCsjMrxcFdYDNN_4core3str4iterNtB2_5CharsNtNtNtNtB6_4iter6traits8iterator8Iterator4next.exit.i.i: ; preds = %bb6.i.i.i.i
  %_6.i24.i.i.i.i = icmp ne ptr %_16.i19.i.i.i.i, %_8.i26.i
  tail call void @llvm.assume(i1 %_6.i24.i.i.i.i)
  %w.i.i.i.i = load i8, ptr %_16.i19.i.i.i.i, align 1, !noalias !312, !noundef !17
  %_26.i.i.i.i = shl nuw nsw i32 %init.i.i.i.i, 18
  %_25.i.i.i.i = and i32 %_26.i.i.i.i, 1835008
  %_43.i.i.i.i = shl nuw nsw i32 %y_z.i.i.i.i, 6
  %_45.i.i.i.i = and i8 %w.i.i.i.i, 63
  %_44.i.i.i.i = zext nneg i8 %_45.i.i.i.i to i32
  %_27.i.i.i.i = or disjoint i32 %_43.i.i.i.i, %_44.i.i.i.i
  %17 = or disjoint i32 %_27.i.i.i.i, %_25.i.i.i.i
  %.not.i.i = icmp eq i32 %17, 1114112
  br i1 %.not.i.i, label %bb9.i, label %bb6.i

bb6.i:                                            ; preds = %_RNvXNtNtCsjMrxcFdYDNN_4core3str4iterNtB2_5CharsNtNtNtNtB6_4iter6traits8iterator8Iterator4next.exit.i.i
  %_16.i26.i.i.i.i = getelementptr inbounds nuw i8, ptr %iter.sroa.0.041.i, i64 4
  br label %bb11.i

bb9.i:                                            ; preds = %bb15.i, %_RNvXNtNtCsjMrxcFdYDNN_4core3str4iterNtB2_5CharsNtNtNtNtB6_4iter6traits8iterator8Iterator4next.exit.i.i, %bb11.us.i, %_RNvXNtNtCsjMrxcFdYDNN_4core3str4iterNtB2_5CharsNtNtNtNtB6_4iter6traits8iterator8Iterator4next.exit.i.us.i, %bb4.i
  %b_len.sroa.0.0.lcssa.i = phi i64 [ %_0.sroa.0.0.i.i, %bb4.i ], [ %b_len.sroa.0.043.us.i, %_RNvXNtNtCsjMrxcFdYDNN_4core3str4iterNtB2_5CharsNtNtNtNtB6_4iter6traits8iterator8Iterator4next.exit.i.us.i ], [ %_8.0.i16.us.i, %bb11.us.i ], [ %b_len.sroa.0.043.i, %_RNvXNtNtCsjMrxcFdYDNN_4core3str4iterNtB2_5CharsNtNtNtNtB6_4iter6traits8iterator8Iterator4next.exit.i.i ], [ %b_len.sroa.0.1.lcssa.i, %bb15.i ]
  %18 = icmp ult i64 %_6.i, 2
  br i1 %18, label %_RINvCs6KJnav5oeQt_6strsim19generic_levenshteinNtB2_13StringWrapperBI_ccEB2_.exit, label %bb2.i.i.i4.i30.i

bb2.i.i.i4.i30.i:                                 ; preds = %bb9.i
  %alloc_size.i.i.i.i5.i31.i = shl nuw i64 %spec.select.i.i.i, 3
; call __rustc::__rust_dealloc
  tail call void @_RNvCsKhRCbHf33p_7___rustc14___rust_dealloc(ptr noundef nonnull %_4.sroa.10.0.i7.i.i, i64 noundef %alloc_size.i.i.i.i5.i31.i, i64 noundef range(i64 1, -9223372036854775807) 8) #23
  br label %_RINvCs6KJnav5oeQt_6strsim19generic_levenshteinNtB2_13StringWrapperBI_ccEB2_.exit

bb11.i:                                           ; preds = %bb6.i, %bb6.i.i.i.i, %bb3.i.i.i28.i, %bb4.i.i.i.i
  %spec.select.i5.i15.i = phi i32 [ %17, %bb6.i ], [ %15, %bb4.i.i.i.i ], [ %16, %bb6.i.i.i.i ], [ %_7.i.i.i.i, %bb3.i.i.i28.i ]
  %iter.sroa.0.114.i = phi ptr [ %_16.i26.i.i.i.i, %bb6.i ], [ %_16.i12.i.i.i.i, %bb4.i.i.i.i ], [ %_16.i19.i.i.i.i, %bb6.i.i.i.i ], [ %_16.i.i.i.i.i, %bb3.i.i.i28.i ]
  %_8.0.i16.i = add i64 %iter.sroa.10.042.i, 1
  br label %bb14.i.i.i36.i

bb14.i.i.i36.i:                                   ; preds = %bb32.i, %bb11.i
  %b_len.sroa.0.138.i = phi i64 [ %_8.0.i16.i, %bb11.i ], [ %_0.sroa.0.0.i81.i, %bb32.i ]
  %i.sroa.0.037.i = phi i64 [ %iter.sroa.10.042.i, %bb11.i ], [ %24, %bb32.i ]
  %iter1.sroa.10.036.i = phi i64 [ 0, %bb11.i ], [ %_8.0.i5330.i, %bb32.i ]
  %iter1.sroa.0.035.i = phi ptr [ %b.0, %bb11.i ], [ %iter1.sroa.0.128.i, %bb32.i ]
  %_16.i.i.i.i37.i = getelementptr inbounds nuw i8, ptr %iter1.sroa.0.035.i, i64 1
  %x.i.i.i38.i = load i8, ptr %iter1.sroa.0.035.i, align 1, !noalias !319, !noundef !17
  %_6.i.i.i39.i = icmp sgt i8 %x.i.i.i38.i, -1
  br i1 %_6.i.i.i39.i, label %bb3.i.i.i77.i, label %bb4.i.i.i40.i

bb4.i.i.i40.i:                                    ; preds = %bb14.i.i.i36.i
  %_30.i.i.i41.i = and i8 %x.i.i.i38.i, 31
  %init.i.i.i42.i = zext nneg i8 %_30.i.i.i41.i to i32
  %_6.i10.i.i.i43.i = icmp ne ptr %_16.i.i.i.i37.i, %_8.i.i
  tail call void @llvm.assume(i1 %_6.i10.i.i.i43.i)
  %_16.i12.i.i.i44.i = getelementptr inbounds nuw i8, ptr %iter1.sroa.0.035.i, i64 2
  %y.i.i.i45.i = load i8, ptr %_16.i.i.i.i37.i, align 1, !noalias !319, !noundef !17
  %_33.i.i.i46.i = shl nuw nsw i32 %init.i.i.i42.i, 6
  %_35.i.i.i47.i = and i8 %y.i.i.i45.i, 63
  %_34.i.i.i48.i = zext nneg i8 %_35.i.i.i47.i to i32
  %19 = or disjoint i32 %_33.i.i.i46.i, %_34.i.i.i48.i
  %_13.i.i.i49.i = icmp samesign ugt i8 %x.i.i.i38.i, -33
  br i1 %_13.i.i.i49.i, label %bb6.i.i.i56.i, label %bb16.i

bb3.i.i.i77.i:                                    ; preds = %bb14.i.i.i36.i
  %_7.i.i.i78.i = zext nneg i8 %x.i.i.i38.i to i32
  br label %bb16.i

bb6.i.i.i56.i:                                    ; preds = %bb4.i.i.i40.i
  %_6.i17.i.i.i57.i = icmp ne ptr %_16.i12.i.i.i44.i, %_8.i.i
  tail call void @llvm.assume(i1 %_6.i17.i.i.i57.i)
  %_16.i19.i.i.i58.i = getelementptr inbounds nuw i8, ptr %iter1.sroa.0.035.i, i64 3
  %z.i.i.i59.i = load i8, ptr %_16.i12.i.i.i44.i, align 1, !noalias !319, !noundef !17
  %_38.i.i.i60.i = shl nuw nsw i32 %_34.i.i.i48.i, 6
  %_40.i.i.i61.i = and i8 %z.i.i.i59.i, 63
  %_39.i.i.i62.i = zext nneg i8 %_40.i.i.i61.i to i32
  %y_z.i.i.i63.i = or disjoint i32 %_38.i.i.i60.i, %_39.i.i.i62.i
  %_20.i.i.i64.i = shl nuw nsw i32 %init.i.i.i42.i, 12
  %20 = or disjoint i32 %y_z.i.i.i63.i, %_20.i.i.i64.i
  %_21.i.i.i65.i = icmp samesign ugt i8 %x.i.i.i38.i, -17
  br i1 %_21.i.i.i65.i, label %_RNvXNtNtCsjMrxcFdYDNN_4core3str4iterNtB2_5CharsNtNtNtNtB6_4iter6traits8iterator8Iterator4next.exit.i66.i, label %bb16.i

_RNvXNtNtCsjMrxcFdYDNN_4core3str4iterNtB2_5CharsNtNtNtNtB6_4iter6traits8iterator8Iterator4next.exit.i66.i: ; preds = %bb6.i.i.i56.i
  %_6.i24.i.i.i67.i = icmp ne ptr %_16.i19.i.i.i58.i, %_8.i.i
  tail call void @llvm.assume(i1 %_6.i24.i.i.i67.i)
  %w.i.i.i69.i = load i8, ptr %_16.i19.i.i.i58.i, align 1, !noalias !319, !noundef !17
  %_26.i.i.i70.i = shl nuw nsw i32 %init.i.i.i42.i, 18
  %_25.i.i.i71.i = and i32 %_26.i.i.i70.i, 1835008
  %_43.i.i.i72.i = shl nuw nsw i32 %y_z.i.i.i63.i, 6
  %_45.i.i.i73.i = and i8 %w.i.i.i69.i, 63
  %_44.i.i.i74.i = zext nneg i8 %_45.i.i.i73.i to i32
  %_27.i.i.i75.i = or disjoint i32 %_43.i.i.i72.i, %_44.i.i.i74.i
  %21 = or disjoint i32 %_27.i.i.i75.i, %_25.i.i.i71.i
  %.not.i76.i = icmp eq i32 %21, 1114112
  br i1 %.not.i76.i, label %bb15.i, label %bb13.i

bb13.i:                                           ; preds = %_RNvXNtNtCsjMrxcFdYDNN_4core3str4iterNtB2_5CharsNtNtNtNtB6_4iter6traits8iterator8Iterator4next.exit.i66.i
  %_16.i26.i.i.i68.i = getelementptr inbounds nuw i8, ptr %iter1.sroa.0.035.i, i64 4
  br label %bb16.i

bb15.i:                                           ; preds = %bb32.i, %_RNvXNtNtCsjMrxcFdYDNN_4core3str4iterNtB2_5CharsNtNtNtNtB6_4iter6traits8iterator8Iterator4next.exit.i66.i
  %b_len.sroa.0.1.lcssa.i = phi i64 [ %_0.sroa.0.0.i81.i, %bb32.i ], [ %b_len.sroa.0.138.i, %_RNvXNtNtCsjMrxcFdYDNN_4core3str4iterNtB2_5CharsNtNtNtNtB6_4iter6traits8iterator8Iterator4next.exit.i66.i ]
  %_6.i.i.not.i.i.i = icmp eq ptr %iter.sroa.0.114.i, %_8.i26.i
  br i1 %_6.i.i.not.i.i.i, label %bb9.i, label %bb14.i.i.i.i

cleanup5.i:                                       ; preds = %panic.i
  %22 = landingpad { ptr, i32 }
          cleanup
  %23 = icmp ult i64 %_6.i, 2
  br i1 %23, label %bb27.i, label %bb2.i.i.i4.i.i

bb16.i:                                           ; preds = %bb13.i, %bb6.i.i.i56.i, %bb3.i.i.i77.i, %bb4.i.i.i40.i
  %spec.select.i5.i5129.i = phi i32 [ %21, %bb13.i ], [ %19, %bb4.i.i.i40.i ], [ %20, %bb6.i.i.i56.i ], [ %_7.i.i.i78.i, %bb3.i.i.i77.i ]
  %iter1.sroa.0.128.i = phi ptr [ %_16.i26.i.i.i68.i, %bb13.i ], [ %_16.i12.i.i.i44.i, %bb4.i.i.i40.i ], [ %_16.i19.i.i.i58.i, %bb6.i.i.i56.i ], [ %_16.i.i.i.i37.i, %bb3.i.i.i77.i ]
  %exitcond.not.i = icmp eq i64 %iter1.sroa.10.036.i, %f.val4.i.i.i.i.i.i
  br i1 %exitcond.not.i, label %panic.i, label %bb32.i

panic.i:                                          ; preds = %bb16.i
; invoke core::panicking::panic_bounds_check
  invoke void @_RNvNtCsjMrxcFdYDNN_4core9panicking18panic_bounds_check(i64 noundef %f.val4.i.i.i.i.i.i, i64 noundef %f.val4.i.i.i.i.i.i, ptr noalias noundef readonly align 8 captures(address, read_provenance) dereferenceable(24) @alloc_33490829e982a20313b24b098088ff01) #24
          to label %unreachable.i unwind label %cleanup5.i

unreachable.i:                                    ; preds = %panic.i
  unreachable

bb32.i:                                           ; preds = %bb16.i
  %_0.i.i = icmp ne i32 %spec.select.i5.i15.i, %spec.select.i5.i5129.i
  %_8.0.i5330.i = add nuw i64 %iter1.sroa.10.036.i, 1
  %cost.i = zext i1 %_0.i.i to i64
  %distance_a.i = add i64 %i.sroa.0.037.i, %cost.i
  %_28.i = getelementptr inbounds nuw i64, ptr %_4.sroa.10.0.i7.i.i, i64 %iter1.sroa.10.036.i
  %24 = load i64, ptr %_28.i, align 8, !noundef !17
  %_31.i = add i64 %24, 1
  %_0.sroa.0.0.i80.i = tail call noundef i64 @llvm.umin.i64(i64 %_31.i, i64 %distance_a.i)
  %_29.i = add i64 %b_len.sroa.0.138.i, 1
  %_0.sroa.0.0.i81.i = tail call noundef i64 @llvm.umin.i64(i64 %_0.sroa.0.0.i80.i, i64 %_29.i)
  store i64 %_0.sroa.0.0.i81.i, ptr %_28.i, align 8
  %_6.i.i.not.i.i35.i = icmp eq ptr %iter1.sroa.0.128.i, %_8.i.i
  br i1 %_6.i.i.not.i.i35.i, label %bb15.i, label %bb14.i.i.i36.i

bb27.i:                                           ; preds = %cleanup5.i, %bb2.i.i.i4.i.i
  resume { ptr, i32 } %22

_RINvCs6KJnav5oeQt_6strsim19generic_levenshteinNtB2_13StringWrapperBI_ccEB2_.exit: ; preds = %bb9.i, %bb2.i.i.i4.i30.i
  ret i64 %b_len.sroa.0.0.lcssa.i
}

; strsim::jaro_winkler
; Function Attrs: uwtable
define noundef double @_RNvCs6KJnav5oeQt_6strsim12jaro_winkler(ptr noalias noundef nonnull readonly align 1 captures(address, read_provenance) %a.0, i64 noundef %a.1, ptr noalias noundef nonnull readonly align 1 captures(address, read_provenance) %b.0, i64 noundef %b.1) unnamed_addr #0 personality ptr @rust_eh_personality {
start:
; call strsim::generic_jaro::<strsim::StringWrapper, strsim::StringWrapper, char, char>
  %sim.i = tail call fastcc noundef double @_RINvCs6KJnav5oeQt_6strsim12generic_jaroNtB2_13StringWrapperBB_ccEB2_(ptr nonnull %a.0, i64 %a.1, ptr nonnull %b.0, i64 %b.1)
  %_4.i = fcmp ogt double %sim.i, 0x3FE6666666666666
  br i1 %_4.i, label %bb1.i.i.i.lr.ph.i.i.i.i, label %_RINvCs6KJnav5oeQt_6strsim20generic_jaro_winklerNtB2_13StringWrapperBJ_ccEB2_.exit

bb1.i.i.i.lr.ph.i.i.i.i:                          ; preds = %start
  %_8.i.i = getelementptr inbounds nuw i8, ptr %a.0, i64 %a.1
  %_8.i.i.i = getelementptr inbounds nuw i8, ptr %b.0, i64 %b.1
  %_6.i.i.not.i.i.i.i.i.i.i.i = icmp samesign eq i64 %a.1, 0
  br i1 %_6.i.i.not.i.i.i.i.i.i.i.i, label %_RINvXs0_NtNtNtCsjMrxcFdYDNN_4core4iter8adapters10take_whileINtB6_9TakeWhileINtNtB8_3zip3ZipINtNtB8_4take4TakeNtNtNtBc_3str4iter5CharsEB1J_ENCINvCs6KJnav5oeQt_6strsim20generic_jaro_winklerNtB2i_13StringWrapperB2Z_ccE0ENtNtNtBa_6traits8iterator8Iterator4foldjNCNvYBV_B3t_5count0EB2i_.exit.i, label %bb14.i.i.i.i.i.i.i.i.i

bb14.i.i.i.i.i.i.i.i.i:                           ; preds = %bb1.i.i.i.lr.ph.i.i.i.i
  %_16.i.i.i.i.i.i.i.i.i.i = getelementptr inbounds nuw i8, ptr %a.0, i64 1
  %x.i.i.i.i.i.i.i.i.i = load i8, ptr %a.0, align 1, !noalias !326, !noundef !17
  %_6.i.i.i.i.i.i.i.i.i = icmp sgt i8 %x.i.i.i.i.i.i.i.i.i, -1
  br i1 %_6.i.i.i.i.i.i.i.i.i, label %bb3.i.i.i.i.i.i.i.i.i, label %bb4.i.i.i.i.i.i.i.i.i

bb4.i.i.i.i.i.i.i.i.i:                            ; preds = %bb14.i.i.i.i.i.i.i.i.i
  %_30.i.i.i.i.i.i.i.i.i = and i8 %x.i.i.i.i.i.i.i.i.i, 31
  %init.i.i.i.i.i.i.i.i.i = zext nneg i8 %_30.i.i.i.i.i.i.i.i.i to i32
  %_6.i10.i.i.i.i.i.i.i.i.i = icmp samesign ne i64 %a.1, 1
  tail call void @llvm.assume(i1 %_6.i10.i.i.i.i.i.i.i.i.i)
  %_16.i12.i.i.i.i.i.i.i.i.i = getelementptr inbounds nuw i8, ptr %a.0, i64 2
  %y.i.i.i.i.i.i.i.i.i = load i8, ptr %_16.i.i.i.i.i.i.i.i.i.i, align 1, !noalias !326, !noundef !17
  %_33.i.i.i.i.i.i.i.i.i = shl nuw nsw i32 %init.i.i.i.i.i.i.i.i.i, 6
  %_35.i.i.i.i.i.i.i.i.i = and i8 %y.i.i.i.i.i.i.i.i.i, 63
  %_34.i.i.i.i.i.i.i.i.i = zext nneg i8 %_35.i.i.i.i.i.i.i.i.i to i32
  %0 = or disjoint i32 %_33.i.i.i.i.i.i.i.i.i, %_34.i.i.i.i.i.i.i.i.i
  %_13.i.i.i.i.i.i.i.i.i = icmp samesign ugt i8 %x.i.i.i.i.i.i.i.i.i, -33
  br i1 %_13.i.i.i.i.i.i.i.i.i, label %bb6.i.i.i.i.i.i.i.i.i, label %bb9.i.i.i.i.i.i

bb3.i.i.i.i.i.i.i.i.i:                            ; preds = %bb14.i.i.i.i.i.i.i.i.i
  %_7.i.i.i.i.i.i.i.i.i = zext nneg i8 %x.i.i.i.i.i.i.i.i.i to i32
  br label %bb9.i.i.i.i.i.i

bb6.i.i.i.i.i.i.i.i.i:                            ; preds = %bb4.i.i.i.i.i.i.i.i.i
  %_6.i17.i.i.i.i.i.i.i.i.i = icmp samesign ne i64 %a.1, 2
  tail call void @llvm.assume(i1 %_6.i17.i.i.i.i.i.i.i.i.i)
  %_16.i19.i.i.i.i.i.i.i.i.i = getelementptr inbounds nuw i8, ptr %a.0, i64 3
  %z.i.i.i.i.i.i.i.i.i = load i8, ptr %_16.i12.i.i.i.i.i.i.i.i.i, align 1, !noalias !326, !noundef !17
  %_38.i.i.i.i.i.i.i.i.i = shl nuw nsw i32 %_34.i.i.i.i.i.i.i.i.i, 6
  %_40.i.i.i.i.i.i.i.i.i = and i8 %z.i.i.i.i.i.i.i.i.i, 63
  %_39.i.i.i.i.i.i.i.i.i = zext nneg i8 %_40.i.i.i.i.i.i.i.i.i to i32
  %y_z.i.i.i.i.i.i.i.i.i = or disjoint i32 %_38.i.i.i.i.i.i.i.i.i, %_39.i.i.i.i.i.i.i.i.i
  %_20.i.i.i.i.i.i.i.i.i = shl nuw nsw i32 %init.i.i.i.i.i.i.i.i.i, 12
  %1 = or disjoint i32 %y_z.i.i.i.i.i.i.i.i.i, %_20.i.i.i.i.i.i.i.i.i
  %_21.i.i.i.i.i.i.i.i.i = icmp samesign ugt i8 %x.i.i.i.i.i.i.i.i.i, -17
  br i1 %_21.i.i.i.i.i.i.i.i.i, label %_RNvXs_NtNtNtCsjMrxcFdYDNN_4core4iter8adapters4takeINtB4_4TakeNtNtNtBa_3str4iter5CharsENtNtNtB8_6traits8iterator8Iterator4nextCs6KJnav5oeQt_6strsim.exit.i.i.i.i.i.i, label %bb9.i.i.i.i.i.i

_RNvXs_NtNtNtCsjMrxcFdYDNN_4core4iter8adapters4takeINtB4_4TakeNtNtNtBa_3str4iter5CharsENtNtNtB8_6traits8iterator8Iterator4nextCs6KJnav5oeQt_6strsim.exit.i.i.i.i.i.i: ; preds = %bb6.i.i.i.i.i.i.i.i.i
  %_6.i24.i.i.i.i.i.i.i.i.i = icmp samesign ne i64 %a.1, 3
  tail call void @llvm.assume(i1 %_6.i24.i.i.i.i.i.i.i.i.i)
  %_16.i26.i.i.i.i.i.i.i.i.i = getelementptr inbounds nuw i8, ptr %a.0, i64 4
  %w.i.i.i.i.i.i.i.i.i = load i8, ptr %_16.i19.i.i.i.i.i.i.i.i.i, align 1, !noalias !326, !noundef !17
  %_26.i.i.i.i.i.i.i.i.i = shl nuw nsw i32 %init.i.i.i.i.i.i.i.i.i, 18
  %_25.i.i.i.i.i.i.i.i.i = and i32 %_26.i.i.i.i.i.i.i.i.i, 1835008
  %_43.i.i.i.i.i.i.i.i.i = shl nuw nsw i32 %y_z.i.i.i.i.i.i.i.i.i, 6
  %_45.i.i.i.i.i.i.i.i.i = and i8 %w.i.i.i.i.i.i.i.i.i, 63
  %_44.i.i.i.i.i.i.i.i.i = zext nneg i8 %_45.i.i.i.i.i.i.i.i.i to i32
  %_27.i.i.i.i.i.i.i.i.i = or disjoint i32 %_43.i.i.i.i.i.i.i.i.i, %_44.i.i.i.i.i.i.i.i.i
  %2 = or disjoint i32 %_27.i.i.i.i.i.i.i.i.i, %_25.i.i.i.i.i.i.i.i.i
  %.not.i.i.i.i.i.i = icmp eq i32 %2, 1114112
  br i1 %.not.i.i.i.i.i.i, label %_RINvXs0_NtNtNtCsjMrxcFdYDNN_4core4iter8adapters10take_whileINtB6_9TakeWhileINtNtB8_3zip3ZipINtNtB8_4take4TakeNtNtNtBc_3str4iter5CharsEB1J_ENCINvCs6KJnav5oeQt_6strsim20generic_jaro_winklerNtB2i_13StringWrapperB2Z_ccE0ENtNtNtBa_6traits8iterator8Iterator4foldjNCNvYBV_B3t_5count0EB2i_.exit.i, label %bb9.i.i.i.i.i.i

bb9.i.i.i.i.i.i:                                  ; preds = %_RNvXs_NtNtNtCsjMrxcFdYDNN_4core4iter8adapters4takeINtB4_4TakeNtNtNtBa_3str4iter5CharsENtNtNtB8_6traits8iterator8Iterator4nextCs6KJnav5oeQt_6strsim.exit.i.i.i.i.i.i, %bb6.i.i.i.i.i.i.i.i.i, %bb3.i.i.i.i.i.i.i.i.i, %bb4.i.i.i.i.i.i.i.i.i
  %_16.i26.i.i.i.i.i16.i.i.i.i = phi ptr [ %_16.i26.i.i.i.i.i.i.i.i.i, %_RNvXs_NtNtNtCsjMrxcFdYDNN_4core4iter8adapters4takeINtB4_4TakeNtNtNtBa_3str4iter5CharsENtNtNtB8_6traits8iterator8Iterator4nextCs6KJnav5oeQt_6strsim.exit.i.i.i.i.i.i ], [ %_16.i12.i.i.i.i.i.i.i.i.i, %bb4.i.i.i.i.i.i.i.i.i ], [ %_16.i19.i.i.i.i.i.i.i.i.i, %bb6.i.i.i.i.i.i.i.i.i ], [ %_16.i.i.i.i.i.i.i.i.i.i, %bb3.i.i.i.i.i.i.i.i.i ]
  %_0.sroa.0.0.i10.i.i.i.i.i.i = phi i32 [ %2, %_RNvXs_NtNtNtCsjMrxcFdYDNN_4core4iter8adapters4takeINtB4_4TakeNtNtNtBa_3str4iter5CharsENtNtNtB8_6traits8iterator8Iterator4nextCs6KJnav5oeQt_6strsim.exit.i.i.i.i.i.i ], [ %0, %bb4.i.i.i.i.i.i.i.i.i ], [ %1, %bb6.i.i.i.i.i.i.i.i.i ], [ %_7.i.i.i.i.i.i.i.i.i, %bb3.i.i.i.i.i.i.i.i.i ]
  %_6.i.i.not.i.i.i.i.i.i.i = icmp samesign eq i64 %b.1, 0
  br i1 %_6.i.i.not.i.i.i.i.i.i.i, label %_RINvXs0_NtNtNtCsjMrxcFdYDNN_4core4iter8adapters10take_whileINtB6_9TakeWhileINtNtB8_3zip3ZipINtNtB8_4take4TakeNtNtNtBc_3str4iter5CharsEB1J_ENCINvCs6KJnav5oeQt_6strsim20generic_jaro_winklerNtB2i_13StringWrapperB2Z_ccE0ENtNtNtBa_6traits8iterator8Iterator4foldjNCNvYBV_B3t_5count0EB2i_.exit.i, label %bb14.i.i.i.i.i.i.i.i

bb14.i.i.i.i.i.i.i.i:                             ; preds = %bb9.i.i.i.i.i.i
  %_16.i.i.i.i.i.i.i.i.i = getelementptr inbounds nuw i8, ptr %b.0, i64 1
  %x.i.i.i.i.i.i.i.i = load i8, ptr %b.0, align 1, !noalias !344, !noundef !17
  %_6.i.i.i.i.i.i.i.i = icmp sgt i8 %x.i.i.i.i.i.i.i.i, -1
  br i1 %_6.i.i.i.i.i.i.i.i, label %bb3.i.i.i.i.i.i.i.i, label %bb4.i.i.i.i.i.i.i.i

bb4.i.i.i.i.i.i.i.i:                              ; preds = %bb14.i.i.i.i.i.i.i.i
  %_30.i.i.i.i.i.i.i.i = and i8 %x.i.i.i.i.i.i.i.i, 31
  %init.i.i.i.i.i.i.i.i = zext nneg i8 %_30.i.i.i.i.i.i.i.i to i32
  %_6.i10.i.i.i.i.i.i.i.i = icmp samesign ne i64 %b.1, 1
  tail call void @llvm.assume(i1 %_6.i10.i.i.i.i.i.i.i.i)
  %_16.i12.i.i.i.i.i.i.i.i = getelementptr inbounds nuw i8, ptr %b.0, i64 2
  %y.i.i.i.i.i.i.i.i = load i8, ptr %_16.i.i.i.i.i.i.i.i.i, align 1, !noalias !344, !noundef !17
  %_33.i.i.i.i.i.i.i.i = shl nuw nsw i32 %init.i.i.i.i.i.i.i.i, 6
  %_35.i.i.i.i.i.i.i.i = and i8 %y.i.i.i.i.i.i.i.i, 63
  %_34.i.i.i.i.i.i.i.i = zext nneg i8 %_35.i.i.i.i.i.i.i.i to i32
  %3 = or disjoint i32 %_33.i.i.i.i.i.i.i.i, %_34.i.i.i.i.i.i.i.i
  %_13.i.i.i.i.i.i.i.i = icmp samesign ugt i8 %x.i.i.i.i.i.i.i.i, -33
  br i1 %_13.i.i.i.i.i.i.i.i, label %bb6.i.i.i.i.i.i.i.i, label %_RNvXs_NtNtNtCsjMrxcFdYDNN_4core4iter8adapters3zipINtB4_3ZipINtNtB6_4take4TakeNtNtNtBa_3str4iter5CharsEB1d_ENtNtNtB8_6traits8iterator8Iterator4nextCs6KJnav5oeQt_6strsim.exit.i.i.i.i

bb3.i.i.i.i.i.i.i.i:                              ; preds = %bb14.i.i.i.i.i.i.i.i
  %_7.i.i.i.i.i.i.i.i = zext nneg i8 %x.i.i.i.i.i.i.i.i to i32
  br label %_RNvXs_NtNtNtCsjMrxcFdYDNN_4core4iter8adapters3zipINtB4_3ZipINtNtB6_4take4TakeNtNtNtBa_3str4iter5CharsEB1d_ENtNtNtB8_6traits8iterator8Iterator4nextCs6KJnav5oeQt_6strsim.exit.i.i.i.i

bb6.i.i.i.i.i.i.i.i:                              ; preds = %bb4.i.i.i.i.i.i.i.i
  %_6.i17.i.i.i.i.i.i.i.i = icmp samesign ne i64 %b.1, 2
  tail call void @llvm.assume(i1 %_6.i17.i.i.i.i.i.i.i.i)
  %_16.i19.i.i.i.i.i.i.i.i = getelementptr inbounds nuw i8, ptr %b.0, i64 3
  %z.i.i.i.i.i.i.i.i = load i8, ptr %_16.i12.i.i.i.i.i.i.i.i, align 1, !noalias !344, !noundef !17
  %_38.i.i.i.i.i.i.i.i = shl nuw nsw i32 %_34.i.i.i.i.i.i.i.i, 6
  %_40.i.i.i.i.i.i.i.i = and i8 %z.i.i.i.i.i.i.i.i, 63
  %_39.i.i.i.i.i.i.i.i = zext nneg i8 %_40.i.i.i.i.i.i.i.i to i32
  %y_z.i.i.i.i.i.i.i.i = or disjoint i32 %_38.i.i.i.i.i.i.i.i, %_39.i.i.i.i.i.i.i.i
  %_20.i.i.i.i.i.i.i.i = shl nuw nsw i32 %init.i.i.i.i.i.i.i.i, 12
  %4 = or disjoint i32 %y_z.i.i.i.i.i.i.i.i, %_20.i.i.i.i.i.i.i.i
  %_21.i.i.i.i.i.i.i.i = icmp samesign ugt i8 %x.i.i.i.i.i.i.i.i, -17
  br i1 %_21.i.i.i.i.i.i.i.i, label %_RNvXNtNtCsjMrxcFdYDNN_4core3str4iterNtB2_5CharsNtNtNtNtB6_4iter6traits8iterator8Iterator4next.exit.i.i.i.i.i.i, label %_RNvXs_NtNtNtCsjMrxcFdYDNN_4core4iter8adapters3zipINtB4_3ZipINtNtB6_4take4TakeNtNtNtBa_3str4iter5CharsEB1d_ENtNtNtB8_6traits8iterator8Iterator4nextCs6KJnav5oeQt_6strsim.exit.i.i.i.i

_RNvXNtNtCsjMrxcFdYDNN_4core3str4iterNtB2_5CharsNtNtNtNtB6_4iter6traits8iterator8Iterator4next.exit.i.i.i.i.i.i: ; preds = %bb6.i.i.i.i.i.i.i.i
  %_6.i24.i.i.i.i.i.i.i.i = icmp samesign ne i64 %b.1, 3
  tail call void @llvm.assume(i1 %_6.i24.i.i.i.i.i.i.i.i)
  %_16.i26.i.i.i.i.i.i.i.i = getelementptr inbounds nuw i8, ptr %b.0, i64 4
  %w.i.i.i.i.i.i.i.i = load i8, ptr %_16.i19.i.i.i.i.i.i.i.i, align 1, !noalias !344, !noundef !17
  %_26.i.i.i.i.i.i.i.i = shl nuw nsw i32 %init.i.i.i.i.i.i.i.i, 18
  %_25.i.i.i.i.i.i.i.i = and i32 %_26.i.i.i.i.i.i.i.i, 1835008
  %_43.i.i.i.i.i.i.i.i = shl nuw nsw i32 %y_z.i.i.i.i.i.i.i.i, 6
  %_45.i.i.i.i.i.i.i.i = and i8 %w.i.i.i.i.i.i.i.i, 63
  %_44.i.i.i.i.i.i.i.i = zext nneg i8 %_45.i.i.i.i.i.i.i.i to i32
  %_27.i.i.i.i.i.i.i.i = or disjoint i32 %_43.i.i.i.i.i.i.i.i, %_44.i.i.i.i.i.i.i.i
  %5 = or disjoint i32 %_27.i.i.i.i.i.i.i.i, %_25.i.i.i.i.i.i.i.i
  %.fr.i.i.i.i.i.i = freeze i32 %5
  %.not6.i.i.i.i.i.i = icmp eq i32 %.fr.i.i.i.i.i.i, 1114112
  br i1 %.not6.i.i.i.i.i.i, label %_RINvXs0_NtNtNtCsjMrxcFdYDNN_4core4iter8adapters10take_whileINtB6_9TakeWhileINtNtB8_3zip3ZipINtNtB8_4take4TakeNtNtNtBc_3str4iter5CharsEB1J_ENCINvCs6KJnav5oeQt_6strsim20generic_jaro_winklerNtB2i_13StringWrapperB2Z_ccE0ENtNtNtBa_6traits8iterator8Iterator4foldjNCNvYBV_B3t_5count0EB2i_.exit.i, label %_RNvXs_NtNtNtCsjMrxcFdYDNN_4core4iter8adapters3zipINtB4_3ZipINtNtB6_4take4TakeNtNtNtBa_3str4iter5CharsEB1d_ENtNtNtB8_6traits8iterator8Iterator4nextCs6KJnav5oeQt_6strsim.exit.i.i.i.i

_RNvXs_NtNtNtCsjMrxcFdYDNN_4core4iter8adapters3zipINtB4_3ZipINtNtB6_4take4TakeNtNtNtBa_3str4iter5CharsEB1d_ENtNtNtB8_6traits8iterator8Iterator4nextCs6KJnav5oeQt_6strsim.exit.i.i.i.i: ; preds = %_RNvXNtNtCsjMrxcFdYDNN_4core3str4iterNtB2_5CharsNtNtNtNtB6_4iter6traits8iterator8Iterator4next.exit.i.i.i.i.i.i, %bb6.i.i.i.i.i.i.i.i, %bb3.i.i.i.i.i.i.i.i, %bb4.i.i.i.i.i.i.i.i
  %_16.i26.i.i.i.i31.i.i.i.i = phi ptr [ %_16.i12.i.i.i.i.i.i.i.i, %bb4.i.i.i.i.i.i.i.i ], [ %_16.i19.i.i.i.i.i.i.i.i, %bb6.i.i.i.i.i.i.i.i ], [ %_16.i.i.i.i.i.i.i.i.i, %bb3.i.i.i.i.i.i.i.i ], [ %_16.i26.i.i.i.i.i.i.i.i, %_RNvXNtNtCsjMrxcFdYDNN_4core3str4iterNtB2_5CharsNtNtNtNtB6_4iter6traits8iterator8Iterator4next.exit.i.i.i.i.i.i ]
  %_0.sroa.4.0.i.i.i.i.i.i = phi i32 [ %3, %bb4.i.i.i.i.i.i.i.i ], [ %4, %bb6.i.i.i.i.i.i.i.i ], [ %_7.i.i.i.i.i.i.i.i, %bb3.i.i.i.i.i.i.i.i ], [ %.fr.i.i.i.i.i.i, %_RNvXNtNtCsjMrxcFdYDNN_4core3str4iterNtB2_5CharsNtNtNtNtB6_4iter6traits8iterator8Iterator4next.exit.i.i.i.i.i.i ]
  %.not.i.i.i.i = icmp ne i32 %_0.sroa.0.0.i10.i.i.i.i.i.i, 1114112
  %_0.i.i.i.i.i.i.i = icmp eq i32 %_0.sroa.0.0.i10.i.i.i.i.i.i, %_0.sroa.4.0.i.i.i.i.i.i
  %or.cond.i.i = select i1 %.not.i.i.i.i, i1 %_0.i.i.i.i.i.i.i, i1 false
  br i1 %or.cond.i.i, label %_RNCINvNvXs0_NtNtNtCsjMrxcFdYDNN_4core4iter8adapters10take_whileINtBa_9TakeWhileppENtNtNtBe_6traits8iterator8Iterator8try_fold5checkTccEjINtNtNtBg_3ops9try_trait17NeverShortCircuitjENCINvCs6KJnav5oeQt_6strsim20generic_jaro_winklerNtB2Y_13StringWrapperB3F_ccE0NCINvMs0_B2d_B2a_10wrap_mut_2jB25_NCNvYIB10_INtNtBc_3zip3ZipINtNtBc_4take4TakeNtNtNtBg_3str4iter5CharsEB5o_EB2T_EB1i_5count0E0E0B2Y_.exit.i.i.i.i, label %_RINvXs0_NtNtNtCsjMrxcFdYDNN_4core4iter8adapters10take_whileINtB6_9TakeWhileINtNtB8_3zip3ZipINtNtB8_4take4TakeNtNtNtBc_3str4iter5CharsEB1J_ENCINvCs6KJnav5oeQt_6strsim20generic_jaro_winklerNtB2i_13StringWrapperB2Z_ccE0ENtNtNtBa_6traits8iterator8Iterator4foldjNCNvYBV_B3t_5count0EB2i_.exit.i

_RNCINvNvXs0_NtNtNtCsjMrxcFdYDNN_4core4iter8adapters10take_whileINtBa_9TakeWhileppENtNtNtBe_6traits8iterator8Iterator8try_fold5checkTccEjINtNtNtBg_3ops9try_trait17NeverShortCircuitjENCINvCs6KJnav5oeQt_6strsim20generic_jaro_winklerNtB2Y_13StringWrapperB3F_ccE0NCINvMs0_B2d_B2a_10wrap_mut_2jB25_NCNvYIB10_INtNtBc_3zip3ZipINtNtBc_4take4TakeNtNtNtBg_3str4iter5CharsEB5o_EB2T_EB1i_5count0E0E0B2Y_.exit.i.i.i.i: ; preds = %_RNvXs_NtNtNtCsjMrxcFdYDNN_4core4iter8adapters3zipINtB4_3ZipINtNtB6_4take4TakeNtNtNtBa_3str4iter5CharsEB1d_ENtNtNtB8_6traits8iterator8Iterator4nextCs6KJnav5oeQt_6strsim.exit.i.i.i.i
  %_6.i.i.not.i.i.i.i.i.i.i.1.i = icmp eq ptr %_16.i26.i.i.i.i.i16.i.i.i.i, %_8.i.i
  br i1 %_6.i.i.not.i.i.i.i.i.i.i.1.i, label %_RINvXs0_NtNtNtCsjMrxcFdYDNN_4core4iter8adapters10take_whileINtB6_9TakeWhileINtNtB8_3zip3ZipINtNtB8_4take4TakeNtNtNtBc_3str4iter5CharsEB1J_ENCINvCs6KJnav5oeQt_6strsim20generic_jaro_winklerNtB2i_13StringWrapperB2Z_ccE0ENtNtNtBa_6traits8iterator8Iterator4foldjNCNvYBV_B3t_5count0EB2i_.exit.i, label %bb14.i.i.i.i.i.i.i.i.1.i

bb14.i.i.i.i.i.i.i.i.1.i:                         ; preds = %_RNCINvNvXs0_NtNtNtCsjMrxcFdYDNN_4core4iter8adapters10take_whileINtBa_9TakeWhileppENtNtNtBe_6traits8iterator8Iterator8try_fold5checkTccEjINtNtNtBg_3ops9try_trait17NeverShortCircuitjENCINvCs6KJnav5oeQt_6strsim20generic_jaro_winklerNtB2Y_13StringWrapperB3F_ccE0NCINvMs0_B2d_B2a_10wrap_mut_2jB25_NCNvYIB10_INtNtBc_3zip3ZipINtNtBc_4take4TakeNtNtNtBg_3str4iter5CharsEB5o_EB2T_EB1i_5count0E0E0B2Y_.exit.i.i.i.i
  %_16.i.i.i.i.i.i.i.i.i.1.i = getelementptr inbounds nuw i8, ptr %_16.i26.i.i.i.i.i16.i.i.i.i, i64 1
  %x.i.i.i.i.i.i.i.i.1.i = load i8, ptr %_16.i26.i.i.i.i.i16.i.i.i.i, align 1, !noalias !326, !noundef !17
  %_6.i.i.i.i.i.i.i.i.1.i = icmp sgt i8 %x.i.i.i.i.i.i.i.i.1.i, -1
  br i1 %_6.i.i.i.i.i.i.i.i.1.i, label %bb3.i.i.i.i.i.i.i.i.1.i, label %bb4.i.i.i.i.i.i.i.i.1.i

bb4.i.i.i.i.i.i.i.i.1.i:                          ; preds = %bb14.i.i.i.i.i.i.i.i.1.i
  %_30.i.i.i.i.i.i.i.i.1.i = and i8 %x.i.i.i.i.i.i.i.i.1.i, 31
  %init.i.i.i.i.i.i.i.i.1.i = zext nneg i8 %_30.i.i.i.i.i.i.i.i.1.i to i32
  %_6.i10.i.i.i.i.i.i.i.i.1.i = icmp ne ptr %_16.i.i.i.i.i.i.i.i.i.1.i, %_8.i.i
  tail call void @llvm.assume(i1 %_6.i10.i.i.i.i.i.i.i.i.1.i)
  %_16.i12.i.i.i.i.i.i.i.i.1.i = getelementptr inbounds nuw i8, ptr %_16.i26.i.i.i.i.i16.i.i.i.i, i64 2
  %y.i.i.i.i.i.i.i.i.1.i = load i8, ptr %_16.i.i.i.i.i.i.i.i.i.1.i, align 1, !noalias !326, !noundef !17
  %_33.i.i.i.i.i.i.i.i.1.i = shl nuw nsw i32 %init.i.i.i.i.i.i.i.i.1.i, 6
  %_35.i.i.i.i.i.i.i.i.1.i = and i8 %y.i.i.i.i.i.i.i.i.1.i, 63
  %_34.i.i.i.i.i.i.i.i.1.i = zext nneg i8 %_35.i.i.i.i.i.i.i.i.1.i to i32
  %6 = or disjoint i32 %_33.i.i.i.i.i.i.i.i.1.i, %_34.i.i.i.i.i.i.i.i.1.i
  %_13.i.i.i.i.i.i.i.i.1.i = icmp samesign ugt i8 %x.i.i.i.i.i.i.i.i.1.i, -33
  br i1 %_13.i.i.i.i.i.i.i.i.1.i, label %bb6.i.i.i.i.i.i.i.i.1.i, label %bb9.i.i.i.i.i.1.i

bb6.i.i.i.i.i.i.i.i.1.i:                          ; preds = %bb4.i.i.i.i.i.i.i.i.1.i
  %_6.i17.i.i.i.i.i.i.i.i.1.i = icmp ne ptr %_16.i12.i.i.i.i.i.i.i.i.1.i, %_8.i.i
  tail call void @llvm.assume(i1 %_6.i17.i.i.i.i.i.i.i.i.1.i)
  %_16.i19.i.i.i.i.i.i.i.i.1.i = getelementptr inbounds nuw i8, ptr %_16.i26.i.i.i.i.i16.i.i.i.i, i64 3
  %z.i.i.i.i.i.i.i.i.1.i = load i8, ptr %_16.i12.i.i.i.i.i.i.i.i.1.i, align 1, !noalias !326, !noundef !17
  %_38.i.i.i.i.i.i.i.i.1.i = shl nuw nsw i32 %_34.i.i.i.i.i.i.i.i.1.i, 6
  %_40.i.i.i.i.i.i.i.i.1.i = and i8 %z.i.i.i.i.i.i.i.i.1.i, 63
  %_39.i.i.i.i.i.i.i.i.1.i = zext nneg i8 %_40.i.i.i.i.i.i.i.i.1.i to i32
  %y_z.i.i.i.i.i.i.i.i.1.i = or disjoint i32 %_38.i.i.i.i.i.i.i.i.1.i, %_39.i.i.i.i.i.i.i.i.1.i
  %_20.i.i.i.i.i.i.i.i.1.i = shl nuw nsw i32 %init.i.i.i.i.i.i.i.i.1.i, 12
  %7 = or disjoint i32 %y_z.i.i.i.i.i.i.i.i.1.i, %_20.i.i.i.i.i.i.i.i.1.i
  %_21.i.i.i.i.i.i.i.i.1.i = icmp samesign ugt i8 %x.i.i.i.i.i.i.i.i.1.i, -17
  br i1 %_21.i.i.i.i.i.i.i.i.1.i, label %_RNvXs_NtNtNtCsjMrxcFdYDNN_4core4iter8adapters4takeINtB4_4TakeNtNtNtBa_3str4iter5CharsENtNtNtB8_6traits8iterator8Iterator4nextCs6KJnav5oeQt_6strsim.exit.i.i.i.i.i.1.i, label %bb9.i.i.i.i.i.1.i

_RNvXs_NtNtNtCsjMrxcFdYDNN_4core4iter8adapters4takeINtB4_4TakeNtNtNtBa_3str4iter5CharsENtNtNtB8_6traits8iterator8Iterator4nextCs6KJnav5oeQt_6strsim.exit.i.i.i.i.i.1.i: ; preds = %bb6.i.i.i.i.i.i.i.i.1.i
  %_6.i24.i.i.i.i.i.i.i.i.1.i = icmp ne ptr %_16.i19.i.i.i.i.i.i.i.i.1.i, %_8.i.i
  tail call void @llvm.assume(i1 %_6.i24.i.i.i.i.i.i.i.i.1.i)
  %_16.i26.i.i.i.i.i.i.i.i.1.i = getelementptr inbounds nuw i8, ptr %_16.i26.i.i.i.i.i16.i.i.i.i, i64 4
  %w.i.i.i.i.i.i.i.i.1.i = load i8, ptr %_16.i19.i.i.i.i.i.i.i.i.1.i, align 1, !noalias !326, !noundef !17
  %_26.i.i.i.i.i.i.i.i.1.i = shl nuw nsw i32 %init.i.i.i.i.i.i.i.i.1.i, 18
  %_25.i.i.i.i.i.i.i.i.1.i = and i32 %_26.i.i.i.i.i.i.i.i.1.i, 1835008
  %_43.i.i.i.i.i.i.i.i.1.i = shl nuw nsw i32 %y_z.i.i.i.i.i.i.i.i.1.i, 6
  %_45.i.i.i.i.i.i.i.i.1.i = and i8 %w.i.i.i.i.i.i.i.i.1.i, 63
  %_44.i.i.i.i.i.i.i.i.1.i = zext nneg i8 %_45.i.i.i.i.i.i.i.i.1.i to i32
  %_27.i.i.i.i.i.i.i.i.1.i = or disjoint i32 %_43.i.i.i.i.i.i.i.i.1.i, %_44.i.i.i.i.i.i.i.i.1.i
  %8 = or disjoint i32 %_27.i.i.i.i.i.i.i.i.1.i, %_25.i.i.i.i.i.i.i.i.1.i
  %.not.i.i.i.i.i.1.i = icmp eq i32 %8, 1114112
  br i1 %.not.i.i.i.i.i.1.i, label %_RINvXs0_NtNtNtCsjMrxcFdYDNN_4core4iter8adapters10take_whileINtB6_9TakeWhileINtNtB8_3zip3ZipINtNtB8_4take4TakeNtNtNtBc_3str4iter5CharsEB1J_ENCINvCs6KJnav5oeQt_6strsim20generic_jaro_winklerNtB2i_13StringWrapperB2Z_ccE0ENtNtNtBa_6traits8iterator8Iterator4foldjNCNvYBV_B3t_5count0EB2i_.exit.i, label %bb9.i.i.i.i.i.1.i

bb3.i.i.i.i.i.i.i.i.1.i:                          ; preds = %bb14.i.i.i.i.i.i.i.i.1.i
  %_7.i.i.i.i.i.i.i.i.1.i = zext nneg i8 %x.i.i.i.i.i.i.i.i.1.i to i32
  br label %bb9.i.i.i.i.i.1.i

bb9.i.i.i.i.i.1.i:                                ; preds = %bb3.i.i.i.i.i.i.i.i.1.i, %_RNvXs_NtNtNtCsjMrxcFdYDNN_4core4iter8adapters4takeINtB4_4TakeNtNtNtBa_3str4iter5CharsENtNtNtB8_6traits8iterator8Iterator4nextCs6KJnav5oeQt_6strsim.exit.i.i.i.i.i.1.i, %bb6.i.i.i.i.i.i.i.i.1.i, %bb4.i.i.i.i.i.i.i.i.1.i
  %_16.i26.i.i.i.i.i16.i.i.i.1.i = phi ptr [ %_16.i26.i.i.i.i.i.i.i.i.1.i, %_RNvXs_NtNtNtCsjMrxcFdYDNN_4core4iter8adapters4takeINtB4_4TakeNtNtNtBa_3str4iter5CharsENtNtNtB8_6traits8iterator8Iterator4nextCs6KJnav5oeQt_6strsim.exit.i.i.i.i.i.1.i ], [ %_16.i12.i.i.i.i.i.i.i.i.1.i, %bb4.i.i.i.i.i.i.i.i.1.i ], [ %_16.i19.i.i.i.i.i.i.i.i.1.i, %bb6.i.i.i.i.i.i.i.i.1.i ], [ %_16.i.i.i.i.i.i.i.i.i.1.i, %bb3.i.i.i.i.i.i.i.i.1.i ]
  %_0.sroa.0.0.i10.i.i.i.i.i.1.i = phi i32 [ %8, %_RNvXs_NtNtNtCsjMrxcFdYDNN_4core4iter8adapters4takeINtB4_4TakeNtNtNtBa_3str4iter5CharsENtNtNtB8_6traits8iterator8Iterator4nextCs6KJnav5oeQt_6strsim.exit.i.i.i.i.i.1.i ], [ %6, %bb4.i.i.i.i.i.i.i.i.1.i ], [ %7, %bb6.i.i.i.i.i.i.i.i.1.i ], [ %_7.i.i.i.i.i.i.i.i.1.i, %bb3.i.i.i.i.i.i.i.i.1.i ]
  %_6.i.i.not.i.i.i.i.i.i.1.i = icmp eq ptr %_16.i26.i.i.i.i31.i.i.i.i, %_8.i.i.i
  br i1 %_6.i.i.not.i.i.i.i.i.i.1.i, label %_RINvXs0_NtNtNtCsjMrxcFdYDNN_4core4iter8adapters10take_whileINtB6_9TakeWhileINtNtB8_3zip3ZipINtNtB8_4take4TakeNtNtNtBc_3str4iter5CharsEB1J_ENCINvCs6KJnav5oeQt_6strsim20generic_jaro_winklerNtB2i_13StringWrapperB2Z_ccE0ENtNtNtBa_6traits8iterator8Iterator4foldjNCNvYBV_B3t_5count0EB2i_.exit.i, label %bb14.i.i.i.i.i.i.i.1.i

bb14.i.i.i.i.i.i.i.1.i:                           ; preds = %bb9.i.i.i.i.i.1.i
  %_16.i.i.i.i.i.i.i.i.1.i = getelementptr inbounds nuw i8, ptr %_16.i26.i.i.i.i31.i.i.i.i, i64 1
  %x.i.i.i.i.i.i.i.1.i = load i8, ptr %_16.i26.i.i.i.i31.i.i.i.i, align 1, !noalias !344, !noundef !17
  %_6.i.i.i.i.i.i.i.1.i = icmp sgt i8 %x.i.i.i.i.i.i.i.1.i, -1
  br i1 %_6.i.i.i.i.i.i.i.1.i, label %bb3.i.i.i.i.i.i.i.1.i, label %bb4.i.i.i.i.i.i.i.1.i

bb4.i.i.i.i.i.i.i.1.i:                            ; preds = %bb14.i.i.i.i.i.i.i.1.i
  %_30.i.i.i.i.i.i.i.1.i = and i8 %x.i.i.i.i.i.i.i.1.i, 31
  %init.i.i.i.i.i.i.i.1.i = zext nneg i8 %_30.i.i.i.i.i.i.i.1.i to i32
  %_6.i10.i.i.i.i.i.i.i.1.i = icmp ne ptr %_16.i.i.i.i.i.i.i.i.1.i, %_8.i.i.i
  tail call void @llvm.assume(i1 %_6.i10.i.i.i.i.i.i.i.1.i)
  %_16.i12.i.i.i.i.i.i.i.1.i = getelementptr inbounds nuw i8, ptr %_16.i26.i.i.i.i31.i.i.i.i, i64 2
  %y.i.i.i.i.i.i.i.1.i = load i8, ptr %_16.i.i.i.i.i.i.i.i.1.i, align 1, !noalias !344, !noundef !17
  %_33.i.i.i.i.i.i.i.1.i = shl nuw nsw i32 %init.i.i.i.i.i.i.i.1.i, 6
  %_35.i.i.i.i.i.i.i.1.i = and i8 %y.i.i.i.i.i.i.i.1.i, 63
  %_34.i.i.i.i.i.i.i.1.i = zext nneg i8 %_35.i.i.i.i.i.i.i.1.i to i32
  %9 = or disjoint i32 %_33.i.i.i.i.i.i.i.1.i, %_34.i.i.i.i.i.i.i.1.i
  %_13.i.i.i.i.i.i.i.1.i = icmp samesign ugt i8 %x.i.i.i.i.i.i.i.1.i, -33
  br i1 %_13.i.i.i.i.i.i.i.1.i, label %bb6.i.i.i.i.i.i.i.1.i, label %_RNvXs_NtNtNtCsjMrxcFdYDNN_4core4iter8adapters3zipINtB4_3ZipINtNtB6_4take4TakeNtNtNtBa_3str4iter5CharsEB1d_ENtNtNtB8_6traits8iterator8Iterator4nextCs6KJnav5oeQt_6strsim.exit.i.i.i.1.i

bb6.i.i.i.i.i.i.i.1.i:                            ; preds = %bb4.i.i.i.i.i.i.i.1.i
  %_6.i17.i.i.i.i.i.i.i.1.i = icmp ne ptr %_16.i12.i.i.i.i.i.i.i.1.i, %_8.i.i.i
  tail call void @llvm.assume(i1 %_6.i17.i.i.i.i.i.i.i.1.i)
  %_16.i19.i.i.i.i.i.i.i.1.i = getelementptr inbounds nuw i8, ptr %_16.i26.i.i.i.i31.i.i.i.i, i64 3
  %z.i.i.i.i.i.i.i.1.i = load i8, ptr %_16.i12.i.i.i.i.i.i.i.1.i, align 1, !noalias !344, !noundef !17
  %_38.i.i.i.i.i.i.i.1.i = shl nuw nsw i32 %_34.i.i.i.i.i.i.i.1.i, 6
  %_40.i.i.i.i.i.i.i.1.i = and i8 %z.i.i.i.i.i.i.i.1.i, 63
  %_39.i.i.i.i.i.i.i.1.i = zext nneg i8 %_40.i.i.i.i.i.i.i.1.i to i32
  %y_z.i.i.i.i.i.i.i.1.i = or disjoint i32 %_38.i.i.i.i.i.i.i.1.i, %_39.i.i.i.i.i.i.i.1.i
  %_20.i.i.i.i.i.i.i.1.i = shl nuw nsw i32 %init.i.i.i.i.i.i.i.1.i, 12
  %10 = or disjoint i32 %y_z.i.i.i.i.i.i.i.1.i, %_20.i.i.i.i.i.i.i.1.i
  %_21.i.i.i.i.i.i.i.1.i = icmp samesign ugt i8 %x.i.i.i.i.i.i.i.1.i, -17
  br i1 %_21.i.i.i.i.i.i.i.1.i, label %_RNvXNtNtCsjMrxcFdYDNN_4core3str4iterNtB2_5CharsNtNtNtNtB6_4iter6traits8iterator8Iterator4next.exit.i.i.i.i.i.1.i, label %_RNvXs_NtNtNtCsjMrxcFdYDNN_4core4iter8adapters3zipINtB4_3ZipINtNtB6_4take4TakeNtNtNtBa_3str4iter5CharsEB1d_ENtNtNtB8_6traits8iterator8Iterator4nextCs6KJnav5oeQt_6strsim.exit.i.i.i.1.i

_RNvXNtNtCsjMrxcFdYDNN_4core3str4iterNtB2_5CharsNtNtNtNtB6_4iter6traits8iterator8Iterator4next.exit.i.i.i.i.i.1.i: ; preds = %bb6.i.i.i.i.i.i.i.1.i
  %_6.i24.i.i.i.i.i.i.i.1.i = icmp ne ptr %_16.i19.i.i.i.i.i.i.i.1.i, %_8.i.i.i
  tail call void @llvm.assume(i1 %_6.i24.i.i.i.i.i.i.i.1.i)
  %_16.i26.i.i.i.i.i.i.i.1.i = getelementptr inbounds nuw i8, ptr %_16.i26.i.i.i.i31.i.i.i.i, i64 4
  %w.i.i.i.i.i.i.i.1.i = load i8, ptr %_16.i19.i.i.i.i.i.i.i.1.i, align 1, !noalias !344, !noundef !17
  %_26.i.i.i.i.i.i.i.1.i = shl nuw nsw i32 %init.i.i.i.i.i.i.i.1.i, 18
  %_25.i.i.i.i.i.i.i.1.i = and i32 %_26.i.i.i.i.i.i.i.1.i, 1835008
  %_43.i.i.i.i.i.i.i.1.i = shl nuw nsw i32 %y_z.i.i.i.i.i.i.i.1.i, 6
  %_45.i.i.i.i.i.i.i.1.i = and i8 %w.i.i.i.i.i.i.i.1.i, 63
  %_44.i.i.i.i.i.i.i.1.i = zext nneg i8 %_45.i.i.i.i.i.i.i.1.i to i32
  %_27.i.i.i.i.i.i.i.1.i = or disjoint i32 %_43.i.i.i.i.i.i.i.1.i, %_44.i.i.i.i.i.i.i.1.i
  %11 = or disjoint i32 %_27.i.i.i.i.i.i.i.1.i, %_25.i.i.i.i.i.i.i.1.i
  %.fr.i.i.i.i.i.1.i = freeze i32 %11
  %.not6.i.i.i.i.i.1.i = icmp eq i32 %.fr.i.i.i.i.i.1.i, 1114112
  br i1 %.not6.i.i.i.i.i.1.i, label %_RINvXs0_NtNtNtCsjMrxcFdYDNN_4core4iter8adapters10take_whileINtB6_9TakeWhileINtNtB8_3zip3ZipINtNtB8_4take4TakeNtNtNtBc_3str4iter5CharsEB1J_ENCINvCs6KJnav5oeQt_6strsim20generic_jaro_winklerNtB2i_13StringWrapperB2Z_ccE0ENtNtNtBa_6traits8iterator8Iterator4foldjNCNvYBV_B3t_5count0EB2i_.exit.i, label %_RNvXs_NtNtNtCsjMrxcFdYDNN_4core4iter8adapters3zipINtB4_3ZipINtNtB6_4take4TakeNtNtNtBa_3str4iter5CharsEB1d_ENtNtNtB8_6traits8iterator8Iterator4nextCs6KJnav5oeQt_6strsim.exit.i.i.i.1.i

bb3.i.i.i.i.i.i.i.1.i:                            ; preds = %bb14.i.i.i.i.i.i.i.1.i
  %_7.i.i.i.i.i.i.i.1.i = zext nneg i8 %x.i.i.i.i.i.i.i.1.i to i32
  br label %_RNvXs_NtNtNtCsjMrxcFdYDNN_4core4iter8adapters3zipINtB4_3ZipINtNtB6_4take4TakeNtNtNtBa_3str4iter5CharsEB1d_ENtNtNtB8_6traits8iterator8Iterator4nextCs6KJnav5oeQt_6strsim.exit.i.i.i.1.i

_RNvXs_NtNtNtCsjMrxcFdYDNN_4core4iter8adapters3zipINtB4_3ZipINtNtB6_4take4TakeNtNtNtBa_3str4iter5CharsEB1d_ENtNtNtB8_6traits8iterator8Iterator4nextCs6KJnav5oeQt_6strsim.exit.i.i.i.1.i: ; preds = %bb3.i.i.i.i.i.i.i.1.i, %_RNvXNtNtCsjMrxcFdYDNN_4core3str4iterNtB2_5CharsNtNtNtNtB6_4iter6traits8iterator8Iterator4next.exit.i.i.i.i.i.1.i, %bb6.i.i.i.i.i.i.i.1.i, %bb4.i.i.i.i.i.i.i.1.i
  %_16.i26.i.i.i.i31.i.i.i.1.i = phi ptr [ %_16.i12.i.i.i.i.i.i.i.1.i, %bb4.i.i.i.i.i.i.i.1.i ], [ %_16.i19.i.i.i.i.i.i.i.1.i, %bb6.i.i.i.i.i.i.i.1.i ], [ %_16.i.i.i.i.i.i.i.i.1.i, %bb3.i.i.i.i.i.i.i.1.i ], [ %_16.i26.i.i.i.i.i.i.i.1.i, %_RNvXNtNtCsjMrxcFdYDNN_4core3str4iterNtB2_5CharsNtNtNtNtB6_4iter6traits8iterator8Iterator4next.exit.i.i.i.i.i.1.i ]
  %_0.sroa.4.0.i.i.i.i.i.1.i = phi i32 [ %9, %bb4.i.i.i.i.i.i.i.1.i ], [ %10, %bb6.i.i.i.i.i.i.i.1.i ], [ %_7.i.i.i.i.i.i.i.1.i, %bb3.i.i.i.i.i.i.i.1.i ], [ %.fr.i.i.i.i.i.1.i, %_RNvXNtNtCsjMrxcFdYDNN_4core3str4iterNtB2_5CharsNtNtNtNtB6_4iter6traits8iterator8Iterator4next.exit.i.i.i.i.i.1.i ]
  %.not.i.i.i.1.i = icmp ne i32 %_0.sroa.0.0.i10.i.i.i.i.i.1.i, 1114112
  %_0.i.i.i.i.i.i.1.i = icmp eq i32 %_0.sroa.0.0.i10.i.i.i.i.i.1.i, %_0.sroa.4.0.i.i.i.i.i.1.i
  %or.cond.i.1.i = select i1 %.not.i.i.i.1.i, i1 %_0.i.i.i.i.i.i.1.i, i1 false
  br i1 %or.cond.i.1.i, label %_RNCINvNvXs0_NtNtNtCsjMrxcFdYDNN_4core4iter8adapters10take_whileINtBa_9TakeWhileppENtNtNtBe_6traits8iterator8Iterator8try_fold5checkTccEjINtNtNtBg_3ops9try_trait17NeverShortCircuitjENCINvCs6KJnav5oeQt_6strsim20generic_jaro_winklerNtB2Y_13StringWrapperB3F_ccE0NCINvMs0_B2d_B2a_10wrap_mut_2jB25_NCNvYIB10_INtNtBc_3zip3ZipINtNtBc_4take4TakeNtNtNtBg_3str4iter5CharsEB5o_EB2T_EB1i_5count0E0E0B2Y_.exit.i.i.i.1.i, label %_RINvXs0_NtNtNtCsjMrxcFdYDNN_4core4iter8adapters10take_whileINtB6_9TakeWhileINtNtB8_3zip3ZipINtNtB8_4take4TakeNtNtNtBc_3str4iter5CharsEB1J_ENCINvCs6KJnav5oeQt_6strsim20generic_jaro_winklerNtB2i_13StringWrapperB2Z_ccE0ENtNtNtBa_6traits8iterator8Iterator4foldjNCNvYBV_B3t_5count0EB2i_.exit.i

_RNCINvNvXs0_NtNtNtCsjMrxcFdYDNN_4core4iter8adapters10take_whileINtBa_9TakeWhileppENtNtNtBe_6traits8iterator8Iterator8try_fold5checkTccEjINtNtNtBg_3ops9try_trait17NeverShortCircuitjENCINvCs6KJnav5oeQt_6strsim20generic_jaro_winklerNtB2Y_13StringWrapperB3F_ccE0NCINvMs0_B2d_B2a_10wrap_mut_2jB25_NCNvYIB10_INtNtBc_3zip3ZipINtNtBc_4take4TakeNtNtNtBg_3str4iter5CharsEB5o_EB2T_EB1i_5count0E0E0B2Y_.exit.i.i.i.1.i: ; preds = %_RNvXs_NtNtNtCsjMrxcFdYDNN_4core4iter8adapters3zipINtB4_3ZipINtNtB6_4take4TakeNtNtNtBa_3str4iter5CharsEB1d_ENtNtNtB8_6traits8iterator8Iterator4nextCs6KJnav5oeQt_6strsim.exit.i.i.i.1.i
  %_6.i.i.not.i.i.i.i.i.i.i.2.i = icmp eq ptr %_16.i26.i.i.i.i.i16.i.i.i.1.i, %_8.i.i
  br i1 %_6.i.i.not.i.i.i.i.i.i.i.2.i, label %_RINvXs0_NtNtNtCsjMrxcFdYDNN_4core4iter8adapters10take_whileINtB6_9TakeWhileINtNtB8_3zip3ZipINtNtB8_4take4TakeNtNtNtBc_3str4iter5CharsEB1J_ENCINvCs6KJnav5oeQt_6strsim20generic_jaro_winklerNtB2i_13StringWrapperB2Z_ccE0ENtNtNtBa_6traits8iterator8Iterator4foldjNCNvYBV_B3t_5count0EB2i_.exit.i, label %bb14.i.i.i.i.i.i.i.i.2.i

bb14.i.i.i.i.i.i.i.i.2.i:                         ; preds = %_RNCINvNvXs0_NtNtNtCsjMrxcFdYDNN_4core4iter8adapters10take_whileINtBa_9TakeWhileppENtNtNtBe_6traits8iterator8Iterator8try_fold5checkTccEjINtNtNtBg_3ops9try_trait17NeverShortCircuitjENCINvCs6KJnav5oeQt_6strsim20generic_jaro_winklerNtB2Y_13StringWrapperB3F_ccE0NCINvMs0_B2d_B2a_10wrap_mut_2jB25_NCNvYIB10_INtNtBc_3zip3ZipINtNtBc_4take4TakeNtNtNtBg_3str4iter5CharsEB5o_EB2T_EB1i_5count0E0E0B2Y_.exit.i.i.i.1.i
  %_16.i.i.i.i.i.i.i.i.i.2.i = getelementptr inbounds nuw i8, ptr %_16.i26.i.i.i.i.i16.i.i.i.1.i, i64 1
  %x.i.i.i.i.i.i.i.i.2.i = load i8, ptr %_16.i26.i.i.i.i.i16.i.i.i.1.i, align 1, !noalias !326, !noundef !17
  %_6.i.i.i.i.i.i.i.i.2.i = icmp sgt i8 %x.i.i.i.i.i.i.i.i.2.i, -1
  br i1 %_6.i.i.i.i.i.i.i.i.2.i, label %bb3.i.i.i.i.i.i.i.i.2.i, label %bb4.i.i.i.i.i.i.i.i.2.i

bb4.i.i.i.i.i.i.i.i.2.i:                          ; preds = %bb14.i.i.i.i.i.i.i.i.2.i
  %_30.i.i.i.i.i.i.i.i.2.i = and i8 %x.i.i.i.i.i.i.i.i.2.i, 31
  %init.i.i.i.i.i.i.i.i.2.i = zext nneg i8 %_30.i.i.i.i.i.i.i.i.2.i to i32
  %_6.i10.i.i.i.i.i.i.i.i.2.i = icmp ne ptr %_16.i.i.i.i.i.i.i.i.i.2.i, %_8.i.i
  tail call void @llvm.assume(i1 %_6.i10.i.i.i.i.i.i.i.i.2.i)
  %_16.i12.i.i.i.i.i.i.i.i.2.i = getelementptr inbounds nuw i8, ptr %_16.i26.i.i.i.i.i16.i.i.i.1.i, i64 2
  %y.i.i.i.i.i.i.i.i.2.i = load i8, ptr %_16.i.i.i.i.i.i.i.i.i.2.i, align 1, !noalias !326, !noundef !17
  %_33.i.i.i.i.i.i.i.i.2.i = shl nuw nsw i32 %init.i.i.i.i.i.i.i.i.2.i, 6
  %_35.i.i.i.i.i.i.i.i.2.i = and i8 %y.i.i.i.i.i.i.i.i.2.i, 63
  %_34.i.i.i.i.i.i.i.i.2.i = zext nneg i8 %_35.i.i.i.i.i.i.i.i.2.i to i32
  %12 = or disjoint i32 %_33.i.i.i.i.i.i.i.i.2.i, %_34.i.i.i.i.i.i.i.i.2.i
  %_13.i.i.i.i.i.i.i.i.2.i = icmp samesign ugt i8 %x.i.i.i.i.i.i.i.i.2.i, -33
  br i1 %_13.i.i.i.i.i.i.i.i.2.i, label %bb6.i.i.i.i.i.i.i.i.2.i, label %bb9.i.i.i.i.i.2.i

bb6.i.i.i.i.i.i.i.i.2.i:                          ; preds = %bb4.i.i.i.i.i.i.i.i.2.i
  %_6.i17.i.i.i.i.i.i.i.i.2.i = icmp ne ptr %_16.i12.i.i.i.i.i.i.i.i.2.i, %_8.i.i
  tail call void @llvm.assume(i1 %_6.i17.i.i.i.i.i.i.i.i.2.i)
  %_16.i19.i.i.i.i.i.i.i.i.2.i = getelementptr inbounds nuw i8, ptr %_16.i26.i.i.i.i.i16.i.i.i.1.i, i64 3
  %z.i.i.i.i.i.i.i.i.2.i = load i8, ptr %_16.i12.i.i.i.i.i.i.i.i.2.i, align 1, !noalias !326, !noundef !17
  %_38.i.i.i.i.i.i.i.i.2.i = shl nuw nsw i32 %_34.i.i.i.i.i.i.i.i.2.i, 6
  %_40.i.i.i.i.i.i.i.i.2.i = and i8 %z.i.i.i.i.i.i.i.i.2.i, 63
  %_39.i.i.i.i.i.i.i.i.2.i = zext nneg i8 %_40.i.i.i.i.i.i.i.i.2.i to i32
  %y_z.i.i.i.i.i.i.i.i.2.i = or disjoint i32 %_38.i.i.i.i.i.i.i.i.2.i, %_39.i.i.i.i.i.i.i.i.2.i
  %_20.i.i.i.i.i.i.i.i.2.i = shl nuw nsw i32 %init.i.i.i.i.i.i.i.i.2.i, 12
  %13 = or disjoint i32 %y_z.i.i.i.i.i.i.i.i.2.i, %_20.i.i.i.i.i.i.i.i.2.i
  %_21.i.i.i.i.i.i.i.i.2.i = icmp samesign ugt i8 %x.i.i.i.i.i.i.i.i.2.i, -17
  br i1 %_21.i.i.i.i.i.i.i.i.2.i, label %_RNvXs_NtNtNtCsjMrxcFdYDNN_4core4iter8adapters4takeINtB4_4TakeNtNtNtBa_3str4iter5CharsENtNtNtB8_6traits8iterator8Iterator4nextCs6KJnav5oeQt_6strsim.exit.i.i.i.i.i.2.i, label %bb9.i.i.i.i.i.2.i

_RNvXs_NtNtNtCsjMrxcFdYDNN_4core4iter8adapters4takeINtB4_4TakeNtNtNtBa_3str4iter5CharsENtNtNtB8_6traits8iterator8Iterator4nextCs6KJnav5oeQt_6strsim.exit.i.i.i.i.i.2.i: ; preds = %bb6.i.i.i.i.i.i.i.i.2.i
  %_6.i24.i.i.i.i.i.i.i.i.2.i = icmp ne ptr %_16.i19.i.i.i.i.i.i.i.i.2.i, %_8.i.i
  tail call void @llvm.assume(i1 %_6.i24.i.i.i.i.i.i.i.i.2.i)
  %_16.i26.i.i.i.i.i.i.i.i.2.i = getelementptr inbounds nuw i8, ptr %_16.i26.i.i.i.i.i16.i.i.i.1.i, i64 4
  %w.i.i.i.i.i.i.i.i.2.i = load i8, ptr %_16.i19.i.i.i.i.i.i.i.i.2.i, align 1, !noalias !326, !noundef !17
  %_26.i.i.i.i.i.i.i.i.2.i = shl nuw nsw i32 %init.i.i.i.i.i.i.i.i.2.i, 18
  %_25.i.i.i.i.i.i.i.i.2.i = and i32 %_26.i.i.i.i.i.i.i.i.2.i, 1835008
  %_43.i.i.i.i.i.i.i.i.2.i = shl nuw nsw i32 %y_z.i.i.i.i.i.i.i.i.2.i, 6
  %_45.i.i.i.i.i.i.i.i.2.i = and i8 %w.i.i.i.i.i.i.i.i.2.i, 63
  %_44.i.i.i.i.i.i.i.i.2.i = zext nneg i8 %_45.i.i.i.i.i.i.i.i.2.i to i32
  %_27.i.i.i.i.i.i.i.i.2.i = or disjoint i32 %_43.i.i.i.i.i.i.i.i.2.i, %_44.i.i.i.i.i.i.i.i.2.i
  %14 = or disjoint i32 %_27.i.i.i.i.i.i.i.i.2.i, %_25.i.i.i.i.i.i.i.i.2.i
  %.not.i.i.i.i.i.2.i = icmp eq i32 %14, 1114112
  br i1 %.not.i.i.i.i.i.2.i, label %_RINvXs0_NtNtNtCsjMrxcFdYDNN_4core4iter8adapters10take_whileINtB6_9TakeWhileINtNtB8_3zip3ZipINtNtB8_4take4TakeNtNtNtBc_3str4iter5CharsEB1J_ENCINvCs6KJnav5oeQt_6strsim20generic_jaro_winklerNtB2i_13StringWrapperB2Z_ccE0ENtNtNtBa_6traits8iterator8Iterator4foldjNCNvYBV_B3t_5count0EB2i_.exit.i, label %bb9.i.i.i.i.i.2.i

bb3.i.i.i.i.i.i.i.i.2.i:                          ; preds = %bb14.i.i.i.i.i.i.i.i.2.i
  %_7.i.i.i.i.i.i.i.i.2.i = zext nneg i8 %x.i.i.i.i.i.i.i.i.2.i to i32
  br label %bb9.i.i.i.i.i.2.i

bb9.i.i.i.i.i.2.i:                                ; preds = %bb3.i.i.i.i.i.i.i.i.2.i, %_RNvXs_NtNtNtCsjMrxcFdYDNN_4core4iter8adapters4takeINtB4_4TakeNtNtNtBa_3str4iter5CharsENtNtNtB8_6traits8iterator8Iterator4nextCs6KJnav5oeQt_6strsim.exit.i.i.i.i.i.2.i, %bb6.i.i.i.i.i.i.i.i.2.i, %bb4.i.i.i.i.i.i.i.i.2.i
  %_16.i26.i.i.i.i.i16.i.i.i.2.i = phi ptr [ %_16.i26.i.i.i.i.i.i.i.i.2.i, %_RNvXs_NtNtNtCsjMrxcFdYDNN_4core4iter8adapters4takeINtB4_4TakeNtNtNtBa_3str4iter5CharsENtNtNtB8_6traits8iterator8Iterator4nextCs6KJnav5oeQt_6strsim.exit.i.i.i.i.i.2.i ], [ %_16.i12.i.i.i.i.i.i.i.i.2.i, %bb4.i.i.i.i.i.i.i.i.2.i ], [ %_16.i19.i.i.i.i.i.i.i.i.2.i, %bb6.i.i.i.i.i.i.i.i.2.i ], [ %_16.i.i.i.i.i.i.i.i.i.2.i, %bb3.i.i.i.i.i.i.i.i.2.i ]
  %_0.sroa.0.0.i10.i.i.i.i.i.2.i = phi i32 [ %14, %_RNvXs_NtNtNtCsjMrxcFdYDNN_4core4iter8adapters4takeINtB4_4TakeNtNtNtBa_3str4iter5CharsENtNtNtB8_6traits8iterator8Iterator4nextCs6KJnav5oeQt_6strsim.exit.i.i.i.i.i.2.i ], [ %12, %bb4.i.i.i.i.i.i.i.i.2.i ], [ %13, %bb6.i.i.i.i.i.i.i.i.2.i ], [ %_7.i.i.i.i.i.i.i.i.2.i, %bb3.i.i.i.i.i.i.i.i.2.i ]
  %_6.i.i.not.i.i.i.i.i.i.2.i = icmp eq ptr %_16.i26.i.i.i.i31.i.i.i.1.i, %_8.i.i.i
  br i1 %_6.i.i.not.i.i.i.i.i.i.2.i, label %_RINvXs0_NtNtNtCsjMrxcFdYDNN_4core4iter8adapters10take_whileINtB6_9TakeWhileINtNtB8_3zip3ZipINtNtB8_4take4TakeNtNtNtBc_3str4iter5CharsEB1J_ENCINvCs6KJnav5oeQt_6strsim20generic_jaro_winklerNtB2i_13StringWrapperB2Z_ccE0ENtNtNtBa_6traits8iterator8Iterator4foldjNCNvYBV_B3t_5count0EB2i_.exit.i, label %bb14.i.i.i.i.i.i.i.2.i

bb14.i.i.i.i.i.i.i.2.i:                           ; preds = %bb9.i.i.i.i.i.2.i
  %_16.i.i.i.i.i.i.i.i.2.i = getelementptr inbounds nuw i8, ptr %_16.i26.i.i.i.i31.i.i.i.1.i, i64 1
  %x.i.i.i.i.i.i.i.2.i = load i8, ptr %_16.i26.i.i.i.i31.i.i.i.1.i, align 1, !noalias !344, !noundef !17
  %_6.i.i.i.i.i.i.i.2.i = icmp sgt i8 %x.i.i.i.i.i.i.i.2.i, -1
  br i1 %_6.i.i.i.i.i.i.i.2.i, label %bb3.i.i.i.i.i.i.i.2.i, label %bb4.i.i.i.i.i.i.i.2.i

bb4.i.i.i.i.i.i.i.2.i:                            ; preds = %bb14.i.i.i.i.i.i.i.2.i
  %_30.i.i.i.i.i.i.i.2.i = and i8 %x.i.i.i.i.i.i.i.2.i, 31
  %init.i.i.i.i.i.i.i.2.i = zext nneg i8 %_30.i.i.i.i.i.i.i.2.i to i32
  %_6.i10.i.i.i.i.i.i.i.2.i = icmp ne ptr %_16.i.i.i.i.i.i.i.i.2.i, %_8.i.i.i
  tail call void @llvm.assume(i1 %_6.i10.i.i.i.i.i.i.i.2.i)
  %_16.i12.i.i.i.i.i.i.i.2.i = getelementptr inbounds nuw i8, ptr %_16.i26.i.i.i.i31.i.i.i.1.i, i64 2
  %y.i.i.i.i.i.i.i.2.i = load i8, ptr %_16.i.i.i.i.i.i.i.i.2.i, align 1, !noalias !344, !noundef !17
  %_33.i.i.i.i.i.i.i.2.i = shl nuw nsw i32 %init.i.i.i.i.i.i.i.2.i, 6
  %_35.i.i.i.i.i.i.i.2.i = and i8 %y.i.i.i.i.i.i.i.2.i, 63
  %_34.i.i.i.i.i.i.i.2.i = zext nneg i8 %_35.i.i.i.i.i.i.i.2.i to i32
  %15 = or disjoint i32 %_33.i.i.i.i.i.i.i.2.i, %_34.i.i.i.i.i.i.i.2.i
  %_13.i.i.i.i.i.i.i.2.i = icmp samesign ugt i8 %x.i.i.i.i.i.i.i.2.i, -33
  br i1 %_13.i.i.i.i.i.i.i.2.i, label %bb6.i.i.i.i.i.i.i.2.i, label %_RNvXs_NtNtNtCsjMrxcFdYDNN_4core4iter8adapters3zipINtB4_3ZipINtNtB6_4take4TakeNtNtNtBa_3str4iter5CharsEB1d_ENtNtNtB8_6traits8iterator8Iterator4nextCs6KJnav5oeQt_6strsim.exit.i.i.i.2.i

bb6.i.i.i.i.i.i.i.2.i:                            ; preds = %bb4.i.i.i.i.i.i.i.2.i
  %_6.i17.i.i.i.i.i.i.i.2.i = icmp ne ptr %_16.i12.i.i.i.i.i.i.i.2.i, %_8.i.i.i
  tail call void @llvm.assume(i1 %_6.i17.i.i.i.i.i.i.i.2.i)
  %_16.i19.i.i.i.i.i.i.i.2.i = getelementptr inbounds nuw i8, ptr %_16.i26.i.i.i.i31.i.i.i.1.i, i64 3
  %z.i.i.i.i.i.i.i.2.i = load i8, ptr %_16.i12.i.i.i.i.i.i.i.2.i, align 1, !noalias !344, !noundef !17
  %_38.i.i.i.i.i.i.i.2.i = shl nuw nsw i32 %_34.i.i.i.i.i.i.i.2.i, 6
  %_40.i.i.i.i.i.i.i.2.i = and i8 %z.i.i.i.i.i.i.i.2.i, 63
  %_39.i.i.i.i.i.i.i.2.i = zext nneg i8 %_40.i.i.i.i.i.i.i.2.i to i32
  %y_z.i.i.i.i.i.i.i.2.i = or disjoint i32 %_38.i.i.i.i.i.i.i.2.i, %_39.i.i.i.i.i.i.i.2.i
  %_20.i.i.i.i.i.i.i.2.i = shl nuw nsw i32 %init.i.i.i.i.i.i.i.2.i, 12
  %16 = or disjoint i32 %y_z.i.i.i.i.i.i.i.2.i, %_20.i.i.i.i.i.i.i.2.i
  %_21.i.i.i.i.i.i.i.2.i = icmp samesign ugt i8 %x.i.i.i.i.i.i.i.2.i, -17
  br i1 %_21.i.i.i.i.i.i.i.2.i, label %_RNvXNtNtCsjMrxcFdYDNN_4core3str4iterNtB2_5CharsNtNtNtNtB6_4iter6traits8iterator8Iterator4next.exit.i.i.i.i.i.2.i, label %_RNvXs_NtNtNtCsjMrxcFdYDNN_4core4iter8adapters3zipINtB4_3ZipINtNtB6_4take4TakeNtNtNtBa_3str4iter5CharsEB1d_ENtNtNtB8_6traits8iterator8Iterator4nextCs6KJnav5oeQt_6strsim.exit.i.i.i.2.i

_RNvXNtNtCsjMrxcFdYDNN_4core3str4iterNtB2_5CharsNtNtNtNtB6_4iter6traits8iterator8Iterator4next.exit.i.i.i.i.i.2.i: ; preds = %bb6.i.i.i.i.i.i.i.2.i
  %_6.i24.i.i.i.i.i.i.i.2.i = icmp ne ptr %_16.i19.i.i.i.i.i.i.i.2.i, %_8.i.i.i
  tail call void @llvm.assume(i1 %_6.i24.i.i.i.i.i.i.i.2.i)
  %_16.i26.i.i.i.i.i.i.i.2.i = getelementptr inbounds nuw i8, ptr %_16.i26.i.i.i.i31.i.i.i.1.i, i64 4
  %w.i.i.i.i.i.i.i.2.i = load i8, ptr %_16.i19.i.i.i.i.i.i.i.2.i, align 1, !noalias !344, !noundef !17
  %_26.i.i.i.i.i.i.i.2.i = shl nuw nsw i32 %init.i.i.i.i.i.i.i.2.i, 18
  %_25.i.i.i.i.i.i.i.2.i = and i32 %_26.i.i.i.i.i.i.i.2.i, 1835008
  %_43.i.i.i.i.i.i.i.2.i = shl nuw nsw i32 %y_z.i.i.i.i.i.i.i.2.i, 6
  %_45.i.i.i.i.i.i.i.2.i = and i8 %w.i.i.i.i.i.i.i.2.i, 63
  %_44.i.i.i.i.i.i.i.2.i = zext nneg i8 %_45.i.i.i.i.i.i.i.2.i to i32
  %_27.i.i.i.i.i.i.i.2.i = or disjoint i32 %_43.i.i.i.i.i.i.i.2.i, %_44.i.i.i.i.i.i.i.2.i
  %17 = or disjoint i32 %_27.i.i.i.i.i.i.i.2.i, %_25.i.i.i.i.i.i.i.2.i
  %.fr.i.i.i.i.i.2.i = freeze i32 %17
  %.not6.i.i.i.i.i.2.i = icmp eq i32 %.fr.i.i.i.i.i.2.i, 1114112
  br i1 %.not6.i.i.i.i.i.2.i, label %_RINvXs0_NtNtNtCsjMrxcFdYDNN_4core4iter8adapters10take_whileINtB6_9TakeWhileINtNtB8_3zip3ZipINtNtB8_4take4TakeNtNtNtBc_3str4iter5CharsEB1J_ENCINvCs6KJnav5oeQt_6strsim20generic_jaro_winklerNtB2i_13StringWrapperB2Z_ccE0ENtNtNtBa_6traits8iterator8Iterator4foldjNCNvYBV_B3t_5count0EB2i_.exit.i, label %_RNvXs_NtNtNtCsjMrxcFdYDNN_4core4iter8adapters3zipINtB4_3ZipINtNtB6_4take4TakeNtNtNtBa_3str4iter5CharsEB1d_ENtNtNtB8_6traits8iterator8Iterator4nextCs6KJnav5oeQt_6strsim.exit.i.i.i.2.i

bb3.i.i.i.i.i.i.i.2.i:                            ; preds = %bb14.i.i.i.i.i.i.i.2.i
  %_7.i.i.i.i.i.i.i.2.i = zext nneg i8 %x.i.i.i.i.i.i.i.2.i to i32
  br label %_RNvXs_NtNtNtCsjMrxcFdYDNN_4core4iter8adapters3zipINtB4_3ZipINtNtB6_4take4TakeNtNtNtBa_3str4iter5CharsEB1d_ENtNtNtB8_6traits8iterator8Iterator4nextCs6KJnav5oeQt_6strsim.exit.i.i.i.2.i

_RNvXs_NtNtNtCsjMrxcFdYDNN_4core4iter8adapters3zipINtB4_3ZipINtNtB6_4take4TakeNtNtNtBa_3str4iter5CharsEB1d_ENtNtNtB8_6traits8iterator8Iterator4nextCs6KJnav5oeQt_6strsim.exit.i.i.i.2.i: ; preds = %bb3.i.i.i.i.i.i.i.2.i, %_RNvXNtNtCsjMrxcFdYDNN_4core3str4iterNtB2_5CharsNtNtNtNtB6_4iter6traits8iterator8Iterator4next.exit.i.i.i.i.i.2.i, %bb6.i.i.i.i.i.i.i.2.i, %bb4.i.i.i.i.i.i.i.2.i
  %_16.i26.i.i.i.i31.i.i.i.2.i = phi ptr [ %_16.i12.i.i.i.i.i.i.i.2.i, %bb4.i.i.i.i.i.i.i.2.i ], [ %_16.i19.i.i.i.i.i.i.i.2.i, %bb6.i.i.i.i.i.i.i.2.i ], [ %_16.i.i.i.i.i.i.i.i.2.i, %bb3.i.i.i.i.i.i.i.2.i ], [ %_16.i26.i.i.i.i.i.i.i.2.i, %_RNvXNtNtCsjMrxcFdYDNN_4core3str4iterNtB2_5CharsNtNtNtNtB6_4iter6traits8iterator8Iterator4next.exit.i.i.i.i.i.2.i ]
  %_0.sroa.4.0.i.i.i.i.i.2.i = phi i32 [ %15, %bb4.i.i.i.i.i.i.i.2.i ], [ %16, %bb6.i.i.i.i.i.i.i.2.i ], [ %_7.i.i.i.i.i.i.i.2.i, %bb3.i.i.i.i.i.i.i.2.i ], [ %.fr.i.i.i.i.i.2.i, %_RNvXNtNtCsjMrxcFdYDNN_4core3str4iterNtB2_5CharsNtNtNtNtB6_4iter6traits8iterator8Iterator4next.exit.i.i.i.i.i.2.i ]
  %.not.i.i.i.2.i = icmp ne i32 %_0.sroa.0.0.i10.i.i.i.i.i.2.i, 1114112
  %_0.i.i.i.i.i.i.2.i = icmp eq i32 %_0.sroa.0.0.i10.i.i.i.i.i.2.i, %_0.sroa.4.0.i.i.i.i.i.2.i
  %or.cond.i.2.i = select i1 %.not.i.i.i.2.i, i1 %_0.i.i.i.i.i.i.2.i, i1 false
  br i1 %or.cond.i.2.i, label %_RNCINvNvXs0_NtNtNtCsjMrxcFdYDNN_4core4iter8adapters10take_whileINtBa_9TakeWhileppENtNtNtBe_6traits8iterator8Iterator8try_fold5checkTccEjINtNtNtBg_3ops9try_trait17NeverShortCircuitjENCINvCs6KJnav5oeQt_6strsim20generic_jaro_winklerNtB2Y_13StringWrapperB3F_ccE0NCINvMs0_B2d_B2a_10wrap_mut_2jB25_NCNvYIB10_INtNtBc_3zip3ZipINtNtBc_4take4TakeNtNtNtBg_3str4iter5CharsEB5o_EB2T_EB1i_5count0E0E0B2Y_.exit.i.i.i.2.i, label %_RINvXs0_NtNtNtCsjMrxcFdYDNN_4core4iter8adapters10take_whileINtB6_9TakeWhileINtNtB8_3zip3ZipINtNtB8_4take4TakeNtNtNtBc_3str4iter5CharsEB1J_ENCINvCs6KJnav5oeQt_6strsim20generic_jaro_winklerNtB2i_13StringWrapperB2Z_ccE0ENtNtNtBa_6traits8iterator8Iterator4foldjNCNvYBV_B3t_5count0EB2i_.exit.i

_RNCINvNvXs0_NtNtNtCsjMrxcFdYDNN_4core4iter8adapters10take_whileINtBa_9TakeWhileppENtNtNtBe_6traits8iterator8Iterator8try_fold5checkTccEjINtNtNtBg_3ops9try_trait17NeverShortCircuitjENCINvCs6KJnav5oeQt_6strsim20generic_jaro_winklerNtB2Y_13StringWrapperB3F_ccE0NCINvMs0_B2d_B2a_10wrap_mut_2jB25_NCNvYIB10_INtNtBc_3zip3ZipINtNtBc_4take4TakeNtNtNtBg_3str4iter5CharsEB5o_EB2T_EB1i_5count0E0E0B2Y_.exit.i.i.i.2.i: ; preds = %_RNvXs_NtNtNtCsjMrxcFdYDNN_4core4iter8adapters3zipINtB4_3ZipINtNtB6_4take4TakeNtNtNtBa_3str4iter5CharsEB1d_ENtNtNtB8_6traits8iterator8Iterator4nextCs6KJnav5oeQt_6strsim.exit.i.i.i.2.i
  %_6.i.i.not.i.i.i.i.i.i.i.3.i = icmp eq ptr %_16.i26.i.i.i.i.i16.i.i.i.2.i, %_8.i.i
  br i1 %_6.i.i.not.i.i.i.i.i.i.i.3.i, label %_RINvXs0_NtNtNtCsjMrxcFdYDNN_4core4iter8adapters10take_whileINtB6_9TakeWhileINtNtB8_3zip3ZipINtNtB8_4take4TakeNtNtNtBc_3str4iter5CharsEB1J_ENCINvCs6KJnav5oeQt_6strsim20generic_jaro_winklerNtB2i_13StringWrapperB2Z_ccE0ENtNtNtBa_6traits8iterator8Iterator4foldjNCNvYBV_B3t_5count0EB2i_.exit.i, label %bb14.i.i.i.i.i.i.i.i.3.i

bb14.i.i.i.i.i.i.i.i.3.i:                         ; preds = %_RNCINvNvXs0_NtNtNtCsjMrxcFdYDNN_4core4iter8adapters10take_whileINtBa_9TakeWhileppENtNtNtBe_6traits8iterator8Iterator8try_fold5checkTccEjINtNtNtBg_3ops9try_trait17NeverShortCircuitjENCINvCs6KJnav5oeQt_6strsim20generic_jaro_winklerNtB2Y_13StringWrapperB3F_ccE0NCINvMs0_B2d_B2a_10wrap_mut_2jB25_NCNvYIB10_INtNtBc_3zip3ZipINtNtBc_4take4TakeNtNtNtBg_3str4iter5CharsEB5o_EB2T_EB1i_5count0E0E0B2Y_.exit.i.i.i.2.i
  %x.i.i.i.i.i.i.i.i.3.i = load i8, ptr %_16.i26.i.i.i.i.i16.i.i.i.2.i, align 1, !noalias !326, !noundef !17
  %_6.i.i.i.i.i.i.i.i.3.i = icmp sgt i8 %x.i.i.i.i.i.i.i.i.3.i, -1
  br i1 %_6.i.i.i.i.i.i.i.i.3.i, label %bb3.i.i.i.i.i.i.i.i.3.i, label %bb4.i.i.i.i.i.i.i.i.3.i

bb4.i.i.i.i.i.i.i.i.3.i:                          ; preds = %bb14.i.i.i.i.i.i.i.i.3.i
  %_16.i.i.i.i.i.i.i.i.i.3.i = getelementptr inbounds nuw i8, ptr %_16.i26.i.i.i.i.i16.i.i.i.2.i, i64 1
  %_30.i.i.i.i.i.i.i.i.3.i = and i8 %x.i.i.i.i.i.i.i.i.3.i, 31
  %init.i.i.i.i.i.i.i.i.3.i = zext nneg i8 %_30.i.i.i.i.i.i.i.i.3.i to i32
  %_6.i10.i.i.i.i.i.i.i.i.3.i = icmp ne ptr %_16.i.i.i.i.i.i.i.i.i.3.i, %_8.i.i
  tail call void @llvm.assume(i1 %_6.i10.i.i.i.i.i.i.i.i.3.i)
  %y.i.i.i.i.i.i.i.i.3.i = load i8, ptr %_16.i.i.i.i.i.i.i.i.i.3.i, align 1, !noalias !326, !noundef !17
  %_33.i.i.i.i.i.i.i.i.3.i = shl nuw nsw i32 %init.i.i.i.i.i.i.i.i.3.i, 6
  %_35.i.i.i.i.i.i.i.i.3.i = and i8 %y.i.i.i.i.i.i.i.i.3.i, 63
  %_34.i.i.i.i.i.i.i.i.3.i = zext nneg i8 %_35.i.i.i.i.i.i.i.i.3.i to i32
  %18 = or disjoint i32 %_33.i.i.i.i.i.i.i.i.3.i, %_34.i.i.i.i.i.i.i.i.3.i
  %_13.i.i.i.i.i.i.i.i.3.i = icmp samesign ugt i8 %x.i.i.i.i.i.i.i.i.3.i, -33
  br i1 %_13.i.i.i.i.i.i.i.i.3.i, label %bb6.i.i.i.i.i.i.i.i.3.i, label %bb9.i.i.i.i.i.3.i

bb6.i.i.i.i.i.i.i.i.3.i:                          ; preds = %bb4.i.i.i.i.i.i.i.i.3.i
  %_16.i12.i.i.i.i.i.i.i.i.3.i = getelementptr inbounds nuw i8, ptr %_16.i26.i.i.i.i.i16.i.i.i.2.i, i64 2
  %_6.i17.i.i.i.i.i.i.i.i.3.i = icmp ne ptr %_16.i12.i.i.i.i.i.i.i.i.3.i, %_8.i.i
  tail call void @llvm.assume(i1 %_6.i17.i.i.i.i.i.i.i.i.3.i)
  %z.i.i.i.i.i.i.i.i.3.i = load i8, ptr %_16.i12.i.i.i.i.i.i.i.i.3.i, align 1, !noalias !326, !noundef !17
  %_38.i.i.i.i.i.i.i.i.3.i = shl nuw nsw i32 %_34.i.i.i.i.i.i.i.i.3.i, 6
  %_40.i.i.i.i.i.i.i.i.3.i = and i8 %z.i.i.i.i.i.i.i.i.3.i, 63
  %_39.i.i.i.i.i.i.i.i.3.i = zext nneg i8 %_40.i.i.i.i.i.i.i.i.3.i to i32
  %y_z.i.i.i.i.i.i.i.i.3.i = or disjoint i32 %_38.i.i.i.i.i.i.i.i.3.i, %_39.i.i.i.i.i.i.i.i.3.i
  %_20.i.i.i.i.i.i.i.i.3.i = shl nuw nsw i32 %init.i.i.i.i.i.i.i.i.3.i, 12
  %19 = or disjoint i32 %y_z.i.i.i.i.i.i.i.i.3.i, %_20.i.i.i.i.i.i.i.i.3.i
  %_21.i.i.i.i.i.i.i.i.3.i = icmp samesign ugt i8 %x.i.i.i.i.i.i.i.i.3.i, -17
  br i1 %_21.i.i.i.i.i.i.i.i.3.i, label %_RNvXs_NtNtNtCsjMrxcFdYDNN_4core4iter8adapters4takeINtB4_4TakeNtNtNtBa_3str4iter5CharsENtNtNtB8_6traits8iterator8Iterator4nextCs6KJnav5oeQt_6strsim.exit.i.i.i.i.i.3.i, label %bb9.i.i.i.i.i.3.i

_RNvXs_NtNtNtCsjMrxcFdYDNN_4core4iter8adapters4takeINtB4_4TakeNtNtNtBa_3str4iter5CharsENtNtNtB8_6traits8iterator8Iterator4nextCs6KJnav5oeQt_6strsim.exit.i.i.i.i.i.3.i: ; preds = %bb6.i.i.i.i.i.i.i.i.3.i
  %_16.i19.i.i.i.i.i.i.i.i.3.i = getelementptr inbounds nuw i8, ptr %_16.i26.i.i.i.i.i16.i.i.i.2.i, i64 3
  %_6.i24.i.i.i.i.i.i.i.i.3.i = icmp ne ptr %_16.i19.i.i.i.i.i.i.i.i.3.i, %_8.i.i
  tail call void @llvm.assume(i1 %_6.i24.i.i.i.i.i.i.i.i.3.i)
  %w.i.i.i.i.i.i.i.i.3.i = load i8, ptr %_16.i19.i.i.i.i.i.i.i.i.3.i, align 1, !noalias !326, !noundef !17
  %_26.i.i.i.i.i.i.i.i.3.i = shl nuw nsw i32 %init.i.i.i.i.i.i.i.i.3.i, 18
  %_25.i.i.i.i.i.i.i.i.3.i = and i32 %_26.i.i.i.i.i.i.i.i.3.i, 1835008
  %_43.i.i.i.i.i.i.i.i.3.i = shl nuw nsw i32 %y_z.i.i.i.i.i.i.i.i.3.i, 6
  %_45.i.i.i.i.i.i.i.i.3.i = and i8 %w.i.i.i.i.i.i.i.i.3.i, 63
  %_44.i.i.i.i.i.i.i.i.3.i = zext nneg i8 %_45.i.i.i.i.i.i.i.i.3.i to i32
  %_27.i.i.i.i.i.i.i.i.3.i = or disjoint i32 %_43.i.i.i.i.i.i.i.i.3.i, %_44.i.i.i.i.i.i.i.i.3.i
  %20 = or disjoint i32 %_27.i.i.i.i.i.i.i.i.3.i, %_25.i.i.i.i.i.i.i.i.3.i
  %.not.i.i.i.i.i.3.i = icmp eq i32 %20, 1114112
  br i1 %.not.i.i.i.i.i.3.i, label %_RINvXs0_NtNtNtCsjMrxcFdYDNN_4core4iter8adapters10take_whileINtB6_9TakeWhileINtNtB8_3zip3ZipINtNtB8_4take4TakeNtNtNtBc_3str4iter5CharsEB1J_ENCINvCs6KJnav5oeQt_6strsim20generic_jaro_winklerNtB2i_13StringWrapperB2Z_ccE0ENtNtNtBa_6traits8iterator8Iterator4foldjNCNvYBV_B3t_5count0EB2i_.exit.i, label %bb9.i.i.i.i.i.3.i

bb3.i.i.i.i.i.i.i.i.3.i:                          ; preds = %bb14.i.i.i.i.i.i.i.i.3.i
  %_7.i.i.i.i.i.i.i.i.3.i = zext nneg i8 %x.i.i.i.i.i.i.i.i.3.i to i32
  br label %bb9.i.i.i.i.i.3.i

bb9.i.i.i.i.i.3.i:                                ; preds = %bb3.i.i.i.i.i.i.i.i.3.i, %_RNvXs_NtNtNtCsjMrxcFdYDNN_4core4iter8adapters4takeINtB4_4TakeNtNtNtBa_3str4iter5CharsENtNtNtB8_6traits8iterator8Iterator4nextCs6KJnav5oeQt_6strsim.exit.i.i.i.i.i.3.i, %bb6.i.i.i.i.i.i.i.i.3.i, %bb4.i.i.i.i.i.i.i.i.3.i
  %_0.sroa.0.0.i10.i.i.i.i.i.3.i = phi i32 [ %20, %_RNvXs_NtNtNtCsjMrxcFdYDNN_4core4iter8adapters4takeINtB4_4TakeNtNtNtBa_3str4iter5CharsENtNtNtB8_6traits8iterator8Iterator4nextCs6KJnav5oeQt_6strsim.exit.i.i.i.i.i.3.i ], [ %18, %bb4.i.i.i.i.i.i.i.i.3.i ], [ %19, %bb6.i.i.i.i.i.i.i.i.3.i ], [ %_7.i.i.i.i.i.i.i.i.3.i, %bb3.i.i.i.i.i.i.i.i.3.i ]
  %_6.i.i.not.i.i.i.i.i.i.3.i = icmp eq ptr %_16.i26.i.i.i.i31.i.i.i.2.i, %_8.i.i.i
  br i1 %_6.i.i.not.i.i.i.i.i.i.3.i, label %_RINvXs0_NtNtNtCsjMrxcFdYDNN_4core4iter8adapters10take_whileINtB6_9TakeWhileINtNtB8_3zip3ZipINtNtB8_4take4TakeNtNtNtBc_3str4iter5CharsEB1J_ENCINvCs6KJnav5oeQt_6strsim20generic_jaro_winklerNtB2i_13StringWrapperB2Z_ccE0ENtNtNtBa_6traits8iterator8Iterator4foldjNCNvYBV_B3t_5count0EB2i_.exit.i, label %bb14.i.i.i.i.i.i.i.3.i

bb14.i.i.i.i.i.i.i.3.i:                           ; preds = %bb9.i.i.i.i.i.3.i
  %x.i.i.i.i.i.i.i.3.i = load i8, ptr %_16.i26.i.i.i.i31.i.i.i.2.i, align 1, !noalias !344, !noundef !17
  %_6.i.i.i.i.i.i.i.3.i = icmp sgt i8 %x.i.i.i.i.i.i.i.3.i, -1
  br i1 %_6.i.i.i.i.i.i.i.3.i, label %bb3.i.i.i.i.i.i.i.3.i, label %bb4.i.i.i.i.i.i.i.3.i

bb4.i.i.i.i.i.i.i.3.i:                            ; preds = %bb14.i.i.i.i.i.i.i.3.i
  %_16.i.i.i.i.i.i.i.i.3.i = getelementptr inbounds nuw i8, ptr %_16.i26.i.i.i.i31.i.i.i.2.i, i64 1
  %_30.i.i.i.i.i.i.i.3.i = and i8 %x.i.i.i.i.i.i.i.3.i, 31
  %init.i.i.i.i.i.i.i.3.i = zext nneg i8 %_30.i.i.i.i.i.i.i.3.i to i32
  %_6.i10.i.i.i.i.i.i.i.3.i = icmp ne ptr %_16.i.i.i.i.i.i.i.i.3.i, %_8.i.i.i
  tail call void @llvm.assume(i1 %_6.i10.i.i.i.i.i.i.i.3.i)
  %y.i.i.i.i.i.i.i.3.i = load i8, ptr %_16.i.i.i.i.i.i.i.i.3.i, align 1, !noalias !344, !noundef !17
  %_33.i.i.i.i.i.i.i.3.i = shl nuw nsw i32 %init.i.i.i.i.i.i.i.3.i, 6
  %_35.i.i.i.i.i.i.i.3.i = and i8 %y.i.i.i.i.i.i.i.3.i, 63
  %_34.i.i.i.i.i.i.i.3.i = zext nneg i8 %_35.i.i.i.i.i.i.i.3.i to i32
  %21 = or disjoint i32 %_33.i.i.i.i.i.i.i.3.i, %_34.i.i.i.i.i.i.i.3.i
  %_13.i.i.i.i.i.i.i.3.i = icmp samesign ugt i8 %x.i.i.i.i.i.i.i.3.i, -33
  br i1 %_13.i.i.i.i.i.i.i.3.i, label %bb6.i.i.i.i.i.i.i.3.i, label %_RNvXs_NtNtNtCsjMrxcFdYDNN_4core4iter8adapters3zipINtB4_3ZipINtNtB6_4take4TakeNtNtNtBa_3str4iter5CharsEB1d_ENtNtNtB8_6traits8iterator8Iterator4nextCs6KJnav5oeQt_6strsim.exit.i.i.i.3.i

bb6.i.i.i.i.i.i.i.3.i:                            ; preds = %bb4.i.i.i.i.i.i.i.3.i
  %_16.i12.i.i.i.i.i.i.i.3.i = getelementptr inbounds nuw i8, ptr %_16.i26.i.i.i.i31.i.i.i.2.i, i64 2
  %_6.i17.i.i.i.i.i.i.i.3.i = icmp ne ptr %_16.i12.i.i.i.i.i.i.i.3.i, %_8.i.i.i
  tail call void @llvm.assume(i1 %_6.i17.i.i.i.i.i.i.i.3.i)
  %z.i.i.i.i.i.i.i.3.i = load i8, ptr %_16.i12.i.i.i.i.i.i.i.3.i, align 1, !noalias !344, !noundef !17
  %_38.i.i.i.i.i.i.i.3.i = shl nuw nsw i32 %_34.i.i.i.i.i.i.i.3.i, 6
  %_40.i.i.i.i.i.i.i.3.i = and i8 %z.i.i.i.i.i.i.i.3.i, 63
  %_39.i.i.i.i.i.i.i.3.i = zext nneg i8 %_40.i.i.i.i.i.i.i.3.i to i32
  %y_z.i.i.i.i.i.i.i.3.i = or disjoint i32 %_38.i.i.i.i.i.i.i.3.i, %_39.i.i.i.i.i.i.i.3.i
  %_20.i.i.i.i.i.i.i.3.i = shl nuw nsw i32 %init.i.i.i.i.i.i.i.3.i, 12
  %22 = or disjoint i32 %y_z.i.i.i.i.i.i.i.3.i, %_20.i.i.i.i.i.i.i.3.i
  %_21.i.i.i.i.i.i.i.3.i = icmp samesign ugt i8 %x.i.i.i.i.i.i.i.3.i, -17
  br i1 %_21.i.i.i.i.i.i.i.3.i, label %_RNvXNtNtCsjMrxcFdYDNN_4core3str4iterNtB2_5CharsNtNtNtNtB6_4iter6traits8iterator8Iterator4next.exit.i.i.i.i.i.3.i, label %_RNvXs_NtNtNtCsjMrxcFdYDNN_4core4iter8adapters3zipINtB4_3ZipINtNtB6_4take4TakeNtNtNtBa_3str4iter5CharsEB1d_ENtNtNtB8_6traits8iterator8Iterator4nextCs6KJnav5oeQt_6strsim.exit.i.i.i.3.i

_RNvXNtNtCsjMrxcFdYDNN_4core3str4iterNtB2_5CharsNtNtNtNtB6_4iter6traits8iterator8Iterator4next.exit.i.i.i.i.i.3.i: ; preds = %bb6.i.i.i.i.i.i.i.3.i
  %_16.i19.i.i.i.i.i.i.i.3.i = getelementptr inbounds nuw i8, ptr %_16.i26.i.i.i.i31.i.i.i.2.i, i64 3
  %_6.i24.i.i.i.i.i.i.i.3.i = icmp ne ptr %_16.i19.i.i.i.i.i.i.i.3.i, %_8.i.i.i
  tail call void @llvm.assume(i1 %_6.i24.i.i.i.i.i.i.i.3.i)
  %w.i.i.i.i.i.i.i.3.i = load i8, ptr %_16.i19.i.i.i.i.i.i.i.3.i, align 1, !noalias !344, !noundef !17
  %_26.i.i.i.i.i.i.i.3.i = shl nuw nsw i32 %init.i.i.i.i.i.i.i.3.i, 18
  %_25.i.i.i.i.i.i.i.3.i = and i32 %_26.i.i.i.i.i.i.i.3.i, 1835008
  %_43.i.i.i.i.i.i.i.3.i = shl nuw nsw i32 %y_z.i.i.i.i.i.i.i.3.i, 6
  %_45.i.i.i.i.i.i.i.3.i = and i8 %w.i.i.i.i.i.i.i.3.i, 63
  %_44.i.i.i.i.i.i.i.3.i = zext nneg i8 %_45.i.i.i.i.i.i.i.3.i to i32
  %_27.i.i.i.i.i.i.i.3.i = or disjoint i32 %_43.i.i.i.i.i.i.i.3.i, %_44.i.i.i.i.i.i.i.3.i
  %23 = or disjoint i32 %_27.i.i.i.i.i.i.i.3.i, %_25.i.i.i.i.i.i.i.3.i
  %.fr.i.i.i.i.i.3.i = freeze i32 %23
  %.not6.i.i.i.i.i.3.i = icmp eq i32 %.fr.i.i.i.i.i.3.i, 1114112
  br i1 %.not6.i.i.i.i.i.3.i, label %_RINvXs0_NtNtNtCsjMrxcFdYDNN_4core4iter8adapters10take_whileINtB6_9TakeWhileINtNtB8_3zip3ZipINtNtB8_4take4TakeNtNtNtBc_3str4iter5CharsEB1J_ENCINvCs6KJnav5oeQt_6strsim20generic_jaro_winklerNtB2i_13StringWrapperB2Z_ccE0ENtNtNtBa_6traits8iterator8Iterator4foldjNCNvYBV_B3t_5count0EB2i_.exit.i, label %_RNvXs_NtNtNtCsjMrxcFdYDNN_4core4iter8adapters3zipINtB4_3ZipINtNtB6_4take4TakeNtNtNtBa_3str4iter5CharsEB1d_ENtNtNtB8_6traits8iterator8Iterator4nextCs6KJnav5oeQt_6strsim.exit.i.i.i.3.i

bb3.i.i.i.i.i.i.i.3.i:                            ; preds = %bb14.i.i.i.i.i.i.i.3.i
  %_7.i.i.i.i.i.i.i.3.i = zext nneg i8 %x.i.i.i.i.i.i.i.3.i to i32
  br label %_RNvXs_NtNtNtCsjMrxcFdYDNN_4core4iter8adapters3zipINtB4_3ZipINtNtB6_4take4TakeNtNtNtBa_3str4iter5CharsEB1d_ENtNtNtB8_6traits8iterator8Iterator4nextCs6KJnav5oeQt_6strsim.exit.i.i.i.3.i

_RNvXs_NtNtNtCsjMrxcFdYDNN_4core4iter8adapters3zipINtB4_3ZipINtNtB6_4take4TakeNtNtNtBa_3str4iter5CharsEB1d_ENtNtNtB8_6traits8iterator8Iterator4nextCs6KJnav5oeQt_6strsim.exit.i.i.i.3.i: ; preds = %bb3.i.i.i.i.i.i.i.3.i, %_RNvXNtNtCsjMrxcFdYDNN_4core3str4iterNtB2_5CharsNtNtNtNtB6_4iter6traits8iterator8Iterator4next.exit.i.i.i.i.i.3.i, %bb6.i.i.i.i.i.i.i.3.i, %bb4.i.i.i.i.i.i.i.3.i
  %_0.sroa.4.0.i.i.i.i.i.3.i = phi i32 [ %21, %bb4.i.i.i.i.i.i.i.3.i ], [ %22, %bb6.i.i.i.i.i.i.i.3.i ], [ %_7.i.i.i.i.i.i.i.3.i, %bb3.i.i.i.i.i.i.i.3.i ], [ %.fr.i.i.i.i.i.3.i, %_RNvXNtNtCsjMrxcFdYDNN_4core3str4iterNtB2_5CharsNtNtNtNtB6_4iter6traits8iterator8Iterator4next.exit.i.i.i.i.i.3.i ]
  %.not.i.i.i.3.i = icmp ne i32 %_0.sroa.0.0.i10.i.i.i.i.i.3.i, 1114112
  %_0.i.i.i.i.i.i.3.i = icmp eq i32 %_0.sroa.0.0.i10.i.i.i.i.i.3.i, %_0.sroa.4.0.i.i.i.i.i.3.i
  %or.cond.i.3.i = select i1 %.not.i.i.i.3.i, i1 %_0.i.i.i.i.i.i.3.i, i1 false
  %spec.select.i = select i1 %or.cond.i.3.i, double 4.000000e-01, double 0x3FD3333333333334
  br label %_RINvXs0_NtNtNtCsjMrxcFdYDNN_4core4iter8adapters10take_whileINtB6_9TakeWhileINtNtB8_3zip3ZipINtNtB8_4take4TakeNtNtNtBc_3str4iter5CharsEB1J_ENCINvCs6KJnav5oeQt_6strsim20generic_jaro_winklerNtB2i_13StringWrapperB2Z_ccE0ENtNtNtBa_6traits8iterator8Iterator4foldjNCNvYBV_B3t_5count0EB2i_.exit.i

_RINvXs0_NtNtNtCsjMrxcFdYDNN_4core4iter8adapters10take_whileINtB6_9TakeWhileINtNtB8_3zip3ZipINtNtB8_4take4TakeNtNtNtBc_3str4iter5CharsEB1J_ENCINvCs6KJnav5oeQt_6strsim20generic_jaro_winklerNtB2i_13StringWrapperB2Z_ccE0ENtNtNtBa_6traits8iterator8Iterator4foldjNCNvYBV_B3t_5count0EB2i_.exit.i: ; preds = %_RNvXs_NtNtNtCsjMrxcFdYDNN_4core4iter8adapters3zipINtB4_3ZipINtNtB6_4take4TakeNtNtNtBa_3str4iter5CharsEB1d_ENtNtNtB8_6traits8iterator8Iterator4nextCs6KJnav5oeQt_6strsim.exit.i.i.i.3.i, %_RNvXNtNtCsjMrxcFdYDNN_4core3str4iterNtB2_5CharsNtNtNtNtB6_4iter6traits8iterator8Iterator4next.exit.i.i.i.i.i.3.i, %bb9.i.i.i.i.i.3.i, %_RNvXs_NtNtNtCsjMrxcFdYDNN_4core4iter8adapters4takeINtB4_4TakeNtNtNtBa_3str4iter5CharsENtNtNtB8_6traits8iterator8Iterator4nextCs6KJnav5oeQt_6strsim.exit.i.i.i.i.i.3.i, %_RNCINvNvXs0_NtNtNtCsjMrxcFdYDNN_4core4iter8adapters10take_whileINtBa_9TakeWhileppENtNtNtBe_6traits8iterator8Iterator8try_fold5checkTccEjINtNtNtBg_3ops9try_trait17NeverShortCircuitjENCINvCs6KJnav5oeQt_6strsim20generic_jaro_winklerNtB2Y_13StringWrapperB3F_ccE0NCINvMs0_B2d_B2a_10wrap_mut_2jB25_NCNvYIB10_INtNtBc_3zip3ZipINtNtBc_4take4TakeNtNtNtBg_3str4iter5CharsEB5o_EB2T_EB1i_5count0E0E0B2Y_.exit.i.i.i.2.i, %_RNvXs_NtNtNtCsjMrxcFdYDNN_4core4iter8adapters3zipINtB4_3ZipINtNtB6_4take4TakeNtNtNtBa_3str4iter5CharsEB1d_ENtNtNtB8_6traits8iterator8Iterator4nextCs6KJnav5oeQt_6strsim.exit.i.i.i.2.i, %_RNvXNtNtCsjMrxcFdYDNN_4core3str4iterNtB2_5CharsNtNtNtNtB6_4iter6traits8iterator8Iterator4next.exit.i.i.i.i.i.2.i, %bb9.i.i.i.i.i.2.i, %_RNvXs_NtNtNtCsjMrxcFdYDNN_4core4iter8adapters4takeINtB4_4TakeNtNtNtBa_3str4iter5CharsENtNtNtB8_6traits8iterator8Iterator4nextCs6KJnav5oeQt_6strsim.exit.i.i.i.i.i.2.i, %_RNCINvNvXs0_NtNtNtCsjMrxcFdYDNN_4core4iter8adapters10take_whileINtBa_9TakeWhileppENtNtNtBe_6traits8iterator8Iterator8try_fold5checkTccEjINtNtNtBg_3ops9try_trait17NeverShortCircuitjENCINvCs6KJnav5oeQt_6strsim20generic_jaro_winklerNtB2Y_13StringWrapperB3F_ccE0NCINvMs0_B2d_B2a_10wrap_mut_2jB25_NCNvYIB10_INtNtBc_3zip3ZipINtNtBc_4take4TakeNtNtNtBg_3str4iter5CharsEB5o_EB2T_EB1i_5count0E0E0B2Y_.exit.i.i.i.1.i, %_RNvXs_NtNtNtCsjMrxcFdYDNN_4core4iter8adapters3zipINtB4_3ZipINtNtB6_4take4TakeNtNtNtBa_3str4iter5CharsEB1d_ENtNtNtB8_6traits8iterator8Iterator4nextCs6KJnav5oeQt_6strsim.exit.i.i.i.1.i, %_RNvXNtNtCsjMrxcFdYDNN_4core3str4iterNtB2_5CharsNtNtNtNtB6_4iter6traits8iterator8Iterator4next.exit.i.i.i.i.i.1.i, %bb9.i.i.i.i.i.1.i, %_RNvXs_NtNtNtCsjMrxcFdYDNN_4core4iter8adapters4takeINtB4_4TakeNtNtNtBa_3str4iter5CharsENtNtNtB8_6traits8iterator8Iterator4nextCs6KJnav5oeQt_6strsim.exit.i.i.i.i.i.1.i, %_RNCINvNvXs0_NtNtNtCsjMrxcFdYDNN_4core4iter8adapters10take_whileINtBa_9TakeWhileppENtNtNtBe_6traits8iterator8Iterator8try_fold5checkTccEjINtNtNtBg_3ops9try_trait17NeverShortCircuitjENCINvCs6KJnav5oeQt_6strsim20generic_jaro_winklerNtB2Y_13StringWrapperB3F_ccE0NCINvMs0_B2d_B2a_10wrap_mut_2jB25_NCNvYIB10_INtNtBc_3zip3ZipINtNtBc_4take4TakeNtNtNtBg_3str4iter5CharsEB5o_EB2T_EB1i_5count0E0E0B2Y_.exit.i.i.i.i, %_RNvXs_NtNtNtCsjMrxcFdYDNN_4core4iter8adapters3zipINtB4_3ZipINtNtB6_4take4TakeNtNtNtBa_3str4iter5CharsEB1d_ENtNtNtB8_6traits8iterator8Iterator4nextCs6KJnav5oeQt_6strsim.exit.i.i.i.i, %_RNvXNtNtCsjMrxcFdYDNN_4core3str4iterNtB2_5CharsNtNtNtNtB6_4iter6traits8iterator8Iterator4next.exit.i.i.i.i.i.i, %bb9.i.i.i.i.i.i, %_RNvXs_NtNtNtCsjMrxcFdYDNN_4core4iter8adapters4takeINtB4_4TakeNtNtNtBa_3str4iter5CharsENtNtNtB8_6traits8iterator8Iterator4nextCs6KJnav5oeQt_6strsim.exit.i.i.i.i.i.i, %bb1.i.i.i.lr.ph.i.i.i.i
  %v.sroa.0.1.i.i.i = phi double [ 0.000000e+00, %_RNvXNtNtCsjMrxcFdYDNN_4core3str4iterNtB2_5CharsNtNtNtNtB6_4iter6traits8iterator8Iterator4next.exit.i.i.i.i.i.i ], [ 0.000000e+00, %bb9.i.i.i.i.i.i ], [ 0.000000e+00, %bb1.i.i.i.lr.ph.i.i.i.i ], [ 0.000000e+00, %_RNvXs_NtNtNtCsjMrxcFdYDNN_4core4iter8adapters4takeINtB4_4TakeNtNtNtBa_3str4iter5CharsENtNtNtB8_6traits8iterator8Iterator4nextCs6KJnav5oeQt_6strsim.exit.i.i.i.i.i.i ], [ 0.000000e+00, %_RNvXs_NtNtNtCsjMrxcFdYDNN_4core4iter8adapters3zipINtB4_3ZipINtNtB6_4take4TakeNtNtNtBa_3str4iter5CharsEB1d_ENtNtNtB8_6traits8iterator8Iterator4nextCs6KJnav5oeQt_6strsim.exit.i.i.i.i ], [ 1.000000e-01, %_RNCINvNvXs0_NtNtNtCsjMrxcFdYDNN_4core4iter8adapters10take_whileINtBa_9TakeWhileppENtNtNtBe_6traits8iterator8Iterator8try_fold5checkTccEjINtNtNtBg_3ops9try_trait17NeverShortCircuitjENCINvCs6KJnav5oeQt_6strsim20generic_jaro_winklerNtB2Y_13StringWrapperB3F_ccE0NCINvMs0_B2d_B2a_10wrap_mut_2jB25_NCNvYIB10_INtNtBc_3zip3ZipINtNtBc_4take4TakeNtNtNtBg_3str4iter5CharsEB5o_EB2T_EB1i_5count0E0E0B2Y_.exit.i.i.i.i ], [ 1.000000e-01, %_RNvXs_NtNtNtCsjMrxcFdYDNN_4core4iter8adapters4takeINtB4_4TakeNtNtNtBa_3str4iter5CharsENtNtNtB8_6traits8iterator8Iterator4nextCs6KJnav5oeQt_6strsim.exit.i.i.i.i.i.1.i ], [ 1.000000e-01, %bb9.i.i.i.i.i.1.i ], [ 1.000000e-01, %_RNvXNtNtCsjMrxcFdYDNN_4core3str4iterNtB2_5CharsNtNtNtNtB6_4iter6traits8iterator8Iterator4next.exit.i.i.i.i.i.1.i ], [ 1.000000e-01, %_RNvXs_NtNtNtCsjMrxcFdYDNN_4core4iter8adapters3zipINtB4_3ZipINtNtB6_4take4TakeNtNtNtBa_3str4iter5CharsEB1d_ENtNtNtB8_6traits8iterator8Iterator4nextCs6KJnav5oeQt_6strsim.exit.i.i.i.1.i ], [ 2.000000e-01, %_RNCINvNvXs0_NtNtNtCsjMrxcFdYDNN_4core4iter8adapters10take_whileINtBa_9TakeWhileppENtNtNtBe_6traits8iterator8Iterator8try_fold5checkTccEjINtNtNtBg_3ops9try_trait17NeverShortCircuitjENCINvCs6KJnav5oeQt_6strsim20generic_jaro_winklerNtB2Y_13StringWrapperB3F_ccE0NCINvMs0_B2d_B2a_10wrap_mut_2jB25_NCNvYIB10_INtNtBc_3zip3ZipINtNtBc_4take4TakeNtNtNtBg_3str4iter5CharsEB5o_EB2T_EB1i_5count0E0E0B2Y_.exit.i.i.i.1.i ], [ 2.000000e-01, %_RNvXs_NtNtNtCsjMrxcFdYDNN_4core4iter8adapters4takeINtB4_4TakeNtNtNtBa_3str4iter5CharsENtNtNtB8_6traits8iterator8Iterator4nextCs6KJnav5oeQt_6strsim.exit.i.i.i.i.i.2.i ], [ 2.000000e-01, %bb9.i.i.i.i.i.2.i ], [ 2.000000e-01, %_RNvXNtNtCsjMrxcFdYDNN_4core3str4iterNtB2_5CharsNtNtNtNtB6_4iter6traits8iterator8Iterator4next.exit.i.i.i.i.i.2.i ], [ 2.000000e-01, %_RNvXs_NtNtNtCsjMrxcFdYDNN_4core4iter8adapters3zipINtB4_3ZipINtNtB6_4take4TakeNtNtNtBa_3str4iter5CharsEB1d_ENtNtNtB8_6traits8iterator8Iterator4nextCs6KJnav5oeQt_6strsim.exit.i.i.i.2.i ], [ 0x3FD3333333333334, %_RNCINvNvXs0_NtNtNtCsjMrxcFdYDNN_4core4iter8adapters10take_whileINtBa_9TakeWhileppENtNtNtBe_6traits8iterator8Iterator8try_fold5checkTccEjINtNtNtBg_3ops9try_trait17NeverShortCircuitjENCINvCs6KJnav5oeQt_6strsim20generic_jaro_winklerNtB2Y_13StringWrapperB3F_ccE0NCINvMs0_B2d_B2a_10wrap_mut_2jB25_NCNvYIB10_INtNtBc_3zip3ZipINtNtBc_4take4TakeNtNtNtBg_3str4iter5CharsEB5o_EB2T_EB1i_5count0E0E0B2Y_.exit.i.i.i.2.i ], [ 0x3FD3333333333334, %_RNvXs_NtNtNtCsjMrxcFdYDNN_4core4iter8adapters4takeINtB4_4TakeNtNtNtBa_3str4iter5CharsENtNtNtB8_6traits8iterator8Iterator4nextCs6KJnav5oeQt_6strsim.exit.i.i.i.i.i.3.i ], [ 0x3FD3333333333334, %bb9.i.i.i.i.i.3.i ], [ 0x3FD3333333333334, %_RNvXNtNtCsjMrxcFdYDNN_4core3str4iterNtB2_5CharsNtNtNtNtB6_4iter6traits8iterator8Iterator4next.exit.i.i.i.i.i.3.i ], [ %spec.select.i, %_RNvXs_NtNtNtCsjMrxcFdYDNN_4core4iter8adapters3zipINtB4_3ZipINtNtB6_4take4TakeNtNtNtBa_3str4iter5CharsEB1d_ENtNtNtB8_6traits8iterator8Iterator4nextCs6KJnav5oeQt_6strsim.exit.i.i.i.3.i ]
  %_13.i = fsub double 1.000000e+00, %sim.i
  %_10.i = fmul double %_13.i, %v.sroa.0.1.i.i.i
  %24 = fadd double %sim.i, %_10.i
  br label %_RINvCs6KJnav5oeQt_6strsim20generic_jaro_winklerNtB2_13StringWrapperBJ_ccEB2_.exit

_RINvCs6KJnav5oeQt_6strsim20generic_jaro_winklerNtB2_13StringWrapperBJ_ccEB2_.exit: ; preds = %start, %_RINvXs0_NtNtNtCsjMrxcFdYDNN_4core4iter8adapters10take_whileINtB6_9TakeWhileINtNtB8_3zip3ZipINtNtB8_4take4TakeNtNtNtBc_3str4iter5CharsEB1J_ENCINvCs6KJnav5oeQt_6strsim20generic_jaro_winklerNtB2i_13StringWrapperB2Z_ccE0ENtNtNtBa_6traits8iterator8Iterator4foldjNCNvYBV_B3t_5count0EB2i_.exit.i
  %_0.sroa.0.0.i = phi double [ %24, %_RINvXs0_NtNtNtCsjMrxcFdYDNN_4core4iter8adapters10take_whileINtB6_9TakeWhileINtNtB8_3zip3ZipINtNtB8_4take4TakeNtNtNtBc_3str4iter5CharsEB1J_ENCINvCs6KJnav5oeQt_6strsim20generic_jaro_winklerNtB2i_13StringWrapperB2Z_ccE0ENtNtNtBa_6traits8iterator8Iterator4foldjNCNvYBV_B3t_5count0EB2i_.exit.i ], [ %sim.i, %start ]
  ret double %_0.sroa.0.0.i
}

; strsim::osa_distance
; Function Attrs: uwtable
define noundef i64 @_RNvCs6KJnav5oeQt_6strsim12osa_distance(ptr noalias noundef nonnull readonly align 1 captures(address) %a.0, i64 noundef %a.1, ptr noalias noundef nonnull readonly align 1 captures(address, read_provenance) %b.0, i64 noundef %b.1) unnamed_addr #0 personality ptr @rust_eh_personality {
start:
  %_65 = getelementptr inbounds nuw i8, ptr %b.0, i64 %b.1
  %_6.i = icmp ult i64 %b.1, 32
  br i1 %_6.i, label %bb2.i, label %bb3.i

bb3.i:                                            ; preds = %start
; call core::str::count::do_count_chars
  %0 = tail call noundef i64 @_RNvNtNtCsjMrxcFdYDNN_4core3str5count14do_count_chars(ptr noalias noundef nonnull readonly align 1 captures(address, read_provenance) %b.0, i64 noundef %b.1)
  br label %_RNvXNtNtCsjMrxcFdYDNN_4core3str4iterNtB2_5CharsNtNtNtNtB6_4iter6traits8iterator8Iterator5count.exit

bb2.i:                                            ; preds = %start
; call core::str::count::char_count_general_case
  %1 = tail call noundef i64 @_RNvNtNtCsjMrxcFdYDNN_4core3str5count23char_count_general_case(ptr noalias noundef nonnull readonly align 1 captures(address, read_provenance) %b.0, i64 noundef %b.1)
  br label %_RNvXNtNtCsjMrxcFdYDNN_4core3str4iterNtB2_5CharsNtNtNtNtB6_4iter6traits8iterator8Iterator5count.exit

_RNvXNtNtCsjMrxcFdYDNN_4core3str4iterNtB2_5CharsNtNtNtNtB6_4iter6traits8iterator8Iterator5count.exit: ; preds = %bb3.i, %bb2.i
  %_0.sroa.0.0.i = phi i64 [ %1, %bb2.i ], [ %0, %bb3.i ]
  %_7 = add i64 %_0.sroa.0.0.i, 1
  %_23.i.i.i.not.i.not = icmp eq i64 %_7, 0
  br i1 %_23.i.i.i.not.i.not, label %bb28, label %bb6.i.i.i.i

bb6.i.i.i.i:                                      ; preds = %_RNvXNtNtCsjMrxcFdYDNN_4core3str4iterNtB2_5CharsNtNtNtNtB6_4iter6traits8iterator8Iterator5count.exit
  %_27.0.i.i.i.i = shl i64 %_0.sroa.0.0.i, 3
  %_27.1.i.i.i.i = icmp ugt i64 %_0.sroa.0.0.i, 2305843009213693951
  %_40.i.i.i.i = icmp ugt i64 %_27.0.i.i.i.i, 9223372036854775799
  %or.cond.i = or i1 %_27.1.i.i.i.i, %_40.i.i.i.i
  br i1 %or.cond.i, label %bb3.i.i, label %bb3.i.i.i, !prof !46

bb3.i.i.i:                                        ; preds = %bb6.i.i.i.i
  %new_size2.i.i.i.i = add nuw nsw i64 %_27.0.i.i.i.i, 8
; call __rustc::__rust_no_alloc_shim_is_unstable_v2
  tail call void @_RNvCsKhRCbHf33p_7___rustc35___rust_no_alloc_shim_is_unstable_v2() #23, !noalias !349
; call __rustc::__rust_alloc
  %2 = tail call noundef align 8 ptr @_RNvCsKhRCbHf33p_7___rustc12___rust_alloc(i64 noundef %new_size2.i.i.i.i, i64 noundef range(i64 1, 9) 8) #23, !noalias !349
  %3 = icmp eq ptr %2, null
  br i1 %3, label %bb3.i.i, label %bb3.i.i.i.i.i.preheader

bb3.i.i.i.i.i.preheader:                          ; preds = %bb3.i.i.i
  %min.iters.check = icmp ult i64 %_7, 8
  br i1 %min.iters.check, label %bb3.i.i.i.i.i.preheader531, label %vector.ph

vector.ph:                                        ; preds = %bb3.i.i.i.i.i.preheader
  %n.vec = and i64 %_7, 4611686018427387896
  br label %vector.body

vector.body:                                      ; preds = %vector.body, %vector.ph
  %index = phi i64 [ 0, %vector.ph ], [ %index.next, %vector.body ]
  %vec.ind = phi <2 x i64> [ <i64 0, i64 1>, %vector.ph ], [ %vec.ind.next, %vector.body ]
  %step.add = add <2 x i64> %vec.ind, splat (i64 2)
  %step.add.2 = add <2 x i64> %vec.ind, splat (i64 4)
  %step.add.3 = add <2 x i64> %vec.ind, splat (i64 6)
  %4 = getelementptr inbounds nuw i64, ptr %2, i64 %index
  %5 = getelementptr inbounds nuw i8, ptr %4, i64 16
  %6 = getelementptr inbounds nuw i8, ptr %4, i64 32
  %7 = getelementptr inbounds nuw i8, ptr %4, i64 48
  store <2 x i64> %vec.ind, ptr %4, align 8, !noalias !354
  store <2 x i64> %step.add, ptr %5, align 8, !noalias !354
  store <2 x i64> %step.add.2, ptr %6, align 8, !noalias !354
  store <2 x i64> %step.add.3, ptr %7, align 8, !noalias !354
  %index.next = add nuw i64 %index, 8
  %vec.ind.next = add <2 x i64> %vec.ind, splat (i64 8)
  %8 = icmp eq i64 %index.next, %n.vec
  br i1 %8, label %middle.block, label %vector.body, !llvm.loop !367

middle.block:                                     ; preds = %vector.body
  %cmp.n = icmp eq i64 %_7, %n.vec
  br i1 %cmp.n, label %bb6.i.i.i.i40, label %bb3.i.i.i.i.i.preheader531

bb3.i.i.i.i.i.preheader531:                       ; preds = %bb3.i.i.i.i.i.preheader, %middle.block
  %.ph532 = phi i64 [ 0, %bb3.i.i.i.i.i.preheader ], [ %n.vec, %middle.block ]
  br label %bb3.i.i.i.i.i

bb3.i.i:                                          ; preds = %bb3.i.i.i, %bb6.i.i.i.i
  %_4.sroa.4.0.ph.i.i = phi i64 [ 8, %bb3.i.i.i ], [ 0, %bb6.i.i.i.i ]
  %_4.sroa.10.0.ph.i.i = phi i64 [ %new_size2.i.i.i.i, %bb3.i.i.i ], [ undef, %bb6.i.i.i.i ]
; call alloc::raw_vec::handle_error
  tail call void @_RNvNtCsdJPVW0sQgAG_5alloc7raw_vec12handle_error(i64 noundef %_4.sroa.4.0.ph.i.i, i64 %_4.sroa.10.0.ph.i.i) #24, !noalias !368
  unreachable

bb3.i.i.i.i.i:                                    ; preds = %bb3.i.i.i.i.i.preheader531, %bb3.i.i.i.i.i
  %9 = phi i64 [ %10, %bb3.i.i.i.i.i ], [ %.ph532, %bb3.i.i.i.i.i.preheader531 ]
  %10 = add nuw nsw i64 %9, 1
  %_3.i.i.i.i.i.i.i = getelementptr inbounds nuw i64, ptr %2, i64 %9
  store i64 %9, ptr %_3.i.i.i.i.i.i.i, align 8, !noalias !354
  %exitcond.not.i.i.i.i.i = icmp eq i64 %9, %_0.sroa.0.0.i
  br i1 %exitcond.not.i.i.i.i.i, label %bb6.i.i.i.i40, label %bb3.i.i.i.i.i, !llvm.loop !369

bb6.i.i.i.i40:                                    ; preds = %bb3.i.i.i.i.i, %middle.block
  %.lcssa484 = phi i64 [ %n.vec, %middle.block ], [ %10, %bb3.i.i.i.i.i ]
  %11 = ptrtoint ptr %2 to i64
  %_40.i.i.i.i43 = icmp samesign ugt i64 %_0.sroa.0.0.i, 1152921504606846974
  br i1 %_40.i.i.i.i43, label %bb3.i.i53, label %bb3.i.i.i45, !prof !46

bb3.i.i.i45:                                      ; preds = %bb6.i.i.i.i40
; call __rustc::__rust_no_alloc_shim_is_unstable_v2
  tail call void @_RNvCsKhRCbHf33p_7___rustc35___rust_no_alloc_shim_is_unstable_v2() #23, !noalias !370
; call __rustc::__rust_alloc
  %12 = tail call noundef align 8 ptr @_RNvCsKhRCbHf33p_7___rustc12___rust_alloc(i64 noundef %new_size2.i.i.i.i, i64 noundef range(i64 1, 9) 8) #23, !noalias !370
  %13 = icmp eq ptr %12, null
  br i1 %13, label %bb3.i.i53, label %bb3.i.i.i.i.i48.preheader

bb3.i.i.i.i.i48.preheader:                        ; preds = %bb3.i.i.i45
  %min.iters.check486 = icmp ult i64 %_7, 8
  br i1 %min.iters.check486, label %bb3.i.i.i.i.i48.preheader528, label %vector.ph487

vector.ph487:                                     ; preds = %bb3.i.i.i.i.i48.preheader
  %n.vec489 = and i64 %_7, 2305843009213693944
  br label %vector.body490

vector.body490:                                   ; preds = %vector.body490, %vector.ph487
  %index491 = phi i64 [ 0, %vector.ph487 ], [ %index.next496, %vector.body490 ]
  %vec.ind492 = phi <2 x i64> [ <i64 0, i64 1>, %vector.ph487 ], [ %vec.ind.next497, %vector.body490 ]
  %step.add493 = add <2 x i64> %vec.ind492, splat (i64 2)
  %step.add.2494 = add <2 x i64> %vec.ind492, splat (i64 4)
  %step.add.3495 = add <2 x i64> %vec.ind492, splat (i64 6)
  %14 = getelementptr inbounds nuw i64, ptr %12, i64 %index491
  %15 = getelementptr inbounds nuw i8, ptr %14, i64 16
  %16 = getelementptr inbounds nuw i8, ptr %14, i64 32
  %17 = getelementptr inbounds nuw i8, ptr %14, i64 48
  store <2 x i64> %vec.ind492, ptr %14, align 8, !noalias !375
  store <2 x i64> %step.add493, ptr %15, align 8, !noalias !375
  store <2 x i64> %step.add.2494, ptr %16, align 8, !noalias !375
  store <2 x i64> %step.add.3495, ptr %17, align 8, !noalias !375
  %index.next496 = add nuw i64 %index491, 8
  %vec.ind.next497 = add <2 x i64> %vec.ind492, splat (i64 8)
  %18 = icmp eq i64 %index.next496, %n.vec489
  br i1 %18, label %middle.block498, label %vector.body490, !llvm.loop !388

middle.block498:                                  ; preds = %vector.body490
  %cmp.n499 = icmp eq i64 %_7, %n.vec489
  br i1 %cmp.n499, label %bb6.i.i.i, label %bb3.i.i.i.i.i48.preheader528

bb3.i.i.i.i.i48.preheader528:                     ; preds = %bb3.i.i.i.i.i48.preheader, %middle.block498
  %.ph529 = phi i64 [ 0, %bb3.i.i.i.i.i48.preheader ], [ %n.vec489, %middle.block498 ]
  br label %bb3.i.i.i.i.i48

bb3.i.i53:                                        ; preds = %bb3.i.i.i45, %bb6.i.i.i.i40
  %_4.sroa.4.0.ph.i.i54 = phi i64 [ 8, %bb3.i.i.i45 ], [ 0, %bb6.i.i.i.i40 ]
  %_4.sroa.10.0.ph.i.i55 = phi i64 [ %new_size2.i.i.i.i, %bb3.i.i.i45 ], [ undef, %bb6.i.i.i.i40 ]
; invoke alloc::raw_vec::handle_error
  invoke void @_RNvNtCsdJPVW0sQgAG_5alloc7raw_vec12handle_error(i64 noundef %_4.sroa.4.0.ph.i.i54, i64 %_4.sroa.10.0.ph.i.i55) #24
          to label %.noexc unwind label %bb24.thread

.noexc:                                           ; preds = %bb3.i.i53
  unreachable

bb3.i.i.i.i.i48:                                  ; preds = %bb3.i.i.i.i.i48.preheader528, %bb3.i.i.i.i.i48
  %19 = phi i64 [ %20, %bb3.i.i.i.i.i48 ], [ %.ph529, %bb3.i.i.i.i.i48.preheader528 ]
  %20 = add nuw nsw i64 %19, 1
  %_3.i.i.i.i.i.i.i51 = getelementptr inbounds nuw i64, ptr %12, i64 %19
  store i64 %19, ptr %_3.i.i.i.i.i.i.i51, align 8, !noalias !375
  %exitcond.not.i.i.i.i.i52 = icmp eq i64 %19, %_0.sroa.0.0.i
  br i1 %exitcond.not.i.i.i.i.i52, label %bb6.i.i.i, label %bb3.i.i.i.i.i48, !llvm.loop !389

bb24:                                             ; preds = %bb23, %bb23.thread
  %21 = phi ptr [ %12, %bb23.thread ], [ %32, %bb23 ]
  %.pn182 = phi { ptr, i32 } [ %34, %bb23.thread ], [ %44, %bb23 ]
  %prev_two_distances.sroa.7.1178 = phi ptr [ %2, %bb23.thread ], [ %33, %bb23 ]
  %alloc_size.i.i.i.i5.i61 = shl nuw i64 %_7, 3
  %22 = icmp ne ptr %21, null
  tail call void @llvm.assume(i1 %22)
; call __rustc::__rust_dealloc
  tail call void @_RNvCsKhRCbHf33p_7___rustc14___rust_dealloc(ptr noundef nonnull %21, i64 noundef %alloc_size.i.i.i.i5.i61, i64 noundef range(i64 1, -9223372036854775807) 8) #23
  br label %bb2.i.i.i4.i

bb2.i.i.i4.i:                                     ; preds = %bb24, %bb24.thread
  %23 = phi ptr [ %2, %bb24.thread ], [ %prev_two_distances.sroa.7.1178, %bb24 ]
  %.pn.pn164 = phi { ptr, i32 } [ %25, %bb24.thread ], [ %.pn182, %bb24 ]
  %alloc_size.i.i.i.i5.i = shl nuw i64 %_7, 3
  %24 = icmp ne ptr %23, null
  tail call void @llvm.assume(i1 %24)
; call __rustc::__rust_dealloc
  tail call void @_RNvCsKhRCbHf33p_7___rustc14___rust_dealloc(ptr noundef nonnull %23, i64 noundef %alloc_size.i.i.i.i5.i, i64 noundef range(i64 1, -9223372036854775807) 8) #23
  br label %bb25

bb24.thread:                                      ; preds = %bb3.i.i53
  %25 = landingpad { ptr, i32 }
          cleanup
  br label %bb2.i.i.i4.i

bb6.i.i.i:                                        ; preds = %bb3.i.i.i.i.i48, %middle.block498
  %.lcssa = phi i64 [ %n.vec489, %middle.block498 ], [ %20, %bb3.i.i.i.i.i48 ]
; call __rustc::__rust_no_alloc_shim_is_unstable_v2
  tail call void @_RNvCsKhRCbHf33p_7___rustc35___rust_no_alloc_shim_is_unstable_v2() #23, !noalias !390
; call __rustc::__rust_alloc_zeroed
  %26 = tail call noundef align 8 ptr @_RNvCsKhRCbHf33p_7___rustc19___rust_alloc_zeroed(i64 noundef range(i64 1, 0) %new_size2.i.i.i.i, i64 noundef range(i64 1, -9223372036854775807) 8) #23, !noalias !390
  %27 = icmp eq ptr %26, null
  br i1 %27, label %bb14.i, label %bb10.i.i

bb10.i.i:                                         ; preds = %bb6.i.i.i
  %28 = ptrtoint ptr %12 to i64
  %29 = ptrtoint ptr %26 to i64
  br label %bb28

bb14.i:                                           ; preds = %bb6.i.i.i
; invoke alloc::raw_vec::handle_error
  invoke void @_RNvNtCsdJPVW0sQgAG_5alloc7raw_vec12handle_error(i64 noundef 8, i64 %new_size2.i.i.i.i) #24
          to label %.noexc59 unwind label %bb23.thread

.noexc59:                                         ; preds = %bb14.i
  unreachable

bb23:                                             ; preds = %cleanup3
  %30 = inttoptr i64 %curr_distances.sroa.7.0250 to ptr
  %alloc_size.i.i.i.i5.i68 = shl nuw i64 %_7, 3
  %31 = icmp ne i64 %curr_distances.sroa.7.0250, 0
  tail call void @llvm.assume(i1 %31)
; call __rustc::__rust_dealloc
  tail call void @_RNvCsKhRCbHf33p_7___rustc14___rust_dealloc(ptr noundef nonnull %30, i64 noundef %alloc_size.i.i.i.i5.i68, i64 noundef range(i64 1, -9223372036854775807) 8) #23
  %32 = inttoptr i64 %prev_distances.sroa.9.1239 to ptr
  %33 = inttoptr i64 %prev_two_distances.sroa.7.2228 to ptr
  br label %bb24

bb23.thread:                                      ; preds = %bb14.i
  %34 = landingpad { ptr, i32 }
          cleanup
  br label %bb24

bb28:                                             ; preds = %_RNvXNtNtCsjMrxcFdYDNN_4core3str4iterNtB2_5CharsNtNtNtNtB6_4iter6traits8iterator8Iterator5count.exit, %bb10.i.i
  %35 = phi i64 [ %28, %bb10.i.i ], [ 8, %_RNvXNtNtCsjMrxcFdYDNN_4core3str4iterNtB2_5CharsNtNtNtNtB6_4iter6traits8iterator8Iterator5count.exit ]
  %f.val4.i.i.i.i.i37171 = phi i64 [ %.lcssa, %bb10.i.i ], [ 0, %_RNvXNtNtCsjMrxcFdYDNN_4core3str4iterNtB2_5CharsNtNtNtNtB6_4iter6traits8iterator8Iterator5count.exit ]
  %f.val4.i.i.i.i.i158170 = phi i64 [ %.lcssa484, %bb10.i.i ], [ 0, %_RNvXNtNtCsjMrxcFdYDNN_4core3str4iterNtB2_5CharsNtNtNtNtB6_4iter6traits8iterator8Iterator5count.exit ]
  %36 = phi i64 [ %11, %bb10.i.i ], [ 8, %_RNvXNtNtCsjMrxcFdYDNN_4core3str4iterNtB2_5CharsNtNtNtNtB6_4iter6traits8iterator8Iterator5count.exit ]
