; ModuleID = 'unicode_width.7772ea7a91f6d69-cgu.0'
source_filename = "unicode_width.7772ea7a91f6d69-cgu.0"
target datalayout = "e-m:o-p270:32:32-p271:32:32-p272:64:64-i64:64-i128:128-n32:64-S128-Fn32"
target triple = "arm64-apple-macosx11.0.0"

@_RNvNtCsDJOD2kcAir_13unicode_width6tables10WIDTH_ROOT = local_unnamed_addr constant [256 x i8] c"\00\01\02\02\02\03\04\05\06\07\08\09\0A\0B\0C\0D\02\02\02\02\02\02\02\0E\02\02\02\02\02\02\02\0E\08\08\08\08\08\08\08\08\08\08\08\08\08\08\08\08\08\08\08\08\08\08\08\08\08\08\08\08\08\08\08\08\08\08\08\08\08\08\08\08\08\08\08\08\08\08\08\08\08\08\08\08\08\08\08\08\08\08\08\08\08\08\08\08\08\08\08\08\08\08\08\08\08\08\08\08\08\08\08\08\0F\08\08\08\08\08\08\08\08\08\08\08\08\08\08\08\08\08\08\08\08\08\08\08\00\00\00\00\00\00\00\00\00\00\00\00\00\00\00\00\00\00\00\00\00\00\00\00\00\00\00\00\00\00\00\00\00\00\00\00\00\00\00\00\00\00\00\00\00\00\00\00\00\00\00\00\00\00\00\00\00\00\00\00\00\00\00\00\00\00\00\00\00\00\00\00\00\00\00\00\00\00\00\00\00\00\00\00\00\00\00\00\00\00\00\00\00\00\00\00\00\00\00\00\00\00\00\00\00\00\00\00\00\00\00\00\00\00\00\00\00\00\00\00", align 128
@_RNvNtCsDJOD2kcAir_13unicode_width6tables12WIDTH_LEAVES = local_unnamed_addr constant [5952 x i8] c"UUuUUUUUUUUUUUUUUUUUUUUUUUUUUUUUUUUUUUUUUUUQUUUUUUUUUUUUUUUUUUUUUUUUUUUUUUUUUUUUUUUUUUUUUUUUUUUU\00\00\00\00\00\00\00\00\00\00\00\00\00\00\00\00\00\00\00\00\00\00\00\00\00\00\00\00UUUU\15\00PUUUUUUUUUUUUUUUUUUUUUUUUUUUUUUUUU\01\00\00\00\00\00\00\00\00\00\00\10A\10UUUUUWUUUUUUUUUQUU\00\00@T\F5\DDUUUUUUUU\15\00\00\00\00\00UUUU\FC]UUUUUUUUUUUUUUUUUUUUUUU\05\00\14\00\14\04PUUUUUUU\15QUUUUUUU\00\00\00\00\00\00@UUUUUUUUU\D5WUUUUUUUUUUU\05\00\00TUUUUUUUUUUUUU\15\00\00UUQUUUUU\05\10\00\00\01\01PUUUUUUUUUU\01UUUUU\FF\FF\FF\FF\7FUUUP\15\00\00UUUUUUUUUU\05\00\00\00\00\00\00\00\00\00\00\00\00\00@UUUUUUUUUUUUUET\01\00TQ\01\00UU\05UUUUUUUQUUUUUUUUUUUUUUD\01TUQU\15UU\05UUUUUUEAUUUUUUUUUUUUUUTA\15\14PQUUUUUUUPQUUAUUUUUUUUUUUUUUT\01\10TQUUUU\05UUUUU\05\00QUUUUUUUUUUUUUU\04\01TUQU\01UU\05UUUUUUUEUUUUUUUUUUUUUUETUUQU\15UUUUUUUUUUTTUUUUUUUUUUUUU\04T\05\04PUAUU\05UUUUUUUQUUUUUUUUUUUUUU\14D\05\04PUAUU\05UUUUUUUPUUUUUUUUUUUUU\15D\01TUAU\15UU\05UUUUUUUQUUUUUUUUUUUUUUUUUE\15\05DU\15UUUUUUUUUUUUUUUUUUUUQ\00@UU\15\00@UUUUUUUUUUUUUUUUUUUUUUUUQ\00\00TUU\00@UUUUUUUUUUUUUUUUUUPUUUUUU\11QUUUUUUUUUUUUU\01\00\00@\00\04U\01\00\00\01\00\00\00\00\00\00\00\00TUEUUUUUUUUUUUUUUUUUUUUUUUUU\01\04\00AAUUUUUUP\05TUUU\01TUUEAUQUUUQUUUUUUUUUUUUUUUUUUUUUUUU\AA\AA\AA\AA\AA\AA\AA\AA\AA\AA\AA\AA\AA\AA\AA\AA\AA\AA\AA\AA\AA\AA\AA\AA\00\00\00\00\00\00\00\00\00\00\00\00\00\00\00\00\00\00\00\00\00\00\00\00\00\00\00\00\00\00\00\00\00\00\00\00\00\00\00\00UUUUUUUUUUUUUUUUUUUUUUU\01UUUUUUUUUUUU\05PUUUUUU\05TUUUUUU\05UUUUUUU\05UUU\7F\FF\FD\F7\FF\FD\D7_w\D6\D5\D7U\10\00PUE\01\00\00UWQUUUUUUUUUU\15\00UUUUUUUUUUUUUUUUUUUUUUUUUUUUUAUUUUUUUUQUUUUUUUUUUUUUUUUUUUUUUUUUUUUU@\15TUEU\01UUUUUUUUUUUUUUUUUUUUUW\15\14UUUUUUUUUUUUUUE\00@D\01\00T\15\00\00\14UUUUUUUUUUUU\00\00\00\00\00\00\00\00\00\00\00P\00\00\00UUUUU\00UUUUUUUUUUUU\00\00P\05TUUUUUUUU\15\00\00UUUPUUUUUUU\05P\00PUUUUUUUUUUUUUEP\11\00UUUUUUUUUUUUUU\00\00\05UUUUUUUUUUUUUUUUUUUUUUUUUUUUUUUUUUUUUU@\00\00\00\04\00TQUTPUUUUUUUUUUUUUUUUU\00\00\00\00\00\00\00\00\00\00\00\00\00\00\00\00UU\15\00UUUUUU\05@UUUUUUUUUUUU\00\00\00\00UUUUUUUUUUUUUUUUUUUUUUUU\00\00\00\00\00\00\00\00TUUUUUUUUU\F5UUUiUUUUUUUUUUUUUUUUUUUUUUUUUUUUUUUUUUUUUUUUUUUUUUU\FDW\D7UUUUUUUUUUUUUUUUUUUUUUUUUUUUUUUUUU}UUUUU_UUUUUU\AA\AAUUUU\FF\FF\FFUUUUUUUUUU\D5UU\A5\AA\D5UUU]U\F5UUUU}U_UuUWUUUUuU\F5]u]U]\F5UUUUUUUWUUUUUUUUw\D5\DFUUUUUUUUUUUUUUU\FDUUUUUUWUU\D5UUUUUUUUUUUUUUUUUUUUUU\D5WUUUUUUUUUUUUW]UUUUUUUUUUUUUUUUUUUUUUUUUUUUUUUUUUUUU\15PUUUUUUUUUUUUUUU\FD\FF\FF\FF\FF\FF\FF\FF\FF\FF\FF\FF\FF_U\D5UUUUUUUUUUUUUUUUUUUUUUUUUUUU\00\00\00\00\00\00\00\00\AA\AA\AA\AA\AA\AA\9A\AA\AA\AA\AA\AA\AA\AA\AA\AA\AA\AA\AA\AA\AA\AA\AA\AA\AA\AA\AA\AA\AAUUU\AA\AA\AA\AA\AA\AA\AA\AA\AA\AA\AA\AA\AA\AA\AA\AA\AA\AA\AA\AA\AA\AA\AA\AA\AA\AA\AA\AA\AA\AA\AA\AA\AA\AA\AA\AA\AA\AA\AA\AA\AA\AA\AA\AA\AA\AA\AA\AA\AA\AA\AA\AA\AAZUUUUUU\AA\AA\AA\AA\AA\AA\AA\AA\AA\AA\AA\AA\AA\AA\0A\00\AA\AA\AAj\A9\AA\AA\AA\AA\AA\AA\AA\AA\AA\AA\AA\AA\AA\AA\AA\AA\AA\AA\AA\AAj\81\AA\AA\AA\AA\AA\AA\AA\AA\AA\AA\AA\AA\AA\AA\AA\AA\AA\AA\AA\AA\AA\AA\AA\AA\AAU\A9\AA\AA\AA\AA\AA\AA\AA\AA\AA\AA\A9\AA\AA\AA\AA\AA\AA\AA\AA\AA\AA\AA\AA\A8\AA\AA\AA\AA\AA\AA\AA\AA\AAj\AA\AA\AA\AA\AA\AA\AA\AA\AA\AA\AA\AA\AA\AA\AA\AA\AA\AA\AA\AA\AAZU\95\AA\AA\AA\AA\AA\AA\AA\AA\AA\AA\AAj\AA\AA\AA\AA\AA\AA\AA\AA\AA\AAUU\AA\AA\AA\AA\AA\AA\AA\AA\AA\AA\AA\AA\AA\AA\AAV\AA\AA\AA\AA\AA\AA\AA\AA\AA\AA\AA\AA\AAjUUUUUUUUUUUUU_UUUUUUUUUUUUUUUUUUUUUUUUUUU\15@\00\00PUUUUUUU\05UUUUUUUUUUUUUUUUUUUUPUUUEE\15UUUUUUAUTUUUUUUUUUUUUUUUUUUUUUUUUUUUUUUUUUUUUUPUUUUUU\00\00\00\00PUE\15UUUUUUUUU\05\00PUUUUU\15\00\00\10UUU\AA\AA\AA\AA\AA\AA\AAV@UUUUUUUUUUU\15\05PPTUUUUUUUUQUUUUUUUUUUUUUUUU\01@AAUU\15UUTUUUUUUUUUUUTUUUUUUUUUUUU\04\14T\05QUUUUUUUUUUPUEUUUUUUUUUUUUUUUUUUUUUUUUUUUQTQUUUU\AA\AA\AA\AA\AA\AA\AA\AA\AAUUU\00\00\00\00\00@\15\00\00\00\00\00\00\00\00\00\00\00\00UUUUUUUUEUUUUUUUUUUUUUUUUUUUUUUUU\0C\00\00\F0\AA\AAZU\00\00\00\00\AA\AA\AA\AA\AA\AA\AA\AAj\AA\AA\AA\AAj\AAUUUUUUUUUUUUUUUUUUUUUUUUUUUUUUUUUUUU\15\A9\AA\AA\AA\AA\AA\AA\AA\AA\AA\AA\AA\AA\AA\AA\AA\AA\AA\AA\AA\AA\AA\AA\AAVUUUUUUUUUUUUUU\05TUUUUUUUUUUUUUUU\AAjUU\00\00TUUUUUUUUUUUUUUUUUUUUUUUUUUUUUUUUQUUUUUUUUUUUUUUUUUUUUUUUUTUUUUUUUUUUUUUUUUUUUUUUUUUUUUUUUUUUUU\05@U\01AU\00UUUUUUUUUU@\15UUUUUUUUUUUUUUUUUUUUUUUUUUUUUUUUUUUUUUUUUAUUUUUU\D5UUUUUUUUUUUUUUUUUUUUUUUUUUUUUUUUUUUUUUUU\00UUUUUUUUUUUUUUUU\01PUUUUUUUUUUUUUU\15TUUUUUUUUUUUUUUUUUU\05\00UUUUUUUUUUUUUUUUU\05\00\00TUUUUUUUUUUU\05PUUUUUUUUUUUUUUUUUUUUUUUUUUUUUUQUUUUUUUUUUUUU\00\00\00@UUUUUUUUUU\14TU\15PUUUUUUUUUUU\15@AUEUUUUUUUUUUUUUUU@UUUUUUUU\15\00\01\00TUUUUUUUUUUUUUU\15UUUPUUUUUUUUUUUU\05\00@\04U\01\14UUUUUUUUUUUUUUUUUUUUUUU\15P\00UEQUUUUUUUUUUUUUUUUUUUUUUUUUUUUUUUUUUUUUU\15\15\00@UUUUUPUUUUUUUUUUUUU\15DTUUQU\15UUU\05\00T\00TUUUUUUUUUUUUUUUU\14\00D\11P\05@UUUAUUUUUUUUUUUUUUUUUUUUU\00\00\05DUUUUUEUUUUUUUUUUUUUUUUUUUU\14\00D\11\04UUUUUUUUUUUUUUUUUUUUUUUUUU\15\05PU\10TUUUUUUPUUUUUUUUUUUUUUUUUUUU\15\00@\11TUUUUUUUUUUUUUUUUUUUUUUUUU\15Q\00\00UUUUUUUUUUUUUUUUUUUUUUUUU\11\05\10\00UUUUUUUUUUUUUUUUUUUUUUUUUUUUUUUU\15\00\00AUUUUUUUUUUUUUUUUUUUUUUUUUUUUUTU\15\00\11UUUUUUUUUUUUUUUUUUUUUUUUUUUUUUUUUUUU\00\05UTUUUUUUU\01\00@UUUUUUUUU\15\00\14@U\15UU\01@\01UUUUUUUUUU\00\00\00\00@PUUUUUUUUUUUUUUUUUUUUUUUUUUUUUUUUUUUUUUUUUUUUUUUUU\04DUUUUUUUUUUUUUUUUUU\00@\00\10UUUUUUUUUUUUUUUUUUUU\05\00\00\00\00\00\05\00\04AUUUUUUUUUUUUUUUUUUUUUUUUUUUUUU\01@E\10\00\00UUUUUUUUUUUUUUUUUUP\11UUUUUUUUUUUUUUUUUUUUUUUUUUUUUUUUUUUUUUUUUUUUUUUUUUUUUU\15TUU@UUUUUUUUUUUU\05@U@UUUUUEUUUUUUUUUUUUUUUUUUUUUUUUUT\15\00\00\00PUUUUUUUUUUUUUUUUU\05\00\00P\01UUUUUUUUUUUUUUUUUUUUUUUUUUUUUUUUUUUUUUUUUUUUUUUU\00TUUUUUUUUUUUUUU\00@UUUUUUUUUUUUUUUUUUUUUUUUUUUUUUUUUUUUUUUUUUU\D5WUUUUUUUUUUUUUUUUUUUUUUUU\15UUUUUUUUUUUUUUU\15@UUUUUUUUUUUUUUUUUUU\AATUU\A0jUU\AA\AA\AA\AA\AA\AA\AA\AA\AA\AA\AA\AA\AA\AA\AA\AA\AA\AA\AA\AA\AAZUUUUUUUUU\95\AA\AA\AA\AA\AA\AA\AAjUUUUUUUUUUUUUUUUUUUUUUUU\AA\AA\AA\AA\AA\AA\AA\AA\AA\AA\AA\AA\AA\AA\AA\AA\AA\AA\AA\AA\AA\AA\AA\AA\AA\AA\AA\AAjUUUUUUUUUUUUUUUUUUUUUUUUUUUUUUU\AA\A9\AAi\AA\AA\AA\AA\AA\AA\AA\AAjUUUeUUUUUUUjYUUU\AAUU\AA\AA\AA\AA\AA\AA\AA\AA\AA\AA\AA\AA\AA\AA\AA\AA\AA\AA\AA\AA\AA\AA\AA\AA\AA\AA\AA\AA\AA\AA\AA\AA\AA\AA\AAUUUUUUUUA\00UUUUUUUUUUUUUUUUUUUUUUU\00\00\00\00\00\00\00\00\00\00\00P\00\00\00\00\00@UUUUUUUUUUUUUUUUUUUUUUUUUUUUUUUUUUUUUUU\01P\01\00\00\00\00@\01\00UUUUUUU\05PUUUUUUUUUUUUUUUUUUUUUUUUUUUUUUUUUUUU\05TUUUUUUUUUUUUUU\AA\AA\AA\AA\AA\AA\AA\AA\AA\AA\AA\AA\AA\AA\AA\AA\AA\AA\AA\AA\AAjUU\AA\AA\AA\AA\AAjUU\00\00\00\00\00\00\00\00\00\00\00\00\00@\15\00\00\00\00\00\00\00\00\00\00\00\00TUQUUUTUUUU\15\00\01\00\00\00UUUUUUUUUUUUUUUUUUUU\00@\00\00\00\00\14\00\10\04@UUUUUUUUUUUUUUUUUUUUUUUU\15UUUUUUUUUUUUUUUUUUUUUUUUUUUUUUUUUUUUUUUEUUUUUUUUUUUUUUU\00UUUUUUUUUUUUUUUUUUUUUUUUUUUUUUU\00UUUUUUUUUUUUUUUUUUUUUUUUUUUUUUU\05UUUUUUUUUUUUUUUUUUUUUUUUUUUU\15EU\05UQUUUUUUUUUUUUUUUUUUUUUU\00@UUUUUUUUUUUUUUUUUUUUUUUUUUU\00@UUUUUUUUUUUUUUWUUUUUUUUUUUUUUUUUUUUUUUUUUUUUUUUUUUUUUUUUUUUUUUUU\D5UUUUUUUUUUUUUUUu\FD\FF\7FUUUUUUUUUUUUUUUUUU\F5\FF\FF\FF\FF\FF\FFnUUU\AA\AA\BA\AA\AA\AA\AA\EA\FA\BF\BFU\AA\AAVU_UUU\AAZUUUUUU\FF\FF\FF\FF\FF\FF\FF\FFWUU\FD\FF\DF\FF\FF\FF\FF\FF\FF\FF\FF\FF\FF\FF\FF\FF\FF\FF\FF\FF\F7\FF\FF\FF\FF\FFUUU\FF\FF\FF\FF\FF\FF\FF\FF\FF\FF\7F\D5\FFUUU\FF\FF\FF\FFWW\FF\FF\FF\FF\FF\FF\FF\FF\FF\FF\FF\FF\FF\FF\FF\FF\FF\7F\F7\FF\FF\FF\FF\FF\FF\FF\FF\FF\FF\FF\FF\FF\FF\FF\FF\FF\FF\FF\FF\FF\FF\FF\FF\FF\FF\FF\FF\FF\FF\FF\FF\FF\FF\FF\FF\FF\FF\FF\FF\FF\FF\FF\FF\FF\FF\D7\FF\FF\FF\FF\FF\FF\FF\FF\FF\FF\FF\FF\FF\FF\FF_UU\D5\7F\FF\FF\FF\FF\FF\FFUUUUuUUUUUU}UUUWUUUUUUUUUUUUUUUUUUUU\D5\FF\FF\FF\FF\FF\FF\FF\FF\FF\FF\FF\FF\FF\FF\FF\FF\FF\FF\FF\FF\FFUUUUUUUUUUUU\FF\FF\FF\FF\FF\FF\FF\FF\FF\FF\FF\FF\FF\FF\FF\FF\FF_UW\7F\FDW\FFUU\D5WU\FF\FFWUUUUUUUUUUUUUUUUUUUUUUUU\FF\FF\FFUWUUUUUU\FF\FF\FF\FF\FF\FF\FF\FF\FF\FF\FF\7F\FF\FF\DF\FF\FF\FF\FF\FF\FF\FF\FF\FF\FF\FF\FF\FF\FF\FF\FF\FF\FF\FF\FF\FF\FF\FF\FF\FF\FF\FF\FF\FF\FF\FF\FF\FF\FF\FF\FF\FF\FF\FF\FF\FF\FF\FF\FF\FF\FFUUUUUUUUUUUUUUUUUUUUUUUUUUUU\FF\FF\FFW\FF\FF\7F\F5\FF\FF\FF\FF\FF\FF\FF\FF\FF\FF\FF\FF\FF\7FW\FD\FF\FF\FF\D7\FF\FF\7F\D5\FF\FFWU\AA\AA\AA\AA\AA\AA\AA\AA\AA\AA\AA\AA\AA\AA\AA\AA\AA\AA\AA\AA\AA\AA\AA\AA\AA\AA\AA\AA\AA\AA\AAZUUUUUUUUY\96Ua\AA\A5Y\AAUUUUU\95UUUUUUU\95UU\00\00\00\00\00\00\00\00\00\00\00\00\00\00\03\00\00\00\00\00\00\00\00\00\00\00\00\00UUUUU\95UUUUUUUUUUUUUUUUUUUUUUUUUUUUUUUU\15\00\96jZZj\AA\05@\A6Y\95eUUUUUUUU\00\00\00\00UVUU\A9VUUUUUUUUUVUUUUUUUU\00\00\00\00\00\00\00\00TUUU\95YYUUeUUiUUUUUUUUUUU\AA\AA\AAj\AA\AA\AAU\AA\AAZUUUYU\AA\AA\AAUUUUeUUZUUUU\A5eVUUU\95UUUUUU\A6\96\9A\96YYe\A9\96\AA\AAfU\AAUZYUZVeUUUj\AA\A5\A5ZUUU\A5\AAZUUYYUUYUUUUU\95UUUUUUUUUUUUUUUUUUUUeU\F5UUUiUUUUUUUUUUUUUUUUUUUUUUUUUUUUUUUUUUUUUUUUUUUUU\AA\AA\AA\AA\AA\AA\AA\AA\AA\AA\AA\AA\AA\AA\AA\AA\AA\AA\AA\AA\AA\AA\AA\AA\AA\AA\AAU\AA\AA\AA\AA\AA\AA\AA\AA\AAVUU\AA\AA\AA\AA\A5ZUU\9A\AAZU\A5\A5UZZ\A5\96\A5ZUUU\A5ZU\95UUU}UiY\A5U\AFUfUUUU\AA\AAUUfU\FF\FF\FFUUU\9A\9Aj\9AUUU\D5UU\A5\AA\D5UU\A5]U\F5UUUU\BDU\AF\AA\BA\AA\AB\AA\AA\9AU\BA\AA\FA\AE\BA\AEU]\F5UUUUUUUWUUUUYUUUw\D5\DFUUUUUUU\A5\AA\AA\AA\AA\AA\AA\AA\FDUUUUUUWUU\D5UUUUUUUUUUUUUUUUUUUUUU\D5WUUUUUUUUUUUUW\ADZUUUUUUUUU\AA\AA\AA\AA\AA\AA\AAj\AA\AA\AA\AA\AA\AA\AA\AA\AA\AA\AA\AA\AA\AA\AA\AA\AA\AA\AA\AA\AA\AA\AA\AA3\00\00\C0\AA\AAZU\00\00\00\00\AA\AA\AA\AA\AA\AA\AA\AAj\AA\AA\AA\AAj\AAUUUUUUUUUUUU\05TUUUUUUUUUUUUUUU\AAjUU\00\00TY\AA\AA\AAV\AA\AA\AA\AA\AA\AA\AAZ\AA\AA\AA\AA\AA\AA\AA\AA\AA\AA\AA\AA\AA\AAZU\AA\AA\AA\AA\AA\AA\AA\BA\FE\FF\BF\AA\AA\AA\AAVUUUUUUUUUUUUU\F5\FF\FF\FF\FF\FF\FF", align 32
@_RNvNtCsDJOD2kcAir_13unicode_width6tables12WIDTH_MIDDLE = local_unnamed_addr constant [1280 x i8] c"\00\01\02\02\02\02\03\02\02\04\02\05\06\07\08\09\0A\0B\0C\0D\0E\0F\10\11\12\13\14\15\16\17\18\19\1A\1B\1C\1D\02\02\1E\02\02\02\02\02\02\02\1F !\22#\02$%&'()\02*\02\02\02\02+,\02\02\02\02-.\02\02\02/0123\02\02\02\02\02\024\02\02567\0289:;<=>?9999999999999999999999999999999999999999999999999999999999999999999999999999999999999999999999999999@\02\02AB\02\02CDEFGH\02I999999999999999999999999999999999999999999999999999999999999999999999999999999999999999J\02\02\02\02\02\02\02\02\02\02\02\02\02\02\02\02\02\02\02\02\02\02\02\02\02\02\02\02\02\02\02\02\02\02\02\02\02\02\02\02\02\02\02\02\02\02\02\02\02\02\02\02\02\02\02\02\02\02\02\02\02\02\02\02\02\029999K\02\02\02\02\02LMNO\02\02\02P\02QR\02\02\02\02\02\02\02\02\02\02\02\02\02ST\02\02U\02V\02\02WXYZ[\\]^_`abc\02defg\02h\02ijklm\02nopq\02rs\02\02\02\02\02\02\02\02\02\02\02\02\02\02\02\02\02\02\02\02\02\02\02\02\02\02\02\02\02\02\02\02\02\02\02\02\02\02\02\02\02t\02\02\02\02\02\02\02\02\02\02\02\02\02\02\02\02\02\02\02\02\02\02\02\02\02\02\02\02\02\02\02\02\02\02\02\02\02\02\02\02\02\02\02\02\02\02\02\02\02\02\02\02\02\02\02\02\02\02\02\02\02\02\02\02\02\02\02\02\02\02\02\02\02\02\02\02\02\02\02\02\02\02\02\02\02\02\02\02\02u\02\02\02\02\02\02\02\02\02\02\02\02\02\02\02\02\02\02vw\02\02\02x\02\02\02yz999999999999999999999999999999999999999999999999999999999{|}\02\02\02\02\02\02\02\02\02\02\02\02\02\02\02\02\02\02\02\02\02\02\02\02\02\02\02\02\02\02\02\02\02\02\02\02\02\02\02\02\02\02\02\02\02\02\02\02\02\02\02\02\02\02\02\02\02\02\02\02\02\02\02\02\02\02\02~99\7F99\80\02\02\02\02\02\02\02\02\02\02\02\02\02\02\02\02\02\02\02\81\02\02\02\02\02\02\02\02\02\02\02\02\02\02\02\02\02\02\02\02\02\02\02\02\02\02\02\02\02\02\02\02\02\02\02\02\82\02\02\02\83\84\85\02\86\02\02\02\02\02\02\02\02\02\02\02\02\02\87\88\02\02\02\02\02\02\02\02\02\02\89\8Aw\02\02\8B\02\02\02\8C\02\8D\02\8E\02\02\02\8F\90\02\02\02\02\02\02\02\02\02\02\02\02\02\91\92\02\93\94\02\95\96\97\98\99\9A\9B\9C\02\9D\02\02\9E\9F\A0\A1\02\02\02\02\02\02\02\02\02\02999999999999999999999999999999999999999999999999999999999999999\A2\1D\1D\1D\1D\1D\1D\1D\1D\1D\1D\1D\1D\1D\1D\1D\1D\1D\1D\1D\1D\1D\1D\1D\1D\1D\1D\1D\1D\1D\1D\1D\1D\02\02\02\02\02\02\02\02\02\02\02\02\02\02\02\02\02\02\02\02\02\02\02\02\02\02\02\02\02\02\02\02\00\A3\02\02\02\02\A4\A5\02\04\02\05\06\07\08\09\0A\0B\0C\0D\0E\0F\10\11\12\13\14\15\16\17\18\19\1A\1B\1C\1D\02\02\1E\02\02\02\02\02\02\02\1F !\22#\02$%&'()\02*\02\02\02\02\A6\A7\A8\A9\AA\AB\AC.\AD9\AE\AF\B0\B1\B2\B3\02\02\02\02\02\02\B4\02\02567\0289:;<=>\B5999999999999999999999999999999999999999999999999999999999999999999999999999999999K\02\02\02\02\02\B6MN\B7\89\8Aw\02\02\8B\02\02\02\8C\02\8D\02\8E\02\02\02\8F\90\02\02\02\02\02\02\02\02\02\02\02\02\02\91\92\B8\B9\94\02\95\96\97\98\99\9A\9B\9C\02\9D\02\02\9E\9F\A0\A1\02\02\02\02\02\02\02\02\02\02", align 64
@alloc_aaca2516fbe9b04517984be67db863ea = private unnamed_addr constant [106 x i8] c"/Users/hongyaotang/.cargo/registry/src/index.crates.io-1949cf8c6b5b557f/unicode-width-0.2.2/src/tables.rs\00", align 1
@alloc_3c235b06addb9c2230a3beb294b85791 = private unnamed_addr constant <{ ptr, [16 x i8] }> <{ ptr @alloc_aaca2516fbe9b04517984be67db863ea, [16 x i8] c"i\00\00\00\00\00\00\00\B8\00\00\00\15\00\00\00" }>, align 8
@alloc_54facc433374646a466a7fffff6dc929 = private unnamed_addr constant <{ ptr, [16 x i8] }> <{ ptr @alloc_aaca2516fbe9b04517984be67db863ea, [16 x i8] c"i\00\00\00\00\00\00\00\BE\00\00\00\19\00\00\00" }>, align 8
@_RNvNtCsDJOD2kcAir_13unicode_width6tables14WIDTH_ROOT_CJK = local_unnamed_addr constant [256 x i8] c"\10\11\02\02\02\03\04\12\06\07\08\09\0A\0B\0C\13\02\02\02\02\02\02\02\0E\02\02\02\02\02\02\02\0E\08\08\08\08\08\08\08\08\08\08\08\08\08\08\08\08\08\08\08\08\08\08\08\08\08\08\08\08\08\08\08\08\08\08\08\08\08\08\08\08\08\08\08\08\08\08\08\08\08\08\08\08\08\08\08\08\08\08\08\08\08\08\08\08\08\08\08\08\08\08\08\08\08\08\08\08\08\08\08\08\0F\08\08\08\08\08\08\08\02\02\02\02\02\02\02\0E\02\02\02\02\02\02\02\0E\00\00\00\00\00\00\00\00\00\00\00\00\00\00\00\00\00\00\00\00\00\00\00\00\00\00\00\00\00\00\00\00\00\00\00\00\00\00\00\00\00\00\00\00\00\00\00\00\00\00\00\00\00\00\00\00\00\00\00\00\00\00\00\00\00\00\00\00\00\00\00\00\00\00\00\00\00\00\00\00\00\00\00\00\00\00\00\00\00\00\00\00\00\00\00\00\00\00\00\00\00\00\00\00\00\00\00\00\00\00\00\00\00\00\00\00\00\00\00\00", align 128
@_RNvNtCsDJOD2kcAir_13unicode_width6tables19SOLIDUS_TRANSPARENT = internal unnamed_addr constant [1248 x i8] c"\00\03\003\03\009\03\00o\03\00\83\04\00\87\04\00\91\05\00\BD\05\00\BF\05\00\BF\05\00\C1\05\00\C2\05\00\C4\05\00\C5\05\00\C7\05\00\C7\05\00\10\06\00\1A\06\00K\06\00_\06\00p\06\00p\06\00\D6\06\00\DC\06\00\DF\06\00\E4\06\00\E7\06\00\E8\06\00\EA\06\00\ED\06\00\11\07\00\11\07\000\07\00J\07\00\EB\07\00\F3\07\00\FD\07\00\FD\07\00\16\08\00\19\08\00\1B\08\00#\08\00%\08\00'\08\00)\08\00-\08\00Y\08\00[\08\00\97\08\00\9F\08\00\CA\08\00\E1\08\00\E3\08\00\FF\08\00<\09\00<\09\00M\09\00M\09\00Q\09\00T\09\00\BC\09\00\BC\09\00\CD\09\00\CD\09\00\FE\09\00\FE\09\00<\0A\00<\0A\00M\0A\00M\0A\00\BC\0A\00\BC\0A\00\CD\0A\00\CD\0A\00<\0B\00<\0B\00M\0B\00M\0B\00\CD\0B\00\CD\0B\00<\0C\00<\0C\00M\0C\00M\0C\00U\0C\00V\0C\00\BC\0C\00\BC\0C\00\CD\0C\00\CD\0C\00;\0D\00<\0D\00M\0D\00M\0D\00\CA\0D\00\CA\0D\008\0E\00:\0E\00H\0E\00K\0E\00\B8\0E\00\BA\0E\00\C8\0E\00\CB\0E\00\18\0F\00\19\0F\005\0F\005\0F\007\0F\007\0F\009\0F\009\0F\00q\0F\00u\0F\00z\0F\00}\0F\00\80\0F\00\84\0F\00\86\0F\00\87\0F\00\C6\0F\00\C6\0F\007\10\007\10\009\10\00:\10\00\8D\10\00\8D\10\00]\13\00_\13\00\14\17\00\15\17\004\17\004\17\00\D2\17\00\D2\17\00\DD\17\00\DD\17\00\A9\18\00\A9\18\009\19\00;\19\00\17\1A\00\18\1A\00`\1A\00`\1A\00u\1A\00|\1A\00\7F\1A\00\7F\1A\00\B0\1A\00\BD\1A\00\BF\1A\00\DD\1A\00\E0\1A\00\EB\1A\004\1B\004\1B\00D\1B\00D\1B\00k\1B\00s\1B\00\AA\1B\00\AB\1B\00\E6\1B\00\E6\1B\00\F2\1B\00\F3\1B\007\1C\007\1C\00\D0\1C\00\D2\1C\00\D5\1C\00\E0\1C\00\ED\1C\00\ED\1C\00\F4\1C\00\F4\1C\00\F8\1C\00\F9\1C\00\C0\1D\00\FF\1D\00\D0 \00\D1 \00\D4 \00\D7 \00\DB \00\DC \00\E1 \00\E1 \00\E7 \00\E9 \00\EC \00\F0 \00\EF,\00\F1,\00\7F-\00\7F-\00\E0-\00\FF-\00*0\00/0\00\990\00\9A0\00o\A6\00o\A6\00t\A6\00}\A6\00\9E\A6\00\9F\A6\00\F0\A6\00\F1\A6\00\06\A8\00\06\A8\00,\A8\00,\A8\00\C4\A8\00\C4\A8\00\E0\A8\00\F1\A8\00+\A9\00-\A9\00S\A9\00S\A9\00\B3\A9\00\B3\A9\00\C0\A9\00\C0\A9\00\B0\AA\00\B0\AA\00\B2\AA\00\B4\AA\00\B7\AA\00\B8\AA\00\BE\AA\00\BF\AA\00\C1\AA\00\C1\AA\00\F6\AA\00\F6\AA\00\ED\AB\00\ED\AB\00\1E\FB\00\1E\FB\00 \FE\00/\FE\00\1B\01\01\1B\01\01k\01\01k\01\01\FD\01\01\FD\01\01\E0\02\01\E0\02\01\F5\02\01\F5\02\01v\03\01z\03\01\D4\09\01\D4\09\01\0D\0A\01\0D\0A\01\0F\0A\01\0F\0A\018\0A\018\0A\01:\0A\01:\0A\01?\0A\01?\0A\01\E5\0A\01\E6\0A\01$\0D\01'\0D\01i\0D\01m\0D\01t\0E\01t\0E\01\AB\0E\01\AC\0E\01\FA\0E\01\FB\0E\01\FD\0E\01\FF\0E\01F\0F\01P\0F\01\82\0F\01\85\0F\01F\10\01F\10\01p\10\01p\10\01\7F\10\01\7F\10\01\B9\10\01\BA\10\01\00\11\01\02\11\013\11\014\11\01s\11\01s\11\01\C0\11\01\C0\11\01\CA\11\01\CA\11\015\12\016\12\01\E9\12\01\EA\12\01;\13\01<\13\01M\13\01M\13\01f\13\01l\13\01p\13\01t\13\01\CE\13\01\D0\13\01B\14\01B\14\01F\14\01F\14\01^\14\01^\14\01\C2\14\01\C3\14\01\BF\15\01\C0\15\01?\16\01?\16\01\B6\16\01\B7\16\01+\17\01+\17\019\18\01:\18\01=\19\01>\19\01C\19\01C\19\01\E0\19\01\E0\19\014\1A\014\1A\01G\1A\01G\1A\01\99\1A\01\99\1A\01?\1C\01?\1C\01B\1D\01B\1D\01D\1D\01E\1D\01\97\1D\01\97\1D\01A\1F\01B\1F\01/a\01/a\010k\016k\01\F0o\01\F1o\01e\D1\01f\D1\01m\D1\01r\D1\01{\D1\01\82\D1\01\85\D1\01\8B\D1\01\AA\D1\01\AD\D1\01B\D2\01D\D2\01\00\E0\01\06\E0\01\08\E0\01\18\E0\01\1B\E0\01!\E0\01#\E0\01$\E0\01&\E0\01*\E0\01\8F\E0\01\8F\E0\010\E1\016\E1\01\AE\E2\01\AE\E2\01\EC\E2\01\EF\E2\01\EC\E4\01\EF\E4\01\EE\E5\01\EF\E5\01\E3\E6\01\E3\E6\01\E6\E6\01\E6\E6\01\EE\E6\01\EF\E6\01\F5\E6\01\F5\E6\01\D0\E8\01\D6\E8\01D\E9\01J\E9\01\85\EC\01\85\EC\01\15\ED\01\15\ED\01", align 1
@_RNvNtCsDJOD2kcAir_13unicode_width6tables21EMOJI_MODIFIER_LEAF_0 = local_unnamed_addr constant [4 x i8] c"\1D\1D\F9\F9", align 1
@_RNvNtCsDJOD2kcAir_13unicode_width6tables21EMOJI_MODIFIER_LEAF_1 = local_unnamed_addr constant [2 x i8] c"\0A\0D", align 1
@_RNvNtCsDJOD2kcAir_13unicode_width6tables21EMOJI_MODIFIER_LEAF_2 = local_unnamed_addr constant [8 x i8] c"\85\85\C2\C4\C7\C7\CA\CC", align 1
@_RNvNtCsDJOD2kcAir_13unicode_width6tables21EMOJI_MODIFIER_LEAF_3 = local_unnamed_addr constant [18 x i8] c"BCFPfx||\81\83\85\87\8F\8F\91\91\AA\AA", align 1
@_RNvNtCsDJOD2kcAir_13unicode_width6tables21EMOJI_MODIFIER_LEAF_4 = local_unnamed_addr constant [8 x i8] c"tuzz\90\90\95\96", align 1
@_RNvNtCsDJOD2kcAir_13unicode_width6tables21EMOJI_MODIFIER_LEAF_5 = local_unnamed_addr constant [12 x i8] c"EGKO\A3\A3\B4\B6\C0\C0\CC\CC", align 1
@_RNvNtCsDJOD2kcAir_13unicode_width6tables21EMOJI_MODIFIER_LEAF_6 = local_unnamed_addr constant [24 x i8] c"\0C\0C\0F\0F\18\1F&&09<>ww\B5\B6\B8\B9\BB\BB\CD\CF\D1\DD", align 1
@_RNvNtCsDJOD2kcAir_13unicode_width6tables21EMOJI_MODIFIER_LEAF_7 = local_unnamed_addr constant [4 x i8] c"\C3\C5\F0\F8", align 1
@_RNvNtCsDJOD2kcAir_13unicode_width6tables24TEXT_PRESENTATION_LEAF_0 = local_unnamed_addr constant [8 x i8] c"\1A\1B\E9\EC\F0\F0\F3\F3", align 1
@_RNvNtCsDJOD2kcAir_13unicode_width6tables24TEXT_PRESENTATION_LEAF_1 = local_unnamed_addr constant [2 x i8] c"\FD\FE", align 1
@_RNvNtCsDJOD2kcAir_13unicode_width6tables24TEXT_PRESENTATION_LEAF_2 = local_unnamed_addr constant [30 x i8] c"\14\15HS\7F\7F\93\93\A1\A1\AA\AB\BD\BE\C4\C5\CE\CE\D4\D4\EA\EA\F2\F3\F5\F5\FA\FA\FD\FD", align 1
@_RNvNtCsDJOD2kcAir_13unicode_width6tables24TEXT_PRESENTATION_LEAF_3 = local_unnamed_addr constant [20 x i8] c"\05\05\0A\0B((LLNNSUWW\95\97\B0\B0\BF\BF", align 1
@_RNvNtCsDJOD2kcAir_13unicode_width6tables24TEXT_PRESENTATION_LEAF_4 = local_unnamed_addr constant [6 x i8] c"\1B\1CPPUU", align 1
@_RNvNtCsDJOD2kcAir_13unicode_width6tables24TEXT_PRESENTATION_LEAF_5 = local_unnamed_addr constant [2 x i8] c"\04\04", align 1
@_RNvNtCsDJOD2kcAir_13unicode_width6tables24TEXT_PRESENTATION_LEAF_6 = local_unnamed_addr constant [26 x i8] c"\0D\0F\15\15\1C\1Cxx\93\93\A7\A7\AC\AE\C2\C2\C4\C4\C6\C6\CA\CA\E0\E0\ED\ED", align 1
@_RNvNtCsDJOD2kcAir_13unicode_width6tables24TEXT_PRESENTATION_LEAF_7 = local_unnamed_addr constant [44 x i8] c"\08\08\15\15\1F\1F&&BBFIMNSSjj}}\A3\A3\B0\B0\B3\B3\BB\BB\BF\BF\CB\CB\DA\DA\DF\DF\E4\E6\EA\ED\F7\F7\F9\FB", align 1
@_RNvNtCsDJOD2kcAir_13unicode_width6tables24TEXT_PRESENTATION_LEAF_8 = local_unnamed_addr constant [8 x i8] c"\08\08\0D\0D\12\13Pg", align 1
@_RNvNtCsDJOD2kcAir_13unicode_width6tables24TEXT_PRESENTATION_LEAF_9 = local_unnamed_addr constant [20 x i8] c"\10\10\87\87\8D\8D\91\91\94\94\98\98\AD\AD\B2\B2\B9\BA\BC\BC", align 1
@_RNvNtCsDJOD2kcAir_13unicode_width6tables25EMOJI_PRESENTATION_LEAVES = local_unnamed_addr constant [896 x i8] c"\00\00\00\00\08\04\FF\03\00\00\00\00\00\00\00\00\00\00\00\00\00B\00\00\00\00\00\00\00\00\00\00\00\00\00\00\00\00\00\00\00\00\00\00\00\00\00\00\00\00\00\00\00\00\00\00\00\00\00\00\00\00\00\00\00\00\00\00\00\00\00\00\00\00\00\00\00\00\00\00\00\00\00\00\00\00\00\00\00\00\00\00\00\00\00\00\00\00\00\00\00\00\00\00\00\00\00\00\00\00\00\00\00\00\00\00\00\00\00\00\00\00\00\00\00\00\00\00\00\00\00\00\00\00\00\10\00\02\00\00\00\00\00\00\00\00\00\00\00\00\00\00\00\00\00\00\00\00\00\00\00\00\00\00\04\00\00\02\00\00\00\00\00\00\00\00\00\00\F0\03\00\06\00\00\00\00\00\00\00\00\00\00\00\00\00\00\00\00\00\00\00\00\00\00\00\00\00\00\00\00\00\00\00\00\00\00\00\00\00\00\00\00\00\00\00\00\00\0C\00\01\00\00\00\00\00\00\00\00\00\00\00\00\00\00\00\00\00\00\00\80\00\00\00\FE\0F\07\00\00\00\00\00\00\00\00\00\00\00\00\00\00\00\00\00\00\00\00\00\00\00\00\04\00\00\00\00\00\00\00\00\00\00\00\00\00\00\00\00\00\00\00\00\00\00\00\00\00\00\00\00\0C@\00\01\00\00\00\00\00\00x\1F@2!M\C4\00\07\05\FF\0F\80i\01\00\C8\00\00\FC\1A\83\0C\03`0\C1\1A\00\00\06\BF'$\BFT \02\01\18\00\90P\B8\00\18\00\00\00\00\00\E0\00\02\00\01\80\00\00\00\00\00\00\00\00\00\00\00\00\00\00\00\00\00\00\00\00\00\00\00\00\00\00\00\00\00\00\00\00\00\00\00\00\00\00\00\00\00\00\00\00\00\000\00\00\00\00\00\00\00\00\00\00\00\00\00\00\00\00\00\00\00\00\00\00\00\00\00\00\00\00\00\00\00\00\00\00\00\00\00\00\00\00\00\00\00\00\00\00\00\00\00\00\00\00\00\00\00\00\00\E0\00\00\18\00\00\00\00\00\00!\00\00\00\00\00\00\00\00\00\00\00\00\00\00\00\00\00\00\00\00\00\00\00\00\00\00\00\01 \00\00\00\00\00\00\00\00\00\00\00\00\00\00\00\00\00\00\00\00\00\00\00\00\00\00\00\00\00\00\00\00\00\00\00\00\00\00\00\00\00\00\00\00\00\00\00\00\00\00\00\00\00\00\00\00\00\00\00\00\00\00\00\00\00\00\00\00\00\00\00\00\00\00\80\02\00\00\00\00\00\00\00\00\00\00\00\00\00\00\00\00\00\00\00\00\00\00\00\00\00\00\00\00\00\00\00\00\00\00\00\00\00\00\00\00\00\00\00\00\10\00\00\00\00\00\00\00\00\00\00\00\00\00\00\00\00\00\00\00\00\00\00\00\00\00\00\00\00\00\00\00\00\00\00\00\00\00\00\00\00\00\00\00\00\00\03\C0\00\00\00\00\00\00\00\00\00\00\00\00\00\00\00\00\04\00\00\04\00\80\80\00\00\00\00\00\00\00\00\00\00\00\00\00\00\00\00\00\00\00\00\00\00\00\00\00\00\E0 \10\F2\1F@\00\00\00\00\00\00\00\00!\00\00\C8\CE\80p\00\00T|\F0\FF\01 \A8\00\00\01 \80@\00\00\80\C6c\08\00\00\04\00 \00\00\00\00\08\00\09\88\00\08\00\84p<\80.\00!\0C\00\00\00\00\00\00\06\FF\FF\FF\80\F9\03\80<\01\00 \01\06\10\1C\00\0Ep\0A\81\08\04\00\00\01\00\00\00\00\00\00\00\00\00\00\00\00\00\80 \12\01\00 \04\16\00\E8\00\00?\02\09\00\00\00\00\00\00\00\00\00\00\00\00\00\00\00\00\00\00\00\00\00\00\00\00\00\00\00\00\00\00\00\00\00", align 128
@_RNvNtCsDJOD2kcAir_13unicode_width6tables27NON_TRANSPARENT_ZERO_WIDTHS = internal unnamed_addr constant [426 x i8] c"\05\06\00\05\06\00\90\08\00\91\08\00\E2\08\00\E2\08\00\BE\09\00\BE\09\00\D7\09\00\D7\09\00>\0B\00>\0B\00W\0B\00W\0B\00\BE\0B\00\BE\0B\00\D7\0B\00\D7\0B\00\C0\0C\00\C0\0C\00\C2\0C\00\C2\0C\00\C7\0C\00\C8\0C\00\CA\0C\00\CB\0C\00\D5\0C\00\D6\0C\00>\0D\00>\0D\00N\0D\00N\0D\00W\0D\00W\0D\00\CF\0D\00\CF\0D\00\DF\0D\00\DF\0D\00`\11\00\FF\11\00\15\17\00\15\17\004\17\004\17\00\0E\18\00\0E\18\005\1B\005\1B\00;\1B\00;\1B\00=\1B\00=\1B\00C\1B\00D\1B\00\AA\1B\00\AA\1B\00\F2\1B\00\F3\1B\00\0C \00\0D \00e \00i \00.0\00/0\00d1\00d1\00\FA\A8\00\FA\A8\00S\A9\00S\A9\00\C0\A9\00\C0\A9\00\B0\D7\00\C6\D7\00\CB\D7\00\FB\D7\00\9E\FF\00\A0\FF\00\F0\FF\00\F8\FF\00\C0\11\01\C0\11\01\C2\11\01\C3\11\015\12\015\12\01>\13\01>\13\01M\13\01M\13\01W\13\01W\13\01\B8\13\01\B8\13\01\C2\13\01\C2\13\01\C5\13\01\C5\13\01\C7\13\01\C9\13\01\CF\13\01\CF\13\01\D1\13\01\D1\13\01\B0\14\01\B0\14\01\BD\14\01\BD\14\01\AF\15\01\AF\15\01\B6\16\01\B6\16\010\19\010\19\01=\19\01=\19\01?\19\01?\19\01A\19\01A\19\01\84\1A\01\89\1A\01F\1D\01F\1D\01\02\1F\01\02\1F\01A\1F\01A\1F\01\F0o\01\F1o\01e\D1\01f\D1\01m\D1\01r\D1\01\00\00\0E\00\00\0E\02\00\0E\1F\00\0E\80\00\0E\FF\00\0E\F0\01\0E\FF\0F\0E", align 1

; unicode_width::tables::is_solidus_transparent
; Function Attrs: mustprogress nofree norecurse nosync nounwind willreturn memory(none) uwtable
define noundef zeroext i1 @_RNvNtCsDJOD2kcAir_13unicode_width6tables22is_solidus_transparent(i32 noundef range(i32 0, 1114112) %c) unnamed_addr #0 personality ptr @rust_eh_personality {
start:
  switch i32 %c, label %bb2.i [
    i32 847, label %bb5
    i32 6159, label %bb5
    i32 8205, label %bb5
  ]

bb2.i:                                            ; preds = %start
  %0 = insertelement <2 x i32> poison, i32 %c, i64 0
  %1 = shufflevector <2 x i32> %0, <2 x i32> poison, <2 x i32> zeroinitializer
  %2 = and <2 x i32> %1, <i32 2097150, i32 2097136>
  %3 = add nsw <2 x i32> %1, <i32 -6155, i32 -917760>
  %4 = shufflevector <2 x i32> %3, <2 x i32> poison, <4 x i32> <i32 0, i32 1, i32 poison, i32 poison>
  %5 = shufflevector <4 x i32> %4, <4 x i32> <i32 poison, i32 poison, i32 6068, i32 65024>, <4 x i32> <i32 0, i32 1, i32 6, i32 7>
  %6 = shufflevector <2 x i32> %2, <2 x i32> poison, <4 x i32> <i32 0, i32 1, i32 poison, i32 poison>
  %7 = shufflevector <4 x i32> <i32 3, i32 240, i32 poison, i32 poison>, <4 x i32> %6, <4 x i32> <i32 0, i32 1, i32 4, i32 5>
  %8 = icmp ult <4 x i32> %5, %7
  %9 = icmp eq <4 x i32> %5, %7
  %10 = shufflevector <4 x i1> %8, <4 x i1> %9, <4 x i32> <i32 0, i32 1, i32 6, i32 7>
  %11 = freeze <4 x i1> %10
  %12 = bitcast <4 x i1> %11 to i4
  %.not = icmp eq i4 %12, 0
  br i1 %.not, label %bb3, label %bb5

bb3:                                              ; preds = %bb2.i
  %_15.i26.i = icmp samesign ult i32 %c, 42654
  %base.sroa.0.0.mid.i = select i1 %_15.i26.i, i64 0, i64 104
  %mid.1.i = add nuw nsw i64 %base.sroa.0.0.mid.i, 52
  %_32.1.i = getelementptr inbounds nuw { [3 x i8], [3 x i8] }, ptr @_RNvNtCsDJOD2kcAir_13unicode_width6tables19SOLIDUS_TRANSPARENT, i64 %mid.1.i
  %lo.sroa.0.0.copyload.i13.1.i = load i8, ptr %_32.1.i, align 1, !alias.scope !2, !noalias !5
  %lo.sroa.4.0._2.sroa_idx.i14.1.i = getelementptr inbounds nuw i8, ptr %_32.1.i, i64 1
  %lo.sroa.4.0.copyload.i15.1.i = load i8, ptr %lo.sroa.4.0._2.sroa_idx.i14.1.i, align 1, !alias.scope !2, !noalias !5
  %lo.sroa.5.0._2.sroa_idx.i16.1.i = getelementptr inbounds nuw i8, ptr %_32.1.i, i64 2
  %lo.sroa.5.0.copyload.i17.1.i = load i8, ptr %lo.sroa.5.0._2.sroa_idx.i16.1.i, align 1, !alias.scope !2, !noalias !5
  %_6.sroa.5.0.insert.ext.i18.1.i = zext i8 %lo.sroa.5.0.copyload.i17.1.i to i32
  %_6.sroa.5.0.insert.shift.i19.1.i = shl nuw nsw i32 %_6.sroa.5.0.insert.ext.i18.1.i, 16
  %_6.sroa.4.0.insert.ext.i20.1.i = zext i8 %lo.sroa.4.0.copyload.i15.1.i to i32
  %_6.sroa.4.0.insert.shift.i21.1.i = shl nuw nsw i32 %_6.sroa.4.0.insert.ext.i20.1.i, 8
  %_6.sroa.0.0.insert.ext.i22.1.i = zext i8 %lo.sroa.0.0.copyload.i13.1.i to i32
  %_6.sroa.4.0.insert.insert.i23.1.i = or disjoint i32 %_6.sroa.4.0.insert.shift.i21.1.i, %_6.sroa.0.0.insert.ext.i22.1.i
  %_6.sroa.0.0.insert.insert.i24.1.i = or disjoint i32 %_6.sroa.4.0.insert.insert.i23.1.i, %_6.sroa.5.0.insert.shift.i19.1.i
  %_15.i26.1.i = icmp samesign ult i32 %c, %_6.sroa.0.0.insert.insert.i24.1.i
  %base.sroa.0.0.mid.1.i = select i1 %_15.i26.1.i, i64 %base.sroa.0.0.mid.i, i64 %mid.1.i
  %mid.2.i = add nuw nsw i64 %base.sroa.0.0.mid.1.i, 26
  %_32.2.i = getelementptr inbounds nuw { [3 x i8], [3 x i8] }, ptr @_RNvNtCsDJOD2kcAir_13unicode_width6tables19SOLIDUS_TRANSPARENT, i64 %mid.2.i
  %lo.sroa.0.0.copyload.i13.2.i = load i8, ptr %_32.2.i, align 1, !alias.scope !8, !noalias !5
  %lo.sroa.4.0._2.sroa_idx.i14.2.i = getelementptr inbounds nuw i8, ptr %_32.2.i, i64 1
  %lo.sroa.4.0.copyload.i15.2.i = load i8, ptr %lo.sroa.4.0._2.sroa_idx.i14.2.i, align 1, !alias.scope !8, !noalias !5
  %lo.sroa.5.0._2.sroa_idx.i16.2.i = getelementptr inbounds nuw i8, ptr %_32.2.i, i64 2
  %lo.sroa.5.0.copyload.i17.2.i = load i8, ptr %lo.sroa.5.0._2.sroa_idx.i16.2.i, align 1, !alias.scope !8, !noalias !5
  %_6.sroa.5.0.insert.ext.i18.2.i = zext i8 %lo.sroa.5.0.copyload.i17.2.i to i32
  %_6.sroa.5.0.insert.shift.i19.2.i = shl nuw nsw i32 %_6.sroa.5.0.insert.ext.i18.2.i, 16
  %_6.sroa.4.0.insert.ext.i20.2.i = zext i8 %lo.sroa.4.0.copyload.i15.2.i to i32
  %_6.sroa.4.0.insert.shift.i21.2.i = shl nuw nsw i32 %_6.sroa.4.0.insert.ext.i20.2.i, 8
  %_6.sroa.0.0.insert.ext.i22.2.i = zext i8 %lo.sroa.0.0.copyload.i13.2.i to i32
  %_6.sroa.4.0.insert.insert.i23.2.i = or disjoint i32 %_6.sroa.4.0.insert.shift.i21.2.i, %_6.sroa.0.0.insert.ext.i22.2.i
  %_6.sroa.0.0.insert.insert.i24.2.i = or disjoint i32 %_6.sroa.4.0.insert.insert.i23.2.i, %_6.sroa.5.0.insert.shift.i19.2.i
  %_15.i26.2.i = icmp samesign ult i32 %c, %_6.sroa.0.0.insert.insert.i24.2.i
  %base.sroa.0.0.mid.2.i = select i1 %_15.i26.2.i, i64 %base.sroa.0.0.mid.1.i, i64 %mid.2.i
  %mid.3.i = add nuw nsw i64 %base.sroa.0.0.mid.2.i, 13
  %_32.3.i = getelementptr inbounds nuw { [3 x i8], [3 x i8] }, ptr @_RNvNtCsDJOD2kcAir_13unicode_width6tables19SOLIDUS_TRANSPARENT, i64 %mid.3.i
  %lo.sroa.0.0.copyload.i13.3.i = load i8, ptr %_32.3.i, align 1, !alias.scope !10, !noalias !5
  %lo.sroa.4.0._2.sroa_idx.i14.3.i = getelementptr inbounds nuw i8, ptr %_32.3.i, i64 1
  %lo.sroa.4.0.copyload.i15.3.i = load i8, ptr %lo.sroa.4.0._2.sroa_idx.i14.3.i, align 1, !alias.scope !10, !noalias !5
  %lo.sroa.5.0._2.sroa_idx.i16.3.i = getelementptr inbounds nuw i8, ptr %_32.3.i, i64 2
  %lo.sroa.5.0.copyload.i17.3.i = load i8, ptr %lo.sroa.5.0._2.sroa_idx.i16.3.i, align 1, !alias.scope !10, !noalias !5
  %_6.sroa.5.0.insert.ext.i18.3.i = zext i8 %lo.sroa.5.0.copyload.i17.3.i to i32
  %_6.sroa.5.0.insert.shift.i19.3.i = shl nuw nsw i32 %_6.sroa.5.0.insert.ext.i18.3.i, 16
  %_6.sroa.4.0.insert.ext.i20.3.i = zext i8 %lo.sroa.4.0.copyload.i15.3.i to i32
  %_6.sroa.4.0.insert.shift.i21.3.i = shl nuw nsw i32 %_6.sroa.4.0.insert.ext.i20.3.i, 8
  %_6.sroa.0.0.insert.ext.i22.3.i = zext i8 %lo.sroa.0.0.copyload.i13.3.i to i32
  %_6.sroa.4.0.insert.insert.i23.3.i = or disjoint i32 %_6.sroa.4.0.insert.shift.i21.3.i, %_6.sroa.0.0.insert.ext.i22.3.i
  %_6.sroa.0.0.insert.insert.i24.3.i = or disjoint i32 %_6.sroa.4.0.insert.insert.i23.3.i, %_6.sroa.5.0.insert.shift.i19.3.i
  %_15.i26.3.i = icmp samesign ult i32 %c, %_6.sroa.0.0.insert.insert.i24.3.i
  %base.sroa.0.0.mid.3.i = select i1 %_15.i26.3.i, i64 %base.sroa.0.0.mid.2.i, i64 %mid.3.i
  %mid.4.i = add nuw nsw i64 %base.sroa.0.0.mid.3.i, 6
  %_32.4.i = getelementptr inbounds nuw { [3 x i8], [3 x i8] }, ptr @_RNvNtCsDJOD2kcAir_13unicode_width6tables19SOLIDUS_TRANSPARENT, i64 %mid.4.i
  %lo.sroa.0.0.copyload.i13.4.i = load i8, ptr %_32.4.i, align 1, !alias.scope !12, !noalias !5
  %lo.sroa.4.0._2.sroa_idx.i14.4.i = getelementptr inbounds nuw i8, ptr %_32.4.i, i64 1
  %lo.sroa.4.0.copyload.i15.4.i = load i8, ptr %lo.sroa.4.0._2.sroa_idx.i14.4.i, align 1, !alias.scope !12, !noalias !5
  %lo.sroa.5.0._2.sroa_idx.i16.4.i = getelementptr inbounds nuw i8, ptr %_32.4.i, i64 2
  %lo.sroa.5.0.copyload.i17.4.i = load i8, ptr %lo.sroa.5.0._2.sroa_idx.i16.4.i, align 1, !alias.scope !12, !noalias !5
  %_6.sroa.5.0.insert.ext.i18.4.i = zext i8 %lo.sroa.5.0.copyload.i17.4.i to i32
  %_6.sroa.5.0.insert.shift.i19.4.i = shl nuw nsw i32 %_6.sroa.5.0.insert.ext.i18.4.i, 16
  %_6.sroa.4.0.insert.ext.i20.4.i = zext i8 %lo.sroa.4.0.copyload.i15.4.i to i32
  %_6.sroa.4.0.insert.shift.i21.4.i = shl nuw nsw i32 %_6.sroa.4.0.insert.ext.i20.4.i, 8
  %_6.sroa.0.0.insert.ext.i22.4.i = zext i8 %lo.sroa.0.0.copyload.i13.4.i to i32
  %_6.sroa.4.0.insert.insert.i23.4.i = or disjoint i32 %_6.sroa.4.0.insert.shift.i21.4.i, %_6.sroa.0.0.insert.ext.i22.4.i
  %_6.sroa.0.0.insert.insert.i24.4.i = or disjoint i32 %_6.sroa.4.0.insert.insert.i23.4.i, %_6.sroa.5.0.insert.shift.i19.4.i
  %_15.i26.4.i = icmp samesign ult i32 %c, %_6.sroa.0.0.insert.insert.i24.4.i
  %base.sroa.0.0.mid.4.i = select i1 %_15.i26.4.i, i64 %base.sroa.0.0.mid.3.i, i64 %mid.4.i
  %mid.5.i = add nuw nsw i64 %base.sroa.0.0.mid.4.i, 3
  %_32.5.i = getelementptr inbounds nuw { [3 x i8], [3 x i8] }, ptr @_RNvNtCsDJOD2kcAir_13unicode_width6tables19SOLIDUS_TRANSPARENT, i64 %mid.5.i
  %lo.sroa.0.0.copyload.i13.5.i = load i8, ptr %_32.5.i, align 1, !alias.scope !14, !noalias !5
  %lo.sroa.4.0._2.sroa_idx.i14.5.i = getelementptr inbounds nuw i8, ptr %_32.5.i, i64 1
  %lo.sroa.4.0.copyload.i15.5.i = load i8, ptr %lo.sroa.4.0._2.sroa_idx.i14.5.i, align 1, !alias.scope !14, !noalias !5
  %lo.sroa.5.0._2.sroa_idx.i16.5.i = getelementptr inbounds nuw i8, ptr %_32.5.i, i64 2
  %lo.sroa.5.0.copyload.i17.5.i = load i8, ptr %lo.sroa.5.0._2.sroa_idx.i16.5.i, align 1, !alias.scope !14, !noalias !5
  %_6.sroa.5.0.insert.ext.i18.5.i = zext i8 %lo.sroa.5.0.copyload.i17.5.i to i32
  %_6.sroa.5.0.insert.shift.i19.5.i = shl nuw nsw i32 %_6.sroa.5.0.insert.ext.i18.5.i, 16
  %_6.sroa.4.0.insert.ext.i20.5.i = zext i8 %lo.sroa.4.0.copyload.i15.5.i to i32
  %_6.sroa.4.0.insert.shift.i21.5.i = shl nuw nsw i32 %_6.sroa.4.0.insert.ext.i20.5.i, 8
  %_6.sroa.0.0.insert.ext.i22.5.i = zext i8 %lo.sroa.0.0.copyload.i13.5.i to i32
  %_6.sroa.4.0.insert.insert.i23.5.i = or disjoint i32 %_6.sroa.4.0.insert.shift.i21.5.i, %_6.sroa.0.0.insert.ext.i22.5.i
  %_6.sroa.0.0.insert.insert.i24.5.i = or disjoint i32 %_6.sroa.4.0.insert.insert.i23.5.i, %_6.sroa.5.0.insert.shift.i19.5.i
  %_15.i26.5.i = icmp samesign ult i32 %c, %_6.sroa.0.0.insert.insert.i24.5.i
  %base.sroa.0.0.mid.5.i = select i1 %_15.i26.5.i, i64 %base.sroa.0.0.mid.4.i, i64 %mid.5.i
  %mid.6.i = add nuw nsw i64 %base.sroa.0.0.mid.5.i, 2
  %_32.6.i = getelementptr inbounds nuw { [3 x i8], [3 x i8] }, ptr @_RNvNtCsDJOD2kcAir_13unicode_width6tables19SOLIDUS_TRANSPARENT, i64 %mid.6.i
  %lo.sroa.0.0.copyload.i13.6.i = load i8, ptr %_32.6.i, align 1, !alias.scope !16, !noalias !5
  %lo.sroa.4.0._2.sroa_idx.i14.6.i = getelementptr inbounds nuw i8, ptr %_32.6.i, i64 1
  %lo.sroa.4.0.copyload.i15.6.i = load i8, ptr %lo.sroa.4.0._2.sroa_idx.i14.6.i, align 1, !alias.scope !16, !noalias !5
  %lo.sroa.5.0._2.sroa_idx.i16.6.i = getelementptr inbounds nuw i8, ptr %_32.6.i, i64 2
  %lo.sroa.5.0.copyload.i17.6.i = load i8, ptr %lo.sroa.5.0._2.sroa_idx.i16.6.i, align 1, !alias.scope !16, !noalias !5
  %_6.sroa.5.0.insert.ext.i18.6.i = zext i8 %lo.sroa.5.0.copyload.i17.6.i to i32
  %_6.sroa.5.0.insert.shift.i19.6.i = shl nuw nsw i32 %_6.sroa.5.0.insert.ext.i18.6.i, 16
  %_6.sroa.4.0.insert.ext.i20.6.i = zext i8 %lo.sroa.4.0.copyload.i15.6.i to i32
  %_6.sroa.4.0.insert.shift.i21.6.i = shl nuw nsw i32 %_6.sroa.4.0.insert.ext.i20.6.i, 8
  %_6.sroa.0.0.insert.ext.i22.6.i = zext i8 %lo.sroa.0.0.copyload.i13.6.i to i32
  %_6.sroa.4.0.insert.insert.i23.6.i = or disjoint i32 %_6.sroa.4.0.insert.shift.i21.6.i, %_6.sroa.0.0.insert.ext.i22.6.i
  %_6.sroa.0.0.insert.insert.i24.6.i = or disjoint i32 %_6.sroa.4.0.insert.insert.i23.6.i, %_6.sroa.5.0.insert.shift.i19.6.i
  %_15.i26.6.i = icmp samesign ult i32 %c, %_6.sroa.0.0.insert.insert.i24.6.i
  %base.sroa.0.0.mid.6.i = select i1 %_15.i26.6.i, i64 %base.sroa.0.0.mid.5.i, i64 %mid.6.i
  %mid.7.i = add nuw nsw i64 %base.sroa.0.0.mid.6.i, 1
  %_32.7.i = getelementptr inbounds nuw { [3 x i8], [3 x i8] }, ptr @_RNvNtCsDJOD2kcAir_13unicode_width6tables19SOLIDUS_TRANSPARENT, i64 %mid.7.i
  %lo.sroa.0.0.copyload.i13.7.i = load i8, ptr %_32.7.i, align 1, !alias.scope !18, !noalias !5
  %lo.sroa.4.0._2.sroa_idx.i14.7.i = getelementptr inbounds nuw i8, ptr %_32.7.i, i64 1
  %lo.sroa.4.0.copyload.i15.7.i = load i8, ptr %lo.sroa.4.0._2.sroa_idx.i14.7.i, align 1, !alias.scope !18, !noalias !5
  %lo.sroa.5.0._2.sroa_idx.i16.7.i = getelementptr inbounds nuw i8, ptr %_32.7.i, i64 2
  %lo.sroa.5.0.copyload.i17.7.i = load i8, ptr %lo.sroa.5.0._2.sroa_idx.i16.7.i, align 1, !alias.scope !18, !noalias !5
  %_6.sroa.5.0.insert.ext.i18.7.i = zext i8 %lo.sroa.5.0.copyload.i17.7.i to i32
  %_6.sroa.5.0.insert.shift.i19.7.i = shl nuw nsw i32 %_6.sroa.5.0.insert.ext.i18.7.i, 16
  %_6.sroa.4.0.insert.ext.i20.7.i = zext i8 %lo.sroa.4.0.copyload.i15.7.i to i32
  %_6.sroa.4.0.insert.shift.i21.7.i = shl nuw nsw i32 %_6.sroa.4.0.insert.ext.i20.7.i, 8
  %_6.sroa.0.0.insert.ext.i22.7.i = zext i8 %lo.sroa.0.0.copyload.i13.7.i to i32
  %_6.sroa.4.0.insert.insert.i23.7.i = or disjoint i32 %_6.sroa.4.0.insert.shift.i21.7.i, %_6.sroa.0.0.insert.ext.i22.7.i
  %_6.sroa.0.0.insert.insert.i24.7.i = or disjoint i32 %_6.sroa.4.0.insert.insert.i23.7.i, %_6.sroa.5.0.insert.shift.i19.7.i
  %_15.i26.7.i = icmp samesign ult i32 %c, %_6.sroa.0.0.insert.insert.i24.7.i
  %base.sroa.0.0.mid.7.i = select i1 %_15.i26.7.i, i64 %base.sroa.0.0.mid.6.i, i64 %mid.7.i
  %_38.i = getelementptr inbounds nuw { [3 x i8], [3 x i8] }, ptr @_RNvNtCsDJOD2kcAir_13unicode_width6tables19SOLIDUS_TRANSPARENT, i64 %base.sroa.0.0.mid.7.i
  %lo.sroa.0.0.copyload.i.i = load i8, ptr %_38.i, align 1, !alias.scope !20, !noalias !5
  %lo.sroa.4.0._2.sroa_idx.i.i = getelementptr inbounds nuw i8, ptr %_38.i, i64 1
  %lo.sroa.4.0.copyload.i.i = load i8, ptr %lo.sroa.4.0._2.sroa_idx.i.i, align 1, !alias.scope !20, !noalias !5
  %lo.sroa.5.0._2.sroa_idx.i.i = getelementptr inbounds nuw i8, ptr %_38.i, i64 2
  %lo.sroa.5.0.copyload.i.i = load i8, ptr %lo.sroa.5.0._2.sroa_idx.i.i, align 1, !alias.scope !20, !noalias !5
  %_6.sroa.5.0.insert.ext.i.i = zext i8 %lo.sroa.5.0.copyload.i.i to i32
  %_6.sroa.5.0.insert.shift.i.i = shl nuw nsw i32 %_6.sroa.5.0.insert.ext.i.i, 16
  %_6.sroa.4.0.insert.ext.i.i = zext i8 %lo.sroa.4.0.copyload.i.i to i32
  %_6.sroa.4.0.insert.shift.i.i = shl nuw nsw i32 %_6.sroa.4.0.insert.ext.i.i, 8
  %_6.sroa.0.0.insert.ext.i.i = zext i8 %lo.sroa.0.0.copyload.i.i to i32
  %_6.sroa.4.0.insert.insert.i.i = or disjoint i32 %_6.sroa.4.0.insert.shift.i.i, %_6.sroa.0.0.insert.ext.i.i
  %_6.sroa.0.0.insert.insert.i.i = or disjoint i32 %_6.sroa.4.0.insert.insert.i.i, %_6.sroa.5.0.insert.shift.i.i
  %_15.i.i = icmp samesign ult i32 %c, %_6.sroa.0.0.insert.insert.i.i
  br i1 %_15.i.i, label %bb5, label %_RNCNvNtCsDJOD2kcAir_13unicode_width6tables22is_solidus_transparent0B5_.exit.i

_RNCNvNtCsDJOD2kcAir_13unicode_width6tables22is_solidus_transparent0B5_.exit.i: ; preds = %bb3
  %hi.sroa.5.0..sroa_idx.i.i = getelementptr inbounds nuw i8, ptr %_38.i, i64 5
  %hi.sroa.5.0.copyload.i.i = load i8, ptr %hi.sroa.5.0..sroa_idx.i.i, align 1, !alias.scope !20, !noalias !5
  %_11.sroa.5.0.insert.ext.i.i = zext i8 %hi.sroa.5.0.copyload.i.i to i32
  %_11.sroa.5.0.insert.shift.i.i = shl nuw nsw i32 %_11.sroa.5.0.insert.ext.i.i, 16
  %hi.sroa.4.0..sroa_idx.i.i = getelementptr inbounds nuw i8, ptr %_38.i, i64 4
  %hi.sroa.4.0.copyload.i.i = load i8, ptr %hi.sroa.4.0..sroa_idx.i.i, align 1, !alias.scope !20, !noalias !5
  %_11.sroa.4.0.insert.ext.i.i = zext i8 %hi.sroa.4.0.copyload.i.i to i32
  %_11.sroa.4.0.insert.shift.i.i = shl nuw nsw i32 %_11.sroa.4.0.insert.ext.i.i, 8
  %_11.sroa.4.0.insert.insert.i.i = or disjoint i32 %_11.sroa.4.0.insert.shift.i.i, %_11.sroa.5.0.insert.shift.i.i
  %13 = getelementptr inbounds nuw i8, ptr %_38.i, i64 3
  %hi.sroa.0.0.copyload.i.i = load i8, ptr %13, align 1, !alias.scope !20, !noalias !5
  %_11.sroa.0.0.insert.ext.i.i = zext i8 %hi.sroa.0.0.copyload.i.i to i32
  %_11.sroa.0.0.insert.insert.i.i = or disjoint i32 %_11.sroa.4.0.insert.insert.i.i, %_11.sroa.0.0.insert.ext.i.i
  %_11.sroa.0.0.insert.insert.i.fr.i = freeze i32 %_11.sroa.0.0.insert.insert.i.i
  %_17.i.i = icmp ule i32 %c, %_11.sroa.0.0.insert.insert.i.fr.i
  br label %bb5

bb5:                                              ; preds = %_RNCNvNtCsDJOD2kcAir_13unicode_width6tables22is_solidus_transparent0B5_.exit.i, %bb3, %start, %start, %start, %bb2.i
  %_0.sroa.0.0.off0 = phi i1 [ true, %bb2.i ], [ true, %start ], [ true, %start ], [ true, %start ], [ false, %bb3 ], [ %_17.i.i, %_RNCNvNtCsDJOD2kcAir_13unicode_width6tables22is_solidus_transparent0B5_.exit.i ]
  ret i1 %_0.sroa.0.0.off0
}

; unicode_width::tables::is_transparent_zero_width
; Function Attrs: uwtable
define noundef zeroext i1 @_RNvNtCsDJOD2kcAir_13unicode_width6tables25is_transparent_zero_width(i32 noundef range(i32 0, 1114112) %c) unnamed_addr #1 personality ptr @rust_eh_personality {
start:
  %cp.i = zext nneg i32 %c to i64
  %_5.i = lshr i64 %cp.i, 13
  %0 = getelementptr inbounds nuw i8, ptr @_RNvNtCsDJOD2kcAir_13unicode_width6tables10WIDTH_ROOT, i64 %_5.i
  %t1_offset.i = load i8, ptr %0, align 1, !noundef !23
  %_9.i = zext i8 %t1_offset.i to i64
  %_10.i = icmp ult i8 %t1_offset.i, 20
  br i1 %_10.i, label %bb3.i, label %panic1.i

panic1.i:                                         ; preds = %start
; call core::panicking::panic_bounds_check
  tail call void @_RNvNtCsjMrxcFdYDNN_4core9panicking18panic_bounds_check(i64 noundef %_9.i, i64 noundef 20, ptr noalias noundef readonly align 8 captures(address, read_provenance) dereferenceable(24) @alloc_3c235b06addb9c2230a3beb294b85791) #4
  unreachable

bb3.i:                                            ; preds = %start
  %_12.i = lshr i64 %cp.i, 7
  %_11.i = and i64 %_12.i, 63
  %1 = getelementptr inbounds nuw [64 x i8], ptr @_RNvNtCsDJOD2kcAir_13unicode_width6tables12WIDTH_MIDDLE, i64 %_9.i
  %2 = getelementptr inbounds nuw i8, ptr %1, i64 %_11.i
  %t2_offset.i = load i8, ptr %2, align 1, !noundef !23
  %_16.i = zext i8 %t2_offset.i to i64
  %_17.i = icmp ult i8 %t2_offset.i, -70
  br i1 %_17.i, label %bb5.i, label %panic3.i

panic3.i:                                         ; preds = %bb3.i
; call core::panicking::panic_bounds_check
  tail call void @_RNvNtCsjMrxcFdYDNN_4core9panicking18panic_bounds_check(i64 noundef %_16.i, i64 noundef 186, ptr noalias noundef readonly align 8 captures(address, read_provenance) dereferenceable(24) @alloc_54facc433374646a466a7fffff6dc929) #4
  unreachable

bb5.i:                                            ; preds = %bb3.i
  %_19.i = lshr i64 %cp.i, 2
  %_18.i = and i64 %_19.i, 31
  %3 = getelementptr inbounds nuw [32 x i8], ptr @_RNvNtCsDJOD2kcAir_13unicode_width6tables12WIDTH_LEAVES, i64 %_16.i
  %4 = getelementptr inbounds nuw i8, ptr %3, i64 %_18.i
  %packed_widths.i = load i8, ptr %4, align 1, !noundef !23
  %cp.tr.i = trunc i32 %c to i8
  %5 = shl i8 %cp.tr.i, 1
  %6 = and i8 %5, 6
  %_22.i = lshr i8 %packed_widths.i, %6
  %width.i = and i8 %_22.i, 3
  switch i8 %width.i, label %bb5 [
    i8 3, label %bb7.i
    i8 0, label %bb3
  ]

bb7.i:                                            ; preds = %bb5.i
  switch i32 %c, label %bb5 [
    i32 65039, label %bb3
    i32 65038, label %bb3
    i32 65025, label %bb3
  ]

bb3:                                              ; preds = %bb5.i, %bb7.i, %bb7.i, %bb7.i
  %_15.i26.i = icmp samesign ult i32 %c, 43456
  %base.sroa.0.0.mid.i = select i1 %_15.i26.i, i64 0, i64 35
  %mid.1.i = add nuw nsw i64 %base.sroa.0.0.mid.i, 18
  %_32.1.i = getelementptr inbounds nuw { [3 x i8], [3 x i8] }, ptr @_RNvNtCsDJOD2kcAir_13unicode_width6tables27NON_TRANSPARENT_ZERO_WIDTHS, i64 %mid.1.i
  %lo.sroa.0.0.copyload.i13.1.i = load i8, ptr %_32.1.i, align 1, !alias.scope !24, !noalias !27
  %lo.sroa.4.0._2.sroa_idx.i14.1.i = getelementptr inbounds nuw i8, ptr %_32.1.i, i64 1
  %lo.sroa.4.0.copyload.i15.1.i = load i8, ptr %lo.sroa.4.0._2.sroa_idx.i14.1.i, align 1, !alias.scope !24, !noalias !27
  %lo.sroa.5.0._2.sroa_idx.i16.1.i = getelementptr inbounds nuw i8, ptr %_32.1.i, i64 2
  %lo.sroa.5.0.copyload.i17.1.i = load i8, ptr %lo.sroa.5.0._2.sroa_idx.i16.1.i, align 1, !alias.scope !24, !noalias !27
  %_6.sroa.5.0.insert.ext.i18.1.i = zext i8 %lo.sroa.5.0.copyload.i17.1.i to i32
  %_6.sroa.5.0.insert.shift.i19.1.i = shl nuw nsw i32 %_6.sroa.5.0.insert.ext.i18.1.i, 16
  %_6.sroa.4.0.insert.ext.i20.1.i = zext i8 %lo.sroa.4.0.copyload.i15.1.i to i32
  %_6.sroa.4.0.insert.shift.i21.1.i = shl nuw nsw i32 %_6.sroa.4.0.insert.ext.i20.1.i, 8
  %_6.sroa.0.0.insert.ext.i22.1.i = zext i8 %lo.sroa.0.0.copyload.i13.1.i to i32
  %_6.sroa.4.0.insert.insert.i23.1.i = or disjoint i32 %_6.sroa.4.0.insert.shift.i21.1.i, %_6.sroa.0.0.insert.ext.i22.1.i
  %_6.sroa.0.0.insert.insert.i24.1.i = or disjoint i32 %_6.sroa.4.0.insert.insert.i23.1.i, %_6.sroa.5.0.insert.shift.i19.1.i
  %_15.i26.1.i = icmp samesign ult i32 %c, %_6.sroa.0.0.insert.insert.i24.1.i
  %base.sroa.0.0.mid.1.i = select i1 %_15.i26.1.i, i64 %base.sroa.0.0.mid.i, i64 %mid.1.i
  %mid.2.i = add nuw nsw i64 %base.sroa.0.0.mid.1.i, 9
  %_32.2.i = getelementptr inbounds nuw { [3 x i8], [3 x i8] }, ptr @_RNvNtCsDJOD2kcAir_13unicode_width6tables27NON_TRANSPARENT_ZERO_WIDTHS, i64 %mid.2.i
  %lo.sroa.0.0.copyload.i13.2.i = load i8, ptr %_32.2.i, align 1, !alias.scope !30, !noalias !27
  %lo.sroa.4.0._2.sroa_idx.i14.2.i = getelementptr inbounds nuw i8, ptr %_32.2.i, i64 1
  %lo.sroa.4.0.copyload.i15.2.i = load i8, ptr %lo.sroa.4.0._2.sroa_idx.i14.2.i, align 1, !alias.scope !30, !noalias !27
  %lo.sroa.5.0._2.sroa_idx.i16.2.i = getelementptr inbounds nuw i8, ptr %_32.2.i, i64 2
  %lo.sroa.5.0.copyload.i17.2.i = load i8, ptr %lo.sroa.5.0._2.sroa_idx.i16.2.i, align 1, !alias.scope !30, !noalias !27
  %_6.sroa.5.0.insert.ext.i18.2.i = zext i8 %lo.sroa.5.0.copyload.i17.2.i to i32
  %_6.sroa.5.0.insert.shift.i19.2.i = shl nuw nsw i32 %_6.sroa.5.0.insert.ext.i18.2.i, 16
  %_6.sroa.4.0.insert.ext.i20.2.i = zext i8 %lo.sroa.4.0.copyload.i15.2.i to i32
  %_6.sroa.4.0.insert.shift.i21.2.i = shl nuw nsw i32 %_6.sroa.4.0.insert.ext.i20.2.i, 8
  %_6.sroa.0.0.insert.ext.i22.2.i = zext i8 %lo.sroa.0.0.copyload.i13.2.i to i32
  %_6.sroa.4.0.insert.insert.i23.2.i = or disjoint i32 %_6.sroa.4.0.insert.shift.i21.2.i, %_6.sroa.0.0.insert.ext.i22.2.i
  %_6.sroa.0.0.insert.insert.i24.2.i = or disjoint i32 %_6.sroa.4.0.insert.insert.i23.2.i, %_6.sroa.5.0.insert.shift.i19.2.i
  %_15.i26.2.i = icmp samesign ult i32 %c, %_6.sroa.0.0.insert.insert.i24.2.i
  %base.sroa.0.0.mid.2.i = select i1 %_15.i26.2.i, i64 %base.sroa.0.0.mid.1.i, i64 %mid.2.i
  %mid.3.i = add nuw nsw i64 %base.sroa.0.0.mid.2.i, 4
  %_32.3.i = getelementptr inbounds nuw { [3 x i8], [3 x i8] }, ptr @_RNvNtCsDJOD2kcAir_13unicode_width6tables27NON_TRANSPARENT_ZERO_WIDTHS, i64 %mid.3.i
  %lo.sroa.0.0.copyload.i13.3.i = load i8, ptr %_32.3.i, align 1, !alias.scope !32, !noalias !27
  %lo.sroa.4.0._2.sroa_idx.i14.3.i = getelementptr inbounds nuw i8, ptr %_32.3.i, i64 1
  %lo.sroa.4.0.copyload.i15.3.i = load i8, ptr %lo.sroa.4.0._2.sroa_idx.i14.3.i, align 1, !alias.scope !32, !noalias !27
  %lo.sroa.5.0._2.sroa_idx.i16.3.i = getelementptr inbounds nuw i8, ptr %_32.3.i, i64 2
  %lo.sroa.5.0.copyload.i17.3.i = load i8, ptr %lo.sroa.5.0._2.sroa_idx.i16.3.i, align 1, !alias.scope !32, !noalias !27
  %_6.sroa.5.0.insert.ext.i18.3.i = zext i8 %lo.sroa.5.0.copyload.i17.3.i to i32
  %_6.sroa.5.0.insert.shift.i19.3.i = shl nuw nsw i32 %_6.sroa.5.0.insert.ext.i18.3.i, 16
  %_6.sroa.4.0.insert.ext.i20.3.i = zext i8 %lo.sroa.4.0.copyload.i15.3.i to i32
  %_6.sroa.4.0.insert.shift.i21.3.i = shl nuw nsw i32 %_6.sroa.4.0.insert.ext.i20.3.i, 8
  %_6.sroa.0.0.insert.ext.i22.3.i = zext i8 %lo.sroa.0.0.copyload.i13.3.i to i32
  %_6.sroa.4.0.insert.insert.i23.3.i = or disjoint i32 %_6.sroa.4.0.insert.shift.i21.3.i, %_6.sroa.0.0.insert.ext.i22.3.i
  %_6.sroa.0.0.insert.insert.i24.3.i = or disjoint i32 %_6.sroa.4.0.insert.insert.i23.3.i, %_6.sroa.5.0.insert.shift.i19.3.i
  %_15.i26.3.i = icmp samesign ult i32 %c, %_6.sroa.0.0.insert.insert.i24.3.i
  %base.sroa.0.0.mid.3.i = select i1 %_15.i26.3.i, i64 %base.sroa.0.0.mid.2.i, i64 %mid.3.i
  %mid.4.i = add nuw nsw i64 %base.sroa.0.0.mid.3.i, 2
  %_32.4.i = getelementptr inbounds nuw { [3 x i8], [3 x i8] }, ptr @_RNvNtCsDJOD2kcAir_13unicode_width6tables27NON_TRANSPARENT_ZERO_WIDTHS, i64 %mid.4.i
  %lo.sroa.0.0.copyload.i13.4.i = load i8, ptr %_32.4.i, align 1, !alias.scope !34, !noalias !27
  %lo.sroa.4.0._2.sroa_idx.i14.4.i = getelementptr inbounds nuw i8, ptr %_32.4.i, i64 1
  %lo.sroa.4.0.copyload.i15.4.i = load i8, ptr %lo.sroa.4.0._2.sroa_idx.i14.4.i, align 1, !alias.scope !34, !noalias !27
  %lo.sroa.5.0._2.sroa_idx.i16.4.i = getelementptr inbounds nuw i8, ptr %_32.4.i, i64 2
  %lo.sroa.5.0.copyload.i17.4.i = load i8, ptr %lo.sroa.5.0._2.sroa_idx.i16.4.i, align 1, !alias.scope !34, !noalias !27
  %_6.sroa.5.0.insert.ext.i18.4.i = zext i8 %lo.sroa.5.0.copyload.i17.4.i to i32
  %_6.sroa.5.0.insert.shift.i19.4.i = shl nuw nsw i32 %_6.sroa.5.0.insert.ext.i18.4.i, 16
  %_6.sroa.4.0.insert.ext.i20.4.i = zext i8 %lo.sroa.4.0.copyload.i15.4.i to i32
  %_6.sroa.4.0.insert.shift.i21.4.i = shl nuw nsw i32 %_6.sroa.4.0.insert.ext.i20.4.i, 8
  %_6.sroa.0.0.insert.ext.i22.4.i = zext i8 %lo.sroa.0.0.copyload.i13.4.i to i32
  %_6.sroa.4.0.insert.insert.i23.4.i = or disjoint i32 %_6.sroa.4.0.insert.shift.i21.4.i, %_6.sroa.0.0.insert.ext.i22.4.i
  %_6.sroa.0.0.insert.insert.i24.4.i = or disjoint i32 %_6.sroa.4.0.insert.insert.i23.4.i, %_6.sroa.5.0.insert.shift.i19.4.i
  %_15.i26.4.i = icmp samesign ult i32 %c, %_6.sroa.0.0.insert.insert.i24.4.i
  %base.sroa.0.0.mid.4.i = select i1 %_15.i26.4.i, i64 %base.sroa.0.0.mid.3.i, i64 %mid.4.i
  %mid.5.i = add nuw nsw i64 %base.sroa.0.0.mid.4.i, 1
  %_32.5.i = getelementptr inbounds nuw { [3 x i8], [3 x i8] }, ptr @_RNvNtCsDJOD2kcAir_13unicode_width6tables27NON_TRANSPARENT_ZERO_WIDTHS, i64 %mid.5.i
  %lo.sroa.0.0.copyload.i13.5.i = load i8, ptr %_32.5.i, align 1, !alias.scope !36, !noalias !27
  %lo.sroa.4.0._2.sroa_idx.i14.5.i = getelementptr inbounds nuw i8, ptr %_32.5.i, i64 1
  %lo.sroa.4.0.copyload.i15.5.i = load i8, ptr %lo.sroa.4.0._2.sroa_idx.i14.5.i, align 1, !alias.scope !36, !noalias !27
  %lo.sroa.5.0._2.sroa_idx.i16.5.i = getelementptr inbounds nuw i8, ptr %_32.5.i, i64 2
  %lo.sroa.5.0.copyload.i17.5.i = load i8, ptr %lo.sroa.5.0._2.sroa_idx.i16.5.i, align 1, !alias.scope !36, !noalias !27
  %_6.sroa.5.0.insert.ext.i18.5.i = zext i8 %lo.sroa.5.0.copyload.i17.5.i to i32
  %_6.sroa.5.0.insert.shift.i19.5.i = shl nuw nsw i32 %_6.sroa.5.0.insert.ext.i18.5.i, 16
  %_6.sroa.4.0.insert.ext.i20.5.i = zext i8 %lo.sroa.4.0.copyload.i15.5.i to i32
  %_6.sroa.4.0.insert.shift.i21.5.i = shl nuw nsw i32 %_6.sroa.4.0.insert.ext.i20.5.i, 8
  %_6.sroa.0.0.insert.ext.i22.5.i = zext i8 %lo.sroa.0.0.copyload.i13.5.i to i32
  %_6.sroa.4.0.insert.insert.i23.5.i = or disjoint i32 %_6.sroa.4.0.insert.shift.i21.5.i, %_6.sroa.0.0.insert.ext.i22.5.i
  %_6.sroa.0.0.insert.insert.i24.5.i = or disjoint i32 %_6.sroa.4.0.insert.insert.i23.5.i, %_6.sroa.5.0.insert.shift.i19.5.i
  %_15.i26.5.i = icmp samesign ult i32 %c, %_6.sroa.0.0.insert.insert.i24.5.i
  %base.sroa.0.0.mid.5.i = select i1 %_15.i26.5.i, i64 %base.sroa.0.0.mid.4.i, i64 %mid.5.i
  %mid.6.i = add nuw nsw i64 %base.sroa.0.0.mid.5.i, 1
  %_32.6.i = getelementptr inbounds nuw { [3 x i8], [3 x i8] }, ptr @_RNvNtCsDJOD2kcAir_13unicode_width6tables27NON_TRANSPARENT_ZERO_WIDTHS, i64 %mid.6.i
  %lo.sroa.0.0.copyload.i13.6.i = load i8, ptr %_32.6.i, align 1, !alias.scope !38, !noalias !27
  %lo.sroa.4.0._2.sroa_idx.i14.6.i = getelementptr inbounds nuw i8, ptr %_32.6.i, i64 1
  %lo.sroa.4.0.copyload.i15.6.i = load i8, ptr %lo.sroa.4.0._2.sroa_idx.i14.6.i, align 1, !alias.scope !38, !noalias !27
  %lo.sroa.5.0._2.sroa_idx.i16.6.i = getelementptr inbounds nuw i8, ptr %_32.6.i, i64 2
  %lo.sroa.5.0.copyload.i17.6.i = load i8, ptr %lo.sroa.5.0._2.sroa_idx.i16.6.i, align 1, !alias.scope !38, !noalias !27
  %_6.sroa.5.0.insert.ext.i18.6.i = zext i8 %lo.sroa.5.0.copyload.i17.6.i to i32
  %_6.sroa.5.0.insert.shift.i19.6.i = shl nuw nsw i32 %_6.sroa.5.0.insert.ext.i18.6.i, 16
  %_6.sroa.4.0.insert.ext.i20.6.i = zext i8 %lo.sroa.4.0.copyload.i15.6.i to i32
  %_6.sroa.4.0.insert.shift.i21.6.i = shl nuw nsw i32 %_6.sroa.4.0.insert.ext.i20.6.i, 8
  %_6.sroa.0.0.insert.ext.i22.6.i = zext i8 %lo.sroa.0.0.copyload.i13.6.i to i32
  %_6.sroa.4.0.insert.insert.i23.6.i = or disjoint i32 %_6.sroa.4.0.insert.shift.i21.6.i, %_6.sroa.0.0.insert.ext.i22.6.i
  %_6.sroa.0.0.insert.insert.i24.6.i = or disjoint i32 %_6.sroa.4.0.insert.insert.i23.6.i, %_6.sroa.5.0.insert.shift.i19.6.i
  %_15.i26.6.i = icmp samesign ult i32 %c, %_6.sroa.0.0.insert.insert.i24.6.i
  %base.sroa.0.0.mid.6.i = select i1 %_15.i26.6.i, i64 %base.sroa.0.0.mid.5.i, i64 %mid.6.i
  %_38.i = getelementptr inbounds nuw { [3 x i8], [3 x i8] }, ptr @_RNvNtCsDJOD2kcAir_13unicode_width6tables27NON_TRANSPARENT_ZERO_WIDTHS, i64 %base.sroa.0.0.mid.6.i
  %lo.sroa.0.0.copyload.i.i = load i8, ptr %_38.i, align 1, !alias.scope !40, !noalias !27
  %lo.sroa.4.0._2.sroa_idx.i.i = getelementptr inbounds nuw i8, ptr %_38.i, i64 1
  %lo.sroa.4.0.copyload.i.i = load i8, ptr %lo.sroa.4.0._2.sroa_idx.i.i, align 1, !alias.scope !40, !noalias !27
  %lo.sroa.5.0._2.sroa_idx.i.i = getelementptr inbounds nuw i8, ptr %_38.i, i64 2
  %lo.sroa.5.0.copyload.i.i = load i8, ptr %lo.sroa.5.0._2.sroa_idx.i.i, align 1, !alias.scope !40, !noalias !27
  %_6.sroa.5.0.insert.ext.i.i = zext i8 %lo.sroa.5.0.copyload.i.i to i32
  %_6.sroa.5.0.insert.shift.i.i = shl nuw nsw i32 %_6.sroa.5.0.insert.ext.i.i, 16
  %_6.sroa.4.0.insert.ext.i.i = zext i8 %lo.sroa.4.0.copyload.i.i to i32
  %_6.sroa.4.0.insert.shift.i.i = shl nuw nsw i32 %_6.sroa.4.0.insert.ext.i.i, 8
  %_6.sroa.0.0.insert.ext.i.i = zext i8 %lo.sroa.0.0.copyload.i.i to i32
  %_6.sroa.4.0.insert.insert.i.i = or disjoint i32 %_6.sroa.4.0.insert.shift.i.i, %_6.sroa.0.0.insert.ext.i.i
  %_6.sroa.0.0.insert.insert.i.i = or disjoint i32 %_6.sroa.4.0.insert.insert.i.i, %_6.sroa.5.0.insert.shift.i.i
  %_15.i.i = icmp samesign ult i32 %c, %_6.sroa.0.0.insert.insert.i.i
  br i1 %_15.i.i, label %bb5, label %_RNCNvNtCsDJOD2kcAir_13unicode_width6tables25is_transparent_zero_width0B5_.exit.i

_RNCNvNtCsDJOD2kcAir_13unicode_width6tables25is_transparent_zero_width0B5_.exit.i: ; preds = %bb3
  %hi.sroa.5.0..sroa_idx.i.i = getelementptr inbounds nuw i8, ptr %_38.i, i64 5
  %hi.sroa.5.0.copyload.i.i = load i8, ptr %hi.sroa.5.0..sroa_idx.i.i, align 1, !alias.scope !40, !noalias !27
  %_11.sroa.5.0.insert.ext.i.i = zext i8 %hi.sroa.5.0.copyload.i.i to i32
  %_11.sroa.5.0.insert.shift.i.i = shl nuw nsw i32 %_11.sroa.5.0.insert.ext.i.i, 16
  %hi.sroa.4.0..sroa_idx.i.i = getelementptr inbounds nuw i8, ptr %_38.i, i64 4
  %hi.sroa.4.0.copyload.i.i = load i8, ptr %hi.sroa.4.0..sroa_idx.i.i, align 1, !alias.scope !40, !noalias !27
  %_11.sroa.4.0.insert.ext.i.i = zext i8 %hi.sroa.4.0.copyload.i.i to i32
  %_11.sroa.4.0.insert.shift.i.i = shl nuw nsw i32 %_11.sroa.4.0.insert.ext.i.i, 8
  %_11.sroa.4.0.insert.insert.i.i = or disjoint i32 %_11.sroa.4.0.insert.shift.i.i, %_11.sroa.5.0.insert.shift.i.i
  %7 = getelementptr inbounds nuw i8, ptr %_38.i, i64 3
  %hi.sroa.0.0.copyload.i.i = load i8, ptr %7, align 1, !alias.scope !40, !noalias !27
  %_11.sroa.0.0.insert.ext.i.i = zext i8 %hi.sroa.0.0.copyload.i.i to i32
  %_11.sroa.0.0.insert.insert.i.i = or disjoint i32 %_11.sroa.4.0.insert.insert.i.i, %_11.sroa.0.0.insert.ext.i.i
  %_11.sroa.0.0.insert.insert.i.fr.i = freeze i32 %_11.sroa.0.0.insert.insert.i.i
  %_17.i.i = icmp ugt i32 %c, %_11.sroa.0.0.insert.insert.i.fr.i
  br label %bb5

bb5:                                              ; preds = %_RNCNvNtCsDJOD2kcAir_13unicode_width6tables25is_transparent_zero_width0B5_.exit.i, %bb3, %bb5.i, %bb7.i
  %_0.sroa.0.0.off0 = phi i1 [ false, %bb7.i ], [ false, %bb5.i ], [ true, %bb3 ], [ %_17.i.i, %_RNCNvNtCsDJOD2kcAir_13unicode_width6tables25is_transparent_zero_width0B5_.exit.i ]
  ret i1 %_0.sroa.0.0.off0
}

declare i32 @rust_eh_personality(...) unnamed_addr #2

; core::panicking::panic_bounds_check
; Function Attrs: cold minsize noinline noreturn optsize uwtable
declare void @_RNvNtCsjMrxcFdYDNN_4core9panicking18panic_bounds_check(i64 noundef, i64 noundef, ptr noalias noundef readonly align 8 captures(address, read_provenance) dereferenceable(24)) unnamed_addr #3

attributes #0 = { mustprogress nofree norecurse nosync nounwind willreturn memory(none) uwtable "frame-pointer"="non-leaf" "probe-stack"="inline-asm" "target-cpu"="apple-m1" }
attributes #1 = { uwtable "frame-pointer"="non-leaf" "probe-stack"="inline-asm" "target-cpu"="apple-m1" }
attributes #2 = { "target-cpu"="apple-m1" }
attributes #3 = { cold minsize noinline noreturn optsize uwtable "frame-pointer"="non-leaf" "probe-stack"="inline-asm" "target-cpu"="apple-m1" }
attributes #4 = { noinline noreturn }

!llvm.module.flags = !{!0}
!llvm.ident = !{!1}

!0 = !{i32 8, !"PIC Level", i32 2}
!1 = !{!"rustc version 1.95.0-nightly (39052daf9 2026-01-22)"}
!2 = !{!3}
!3 = distinct !{!3, !4, !"_RNCNvNtCsDJOD2kcAir_13unicode_width6tables22is_solidus_transparent0B5_: %_2:It1"}
!4 = distinct !{!4, !"_RNCNvNtCsDJOD2kcAir_13unicode_width6tables22is_solidus_transparent0B5_"}
!5 = !{!6}
!6 = distinct !{!6, !7, !"_RINvMNtCsjMrxcFdYDNN_4core5sliceSTAhj3_Bw_E16binary_search_byNCNvNtCsDJOD2kcAir_13unicode_width6tables22is_solidus_transparent0EB13_: argument 0"}
!7 = distinct !{!7, !"_RINvMNtCsjMrxcFdYDNN_4core5sliceSTAhj3_Bw_E16binary_search_byNCNvNtCsDJOD2kcAir_13unicode_width6tables22is_solidus_transparent0EB13_"}
!8 = !{!9}
!9 = distinct !{!9, !4, !"_RNCNvNtCsDJOD2kcAir_13unicode_width6tables22is_solidus_transparent0B5_: %_2:It2"}
!10 = !{!11}
!11 = distinct !{!11, !4, !"_RNCNvNtCsDJOD2kcAir_13unicode_width6tables22is_solidus_transparent0B5_: %_2:It3"}
!12 = !{!13}
!13 = distinct !{!13, !4, !"_RNCNvNtCsDJOD2kcAir_13unicode_width6tables22is_solidus_transparent0B5_: %_2:It4"}
!14 = !{!15}
!15 = distinct !{!15, !4, !"_RNCNvNtCsDJOD2kcAir_13unicode_width6tables22is_solidus_transparent0B5_: %_2:It5"}
!16 = !{!17}
!17 = distinct !{!17, !4, !"_RNCNvNtCsDJOD2kcAir_13unicode_width6tables22is_solidus_transparent0B5_: %_2:It6"}
!18 = !{!19}
!19 = distinct !{!19, !4, !"_RNCNvNtCsDJOD2kcAir_13unicode_width6tables22is_solidus_transparent0B5_: %_2:It7"}
!20 = !{!21}
!21 = distinct !{!21, !22, !"_RNCNvNtCsDJOD2kcAir_13unicode_width6tables22is_solidus_transparent0B5_: %_2"}
!22 = distinct !{!22, !"_RNCNvNtCsDJOD2kcAir_13unicode_width6tables22is_solidus_transparent0B5_"}
!23 = !{}
!24 = !{!25}
!25 = distinct !{!25, !26, !"_RNCNvNtCsDJOD2kcAir_13unicode_width6tables25is_transparent_zero_width0B5_: %_2:It1"}
!26 = distinct !{!26, !"_RNCNvNtCsDJOD2kcAir_13unicode_width6tables25is_transparent_zero_width0B5_"}
!27 = !{!28}
!28 = distinct !{!28, !29, !"_RINvMNtCsjMrxcFdYDNN_4core5sliceSTAhj3_Bw_E16binary_search_byNCNvNtCsDJOD2kcAir_13unicode_width6tables25is_transparent_zero_width0EB13_: argument 0"}
!29 = distinct !{!29, !"_RINvMNtCsjMrxcFdYDNN_4core5sliceSTAhj3_Bw_E16binary_search_byNCNvNtCsDJOD2kcAir_13unicode_width6tables25is_transparent_zero_width0EB13_"}
!30 = !{!31}
!31 = distinct !{!31, !26, !"_RNCNvNtCsDJOD2kcAir_13unicode_width6tables25is_transparent_zero_width0B5_: %_2:It2"}
!32 = !{!33}
!33 = distinct !{!33, !26, !"_RNCNvNtCsDJOD2kcAir_13unicode_width6tables25is_transparent_zero_width0B5_: %_2:It3"}
!34 = !{!35}
!35 = distinct !{!35, !26, !"_RNCNvNtCsDJOD2kcAir_13unicode_width6tables25is_transparent_zero_width0B5_: %_2:It4"}
!36 = !{!37}
!37 = distinct !{!37, !26, !"_RNCNvNtCsDJOD2kcAir_13unicode_width6tables25is_transparent_zero_width0B5_: %_2:It5"}
!38 = !{!39}
!39 = distinct !{!39, !26, !"_RNCNvNtCsDJOD2kcAir_13unicode_width6tables25is_transparent_zero_width0B5_: %_2:It6"}
!40 = !{!41}
!41 = distinct !{!41, !42, !"_RNCNvNtCsDJOD2kcAir_13unicode_width6tables25is_transparent_zero_width0B5_: %_2"}
!42 = distinct !{!42, !"_RNCNvNtCsDJOD2kcAir_13unicode_width6tables25is_transparent_zero_width0B5_"}
