; ModuleID = 'unsafe_libyaml.3cba26b5d13e3ae7-cgu.0'
source_filename = "unsafe_libyaml.3cba26b5d13e3ae7-cgu.0"
target datalayout = "e-m:o-p270:32:32-p271:32:32-p272:64:64-i64:64-i128:128-n32:64-S128-Fn32"
target triple = "arm64-apple-macosx11.0.0"

%"yaml::yaml_node_t" = type { i32, [1 x i32], ptr, %"yaml::unnamed_yaml_node_t_data", %"yaml::yaml_mark_t", %"yaml::yaml_mark_t" }
%"yaml::unnamed_yaml_node_t_data" = type { [4 x i64] }
%"yaml::yaml_mark_t" = type { i64, i64, i64 }
%"yaml::yaml_anchors_t" = type { i32, i32, i8, [3 x i8] }
%"yaml::yaml_simple_key_t" = type { i8, i8, [6 x i8], i64, %"yaml::yaml_mark_t" }
%"yaml::yaml_token_t" = type { i32, [1 x i32], %"yaml::unnamed_yaml_token_t_data", %"yaml::yaml_mark_t", %"yaml::yaml_mark_t" }
%"yaml::unnamed_yaml_token_t_data" = type { [3 x i64] }

@vtable.0 = private unnamed_addr constant <{ [24 x i8], ptr, ptr, ptr }> <{ [24 x i8] c"\00\00\00\00\00\00\00\00\08\00\00\00\00\00\00\00\08\00\00\00\00\00\00\00", ptr @_RNvXs_NtCs5dfrY2TkJWl_14unsafe_libyaml3fmtNtB4_10WriteToPtrNtNtCsjMrxcFdYDNN_4core3fmt5Write9write_str, ptr @_RNvYNtNtCs5dfrY2TkJWl_14unsafe_libyaml3fmt10WriteToPtrNtNtCsjMrxcFdYDNN_4core3fmt5Write10write_charB6_, ptr @_RNvYNtNtCs5dfrY2TkJWl_14unsafe_libyaml3fmt10WriteToPtrNtNtCsjMrxcFdYDNN_4core3fmt5Write9write_fmtB6_ }>, align 8
@alloc_79eb5dcc0b055fff49be8085edfed028 = private unnamed_addr constant [16 x i8] c"!event.is_null()", align 1
@alloc_b08f38296d5e13f36617fe99ae622e73 = private unnamed_addr constant [104 x i8] c"/Users/hongyaotang/.cargo/registry/src/index.crates.io-1949cf8c6b5b557f/unsafe-libyaml-0.2.11/src/api.rs", align 1
@alloc_d838dc98674096f531c85f543edd4641 = private unnamed_addr constant [16 x i8] c"!token.is_null()", align 1
@alloc_3674ecaf25ea6757494f22e340a7ddb2 = private unnamed_addr constant [17 x i8] c"!parser.is_null()", align 1
@alloc_7865fdc37ad19b9b919293c34549431b = private unnamed_addr constant [18 x i8] c"!emitter.is_null()", align 1
@alloc_e45e71155ffb8fb480705a3ebbda27cf = private unnamed_addr constant [19 x i8] c"!document.is_null()", align 1
@alloc_6f4357e3a3c9006d5d6d935934a9de54 = private unnamed_addr constant [5 x i8] c"false", align 1
@alloc_2a3003cbfc3a74a56b7c5f8d8e77ec54 = private unnamed_addr constant [34 x i8] c"((*parser).read_handler).is_none()", align 1
@alloc_f18205dc0e61dbf08d4548223d427e8e = private unnamed_addr constant [36 x i8] c"((*emitter).write_handler).is_none()", align 1
@alloc_f577bc3a626bcb7ebc7b8f9b91e5e3f1 = private unnamed_addr constant [16 x i8] c"!value.is_null()", align 1
@alloc_b12e5c2e5af033921a320e512426355e = private unnamed_addr constant [22 x i8] c"tag:yaml.org,2002:str\00", align 1
@alloc_0fd38837ab1f41bf29dfcc8f78bf6f18 = private unnamed_addr constant [110 x i8] c"!tag_directives_start.is_null() && !tag_directives_end.is_null() ||\0Atag_directives_start == tag_directives_end", align 1
@alloc_6a689ead035a17568f868131197cf511 = private unnamed_addr constant [36 x i8] c"!((*tag_directive).handle).is_null()", align 1
@alloc_e51f6cb4dffd90450b8e1df85a574357 = private unnamed_addr constant [36 x i8] c"!((*tag_directive).prefix).is_null()", align 1
@alloc_8821998f047ca62cad40e6bc4e4d87c4 = private unnamed_addr constant [1 x i8] c"\01", align 1
@alloc_914b2c69d7eca30497b9feaf15ac92f1 = private unnamed_addr constant [1 x i8] zeroinitializer, align 1
@alloc_7d9b0fbeec17271598ba47aa910a3b7b = private unnamed_addr constant [39 x i8] c"(*parser).encoding == YAML_ANY_ENCODING", align 1
@alloc_5f557dec184b5e95782c84ffd81de457 = private unnamed_addr constant [22 x i8] c"tag:yaml.org,2002:map\00", align 1
@alloc_278e79b03bee0e44e69fd5672be31de8 = private unnamed_addr constant [40 x i8] c"(*emitter).encoding == YAML_ANY_ENCODING", align 1
@alloc_fdd80bb2a5198cb20351f7050df67921 = private unnamed_addr constant [22 x i8] c"tag:yaml.org,2002:seq\00", align 1
@alloc_079a0d303af754b7335aea876ff8fa5c = private unnamed_addr constant [17 x i8] c"!anchor.is_null()", align 1
@alloc_3be22e51db65701e42d5bc3ff2d3f76b = private unnamed_addr constant [16 x i8] c"!input.is_null()", align 1
@alloc_54204efa35b937aca6e1eeafb1b512ae = private unnamed_addr constant [17 x i8] c"!output.is_null()", align 1
@alloc_a32a9baba1df6b6e908e930b36d00a6c = private unnamed_addr constant [99 x i8] c"mapping > 0 && ((*document).nodes.start).wrapping_offset(mapping as isize) <=\0A(*document).nodes.top", align 1
@alloc_fcc6f649bf8f8a030f22263ffdf2df5c = private unnamed_addr constant [91 x i8] c"key > 0 && ((*document).nodes.start).wrapping_offset(key as isize) <=\0A(*document).nodes.top", align 1
@alloc_dd19ced36c3c1e3609004cc496ca66da = private unnamed_addr constant [95 x i8] c"value > 0 && ((*document).nodes.start).wrapping_offset(value as isize) <=\0A(*document).nodes.top", align 1
@alloc_6558c71679e3d8f3a0041facbf8793a2 = private unnamed_addr constant [95 x i8] c"(*((*document).nodes.start).wrapping_offset((mapping - 1) as isize)).type_ ==\0AYAML_MAPPING_NODE", align 1
@alloc_98774a34e2a30b55a3597dcfbf79a045 = private unnamed_addr constant [101 x i8] c"sequence > 0 && ((*document).nodes.start).wrapping_offset(sequence as isize)\0A<= (*document).nodes.top", align 1
@alloc_8b821453f3ff2cb0eefca90c15287620 = private unnamed_addr constant [93 x i8] c"item > 0 && ((*document).nodes.start).wrapping_offset(item as isize) <=\0A(*document).nodes.top", align 1
@alloc_49e4c9db4d8788e289e62f5ef800c153 = private unnamed_addr constant [97 x i8] c"(*((*document).nodes.start).wrapping_offset((sequence - 1) as isize)).type_ ==\0AYAML_SEQUENCE_NODE", align 1
@alloc_5158815796000c2f219d0ad8c6e9a036 = private unnamed_addr constant [107 x i8] c"/Users/hongyaotang/.cargo/registry/src/index.crates.io-1949cf8c6b5b557f/unsafe-libyaml-0.2.11/src/dumper.rs", align 1
@alloc_da27f9e2a75092057315e3c2a05243d7 = private unnamed_addr constant [17 x i8] c"(*emitter).opened", align 1
@alloc_b02820fa868d73b9c8211b0739fe9aa2 = private unnamed_addr constant [18 x i8] c"!(*emitter).opened", align 1
@alloc_59459d39cd70d0616a2ca19ce9868a23 = private unnamed_addr constant [13 x i8] c"\02id\C3 \00\00i\03\00\01\00\00", align 1
@alloc_9c3555bd4800933fb35c3233e2297f6c = private unnamed_addr constant [107 x i8] c"/Users/hongyaotang/.cargo/registry/src/index.crates.io-1949cf8c6b5b557f/unsafe-libyaml-0.2.11/src/loader.rs", align 1
@alloc_3bbd1bbe557e5b51704f22de289ba25e = private unnamed_addr constant [41 x i8] c"(*event).type_ == YAML_STREAM_START_EVENT", align 1
@alloc_8167f539fef4b7943e8d2783af39336f = private unnamed_addr constant [22 x i8] c"found undefined alias\00", align 1
@alloc_c97e98c65da4238dff81e8ac7d5d3a2e = private unnamed_addr constant [2 x i8] c"!\00", align 1
@alloc_60b8e832a7f9410b3015515a779c63ea = private unnamed_addr constant [43 x i8] c"(*event).type_ == YAML_DOCUMENT_START_EVENT", align 1
@alloc_ca1b3c415e66b05711244b185b965d36 = private unnamed_addr constant [41 x i8] c"found duplicate anchor; first occurrence\00", align 1
@alloc_d00708e7b3fb56ed8d792ed0ef7297a3 = private unnamed_addr constant [18 x i8] c"second occurrence\00", align 1
@alloc_e7fb1a1b855f6882e38d54f7e1940dd5 = private unnamed_addr constant [64 x i8] c"((*ctx).top).c_offset_from((*ctx).start) as libc::c_long > 0_i64", align 1
@alloc_67338cd869338d5b4a5edda765f0d016 = private unnamed_addr constant [103 x i8] c"(*((*(*parser).document).nodes.start).wrapping_offset((index - 1) as\0Aisize)).type_ == YAML_MAPPING_NODE", align 1
@alloc_54f9729c752fd0a895f1c5ada9e6c548 = private unnamed_addr constant [104 x i8] c"(*((*(*parser).document).nodes.start).wrapping_offset((index - 1) as\0Aisize)).type_ == YAML_SEQUENCE_NODE", align 1
@alloc_2f5ca72a0bcd2c72e7d6f948bdc71464 = private unnamed_addr constant [107 x i8] c"/Users/hongyaotang/.cargo/registry/src/index.crates.io-1949cf8c6b5b557f/unsafe-libyaml-0.2.11/src/parser.rs", align 1
@alloc_c0fab7d072fbb6740b4b7cc017b324cd = private unnamed_addr constant [21 x i8] c"while parsing a node\00", align 1
@alloc_0ace5e5c61951baa87a76fa7892c47fd = private unnamed_addr constant [27 x i8] c"found undefined tag handle\00", align 1
@alloc_4dc17df40e773d5cca5ceff43ead8e99 = private unnamed_addr constant [26 x i8] c"while parsing a flow node\00", align 1
@alloc_ae42e5365175d3549bd7cb787d3cf97b = private unnamed_addr constant [27 x i8] c"while parsing a block node\00", align 1
@alloc_6923ed876c03728c75a00312d29302ad = private unnamed_addr constant [35 x i8] c"did not find expected node content\00", align 1
@alloc_ef97e1d49bee742d53741edce994b8ee = private unnamed_addr constant [37 x i8] c"did not find expected <stream-start>\00", align 1
@alloc_636f42e39af4938828b1bcb94a261dbd = private unnamed_addr constant [3 x i8] c"!!\00", align 1
@alloc_fa6d90e06a0cad3bd48736908c06cfb3 = private unnamed_addr constant [19 x i8] c"tag:yaml.org,2002:\00", align 1
@alloc_6621d5a2884411c484c61b9961ea53bc = private unnamed_addr constant [33 x i8] c"found incompatible YAML document\00", align 1
@alloc_10f15621541d2c9770c5bf19e6703387 = private unnamed_addr constant [32 x i8] c"found duplicate %YAML directive\00", align 1
@alloc_fb017c4c23890a3c6061cb361df14404 = private unnamed_addr constant [31 x i8] c"found duplicate %TAG directive\00", align 1
@alloc_03b62db963bdbd1c7c771e07726956a3 = private unnamed_addr constant [39 x i8] c"did not find expected <document start>\00", align 1
@alloc_7a8b2d37398571c63756c0357015f005 = private unnamed_addr constant [29 x i8] c"while parsing a flow mapping\00", align 1
@alloc_1cc67b9dacb72ebea39c94ed7e4dbacf = private unnamed_addr constant [33 x i8] c"did not find expected ',' or '}'\00", align 1
@alloc_66d3c88c711168a66a3005cc9b224610 = private unnamed_addr constant [30 x i8] c"while parsing a block mapping\00", align 1
@alloc_beb7c5897063a1b644bc9c85fb8ba8e1 = private unnamed_addr constant [26 x i8] c"did not find expected key\00", align 1
@alloc_59c3657915a9fcb7ccf838a82289f912 = private unnamed_addr constant [30 x i8] c"while parsing a flow sequence\00", align 1
@alloc_6d8bdb8fbf20d34da176fb68f9daf9a7 = private unnamed_addr constant [33 x i8] c"did not find expected ',' or ']'\00", align 1
@alloc_c9cac82f985c16597bd3d3b0880b8538 = private unnamed_addr constant [33 x i8] c"while parsing a block collection\00", align 1
@alloc_06a2c87809ac4e6f6b1db8dccc7a6a2e = private unnamed_addr constant [36 x i8] c"did not find expected '-' indicator\00", align 1
@alloc_e18956e87dc4855444f2362901e6db49 = private unnamed_addr constant [18 x i8] c"input is too long\00", align 1
@alloc_e869c25228ffc2fd5a55f7915a5660b9 = private unnamed_addr constant [28 x i8] c"invalid leading UTF-8 octet\00", align 1
@alloc_12e6526c65729af4a1f38728350feac5 = private unnamed_addr constant [26 x i8] c"invalid Unicode character\00", align 1
@alloc_367f24cbd8cbf258b7dcaceb73129c54 = private unnamed_addr constant [35 x i8] c"invalid length of a UTF-8 sequence\00", align 1
@alloc_5d8d4fa7d017f5936d90be8974e16e4e = private unnamed_addr constant [29 x i8] c"invalid trailing UTF-8 octet\00", align 1
@alloc_da03c08426b958509ebcf0686930e064 = private unnamed_addr constant [32 x i8] c"incomplete UTF-8 octet sequence\00", align 1
@alloc_4c093d108cdc8e9595944b1fe43d127b = private unnamed_addr constant [30 x i8] c"unexpected low surrogate area\00", align 1
@alloc_156f2ec022b494a036c1f091501069f3 = private unnamed_addr constant [28 x i8] c"expected low surrogate area\00", align 1
@alloc_ac95c8686149193cbd80ddcc2f20764b = private unnamed_addr constant [33 x i8] c"incomplete UTF-16 surrogate pair\00", align 1
@alloc_7f8d847388505bdf104c5e36800d4c53 = private unnamed_addr constant [28 x i8] c"incomplete UTF-16 character\00", align 1
@alloc_3eb14931b383a92d40126ca9fc1b9a69 = private unnamed_addr constant [35 x i8] c"control characters are not allowed\00", align 1
@alloc_2cfea457ee8d83dd65e33171665f5d0c = private unnamed_addr constant [34 x i8] c"((*parser).read_handler).is_some()", align 1
@alloc_778f65f7ebc681a19d554e8e80bfaaca = private unnamed_addr constant [107 x i8] c"/Users/hongyaotang/.cargo/registry/src/index.crates.io-1949cf8c6b5b557f/unsafe-libyaml-0.2.11/src/reader.rs", align 1
@alloc_8b87da55a0ee49d787ee5836cf4b8f36 = private unnamed_addr constant [25 x i8] c"non-null function pointer", align 1
@alloc_ea06c6b482bb53bf5f6e0a1a285dea0c = private unnamed_addr constant [108 x i8] c"/Users/hongyaotang/.cargo/registry/src/index.crates.io-1949cf8c6b5b557f/unsafe-libyaml-0.2.11/src/reader.rs\00", align 1
@alloc_0f9bd0d23e64606894dd7afcb89266dc = private unnamed_addr constant <{ ptr, [16 x i8] }> <{ ptr @alloc_ea06c6b482bb53bf5f6e0a1a285dea0c, [16 x i8] c"k\00\00\00\00\00\00\00\7F\00\00\00\1F\00\00\00" }>, align 8
@alloc_b72eb2bed4fbb610010a4c2e2832ac9a = private unnamed_addr constant [12 x i8] c"input error\00", align 1
@alloc_dbfc1da5307912707cd051724eef0f69 = private unnamed_addr constant [3 x i8] c"\FF\FE\00", align 1
@alloc_e503266fc43c9edad3e8ea72eefefa77 = private unnamed_addr constant [3 x i8] c"\FE\FF\00", align 1
@alloc_bfa61699305e8df8722c6089c4f8dcba = private unnamed_addr constant [4 x i8] c"\EF\BB\BF\00", align 1
@alloc_1a822a00fff76806016235aaaba03584 = private unnamed_addr constant [107 x i8] c"/Users/hongyaotang/.cargo/registry/src/index.crates.io-1949cf8c6b5b557f/unsafe-libyaml-0.2.11/src/writer.rs", align 1
@alloc_23d21691fde4aeb90c92aae94c8287fd = private unnamed_addr constant [40 x i8] c"(*emitter).encoding != YAML_ANY_ENCODING", align 1
@alloc_dd5d1fd5a07af2dbfc2c7146799b06c3 = private unnamed_addr constant [108 x i8] c"/Users/hongyaotang/.cargo/registry/src/index.crates.io-1949cf8c6b5b557f/unsafe-libyaml-0.2.11/src/writer.rs\00", align 1
@alloc_7dd8c56c6062c98f3231269695c38d94 = private unnamed_addr constant [12 x i8] c"write error\00", align 1
@alloc_562e6f5c96d39207dc2793850d02ca46 = private unnamed_addr constant <{ ptr, [16 x i8] }> <{ ptr @alloc_dd5d1fd5a07af2dbfc2c7146799b06c3, [16 x i8] c"k\00\00\00\00\00\00\00}\00\00\00!\00\00\00" }>, align 8
@alloc_5d1d2f474b9fdf87b9b1917c97f4a7fb = private unnamed_addr constant [36 x i8] c"((*emitter).write_handler).is_some()", align 1
@alloc_7001ae78d35494aa9bee085e6f6064ea = private unnamed_addr constant [57 x i8] c"expected SCALAR, SEQUENCE-START, MAPPING-START, or ALIAS\00", align 1
@alloc_2cef7aed77f8e679b2b28c123717ca37 = private unnamed_addr constant [28 x i8] c"tag value must not be empty\00", align 1
@alloc_c72606996c8e1064ec72c05ff614cf75 = private unnamed_addr constant [3 x i8] c"!<\00", align 1
@alloc_e307ed6e6846741e581029b9cff0c851 = private unnamed_addr constant [2 x i8] c">\00", align 1
@alloc_e0e59cfac47b02d1bf674a33e7797de5 = private unnamed_addr constant [34 x i8] c"expected nothing after STREAM-END\00", align 1
@alloc_f4def8a1496f920e2021741dc6808fbc = private unnamed_addr constant [57 x i8] c"anchor value must contain alphanumerical characters only\00", align 1
@alloc_3e7ce669155dceb0651f8593c0559ae3 = private unnamed_addr constant [56 x i8] c"alias value must contain alphanumerical characters only\00", align 1
@alloc_55a210c190bca65dcd082f2fbb39c753 = private unnamed_addr constant [31 x i8] c"anchor value must not be empty\00", align 1
@alloc_e2450f71ab9a536840fc9e172fded48a = private unnamed_addr constant [30 x i8] c"alias value must not be empty\00", align 1
@alloc_d7e5fcb4526b852da8e98c4c463273bb = private unnamed_addr constant [2 x i8] c"&\00", align 1
@alloc_b7803c882f1d7eaf07764339dedc0ae9 = private unnamed_addr constant [2 x i8] c"*\00", align 1
@alloc_d6273089557f94a560e48e8dbf0207e7 = private unnamed_addr constant [4 x i8] c"...\00", align 1
@alloc_71a507baf92caf8a70727cc1ed824c48 = private unnamed_addr constant [22 x i8] c"expected DOCUMENT-END\00", align 1
@alloc_d8f612d543df8283a1beb2b05bc56cfc = private unnamed_addr constant [22 x i8] c"expected STREAM-START\00", align 1
@alloc_c344dafe7a0f2d6933287126cff1081f = private unnamed_addr constant [29 x i8] c"incompatible %YAML directive\00", align 1
@alloc_89d8c764387678dfb019abfb524713b8 = private unnamed_addr constant [6 x i8] c"%YAML\00", align 1
@alloc_9bca6fbe491c14a7948ead443ebaacc3 = private unnamed_addr constant [4 x i8] c"1.1\00", align 1
@alloc_b820b9efa623a6dd348b0ca0f8f31f3a = private unnamed_addr constant [4 x i8] c"1.2\00", align 1
@alloc_e82aad44298f0a3ea3714ccbdd29f82a = private unnamed_addr constant [4 x i8] c"---\00", align 1
@alloc_c90a187b309be1fe51fbeefeaf6d7462 = private unnamed_addr constant [5 x i8] c"%TAG\00", align 1
@alloc_96fcccfd75fc79e165f88ae400401613 = private unnamed_addr constant [38 x i8] c"expected DOCUMENT-START or STREAM-END\00", align 1
@alloc_68990a677004dbba4a1577c8765bf3ae = private unnamed_addr constant [45 x i8] c"neither tag nor implicit flags are specified\00", align 1
@alloc_ac710dd0de64db448060327551f58d2b = private unnamed_addr constant [25 x i8] c"duplicate %TAG directive\00", align 1
@alloc_7f7a17edb63e4ec74af5cc0483d6013e = private unnamed_addr constant [2 x i8] c"|\00", align 1
@alloc_bbddd9f918851cfbacd63023a2dacb6e = private unnamed_addr constant [29 x i8] c"tag prefix must not be empty\00", align 1
@alloc_8402974eab7ff29663e9ddcb2a536679 = private unnamed_addr constant [55 x i8] c"tag handle must contain alphanumerical characters only\00", align 1
@alloc_6138464053b73ac2e9795d4072b65ca8 = private unnamed_addr constant [29 x i8] c"tag handle must end with '!'\00", align 1
@alloc_342ec825bcf88eaa1e680a2e78a3dbf7 = private unnamed_addr constant [31 x i8] c"tag handle must start with '!'\00", align 1
@alloc_4818c8c7812abab591cefaf9a184140c = private unnamed_addr constant [29 x i8] c"tag handle must not be empty\00", align 1
@alloc_7386b5f9281cd9cf85f4920aa185d2be = private unnamed_addr constant [2 x i8] c",\00", align 1
@alloc_2e2a9324ab4aefee42d80e07f905a855 = private unnamed_addr constant [2 x i8] c"{\00", align 1
@alloc_e6d408fd118ba8d01c20639c2b7573d5 = private unnamed_addr constant [2 x i8] c"?\00", align 1
@alloc_adb9a11775734110c14561e022af6239 = private unnamed_addr constant [2 x i8] c"}\00", align 1
@alloc_86a66ff8514fc073963169df818ec5e5 = private unnamed_addr constant [2 x i8] c":\00", align 1
@alloc_92f061ad2a5b8a57bf08aa1fc3aa5f21 = private unnamed_addr constant [2 x i8] c"[\00", align 1
@alloc_5dc89da2b6047d37a04ac5028b357a24 = private unnamed_addr constant [2 x i8] c"]\00", align 1
@alloc_f6e4a6922e045a86735d1aad498ee9b7 = private unnamed_addr constant [2 x i8] c"-\00", align 1
@alloc_ed0833a0bab67f2c8a17a2b946576f01 = private unnamed_addr constant [2 x i8] c"+\00", align 1
@alloc_9356a4a2b0231c7c951c4dfc1a1c49b8 = private unnamed_addr constant [2 x i8] c"\22\00", align 1
@alloc_13ae72ca7034eece5b2dc2a10ef4412f = private unnamed_addr constant [2 x i8] c"'\00", align 1
@alloc_7628ac9ff3c435f27023b1dbc039793d = private unnamed_addr constant [30 x i8] c"\C0\01:\C0\0D: Assertion `\C0\09` failed.\00", align 1
@alloc_e3570c922e674cb8e28f7f702b39f40d = private unnamed_addr constant [105 x i8] c"/Users/hongyaotang/.cargo/registry/src/index.crates.io-1949cf8c6b5b557f/unsafe-libyaml-0.2.11/src/lib.rs\00", align 1
@alloc_295c66e99f3a873bf8557893c7947cee = private unnamed_addr constant <{ ptr, [16 x i8] }> <{ ptr @alloc_e3570c922e674cb8e28f7f702b39f40d, [16 x i8] c"h\00\00\00\00\00\00\00\E1\00\00\00\09\00\00\00" }>, align 8
@alloc_9136ad5a0d6bb7fc6f958fabea69d035 = private unnamed_addr constant [108 x i8] c"/Users/hongyaotang/.cargo/registry/src/index.crates.io-1949cf8c6b5b557f/unsafe-libyaml-0.2.11/src/scanner.rs", align 1
@alloc_bad0e4f017dd5d38c09271e2067fa0fc = private unnamed_addr constant [21 x i8] c"while scanning a tag\00", align 1
@alloc_b86caa2cd6c36f86ef50093aa0fcb67a = private unnamed_addr constant [30 x i8] c"did not find the expected '>'\00", align 1
@alloc_03367ea88d4d91c076ffa9cd8facb1d9 = private unnamed_addr constant [47 x i8] c"did not find expected whitespace or line break\00", align 1
@alloc_d397d4015de0265ab6cc7ef1722e0c50 = private unnamed_addr constant [45 x i8] c"mapping keys are not allowed in this context\00", align 1
@alloc_754eb084898c89b530c33302963442eb = private unnamed_addr constant [28 x i8] c"while scanning a simple key\00", align 1
@alloc_9db1b5932a6b5c7e4ef1f46d8d5fc944 = private unnamed_addr constant [28 x i8] c"could not find expected ':'\00", align 1
@alloc_8a583d4ad0fe943ef1275d7509341558 = private unnamed_addr constant [47 x i8] c"mapping values are not allowed in this context\00", align 1
@alloc_1d31b306089cac1b99d5eb1125ffba05 = private unnamed_addr constant [25 x i8] c"while scanning an anchor\00", align 1
@alloc_8acfe7b0b16f6ce51c5ee4d1e02d0083 = private unnamed_addr constant [24 x i8] c"while scanning an alias\00", align 1
@alloc_9dc9346bb8c166612f1fdf8cc2911fd4 = private unnamed_addr constant [54 x i8] c"did not find expected alphabetic or numeric character\00", align 1
@alloc_40d9f3f917e7fa3effdabd9ef3b88099 = private unnamed_addr constant [20 x i8] c"while parsing a tag\00", align 1
@alloc_821f82400e0c0d726e062634f75d0464 = private unnamed_addr constant [31 x i8] c"while parsing a %TAG directive\00", align 1
@alloc_0855b8f03bb8e003bf6ec9762dfd8286 = private unnamed_addr constant [30 x i8] c"did not find expected tag URI\00", align 1
@alloc_560f8ebd32e286b4c7fae108e657f02c = private unnamed_addr constant [5 x i8] c"YAML\00", align 1
@alloc_f2f74e96ebd4f502b01f9e7b8f81e015 = private unnamed_addr constant [4 x i8] c"TAG\00", align 1
@alloc_8734c95412f5fcb8438b7cbb58ad444a = private unnamed_addr constant [27 x i8] c"while scanning a directive\00", align 1
@alloc_c317defd050937a0ab0fa8953eaa698d = private unnamed_addr constant [44 x i8] c"did not find expected comment or line break\00", align 1
@alloc_062316b3ddcb06123b95a2c275ee0fe4 = private unnamed_addr constant [29 x i8] c"found unknown directive name\00", align 1
@alloc_d0a11403c1f6de7e3e859d220752c750 = private unnamed_addr constant [30 x i8] c"while parsing a tag directive\00", align 1
@alloc_7e9365d36591ce4cef11c195cc01dfc1 = private unnamed_addr constant [26 x i8] c"did not find expected '!'\00", align 1
@alloc_7d486ce32c8354fbf3c09fdeb195f282 = private unnamed_addr constant [31 x i8] c"while scanning a tag directive\00", align 1
@alloc_4fab72a381e08bac180c2a5cd6462ac0 = private unnamed_addr constant [34 x i8] c"while scanning for the next token\00", align 1
@alloc_aafdf89e1c8d40ebbe9786baf2db8d9e = private unnamed_addr constant [44 x i8] c"found character that cannot start any token\00", align 1
@alloc_127cb9a8c77546535000b383fbbfc38b = private unnamed_addr constant [31 x i8] c"while scanning a quoted scalar\00", align 1
@alloc_2ab72f5d753f04d61f9e651c7238d96d = private unnamed_addr constant [36 x i8] c"found unexpected document indicator\00", align 1
@alloc_929ed4f8ad2b039a74dcdc30a5677df1 = private unnamed_addr constant [31 x i8] c"found unexpected end of stream\00", align 1
@alloc_010264c45ca3607d9ccc0b71c6e359ab = private unnamed_addr constant [30 x i8] c"while parsing a quoted scalar\00", align 1
@alloc_7720dfe73f25ff5d716ad7da967bc2a8 = private unnamed_addr constant [44 x i8] c"found invalid Unicode character escape code\00", align 1
@alloc_51d28b0e54dad132453bb12fbfa6e48d = private unnamed_addr constant [41 x i8] c"did not find expected hexadecimal number\00", align 1
@alloc_187fe84de485362d7e08e4b1e695d632 = private unnamed_addr constant [31 x i8] c"found unknown escape character\00", align 1
@alloc_eff4ab30b4118614e3ca9d235c171422 = private unnamed_addr constant [39 x i8] c"found an incorrect leading UTF-8 octet\00", align 1
@alloc_0de1de051b667bd6acae23c3b290703e = private unnamed_addr constant [40 x i8] c"found an incorrect trailing UTF-8 octet\00", align 1
@alloc_db94d5db6769dbb790dfc473b4e3ab50 = private unnamed_addr constant [31 x i8] c"did not find URI escaped octet\00", align 1
@alloc_91c2e3cf2921a0da81c9d22a66c8c122 = private unnamed_addr constant [55 x i8] c"block sequence entries are not allowed in this context\00", align 1
@alloc_310fb90e4f79664c2837932b15211180 = private unnamed_addr constant [30 x i8] c"while scanning a block scalar\00", align 1
@alloc_649182e81ba31145ea97c4827fc0fd27 = private unnamed_addr constant [42 x i8] c"found an indentation indicator equal to 0\00", align 1
@alloc_9892db49fb70f256123c3a61af49b1ae = private unnamed_addr constant [30 x i8] c"while scanning a plain scalar\00", align 1
@alloc_20bb5bc03b45ec3991c4091ce504a1b6 = private unnamed_addr constant [21 x i8] c"found unexpected ':'\00", align 1
@alloc_65002fc923d2b4fdde9838526d26e9ea = private unnamed_addr constant [48 x i8] c"found a tab character that violates indentation\00", align 1
@alloc_0982f968b6eff0cd58aba2f11ae322a1 = private unnamed_addr constant [44 x i8] c"found unexpected non-alphabetical character\00", align 1
@alloc_531cde06f0dad042b08420b707a7f03e = private unnamed_addr constant [39 x i8] c"could not find expected directive name\00", align 1
@alloc_ed02cc6613ae0d9bcdd28a799d7310a6 = private unnamed_addr constant [61 x i8] c"found a tab character where an indentation space is expected\00", align 1
@alloc_1aae8e75730eb82ab462d4cd5ffcac46 = private unnamed_addr constant [32 x i8] c"while scanning a %TAG directive\00", align 1
@alloc_9c0f10a468e108936dce77d4da4255b9 = private unnamed_addr constant [33 x i8] c"did not find expected whitespace\00", align 1
@alloc_2673b6101a30963233a068e97123129e = private unnamed_addr constant [33 x i8] c"while scanning a %YAML directive\00", align 1
@alloc_c54d8699983585c1ec35cef12094bc09 = private unnamed_addr constant [45 x i8] c"did not find expected digit or '.' character\00", align 1
@alloc_bcf0dddecc3545abbd1d0fe251048ffd = private unnamed_addr constant [37 x i8] c"did not find expected version number\00", align 1
@alloc_b77fb49e5f5fb092ca18baece93f7c5b = private unnamed_addr constant [36 x i8] c"found extremely long version number\00", align 1
@alloc_eae23e7022098bb64987dbc3585fbd18 = private unnamed_addr constant [19 x i8] c"arithmetic overflow", align 1
@alloc_e5b85bf488cb7b8f8d8cd1e3dd778347 = private unnamed_addr constant [105 x i8] c"/Users/hongyaotang/.cargo/registry/src/index.crates.io-1949cf8c6b5b557f/unsafe-libyaml-0.2.11/src/ops.rs\00", align 1
@alloc_deac019a1f93a6329cc6c5bcc1488bb4 = private unnamed_addr constant <{ ptr, [16 x i8] }> <{ ptr @alloc_e5b85bf488cb7b8f8d8cd1e3dd778347, [16 x i8] c"h\00\00\00\00\00\00\00k\00\00\00\09\00\00\00" }>, align 8
@alloc_77e4a7f7091c2dea04b71bb7b376b170 = private unnamed_addr constant <{ ptr, [16 x i8] }> <{ ptr @alloc_e5b85bf488cb7b8f8d8cd1e3dd778347, [16 x i8] c"h\00\00\00\00\00\00\00e\00\00\00\0D\00\00\00" }>, align 8
@alloc_476509aa7047bd805d630c6546685797 = private unnamed_addr constant [14 x i8] c"explicit panic", align 1
@alloc_7990c769bcee102598c53664a990dd04 = private unnamed_addr constant <{ ptr, [16 x i8] }> <{ ptr @alloc_e3570c922e674cb8e28f7f702b39f40d, [16 x i8] c"h\00\00\00\00\00\00\00\DD\00\00\00\11\00\00\00" }>, align 8

@_RNvXs2_NtCs5dfrY2TkJWl_14unsafe_libyaml3opsjNtB5_8ForceAdd9force_add = unnamed_addr alias i64 (i64, i64), ptr @_RNvXs1_NtCs5dfrY2TkJWl_14unsafe_libyaml3opsyNtB5_8ForceAdd9force_add

; unsafe_libyaml::ops::die::<i32>
; Function Attrs: cold noreturn uwtable
define internal fastcc void @_RINvNtCs5dfrY2TkJWl_14unsafe_libyaml3ops3dielEB4_() unnamed_addr #0 {
start:
; call unsafe_libyaml::ops::die::do_die
  tail call void @_RNvNvNtCs5dfrY2TkJWl_14unsafe_libyaml3ops3die6do_die() #22
  unreachable
}

; unsafe_libyaml::api::yaml_malloc
; Function Attrs: uwtable
define internal fastcc noalias noundef nonnull ptr @_RNvNtCs5dfrY2TkJWl_14unsafe_libyaml3api11yaml_malloc(i64 noundef %size) unnamed_addr #1 {
start:
  %_5.0.i.i = add i64 %size, 8
  %_5.1.i.i = icmp ugt i64 %size, -9
  br i1 %_5.1.i.i, label %bb1.i.i, label %_RNvXs2_NtCs5dfrY2TkJWl_14unsafe_libyaml3opsjNtB5_8ForceAdd9force_add.exit.i, !prof !2

bb1.i.i:                                          ; preds = %start
; call unsafe_libyaml::ops::die::do_die
  tail call void @_RNvNvNtCs5dfrY2TkJWl_14unsafe_libyaml3ops3die6do_die() #22
  unreachable

_RNvXs2_NtCs5dfrY2TkJWl_14unsafe_libyaml3opsjNtB5_8ForceAdd9force_add.exit.i: ; preds = %start
  %_12.i = icmp ugt i64 %_5.0.i.i, 9223372036854775800
  br i1 %_12.i, label %bb10.i, label %bb11.i, !prof !3

bb11.i:                                           ; preds = %_RNvXs2_NtCs5dfrY2TkJWl_14unsafe_libyaml3opsjNtB5_8ForceAdd9force_add.exit.i
; call __rustc::__rust_no_alloc_shim_is_unstable_v2
  tail call void @_RNvCsKhRCbHf33p_7___rustc35___rust_no_alloc_shim_is_unstable_v2() #23
; call __rustc::__rust_alloc
  %memory.i = tail call noundef align 8 ptr @_RNvCsKhRCbHf33p_7___rustc12___rust_alloc(i64 noundef %_5.0.i.i, i64 noundef 8) #23
  %0 = icmp eq ptr %memory.i, null
  br i1 %0, label %bb3.i, label %_RNvNtCs5dfrY2TkJWl_14unsafe_libyaml7externs6malloc.exit, !prof !2

bb10.i:                                           ; preds = %_RNvXs2_NtCs5dfrY2TkJWl_14unsafe_libyaml3opsjNtB5_8ForceAdd9force_add.exit.i
; call unsafe_libyaml::ops::die::do_die
  tail call void @_RNvNvNtCs5dfrY2TkJWl_14unsafe_libyaml3ops3die6do_die() #22
  unreachable

bb3.i:                                            ; preds = %bb11.i
; call alloc::alloc::handle_alloc_error
  tail call void @_RNvNtCsdJPVW0sQgAG_5alloc5alloc18handle_alloc_error(i64 noundef 8, i64 noundef %_5.0.i.i) #22
  unreachable

_RNvNtCs5dfrY2TkJWl_14unsafe_libyaml7externs6malloc.exit: ; preds = %bb11.i
  store i64 %_5.0.i.i, ptr %memory.i, align 8
  %_10.i = getelementptr inbounds nuw i8, ptr %memory.i, i64 8
  ret ptr %_10.i
}

; unsafe_libyaml::api::yaml_realloc
; Function Attrs: uwtable
define internal fastcc noalias noundef nonnull ptr @_RNvNtCs5dfrY2TkJWl_14unsafe_libyaml3api12yaml_realloc(ptr noundef %ptr, i64 noundef %size) unnamed_addr #1 {
start:
  %0 = icmp eq ptr %ptr, null
  br i1 %0, label %bb1, label %bb2

bb1:                                              ; preds = %start
  %_5.0.i.i = add i64 %size, 8
  %_5.1.i.i = icmp ugt i64 %size, -9
  br i1 %_5.1.i.i, label %bb1.i.i, label %_RNvXs2_NtCs5dfrY2TkJWl_14unsafe_libyaml3opsjNtB5_8ForceAdd9force_add.exit.i, !prof !2

bb1.i.i:                                          ; preds = %bb1
; call unsafe_libyaml::ops::die::do_die
  tail call void @_RNvNvNtCs5dfrY2TkJWl_14unsafe_libyaml3ops3die6do_die() #22
  unreachable

_RNvXs2_NtCs5dfrY2TkJWl_14unsafe_libyaml3opsjNtB5_8ForceAdd9force_add.exit.i: ; preds = %bb1
  %_12.i = icmp ugt i64 %_5.0.i.i, 9223372036854775800
  br i1 %_12.i, label %bb10.i, label %bb11.i, !prof !3

bb11.i:                                           ; preds = %_RNvXs2_NtCs5dfrY2TkJWl_14unsafe_libyaml3opsjNtB5_8ForceAdd9force_add.exit.i
; call __rustc::__rust_no_alloc_shim_is_unstable_v2
  tail call void @_RNvCsKhRCbHf33p_7___rustc35___rust_no_alloc_shim_is_unstable_v2() #23
; call __rustc::__rust_alloc
  %memory.i = tail call noundef align 8 ptr @_RNvCsKhRCbHf33p_7___rustc12___rust_alloc(i64 noundef %_5.0.i.i, i64 noundef 8) #23
  %1 = icmp eq ptr %memory.i, null
  br i1 %1, label %bb3.i, label %_RNvNtCs5dfrY2TkJWl_14unsafe_libyaml7externs6malloc.exit, !prof !2

bb10.i:                                           ; preds = %_RNvXs2_NtCs5dfrY2TkJWl_14unsafe_libyaml3opsjNtB5_8ForceAdd9force_add.exit.i
; call unsafe_libyaml::ops::die::do_die
  tail call void @_RNvNvNtCs5dfrY2TkJWl_14unsafe_libyaml3ops3die6do_die() #22
  unreachable

bb3.i:                                            ; preds = %bb11.i
; call alloc::alloc::handle_alloc_error
  tail call void @_RNvNtCsdJPVW0sQgAG_5alloc5alloc18handle_alloc_error(i64 noundef 8, i64 noundef %_5.0.i.i) #22
  unreachable

_RNvNtCs5dfrY2TkJWl_14unsafe_libyaml7externs6malloc.exit: ; preds = %bb11.i
  store i64 %_5.0.i.i, ptr %memory.i, align 8
  br label %bb3

bb2:                                              ; preds = %start
  %2 = getelementptr inbounds i8, ptr %ptr, i64 -8
  %size.i = load i64, ptr %2, align 8, !noundef !4
  %_5.0.i.i1 = add i64 %size, 8
  %_5.1.i.i2 = icmp ugt i64 %size, -9
  br i1 %_5.1.i.i2, label %bb1.i.i8, label %_RNvXs2_NtCs5dfrY2TkJWl_14unsafe_libyaml3opsjNtB5_8ForceAdd9force_add.exit.i3, !prof !2

bb1.i.i8:                                         ; preds = %bb2
; call unsafe_libyaml::ops::die::do_die
  tail call void @_RNvNvNtCs5dfrY2TkJWl_14unsafe_libyaml3ops3die6do_die() #22
  unreachable

_RNvXs2_NtCs5dfrY2TkJWl_14unsafe_libyaml3opsjNtB5_8ForceAdd9force_add.exit.i3: ; preds = %bb2
  %_20.i = icmp ugt i64 %_5.0.i.i1, 9223372036854775800
  br i1 %_20.i, label %bb10.i7, label %bb11.i4, !prof !3

bb11.i4:                                          ; preds = %_RNvXs2_NtCs5dfrY2TkJWl_14unsafe_libyaml3opsjNtB5_8ForceAdd9force_add.exit.i3
; call __rustc::__rust_realloc
  %_12.i5 = tail call noundef align 8 ptr @_RNvCsKhRCbHf33p_7___rustc14___rust_realloc(ptr noundef nonnull %2, i64 noundef %size.i, i64 noundef 8, i64 noundef %_5.0.i.i1) #23
  %3 = icmp eq ptr %_12.i5, null
  br i1 %3, label %bb3.i6, label %_RNvNtCs5dfrY2TkJWl_14unsafe_libyaml7externs7realloc.exit, !prof !2

bb10.i7:                                          ; preds = %_RNvXs2_NtCs5dfrY2TkJWl_14unsafe_libyaml3opsjNtB5_8ForceAdd9force_add.exit.i3
; call unsafe_libyaml::ops::die::do_die
  tail call void @_RNvNvNtCs5dfrY2TkJWl_14unsafe_libyaml3ops3die6do_die() #22
  unreachable

bb3.i6:                                           ; preds = %bb11.i4
; call alloc::alloc::handle_alloc_error
  tail call void @_RNvNtCsdJPVW0sQgAG_5alloc5alloc18handle_alloc_error(i64 noundef 8, i64 noundef %_5.0.i.i1) #22
  unreachable

_RNvNtCs5dfrY2TkJWl_14unsafe_libyaml7externs7realloc.exit: ; preds = %bb11.i4
  store i64 %_5.0.i.i1, ptr %_12.i5, align 8
  br label %bb3

bb3:                                              ; preds = %_RNvNtCs5dfrY2TkJWl_14unsafe_libyaml7externs7realloc.exit, %_RNvNtCs5dfrY2TkJWl_14unsafe_libyaml7externs6malloc.exit
  %memory.i.pn = phi ptr [ %memory.i, %_RNvNtCs5dfrY2TkJWl_14unsafe_libyaml7externs6malloc.exit ], [ %_12.i5, %_RNvNtCs5dfrY2TkJWl_14unsafe_libyaml7externs7realloc.exit ]
  %_0.sroa.0.0 = getelementptr inbounds nuw i8, ptr %memory.i.pn, i64 8
  ret ptr %_0.sroa.0.0
}

; unsafe_libyaml::api::yaml_check_utf8
; Function Attrs: nofree norecurse nosync nounwind memory(argmem: read) uwtable
define internal fastcc noundef zeroext i1 @_RNvNtCs5dfrY2TkJWl_14unsafe_libyaml3api15yaml_check_utf8(ptr noundef readonly captures(address) %0, i64 noundef %length) unnamed_addr #2 {
start:
  %1 = getelementptr i8, ptr %0, i64 %length
  %_545.not = icmp ult ptr %0, %1
  br i1 %_545.not, label %bb2, label %bb54

bb2:                                              ; preds = %start, %bb51
  %start1.sroa.0.046 = phi ptr [ %18, %bb51 ], [ %0, %start ]
  %2 = load i8, ptr %start1.sroa.0.046, align 1, !noundef !4
  %3 = icmp sgt i8 %2, -1
  br i1 %3, label %bb28.thread, label %bb4

bb54:                                             ; preds = %bb28.thread, %bb51, %bb26, %bb28, %bb43, %bb47, %bb19, %bb39, %bb32, %bb32.1, %bb32.2, %start
  %_541 = phi i1 [ true, %start ], [ false, %bb32.2 ], [ false, %bb32.1 ], [ false, %bb32 ], [ false, %bb28.thread ], [ true, %bb51 ], [ false, %bb26 ], [ false, %bb28 ], [ false, %bb43 ], [ false, %bb47 ], [ false, %bb19 ], [ false, %bb39 ]
  ret i1 %_541

bb4:                                              ; preds = %bb2
  %_12 = and i8 %2, -32
  %4 = icmp eq i8 %_12, -64
  br i1 %4, label %bb17, label %bb6

bb6:                                              ; preds = %bb4
  %_14 = and i8 %2, -16
  %5 = icmp eq i8 %_14, -32
  br i1 %5, label %bb19.thread, label %bb18

bb26:                                             ; preds = %bb18
  %_25 = and i8 %2, -8
  %6 = icmp eq i8 %_25, -16
  %7 = and i8 %2, 7
  %spec.select = select i1 %6, i8 %7, i8 0
  br i1 %.not, label %bb28, label %bb54

bb17:                                             ; preds = %bb4
  %8 = and i8 %2, 31
  br label %bb28

bb18:                                             ; preds = %bb6
  %_16 = and i8 %2, -8
  %.not = icmp eq i8 %_16, -16
  %.27 = select i1 %.not, i32 4, i32 0
  %_23 = and i8 %2, -16
  %9 = icmp eq i8 %_23, -32
  br i1 %9, label %bb19, label %bb26

bb19.thread:                                      ; preds = %bb6
  %10 = and i8 %2, 15
  br label %bb28

bb19:                                             ; preds = %bb18
  %11 = and i8 %2, 15
  br i1 %.not, label %bb28, label %bb54

bb28:                                             ; preds = %bb19.thread, %bb17, %bb19, %bb26
  %.in = phi i8 [ %spec.select, %bb26 ], [ %8, %bb17 ], [ %11, %bb19 ], [ %10, %bb19.thread ]
  %_9.sroa.0.03336 = phi i32 [ %.27, %bb26 ], [ 2, %bb17 ], [ %.27, %bb19 ], [ 3, %bb19.thread ]
  %_30 = zext nneg i32 %_9.sroa.0.03336 to i64
  %12 = getelementptr i8, ptr %start1.sroa.0.046, i64 %_30
  %_27 = icmp ugt ptr %12, %1
  br i1 %_27, label %bb54, label %bb31.preheader

bb28.thread:                                      ; preds = %bb2
  %13 = getelementptr i8, ptr %start1.sroa.0.046, i64 1
  %_2773 = icmp ugt ptr %13, %1
  br i1 %_2773, label %bb54, label %bb51

bb31.preheader:                                   ; preds = %bb28
  %14 = zext nneg i8 %.in to i32
  %_3142 = icmp samesign ugt i32 %_9.sroa.0.03336, 1
  br i1 %_3142, label %bb32, label %bb37

bb37:                                             ; preds = %_RNvXs0_NtCs5dfrY2TkJWl_14unsafe_libyaml3opsmNtB5_8ForceAdd9force_add.exit, %_RNvXs0_NtCs5dfrY2TkJWl_14unsafe_libyaml3opsmNtB5_8ForceAdd9force_add.exit.1, %_RNvXs0_NtCs5dfrY2TkJWl_14unsafe_libyaml3opsmNtB5_8ForceAdd9force_add.exit.2, %bb31.preheader
  %value.sroa.0.0.lcssa = phi i32 [ %14, %bb31.preheader ], [ %_5.0.i, %_RNvXs0_NtCs5dfrY2TkJWl_14unsafe_libyaml3opsmNtB5_8ForceAdd9force_add.exit ], [ %_5.0.i.1, %_RNvXs0_NtCs5dfrY2TkJWl_14unsafe_libyaml3opsmNtB5_8ForceAdd9force_add.exit.1 ], [ %_5.0.i.2, %_RNvXs0_NtCs5dfrY2TkJWl_14unsafe_libyaml3opsmNtB5_8ForceAdd9force_add.exit.2 ]
  switch i32 %_9.sroa.0.03336, label %default.unreachable [
    i32 1, label %bb51
    i32 2, label %bb39
    i32 3, label %bb43
    i32 4, label %bb47
  ]

bb32:                                             ; preds = %bb31.preheader
  %15 = getelementptr i8, ptr %start1.sroa.0.046, i64 1
  %16 = load i8, ptr %15, align 1, !noundef !4
  %17 = icmp slt i8 %16, -64
  br i1 %17, label %_RNvXs0_NtCs5dfrY2TkJWl_14unsafe_libyaml3opsmNtB5_8ForceAdd9force_add.exit, label %bb54

bb51:                                             ; preds = %bb28.thread, %bb47, %bb43, %bb37, %bb39
  %18 = phi ptr [ %12, %bb47 ], [ %12, %bb43 ], [ %12, %bb37 ], [ %12, %bb39 ], [ %13, %bb28.thread ]
  %_5.not = icmp ult ptr %18, %1
  br i1 %_5.not, label %bb2, label %bb54

bb39:                                             ; preds = %bb37
  %_46 = icmp ugt i32 %value.sroa.0.0.lcssa, 127
  br i1 %_46, label %bb51, label %bb54

bb43:                                             ; preds = %bb37
  %_48 = icmp ugt i32 %value.sroa.0.0.lcssa, 2047
  br i1 %_48, label %bb51, label %bb54

bb47:                                             ; preds = %bb37
  %_50.old = icmp ugt i32 %value.sroa.0.0.lcssa, 65535
  br i1 %_50.old, label %bb51, label %bb54

default.unreachable:                              ; preds = %bb37
  unreachable

_RNvXs0_NtCs5dfrY2TkJWl_14unsafe_libyaml3opsmNtB5_8ForceAdd9force_add.exit: ; preds = %bb32
  %_42 = shl nuw nsw i32 %14, 6
  %_44 = and i8 %16, 63
  %_43 = zext nneg i8 %_44 to i32
  %_5.0.i = or disjoint i32 %_42, %_43
  %exitcond.not = icmp eq i32 %_9.sroa.0.03336, 2
  br i1 %exitcond.not, label %bb37, label %bb32.1

bb32.1:                                           ; preds = %_RNvXs0_NtCs5dfrY2TkJWl_14unsafe_libyaml3opsmNtB5_8ForceAdd9force_add.exit
  %19 = getelementptr i8, ptr %start1.sroa.0.046, i64 2
  %20 = load i8, ptr %19, align 1, !noundef !4
  %21 = icmp slt i8 %20, -64
  br i1 %21, label %_RNvXs0_NtCs5dfrY2TkJWl_14unsafe_libyaml3opsmNtB5_8ForceAdd9force_add.exit.1, label %bb54

_RNvXs0_NtCs5dfrY2TkJWl_14unsafe_libyaml3opsmNtB5_8ForceAdd9force_add.exit.1: ; preds = %bb32.1
  %_42.1 = shl nuw nsw i32 %_5.0.i, 6
  %_44.1 = and i8 %20, 63
  %_43.1 = zext nneg i8 %_44.1 to i32
  %_5.0.i.1 = or disjoint i32 %_42.1, %_43.1
  %exitcond.not.1 = icmp eq i32 %_9.sroa.0.03336, 3
  br i1 %exitcond.not.1, label %bb37, label %bb32.2

bb32.2:                                           ; preds = %_RNvXs0_NtCs5dfrY2TkJWl_14unsafe_libyaml3opsmNtB5_8ForceAdd9force_add.exit.1
  %22 = getelementptr i8, ptr %start1.sroa.0.046, i64 3
  %23 = load i8, ptr %22, align 1, !noundef !4
  %24 = icmp slt i8 %23, -64
  br i1 %24, label %_RNvXs0_NtCs5dfrY2TkJWl_14unsafe_libyaml3opsmNtB5_8ForceAdd9force_add.exit.2, label %bb54

_RNvXs0_NtCs5dfrY2TkJWl_14unsafe_libyaml3opsmNtB5_8ForceAdd9force_add.exit.2: ; preds = %bb32.2
  %_42.2 = shl nuw nsw i32 %_5.0.i.1, 6
  %_44.2 = and i8 %23, 63
  %_43.2 = zext nneg i8 %_44.2 to i32
  %_5.0.i.2 = or disjoint i32 %_42.2, %_43.2
  br label %bb37
}

; unsafe_libyaml::api::yaml_string_join
; Function Attrs: uwtable
define internal fastcc void @_RNvNtCs5dfrY2TkJWl_14unsafe_libyaml3api16yaml_string_join(ptr noundef nonnull captures(none) %a_start, ptr noundef nonnull captures(none) %a_pointer, ptr noundef nonnull captures(none) %a_end, ptr %b_start.0.val, ptr %b_pointer.0.val) unnamed_addr #1 {
start:
  %_7 = icmp eq ptr %b_start.0.val, %b_pointer.0.val
  br i1 %_7, label %bb7, label %bb3.preheader

bb3.preheader:                                    ; preds = %start
  %_33 = ptrtoint ptr %b_pointer.0.val to i64
  %_34 = ptrtoint ptr %b_start.0.val to i64
  %_32 = sub i64 %_33, %_34
  %_125 = load ptr, ptr %a_end, align 8, !noundef !4
  %_136 = load ptr, ptr %a_pointer, align 8, !noundef !4
  %_307 = ptrtoint ptr %_125 to i64
  %_318 = ptrtoint ptr %_136 to i64
  %_299 = sub i64 %_307, %_318
  %_10.not10 = icmp sgt i64 %_299, %_32
  br i1 %_10.not10, label %bb6, label %bb4.preheader

bb4.preheader:                                    ; preds = %bb3.preheader
  %_7.i.pre = load ptr, ptr %a_start, align 8
  br label %bb4

bb6:                                              ; preds = %_RNvNtCs5dfrY2TkJWl_14unsafe_libyaml3api18yaml_string_extend.exit, %bb3.preheader
  %_13.lcssa = phi ptr [ %_136, %bb3.preheader ], [ %_13, %_RNvNtCs5dfrY2TkJWl_14unsafe_libyaml3api18yaml_string_extend.exit ]
  tail call void @llvm.memcpy.p0.p0.i64(ptr align 1 %_13.lcssa, ptr align 1 %b_start.0.val, i64 %_32, i1 false)
  %_24 = load ptr, ptr %a_pointer, align 8, !noundef !4
  %0 = getelementptr i8, ptr %_24, i64 %_32
  store ptr %0, ptr %a_pointer, align 8
  br label %bb7

bb4:                                              ; preds = %bb4.preheader, %_RNvNtCs5dfrY2TkJWl_14unsafe_libyaml3api18yaml_string_extend.exit
  %_7.i = phi ptr [ %_5.i, %_RNvNtCs5dfrY2TkJWl_14unsafe_libyaml3api18yaml_string_extend.exit ], [ %_7.i.pre, %bb4.preheader ]
  %_3011 = phi i64 [ %_30, %_RNvNtCs5dfrY2TkJWl_14unsafe_libyaml3api18yaml_string_extend.exit ], [ %_307, %bb4.preheader ]
  %_34.i = ptrtoint ptr %_7.i to i64
  %_32.i = sub i64 %_3011, %_34.i
  %1 = add i64 %_32.i, 4611686018427387904
  %_6.1.i.i = icmp slt i64 %1, 0
  br i1 %_6.1.i.i, label %bb1.i.i, label %_RNvXs4_NtCs5dfrY2TkJWl_14unsafe_libyaml3opsxNtB5_8ForceMul9force_mul.exit.i, !prof !2

bb1.i.i:                                          ; preds = %bb4
; call unsafe_libyaml::ops::die::<i32>
  tail call fastcc void @_RINvNtCs5dfrY2TkJWl_14unsafe_libyaml3ops3dielEB4_()
  unreachable

_RNvXs4_NtCs5dfrY2TkJWl_14unsafe_libyaml3opsxNtB5_8ForceMul9force_mul.exit.i: ; preds = %bb4
  %_6.0.i.i = shl nsw i64 %_32.i, 1
; call unsafe_libyaml::api::yaml_realloc
  %_5.i = tail call fastcc noundef ptr @_RNvNtCs5dfrY2TkJWl_14unsafe_libyaml3api12yaml_realloc(ptr noundef %_7.i, i64 noundef %_6.0.i.i)
  %_16.i = load ptr, ptr %a_end, align 8, !noundef !4
  %_17.i = load ptr, ptr %a_start, align 8, !noundef !4
  %_36.i = ptrtoint ptr %_16.i to i64
  %_37.i = ptrtoint ptr %_17.i to i64
  %_35.i = sub i64 %_36.i, %_37.i
  %2 = getelementptr i8, ptr %_5.i, i64 %_35.i
  tail call void @llvm.memset.p0.i64(ptr align 1 %2, i8 0, i64 %_35.i, i1 false)
  %_24.i = load ptr, ptr %a_pointer, align 8, !noundef !4
  %_46.i = ptrtoint ptr %_24.i to i64
  %_45.i = sub i64 %_46.i, %_37.i
  %3 = getelementptr i8, ptr %_5.i, i64 %_45.i
  store ptr %3, ptr %a_pointer, align 8
  %_30.i = load ptr, ptr %a_end, align 8, !noundef !4
  %_31.i = load ptr, ptr %a_start, align 8, !noundef !4
  %_50.i = ptrtoint ptr %_30.i to i64
  %_51.i = ptrtoint ptr %_31.i to i64
  %_49.i = sub i64 %_50.i, %_51.i
  %4 = add i64 %_49.i, 4611686018427387904
  %_6.1.i4.i = icmp slt i64 %4, 0
  br i1 %_6.1.i4.i, label %bb1.i6.i, label %_RNvNtCs5dfrY2TkJWl_14unsafe_libyaml3api18yaml_string_extend.exit, !prof !2

bb1.i6.i:                                         ; preds = %_RNvXs4_NtCs5dfrY2TkJWl_14unsafe_libyaml3opsxNtB5_8ForceMul9force_mul.exit.i
; call unsafe_libyaml::ops::die::<i32>
  tail call fastcc void @_RINvNtCs5dfrY2TkJWl_14unsafe_libyaml3ops3dielEB4_()
  unreachable

_RNvNtCs5dfrY2TkJWl_14unsafe_libyaml3api18yaml_string_extend.exit: ; preds = %_RNvXs4_NtCs5dfrY2TkJWl_14unsafe_libyaml3opsxNtB5_8ForceMul9force_mul.exit.i
  %_6.0.i5.i = shl nsw i64 %_49.i, 1
  %5 = getelementptr i8, ptr %_5.i, i64 %_6.0.i5.i
  store ptr %5, ptr %a_end, align 8
  store ptr %_5.i, ptr %a_start, align 8
  %_12 = load ptr, ptr %a_end, align 8, !noundef !4
  %_13 = load ptr, ptr %a_pointer, align 8, !noundef !4
  %_30 = ptrtoint ptr %_12 to i64
  %_31 = ptrtoint ptr %_13 to i64
  %_29 = sub i64 %_30, %_31
  %_10.not = icmp sgt i64 %_29, %_32
  br i1 %_10.not, label %bb6, label %bb4

bb7:                                              ; preds = %start, %bb6
  ret void
}

; unsafe_libyaml::api::yaml_event_delete
; Function Attrs: uwtable
define void @_RNvNtCs5dfrY2TkJWl_14unsafe_libyaml3api17yaml_event_delete(ptr noundef captures(address_is_null) %event) unnamed_addr #1 {
start:
  %0 = icmp eq ptr %event, null
  br i1 %0, label %bb1, label %bb2

bb1:                                              ; preds = %start
; call unsafe_libyaml::externs::__assert_fail
  tail call fastcc void @_RNvNtCs5dfrY2TkJWl_14unsafe_libyaml7externs13___assert_fail(ptr noalias noundef nonnull readonly align 1 captures(address, read_provenance) @alloc_79eb5dcc0b055fff49be8085edfed028, i64 noundef 16, ptr noalias noundef nonnull readonly align 1 captures(address, read_provenance) @alloc_b08f38296d5e13f36617fe99ae622e73, i64 noundef 104, i32 noundef 1058) #22
  unreachable

bb2:                                              ; preds = %start
  %_3 = load i32, ptr %event, align 8, !range !5, !noundef !4
  switch i32 %_3, label %bb23 [
    i32 3, label %bb7
    i32 5, label %bb6
    i32 6, label %bb5
    i32 7, label %bb4
    i32 9, label %bb3
  ]

bb23.sink.split:                                  ; preds = %bb13, %_RNvNtCs5dfrY2TkJWl_14unsafe_libyaml3api9yaml_free.exit29, %_RNvNtCs5dfrY2TkJWl_14unsafe_libyaml3api9yaml_free.exit21, %_RNvNtCs5dfrY2TkJWl_14unsafe_libyaml3api9yaml_free.exit13, %bb6
  %_19.sink = phi ptr [ %_22, %bb6 ], [ %_31, %_RNvNtCs5dfrY2TkJWl_14unsafe_libyaml3api9yaml_free.exit13 ], [ %_37, %_RNvNtCs5dfrY2TkJWl_14unsafe_libyaml3api9yaml_free.exit21 ], [ %_43, %_RNvNtCs5dfrY2TkJWl_14unsafe_libyaml3api9yaml_free.exit29 ], [ %_19, %bb13 ]
  %memory.i.i35 = getelementptr inbounds i8, ptr %_19.sink, i64 -8
  %size.i.i36 = load i64, ptr %memory.i.i35, align 8, !noundef !4
; call __rustc::__rust_dealloc
  tail call void @_RNvCsKhRCbHf33p_7___rustc14___rust_dealloc(ptr noundef nonnull %memory.i.i35, i64 noundef %size.i.i36, i64 noundef 8) #23
  br label %bb23

bb23:                                             ; preds = %bb23.sink.split, %bb13, %_RNvNtCs5dfrY2TkJWl_14unsafe_libyaml3api9yaml_free.exit29, %_RNvNtCs5dfrY2TkJWl_14unsafe_libyaml3api9yaml_free.exit21, %_RNvNtCs5dfrY2TkJWl_14unsafe_libyaml3api9yaml_free.exit13, %bb6, %bb2
  tail call void @llvm.memset.p0.i64(ptr noundef nonnull align 1 dereferenceable(96) %event, i8 0, i64 96, i1 false)
  ret void

bb7:                                              ; preds = %bb2
  %1 = getelementptr inbounds nuw i8, ptr %event, i64 8
  %_6 = load ptr, ptr %1, align 8, !noundef !4
  %2 = icmp eq ptr %_6, null
  br i1 %2, label %_RNvNtCs5dfrY2TkJWl_14unsafe_libyaml3api9yaml_free.exit, label %bb2.i

bb2.i:                                            ; preds = %bb7
  %memory.i.i = getelementptr inbounds i8, ptr %_6, i64 -8
  %size.i.i = load i64, ptr %memory.i.i, align 8, !noundef !4
; call __rustc::__rust_dealloc
  tail call void @_RNvCsKhRCbHf33p_7___rustc14___rust_dealloc(ptr noundef nonnull %memory.i.i, i64 noundef %size.i.i, i64 noundef 8) #23
  br label %_RNvNtCs5dfrY2TkJWl_14unsafe_libyaml3api9yaml_free.exit

_RNvNtCs5dfrY2TkJWl_14unsafe_libyaml3api9yaml_free.exit: ; preds = %bb7, %bb2.i
  %3 = getelementptr inbounds nuw i8, ptr %event, i64 16
  %4 = load ptr, ptr %3, align 8, !noundef !4
  %5 = getelementptr inbounds nuw i8, ptr %event, i64 24
  %_946 = load ptr, ptr %5, align 8, !noundef !4
  %_7.not47 = icmp eq ptr %4, %_946
  br i1 %_7.not47, label %bb13, label %bb10

bb6:                                              ; preds = %bb2
  %6 = getelementptr inbounds nuw i8, ptr %event, i64 8
  %_22 = load ptr, ptr %6, align 8, !noundef !4
  %7 = icmp eq ptr %_22, null
  br i1 %7, label %bb23, label %bb23.sink.split

bb5:                                              ; preds = %bb2
  %8 = getelementptr inbounds nuw i8, ptr %event, i64 8
  %_25 = load ptr, ptr %8, align 8, !noundef !4
  %9 = icmp eq ptr %_25, null
  br i1 %9, label %_RNvNtCs5dfrY2TkJWl_14unsafe_libyaml3api9yaml_free.exit9, label %bb2.i6

bb2.i6:                                           ; preds = %bb5
  %memory.i.i7 = getelementptr inbounds i8, ptr %_25, i64 -8
  %size.i.i8 = load i64, ptr %memory.i.i7, align 8, !noundef !4
; call __rustc::__rust_dealloc
  tail call void @_RNvCsKhRCbHf33p_7___rustc14___rust_dealloc(ptr noundef nonnull %memory.i.i7, i64 noundef %size.i.i8, i64 noundef 8) #23
  br label %_RNvNtCs5dfrY2TkJWl_14unsafe_libyaml3api9yaml_free.exit9

_RNvNtCs5dfrY2TkJWl_14unsafe_libyaml3api9yaml_free.exit9: ; preds = %bb5, %bb2.i6
  %10 = getelementptr inbounds nuw i8, ptr %event, i64 16
  %_28 = load ptr, ptr %10, align 8, !noundef !4
  %11 = icmp eq ptr %_28, null
  br i1 %11, label %_RNvNtCs5dfrY2TkJWl_14unsafe_libyaml3api9yaml_free.exit13, label %bb2.i10

bb2.i10:                                          ; preds = %_RNvNtCs5dfrY2TkJWl_14unsafe_libyaml3api9yaml_free.exit9
  %memory.i.i11 = getelementptr inbounds i8, ptr %_28, i64 -8
  %size.i.i12 = load i64, ptr %memory.i.i11, align 8, !noundef !4
; call __rustc::__rust_dealloc
  tail call void @_RNvCsKhRCbHf33p_7___rustc14___rust_dealloc(ptr noundef nonnull %memory.i.i11, i64 noundef %size.i.i12, i64 noundef 8) #23
  br label %_RNvNtCs5dfrY2TkJWl_14unsafe_libyaml3api9yaml_free.exit13

_RNvNtCs5dfrY2TkJWl_14unsafe_libyaml3api9yaml_free.exit13: ; preds = %_RNvNtCs5dfrY2TkJWl_14unsafe_libyaml3api9yaml_free.exit9, %bb2.i10
  %12 = getelementptr inbounds nuw i8, ptr %event, i64 24
  %_31 = load ptr, ptr %12, align 8, !noundef !4
  %13 = icmp eq ptr %_31, null
  br i1 %13, label %bb23, label %bb23.sink.split

bb4:                                              ; preds = %bb2
  %14 = getelementptr inbounds nuw i8, ptr %event, i64 8
  %_34 = load ptr, ptr %14, align 8, !noundef !4
  %15 = icmp eq ptr %_34, null
  br i1 %15, label %_RNvNtCs5dfrY2TkJWl_14unsafe_libyaml3api9yaml_free.exit21, label %bb2.i18

bb2.i18:                                          ; preds = %bb4
  %memory.i.i19 = getelementptr inbounds i8, ptr %_34, i64 -8
  %size.i.i20 = load i64, ptr %memory.i.i19, align 8, !noundef !4
; call __rustc::__rust_dealloc
  tail call void @_RNvCsKhRCbHf33p_7___rustc14___rust_dealloc(ptr noundef nonnull %memory.i.i19, i64 noundef %size.i.i20, i64 noundef 8) #23
  br label %_RNvNtCs5dfrY2TkJWl_14unsafe_libyaml3api9yaml_free.exit21

_RNvNtCs5dfrY2TkJWl_14unsafe_libyaml3api9yaml_free.exit21: ; preds = %bb4, %bb2.i18
  %16 = getelementptr inbounds nuw i8, ptr %event, i64 16
  %_37 = load ptr, ptr %16, align 8, !noundef !4
  %17 = icmp eq ptr %_37, null
  br i1 %17, label %bb23, label %bb23.sink.split

bb3:                                              ; preds = %bb2
  %18 = getelementptr inbounds nuw i8, ptr %event, i64 8
  %_40 = load ptr, ptr %18, align 8, !noundef !4
  %19 = icmp eq ptr %_40, null
  br i1 %19, label %_RNvNtCs5dfrY2TkJWl_14unsafe_libyaml3api9yaml_free.exit29, label %bb2.i26

bb2.i26:                                          ; preds = %bb3
  %memory.i.i27 = getelementptr inbounds i8, ptr %_40, i64 -8
  %size.i.i28 = load i64, ptr %memory.i.i27, align 8, !noundef !4
; call __rustc::__rust_dealloc
  tail call void @_RNvCsKhRCbHf33p_7___rustc14___rust_dealloc(ptr noundef nonnull %memory.i.i27, i64 noundef %size.i.i28, i64 noundef 8) #23
  br label %_RNvNtCs5dfrY2TkJWl_14unsafe_libyaml3api9yaml_free.exit29

_RNvNtCs5dfrY2TkJWl_14unsafe_libyaml3api9yaml_free.exit29: ; preds = %bb3, %bb2.i26
  %20 = getelementptr inbounds nuw i8, ptr %event, i64 16
  %_43 = load ptr, ptr %20, align 8, !noundef !4
  %21 = icmp eq ptr %_43, null
  br i1 %21, label %bb23, label %bb23.sink.split

bb13.loopexit:                                    ; preds = %_RNvNtCs5dfrY2TkJWl_14unsafe_libyaml3api9yaml_free.exit45
  %_19.pre = load ptr, ptr %3, align 8
  br label %bb13

bb13:                                             ; preds = %bb13.loopexit, %_RNvNtCs5dfrY2TkJWl_14unsafe_libyaml3api9yaml_free.exit
  %_19 = phi ptr [ %_19.pre, %bb13.loopexit ], [ %4, %_RNvNtCs5dfrY2TkJWl_14unsafe_libyaml3api9yaml_free.exit ]
  %22 = icmp eq ptr %_19, null
  br i1 %22, label %bb23, label %bb23.sink.split

bb10:                                             ; preds = %_RNvNtCs5dfrY2TkJWl_14unsafe_libyaml3api9yaml_free.exit, %_RNvNtCs5dfrY2TkJWl_14unsafe_libyaml3api9yaml_free.exit45
  %tag_directive.sroa.0.048 = phi ptr [ %26, %_RNvNtCs5dfrY2TkJWl_14unsafe_libyaml3api9yaml_free.exit45 ], [ %4, %_RNvNtCs5dfrY2TkJWl_14unsafe_libyaml3api9yaml_free.exit ]
  %_12 = load ptr, ptr %tag_directive.sroa.0.048, align 8, !noundef !4
  %23 = icmp eq ptr %_12, null
  br i1 %23, label %_RNvNtCs5dfrY2TkJWl_14unsafe_libyaml3api9yaml_free.exit41, label %bb2.i38

bb2.i38:                                          ; preds = %bb10
  %memory.i.i39 = getelementptr inbounds i8, ptr %_12, i64 -8
  %size.i.i40 = load i64, ptr %memory.i.i39, align 8, !noundef !4
; call __rustc::__rust_dealloc
  tail call void @_RNvCsKhRCbHf33p_7___rustc14___rust_dealloc(ptr noundef nonnull %memory.i.i39, i64 noundef %size.i.i40, i64 noundef 8) #23
  br label %_RNvNtCs5dfrY2TkJWl_14unsafe_libyaml3api9yaml_free.exit41

_RNvNtCs5dfrY2TkJWl_14unsafe_libyaml3api9yaml_free.exit41: ; preds = %bb10, %bb2.i38
  %24 = getelementptr inbounds nuw i8, ptr %tag_directive.sroa.0.048, i64 8
  %_15 = load ptr, ptr %24, align 8, !noundef !4
  %25 = icmp eq ptr %_15, null
  br i1 %25, label %_RNvNtCs5dfrY2TkJWl_14unsafe_libyaml3api9yaml_free.exit45, label %bb2.i42

bb2.i42:                                          ; preds = %_RNvNtCs5dfrY2TkJWl_14unsafe_libyaml3api9yaml_free.exit41
  %memory.i.i43 = getelementptr inbounds i8, ptr %_15, i64 -8
  %size.i.i44 = load i64, ptr %memory.i.i43, align 8, !noundef !4
; call __rustc::__rust_dealloc
  tail call void @_RNvCsKhRCbHf33p_7___rustc14___rust_dealloc(ptr noundef nonnull %memory.i.i43, i64 noundef %size.i.i44, i64 noundef 8) #23
  br label %_RNvNtCs5dfrY2TkJWl_14unsafe_libyaml3api9yaml_free.exit45

_RNvNtCs5dfrY2TkJWl_14unsafe_libyaml3api9yaml_free.exit45: ; preds = %_RNvNtCs5dfrY2TkJWl_14unsafe_libyaml3api9yaml_free.exit41, %bb2.i42
  %26 = getelementptr i8, ptr %tag_directive.sroa.0.048, i64 16
  %_9 = load ptr, ptr %5, align 8, !noundef !4
  %_7.not = icmp eq ptr %26, %_9
  br i1 %_7.not, label %bb13.loopexit, label %bb10
}

; unsafe_libyaml::api::yaml_queue_extend
; Function Attrs: uwtable
define internal fastcc void @_RNvNtCs5dfrY2TkJWl_14unsafe_libyaml3api17yaml_queue_extend(ptr noundef captures(none) %start1, ptr noundef captures(none) %head, ptr noundef captures(none) %tail, ptr noundef captures(none) %end) unnamed_addr #1 {
start:
  %_6 = load ptr, ptr %start1, align 8, !noundef !4
  %_7 = load ptr, ptr %head, align 8, !noundef !4
  %_5 = icmp eq ptr %_6, %_7
  %_40.pre9 = load ptr, ptr %tail, align 8
  %_41.pre11 = load ptr, ptr %end, align 8
  %_8 = icmp eq ptr %_40.pre9, %_41.pre11
  %or.cond = select i1 %_5, i1 %_8, i1 false
  br i1 %or.cond, label %bb2, label %bb8

bb8:                                              ; preds = %start, %_RNvXs4_NtCs5dfrY2TkJWl_14unsafe_libyaml3opsxNtB5_8ForceMul9force_mul.exit8
  %_45 = phi ptr [ %_6, %start ], [ %new_start, %_RNvXs4_NtCs5dfrY2TkJWl_14unsafe_libyaml3opsxNtB5_8ForceMul9force_mul.exit8 ]
  %_41 = phi ptr [ %_41.pre11, %start ], [ %_41.pre, %_RNvXs4_NtCs5dfrY2TkJWl_14unsafe_libyaml3opsxNtB5_8ForceMul9force_mul.exit8 ]
  %_40 = phi ptr [ %_40.pre9, %start ], [ %_40.pre, %_RNvXs4_NtCs5dfrY2TkJWl_14unsafe_libyaml3opsxNtB5_8ForceMul9force_mul.exit8 ]
  %_39 = icmp eq ptr %_40, %_41
  br i1 %_39, label %bb9, label %bb14

bb2:                                              ; preds = %start
  %_61 = ptrtoint ptr %_40.pre9 to i64
  %_62 = ptrtoint ptr %_6 to i64
  %_60 = sub i64 %_61, %_62
  %0 = add i64 %_60, 4611686018427387904
  %_6.1.i = icmp slt i64 %0, 0
  br i1 %_6.1.i, label %bb1.i, label %_RNvXs4_NtCs5dfrY2TkJWl_14unsafe_libyaml3opsxNtB5_8ForceMul9force_mul.exit, !prof !2

bb1.i:                                            ; preds = %bb2
; call unsafe_libyaml::ops::die::<i32>
  tail call fastcc void @_RINvNtCs5dfrY2TkJWl_14unsafe_libyaml3ops3dielEB4_()
  unreachable

_RNvXs4_NtCs5dfrY2TkJWl_14unsafe_libyaml3opsxNtB5_8ForceMul9force_mul.exit: ; preds = %bb2
  %_6.0.i = shl nsw i64 %_60, 1
; call unsafe_libyaml::api::yaml_realloc
  %new_start = tail call fastcc noundef ptr @_RNvNtCs5dfrY2TkJWl_14unsafe_libyaml3api12yaml_realloc(ptr noundef %_6, i64 noundef %_6.0.i)
  %_23 = load ptr, ptr %head, align 8, !noundef !4
  %_25 = load ptr, ptr %start1, align 8, !noundef !4
  %_64 = ptrtoint ptr %_23 to i64
  %_65 = ptrtoint ptr %_25 to i64
  %_63 = sub i64 %_64, %_65
  %1 = getelementptr i8, ptr %new_start, i64 %_63
  store ptr %1, ptr %head, align 8
  %_29 = load ptr, ptr %tail, align 8, !noundef !4
  %_31 = load ptr, ptr %start1, align 8, !noundef !4
  %_69 = ptrtoint ptr %_29 to i64
  %_70 = ptrtoint ptr %_31 to i64
  %_68 = sub i64 %_69, %_70
  %2 = getelementptr i8, ptr %new_start, i64 %_68
  store ptr %2, ptr %tail, align 8
  %_36 = load ptr, ptr %end, align 8, !noundef !4
  %_38 = load ptr, ptr %start1, align 8, !noundef !4
  %_73 = ptrtoint ptr %_36 to i64
  %_74 = ptrtoint ptr %_38 to i64
  %_72 = sub i64 %_73, %_74
  %3 = add i64 %_72, 4611686018427387904
  %_6.1.i5 = icmp slt i64 %3, 0
  br i1 %_6.1.i5, label %bb1.i7, label %_RNvXs4_NtCs5dfrY2TkJWl_14unsafe_libyaml3opsxNtB5_8ForceMul9force_mul.exit8, !prof !2

bb1.i7:                                           ; preds = %_RNvXs4_NtCs5dfrY2TkJWl_14unsafe_libyaml3opsxNtB5_8ForceMul9force_mul.exit
; call unsafe_libyaml::ops::die::<i32>
  tail call fastcc void @_RINvNtCs5dfrY2TkJWl_14unsafe_libyaml3ops3dielEB4_()
  unreachable

_RNvXs4_NtCs5dfrY2TkJWl_14unsafe_libyaml3opsxNtB5_8ForceMul9force_mul.exit8: ; preds = %_RNvXs4_NtCs5dfrY2TkJWl_14unsafe_libyaml3opsxNtB5_8ForceMul9force_mul.exit
  %_6.0.i6 = shl nsw i64 %_72, 1
  %4 = getelementptr i8, ptr %new_start, i64 %_6.0.i6
  store ptr %4, ptr %end, align 8
  store ptr %new_start, ptr %start1, align 8
  %_40.pre = load ptr, ptr %tail, align 8
  %_41.pre = load ptr, ptr %end, align 8
  br label %bb8

bb9:                                              ; preds = %bb8
  %_43 = load ptr, ptr %head, align 8, !noundef !4
  %_42.not = icmp eq ptr %_43, %_41
  br i1 %_42.not, label %bb12, label %bb10

bb14:                                             ; preds = %bb8, %bb12
  ret void

bb10:                                             ; preds = %bb9
  %_77 = ptrtoint ptr %_41 to i64
  %_78 = ptrtoint ptr %_43 to i64
  %_76 = sub i64 %_77, %_78
  tail call void @llvm.memmove.p0.p0.i64(ptr align 1 %_45, ptr align 1 %_43, i64 %_76, i1 false)
  %_52.pre = load ptr, ptr %start1, align 8
  %_56.pre = load ptr, ptr %tail, align 8
  %_58.pre = load ptr, ptr %head, align 8
  br label %bb12

bb12:                                             ; preds = %bb9, %bb10
  %_58 = phi ptr [ %_41, %bb9 ], [ %_58.pre, %bb10 ]
  %_56 = phi ptr [ %_41, %bb9 ], [ %_56.pre, %bb10 ]
  %_52 = phi ptr [ %_45, %bb9 ], [ %_52.pre, %bb10 ]
  %_84 = ptrtoint ptr %_56 to i64
  %_85 = ptrtoint ptr %_58 to i64
  %_83 = sub i64 %_84, %_85
  %5 = getelementptr i8, ptr %_52, i64 %_83
  store ptr %5, ptr %tail, align 8
  %_59 = load ptr, ptr %start1, align 8, !noundef !4
  store ptr %_59, ptr %head, align 8
  br label %bb14
}

; unsafe_libyaml::api::yaml_stack_extend
; Function Attrs: uwtable
define internal fastcc void @_RNvNtCs5dfrY2TkJWl_14unsafe_libyaml3api17yaml_stack_extend(ptr noundef captures(none) %start1, ptr noundef captures(none) %top, ptr noundef captures(none) %end) unnamed_addr #1 {
start:
  %_5 = load ptr, ptr %start1, align 8, !noundef !4
  %_10 = load ptr, ptr %end, align 8, !noundef !4
  %_27 = ptrtoint ptr %_10 to i64
  %_28 = ptrtoint ptr %_5 to i64
  %_26 = sub i64 %_27, %_28
  %0 = add i64 %_26, 4611686018427387904
  %_6.1.i = icmp slt i64 %0, 0
  br i1 %_6.1.i, label %bb1.i, label %_RNvXs4_NtCs5dfrY2TkJWl_14unsafe_libyaml3opsxNtB5_8ForceMul9force_mul.exit, !prof !2

bb1.i:                                            ; preds = %start
; call unsafe_libyaml::ops::die::<i32>
  tail call fastcc void @_RINvNtCs5dfrY2TkJWl_14unsafe_libyaml3ops3dielEB4_()
  unreachable

_RNvXs4_NtCs5dfrY2TkJWl_14unsafe_libyaml3opsxNtB5_8ForceMul9force_mul.exit: ; preds = %start
  %_6.0.i = shl nsw i64 %_26, 1
; call unsafe_libyaml::api::yaml_realloc
  %new_start = tail call fastcc noundef ptr @_RNvNtCs5dfrY2TkJWl_14unsafe_libyaml3api12yaml_realloc(ptr noundef %_5, i64 noundef %_6.0.i)
  %_16 = load ptr, ptr %top, align 8, !noundef !4
  %_18 = load ptr, ptr %start1, align 8, !noundef !4
  %_30 = ptrtoint ptr %_16 to i64
  %_31 = ptrtoint ptr %_18 to i64
  %_29 = sub i64 %_30, %_31
  %1 = getelementptr i8, ptr %new_start, i64 %_29
  store ptr %1, ptr %top, align 8
  %_23 = load ptr, ptr %end, align 8, !noundef !4
  %_25 = load ptr, ptr %start1, align 8, !noundef !4
  %_35 = ptrtoint ptr %_23 to i64
  %_36 = ptrtoint ptr %_25 to i64
  %_34 = sub i64 %_35, %_36
  %2 = add i64 %_34, 4611686018427387904
  %_6.1.i3 = icmp slt i64 %2, 0
  br i1 %_6.1.i3, label %bb1.i5, label %_RNvXs4_NtCs5dfrY2TkJWl_14unsafe_libyaml3opsxNtB5_8ForceMul9force_mul.exit6, !prof !2

bb1.i5:                                           ; preds = %_RNvXs4_NtCs5dfrY2TkJWl_14unsafe_libyaml3opsxNtB5_8ForceMul9force_mul.exit
; call unsafe_libyaml::ops::die::<i32>
  tail call fastcc void @_RINvNtCs5dfrY2TkJWl_14unsafe_libyaml3ops3dielEB4_()
  unreachable

_RNvXs4_NtCs5dfrY2TkJWl_14unsafe_libyaml3opsxNtB5_8ForceMul9force_mul.exit6: ; preds = %_RNvXs4_NtCs5dfrY2TkJWl_14unsafe_libyaml3opsxNtB5_8ForceMul9force_mul.exit
  %_6.0.i4 = shl nsw i64 %_34, 1
  %3 = getelementptr i8, ptr %new_start, i64 %_6.0.i4
  store ptr %3, ptr %end, align 8
  store ptr %new_start, ptr %start1, align 8
  ret void
}

; unsafe_libyaml::api::yaml_token_delete
; Function Attrs: uwtable
define void @_RNvNtCs5dfrY2TkJWl_14unsafe_libyaml3api17yaml_token_delete(ptr noundef captures(address_is_null) %token) unnamed_addr #1 {
start:
  %0 = icmp eq ptr %token, null
  br i1 %0, label %bb1, label %bb2

bb1:                                              ; preds = %start
; call unsafe_libyaml::externs::__assert_fail
  tail call fastcc void @_RNvNtCs5dfrY2TkJWl_14unsafe_libyaml7externs13___assert_fail(ptr noalias noundef nonnull readonly align 1 captures(address, read_provenance) @alloc_d838dc98674096f531c85f543edd4641, i64 noundef 16, ptr noalias noundef nonnull readonly align 1 captures(address, read_provenance) @alloc_b08f38296d5e13f36617fe99ae622e73, i64 noundef 104, i32 noundef 469) #22
  unreachable

bb2:                                              ; preds = %start
  %_3 = load i32, ptr %token, align 8, !range !6, !noundef !4
  switch i32 %_3, label %bb15 [
    i32 4, label %bb7
    i32 18, label %bb6
    i32 19, label %bb5
    i32 20, label %bb4
    i32 21, label %bb3
  ]

bb15.sink.split:                                  ; preds = %bb3, %_RNvNtCs5dfrY2TkJWl_14unsafe_libyaml3api9yaml_free.exit16, %bb5, %bb6, %_RNvNtCs5dfrY2TkJWl_14unsafe_libyaml3api9yaml_free.exit
  %_24.sink = phi ptr [ %_9, %_RNvNtCs5dfrY2TkJWl_14unsafe_libyaml3api9yaml_free.exit ], [ %_12, %bb6 ], [ %_15, %bb5 ], [ %_21, %_RNvNtCs5dfrY2TkJWl_14unsafe_libyaml3api9yaml_free.exit16 ], [ %_24, %bb3 ]
  %memory.i.i22 = getelementptr inbounds i8, ptr %_24.sink, i64 -8
  %size.i.i23 = load i64, ptr %memory.i.i22, align 8, !noundef !4
; call __rustc::__rust_dealloc
  tail call void @_RNvCsKhRCbHf33p_7___rustc14___rust_dealloc(ptr noundef nonnull %memory.i.i22, i64 noundef %size.i.i23, i64 noundef 8) #23
  br label %bb15

bb15:                                             ; preds = %bb15.sink.split, %bb3, %_RNvNtCs5dfrY2TkJWl_14unsafe_libyaml3api9yaml_free.exit16, %bb5, %bb6, %_RNvNtCs5dfrY2TkJWl_14unsafe_libyaml3api9yaml_free.exit, %bb2
  tail call void @llvm.memset.p0.i64(ptr noundef nonnull align 1 dereferenceable(80) %token, i8 0, i64 80, i1 false)
  ret void

bb7:                                              ; preds = %bb2
  %1 = getelementptr inbounds nuw i8, ptr %token, i64 8
  %_6 = load ptr, ptr %1, align 8, !noundef !4
  %2 = icmp eq ptr %_6, null
  br i1 %2, label %_RNvNtCs5dfrY2TkJWl_14unsafe_libyaml3api9yaml_free.exit, label %bb2.i

bb2.i:                                            ; preds = %bb7
  %memory.i.i = getelementptr inbounds i8, ptr %_6, i64 -8
  %size.i.i = load i64, ptr %memory.i.i, align 8, !noundef !4
; call __rustc::__rust_dealloc
  tail call void @_RNvCsKhRCbHf33p_7___rustc14___rust_dealloc(ptr noundef nonnull %memory.i.i, i64 noundef %size.i.i, i64 noundef 8) #23
  br label %_RNvNtCs5dfrY2TkJWl_14unsafe_libyaml3api9yaml_free.exit

_RNvNtCs5dfrY2TkJWl_14unsafe_libyaml3api9yaml_free.exit: ; preds = %bb7, %bb2.i
  %3 = getelementptr inbounds nuw i8, ptr %token, i64 16
  %_9 = load ptr, ptr %3, align 8, !noundef !4
  %4 = icmp eq ptr %_9, null
  br i1 %4, label %bb15, label %bb15.sink.split

bb6:                                              ; preds = %bb2
  %5 = getelementptr inbounds nuw i8, ptr %token, i64 8
  %_12 = load ptr, ptr %5, align 8, !noundef !4
  %6 = icmp eq ptr %_12, null
  br i1 %6, label %bb15, label %bb15.sink.split

bb5:                                              ; preds = %bb2
  %7 = getelementptr inbounds nuw i8, ptr %token, i64 8
  %_15 = load ptr, ptr %7, align 8, !noundef !4
  %8 = icmp eq ptr %_15, null
  br i1 %8, label %bb15, label %bb15.sink.split

bb4:                                              ; preds = %bb2
  %9 = getelementptr inbounds nuw i8, ptr %token, i64 8
  %_18 = load ptr, ptr %9, align 8, !noundef !4
  %10 = icmp eq ptr %_18, null
  br i1 %10, label %_RNvNtCs5dfrY2TkJWl_14unsafe_libyaml3api9yaml_free.exit16, label %bb2.i13

bb2.i13:                                          ; preds = %bb4
  %memory.i.i14 = getelementptr inbounds i8, ptr %_18, i64 -8
  %size.i.i15 = load i64, ptr %memory.i.i14, align 8, !noundef !4
; call __rustc::__rust_dealloc
  tail call void @_RNvCsKhRCbHf33p_7___rustc14___rust_dealloc(ptr noundef nonnull %memory.i.i14, i64 noundef %size.i.i15, i64 noundef 8) #23
  br label %_RNvNtCs5dfrY2TkJWl_14unsafe_libyaml3api9yaml_free.exit16

_RNvNtCs5dfrY2TkJWl_14unsafe_libyaml3api9yaml_free.exit16: ; preds = %bb4, %bb2.i13
  %11 = getelementptr inbounds nuw i8, ptr %token, i64 16
  %_21 = load ptr, ptr %11, align 8, !noundef !4
  %12 = icmp eq ptr %_21, null
  br i1 %12, label %bb15, label %bb15.sink.split

bb3:                                              ; preds = %bb2
  %13 = getelementptr inbounds nuw i8, ptr %token, i64 8
  %_24 = load ptr, ptr %13, align 8, !noundef !4
  %14 = icmp eq ptr %_24, null
  br i1 %14, label %bb15, label %bb15.sink.split
}

; unsafe_libyaml::api::yaml_parser_delete
; Function Attrs: uwtable
define void @_RNvNtCs5dfrY2TkJWl_14unsafe_libyaml3api18yaml_parser_delete(ptr noundef captures(address_is_null) %parser) unnamed_addr #1 {
start:
  %0 = icmp eq ptr %parser, null
  br i1 %0, label %bb1, label %bb2

bb1:                                              ; preds = %start
; call unsafe_libyaml::externs::__assert_fail
  tail call fastcc void @_RNvNtCs5dfrY2TkJWl_14unsafe_libyaml7externs13___assert_fail(ptr noalias noundef nonnull readonly align 1 captures(address, read_provenance) @alloc_3674ecaf25ea6757494f22e340a7ddb2, i64 noundef 17, ptr noalias noundef nonnull readonly align 1 captures(address, read_provenance) @alloc_b08f38296d5e13f36617fe99ae622e73, i64 noundef 104, i32 noundef 187) #22
  unreachable

bb2:                                              ; preds = %start
  %1 = getelementptr inbounds nuw i8, ptr %parser, i64 176
  %_5 = load ptr, ptr %1, align 8, !noundef !4
  %2 = icmp eq ptr %_5, null
  br i1 %2, label %_RNvNtCs5dfrY2TkJWl_14unsafe_libyaml3api9yaml_free.exit, label %bb2.i

bb2.i:                                            ; preds = %bb2
  %memory.i.i = getelementptr inbounds i8, ptr %_5, i64 -8
  %size.i.i = load i64, ptr %memory.i.i, align 8, !noundef !4
; call __rustc::__rust_dealloc
  tail call void @_RNvCsKhRCbHf33p_7___rustc14___rust_dealloc(ptr noundef nonnull %memory.i.i, i64 noundef %size.i.i, i64 noundef 8) #23
  br label %_RNvNtCs5dfrY2TkJWl_14unsafe_libyaml3api9yaml_free.exit

_RNvNtCs5dfrY2TkJWl_14unsafe_libyaml3api9yaml_free.exit: ; preds = %bb2, %bb2.i
  %3 = getelementptr inbounds nuw i8, ptr %parser, i64 136
  tail call void @llvm.memset.p0.i64(ptr noundef nonnull align 8 dereferenceable(24) %1, i8 0, i64 24, i1 false)
  %_13 = load ptr, ptr %3, align 8, !noundef !4
  %4 = icmp eq ptr %_13, null
  br i1 %4, label %_RNvNtCs5dfrY2TkJWl_14unsafe_libyaml3api9yaml_free.exit9, label %bb2.i6

bb2.i6:                                           ; preds = %_RNvNtCs5dfrY2TkJWl_14unsafe_libyaml3api9yaml_free.exit
  %memory.i.i7 = getelementptr inbounds i8, ptr %_13, i64 -8
  %size.i.i8 = load i64, ptr %memory.i.i7, align 8, !noundef !4
; call __rustc::__rust_dealloc
  tail call void @_RNvCsKhRCbHf33p_7___rustc14___rust_dealloc(ptr noundef nonnull %memory.i.i7, i64 noundef %size.i.i8, i64 noundef 8) #23
  br label %_RNvNtCs5dfrY2TkJWl_14unsafe_libyaml3api9yaml_free.exit9

_RNvNtCs5dfrY2TkJWl_14unsafe_libyaml3api9yaml_free.exit9: ; preds = %_RNvNtCs5dfrY2TkJWl_14unsafe_libyaml3api9yaml_free.exit, %bb2.i6
  %5 = getelementptr inbounds nuw i8, ptr %parser, i64 272
  %6 = getelementptr inbounds nuw i8, ptr %parser, i64 280
  tail call void @llvm.memset.p0.i64(ptr noundef nonnull align 8 dereferenceable(24) %3, i8 0, i64 24, i1 false)
  %_2045 = load ptr, ptr %5, align 8, !noundef !4
  %_2146 = load ptr, ptr %6, align 8, !noundef !4
  %_1947 = icmp eq ptr %_2045, %_2146
  br i1 %_1947, label %bb6, label %bb7

bb7:                                              ; preds = %_RNvNtCs5dfrY2TkJWl_14unsafe_libyaml3api9yaml_free.exit9, %bb7
  %_2048 = phi ptr [ %_20, %bb7 ], [ %_2045, %_RNvNtCs5dfrY2TkJWl_14unsafe_libyaml3api9yaml_free.exit9 ]
  %7 = getelementptr i8, ptr %_2048, i64 80
  store ptr %7, ptr %5, align 8
; call unsafe_libyaml::api::yaml_token_delete
  tail call void @_RNvNtCs5dfrY2TkJWl_14unsafe_libyaml3api17yaml_token_delete(ptr noundef %_2048)
  %_20 = load ptr, ptr %5, align 8, !noundef !4
  %_21 = load ptr, ptr %6, align 8, !noundef !4
  %_19 = icmp eq ptr %_20, %_21
  br i1 %_19, label %bb6, label %bb7

bb6:                                              ; preds = %bb7, %_RNvNtCs5dfrY2TkJWl_14unsafe_libyaml3api9yaml_free.exit9
  %8 = getelementptr inbounds nuw i8, ptr %parser, i64 256
  %_28 = load ptr, ptr %8, align 8, !noundef !4
  %9 = icmp eq ptr %_28, null
  br i1 %9, label %_RNvNtCs5dfrY2TkJWl_14unsafe_libyaml3api9yaml_free.exit13, label %bb2.i10

bb2.i10:                                          ; preds = %bb6
  %memory.i.i11 = getelementptr inbounds i8, ptr %_28, i64 -8
  %size.i.i12 = load i64, ptr %memory.i.i11, align 8, !noundef !4
; call __rustc::__rust_dealloc
  tail call void @_RNvCsKhRCbHf33p_7___rustc14___rust_dealloc(ptr noundef nonnull %memory.i.i11, i64 noundef %size.i.i12, i64 noundef 8) #23
  br label %_RNvNtCs5dfrY2TkJWl_14unsafe_libyaml3api9yaml_free.exit13

_RNvNtCs5dfrY2TkJWl_14unsafe_libyaml3api9yaml_free.exit13: ; preds = %bb6, %bb2.i10
  %10 = getelementptr inbounds nuw i8, ptr %parser, i64 304
  tail call void @llvm.memset.p0.i64(ptr noundef nonnull align 8 dereferenceable(32) %8, i8 0, i64 32, i1 false)
  %_31 = load ptr, ptr %10, align 8, !noundef !4
  %11 = icmp eq ptr %_31, null
  br i1 %11, label %_RNvNtCs5dfrY2TkJWl_14unsafe_libyaml3api9yaml_free.exit17, label %bb2.i14

bb2.i14:                                          ; preds = %_RNvNtCs5dfrY2TkJWl_14unsafe_libyaml3api9yaml_free.exit13
  %memory.i.i15 = getelementptr inbounds i8, ptr %_31, i64 -8
  %size.i.i16 = load i64, ptr %memory.i.i15, align 8, !noundef !4
; call __rustc::__rust_dealloc
  tail call void @_RNvCsKhRCbHf33p_7___rustc14___rust_dealloc(ptr noundef nonnull %memory.i.i15, i64 noundef %size.i.i16, i64 noundef 8) #23
  br label %_RNvNtCs5dfrY2TkJWl_14unsafe_libyaml3api9yaml_free.exit17

_RNvNtCs5dfrY2TkJWl_14unsafe_libyaml3api9yaml_free.exit17: ; preds = %_RNvNtCs5dfrY2TkJWl_14unsafe_libyaml3api9yaml_free.exit13, %bb2.i14
  %12 = getelementptr inbounds nuw i8, ptr %parser, i64 336
  tail call void @llvm.memset.p0.i64(ptr noundef nonnull align 8 dereferenceable(24) %10, i8 0, i64 24, i1 false)
  %_34 = load ptr, ptr %12, align 8, !noundef !4
  %13 = icmp eq ptr %_34, null
  br i1 %13, label %_RNvNtCs5dfrY2TkJWl_14unsafe_libyaml3api9yaml_free.exit21, label %bb2.i18

bb2.i18:                                          ; preds = %_RNvNtCs5dfrY2TkJWl_14unsafe_libyaml3api9yaml_free.exit17
  %memory.i.i19 = getelementptr inbounds i8, ptr %_34, i64 -8
  %size.i.i20 = load i64, ptr %memory.i.i19, align 8, !noundef !4
; call __rustc::__rust_dealloc
  tail call void @_RNvCsKhRCbHf33p_7___rustc14___rust_dealloc(ptr noundef nonnull %memory.i.i19, i64 noundef %size.i.i20, i64 noundef 8) #23
  br label %_RNvNtCs5dfrY2TkJWl_14unsafe_libyaml3api9yaml_free.exit21

_RNvNtCs5dfrY2TkJWl_14unsafe_libyaml3api9yaml_free.exit21: ; preds = %_RNvNtCs5dfrY2TkJWl_14unsafe_libyaml3api9yaml_free.exit17, %bb2.i18
  %14 = getelementptr inbounds nuw i8, ptr %parser, i64 368
  tail call void @llvm.memset.p0.i64(ptr noundef nonnull align 8 dereferenceable(24) %12, i8 0, i64 24, i1 false)
  %_37 = load ptr, ptr %14, align 8, !noundef !4
  %15 = icmp eq ptr %_37, null
  br i1 %15, label %_RNvNtCs5dfrY2TkJWl_14unsafe_libyaml3api9yaml_free.exit25, label %bb2.i22

bb2.i22:                                          ; preds = %_RNvNtCs5dfrY2TkJWl_14unsafe_libyaml3api9yaml_free.exit21
  %memory.i.i23 = getelementptr inbounds i8, ptr %_37, i64 -8
  %size.i.i24 = load i64, ptr %memory.i.i23, align 8, !noundef !4
; call __rustc::__rust_dealloc
  tail call void @_RNvCsKhRCbHf33p_7___rustc14___rust_dealloc(ptr noundef nonnull %memory.i.i23, i64 noundef %size.i.i24, i64 noundef 8) #23
  br label %_RNvNtCs5dfrY2TkJWl_14unsafe_libyaml3api9yaml_free.exit25

_RNvNtCs5dfrY2TkJWl_14unsafe_libyaml3api9yaml_free.exit25: ; preds = %_RNvNtCs5dfrY2TkJWl_14unsafe_libyaml3api9yaml_free.exit21, %bb2.i22
  %16 = getelementptr inbounds nuw i8, ptr %parser, i64 400
  tail call void @llvm.memset.p0.i64(ptr noundef nonnull align 8 dereferenceable(24) %14, i8 0, i64 24, i1 false)
  %_40 = load ptr, ptr %16, align 8, !noundef !4
  %17 = icmp eq ptr %_40, null
  br i1 %17, label %_RNvNtCs5dfrY2TkJWl_14unsafe_libyaml3api9yaml_free.exit29, label %bb2.i26

bb2.i26:                                          ; preds = %_RNvNtCs5dfrY2TkJWl_14unsafe_libyaml3api9yaml_free.exit25
  %memory.i.i27 = getelementptr inbounds i8, ptr %_40, i64 -8
  %size.i.i28 = load i64, ptr %memory.i.i27, align 8, !noundef !4
; call __rustc::__rust_dealloc
  tail call void @_RNvCsKhRCbHf33p_7___rustc14___rust_dealloc(ptr noundef nonnull %memory.i.i27, i64 noundef %size.i.i28, i64 noundef 8) #23
  br label %_RNvNtCs5dfrY2TkJWl_14unsafe_libyaml3api9yaml_free.exit29

_RNvNtCs5dfrY2TkJWl_14unsafe_libyaml3api9yaml_free.exit29: ; preds = %_RNvNtCs5dfrY2TkJWl_14unsafe_libyaml3api9yaml_free.exit25, %bb2.i26
  %18 = getelementptr inbounds nuw i8, ptr %parser, i64 424
  %19 = getelementptr inbounds nuw i8, ptr %parser, i64 440
  tail call void @llvm.memset.p0.i64(ptr noundef nonnull align 8 dereferenceable(24) %16, i8 0, i64 24, i1 false)
  %_4249 = load ptr, ptr %18, align 8, !noundef !4
  %_4350 = load ptr, ptr %19, align 8, !noundef !4
  %_4151 = icmp eq ptr %_4249, %_4350
  br i1 %_4151, label %bb15, label %bb16

bb16:                                             ; preds = %_RNvNtCs5dfrY2TkJWl_14unsafe_libyaml3api9yaml_free.exit29, %_RNvNtCs5dfrY2TkJWl_14unsafe_libyaml3api9yaml_free.exit37
  %_4352 = phi ptr [ %_43, %_RNvNtCs5dfrY2TkJWl_14unsafe_libyaml3api9yaml_free.exit37 ], [ %_4350, %_RNvNtCs5dfrY2TkJWl_14unsafe_libyaml3api9yaml_free.exit29 ]
  %_45 = getelementptr inbounds i8, ptr %_4352, i64 -16
  store ptr %_45, ptr %19, align 8
  %tag_directive = load ptr, ptr %_45, align 8, !noundef !4
  %20 = getelementptr inbounds i8, ptr %_4352, i64 -8
  %tag_directive5 = load ptr, ptr %20, align 8, !noundef !4
  %21 = icmp eq ptr %tag_directive, null
  br i1 %21, label %_RNvNtCs5dfrY2TkJWl_14unsafe_libyaml3api9yaml_free.exit33, label %bb2.i30

bb2.i30:                                          ; preds = %bb16
  %memory.i.i31 = getelementptr inbounds i8, ptr %tag_directive, i64 -8
  %size.i.i32 = load i64, ptr %memory.i.i31, align 8, !noundef !4
; call __rustc::__rust_dealloc
  tail call void @_RNvCsKhRCbHf33p_7___rustc14___rust_dealloc(ptr noundef nonnull %memory.i.i31, i64 noundef %size.i.i32, i64 noundef 8) #23
  br label %_RNvNtCs5dfrY2TkJWl_14unsafe_libyaml3api9yaml_free.exit33

_RNvNtCs5dfrY2TkJWl_14unsafe_libyaml3api9yaml_free.exit33: ; preds = %bb16, %bb2.i30
  %22 = icmp eq ptr %tag_directive5, null
  br i1 %22, label %_RNvNtCs5dfrY2TkJWl_14unsafe_libyaml3api9yaml_free.exit37, label %bb2.i34

bb2.i34:                                          ; preds = %_RNvNtCs5dfrY2TkJWl_14unsafe_libyaml3api9yaml_free.exit33
  %memory.i.i35 = getelementptr inbounds i8, ptr %tag_directive5, i64 -8
  %size.i.i36 = load i64, ptr %memory.i.i35, align 8, !noundef !4
; call __rustc::__rust_dealloc
  tail call void @_RNvCsKhRCbHf33p_7___rustc14___rust_dealloc(ptr noundef nonnull %memory.i.i35, i64 noundef %size.i.i36, i64 noundef 8) #23
  br label %_RNvNtCs5dfrY2TkJWl_14unsafe_libyaml3api9yaml_free.exit37

_RNvNtCs5dfrY2TkJWl_14unsafe_libyaml3api9yaml_free.exit37: ; preds = %_RNvNtCs5dfrY2TkJWl_14unsafe_libyaml3api9yaml_free.exit33, %bb2.i34
  %_42 = load ptr, ptr %18, align 8, !noundef !4
  %_43 = load ptr, ptr %19, align 8, !noundef !4
  %_41 = icmp eq ptr %_42, %_43
  br i1 %_41, label %bb15, label %bb16

bb15:                                             ; preds = %_RNvNtCs5dfrY2TkJWl_14unsafe_libyaml3api9yaml_free.exit37, %_RNvNtCs5dfrY2TkJWl_14unsafe_libyaml3api9yaml_free.exit29
  %_42.lcssa = phi ptr [ %_4249, %_RNvNtCs5dfrY2TkJWl_14unsafe_libyaml3api9yaml_free.exit29 ], [ %_42, %_RNvNtCs5dfrY2TkJWl_14unsafe_libyaml3api9yaml_free.exit37 ]
  %23 = icmp eq ptr %_42.lcssa, null
  br i1 %23, label %_RNvNtCs5dfrY2TkJWl_14unsafe_libyaml3api9yaml_free.exit41, label %bb2.i38

bb2.i38:                                          ; preds = %bb15
  %memory.i.i39 = getelementptr inbounds i8, ptr %_42.lcssa, i64 -8
  %size.i.i40 = load i64, ptr %memory.i.i39, align 8, !noundef !4
; call __rustc::__rust_dealloc
  tail call void @_RNvCsKhRCbHf33p_7___rustc14___rust_dealloc(ptr noundef nonnull %memory.i.i39, i64 noundef %size.i.i40, i64 noundef 8) #23
  br label %_RNvNtCs5dfrY2TkJWl_14unsafe_libyaml3api9yaml_free.exit41

_RNvNtCs5dfrY2TkJWl_14unsafe_libyaml3api9yaml_free.exit41: ; preds = %bb15, %bb2.i38
  tail call void @llvm.memset.p0.i64(ptr noundef nonnull align 1 dereferenceable(480) %parser, i8 0, i64 480, i1 false)
  ret void
}

; unsafe_libyaml::api::yaml_string_extend
; Function Attrs: uwtable
define internal fastcc void @_RNvNtCs5dfrY2TkJWl_14unsafe_libyaml3api18yaml_string_extend(ptr noundef nonnull captures(none) %start1, ptr noundef nonnull captures(none) %pointer, ptr noundef nonnull captures(none) %end) unnamed_addr #1 {
start:
  %_7 = load ptr, ptr %start1, align 8, !noundef !4
  %_11 = load ptr, ptr %end, align 8, !noundef !4
  %_33 = ptrtoint ptr %_11 to i64
  %_34 = ptrtoint ptr %_7 to i64
  %_32 = sub i64 %_33, %_34
  %0 = add i64 %_32, 4611686018427387904
  %_6.1.i = icmp slt i64 %0, 0
  br i1 %_6.1.i, label %bb1.i, label %_RNvXs4_NtCs5dfrY2TkJWl_14unsafe_libyaml3opsxNtB5_8ForceMul9force_mul.exit, !prof !2

bb1.i:                                            ; preds = %start
; call unsafe_libyaml::ops::die::<i32>
  tail call fastcc void @_RINvNtCs5dfrY2TkJWl_14unsafe_libyaml3ops3dielEB4_()
  unreachable

_RNvXs4_NtCs5dfrY2TkJWl_14unsafe_libyaml3opsxNtB5_8ForceMul9force_mul.exit: ; preds = %start
  %_6.0.i = shl nsw i64 %_32, 1
; call unsafe_libyaml::api::yaml_realloc
  %_5 = tail call fastcc noundef ptr @_RNvNtCs5dfrY2TkJWl_14unsafe_libyaml3api12yaml_realloc(ptr noundef %_7, i64 noundef %_6.0.i)
  %_16 = load ptr, ptr %end, align 8, !noundef !4
  %_17 = load ptr, ptr %start1, align 8, !noundef !4
  %_36 = ptrtoint ptr %_16 to i64
  %_37 = ptrtoint ptr %_17 to i64
  %_35 = sub i64 %_36, %_37
  %1 = getelementptr i8, ptr %_5, i64 %_35
  tail call void @llvm.memset.p0.i64(ptr align 1 %1, i8 0, i64 %_35, i1 false)
  %_24 = load ptr, ptr %pointer, align 8, !noundef !4
  %_46 = ptrtoint ptr %_24 to i64
  %_45 = sub i64 %_46, %_37
  %2 = getelementptr i8, ptr %_5, i64 %_45
  store ptr %2, ptr %pointer, align 8
  %_30 = load ptr, ptr %end, align 8, !noundef !4
  %_31 = load ptr, ptr %start1, align 8, !noundef !4
  %_50 = ptrtoint ptr %_30 to i64
  %_51 = ptrtoint ptr %_31 to i64
  %_49 = sub i64 %_50, %_51
  %3 = add i64 %_49, 4611686018427387904
  %_6.1.i4 = icmp slt i64 %3, 0
  br i1 %_6.1.i4, label %bb1.i6, label %_RNvXs4_NtCs5dfrY2TkJWl_14unsafe_libyaml3opsxNtB5_8ForceMul9force_mul.exit7, !prof !2

bb1.i6:                                           ; preds = %_RNvXs4_NtCs5dfrY2TkJWl_14unsafe_libyaml3opsxNtB5_8ForceMul9force_mul.exit
; call unsafe_libyaml::ops::die::<i32>
  tail call fastcc void @_RINvNtCs5dfrY2TkJWl_14unsafe_libyaml3ops3dielEB4_()
  unreachable

_RNvXs4_NtCs5dfrY2TkJWl_14unsafe_libyaml3opsxNtB5_8ForceMul9force_mul.exit7: ; preds = %_RNvXs4_NtCs5dfrY2TkJWl_14unsafe_libyaml3opsxNtB5_8ForceMul9force_mul.exit
  %_6.0.i5 = shl nsw i64 %_49, 1
  %4 = getelementptr i8, ptr %_5, i64 %_6.0.i5
  store ptr %4, ptr %end, align 8
  store ptr %_5, ptr %start1, align 8
  ret void
}

; unsafe_libyaml::api::yaml_emitter_delete
; Function Attrs: uwtable
define void @_RNvNtCs5dfrY2TkJWl_14unsafe_libyaml3api19yaml_emitter_delete(ptr noundef captures(address_is_null) %emitter) unnamed_addr #1 {
start:
  %0 = icmp eq ptr %emitter, null
  br i1 %0, label %bb1, label %bb2

bb1:                                              ; preds = %start
; call unsafe_libyaml::externs::__assert_fail
  tail call fastcc void @_RNvNtCs5dfrY2TkJWl_14unsafe_libyaml7externs13___assert_fail(ptr noalias noundef nonnull readonly align 1 captures(address, read_provenance) @alloc_7865fdc37ad19b9b919293c34549431b, i64 noundef 18, ptr noalias noundef nonnull readonly align 1 captures(address, read_provenance) @alloc_b08f38296d5e13f36617fe99ae622e73, i64 noundef 104, i32 noundef 317) #22
  unreachable

bb2:                                              ; preds = %start
  %1 = getelementptr inbounds nuw i8, ptr %emitter, i64 56
  %_5 = load ptr, ptr %1, align 8, !noundef !4
  %2 = icmp eq ptr %_5, null
  br i1 %2, label %_RNvNtCs5dfrY2TkJWl_14unsafe_libyaml3api9yaml_free.exit, label %bb2.i

bb2.i:                                            ; preds = %bb2
  %memory.i.i = getelementptr inbounds i8, ptr %_5, i64 -8
  %size.i.i = load i64, ptr %memory.i.i, align 8, !noundef !4
; call __rustc::__rust_dealloc
  tail call void @_RNvCsKhRCbHf33p_7___rustc14___rust_dealloc(ptr noundef nonnull %memory.i.i, i64 noundef %size.i.i, i64 noundef 8) #23
  br label %_RNvNtCs5dfrY2TkJWl_14unsafe_libyaml3api9yaml_free.exit

_RNvNtCs5dfrY2TkJWl_14unsafe_libyaml3api9yaml_free.exit: ; preds = %bb2, %bb2.i
  %3 = getelementptr inbounds nuw i8, ptr %emitter, i64 88
  tail call void @llvm.memset.p0.i64(ptr noundef nonnull align 8 dereferenceable(24) %1, i8 0, i64 24, i1 false)
  %_13 = load ptr, ptr %3, align 8, !noundef !4
  %4 = icmp eq ptr %_13, null
  br i1 %4, label %_RNvNtCs5dfrY2TkJWl_14unsafe_libyaml3api9yaml_free.exit9, label %bb2.i6

bb2.i6:                                           ; preds = %_RNvNtCs5dfrY2TkJWl_14unsafe_libyaml3api9yaml_free.exit
  %memory.i.i7 = getelementptr inbounds i8, ptr %_13, i64 -8
  %size.i.i8 = load i64, ptr %memory.i.i7, align 8, !noundef !4
; call __rustc::__rust_dealloc
  tail call void @_RNvCsKhRCbHf33p_7___rustc14___rust_dealloc(ptr noundef nonnull %memory.i.i7, i64 noundef %size.i.i8, i64 noundef 8) #23
  br label %_RNvNtCs5dfrY2TkJWl_14unsafe_libyaml3api9yaml_free.exit9

_RNvNtCs5dfrY2TkJWl_14unsafe_libyaml3api9yaml_free.exit9: ; preds = %_RNvNtCs5dfrY2TkJWl_14unsafe_libyaml3api9yaml_free.exit, %bb2.i6
  %5 = getelementptr inbounds nuw i8, ptr %emitter, i64 144
  tail call void @llvm.memset.p0.i64(ptr noundef nonnull align 8 dereferenceable(24) %3, i8 0, i64 24, i1 false)
  %_21 = load ptr, ptr %5, align 8, !noundef !4
  %6 = icmp eq ptr %_21, null
  br i1 %6, label %_RNvNtCs5dfrY2TkJWl_14unsafe_libyaml3api9yaml_free.exit13, label %bb2.i10

bb2.i10:                                          ; preds = %_RNvNtCs5dfrY2TkJWl_14unsafe_libyaml3api9yaml_free.exit9
  %memory.i.i11 = getelementptr inbounds i8, ptr %_21, i64 -8
  %size.i.i12 = load i64, ptr %memory.i.i11, align 8, !noundef !4
; call __rustc::__rust_dealloc
  tail call void @_RNvCsKhRCbHf33p_7___rustc14___rust_dealloc(ptr noundef nonnull %memory.i.i11, i64 noundef %size.i.i12, i64 noundef 8) #23
  br label %_RNvNtCs5dfrY2TkJWl_14unsafe_libyaml3api9yaml_free.exit13

_RNvNtCs5dfrY2TkJWl_14unsafe_libyaml3api9yaml_free.exit13: ; preds = %_RNvNtCs5dfrY2TkJWl_14unsafe_libyaml3api9yaml_free.exit9, %bb2.i10
  %7 = getelementptr inbounds nuw i8, ptr %emitter, i64 192
  %8 = getelementptr inbounds nuw i8, ptr %emitter, i64 200
  tail call void @llvm.memset.p0.i64(ptr noundef nonnull align 8 dereferenceable(24) %5, i8 0, i64 24, i1 false)
  %_2341 = load ptr, ptr %7, align 8, !noundef !4
  %_2442 = load ptr, ptr %8, align 8, !noundef !4
  %_2243 = icmp eq ptr %_2341, %_2442
  br i1 %_2243, label %bb7, label %bb8

bb8:                                              ; preds = %_RNvNtCs5dfrY2TkJWl_14unsafe_libyaml3api9yaml_free.exit13, %bb8
  %_2344 = phi ptr [ %_23, %bb8 ], [ %_2341, %_RNvNtCs5dfrY2TkJWl_14unsafe_libyaml3api9yaml_free.exit13 ]
  %9 = getelementptr i8, ptr %_2344, i64 96
  store ptr %9, ptr %7, align 8
; call unsafe_libyaml::api::yaml_event_delete
  tail call void @_RNvNtCs5dfrY2TkJWl_14unsafe_libyaml3api17yaml_event_delete(ptr noundef %_2344)
  %_23 = load ptr, ptr %7, align 8, !noundef !4
  %_24 = load ptr, ptr %8, align 8, !noundef !4
  %_22 = icmp eq ptr %_23, %_24
  br i1 %_22, label %bb7, label %bb8

bb7:                                              ; preds = %bb8, %_RNvNtCs5dfrY2TkJWl_14unsafe_libyaml3api9yaml_free.exit13
  %10 = getelementptr inbounds nuw i8, ptr %emitter, i64 176
  %_31 = load ptr, ptr %10, align 8, !noundef !4
  %11 = icmp eq ptr %_31, null
  br i1 %11, label %_RNvNtCs5dfrY2TkJWl_14unsafe_libyaml3api9yaml_free.exit17, label %bb2.i14

bb2.i14:                                          ; preds = %bb7
  %memory.i.i15 = getelementptr inbounds i8, ptr %_31, i64 -8
  %size.i.i16 = load i64, ptr %memory.i.i15, align 8, !noundef !4
; call __rustc::__rust_dealloc
  tail call void @_RNvCsKhRCbHf33p_7___rustc14___rust_dealloc(ptr noundef nonnull %memory.i.i15, i64 noundef %size.i.i16, i64 noundef 8) #23
  br label %_RNvNtCs5dfrY2TkJWl_14unsafe_libyaml3api9yaml_free.exit17

_RNvNtCs5dfrY2TkJWl_14unsafe_libyaml3api9yaml_free.exit17: ; preds = %bb7, %bb2.i14
  %12 = getelementptr inbounds nuw i8, ptr %emitter, i64 208
  tail call void @llvm.memset.p0.i64(ptr noundef nonnull align 8 dereferenceable(32) %10, i8 0, i64 32, i1 false)
  %_34 = load ptr, ptr %12, align 8, !noundef !4
  %13 = icmp eq ptr %_34, null
  br i1 %13, label %_RNvNtCs5dfrY2TkJWl_14unsafe_libyaml3api9yaml_free.exit21, label %bb2.i18

bb2.i18:                                          ; preds = %_RNvNtCs5dfrY2TkJWl_14unsafe_libyaml3api9yaml_free.exit17
  %memory.i.i19 = getelementptr inbounds i8, ptr %_34, i64 -8
  %size.i.i20 = load i64, ptr %memory.i.i19, align 8, !noundef !4
; call __rustc::__rust_dealloc
  tail call void @_RNvCsKhRCbHf33p_7___rustc14___rust_dealloc(ptr noundef nonnull %memory.i.i19, i64 noundef %size.i.i20, i64 noundef 8) #23
  br label %_RNvNtCs5dfrY2TkJWl_14unsafe_libyaml3api9yaml_free.exit21

_RNvNtCs5dfrY2TkJWl_14unsafe_libyaml3api9yaml_free.exit21: ; preds = %_RNvNtCs5dfrY2TkJWl_14unsafe_libyaml3api9yaml_free.exit17, %bb2.i18
  %14 = getelementptr inbounds nuw i8, ptr %emitter, i64 232
  %15 = getelementptr inbounds nuw i8, ptr %emitter, i64 248
  tail call void @llvm.memset.p0.i64(ptr noundef nonnull align 8 dereferenceable(24) %12, i8 0, i64 24, i1 false)
  %_3645 = load ptr, ptr %14, align 8, !noundef !4
  %_3746 = load ptr, ptr %15, align 8, !noundef !4
  %_3547 = icmp eq ptr %_3645, %_3746
  br i1 %_3547, label %bb13, label %bb14

bb14:                                             ; preds = %_RNvNtCs5dfrY2TkJWl_14unsafe_libyaml3api9yaml_free.exit21, %_RNvNtCs5dfrY2TkJWl_14unsafe_libyaml3api9yaml_free.exit29
  %_3748 = phi ptr [ %_37, %_RNvNtCs5dfrY2TkJWl_14unsafe_libyaml3api9yaml_free.exit29 ], [ %_3746, %_RNvNtCs5dfrY2TkJWl_14unsafe_libyaml3api9yaml_free.exit21 ]
  %_39 = getelementptr inbounds i8, ptr %_3748, i64 -16
  store ptr %_39, ptr %15, align 8
  %tag_directive = load ptr, ptr %_39, align 8, !noundef !4
  %16 = getelementptr inbounds i8, ptr %_3748, i64 -8
  %tag_directive5 = load ptr, ptr %16, align 8, !noundef !4
  %17 = icmp eq ptr %tag_directive, null
  br i1 %17, label %_RNvNtCs5dfrY2TkJWl_14unsafe_libyaml3api9yaml_free.exit25, label %bb2.i22

bb2.i22:                                          ; preds = %bb14
  %memory.i.i23 = getelementptr inbounds i8, ptr %tag_directive, i64 -8
  %size.i.i24 = load i64, ptr %memory.i.i23, align 8, !noundef !4
; call __rustc::__rust_dealloc
  tail call void @_RNvCsKhRCbHf33p_7___rustc14___rust_dealloc(ptr noundef nonnull %memory.i.i23, i64 noundef %size.i.i24, i64 noundef 8) #23
  br label %_RNvNtCs5dfrY2TkJWl_14unsafe_libyaml3api9yaml_free.exit25

_RNvNtCs5dfrY2TkJWl_14unsafe_libyaml3api9yaml_free.exit25: ; preds = %bb14, %bb2.i22
  %18 = icmp eq ptr %tag_directive5, null
  br i1 %18, label %_RNvNtCs5dfrY2TkJWl_14unsafe_libyaml3api9yaml_free.exit29, label %bb2.i26

bb2.i26:                                          ; preds = %_RNvNtCs5dfrY2TkJWl_14unsafe_libyaml3api9yaml_free.exit25
  %memory.i.i27 = getelementptr inbounds i8, ptr %tag_directive5, i64 -8
  %size.i.i28 = load i64, ptr %memory.i.i27, align 8, !noundef !4
; call __rustc::__rust_dealloc
  tail call void @_RNvCsKhRCbHf33p_7___rustc14___rust_dealloc(ptr noundef nonnull %memory.i.i27, i64 noundef %size.i.i28, i64 noundef 8) #23
  br label %_RNvNtCs5dfrY2TkJWl_14unsafe_libyaml3api9yaml_free.exit29

_RNvNtCs5dfrY2TkJWl_14unsafe_libyaml3api9yaml_free.exit29: ; preds = %_RNvNtCs5dfrY2TkJWl_14unsafe_libyaml3api9yaml_free.exit25, %bb2.i26
  %_36 = load ptr, ptr %14, align 8, !noundef !4
  %_37 = load ptr, ptr %15, align 8, !noundef !4
  %_35 = icmp eq ptr %_36, %_37
  br i1 %_35, label %bb13, label %bb14

bb13:                                             ; preds = %_RNvNtCs5dfrY2TkJWl_14unsafe_libyaml3api9yaml_free.exit29, %_RNvNtCs5dfrY2TkJWl_14unsafe_libyaml3api9yaml_free.exit21
  %_36.lcssa = phi ptr [ %_3645, %_RNvNtCs5dfrY2TkJWl_14unsafe_libyaml3api9yaml_free.exit21 ], [ %_36, %_RNvNtCs5dfrY2TkJWl_14unsafe_libyaml3api9yaml_free.exit29 ]
  %19 = icmp eq ptr %_36.lcssa, null
  br i1 %19, label %_RNvNtCs5dfrY2TkJWl_14unsafe_libyaml3api9yaml_free.exit33, label %bb2.i30

bb2.i30:                                          ; preds = %bb13
  %memory.i.i31 = getelementptr inbounds i8, ptr %_36.lcssa, i64 -8
  %size.i.i32 = load i64, ptr %memory.i.i31, align 8, !noundef !4
; call __rustc::__rust_dealloc
  tail call void @_RNvCsKhRCbHf33p_7___rustc14___rust_dealloc(ptr noundef nonnull %memory.i.i31, i64 noundef %size.i.i32, i64 noundef 8) #23
  br label %_RNvNtCs5dfrY2TkJWl_14unsafe_libyaml3api9yaml_free.exit33

_RNvNtCs5dfrY2TkJWl_14unsafe_libyaml3api9yaml_free.exit33: ; preds = %bb13, %bb2.i30
  %20 = getelementptr inbounds nuw i8, ptr %emitter, i64 384
  tail call void @llvm.memset.p0.i64(ptr noundef nonnull align 8 dereferenceable(24) %14, i8 0, i64 24, i1 false)
  %_50 = load ptr, ptr %20, align 8, !noundef !4
  %21 = icmp eq ptr %_50, null
  br i1 %21, label %_RNvNtCs5dfrY2TkJWl_14unsafe_libyaml3api9yaml_free.exit37, label %bb2.i34

bb2.i34:                                          ; preds = %_RNvNtCs5dfrY2TkJWl_14unsafe_libyaml3api9yaml_free.exit33
  %memory.i.i35 = getelementptr inbounds i8, ptr %_50, i64 -8
  %size.i.i36 = load i64, ptr %memory.i.i35, align 8, !noundef !4
; call __rustc::__rust_dealloc
  tail call void @_RNvCsKhRCbHf33p_7___rustc14___rust_dealloc(ptr noundef nonnull %memory.i.i35, i64 noundef %size.i.i36, i64 noundef 8) #23
  br label %_RNvNtCs5dfrY2TkJWl_14unsafe_libyaml3api9yaml_free.exit37

_RNvNtCs5dfrY2TkJWl_14unsafe_libyaml3api9yaml_free.exit37: ; preds = %_RNvNtCs5dfrY2TkJWl_14unsafe_libyaml3api9yaml_free.exit33, %bb2.i34
  tail call void @llvm.memset.p0.i64(ptr noundef nonnull align 1 dereferenceable(408) %emitter, i8 0, i64 408, i1 false)
  ret void
}

; unsafe_libyaml::api::yaml_document_delete
; Function Attrs: uwtable
define void @_RNvNtCs5dfrY2TkJWl_14unsafe_libyaml3api20yaml_document_delete(ptr noundef captures(address_is_null) %document) unnamed_addr #1 {
start:
  %0 = icmp eq ptr %document, null
  br i1 %0, label %bb1, label %bb3.preheader

bb3.preheader:                                    ; preds = %start
  %1 = getelementptr inbounds nuw i8, ptr %document, i64 16
  %_446 = load ptr, ptr %document, align 8, !noundef !4
  %_547 = load ptr, ptr %1, align 8, !noundef !4
  %_348 = icmp eq ptr %_446, %_547
  br i1 %_348, label %bb4, label %bb5

bb1:                                              ; preds = %start
; call unsafe_libyaml::externs::__assert_fail
  tail call fastcc void @_RNvNtCs5dfrY2TkJWl_14unsafe_libyaml7externs13___assert_fail(ptr noalias noundef nonnull readonly align 1 captures(address, read_provenance) @alloc_e45e71155ffb8fb480705a3ebbda27cf, i64 noundef 19, ptr noalias noundef nonnull readonly align 1 captures(address, read_provenance) @alloc_b08f38296d5e13f36617fe99ae622e73, i64 noundef 104, i32 noundef 1231) #22
  unreachable

bb5:                                              ; preds = %bb3.preheader, %bb14
  %_549 = phi ptr [ %_5, %bb14 ], [ %_547, %bb3.preheader ]
  %_7 = getelementptr inbounds i8, ptr %_549, i64 -96
  store ptr %_7, ptr %1, align 8
  %node1 = load i32, ptr %_7, align 8, !range !7, !noundef !4
  %2 = getelementptr inbounds i8, ptr %_549, i64 -88
  %node2 = load ptr, ptr %2, align 8, !noundef !4
  %3 = getelementptr inbounds i8, ptr %_549, i64 -80
  %node.sroa.0.0.copyload = load ptr, ptr %3, align 8
  %4 = icmp eq ptr %node2, null
  br i1 %4, label %_RNvNtCs5dfrY2TkJWl_14unsafe_libyaml3api9yaml_free.exit, label %bb2.i

bb2.i:                                            ; preds = %bb5
  %memory.i.i = getelementptr inbounds i8, ptr %node2, i64 -8
  %size.i.i = load i64, ptr %memory.i.i, align 8, !noundef !4
; call __rustc::__rust_dealloc
  tail call void @_RNvCsKhRCbHf33p_7___rustc14___rust_dealloc(ptr noundef nonnull %memory.i.i, i64 noundef %size.i.i, i64 noundef 8) #23
  br label %_RNvNtCs5dfrY2TkJWl_14unsafe_libyaml3api9yaml_free.exit

_RNvNtCs5dfrY2TkJWl_14unsafe_libyaml3api9yaml_free.exit: ; preds = %bb5, %bb2.i
  switch i32 %node1, label %default.unreachable56 [
    i32 1, label %bb10
    i32 2, label %bb9
    i32 3, label %bb8
    i32 0, label %bb7
  ]

bb4:                                              ; preds = %bb14, %bb3.preheader
  %_4.lcssa = phi ptr [ %_446, %bb3.preheader ], [ %_4, %bb14 ]
  %5 = icmp eq ptr %_4.lcssa, null
  br i1 %5, label %_RNvNtCs5dfrY2TkJWl_14unsafe_libyaml3api9yaml_free.exit13, label %bb2.i10

bb2.i10:                                          ; preds = %bb4
  %memory.i.i11 = getelementptr inbounds i8, ptr %_4.lcssa, i64 -8
  %size.i.i12 = load i64, ptr %memory.i.i11, align 8, !noundef !4
; call __rustc::__rust_dealloc
  tail call void @_RNvCsKhRCbHf33p_7___rustc14___rust_dealloc(ptr noundef nonnull %memory.i.i11, i64 noundef %size.i.i12, i64 noundef 8) #23
  br label %_RNvNtCs5dfrY2TkJWl_14unsafe_libyaml3api9yaml_free.exit13

_RNvNtCs5dfrY2TkJWl_14unsafe_libyaml3api9yaml_free.exit13: ; preds = %bb4, %bb2.i10
  %6 = getelementptr inbounds nuw i8, ptr %document, i64 24
  tail call void @llvm.memset.p0.i64(ptr noundef nonnull align 8 dereferenceable(24) %document, i8 0, i64 24, i1 false)
  %_27 = load ptr, ptr %6, align 8, !noundef !4
  %7 = icmp eq ptr %_27, null
  br i1 %7, label %_RNvNtCs5dfrY2TkJWl_14unsafe_libyaml3api9yaml_free.exit17, label %bb2.i14

bb2.i14:                                          ; preds = %_RNvNtCs5dfrY2TkJWl_14unsafe_libyaml3api9yaml_free.exit13
  %memory.i.i15 = getelementptr inbounds i8, ptr %_27, i64 -8
  %size.i.i16 = load i64, ptr %memory.i.i15, align 8, !noundef !4
; call __rustc::__rust_dealloc
  tail call void @_RNvCsKhRCbHf33p_7___rustc14___rust_dealloc(ptr noundef nonnull %memory.i.i15, i64 noundef %size.i.i16, i64 noundef 8) #23
  br label %_RNvNtCs5dfrY2TkJWl_14unsafe_libyaml3api9yaml_free.exit17

_RNvNtCs5dfrY2TkJWl_14unsafe_libyaml3api9yaml_free.exit17: ; preds = %_RNvNtCs5dfrY2TkJWl_14unsafe_libyaml3api9yaml_free.exit13, %bb2.i14
  %8 = getelementptr inbounds nuw i8, ptr %document, i64 32
  %9 = load ptr, ptr %8, align 8, !noundef !4
  %10 = getelementptr inbounds nuw i8, ptr %document, i64 40
  %_3051 = load ptr, ptr %10, align 8, !noundef !4
  %_28.not52 = icmp eq ptr %9, %_3051
  br i1 %_28.not52, label %bb21, label %bb18

default.unreachable56:                            ; preds = %_RNvNtCs5dfrY2TkJWl_14unsafe_libyaml3api9yaml_free.exit
  unreachable

bb10:                                             ; preds = %_RNvNtCs5dfrY2TkJWl_14unsafe_libyaml3api9yaml_free.exit
  %11 = icmp eq ptr %node.sroa.0.0.copyload, null
  br i1 %11, label %bb14, label %bb14.sink.split

bb9:                                              ; preds = %_RNvNtCs5dfrY2TkJWl_14unsafe_libyaml3api9yaml_free.exit
  %12 = icmp eq ptr %node.sroa.0.0.copyload, null
  br i1 %12, label %bb14, label %bb14.sink.split

bb8:                                              ; preds = %_RNvNtCs5dfrY2TkJWl_14unsafe_libyaml3api9yaml_free.exit
  %13 = icmp eq ptr %node.sroa.0.0.copyload, null
  br i1 %13, label %bb14, label %bb14.sink.split

bb7:                                              ; preds = %_RNvNtCs5dfrY2TkJWl_14unsafe_libyaml3api9yaml_free.exit
; call unsafe_libyaml::externs::__assert_fail
  tail call fastcc void @_RNvNtCs5dfrY2TkJWl_14unsafe_libyaml7externs13___assert_fail(ptr noalias noundef nonnull readonly align 1 captures(address, read_provenance) @alloc_6f4357e3a3c9006d5d6d935934a9de54, i64 noundef 5, ptr noalias noundef nonnull readonly align 1 captures(address, read_provenance) @alloc_b08f38296d5e13f36617fe99ae622e73, i64 noundef 104, i32 noundef 1246) #22
  unreachable

bb14.sink.split:                                  ; preds = %bb8, %bb9, %bb10
  %memory.i.i27 = getelementptr inbounds i8, ptr %node.sroa.0.0.copyload, i64 -8
  %size.i.i28 = load i64, ptr %memory.i.i27, align 8, !noundef !4
; call __rustc::__rust_dealloc
  tail call void @_RNvCsKhRCbHf33p_7___rustc14___rust_dealloc(ptr noundef nonnull %memory.i.i27, i64 noundef %size.i.i28, i64 noundef 8) #23
  br label %bb14

bb14:                                             ; preds = %bb14.sink.split, %bb8, %bb9, %bb10
  %_4 = load ptr, ptr %document, align 8, !noundef !4
  %_5 = load ptr, ptr %1, align 8, !noundef !4
  %_3 = icmp eq ptr %_4, %_5
  br i1 %_3, label %bb4, label %bb5

bb21.loopexit:                                    ; preds = %_RNvNtCs5dfrY2TkJWl_14unsafe_libyaml3api9yaml_free.exit41
  %_40.pre = load ptr, ptr %8, align 8
  br label %bb21

bb21:                                             ; preds = %bb21.loopexit, %_RNvNtCs5dfrY2TkJWl_14unsafe_libyaml3api9yaml_free.exit17
  %_40 = phi ptr [ %_40.pre, %bb21.loopexit ], [ %9, %_RNvNtCs5dfrY2TkJWl_14unsafe_libyaml3api9yaml_free.exit17 ]
  %14 = icmp eq ptr %_40, null
  br i1 %14, label %_RNvNtCs5dfrY2TkJWl_14unsafe_libyaml3api9yaml_free.exit33, label %bb2.i30

bb2.i30:                                          ; preds = %bb21
  %memory.i.i31 = getelementptr inbounds i8, ptr %_40, i64 -8
  %size.i.i32 = load i64, ptr %memory.i.i31, align 8, !noundef !4
; call __rustc::__rust_dealloc
  tail call void @_RNvCsKhRCbHf33p_7___rustc14___rust_dealloc(ptr noundef nonnull %memory.i.i31, i64 noundef %size.i.i32, i64 noundef 8) #23
  br label %_RNvNtCs5dfrY2TkJWl_14unsafe_libyaml3api9yaml_free.exit33

_RNvNtCs5dfrY2TkJWl_14unsafe_libyaml3api9yaml_free.exit33: ; preds = %bb21, %bb2.i30
  tail call void @llvm.memset.p0.i64(ptr noundef nonnull align 1 dereferenceable(104) %document, i8 0, i64 104, i1 false)
  ret void

bb18:                                             ; preds = %_RNvNtCs5dfrY2TkJWl_14unsafe_libyaml3api9yaml_free.exit17, %_RNvNtCs5dfrY2TkJWl_14unsafe_libyaml3api9yaml_free.exit41
  %tag_directive.sroa.0.053 = phi ptr [ %18, %_RNvNtCs5dfrY2TkJWl_14unsafe_libyaml3api9yaml_free.exit41 ], [ %9, %_RNvNtCs5dfrY2TkJWl_14unsafe_libyaml3api9yaml_free.exit17 ]
  %_33 = load ptr, ptr %tag_directive.sroa.0.053, align 8, !noundef !4
  %15 = icmp eq ptr %_33, null
  br i1 %15, label %_RNvNtCs5dfrY2TkJWl_14unsafe_libyaml3api9yaml_free.exit37, label %bb2.i34

bb2.i34:                                          ; preds = %bb18
  %memory.i.i35 = getelementptr inbounds i8, ptr %_33, i64 -8
  %size.i.i36 = load i64, ptr %memory.i.i35, align 8, !noundef !4
; call __rustc::__rust_dealloc
  tail call void @_RNvCsKhRCbHf33p_7___rustc14___rust_dealloc(ptr noundef nonnull %memory.i.i35, i64 noundef %size.i.i36, i64 noundef 8) #23
  br label %_RNvNtCs5dfrY2TkJWl_14unsafe_libyaml3api9yaml_free.exit37

_RNvNtCs5dfrY2TkJWl_14unsafe_libyaml3api9yaml_free.exit37: ; preds = %bb18, %bb2.i34
  %16 = getelementptr inbounds nuw i8, ptr %tag_directive.sroa.0.053, i64 8
  %_36 = load ptr, ptr %16, align 8, !noundef !4
  %17 = icmp eq ptr %_36, null
  br i1 %17, label %_RNvNtCs5dfrY2TkJWl_14unsafe_libyaml3api9yaml_free.exit41, label %bb2.i38

bb2.i38:                                          ; preds = %_RNvNtCs5dfrY2TkJWl_14unsafe_libyaml3api9yaml_free.exit37
  %memory.i.i39 = getelementptr inbounds i8, ptr %_36, i64 -8
  %size.i.i40 = load i64, ptr %memory.i.i39, align 8, !noundef !4
; call __rustc::__rust_dealloc
  tail call void @_RNvCsKhRCbHf33p_7___rustc14___rust_dealloc(ptr noundef nonnull %memory.i.i39, i64 noundef %size.i.i40, i64 noundef 8) #23
  br label %_RNvNtCs5dfrY2TkJWl_14unsafe_libyaml3api9yaml_free.exit41

_RNvNtCs5dfrY2TkJWl_14unsafe_libyaml3api9yaml_free.exit41: ; preds = %_RNvNtCs5dfrY2TkJWl_14unsafe_libyaml3api9yaml_free.exit37, %bb2.i38
  %18 = getelementptr i8, ptr %tag_directive.sroa.0.053, i64 16
  %_30 = load ptr, ptr %10, align 8, !noundef !4
  %_28.not = icmp eq ptr %18, %_30
  br i1 %_28.not, label %bb21.loopexit, label %bb18
}

; unsafe_libyaml::api::yaml_parser_set_input
; Function Attrs: uwtable
define void @_RNvNtCs5dfrY2TkJWl_14unsafe_libyaml3api21yaml_parser_set_input(ptr noundef captures(address_is_null) %parser, ptr noundef nonnull %handler, ptr noundef %data) unnamed_addr #1 {
start:
  %0 = icmp eq ptr %parser, null
  br i1 %0, label %bb1, label %bb2

bb1:                                              ; preds = %start
; call unsafe_libyaml::externs::__assert_fail
  tail call fastcc void @_RNvNtCs5dfrY2TkJWl_14unsafe_libyaml7externs13___assert_fail(ptr noalias noundef nonnull readonly align 1 captures(address, read_provenance) @alloc_3674ecaf25ea6757494f22e340a7ddb2, i64 noundef 17, ptr noalias noundef nonnull readonly align 1 captures(address, read_provenance) @alloc_b08f38296d5e13f36617fe99ae622e73, i64 noundef 104, i32 noundef 280) #22
  unreachable

bb2:                                              ; preds = %start
  %1 = getelementptr inbounds nuw i8, ptr %parser, i64 88
  %2 = load ptr, ptr %1, align 8, !noundef !4
  %.not = icmp eq ptr %2, null
  br i1 %.not, label %bb3, label %bb4

bb4:                                              ; preds = %bb2
; call unsafe_libyaml::externs::__assert_fail
  tail call fastcc void @_RNvNtCs5dfrY2TkJWl_14unsafe_libyaml7externs13___assert_fail(ptr noalias noundef nonnull readonly align 1 captures(address, read_provenance) @alloc_2a3003cbfc3a74a56b7c5f8d8e77ec54, i64 noundef 34, ptr noalias noundef nonnull readonly align 1 captures(address, read_provenance) @alloc_b08f38296d5e13f36617fe99ae622e73, i64 noundef 104, i32 noundef 281) #22
  unreachable

bb3:                                              ; preds = %bb2
  store ptr %handler, ptr %1, align 8
  %3 = getelementptr inbounds nuw i8, ptr %parser, i64 96
  store ptr %data, ptr %3, align 8
  ret void
}

; unsafe_libyaml::api::yaml_document_get_node
; Function Attrs: uwtable
define noundef ptr @_RNvNtCs5dfrY2TkJWl_14unsafe_libyaml3api22yaml_document_get_node(ptr noundef readonly captures(address_is_null) %document, i32 noundef %index) unnamed_addr #1 {
start:
  %0 = icmp eq ptr %document, null
  br i1 %0, label %bb1, label %bb2

bb1:                                              ; preds = %start
; call unsafe_libyaml::externs::__assert_fail
  tail call fastcc void @_RNvNtCs5dfrY2TkJWl_14unsafe_libyaml7externs13___assert_fail(ptr noalias noundef nonnull readonly align 1 captures(address, read_provenance) @alloc_e45e71155ffb8fb480705a3ebbda27cf, i64 noundef 19, ptr noalias noundef nonnull readonly align 1 captures(address, read_provenance) @alloc_b08f38296d5e13f36617fe99ae622e73, i64 noundef 104, i32 noundef 1276) #22
  unreachable

bb2:                                              ; preds = %start
  %_4 = icmp sgt i32 %index, 0
  br i1 %_4, label %bb3, label %bb7

bb3:                                              ; preds = %bb2
  %_7 = load ptr, ptr %document, align 8, !noundef !4
  %_8 = zext nneg i32 %index to i64
  %1 = getelementptr %"yaml::yaml_node_t", ptr %_7, i64 %_8
  %2 = getelementptr inbounds nuw i8, ptr %document, i64 16
  %_9 = load ptr, ptr %2, align 8, !noundef !4
  %_5.not = icmp ugt ptr %1, %_9
  %3 = getelementptr i8, ptr %1, i64 -96
  %spec.select = select i1 %_5.not, ptr null, ptr %3
  br label %bb7

bb7:                                              ; preds = %bb3, %bb2
  %_0.sroa.0.0 = phi ptr [ null, %bb2 ], [ %spec.select, %bb3 ]
  ret ptr %_0.sroa.0.0
}

; unsafe_libyaml::api::yaml_emitter_set_break
; Function Attrs: uwtable
define void @_RNvNtCs5dfrY2TkJWl_14unsafe_libyaml3api22yaml_emitter_set_break(ptr noundef writeonly captures(address_is_null) %emitter, i32 noundef range(i32 0, 4) %line_break) unnamed_addr #1 {
start:
  %0 = icmp eq ptr %emitter, null
  br i1 %0, label %bb1, label %bb2

bb1:                                              ; preds = %start
; call unsafe_libyaml::externs::__assert_fail
  tail call fastcc void @_RNvNtCs5dfrY2TkJWl_14unsafe_libyaml7externs13___assert_fail(ptr noalias noundef nonnull readonly align 1 captures(address, read_provenance) @alloc_7865fdc37ad19b9b919293c34549431b, i64 noundef 18, ptr noalias noundef nonnull readonly align 1 captures(address, read_provenance) @alloc_b08f38296d5e13f36617fe99ae622e73, i64 noundef 104, i32 noundef 463) #22
  unreachable

bb2:                                              ; preds = %start
  %1 = getelementptr inbounds nuw i8, ptr %emitter, i64 140
  store i32 %line_break, ptr %1, align 4
  ret void
}

; unsafe_libyaml::api::yaml_emitter_set_width
; Function Attrs: uwtable
define void @_RNvNtCs5dfrY2TkJWl_14unsafe_libyaml3api22yaml_emitter_set_width(ptr noundef writeonly captures(address_is_null) %emitter, i32 noundef %0) unnamed_addr #1 {
start:
  %1 = icmp eq ptr %emitter, null
  br i1 %1, label %bb1, label %bb2

bb1:                                              ; preds = %start
; call unsafe_libyaml::externs::__assert_fail
  tail call fastcc void @_RNvNtCs5dfrY2TkJWl_14unsafe_libyaml7externs13___assert_fail(ptr noalias noundef nonnull readonly align 1 captures(address, read_provenance) @alloc_7865fdc37ad19b9b919293c34549431b, i64 noundef 18, ptr noalias noundef nonnull readonly align 1 captures(address, read_provenance) @alloc_b08f38296d5e13f36617fe99ae622e73, i64 noundef 104, i32 noundef 451) #22
  unreachable

bb2:                                              ; preds = %start
  %spec.store.select = tail call i32 @llvm.smax.i32(i32 %0, i32 -1)
  %2 = getelementptr inbounds nuw i8, ptr %emitter, i64 132
  store i32 %spec.store.select, ptr %2, align 4
  ret void
}

; unsafe_libyaml::api::yaml_parser_initialize
; Function Attrs: uwtable
define noundef zeroext i1 @_RNvNtCs5dfrY2TkJWl_14unsafe_libyaml3api22yaml_parser_initialize(ptr noundef writeonly captures(address_is_null) %parser) unnamed_addr #1 {
start:
  %0 = icmp eq ptr %parser, null
  br i1 %0, label %bb1, label %bb2

bb1:                                              ; preds = %start
; call unsafe_libyaml::externs::__assert_fail
  tail call fastcc void @_RNvNtCs5dfrY2TkJWl_14unsafe_libyaml7externs13___assert_fail(ptr noalias noundef nonnull readonly align 1 captures(address, read_provenance) @alloc_3674ecaf25ea6757494f22e340a7ddb2, i64 noundef 17, ptr noalias noundef nonnull readonly align 1 captures(address, read_provenance) @alloc_b08f38296d5e13f36617fe99ae622e73, i64 noundef 104, i32 noundef 168) #22
  unreachable

bb2:                                              ; preds = %start
  tail call void @llvm.memset.p0.i64(ptr noundef nonnull align 1 dereferenceable(480) %parser, i8 0, i64 480, i1 false)
; call __rustc::__rust_no_alloc_shim_is_unstable_v2
  tail call void @_RNvCsKhRCbHf33p_7___rustc35___rust_no_alloc_shim_is_unstable_v2() #23
; call __rustc::__rust_alloc
  %memory.i.i = tail call noundef align 8 dereferenceable_or_null(16392) ptr @_RNvCsKhRCbHf33p_7___rustc12___rust_alloc(i64 noundef 16392, i64 noundef 8) #23
  %1 = icmp eq ptr %memory.i.i, null
  br i1 %1, label %bb3.i.i, label %_RNvNtCs5dfrY2TkJWl_14unsafe_libyaml3api11yaml_malloc.exit, !prof !2

bb3.i.i:                                          ; preds = %bb2
; call alloc::alloc::handle_alloc_error
  tail call void @_RNvNtCsdJPVW0sQgAG_5alloc5alloc18handle_alloc_error(i64 noundef 8, i64 noundef 16392) #22
  unreachable

_RNvNtCs5dfrY2TkJWl_14unsafe_libyaml3api11yaml_malloc.exit: ; preds = %bb2
  store i64 16392, ptr %memory.i.i, align 8
  %_10.i.i = getelementptr inbounds nuw i8, ptr %memory.i.i, i64 8
  %2 = getelementptr inbounds nuw i8, ptr %parser, i64 176
  store ptr %_10.i.i, ptr %2, align 8
  %3 = getelementptr inbounds nuw i8, ptr %parser, i64 192
  store ptr %_10.i.i, ptr %3, align 8
  %4 = getelementptr inbounds nuw i8, ptr %parser, i64 200
  store ptr %_10.i.i, ptr %4, align 8
  %5 = getelementptr i8, ptr %memory.i.i, i64 16392
  %6 = getelementptr inbounds nuw i8, ptr %parser, i64 184
  store ptr %5, ptr %6, align 8
; call __rustc::__rust_no_alloc_shim_is_unstable_v2
  tail call void @_RNvCsKhRCbHf33p_7___rustc35___rust_no_alloc_shim_is_unstable_v2() #23
; call __rustc::__rust_alloc
  %memory.i.i7 = tail call noundef align 8 dereferenceable_or_null(49160) ptr @_RNvCsKhRCbHf33p_7___rustc12___rust_alloc(i64 noundef 49160, i64 noundef 8) #23
  %7 = icmp eq ptr %memory.i.i7, null
  br i1 %7, label %bb3.i.i9, label %_RNvNtCs5dfrY2TkJWl_14unsafe_libyaml3api11yaml_malloc.exit10, !prof !2

bb3.i.i9:                                         ; preds = %_RNvNtCs5dfrY2TkJWl_14unsafe_libyaml3api11yaml_malloc.exit
; call alloc::alloc::handle_alloc_error
  tail call void @_RNvNtCsdJPVW0sQgAG_5alloc5alloc18handle_alloc_error(i64 noundef 8, i64 noundef 49160) #22
  unreachable

_RNvNtCs5dfrY2TkJWl_14unsafe_libyaml3api11yaml_malloc.exit10: ; preds = %_RNvNtCs5dfrY2TkJWl_14unsafe_libyaml3api11yaml_malloc.exit
  store i64 49160, ptr %memory.i.i7, align 8
  %_10.i.i8 = getelementptr inbounds nuw i8, ptr %memory.i.i7, i64 8
  %8 = getelementptr inbounds nuw i8, ptr %parser, i64 136
  store ptr %_10.i.i8, ptr %8, align 8
  %9 = getelementptr inbounds nuw i8, ptr %parser, i64 152
  store ptr %_10.i.i8, ptr %9, align 8
  %10 = getelementptr inbounds nuw i8, ptr %parser, i64 160
  store ptr %_10.i.i8, ptr %10, align 8
  %11 = getelementptr i8, ptr %memory.i.i7, i64 49160
  %12 = getelementptr inbounds nuw i8, ptr %parser, i64 144
  store ptr %11, ptr %12, align 8
; call __rustc::__rust_no_alloc_shim_is_unstable_v2
  tail call void @_RNvCsKhRCbHf33p_7___rustc35___rust_no_alloc_shim_is_unstable_v2() #23
; call __rustc::__rust_alloc
  %memory.i.i11 = tail call noundef align 8 dereferenceable_or_null(1288) ptr @_RNvCsKhRCbHf33p_7___rustc12___rust_alloc(i64 noundef 1288, i64 noundef 8) #23
  %13 = icmp eq ptr %memory.i.i11, null
  br i1 %13, label %bb3.i.i13, label %_RNvNtCs5dfrY2TkJWl_14unsafe_libyaml3api11yaml_malloc.exit14, !prof !2

bb3.i.i13:                                        ; preds = %_RNvNtCs5dfrY2TkJWl_14unsafe_libyaml3api11yaml_malloc.exit10
; call alloc::alloc::handle_alloc_error
  tail call void @_RNvNtCsdJPVW0sQgAG_5alloc5alloc18handle_alloc_error(i64 noundef 8, i64 noundef 1288) #22
  unreachable

_RNvNtCs5dfrY2TkJWl_14unsafe_libyaml3api11yaml_malloc.exit14: ; preds = %_RNvNtCs5dfrY2TkJWl_14unsafe_libyaml3api11yaml_malloc.exit10
  store i64 1288, ptr %memory.i.i11, align 8
  %_10.i.i12 = getelementptr inbounds nuw i8, ptr %memory.i.i11, i64 8
  %14 = getelementptr inbounds nuw i8, ptr %parser, i64 256
  store ptr %_10.i.i12, ptr %14, align 8
  %15 = getelementptr inbounds nuw i8, ptr %parser, i64 280
  store ptr %_10.i.i12, ptr %15, align 8
  %16 = getelementptr inbounds nuw i8, ptr %parser, i64 272
  store ptr %_10.i.i12, ptr %16, align 8
  %_24 = getelementptr inbounds nuw i8, ptr %memory.i.i11, i64 1288
  %17 = getelementptr inbounds nuw i8, ptr %parser, i64 264
  store ptr %_24, ptr %17, align 8
; call __rustc::__rust_no_alloc_shim_is_unstable_v2
  tail call void @_RNvCsKhRCbHf33p_7___rustc35___rust_no_alloc_shim_is_unstable_v2() #23
; call __rustc::__rust_alloc
  %memory.i.i15 = tail call noundef align 8 dereferenceable_or_null(72) ptr @_RNvCsKhRCbHf33p_7___rustc12___rust_alloc(i64 noundef 72, i64 noundef 8) #23
  %18 = icmp eq ptr %memory.i.i15, null
  br i1 %18, label %bb3.i.i17, label %_RNvNtCs5dfrY2TkJWl_14unsafe_libyaml3api11yaml_malloc.exit18, !prof !2

bb3.i.i17:                                        ; preds = %_RNvNtCs5dfrY2TkJWl_14unsafe_libyaml3api11yaml_malloc.exit14
; call alloc::alloc::handle_alloc_error
  tail call void @_RNvNtCsdJPVW0sQgAG_5alloc5alloc18handle_alloc_error(i64 noundef 8, i64 noundef 72) #22
  unreachable

_RNvNtCs5dfrY2TkJWl_14unsafe_libyaml3api11yaml_malloc.exit18: ; preds = %_RNvNtCs5dfrY2TkJWl_14unsafe_libyaml3api11yaml_malloc.exit14
  store i64 72, ptr %memory.i.i15, align 8
  %_10.i.i16 = getelementptr inbounds nuw i8, ptr %memory.i.i15, i64 8
  %19 = getelementptr inbounds nuw i8, ptr %parser, i64 304
  store ptr %_10.i.i16, ptr %19, align 8
  %20 = getelementptr inbounds nuw i8, ptr %parser, i64 320
  store ptr %_10.i.i16, ptr %20, align 8
  %_28 = getelementptr inbounds nuw i8, ptr %memory.i.i15, i64 72
  %21 = getelementptr inbounds nuw i8, ptr %parser, i64 312
  store ptr %_28, ptr %21, align 8
; call __rustc::__rust_no_alloc_shim_is_unstable_v2
  tail call void @_RNvCsKhRCbHf33p_7___rustc35___rust_no_alloc_shim_is_unstable_v2() #23
; call __rustc::__rust_alloc
  %memory.i.i19 = tail call noundef align 8 dereferenceable_or_null(648) ptr @_RNvCsKhRCbHf33p_7___rustc12___rust_alloc(i64 noundef 648, i64 noundef 8) #23
  %22 = icmp eq ptr %memory.i.i19, null
  br i1 %22, label %bb3.i.i21, label %_RNvNtCs5dfrY2TkJWl_14unsafe_libyaml3api11yaml_malloc.exit22, !prof !2

bb3.i.i21:                                        ; preds = %_RNvNtCs5dfrY2TkJWl_14unsafe_libyaml3api11yaml_malloc.exit18
; call alloc::alloc::handle_alloc_error
  tail call void @_RNvNtCsdJPVW0sQgAG_5alloc5alloc18handle_alloc_error(i64 noundef 8, i64 noundef 648) #22
  unreachable

_RNvNtCs5dfrY2TkJWl_14unsafe_libyaml3api11yaml_malloc.exit22: ; preds = %_RNvNtCs5dfrY2TkJWl_14unsafe_libyaml3api11yaml_malloc.exit18
  store i64 648, ptr %memory.i.i19, align 8
  %_10.i.i20 = getelementptr inbounds nuw i8, ptr %memory.i.i19, i64 8
  %23 = getelementptr inbounds nuw i8, ptr %parser, i64 336
  store ptr %_10.i.i20, ptr %23, align 8
  %24 = getelementptr inbounds nuw i8, ptr %parser, i64 352
  store ptr %_10.i.i20, ptr %24, align 8
  %_32 = getelementptr inbounds nuw i8, ptr %memory.i.i19, i64 648
  %25 = getelementptr inbounds nuw i8, ptr %parser, i64 344
  store ptr %_32, ptr %25, align 8
; call __rustc::__rust_no_alloc_shim_is_unstable_v2
  tail call void @_RNvCsKhRCbHf33p_7___rustc35___rust_no_alloc_shim_is_unstable_v2() #23
; call __rustc::__rust_alloc
  %memory.i.i23 = tail call noundef align 8 dereferenceable_or_null(72) ptr @_RNvCsKhRCbHf33p_7___rustc12___rust_alloc(i64 noundef 72, i64 noundef 8) #23
  %26 = icmp eq ptr %memory.i.i23, null
  br i1 %26, label %bb3.i.i25, label %_RNvNtCs5dfrY2TkJWl_14unsafe_libyaml3api11yaml_malloc.exit26, !prof !2

bb3.i.i25:                                        ; preds = %_RNvNtCs5dfrY2TkJWl_14unsafe_libyaml3api11yaml_malloc.exit22
; call alloc::alloc::handle_alloc_error
  tail call void @_RNvNtCsdJPVW0sQgAG_5alloc5alloc18handle_alloc_error(i64 noundef 8, i64 noundef 72) #22
  unreachable

_RNvNtCs5dfrY2TkJWl_14unsafe_libyaml3api11yaml_malloc.exit26: ; preds = %_RNvNtCs5dfrY2TkJWl_14unsafe_libyaml3api11yaml_malloc.exit22
  store i64 72, ptr %memory.i.i23, align 8
  %_10.i.i24 = getelementptr inbounds nuw i8, ptr %memory.i.i23, i64 8
  %27 = getelementptr inbounds nuw i8, ptr %parser, i64 368
  store ptr %_10.i.i24, ptr %27, align 8
  %28 = getelementptr inbounds nuw i8, ptr %parser, i64 384
  store ptr %_10.i.i24, ptr %28, align 8
  %_36 = getelementptr inbounds nuw i8, ptr %memory.i.i23, i64 72
  %29 = getelementptr inbounds nuw i8, ptr %parser, i64 376
  store ptr %_36, ptr %29, align 8
; call __rustc::__rust_no_alloc_shim_is_unstable_v2
  tail call void @_RNvCsKhRCbHf33p_7___rustc35___rust_no_alloc_shim_is_unstable_v2() #23
; call __rustc::__rust_alloc
  %memory.i.i27 = tail call noundef align 8 dereferenceable_or_null(392) ptr @_RNvCsKhRCbHf33p_7___rustc12___rust_alloc(i64 noundef 392, i64 noundef 8) #23
  %30 = icmp eq ptr %memory.i.i27, null
  br i1 %30, label %bb3.i.i29, label %_RNvNtCs5dfrY2TkJWl_14unsafe_libyaml3api11yaml_malloc.exit30, !prof !2

bb3.i.i29:                                        ; preds = %_RNvNtCs5dfrY2TkJWl_14unsafe_libyaml3api11yaml_malloc.exit26
; call alloc::alloc::handle_alloc_error
  tail call void @_RNvNtCsdJPVW0sQgAG_5alloc5alloc18handle_alloc_error(i64 noundef 8, i64 noundef 392) #22
  unreachable

_RNvNtCs5dfrY2TkJWl_14unsafe_libyaml3api11yaml_malloc.exit30: ; preds = %_RNvNtCs5dfrY2TkJWl_14unsafe_libyaml3api11yaml_malloc.exit26
  store i64 392, ptr %memory.i.i27, align 8
  %_10.i.i28 = getelementptr inbounds nuw i8, ptr %memory.i.i27, i64 8
  %31 = getelementptr inbounds nuw i8, ptr %parser, i64 400
  store ptr %_10.i.i28, ptr %31, align 8
  %32 = getelementptr inbounds nuw i8, ptr %parser, i64 416
  store ptr %_10.i.i28, ptr %32, align 8
  %_40 = getelementptr inbounds nuw i8, ptr %memory.i.i27, i64 392
  %33 = getelementptr inbounds nuw i8, ptr %parser, i64 408
  store ptr %_40, ptr %33, align 8
; call __rustc::__rust_no_alloc_shim_is_unstable_v2
  tail call void @_RNvCsKhRCbHf33p_7___rustc35___rust_no_alloc_shim_is_unstable_v2() #23
; call __rustc::__rust_alloc
  %memory.i.i31 = tail call noundef align 8 dereferenceable_or_null(264) ptr @_RNvCsKhRCbHf33p_7___rustc12___rust_alloc(i64 noundef 264, i64 noundef 8) #23
  %34 = icmp eq ptr %memory.i.i31, null
  br i1 %34, label %bb3.i.i33, label %_RNvNtCs5dfrY2TkJWl_14unsafe_libyaml3api11yaml_malloc.exit34, !prof !2

bb3.i.i33:                                        ; preds = %_RNvNtCs5dfrY2TkJWl_14unsafe_libyaml3api11yaml_malloc.exit30
; call alloc::alloc::handle_alloc_error
  tail call void @_RNvNtCsdJPVW0sQgAG_5alloc5alloc18handle_alloc_error(i64 noundef 8, i64 noundef 264) #22
  unreachable

_RNvNtCs5dfrY2TkJWl_14unsafe_libyaml3api11yaml_malloc.exit34: ; preds = %_RNvNtCs5dfrY2TkJWl_14unsafe_libyaml3api11yaml_malloc.exit30
  store i64 264, ptr %memory.i.i31, align 8
  %_10.i.i32 = getelementptr inbounds nuw i8, ptr %memory.i.i31, i64 8
  %35 = getelementptr inbounds nuw i8, ptr %parser, i64 424
  store ptr %_10.i.i32, ptr %35, align 8
  %36 = getelementptr inbounds nuw i8, ptr %parser, i64 440
  store ptr %_10.i.i32, ptr %36, align 8
  %_44 = getelementptr inbounds nuw i8, ptr %memory.i.i31, i64 264
  %37 = getelementptr inbounds nuw i8, ptr %parser, i64 432
  store ptr %_44, ptr %37, align 8
  ret i1 true
}

; unsafe_libyaml::api::yaml_emitter_initialize
; Function Attrs: uwtable
define noundef zeroext i1 @_RNvNtCs5dfrY2TkJWl_14unsafe_libyaml3api23yaml_emitter_initialize(ptr noundef writeonly captures(address_is_null) %emitter) unnamed_addr #1 {
start:
  %0 = icmp eq ptr %emitter, null
  br i1 %0, label %bb1, label %bb2

bb1:                                              ; preds = %start
; call unsafe_libyaml::externs::__assert_fail
  tail call fastcc void @_RNvNtCs5dfrY2TkJWl_14unsafe_libyaml7externs13___assert_fail(ptr noalias noundef nonnull readonly align 1 captures(address, read_provenance) @alloc_7865fdc37ad19b9b919293c34549431b, i64 noundef 18, ptr noalias noundef nonnull readonly align 1 captures(address, read_provenance) @alloc_b08f38296d5e13f36617fe99ae622e73, i64 noundef 104, i32 noundef 300) #22
  unreachable

bb2:                                              ; preds = %start
  tail call void @llvm.memset.p0.i64(ptr noundef nonnull align 1 dereferenceable(408) %emitter, i8 0, i64 408, i1 false)
; call __rustc::__rust_no_alloc_shim_is_unstable_v2
  tail call void @_RNvCsKhRCbHf33p_7___rustc35___rust_no_alloc_shim_is_unstable_v2() #23
; call __rustc::__rust_alloc
  %memory.i.i = tail call noundef align 8 dereferenceable_or_null(16392) ptr @_RNvCsKhRCbHf33p_7___rustc12___rust_alloc(i64 noundef 16392, i64 noundef 8) #23
  %1 = icmp eq ptr %memory.i.i, null
  br i1 %1, label %bb3.i.i, label %_RNvNtCs5dfrY2TkJWl_14unsafe_libyaml3api11yaml_malloc.exit, !prof !2

bb3.i.i:                                          ; preds = %bb2
; call alloc::alloc::handle_alloc_error
  tail call void @_RNvNtCsdJPVW0sQgAG_5alloc5alloc18handle_alloc_error(i64 noundef 8, i64 noundef 16392) #22
  unreachable

_RNvNtCs5dfrY2TkJWl_14unsafe_libyaml3api11yaml_malloc.exit: ; preds = %bb2
  store i64 16392, ptr %memory.i.i, align 8
  %_10.i.i = getelementptr inbounds nuw i8, ptr %memory.i.i, i64 8
  %2 = getelementptr inbounds nuw i8, ptr %emitter, i64 56
  store ptr %_10.i.i, ptr %2, align 8
  %3 = getelementptr inbounds nuw i8, ptr %emitter, i64 72
  store ptr %_10.i.i, ptr %3, align 8
  %4 = getelementptr inbounds nuw i8, ptr %emitter, i64 80
  store ptr %_10.i.i, ptr %4, align 8
  %5 = getelementptr i8, ptr %memory.i.i, i64 16392
  %6 = getelementptr inbounds nuw i8, ptr %emitter, i64 64
  store ptr %5, ptr %6, align 8
; call __rustc::__rust_no_alloc_shim_is_unstable_v2
  tail call void @_RNvCsKhRCbHf33p_7___rustc35___rust_no_alloc_shim_is_unstable_v2() #23
; call __rustc::__rust_alloc
  %memory.i.i7 = tail call noundef align 8 dereferenceable_or_null(32778) ptr @_RNvCsKhRCbHf33p_7___rustc12___rust_alloc(i64 noundef 32778, i64 noundef 8) #23
  %7 = icmp eq ptr %memory.i.i7, null
  br i1 %7, label %bb3.i.i9, label %_RNvNtCs5dfrY2TkJWl_14unsafe_libyaml3api11yaml_malloc.exit10, !prof !2

bb3.i.i9:                                         ; preds = %_RNvNtCs5dfrY2TkJWl_14unsafe_libyaml3api11yaml_malloc.exit
; call alloc::alloc::handle_alloc_error
  tail call void @_RNvNtCsdJPVW0sQgAG_5alloc5alloc18handle_alloc_error(i64 noundef 8, i64 noundef 32778) #22
  unreachable

_RNvNtCs5dfrY2TkJWl_14unsafe_libyaml3api11yaml_malloc.exit10: ; preds = %_RNvNtCs5dfrY2TkJWl_14unsafe_libyaml3api11yaml_malloc.exit
  store i64 32778, ptr %memory.i.i7, align 8
  %_10.i.i8 = getelementptr inbounds nuw i8, ptr %memory.i.i7, i64 8
  %8 = getelementptr inbounds nuw i8, ptr %emitter, i64 88
  store ptr %_10.i.i8, ptr %8, align 8
  %9 = getelementptr inbounds nuw i8, ptr %emitter, i64 104
  store ptr %_10.i.i8, ptr %9, align 8
  %10 = getelementptr inbounds nuw i8, ptr %emitter, i64 112
  store ptr %_10.i.i8, ptr %10, align 8
  %11 = getelementptr i8, ptr %memory.i.i7, i64 32778
  %12 = getelementptr inbounds nuw i8, ptr %emitter, i64 96
  store ptr %11, ptr %12, align 8
; call __rustc::__rust_no_alloc_shim_is_unstable_v2
  tail call void @_RNvCsKhRCbHf33p_7___rustc35___rust_no_alloc_shim_is_unstable_v2() #23
; call __rustc::__rust_alloc
  %memory.i.i11 = tail call noundef align 8 dereferenceable_or_null(72) ptr @_RNvCsKhRCbHf33p_7___rustc12___rust_alloc(i64 noundef 72, i64 noundef 8) #23
  %13 = icmp eq ptr %memory.i.i11, null
  br i1 %13, label %bb3.i.i13, label %_RNvNtCs5dfrY2TkJWl_14unsafe_libyaml3api11yaml_malloc.exit14, !prof !2

bb3.i.i13:                                        ; preds = %_RNvNtCs5dfrY2TkJWl_14unsafe_libyaml3api11yaml_malloc.exit10
; call alloc::alloc::handle_alloc_error
  tail call void @_RNvNtCsdJPVW0sQgAG_5alloc5alloc18handle_alloc_error(i64 noundef 8, i64 noundef 72) #22
  unreachable

_RNvNtCs5dfrY2TkJWl_14unsafe_libyaml3api11yaml_malloc.exit14: ; preds = %_RNvNtCs5dfrY2TkJWl_14unsafe_libyaml3api11yaml_malloc.exit10
  store i64 72, ptr %memory.i.i11, align 8
  %_10.i.i12 = getelementptr inbounds nuw i8, ptr %memory.i.i11, i64 8
  %14 = getelementptr inbounds nuw i8, ptr %emitter, i64 144
  store ptr %_10.i.i12, ptr %14, align 8
  %15 = getelementptr inbounds nuw i8, ptr %emitter, i64 160
  store ptr %_10.i.i12, ptr %15, align 8
  %_23 = getelementptr inbounds nuw i8, ptr %memory.i.i11, i64 72
  %16 = getelementptr inbounds nuw i8, ptr %emitter, i64 152
  store ptr %_23, ptr %16, align 8
; call __rustc::__rust_no_alloc_shim_is_unstable_v2
  tail call void @_RNvCsKhRCbHf33p_7___rustc35___rust_no_alloc_shim_is_unstable_v2() #23
; call __rustc::__rust_alloc
  %memory.i.i15 = tail call noundef align 8 dereferenceable_or_null(1544) ptr @_RNvCsKhRCbHf33p_7___rustc12___rust_alloc(i64 noundef 1544, i64 noundef 8) #23
  %17 = icmp eq ptr %memory.i.i15, null
  br i1 %17, label %bb3.i.i17, label %_RNvNtCs5dfrY2TkJWl_14unsafe_libyaml3api11yaml_malloc.exit18, !prof !2

bb3.i.i17:                                        ; preds = %_RNvNtCs5dfrY2TkJWl_14unsafe_libyaml3api11yaml_malloc.exit14
; call alloc::alloc::handle_alloc_error
  tail call void @_RNvNtCsdJPVW0sQgAG_5alloc5alloc18handle_alloc_error(i64 noundef 8, i64 noundef 1544) #22
  unreachable

_RNvNtCs5dfrY2TkJWl_14unsafe_libyaml3api11yaml_malloc.exit18: ; preds = %_RNvNtCs5dfrY2TkJWl_14unsafe_libyaml3api11yaml_malloc.exit14
  store i64 1544, ptr %memory.i.i15, align 8
  %_10.i.i16 = getelementptr inbounds nuw i8, ptr %memory.i.i15, i64 8
  %18 = getelementptr inbounds nuw i8, ptr %emitter, i64 176
  store ptr %_10.i.i16, ptr %18, align 8
  %19 = getelementptr inbounds nuw i8, ptr %emitter, i64 200
  store ptr %_10.i.i16, ptr %19, align 8
  %20 = getelementptr inbounds nuw i8, ptr %emitter, i64 192
  store ptr %_10.i.i16, ptr %20, align 8
  %_28 = getelementptr inbounds nuw i8, ptr %memory.i.i15, i64 1544
  %21 = getelementptr inbounds nuw i8, ptr %emitter, i64 184
  store ptr %_28, ptr %21, align 8
; call __rustc::__rust_no_alloc_shim_is_unstable_v2
  tail call void @_RNvCsKhRCbHf33p_7___rustc35___rust_no_alloc_shim_is_unstable_v2() #23
; call __rustc::__rust_alloc
  %memory.i.i19 = tail call noundef align 8 dereferenceable_or_null(72) ptr @_RNvCsKhRCbHf33p_7___rustc12___rust_alloc(i64 noundef 72, i64 noundef 8) #23
  %22 = icmp eq ptr %memory.i.i19, null
  br i1 %22, label %bb3.i.i21, label %_RNvNtCs5dfrY2TkJWl_14unsafe_libyaml3api11yaml_malloc.exit22, !prof !2

bb3.i.i21:                                        ; preds = %_RNvNtCs5dfrY2TkJWl_14unsafe_libyaml3api11yaml_malloc.exit18
; call alloc::alloc::handle_alloc_error
  tail call void @_RNvNtCsdJPVW0sQgAG_5alloc5alloc18handle_alloc_error(i64 noundef 8, i64 noundef 72) #22
  unreachable

_RNvNtCs5dfrY2TkJWl_14unsafe_libyaml3api11yaml_malloc.exit22: ; preds = %_RNvNtCs5dfrY2TkJWl_14unsafe_libyaml3api11yaml_malloc.exit18
  store i64 72, ptr %memory.i.i19, align 8
  %_10.i.i20 = getelementptr inbounds nuw i8, ptr %memory.i.i19, i64 8
  %23 = getelementptr inbounds nuw i8, ptr %emitter, i64 208
  store ptr %_10.i.i20, ptr %23, align 8
  %24 = getelementptr inbounds nuw i8, ptr %emitter, i64 224
  store ptr %_10.i.i20, ptr %24, align 8
  %_32 = getelementptr inbounds nuw i8, ptr %memory.i.i19, i64 72
  %25 = getelementptr inbounds nuw i8, ptr %emitter, i64 216
  store ptr %_32, ptr %25, align 8
; call __rustc::__rust_no_alloc_shim_is_unstable_v2
  tail call void @_RNvCsKhRCbHf33p_7___rustc35___rust_no_alloc_shim_is_unstable_v2() #23
; call __rustc::__rust_alloc
  %memory.i.i23 = tail call noundef align 8 dereferenceable_or_null(264) ptr @_RNvCsKhRCbHf33p_7___rustc12___rust_alloc(i64 noundef 264, i64 noundef 8) #23
  %26 = icmp eq ptr %memory.i.i23, null
  br i1 %26, label %bb3.i.i25, label %_RNvNtCs5dfrY2TkJWl_14unsafe_libyaml3api11yaml_malloc.exit26, !prof !2

bb3.i.i25:                                        ; preds = %_RNvNtCs5dfrY2TkJWl_14unsafe_libyaml3api11yaml_malloc.exit22
; call alloc::alloc::handle_alloc_error
  tail call void @_RNvNtCsdJPVW0sQgAG_5alloc5alloc18handle_alloc_error(i64 noundef 8, i64 noundef 264) #22
  unreachable

_RNvNtCs5dfrY2TkJWl_14unsafe_libyaml3api11yaml_malloc.exit26: ; preds = %_RNvNtCs5dfrY2TkJWl_14unsafe_libyaml3api11yaml_malloc.exit22
  store i64 264, ptr %memory.i.i23, align 8
  %_10.i.i24 = getelementptr inbounds nuw i8, ptr %memory.i.i23, i64 8
  %27 = getelementptr inbounds nuw i8, ptr %emitter, i64 232
  store ptr %_10.i.i24, ptr %27, align 8
  %28 = getelementptr inbounds nuw i8, ptr %emitter, i64 248
  store ptr %_10.i.i24, ptr %28, align 8
  %_36 = getelementptr inbounds nuw i8, ptr %memory.i.i23, i64 264
  %29 = getelementptr inbounds nuw i8, ptr %emitter, i64 240
  store ptr %_36, ptr %29, align 8
  ret i1 true
}

; unsafe_libyaml::api::yaml_emitter_set_indent
; Function Attrs: uwtable
define void @_RNvNtCs5dfrY2TkJWl_14unsafe_libyaml3api23yaml_emitter_set_indent(ptr noundef writeonly captures(address_is_null) %emitter, i32 noundef %0) unnamed_addr #1 {
start:
  %1 = icmp eq ptr %emitter, null
  br i1 %1, label %bb1, label %bb2

bb1:                                              ; preds = %start
; call unsafe_libyaml::externs::__assert_fail
  tail call fastcc void @_RNvNtCs5dfrY2TkJWl_14unsafe_libyaml7externs13___assert_fail(ptr noalias noundef nonnull readonly align 1 captures(address, read_provenance) @alloc_7865fdc37ad19b9b919293c34549431b, i64 noundef 18, ptr noalias noundef nonnull readonly align 1 captures(address, read_provenance) @alloc_b08f38296d5e13f36617fe99ae622e73, i64 noundef 104, i32 noundef 445) #22
  unreachable

bb2:                                              ; preds = %start
  %2 = add i32 %0, -2
  %or.cond = icmp ult i32 %2, 8
  %spec.store.select = select i1 %or.cond, i32 %0, i32 2
  %3 = getelementptr inbounds nuw i8, ptr %emitter, i64 128
  store i32 %spec.store.select, ptr %3, align 8
  ret void
}

; unsafe_libyaml::api::yaml_emitter_set_output
; Function Attrs: uwtable
define void @_RNvNtCs5dfrY2TkJWl_14unsafe_libyaml3api23yaml_emitter_set_output(ptr noundef captures(address_is_null) %emitter, ptr noundef nonnull %handler, ptr noundef %data) unnamed_addr #1 {
start:
  %0 = icmp eq ptr %emitter, null
  br i1 %0, label %bb1, label %bb2

bb1:                                              ; preds = %start
; call unsafe_libyaml::externs::__assert_fail
  tail call fastcc void @_RNvNtCs5dfrY2TkJWl_14unsafe_libyaml7externs13___assert_fail(ptr noalias noundef nonnull readonly align 1 captures(address, read_provenance) @alloc_7865fdc37ad19b9b919293c34549431b, i64 noundef 18, ptr noalias noundef nonnull readonly align 1 captures(address, read_provenance) @alloc_b08f38296d5e13f36617fe99ae622e73, i64 noundef 104, i32 noundef 421) #22
  unreachable

bb2:                                              ; preds = %start
  %1 = getelementptr inbounds nuw i8, ptr %emitter, i64 16
  %2 = load ptr, ptr %1, align 8, !noundef !4
  %.not = icmp eq ptr %2, null
  br i1 %.not, label %bb3, label %bb4

bb4:                                              ; preds = %bb2
; call unsafe_libyaml::externs::__assert_fail
  tail call fastcc void @_RNvNtCs5dfrY2TkJWl_14unsafe_libyaml7externs13___assert_fail(ptr noalias noundef nonnull readonly align 1 captures(address, read_provenance) @alloc_f18205dc0e61dbf08d4548223d427e8e, i64 noundef 36, ptr noalias noundef nonnull readonly align 1 captures(address, read_provenance) @alloc_b08f38296d5e13f36617fe99ae622e73, i64 noundef 104, i32 noundef 422) #22
  unreachable

bb3:                                              ; preds = %bb2
  store ptr %handler, ptr %1, align 8
  %3 = getelementptr inbounds nuw i8, ptr %emitter, i64 24
  store ptr %data, ptr %3, align 8
  ret void
}

; unsafe_libyaml::api::yaml_document_add_scalar
; Function Attrs: uwtable
define noundef i32 @_RNvNtCs5dfrY2TkJWl_14unsafe_libyaml3api24yaml_document_add_scalar(ptr noundef captures(address_is_null) %document, ptr noundef readonly captures(address) %0, ptr noundef readonly captures(address) %value, i32 noundef %1, i32 noundef range(i32 0, 6) %style) unnamed_addr #1 {
start:
  %2 = icmp eq ptr %document, null
  br i1 %2, label %bb1, label %bb2

bb1:                                              ; preds = %start
; call unsafe_libyaml::externs::__assert_fail
  tail call fastcc void @_RNvNtCs5dfrY2TkJWl_14unsafe_libyaml7externs13___assert_fail(ptr noalias noundef nonnull readonly align 1 captures(address, read_provenance) @alloc_e45e71155ffb8fb480705a3ebbda27cf, i64 noundef 19, ptr noalias noundef nonnull readonly align 1 captures(address, read_provenance) @alloc_b08f38296d5e13f36617fe99ae622e73, i64 noundef 104, i32 noundef 1328) #22
  unreachable

bb2:                                              ; preds = %start
  %3 = icmp eq ptr %value, null
  br i1 %3, label %bb3, label %bb4

bb3:                                              ; preds = %bb2
; call unsafe_libyaml::externs::__assert_fail
  tail call fastcc void @_RNvNtCs5dfrY2TkJWl_14unsafe_libyaml7externs13___assert_fail(ptr noalias noundef nonnull readonly align 1 captures(address, read_provenance) @alloc_f577bc3a626bcb7ebc7b8f9b91e5e3f1, i64 noundef 16, ptr noalias noundef nonnull readonly align 1 captures(address, read_provenance) @alloc_b08f38296d5e13f36617fe99ae622e73, i64 noundef 104, i32 noundef 1329) #22
  unreachable

bb4:                                              ; preds = %bb2
  %4 = icmp eq ptr %0, null
  %spec.store.select = select i1 %4, ptr @alloc_b12e5c2e5af033921a320e512426355e, ptr %0
  %strlen = tail call i64 @strlen(ptr noundef nonnull dereferenceable(1) %spec.store.select)
; call unsafe_libyaml::api::yaml_check_utf8
  %_16 = tail call fastcc noundef zeroext i1 @_RNvNtCs5dfrY2TkJWl_14unsafe_libyaml3api15yaml_check_utf8(ptr noundef nonnull %spec.store.select, i64 noundef %strlen)
  br i1 %_16, label %bb9, label %bb30

bb9:                                              ; preds = %bb4
  %strlen.i.i = tail call i64 @strlen(ptr noundef nonnull readonly dereferenceable(1) %spec.store.select)
  %_4.i.i = add i64 %strlen.i.i, 1
  %_5.0.i.i.i.i = add i64 %strlen.i.i, 9
  %_5.1.i.i.i.i = icmp ugt i64 %_4.i.i, -9
  br i1 %_5.1.i.i.i.i, label %bb1.i.i.i.i, label %_RNvXs2_NtCs5dfrY2TkJWl_14unsafe_libyaml3opsjNtB5_8ForceAdd9force_add.exit.i.i.i, !prof !2

bb1.i.i.i.i:                                      ; preds = %bb9
; call unsafe_libyaml::ops::die::do_die
  tail call void @_RNvNvNtCs5dfrY2TkJWl_14unsafe_libyaml3ops3die6do_die() #22
  unreachable

_RNvXs2_NtCs5dfrY2TkJWl_14unsafe_libyaml3opsjNtB5_8ForceAdd9force_add.exit.i.i.i: ; preds = %bb9
  %_12.i.i.i = icmp ugt i64 %_5.0.i.i.i.i, 9223372036854775800
  br i1 %_12.i.i.i, label %bb10.i.i.i, label %bb11.i.i.i, !prof !3

bb11.i.i.i:                                       ; preds = %_RNvXs2_NtCs5dfrY2TkJWl_14unsafe_libyaml3opsjNtB5_8ForceAdd9force_add.exit.i.i.i
; call __rustc::__rust_no_alloc_shim_is_unstable_v2
  tail call void @_RNvCsKhRCbHf33p_7___rustc35___rust_no_alloc_shim_is_unstable_v2() #23
; call __rustc::__rust_alloc
  %memory.i.i.i = tail call noundef align 8 ptr @_RNvCsKhRCbHf33p_7___rustc12___rust_alloc(i64 noundef %_5.0.i.i.i.i, i64 noundef 8) #23
  %5 = icmp eq ptr %memory.i.i.i, null
  br i1 %5, label %bb3.i.i.i, label %bb12, !prof !2

bb10.i.i.i:                                       ; preds = %_RNvXs2_NtCs5dfrY2TkJWl_14unsafe_libyaml3opsjNtB5_8ForceAdd9force_add.exit.i.i.i
; call unsafe_libyaml::ops::die::do_die
  tail call void @_RNvNvNtCs5dfrY2TkJWl_14unsafe_libyaml3ops3die6do_die() #22
  unreachable

bb3.i.i.i:                                        ; preds = %bb11.i.i.i
; call alloc::alloc::handle_alloc_error
  tail call void @_RNvNtCsdJPVW0sQgAG_5alloc5alloc18handle_alloc_error(i64 noundef 8, i64 noundef %_5.0.i.i.i.i) #22
  unreachable

bb2.i:                                            ; preds = %bb15
; call __rustc::__rust_dealloc
  tail call void @_RNvCsKhRCbHf33p_7___rustc14___rust_dealloc(ptr noundef nonnull %memory.i.i.i, i64 noundef %_5.0.i.i.i.i, i64 noundef 8) #23
  br label %bb30

bb12:                                             ; preds = %bb11.i.i.i
  store i64 %_5.0.i.i.i.i, ptr %memory.i.i.i, align 8
  %_10.i.i.i = getelementptr inbounds nuw i8, ptr %memory.i.i.i, i64 8
  tail call void @llvm.memcpy.p0.p0.i64(ptr nonnull align 8 %_10.i.i.i, ptr nonnull readonly align 1 %spec.store.select, i64 %_4.i.i, i1 false)
  %_23 = icmp slt i32 %1, 0
  br i1 %_23, label %bb35.preheader, label %bb15

bb35.preheader:                                   ; preds = %bb12
  %strlen22 = tail call i64 @strlen(ptr noundef nonnull dereferenceable(1) %value)
  %6 = trunc i64 %strlen22 to i32
  br label %bb15

bb15:                                             ; preds = %bb12, %bb35.preheader
  %length.sroa.0.0 = phi i32 [ %6, %bb35.preheader ], [ %1, %bb12 ]
  %_29 = sext i32 %length.sroa.0.0 to i64
; call unsafe_libyaml::api::yaml_check_utf8
  %_28 = tail call fastcc noundef zeroext i1 @_RNvNtCs5dfrY2TkJWl_14unsafe_libyaml3api15yaml_check_utf8(ptr noundef nonnull %value, i64 noundef %_29)
  br i1 %_28, label %bb17, label %bb2.i

bb17:                                             ; preds = %bb15
  %7 = tail call { i32, i1 } @llvm.sadd.with.overflow.i32(i32 %length.sroa.0.0, i32 1)
  %_6.1.i = extractvalue { i32, i1 } %7, 1
  br i1 %_6.1.i, label %bb1.i, label %_RNvXs_NtCs5dfrY2TkJWl_14unsafe_libyaml3opslNtB4_8ForceAdd9force_add.exit, !prof !2

bb1.i:                                            ; preds = %bb17
; call unsafe_libyaml::ops::die::<i32>
  tail call fastcc void @_RINvNtCs5dfrY2TkJWl_14unsafe_libyaml3ops3dielEB4_()
  unreachable

_RNvXs_NtCs5dfrY2TkJWl_14unsafe_libyaml3opslNtB4_8ForceAdd9force_add.exit: ; preds = %bb17
  %_6.0.i = extractvalue { i32, i1 } %7, 0
  %_32 = sext i32 %_6.0.i to i64
  %_5.0.i.i.i = add nsw i64 %_32, 8
  %_5.1.i.i.i = icmp ugt i32 %_6.0.i, -9
  br i1 %_5.1.i.i.i, label %bb1.i.i.i, label %_RNvXs2_NtCs5dfrY2TkJWl_14unsafe_libyaml3opsjNtB5_8ForceAdd9force_add.exit.i.i, !prof !2

bb1.i.i.i:                                        ; preds = %_RNvXs_NtCs5dfrY2TkJWl_14unsafe_libyaml3opslNtB4_8ForceAdd9force_add.exit
; call unsafe_libyaml::ops::die::do_die
  tail call void @_RNvNvNtCs5dfrY2TkJWl_14unsafe_libyaml3ops3die6do_die() #22
  unreachable

_RNvXs2_NtCs5dfrY2TkJWl_14unsafe_libyaml3opsjNtB5_8ForceAdd9force_add.exit.i.i: ; preds = %_RNvXs_NtCs5dfrY2TkJWl_14unsafe_libyaml3opslNtB4_8ForceAdd9force_add.exit
  %_12.i.i = icmp ugt i64 %_5.0.i.i.i, 9223372036854775800
  br i1 %_12.i.i, label %bb10.i.i, label %bb11.i.i, !prof !3

bb11.i.i:                                         ; preds = %_RNvXs2_NtCs5dfrY2TkJWl_14unsafe_libyaml3opsjNtB5_8ForceAdd9force_add.exit.i.i
; call __rustc::__rust_no_alloc_shim_is_unstable_v2
  tail call void @_RNvCsKhRCbHf33p_7___rustc35___rust_no_alloc_shim_is_unstable_v2() #23
; call __rustc::__rust_alloc
  %memory.i.i20 = tail call noundef align 8 ptr @_RNvCsKhRCbHf33p_7___rustc12___rust_alloc(i64 noundef %_5.0.i.i.i, i64 noundef 8) #23
  %8 = icmp eq ptr %memory.i.i20, null
  br i1 %8, label %bb3.i.i, label %_RNvNtCs5dfrY2TkJWl_14unsafe_libyaml3api11yaml_malloc.exit, !prof !2

bb10.i.i:                                         ; preds = %_RNvXs2_NtCs5dfrY2TkJWl_14unsafe_libyaml3opsjNtB5_8ForceAdd9force_add.exit.i.i
; call unsafe_libyaml::ops::die::do_die
  tail call void @_RNvNvNtCs5dfrY2TkJWl_14unsafe_libyaml3ops3die6do_die() #22
  unreachable

bb3.i.i:                                          ; preds = %bb11.i.i
; call alloc::alloc::handle_alloc_error
  tail call void @_RNvNtCsdJPVW0sQgAG_5alloc5alloc18handle_alloc_error(i64 noundef 8, i64 noundef %_5.0.i.i.i) #22
  unreachable

_RNvNtCs5dfrY2TkJWl_14unsafe_libyaml3api11yaml_malloc.exit: ; preds = %bb11.i.i
  store i64 %_5.0.i.i.i, ptr %memory.i.i20, align 8
  %_10.i.i = getelementptr inbounds nuw i8, ptr %memory.i.i20, i64 8
  tail call void @llvm.memcpy.p0.p0.i64(ptr nonnull align 8 %_10.i.i, ptr nonnull align 1 %value, i64 %_29, i1 false)
  %9 = getelementptr i8, ptr %_10.i.i, i64 %_29
  store i8 0, ptr %9, align 1
  %10 = getelementptr inbounds nuw i8, ptr %document, i64 16
  %_43 = load ptr, ptr %10, align 8, !noundef !4
  %11 = getelementptr inbounds nuw i8, ptr %document, i64 8
  %_44 = load ptr, ptr %11, align 8, !noundef !4
  %_42 = icmp eq ptr %_43, %_44
  br i1 %_42, label %bb20, label %bb23

bb30:                                             ; preds = %bb2.i, %bb4, %bb23
  %_0.sroa.0.0 = phi i32 [ %17, %bb23 ], [ 0, %bb4 ], [ 0, %bb2.i ]
  ret i32 %_0.sroa.0.0

bb20:                                             ; preds = %_RNvNtCs5dfrY2TkJWl_14unsafe_libyaml3api11yaml_malloc.exit
  %_5.i = load ptr, ptr %document, align 8, !noundef !4
  %_27.i = ptrtoint ptr %_43 to i64
  %_28.i = ptrtoint ptr %_5.i to i64
  %_26.i = sub i64 %_27.i, %_28.i
  %12 = add i64 %_26.i, 4611686018427387904
  %_6.1.i.i = icmp slt i64 %12, 0
  br i1 %_6.1.i.i, label %bb1.i.i, label %_RNvXs4_NtCs5dfrY2TkJWl_14unsafe_libyaml3opsxNtB5_8ForceMul9force_mul.exit.i, !prof !2

bb1.i.i:                                          ; preds = %bb20
; call unsafe_libyaml::ops::die::<i32>
  tail call fastcc void @_RINvNtCs5dfrY2TkJWl_14unsafe_libyaml3ops3dielEB4_()
  unreachable

_RNvXs4_NtCs5dfrY2TkJWl_14unsafe_libyaml3opsxNtB5_8ForceMul9force_mul.exit.i: ; preds = %bb20
  %_6.0.i.i = shl nsw i64 %_26.i, 1
; call unsafe_libyaml::api::yaml_realloc
  %new_start.i = tail call fastcc noundef ptr @_RNvNtCs5dfrY2TkJWl_14unsafe_libyaml3api12yaml_realloc(ptr noundef %_5.i, i64 noundef %_6.0.i.i)
  %_16.i = load ptr, ptr %10, align 8, !noundef !4
  %_18.i = load ptr, ptr %document, align 8, !noundef !4
  %_30.i = ptrtoint ptr %_16.i to i64
  %_31.i = ptrtoint ptr %_18.i to i64
  %_29.i = sub i64 %_30.i, %_31.i
  %13 = getelementptr i8, ptr %new_start.i, i64 %_29.i
  store ptr %13, ptr %10, align 8
  %_23.i = load ptr, ptr %11, align 8, !noundef !4
  %_35.i = ptrtoint ptr %_23.i to i64
  %_34.i = sub i64 %_35.i, %_31.i
  %14 = add i64 %_34.i, 4611686018427387904
  %_6.1.i3.i = icmp slt i64 %14, 0
  br i1 %_6.1.i3.i, label %bb1.i5.i, label %_RNvNtCs5dfrY2TkJWl_14unsafe_libyaml3api17yaml_stack_extend.exit, !prof !2

bb1.i5.i:                                         ; preds = %_RNvXs4_NtCs5dfrY2TkJWl_14unsafe_libyaml3opsxNtB5_8ForceMul9force_mul.exit.i
; call unsafe_libyaml::ops::die::<i32>
  tail call fastcc void @_RINvNtCs5dfrY2TkJWl_14unsafe_libyaml3ops3dielEB4_()
  unreachable

_RNvNtCs5dfrY2TkJWl_14unsafe_libyaml3api17yaml_stack_extend.exit: ; preds = %_RNvXs4_NtCs5dfrY2TkJWl_14unsafe_libyaml3opsxNtB5_8ForceMul9force_mul.exit.i
  %_6.0.i4.i = shl nsw i64 %_34.i, 1
  %15 = getelementptr i8, ptr %new_start.i, i64 %_6.0.i4.i
  store ptr %15, ptr %11, align 8
  store ptr %new_start.i, ptr %document, align 8
  br label %bb23

bb23:                                             ; preds = %_RNvNtCs5dfrY2TkJWl_14unsafe_libyaml3api11yaml_malloc.exit, %_RNvNtCs5dfrY2TkJWl_14unsafe_libyaml3api17yaml_stack_extend.exit
  %_53 = phi ptr [ %_43, %_RNvNtCs5dfrY2TkJWl_14unsafe_libyaml3api11yaml_malloc.exit ], [ %13, %_RNvNtCs5dfrY2TkJWl_14unsafe_libyaml3api17yaml_stack_extend.exit ]
  store <2 x i32> <i32 1, i32 0>, ptr %_53, align 8
  %node.sroa.611.0._53.sroa_idx = getelementptr inbounds nuw i8, ptr %_53, i64 8
  store ptr %_10.i.i.i, ptr %node.sroa.611.0._53.sroa_idx, align 8
  %node.sroa.7.0._53.sroa_idx = getelementptr inbounds nuw i8, ptr %_53, i64 16
  store ptr %_10.i.i, ptr %node.sroa.7.0._53.sroa_idx, align 8
  %node.sroa.8.0._53.sroa_idx = getelementptr inbounds nuw i8, ptr %_53, i64 24
  store i64 %_29, ptr %node.sroa.8.0._53.sroa_idx, align 8
  %node.sroa.9.0._53.sroa_idx = getelementptr inbounds nuw i8, ptr %_53, i64 32
  store i32 %style, ptr %node.sroa.9.0._53.sroa_idx, align 8
  %node.sroa.10.0._53.sroa_idx = getelementptr inbounds nuw i8, ptr %_53, i64 36
  tail call void @llvm.memset.p0.i64(ptr noundef nonnull align 4 dereferenceable(60) %node.sroa.10.0._53.sroa_idx, i8 0, i64 60, i1 false)
  %_55 = load ptr, ptr %10, align 8, !noundef !4
  %16 = getelementptr i8, ptr %_55, i64 96
  store ptr %16, ptr %10, align 8
  %_58 = load ptr, ptr %document, align 8, !noundef !4
  %_86 = ptrtoint ptr %16 to i64
  %_87 = ptrtoint ptr %_58 to i64
  %_85 = sub i64 %_86, %_87
  %_56 = sdiv i64 %_85, 96
  %17 = trunc i64 %_56 to i32
  br label %bb30
}

; unsafe_libyaml::api::yaml_document_initialize
; Function Attrs: uwtable
define noundef zeroext i1 @_RNvNtCs5dfrY2TkJWl_14unsafe_libyaml3api24yaml_document_initialize(ptr noundef writeonly captures(address_is_null) %document, ptr noundef readonly captures(address_is_null) %version_directive, ptr noundef readonly captures(address) %0, ptr noundef readnone captures(address) %tag_directives_end, i1 noundef zeroext %start_implicit, i1 noundef zeroext %end_implicit) unnamed_addr #1 {
start:
  %1 = icmp eq ptr %document, null
  br i1 %1, label %bb1, label %bb2

bb1:                                              ; preds = %start
; call unsafe_libyaml::externs::__assert_fail
  tail call fastcc void @_RNvNtCs5dfrY2TkJWl_14unsafe_libyaml7externs13___assert_fail(ptr noalias noundef nonnull readonly align 1 captures(address, read_provenance) @alloc_e45e71155ffb8fb480705a3ebbda27cf, i64 noundef 19, ptr noalias noundef nonnull readonly align 1 captures(address, read_provenance) @alloc_b08f38296d5e13f36617fe99ae622e73, i64 noundef 104, i32 noundef 1136) #22
  unreachable

bb2:                                              ; preds = %start
  %2 = icmp ne ptr %0, null
  %3 = icmp ne ptr %tag_directives_end, null
  %or.cond.not34 = and i1 %2, %3
  %_13 = icmp eq ptr %0, %tag_directives_end
  %or.cond5 = or i1 %_13, %or.cond.not34
  br i1 %or.cond5, label %bb9, label %bb8

bb8:                                              ; preds = %bb2
; call unsafe_libyaml::externs::__assert_fail
  tail call fastcc void @_RNvNtCs5dfrY2TkJWl_14unsafe_libyaml7externs13___assert_fail(ptr noalias noundef nonnull readonly align 1 captures(address, read_provenance) @alloc_0fd38837ab1f41bf29dfcc8f78bf6f18, i64 noundef 110, ptr noalias noundef nonnull readonly align 1 captures(address, read_provenance) @alloc_b08f38296d5e13f36617fe99ae622e73, i64 noundef 104, i32 noundef 1137) #22
  unreachable

bb9:                                              ; preds = %bb2
; call __rustc::__rust_no_alloc_shim_is_unstable_v2
  tail call void @_RNvCsKhRCbHf33p_7___rustc35___rust_no_alloc_shim_is_unstable_v2() #23
; call __rustc::__rust_alloc
  %memory.i.i = tail call noundef align 8 dereferenceable_or_null(1544) ptr @_RNvCsKhRCbHf33p_7___rustc12___rust_alloc(i64 noundef 1544, i64 noundef 8) #23
  %4 = icmp eq ptr %memory.i.i, null
  br i1 %4, label %bb3.i.i, label %_RNvNtCs5dfrY2TkJWl_14unsafe_libyaml3api11yaml_malloc.exit, !prof !2

bb3.i.i:                                          ; preds = %bb9
; call alloc::alloc::handle_alloc_error
  tail call void @_RNvNtCsdJPVW0sQgAG_5alloc5alloc18handle_alloc_error(i64 noundef 8, i64 noundef 1544) #22
  unreachable

_RNvNtCs5dfrY2TkJWl_14unsafe_libyaml3api11yaml_malloc.exit: ; preds = %bb9
  store i64 1544, ptr %memory.i.i, align 8
  %_10.i.i = getelementptr inbounds nuw i8, ptr %memory.i.i, i64 8
  %5 = getelementptr inbounds nuw i8, ptr %memory.i.i, i64 1544
  %6 = icmp eq ptr %version_directive, null
  br i1 %6, label %bb14, label %bb12

bb12:                                             ; preds = %_RNvNtCs5dfrY2TkJWl_14unsafe_libyaml3api11yaml_malloc.exit
; call __rustc::__rust_no_alloc_shim_is_unstable_v2
  tail call void @_RNvCsKhRCbHf33p_7___rustc35___rust_no_alloc_shim_is_unstable_v2() #23
; call __rustc::__rust_alloc
  %memory.i.i36 = tail call noundef align 8 dereferenceable_or_null(16) ptr @_RNvCsKhRCbHf33p_7___rustc12___rust_alloc(i64 noundef 16, i64 noundef 8) #23
  %7 = icmp eq ptr %memory.i.i36, null
  br i1 %7, label %bb3.i.i38, label %_RNvNtCs5dfrY2TkJWl_14unsafe_libyaml3api11yaml_malloc.exit39, !prof !2

bb3.i.i38:                                        ; preds = %bb12
; call alloc::alloc::handle_alloc_error
  tail call void @_RNvNtCsdJPVW0sQgAG_5alloc5alloc18handle_alloc_error(i64 noundef 8, i64 noundef 16) #22
  unreachable

_RNvNtCs5dfrY2TkJWl_14unsafe_libyaml3api11yaml_malloc.exit39: ; preds = %bb12
  store i64 16, ptr %memory.i.i36, align 8
  %_10.i.i37 = getelementptr inbounds nuw i8, ptr %memory.i.i36, i64 8
  %8 = load <2 x i32>, ptr %version_directive, align 4
  store <2 x i32> %8, ptr %_10.i.i37, align 8
  br label %bb14

bb14:                                             ; preds = %_RNvNtCs5dfrY2TkJWl_14unsafe_libyaml3api11yaml_malloc.exit, %_RNvNtCs5dfrY2TkJWl_14unsafe_libyaml3api11yaml_malloc.exit39
  %version_directive_copy.sroa.0.0 = phi ptr [ null, %_RNvNtCs5dfrY2TkJWl_14unsafe_libyaml3api11yaml_malloc.exit ], [ %_10.i.i37, %_RNvNtCs5dfrY2TkJWl_14unsafe_libyaml3api11yaml_malloc.exit39 ]
  br i1 %_13, label %bb71, label %bb15

bb15:                                             ; preds = %bb14
; call __rustc::__rust_no_alloc_shim_is_unstable_v2
  tail call void @_RNvCsKhRCbHf33p_7___rustc35___rust_no_alloc_shim_is_unstable_v2() #23
; call __rustc::__rust_alloc
  %memory.i.i40 = tail call noundef align 8 dereferenceable_or_null(264) ptr @_RNvCsKhRCbHf33p_7___rustc12___rust_alloc(i64 noundef 264, i64 noundef 8) #23
  %9 = icmp eq ptr %memory.i.i40, null
  br i1 %9, label %bb3.i.i42, label %bb18.preheader, !prof !2

bb3.i.i42:                                        ; preds = %bb15
; call alloc::alloc::handle_alloc_error
  tail call void @_RNvNtCsdJPVW0sQgAG_5alloc5alloc18handle_alloc_error(i64 noundef 8, i64 noundef 264) #22
  unreachable

bb18.preheader:                                   ; preds = %bb15
  store i64 264, ptr %memory.i.i40, align 8
  %_25 = getelementptr inbounds nuw i8, ptr %memory.i.i40, i64 264
  %_10.i.i41 = getelementptr inbounds nuw i8, ptr %memory.i.i40, i64 8
  br label %bb18

bb71:                                             ; preds = %bb40, %bb14
  %tag_directives_copy.sroa.19.0 = phi ptr [ null, %bb14 ], [ %32, %bb40 ]
  %tag_directives_copy.sroa.0.0 = phi ptr [ null, %bb14 ], [ %tag_directives_copy.sroa.0.2, %bb40 ]
  %10 = getelementptr inbounds nuw i8, ptr %document, i64 50
  tail call void @llvm.memset.p0.i64(ptr noundef nonnull align 1 dereferenceable(6) %10, i8 0, i64 6, i1 false)
  store ptr %_10.i.i, ptr %document, align 8
  %11 = getelementptr inbounds nuw i8, ptr %document, i64 8
  store ptr %5, ptr %11, align 8
  %12 = getelementptr inbounds nuw i8, ptr %document, i64 16
  store ptr %_10.i.i, ptr %12, align 8
  %13 = getelementptr inbounds nuw i8, ptr %document, i64 24
  store ptr %version_directive_copy.sroa.0.0, ptr %13, align 8
  %14 = getelementptr inbounds nuw i8, ptr %document, i64 32
  store ptr %tag_directives_copy.sroa.0.0, ptr %14, align 8
  %15 = getelementptr inbounds nuw i8, ptr %document, i64 40
  store ptr %tag_directives_copy.sroa.19.0, ptr %15, align 8
  %16 = getelementptr inbounds nuw i8, ptr %document, i64 48
  %17 = zext i1 %start_implicit to i8
  store i8 %17, ptr %16, align 8
  %18 = getelementptr inbounds nuw i8, ptr %document, i64 49
  %19 = zext i1 %end_implicit to i8
  store i8 %19, ptr %18, align 1
  %20 = getelementptr inbounds nuw i8, ptr %document, i64 56
  tail call void @llvm.memset.p0.i64(ptr noundef nonnull align 8 dereferenceable(48) %20, i8 0, i64 48, i1 false)
  br label %bb52

bb18:                                             ; preds = %bb18.preheader, %bb40
  %tag_directives_start.sroa.0.0120 = phi ptr [ %33, %bb40 ], [ %0, %bb18.preheader ]
  %tag_directives_copy.sroa.0.1119 = phi ptr [ %tag_directives_copy.sroa.0.2, %bb40 ], [ %_10.i.i41, %bb18.preheader ]
  %tag_directives_copy.sroa.12.0118 = phi ptr [ %tag_directives_copy.sroa.12.1, %bb40 ], [ %_25, %bb18.preheader ]
  %tag_directives_copy.sroa.19.1117 = phi ptr [ %32, %bb40 ], [ %_10.i.i41, %bb18.preheader ]
  %_29 = load ptr, ptr %tag_directives_start.sroa.0.0120, align 8, !noundef !4
  %21 = icmp eq ptr %_29, null
  br i1 %21, label %bb20, label %bb21

bb52:                                             ; preds = %bb2.i77, %_RNvNtCs5dfrY2TkJWl_14unsafe_libyaml3api9yaml_free.exit76, %bb71
  %_0.sroa.0.0.off0 = phi i1 [ true, %bb71 ], [ false, %_RNvNtCs5dfrY2TkJWl_14unsafe_libyaml3api9yaml_free.exit76 ], [ false, %bb2.i77 ]
  ret i1 %_0.sroa.0.0.off0

bb20:                                             ; preds = %bb18
; call unsafe_libyaml::externs::__assert_fail
  tail call fastcc void @_RNvNtCs5dfrY2TkJWl_14unsafe_libyaml7externs13___assert_fail(ptr noalias noundef nonnull readonly align 1 captures(address, read_provenance) @alloc_6a689ead035a17568f868131197cf511, i64 noundef 36, ptr noalias noundef nonnull readonly align 1 captures(address, read_provenance) @alloc_b08f38296d5e13f36617fe99ae622e73, i64 noundef 104, i32 noundef 1157) #22
  unreachable

bb21:                                             ; preds = %bb18
  %22 = getelementptr inbounds nuw i8, ptr %tag_directives_start.sroa.0.0120, i64 8
  %_31 = load ptr, ptr %22, align 8, !noundef !4
  %23 = icmp eq ptr %_31, null
  br i1 %23, label %bb22, label %bb53.preheader

bb53.preheader:                                   ; preds = %bb21
  %strlen = tail call i64 @strlen(ptr noundef nonnull dereferenceable(1) %_29)
; call unsafe_libyaml::api::yaml_check_utf8
  %_35 = tail call fastcc noundef zeroext i1 @_RNvNtCs5dfrY2TkJWl_14unsafe_libyaml3api15yaml_check_utf8(ptr noundef nonnull %_29, i64 noundef %strlen)
  br i1 %_35, label %bb60.preheader, label %bb70

bb22:                                             ; preds = %bb21
; call unsafe_libyaml::externs::__assert_fail
  tail call fastcc void @_RNvNtCs5dfrY2TkJWl_14unsafe_libyaml7externs13___assert_fail(ptr noalias noundef nonnull readonly align 1 captures(address, read_provenance) @alloc_e51f6cb4dffd90450b8e1df85a574357, i64 noundef 36, ptr noalias noundef nonnull readonly align 1 captures(address, read_provenance) @alloc_b08f38296d5e13f36617fe99ae622e73, i64 noundef 104, i32 noundef 1158) #22
  unreachable

bb60.preheader:                                   ; preds = %bb53.preheader
  %strlen155 = tail call i64 @strlen(ptr noundef nonnull dereferenceable(1) %_31)
; call unsafe_libyaml::api::yaml_check_utf8
  %_43 = tail call fastcc noundef zeroext i1 @_RNvNtCs5dfrY2TkJWl_14unsafe_libyaml3api15yaml_check_utf8(ptr noundef nonnull %_31, i64 noundef %strlen155)
  br i1 %_43, label %bb2.i, label %bb70

bb2.i:                                            ; preds = %bb60.preheader
  %strlen.i.i = tail call i64 @strlen(ptr noundef nonnull readonly dereferenceable(1) %_29)
  %_4.i.i = add i64 %strlen.i.i, 1
  %_5.0.i.i.i.i = add i64 %strlen.i.i, 9
  %_5.1.i.i.i.i = icmp ugt i64 %_4.i.i, -9
  br i1 %_5.1.i.i.i.i, label %bb1.i.i.i.i, label %_RNvXs2_NtCs5dfrY2TkJWl_14unsafe_libyaml3opsjNtB5_8ForceAdd9force_add.exit.i.i.i, !prof !2

bb1.i.i.i.i:                                      ; preds = %bb2.i
; call unsafe_libyaml::ops::die::do_die
  tail call void @_RNvNvNtCs5dfrY2TkJWl_14unsafe_libyaml3ops3die6do_die() #22
  unreachable

_RNvXs2_NtCs5dfrY2TkJWl_14unsafe_libyaml3opsjNtB5_8ForceAdd9force_add.exit.i.i.i: ; preds = %bb2.i
  %_12.i.i.i = icmp ugt i64 %_5.0.i.i.i.i, 9223372036854775800
  br i1 %_12.i.i.i, label %bb10.i.i.i, label %bb11.i.i.i, !prof !3

bb11.i.i.i:                                       ; preds = %_RNvXs2_NtCs5dfrY2TkJWl_14unsafe_libyaml3opsjNtB5_8ForceAdd9force_add.exit.i.i.i
; call __rustc::__rust_no_alloc_shim_is_unstable_v2
  tail call void @_RNvCsKhRCbHf33p_7___rustc35___rust_no_alloc_shim_is_unstable_v2() #23
; call __rustc::__rust_alloc
  %memory.i.i.i = tail call noundef align 8 ptr @_RNvCsKhRCbHf33p_7___rustc12___rust_alloc(i64 noundef %_5.0.i.i.i.i, i64 noundef 8) #23
  %24 = icmp eq ptr %memory.i.i.i, null
  br i1 %24, label %bb3.i.i.i, label %_RNvNtCs5dfrY2TkJWl_14unsafe_libyaml3api11yaml_strdup.exit, !prof !2

bb10.i.i.i:                                       ; preds = %_RNvXs2_NtCs5dfrY2TkJWl_14unsafe_libyaml3opsjNtB5_8ForceAdd9force_add.exit.i.i.i
; call unsafe_libyaml::ops::die::do_die
  tail call void @_RNvNvNtCs5dfrY2TkJWl_14unsafe_libyaml3ops3die6do_die() #22
  unreachable

bb3.i.i.i:                                        ; preds = %bb11.i.i.i
; call alloc::alloc::handle_alloc_error
  tail call void @_RNvNtCsdJPVW0sQgAG_5alloc5alloc18handle_alloc_error(i64 noundef 8, i64 noundef %_5.0.i.i.i.i) #22
  unreachable

_RNvNtCs5dfrY2TkJWl_14unsafe_libyaml3api11yaml_strdup.exit: ; preds = %bb11.i.i.i
  store i64 %_5.0.i.i.i.i, ptr %memory.i.i.i, align 8
  %_10.i.i.i = getelementptr inbounds nuw i8, ptr %memory.i.i.i, i64 8
  tail call void @llvm.memcpy.p0.p0.i64(ptr nonnull align 8 %_10.i.i.i, ptr nonnull readonly align 1 %_29, i64 %_4.i.i, i1 false)
  %_54 = load ptr, ptr %22, align 8, !noundef !4
  %25 = icmp eq ptr %_54, null
  br i1 %25, label %bb70, label %bb2.i44

bb2.i44:                                          ; preds = %_RNvNtCs5dfrY2TkJWl_14unsafe_libyaml3api11yaml_strdup.exit
  %strlen.i.i45 = tail call i64 @strlen(ptr noundef nonnull readonly dereferenceable(1) %_54)
  %_4.i.i46 = add i64 %strlen.i.i45, 1
  %_5.0.i.i.i.i47 = add i64 %strlen.i.i45, 9
  %_5.1.i.i.i.i48 = icmp ugt i64 %_4.i.i46, -9
  br i1 %_5.1.i.i.i.i48, label %bb1.i.i.i.i58, label %_RNvXs2_NtCs5dfrY2TkJWl_14unsafe_libyaml3opsjNtB5_8ForceAdd9force_add.exit.i.i.i49, !prof !2

bb1.i.i.i.i58:                                    ; preds = %bb2.i44
; call unsafe_libyaml::ops::die::do_die
  tail call void @_RNvNvNtCs5dfrY2TkJWl_14unsafe_libyaml3ops3die6do_die() #22
  unreachable

_RNvXs2_NtCs5dfrY2TkJWl_14unsafe_libyaml3opsjNtB5_8ForceAdd9force_add.exit.i.i.i49: ; preds = %bb2.i44
  %_12.i.i.i50 = icmp ugt i64 %_5.0.i.i.i.i47, 9223372036854775800
  br i1 %_12.i.i.i50, label %bb10.i.i.i57, label %bb11.i.i.i51, !prof !3

bb11.i.i.i51:                                     ; preds = %_RNvXs2_NtCs5dfrY2TkJWl_14unsafe_libyaml3opsjNtB5_8ForceAdd9force_add.exit.i.i.i49
; call __rustc::__rust_no_alloc_shim_is_unstable_v2
  tail call void @_RNvCsKhRCbHf33p_7___rustc35___rust_no_alloc_shim_is_unstable_v2() #23
; call __rustc::__rust_alloc
  %memory.i.i.i52 = tail call noundef align 8 ptr @_RNvCsKhRCbHf33p_7___rustc12___rust_alloc(i64 noundef %_5.0.i.i.i.i47, i64 noundef 8) #23
  %26 = icmp eq ptr %memory.i.i.i52, null
  br i1 %26, label %bb3.i.i.i56, label %_RNvNtCs5dfrY2TkJWl_14unsafe_libyaml3api11yaml_strdup.exit59, !prof !2

bb10.i.i.i57:                                     ; preds = %_RNvXs2_NtCs5dfrY2TkJWl_14unsafe_libyaml3opsjNtB5_8ForceAdd9force_add.exit.i.i.i49
; call unsafe_libyaml::ops::die::do_die
  tail call void @_RNvNvNtCs5dfrY2TkJWl_14unsafe_libyaml3ops3die6do_die() #22
  unreachable

bb3.i.i.i56:                                      ; preds = %bb11.i.i.i51
; call alloc::alloc::handle_alloc_error
  tail call void @_RNvNtCsdJPVW0sQgAG_5alloc5alloc18handle_alloc_error(i64 noundef 8, i64 noundef %_5.0.i.i.i.i47) #22
  unreachable

_RNvNtCs5dfrY2TkJWl_14unsafe_libyaml3api11yaml_strdup.exit59: ; preds = %bb11.i.i.i51
  store i64 %_5.0.i.i.i.i47, ptr %memory.i.i.i52, align 8
  %_10.i.i.i54 = getelementptr inbounds nuw i8, ptr %memory.i.i.i52, i64 8
  tail call void @llvm.memcpy.p0.p0.i64(ptr nonnull align 8 %_10.i.i.i54, ptr nonnull readonly align 1 %_54, i64 %_4.i.i46, i1 false)
  %_57 = icmp eq ptr %tag_directives_copy.sroa.19.1117, %tag_directives_copy.sroa.12.0118
  br i1 %_57, label %bb37, label %bb40

bb70:                                             ; preds = %_RNvNtCs5dfrY2TkJWl_14unsafe_libyaml3api11yaml_strdup.exit, %bb60.preheader, %bb53.preheader
  %value.sroa.0.1 = phi ptr [ null, %bb53.preheader ], [ null, %bb60.preheader ], [ %_10.i.i.i, %_RNvNtCs5dfrY2TkJWl_14unsafe_libyaml3api11yaml_strdup.exit ]
  %size.i.i = load i64, ptr %memory.i.i, align 8, !noundef !4
; call __rustc::__rust_dealloc
  tail call void @_RNvCsKhRCbHf33p_7___rustc14___rust_dealloc(ptr noundef nonnull %memory.i.i, i64 noundef %size.i.i, i64 noundef 8) #23
  %27 = icmp eq ptr %version_directive_copy.sroa.0.0, null
  br i1 %27, label %_RNvNtCs5dfrY2TkJWl_14unsafe_libyaml3api9yaml_free.exit, label %bb2.i62

bb2.i62:                                          ; preds = %bb70
  %memory.i.i63 = getelementptr inbounds i8, ptr %version_directive_copy.sroa.0.0, i64 -8
  %size.i.i64 = load i64, ptr %memory.i.i63, align 8, !noundef !4
; call __rustc::__rust_dealloc
  tail call void @_RNvCsKhRCbHf33p_7___rustc14___rust_dealloc(ptr noundef nonnull %memory.i.i63, i64 noundef %size.i.i64, i64 noundef 8) #23
  br label %_RNvNtCs5dfrY2TkJWl_14unsafe_libyaml3api9yaml_free.exit

_RNvNtCs5dfrY2TkJWl_14unsafe_libyaml3api9yaml_free.exit: ; preds = %bb70, %bb2.i62
  %_84122 = icmp eq ptr %tag_directives_copy.sroa.0.1119, %tag_directives_copy.sroa.19.1117
  br i1 %_84122, label %bb45, label %bb46

bb37:                                             ; preds = %_RNvNtCs5dfrY2TkJWl_14unsafe_libyaml3api11yaml_strdup.exit59
  %_27.i = ptrtoint ptr %tag_directives_copy.sroa.12.0118 to i64
  %_28.i = ptrtoint ptr %tag_directives_copy.sroa.0.1119 to i64
  %_26.i = sub i64 %_27.i, %_28.i
  %28 = add i64 %_26.i, 4611686018427387904
  %_6.1.i.i = icmp slt i64 %28, 0
  br i1 %_6.1.i.i, label %bb1.i.i, label %_RNvNtCs5dfrY2TkJWl_14unsafe_libyaml3api17yaml_stack_extend.exit, !prof !2

bb1.i.i:                                          ; preds = %bb37
; call unsafe_libyaml::ops::die::<i32>
  tail call fastcc void @_RINvNtCs5dfrY2TkJWl_14unsafe_libyaml3ops3dielEB4_()
  unreachable

_RNvNtCs5dfrY2TkJWl_14unsafe_libyaml3api17yaml_stack_extend.exit: ; preds = %bb37
  %_6.0.i.i = shl nsw i64 %_26.i, 1
; call unsafe_libyaml::api::yaml_realloc
  %new_start.i = tail call fastcc noundef ptr @_RNvNtCs5dfrY2TkJWl_14unsafe_libyaml3api12yaml_realloc(ptr noundef %tag_directives_copy.sroa.0.1119, i64 noundef %_6.0.i.i)
  %29 = getelementptr i8, ptr %new_start.i, i64 %_26.i
  %30 = getelementptr i8, ptr %new_start.i, i64 %_6.0.i.i
  br label %bb40

bb40:                                             ; preds = %_RNvNtCs5dfrY2TkJWl_14unsafe_libyaml3api11yaml_strdup.exit59, %_RNvNtCs5dfrY2TkJWl_14unsafe_libyaml3api17yaml_stack_extend.exit
  %tag_directives_copy.sroa.19.2 = phi ptr [ %29, %_RNvNtCs5dfrY2TkJWl_14unsafe_libyaml3api17yaml_stack_extend.exit ], [ %tag_directives_copy.sroa.19.1117, %_RNvNtCs5dfrY2TkJWl_14unsafe_libyaml3api11yaml_strdup.exit59 ]
  %tag_directives_copy.sroa.12.1 = phi ptr [ %30, %_RNvNtCs5dfrY2TkJWl_14unsafe_libyaml3api17yaml_stack_extend.exit ], [ %tag_directives_copy.sroa.12.0118, %_RNvNtCs5dfrY2TkJWl_14unsafe_libyaml3api11yaml_strdup.exit59 ]
  %tag_directives_copy.sroa.0.2 = phi ptr [ %new_start.i, %_RNvNtCs5dfrY2TkJWl_14unsafe_libyaml3api17yaml_stack_extend.exit ], [ %tag_directives_copy.sroa.0.1119, %_RNvNtCs5dfrY2TkJWl_14unsafe_libyaml3api11yaml_strdup.exit59 ]
  store ptr %_10.i.i.i, ptr %tag_directives_copy.sroa.19.2, align 8
  %31 = getelementptr inbounds nuw i8, ptr %tag_directives_copy.sroa.19.2, i64 8
  store ptr %_10.i.i.i54, ptr %31, align 8
  %32 = getelementptr i8, ptr %tag_directives_copy.sroa.19.2, i64 16
  %33 = getelementptr i8, ptr %tag_directives_start.sroa.0.0120, i64 16
  %_27.not = icmp eq ptr %33, %tag_directives_end
  br i1 %_27.not, label %bb71, label %bb18

bb46:                                             ; preds = %_RNvNtCs5dfrY2TkJWl_14unsafe_libyaml3api9yaml_free.exit, %_RNvNtCs5dfrY2TkJWl_14unsafe_libyaml3api9yaml_free.exit72
  %tag_directives_copy.sroa.19.3123 = phi ptr [ %_88, %_RNvNtCs5dfrY2TkJWl_14unsafe_libyaml3api9yaml_free.exit72 ], [ %tag_directives_copy.sroa.19.1117, %_RNvNtCs5dfrY2TkJWl_14unsafe_libyaml3api9yaml_free.exit ]
  %_88 = getelementptr inbounds i8, ptr %tag_directives_copy.sroa.19.3123, i64 -16
  %value3 = load ptr, ptr %_88, align 8, !noundef !4
  %34 = getelementptr inbounds i8, ptr %tag_directives_copy.sroa.19.3123, i64 -8
  %value4 = load ptr, ptr %34, align 8, !noundef !4
  %35 = icmp eq ptr %value3, null
  br i1 %35, label %_RNvNtCs5dfrY2TkJWl_14unsafe_libyaml3api9yaml_free.exit68, label %bb2.i65

bb2.i65:                                          ; preds = %bb46
  %memory.i.i66 = getelementptr inbounds i8, ptr %value3, i64 -8
  %size.i.i67 = load i64, ptr %memory.i.i66, align 8, !noundef !4
; call __rustc::__rust_dealloc
  tail call void @_RNvCsKhRCbHf33p_7___rustc14___rust_dealloc(ptr noundef nonnull %memory.i.i66, i64 noundef %size.i.i67, i64 noundef 8) #23
  br label %_RNvNtCs5dfrY2TkJWl_14unsafe_libyaml3api9yaml_free.exit68

_RNvNtCs5dfrY2TkJWl_14unsafe_libyaml3api9yaml_free.exit68: ; preds = %bb46, %bb2.i65
  %36 = icmp eq ptr %value4, null
  br i1 %36, label %_RNvNtCs5dfrY2TkJWl_14unsafe_libyaml3api9yaml_free.exit72, label %bb2.i69

bb2.i69:                                          ; preds = %_RNvNtCs5dfrY2TkJWl_14unsafe_libyaml3api9yaml_free.exit68
  %memory.i.i70 = getelementptr inbounds i8, ptr %value4, i64 -8
  %size.i.i71 = load i64, ptr %memory.i.i70, align 8, !noundef !4
; call __rustc::__rust_dealloc
  tail call void @_RNvCsKhRCbHf33p_7___rustc14___rust_dealloc(ptr noundef nonnull %memory.i.i70, i64 noundef %size.i.i71, i64 noundef 8) #23
  br label %_RNvNtCs5dfrY2TkJWl_14unsafe_libyaml3api9yaml_free.exit72

_RNvNtCs5dfrY2TkJWl_14unsafe_libyaml3api9yaml_free.exit72: ; preds = %_RNvNtCs5dfrY2TkJWl_14unsafe_libyaml3api9yaml_free.exit68, %bb2.i69
  %_84 = icmp eq ptr %tag_directives_copy.sroa.0.1119, %_88
  br i1 %_84, label %bb45, label %bb46

bb45:                                             ; preds = %_RNvNtCs5dfrY2TkJWl_14unsafe_libyaml3api9yaml_free.exit72, %_RNvNtCs5dfrY2TkJWl_14unsafe_libyaml3api9yaml_free.exit
  %37 = icmp eq ptr %tag_directives_copy.sroa.0.1119, null
  br i1 %37, label %_RNvNtCs5dfrY2TkJWl_14unsafe_libyaml3api9yaml_free.exit76, label %bb2.i73

bb2.i73:                                          ; preds = %bb45
  %memory.i.i74 = getelementptr inbounds i8, ptr %tag_directives_copy.sroa.0.1119, i64 -8
  %size.i.i75 = load i64, ptr %memory.i.i74, align 8, !noundef !4
; call __rustc::__rust_dealloc
  tail call void @_RNvCsKhRCbHf33p_7___rustc14___rust_dealloc(ptr noundef nonnull %memory.i.i74, i64 noundef %size.i.i75, i64 noundef 8) #23
  br label %_RNvNtCs5dfrY2TkJWl_14unsafe_libyaml3api9yaml_free.exit76

_RNvNtCs5dfrY2TkJWl_14unsafe_libyaml3api9yaml_free.exit76: ; preds = %bb45, %bb2.i73
  %38 = icmp eq ptr %value.sroa.0.1, null
  br i1 %38, label %bb52, label %bb2.i77

bb2.i77:                                          ; preds = %_RNvNtCs5dfrY2TkJWl_14unsafe_libyaml3api9yaml_free.exit76
  %memory.i.i78 = getelementptr inbounds i8, ptr %value.sroa.0.1, i64 -8
  %size.i.i79 = load i64, ptr %memory.i.i78, align 8, !noundef !4
; call __rustc::__rust_dealloc
  tail call void @_RNvCsKhRCbHf33p_7___rustc14___rust_dealloc(ptr noundef nonnull %memory.i.i78, i64 noundef %size.i.i79, i64 noundef 8) #23
  br label %bb52
}

; unsafe_libyaml::api::yaml_emitter_set_unicode
; Function Attrs: uwtable
define void @_RNvNtCs5dfrY2TkJWl_14unsafe_libyaml3api24yaml_emitter_set_unicode(ptr noundef writeonly captures(address_is_null) %emitter, i1 noundef zeroext %unicode) unnamed_addr #1 {
start:
  %0 = icmp eq ptr %emitter, null
  br i1 %0, label %bb1, label %bb2

bb1:                                              ; preds = %start
; call unsafe_libyaml::externs::__assert_fail
  tail call fastcc void @_RNvNtCs5dfrY2TkJWl_14unsafe_libyaml7externs13___assert_fail(ptr noalias noundef nonnull readonly align 1 captures(address, read_provenance) @alloc_7865fdc37ad19b9b919293c34549431b, i64 noundef 18, ptr noalias noundef nonnull readonly align 1 captures(address, read_provenance) @alloc_b08f38296d5e13f36617fe99ae622e73, i64 noundef 104, i32 noundef 457) #22
  unreachable

bb2:                                              ; preds = %start
  %1 = getelementptr inbounds nuw i8, ptr %emitter, i64 136
  %2 = zext i1 %unicode to i8
  store i8 %2, ptr %1, align 8
  ret void
}

; unsafe_libyaml::api::yaml_parser_set_encoding
; Function Attrs: uwtable
define void @_RNvNtCs5dfrY2TkJWl_14unsafe_libyaml3api24yaml_parser_set_encoding(ptr noundef captures(address_is_null) %parser, i32 noundef range(i32 0, 4) %encoding) unnamed_addr #1 {
start:
  %0 = icmp eq ptr %parser, null
  br i1 %0, label %bb1, label %bb2

bb1:                                              ; preds = %start
; call unsafe_libyaml::externs::__assert_fail
  tail call fastcc void @_RNvNtCs5dfrY2TkJWl_14unsafe_libyaml7externs13___assert_fail(ptr noalias noundef nonnull readonly align 1 captures(address, read_provenance) @alloc_3674ecaf25ea6757494f22e340a7ddb2, i64 noundef 17, ptr noalias noundef nonnull readonly align 1 captures(address, read_provenance) @alloc_b08f38296d5e13f36617fe99ae622e73, i64 noundef 104, i32 noundef 290) #22
  unreachable

bb2:                                              ; preds = %start
  %1 = getelementptr inbounds nuw i8, ptr %parser, i64 208
  %_6 = load i32, ptr %1, align 8, !range !7, !noundef !4
  %2 = icmp eq i32 %_6, 0
  br i1 %2, label %bb3, label %bb4

bb3:                                              ; preds = %bb2
  store i32 %encoding, ptr %1, align 8
  ret void

bb4:                                              ; preds = %bb2
; call unsafe_libyaml::externs::__assert_fail
  tail call fastcc void @_RNvNtCs5dfrY2TkJWl_14unsafe_libyaml7externs13___assert_fail(ptr noalias noundef nonnull readonly align 1 captures(address, read_provenance) @alloc_7d9b0fbeec17271598ba47aa910a3b7b, i64 noundef 39, ptr noalias noundef nonnull readonly align 1 captures(address, read_provenance) @alloc_b08f38296d5e13f36617fe99ae622e73, i64 noundef 104, i32 noundef 291) #22
  unreachable
}

; unsafe_libyaml::api::yaml_string_read_handler
; Function Attrs: mustprogress nofree norecurse nosync nounwind willreturn memory(readwrite, inaccessiblemem: none) uwtable
define internal noundef i32 @_RNvNtCs5dfrY2TkJWl_14unsafe_libyaml3api24yaml_string_read_handler(ptr noundef captures(none) %data, ptr noundef writeonly captures(none) %buffer, i64 noundef %0, ptr noundef writeonly captures(none) initializes((0, 8)) %size_read) unnamed_addr #3 {
start:
  %1 = getelementptr inbounds nuw i8, ptr %data, i64 120
  %_7 = load ptr, ptr %1, align 8, !noundef !4
  %2 = getelementptr inbounds nuw i8, ptr %data, i64 112
  %_8 = load ptr, ptr %2, align 8, !noundef !4
  %_6 = icmp eq ptr %_7, %_8
  br i1 %_6, label %bb6, label %bb2

bb2:                                              ; preds = %start
  %_24 = ptrtoint ptr %_8 to i64
  %_25 = ptrtoint ptr %_7 to i64
  %_23 = sub i64 %_24, %_25
  %spec.select = tail call i64 @llvm.umin.i64(i64 %0, i64 %_23)
  tail call void @llvm.memcpy.p0.p0.i64(ptr align 1 %buffer, ptr align 1 %_7, i64 %spec.select, i1 false)
  %_20 = load ptr, ptr %1, align 8, !noundef !4
  %3 = getelementptr i8, ptr %_20, i64 %spec.select
  store ptr %3, ptr %1, align 8
  br label %bb6

bb6:                                              ; preds = %start, %bb2
  %storemerge = phi i64 [ %spec.select, %bb2 ], [ 0, %start ]
  store i64 %storemerge, ptr %size_read, align 8
  ret i32 1
}

; unsafe_libyaml::api::yaml_document_add_mapping
; Function Attrs: uwtable
define noundef i32 @_RNvNtCs5dfrY2TkJWl_14unsafe_libyaml3api25yaml_document_add_mapping(ptr noundef captures(address_is_null) %document, ptr noundef readonly captures(address) %0, i32 noundef range(i32 0, 3) %style) unnamed_addr #1 {
start:
  %1 = icmp eq ptr %document, null
  br i1 %1, label %bb1, label %bb2

bb1:                                              ; preds = %start
; call unsafe_libyaml::externs::__assert_fail
  tail call fastcc void @_RNvNtCs5dfrY2TkJWl_14unsafe_libyaml7externs13___assert_fail(ptr noalias noundef nonnull readonly align 1 captures(address, read_provenance) @alloc_e45e71155ffb8fb480705a3ebbda27cf, i64 noundef 19, ptr noalias noundef nonnull readonly align 1 captures(address, read_provenance) @alloc_b08f38296d5e13f36617fe99ae622e73, i64 noundef 104, i32 noundef 1457) #22
  unreachable

bb2:                                              ; preds = %start
  %2 = icmp eq ptr %0, null
  %spec.store.select = select i1 %2, ptr @alloc_5f557dec184b5e95782c84ffd81de457, ptr %0
  %strlen = tail call i64 @strlen(ptr noundef nonnull dereferenceable(1) %spec.store.select)
; call unsafe_libyaml::api::yaml_check_utf8
  %_12 = tail call fastcc noundef zeroext i1 @_RNvNtCs5dfrY2TkJWl_14unsafe_libyaml3api15yaml_check_utf8(ptr noundef nonnull %spec.store.select, i64 noundef %strlen)
  br i1 %_12, label %bb7, label %bb20

bb7:                                              ; preds = %bb2
  %strlen.i.i = tail call i64 @strlen(ptr noundef nonnull readonly dereferenceable(1) %spec.store.select)
  %_4.i.i = add i64 %strlen.i.i, 1
  %_5.0.i.i.i.i = add i64 %strlen.i.i, 9
  %_5.1.i.i.i.i = icmp ugt i64 %_4.i.i, -9
  br i1 %_5.1.i.i.i.i, label %bb1.i.i.i.i, label %_RNvXs2_NtCs5dfrY2TkJWl_14unsafe_libyaml3opsjNtB5_8ForceAdd9force_add.exit.i.i.i, !prof !2

bb1.i.i.i.i:                                      ; preds = %bb7
; call unsafe_libyaml::ops::die::do_die
  tail call void @_RNvNvNtCs5dfrY2TkJWl_14unsafe_libyaml3ops3die6do_die() #22
  unreachable

_RNvXs2_NtCs5dfrY2TkJWl_14unsafe_libyaml3opsjNtB5_8ForceAdd9force_add.exit.i.i.i: ; preds = %bb7
  %_12.i.i.i = icmp ugt i64 %_5.0.i.i.i.i, 9223372036854775800
  br i1 %_12.i.i.i, label %bb10.i.i.i, label %bb11.i.i.i, !prof !3

bb11.i.i.i:                                       ; preds = %_RNvXs2_NtCs5dfrY2TkJWl_14unsafe_libyaml3opsjNtB5_8ForceAdd9force_add.exit.i.i.i
; call __rustc::__rust_no_alloc_shim_is_unstable_v2
  tail call void @_RNvCsKhRCbHf33p_7___rustc35___rust_no_alloc_shim_is_unstable_v2() #23
; call __rustc::__rust_alloc
  %memory.i.i.i = tail call noundef align 8 ptr @_RNvCsKhRCbHf33p_7___rustc12___rust_alloc(i64 noundef %_5.0.i.i.i.i, i64 noundef 8) #23
  %3 = icmp eq ptr %memory.i.i.i, null
  br i1 %3, label %bb3.i.i.i, label %bb10, !prof !2

bb10.i.i.i:                                       ; preds = %_RNvXs2_NtCs5dfrY2TkJWl_14unsafe_libyaml3opsjNtB5_8ForceAdd9force_add.exit.i.i.i
; call unsafe_libyaml::ops::die::do_die
  tail call void @_RNvNvNtCs5dfrY2TkJWl_14unsafe_libyaml3ops3die6do_die() #22
  unreachable

bb3.i.i.i:                                        ; preds = %bb11.i.i.i
; call alloc::alloc::handle_alloc_error
  tail call void @_RNvNtCsdJPVW0sQgAG_5alloc5alloc18handle_alloc_error(i64 noundef 8, i64 noundef %_5.0.i.i.i.i) #22
  unreachable

bb10:                                             ; preds = %bb11.i.i.i
  store i64 %_5.0.i.i.i.i, ptr %memory.i.i.i, align 8
  %_10.i.i.i = getelementptr inbounds nuw i8, ptr %memory.i.i.i, i64 8
  tail call void @llvm.memcpy.p0.p0.i64(ptr nonnull align 8 %_10.i.i.i, ptr nonnull readonly align 1 %spec.store.select, i64 %_4.i.i, i1 false)
; call __rustc::__rust_no_alloc_shim_is_unstable_v2
  tail call void @_RNvCsKhRCbHf33p_7___rustc35___rust_no_alloc_shim_is_unstable_v2() #23
; call __rustc::__rust_alloc
  %memory.i.i14 = tail call noundef align 8 dereferenceable_or_null(136) ptr @_RNvCsKhRCbHf33p_7___rustc12___rust_alloc(i64 noundef 136, i64 noundef 8) #23
  %4 = icmp eq ptr %memory.i.i14, null
  br i1 %4, label %bb3.i.i, label %_RNvNtCs5dfrY2TkJWl_14unsafe_libyaml3api11yaml_malloc.exit, !prof !2

bb3.i.i:                                          ; preds = %bb10
; call alloc::alloc::handle_alloc_error
  tail call void @_RNvNtCsdJPVW0sQgAG_5alloc5alloc18handle_alloc_error(i64 noundef 8, i64 noundef 136) #22
  unreachable

_RNvNtCs5dfrY2TkJWl_14unsafe_libyaml3api11yaml_malloc.exit: ; preds = %bb10
  store i64 136, ptr %memory.i.i14, align 8
  %_10.i.i = getelementptr inbounds nuw i8, ptr %memory.i.i14, i64 8
  %5 = getelementptr inbounds nuw i8, ptr %memory.i.i14, i64 136
  %6 = getelementptr inbounds nuw i8, ptr %document, i64 16
  %_25 = load ptr, ptr %6, align 8, !noundef !4
  %7 = getelementptr inbounds nuw i8, ptr %document, i64 8
  %_26 = load ptr, ptr %7, align 8, !noundef !4
  %_24 = icmp eq ptr %_25, %_26
  br i1 %_24, label %bb12, label %bb15

bb20:                                             ; preds = %bb2, %bb15
  %_0.sroa.0.0 = phi i32 [ %13, %bb15 ], [ 0, %bb2 ]
  ret i32 %_0.sroa.0.0

bb12:                                             ; preds = %_RNvNtCs5dfrY2TkJWl_14unsafe_libyaml3api11yaml_malloc.exit
  %_5.i = load ptr, ptr %document, align 8, !noundef !4
  %_27.i = ptrtoint ptr %_25 to i64
  %_28.i = ptrtoint ptr %_5.i to i64
  %_26.i = sub i64 %_27.i, %_28.i
  %8 = add i64 %_26.i, 4611686018427387904
  %_6.1.i.i = icmp slt i64 %8, 0
  br i1 %_6.1.i.i, label %bb1.i.i, label %_RNvXs4_NtCs5dfrY2TkJWl_14unsafe_libyaml3opsxNtB5_8ForceMul9force_mul.exit.i, !prof !2

bb1.i.i:                                          ; preds = %bb12
; call unsafe_libyaml::ops::die::<i32>
  tail call fastcc void @_RINvNtCs5dfrY2TkJWl_14unsafe_libyaml3ops3dielEB4_()
  unreachable

_RNvXs4_NtCs5dfrY2TkJWl_14unsafe_libyaml3opsxNtB5_8ForceMul9force_mul.exit.i: ; preds = %bb12
  %_6.0.i.i = shl nsw i64 %_26.i, 1
; call unsafe_libyaml::api::yaml_realloc
  %new_start.i = tail call fastcc noundef ptr @_RNvNtCs5dfrY2TkJWl_14unsafe_libyaml3api12yaml_realloc(ptr noundef %_5.i, i64 noundef %_6.0.i.i)
  %_16.i = load ptr, ptr %6, align 8, !noundef !4
  %_18.i = load ptr, ptr %document, align 8, !noundef !4
  %_30.i = ptrtoint ptr %_16.i to i64
  %_31.i = ptrtoint ptr %_18.i to i64
  %_29.i = sub i64 %_30.i, %_31.i
  %9 = getelementptr i8, ptr %new_start.i, i64 %_29.i
  store ptr %9, ptr %6, align 8
  %_23.i = load ptr, ptr %7, align 8, !noundef !4
  %_35.i = ptrtoint ptr %_23.i to i64
  %_34.i = sub i64 %_35.i, %_31.i
  %10 = add i64 %_34.i, 4611686018427387904
  %_6.1.i3.i = icmp slt i64 %10, 0
  br i1 %_6.1.i3.i, label %bb1.i5.i, label %_RNvNtCs5dfrY2TkJWl_14unsafe_libyaml3api17yaml_stack_extend.exit, !prof !2

bb1.i5.i:                                         ; preds = %_RNvXs4_NtCs5dfrY2TkJWl_14unsafe_libyaml3opsxNtB5_8ForceMul9force_mul.exit.i
; call unsafe_libyaml::ops::die::<i32>
  tail call fastcc void @_RINvNtCs5dfrY2TkJWl_14unsafe_libyaml3ops3dielEB4_()
  unreachable

_RNvNtCs5dfrY2TkJWl_14unsafe_libyaml3api17yaml_stack_extend.exit: ; preds = %_RNvXs4_NtCs5dfrY2TkJWl_14unsafe_libyaml3opsxNtB5_8ForceMul9force_mul.exit.i
  %_6.0.i4.i = shl nsw i64 %_34.i, 1
  %11 = getelementptr i8, ptr %new_start.i, i64 %_6.0.i4.i
  store ptr %11, ptr %7, align 8
  store ptr %new_start.i, ptr %document, align 8
  br label %bb15

bb15:                                             ; preds = %_RNvNtCs5dfrY2TkJWl_14unsafe_libyaml3api11yaml_malloc.exit, %_RNvNtCs5dfrY2TkJWl_14unsafe_libyaml3api17yaml_stack_extend.exit
  %_35 = phi ptr [ %_25, %_RNvNtCs5dfrY2TkJWl_14unsafe_libyaml3api11yaml_malloc.exit ], [ %9, %_RNvNtCs5dfrY2TkJWl_14unsafe_libyaml3api17yaml_stack_extend.exit ]
  store <2 x i32> <i32 3, i32 0>, ptr %_35, align 8
  %node.sroa.68.0._35.sroa_idx = getelementptr inbounds nuw i8, ptr %_35, i64 8
  store ptr %_10.i.i.i, ptr %node.sroa.68.0._35.sroa_idx, align 8
  %node.sroa.7.0._35.sroa_idx = getelementptr inbounds nuw i8, ptr %_35, i64 16
  store ptr %_10.i.i, ptr %node.sroa.7.0._35.sroa_idx, align 8
  %node.sroa.8.0._35.sroa_idx = getelementptr inbounds nuw i8, ptr %_35, i64 24
  store ptr %5, ptr %node.sroa.8.0._35.sroa_idx, align 8
  %node.sroa.9.0._35.sroa_idx = getelementptr inbounds nuw i8, ptr %_35, i64 32
  store ptr %_10.i.i, ptr %node.sroa.9.0._35.sroa_idx, align 8
  %node.sroa.10.0._35.sroa_idx = getelementptr inbounds nuw i8, ptr %_35, i64 40
  store i32 %style, ptr %node.sroa.10.0._35.sroa_idx, align 8
  %node.sroa.11.0._35.sroa_idx = getelementptr inbounds nuw i8, ptr %_35, i64 44
  tail call void @llvm.memset.p0.i64(ptr noundef nonnull align 4 dereferenceable(52) %node.sroa.11.0._35.sroa_idx, i8 0, i64 52, i1 false)
  %_37 = load ptr, ptr %6, align 8, !noundef !4
  %12 = getelementptr i8, ptr %_37, i64 96
  store ptr %12, ptr %6, align 8
  %_40 = load ptr, ptr %document, align 8, !noundef !4
  %_58 = ptrtoint ptr %12 to i64
  %_59 = ptrtoint ptr %_40 to i64
  %_57 = sub i64 %_58, %_59
  %_38 = sdiv i64 %_57, 96
  %13 = trunc i64 %_38 to i32
  br label %bb20
}

; unsafe_libyaml::api::yaml_emitter_set_encoding
; Function Attrs: uwtable
define void @_RNvNtCs5dfrY2TkJWl_14unsafe_libyaml3api25yaml_emitter_set_encoding(ptr noundef captures(address_is_null) %emitter, i32 noundef range(i32 0, 4) %encoding) unnamed_addr #1 {
start:
  %0 = icmp eq ptr %emitter, null
  br i1 %0, label %bb1, label %bb2

bb1:                                              ; preds = %start
; call unsafe_libyaml::externs::__assert_fail
  tail call fastcc void @_RNvNtCs5dfrY2TkJWl_14unsafe_libyaml7externs13___assert_fail(ptr noalias noundef nonnull readonly align 1 captures(address, read_provenance) @alloc_7865fdc37ad19b9b919293c34549431b, i64 noundef 18, ptr noalias noundef nonnull readonly align 1 captures(address, read_provenance) @alloc_b08f38296d5e13f36617fe99ae622e73, i64 noundef 104, i32 noundef 431) #22
  unreachable

bb2:                                              ; preds = %start
  %1 = getelementptr inbounds nuw i8, ptr %emitter, i64 120
  %_6 = load i32, ptr %1, align 8, !range !7, !noundef !4
  %2 = icmp eq i32 %_6, 0
  br i1 %2, label %bb3, label %bb4

bb3:                                              ; preds = %bb2
  store i32 %encoding, ptr %1, align 8
  ret void

bb4:                                              ; preds = %bb2
; call unsafe_libyaml::externs::__assert_fail
  tail call fastcc void @_RNvNtCs5dfrY2TkJWl_14unsafe_libyaml7externs13___assert_fail(ptr noalias noundef nonnull readonly align 1 captures(address, read_provenance) @alloc_278e79b03bee0e44e69fd5672be31de8, i64 noundef 40, ptr noalias noundef nonnull readonly align 1 captures(address, read_provenance) @alloc_b08f38296d5e13f36617fe99ae622e73, i64 noundef 104, i32 noundef 432) #22
  unreachable
}

; unsafe_libyaml::api::yaml_string_write_handler
; Function Attrs: uwtable
define internal noundef range(i32 0, 2) i32 @_RNvNtCs5dfrY2TkJWl_14unsafe_libyaml3api25yaml_string_write_handler(ptr noundef readonly captures(none) %data, ptr noundef readonly captures(none) %buffer, i64 noundef %size) unnamed_addr #1 {
start:
  %0 = getelementptr inbounds nuw i8, ptr %data, i64 32
  %1 = getelementptr inbounds nuw i8, ptr %data, i64 40
  %_7 = load i64, ptr %1, align 8, !noundef !4
  %2 = getelementptr inbounds nuw i8, ptr %data, i64 48
  %_21 = load ptr, ptr %2, align 8, !noundef !4
  %_8 = load i64, ptr %_21, align 8, !noundef !4
  %_6 = sub i64 %_7, %_8
  %_5 = icmp ult i64 %_6, %size
  %_9 = load ptr, ptr %0, align 8, !noundef !4
  %3 = getelementptr i8, ptr %_9, i64 %_8
  br i1 %_5, label %bb1, label %bb2

bb2:                                              ; preds = %start
  tail call void @llvm.memcpy.p0.p0.i64(ptr align 1 %3, ptr align 1 %buffer, i64 %size, i1 false)
  %fresh153 = load ptr, ptr %2, align 8, !noundef !4
  %_20 = load i64, ptr %fresh153, align 8, !noundef !4
  %_5.0.i = add i64 %_20, %size
  %_5.1.i = icmp ult i64 %_5.0.i, %_20
  br i1 %_5.1.i, label %bb1.i, label %_RNvXs1_NtCs5dfrY2TkJWl_14unsafe_libyaml3opsyNtB5_8ForceAdd9force_add.exit, !prof !2

bb1.i:                                            ; preds = %bb2
; call unsafe_libyaml::ops::die::do_die
  tail call void @_RNvNvNtCs5dfrY2TkJWl_14unsafe_libyaml3ops3die6do_die() #22
  unreachable

_RNvXs1_NtCs5dfrY2TkJWl_14unsafe_libyaml3opsyNtB5_8ForceAdd9force_add.exit: ; preds = %bb2
  store i64 %_5.0.i, ptr %fresh153, align 8
  br label %bb4

bb1:                                              ; preds = %start
  tail call void @llvm.memcpy.p0.p0.i64(ptr align 1 %3, ptr align 1 %buffer, i64 %_6, i1 false)
  %_15 = load i64, ptr %1, align 8, !noundef !4
  %_24 = load ptr, ptr %2, align 8, !noundef !4
  store i64 %_15, ptr %_24, align 8
  br label %bb4

bb4:                                              ; preds = %bb1, %_RNvXs1_NtCs5dfrY2TkJWl_14unsafe_libyaml3opsyNtB5_8ForceAdd9force_add.exit
  %_0.sroa.0.0 = phi i32 [ 0, %bb1 ], [ 1, %_RNvXs1_NtCs5dfrY2TkJWl_14unsafe_libyaml3opsyNtB5_8ForceAdd9force_add.exit ]
  ret i32 %_0.sroa.0.0
}

; unsafe_libyaml::api::yaml_document_add_sequence
; Function Attrs: uwtable
define noundef i32 @_RNvNtCs5dfrY2TkJWl_14unsafe_libyaml3api26yaml_document_add_sequence(ptr noundef captures(address_is_null) %document, ptr noundef readonly captures(address) %0, i32 noundef range(i32 0, 3) %style) unnamed_addr #1 {
start:
  %1 = icmp eq ptr %document, null
  br i1 %1, label %bb1, label %bb2

bb1:                                              ; preds = %start
; call unsafe_libyaml::externs::__assert_fail
  tail call fastcc void @_RNvNtCs5dfrY2TkJWl_14unsafe_libyaml7externs13___assert_fail(ptr noalias noundef nonnull readonly align 1 captures(address, read_provenance) @alloc_e45e71155ffb8fb480705a3ebbda27cf, i64 noundef 19, ptr noalias noundef nonnull readonly align 1 captures(address, read_provenance) @alloc_b08f38296d5e13f36617fe99ae622e73, i64 noundef 104, i32 noundef 1398) #22
  unreachable

bb2:                                              ; preds = %start
  %2 = icmp eq ptr %0, null
  %spec.store.select = select i1 %2, ptr @alloc_fdd80bb2a5198cb20351f7050df67921, ptr %0
  %strlen = tail call i64 @strlen(ptr noundef nonnull dereferenceable(1) %spec.store.select)
; call unsafe_libyaml::api::yaml_check_utf8
  %_12 = tail call fastcc noundef zeroext i1 @_RNvNtCs5dfrY2TkJWl_14unsafe_libyaml3api15yaml_check_utf8(ptr noundef nonnull %spec.store.select, i64 noundef %strlen)
  br i1 %_12, label %bb7, label %bb20

bb7:                                              ; preds = %bb2
  %strlen.i.i = tail call i64 @strlen(ptr noundef nonnull readonly dereferenceable(1) %spec.store.select)
  %_4.i.i = add i64 %strlen.i.i, 1
  %_5.0.i.i.i.i = add i64 %strlen.i.i, 9
  %_5.1.i.i.i.i = icmp ugt i64 %_4.i.i, -9
  br i1 %_5.1.i.i.i.i, label %bb1.i.i.i.i, label %_RNvXs2_NtCs5dfrY2TkJWl_14unsafe_libyaml3opsjNtB5_8ForceAdd9force_add.exit.i.i.i, !prof !2

bb1.i.i.i.i:                                      ; preds = %bb7
; call unsafe_libyaml::ops::die::do_die
  tail call void @_RNvNvNtCs5dfrY2TkJWl_14unsafe_libyaml3ops3die6do_die() #22
  unreachable

_RNvXs2_NtCs5dfrY2TkJWl_14unsafe_libyaml3opsjNtB5_8ForceAdd9force_add.exit.i.i.i: ; preds = %bb7
  %_12.i.i.i = icmp ugt i64 %_5.0.i.i.i.i, 9223372036854775800
  br i1 %_12.i.i.i, label %bb10.i.i.i, label %bb11.i.i.i, !prof !3

bb11.i.i.i:                                       ; preds = %_RNvXs2_NtCs5dfrY2TkJWl_14unsafe_libyaml3opsjNtB5_8ForceAdd9force_add.exit.i.i.i
; call __rustc::__rust_no_alloc_shim_is_unstable_v2
  tail call void @_RNvCsKhRCbHf33p_7___rustc35___rust_no_alloc_shim_is_unstable_v2() #23
; call __rustc::__rust_alloc
  %memory.i.i.i = tail call noundef align 8 ptr @_RNvCsKhRCbHf33p_7___rustc12___rust_alloc(i64 noundef %_5.0.i.i.i.i, i64 noundef 8) #23
  %3 = icmp eq ptr %memory.i.i.i, null
  br i1 %3, label %bb3.i.i.i, label %bb10, !prof !2

bb10.i.i.i:                                       ; preds = %_RNvXs2_NtCs5dfrY2TkJWl_14unsafe_libyaml3opsjNtB5_8ForceAdd9force_add.exit.i.i.i
; call unsafe_libyaml::ops::die::do_die
  tail call void @_RNvNvNtCs5dfrY2TkJWl_14unsafe_libyaml3ops3die6do_die() #22
  unreachable

bb3.i.i.i:                                        ; preds = %bb11.i.i.i
; call alloc::alloc::handle_alloc_error
  tail call void @_RNvNtCsdJPVW0sQgAG_5alloc5alloc18handle_alloc_error(i64 noundef 8, i64 noundef %_5.0.i.i.i.i) #22
  unreachable

bb10:                                             ; preds = %bb11.i.i.i
  store i64 %_5.0.i.i.i.i, ptr %memory.i.i.i, align 8
  %_10.i.i.i = getelementptr inbounds nuw i8, ptr %memory.i.i.i, i64 8
  tail call void @llvm.memcpy.p0.p0.i64(ptr nonnull align 8 %_10.i.i.i, ptr nonnull readonly align 1 %spec.store.select, i64 %_4.i.i, i1 false)
; call __rustc::__rust_no_alloc_shim_is_unstable_v2
  tail call void @_RNvCsKhRCbHf33p_7___rustc35___rust_no_alloc_shim_is_unstable_v2() #23
; call __rustc::__rust_alloc
  %memory.i.i14 = tail call noundef align 8 dereferenceable_or_null(72) ptr @_RNvCsKhRCbHf33p_7___rustc12___rust_alloc(i64 noundef 72, i64 noundef 8) #23
  %4 = icmp eq ptr %memory.i.i14, null
  br i1 %4, label %bb3.i.i, label %_RNvNtCs5dfrY2TkJWl_14unsafe_libyaml3api11yaml_malloc.exit, !prof !2

bb3.i.i:                                          ; preds = %bb10
; call alloc::alloc::handle_alloc_error
  tail call void @_RNvNtCsdJPVW0sQgAG_5alloc5alloc18handle_alloc_error(i64 noundef 8, i64 noundef 72) #22
  unreachable

_RNvNtCs5dfrY2TkJWl_14unsafe_libyaml3api11yaml_malloc.exit: ; preds = %bb10
  store i64 72, ptr %memory.i.i14, align 8
  %_10.i.i = getelementptr inbounds nuw i8, ptr %memory.i.i14, i64 8
  %5 = getelementptr inbounds nuw i8, ptr %memory.i.i14, i64 72
  %6 = getelementptr inbounds nuw i8, ptr %document, i64 16
  %_25 = load ptr, ptr %6, align 8, !noundef !4
  %7 = getelementptr inbounds nuw i8, ptr %document, i64 8
  %_26 = load ptr, ptr %7, align 8, !noundef !4
  %_24 = icmp eq ptr %_25, %_26
  br i1 %_24, label %bb12, label %bb15

bb20:                                             ; preds = %bb2, %bb15
  %_0.sroa.0.0 = phi i32 [ %13, %bb15 ], [ 0, %bb2 ]
  ret i32 %_0.sroa.0.0

bb12:                                             ; preds = %_RNvNtCs5dfrY2TkJWl_14unsafe_libyaml3api11yaml_malloc.exit
  %_5.i = load ptr, ptr %document, align 8, !noundef !4
  %_27.i = ptrtoint ptr %_25 to i64
  %_28.i = ptrtoint ptr %_5.i to i64
  %_26.i = sub i64 %_27.i, %_28.i
  %8 = add i64 %_26.i, 4611686018427387904
  %_6.1.i.i = icmp slt i64 %8, 0
  br i1 %_6.1.i.i, label %bb1.i.i, label %_RNvXs4_NtCs5dfrY2TkJWl_14unsafe_libyaml3opsxNtB5_8ForceMul9force_mul.exit.i, !prof !2

bb1.i.i:                                          ; preds = %bb12
; call unsafe_libyaml::ops::die::<i32>
  tail call fastcc void @_RINvNtCs5dfrY2TkJWl_14unsafe_libyaml3ops3dielEB4_()
  unreachable

_RNvXs4_NtCs5dfrY2TkJWl_14unsafe_libyaml3opsxNtB5_8ForceMul9force_mul.exit.i: ; preds = %bb12
  %_6.0.i.i = shl nsw i64 %_26.i, 1
; call unsafe_libyaml::api::yaml_realloc
  %new_start.i = tail call fastcc noundef ptr @_RNvNtCs5dfrY2TkJWl_14unsafe_libyaml3api12yaml_realloc(ptr noundef %_5.i, i64 noundef %_6.0.i.i)
  %_16.i = load ptr, ptr %6, align 8, !noundef !4
  %_18.i = load ptr, ptr %document, align 8, !noundef !4
  %_30.i = ptrtoint ptr %_16.i to i64
  %_31.i = ptrtoint ptr %_18.i to i64
  %_29.i = sub i64 %_30.i, %_31.i
  %9 = getelementptr i8, ptr %new_start.i, i64 %_29.i
  store ptr %9, ptr %6, align 8
  %_23.i = load ptr, ptr %7, align 8, !noundef !4
  %_35.i = ptrtoint ptr %_23.i to i64
  %_34.i = sub i64 %_35.i, %_31.i
  %10 = add i64 %_34.i, 4611686018427387904
  %_6.1.i3.i = icmp slt i64 %10, 0
  br i1 %_6.1.i3.i, label %bb1.i5.i, label %_RNvNtCs5dfrY2TkJWl_14unsafe_libyaml3api17yaml_stack_extend.exit, !prof !2

bb1.i5.i:                                         ; preds = %_RNvXs4_NtCs5dfrY2TkJWl_14unsafe_libyaml3opsxNtB5_8ForceMul9force_mul.exit.i
; call unsafe_libyaml::ops::die::<i32>
  tail call fastcc void @_RINvNtCs5dfrY2TkJWl_14unsafe_libyaml3ops3dielEB4_()
  unreachable

_RNvNtCs5dfrY2TkJWl_14unsafe_libyaml3api17yaml_stack_extend.exit: ; preds = %_RNvXs4_NtCs5dfrY2TkJWl_14unsafe_libyaml3opsxNtB5_8ForceMul9force_mul.exit.i
  %_6.0.i4.i = shl nsw i64 %_34.i, 1
  %11 = getelementptr i8, ptr %new_start.i, i64 %_6.0.i4.i
  store ptr %11, ptr %7, align 8
  store ptr %new_start.i, ptr %document, align 8
  br label %bb15

bb15:                                             ; preds = %_RNvNtCs5dfrY2TkJWl_14unsafe_libyaml3api11yaml_malloc.exit, %_RNvNtCs5dfrY2TkJWl_14unsafe_libyaml3api17yaml_stack_extend.exit
  %_35 = phi ptr [ %_25, %_RNvNtCs5dfrY2TkJWl_14unsafe_libyaml3api11yaml_malloc.exit ], [ %9, %_RNvNtCs5dfrY2TkJWl_14unsafe_libyaml3api17yaml_stack_extend.exit ]
  store <2 x i32> <i32 2, i32 0>, ptr %_35, align 8
  %node.sroa.68.0._35.sroa_idx = getelementptr inbounds nuw i8, ptr %_35, i64 8
  store ptr %_10.i.i.i, ptr %node.sroa.68.0._35.sroa_idx, align 8
  %node.sroa.7.0._35.sroa_idx = getelementptr inbounds nuw i8, ptr %_35, i64 16
  store ptr %_10.i.i, ptr %node.sroa.7.0._35.sroa_idx, align 8
  %node.sroa.8.0._35.sroa_idx = getelementptr inbounds nuw i8, ptr %_35, i64 24
  store ptr %5, ptr %node.sroa.8.0._35.sroa_idx, align 8
  %node.sroa.9.0._35.sroa_idx = getelementptr inbounds nuw i8, ptr %_35, i64 32
  store ptr %_10.i.i, ptr %node.sroa.9.0._35.sroa_idx, align 8
  %node.sroa.10.0._35.sroa_idx = getelementptr inbounds nuw i8, ptr %_35, i64 40
  store i32 %style, ptr %node.sroa.10.0._35.sroa_idx, align 8
  %node.sroa.11.0._35.sroa_idx = getelementptr inbounds nuw i8, ptr %_35, i64 44
  tail call void @llvm.memset.p0.i64(ptr noundef nonnull align 4 dereferenceable(52) %node.sroa.11.0._35.sroa_idx, i8 0, i64 52, i1 false)
  %_37 = load ptr, ptr %6, align 8, !noundef !4
  %12 = getelementptr i8, ptr %_37, i64 96
  store ptr %12, ptr %6, align 8
  %_40 = load ptr, ptr %document, align 8, !noundef !4
  %_58 = ptrtoint ptr %12 to i64
  %_59 = ptrtoint ptr %_40 to i64
  %_57 = sub i64 %_58, %_59
  %_38 = sdiv i64 %_57, 96
  %13 = trunc i64 %_38 to i32
  br label %bb20
}

; unsafe_libyaml::api::yaml_emitter_set_canonical
; Function Attrs: uwtable
define void @_RNvNtCs5dfrY2TkJWl_14unsafe_libyaml3api26yaml_emitter_set_canonical(ptr noundef writeonly captures(address_is_null) %emitter, i1 noundef zeroext %canonical) unnamed_addr #1 {
start:
  %0 = icmp eq ptr %emitter, null
  br i1 %0, label %bb1, label %bb2

bb1:                                              ; preds = %start
; call unsafe_libyaml::externs::__assert_fail
  tail call fastcc void @_RNvNtCs5dfrY2TkJWl_14unsafe_libyaml7externs13___assert_fail(ptr noalias noundef nonnull readonly align 1 captures(address, read_provenance) @alloc_7865fdc37ad19b9b919293c34549431b, i64 noundef 18, ptr noalias noundef nonnull readonly align 1 captures(address, read_provenance) @alloc_b08f38296d5e13f36617fe99ae622e73, i64 noundef 104, i32 noundef 439) #22
  unreachable

bb2:                                              ; preds = %start
  %1 = getelementptr inbounds nuw i8, ptr %emitter, i64 124
  %2 = zext i1 %canonical to i8
  store i8 %2, ptr %1, align 4
  ret void
}

; unsafe_libyaml::api::yaml_alias_event_initialize
; Function Attrs: uwtable
define noundef zeroext i1 @_RNvNtCs5dfrY2TkJWl_14unsafe_libyaml3api27yaml_alias_event_initialize(ptr noundef writeonly captures(address_is_null) %event, ptr noundef readonly captures(address) %anchor) unnamed_addr #1 {
start:
  %0 = icmp eq ptr %event, null
  br i1 %0, label %bb1, label %bb2

bb1:                                              ; preds = %start
; call unsafe_libyaml::externs::__assert_fail
  tail call fastcc void @_RNvNtCs5dfrY2TkJWl_14unsafe_libyaml7externs13___assert_fail(ptr noalias noundef nonnull readonly align 1 captures(address, read_provenance) @alloc_79eb5dcc0b055fff49be8085edfed028, i64 noundef 16, ptr noalias noundef nonnull readonly align 1 captures(address, read_provenance) @alloc_b08f38296d5e13f36617fe99ae622e73, i64 noundef 104, i32 noundef 749) #22
  unreachable

bb2:                                              ; preds = %start
  %1 = icmp eq ptr %anchor, null
  br i1 %1, label %bb3, label %bb12.preheader

bb12.preheader:                                   ; preds = %bb2
  %strlen = tail call i64 @strlen(ptr noundef nonnull dereferenceable(1) %anchor)
; call unsafe_libyaml::api::yaml_check_utf8
  %_8 = tail call fastcc noundef zeroext i1 @_RNvNtCs5dfrY2TkJWl_14unsafe_libyaml3api15yaml_check_utf8(ptr noundef nonnull %anchor, i64 noundef %strlen)
  br i1 %_8, label %bb2.i, label %bb11

bb3:                                              ; preds = %bb2
; call unsafe_libyaml::externs::__assert_fail
  tail call fastcc void @_RNvNtCs5dfrY2TkJWl_14unsafe_libyaml7externs13___assert_fail(ptr noalias noundef nonnull readonly align 1 captures(address, read_provenance) @alloc_079a0d303af754b7335aea876ff8fa5c, i64 noundef 17, ptr noalias noundef nonnull readonly align 1 captures(address, read_provenance) @alloc_b08f38296d5e13f36617fe99ae622e73, i64 noundef 104, i32 noundef 750) #22
  unreachable

bb2.i:                                            ; preds = %bb12.preheader
  %strlen.i.i = tail call i64 @strlen(ptr noundef nonnull readonly dereferenceable(1) %anchor)
  %_4.i.i = add i64 %strlen.i.i, 1
  %_5.0.i.i.i.i = add i64 %strlen.i.i, 9
  %_5.1.i.i.i.i = icmp ugt i64 %_4.i.i, -9
  br i1 %_5.1.i.i.i.i, label %bb1.i.i.i.i, label %_RNvXs2_NtCs5dfrY2TkJWl_14unsafe_libyaml3opsjNtB5_8ForceAdd9force_add.exit.i.i.i, !prof !2

bb1.i.i.i.i:                                      ; preds = %bb2.i
; call unsafe_libyaml::ops::die::do_die
  tail call void @_RNvNvNtCs5dfrY2TkJWl_14unsafe_libyaml3ops3die6do_die() #22
  unreachable

_RNvXs2_NtCs5dfrY2TkJWl_14unsafe_libyaml3opsjNtB5_8ForceAdd9force_add.exit.i.i.i: ; preds = %bb2.i
  %_12.i.i.i = icmp ugt i64 %_5.0.i.i.i.i, 9223372036854775800
  br i1 %_12.i.i.i, label %bb10.i.i.i, label %bb11.i.i.i, !prof !3

bb11.i.i.i:                                       ; preds = %_RNvXs2_NtCs5dfrY2TkJWl_14unsafe_libyaml3opsjNtB5_8ForceAdd9force_add.exit.i.i.i
; call __rustc::__rust_no_alloc_shim_is_unstable_v2
  tail call void @_RNvCsKhRCbHf33p_7___rustc35___rust_no_alloc_shim_is_unstable_v2() #23
; call __rustc::__rust_alloc
  %memory.i.i.i = tail call noundef align 8 ptr @_RNvCsKhRCbHf33p_7___rustc12___rust_alloc(i64 noundef %_5.0.i.i.i.i, i64 noundef 8) #23
  %2 = icmp eq ptr %memory.i.i.i, null
  br i1 %2, label %bb3.i.i.i, label %bb10, !prof !2

bb10.i.i.i:                                       ; preds = %_RNvXs2_NtCs5dfrY2TkJWl_14unsafe_libyaml3opsjNtB5_8ForceAdd9force_add.exit.i.i.i
; call unsafe_libyaml::ops::die::do_die
  tail call void @_RNvNvNtCs5dfrY2TkJWl_14unsafe_libyaml3ops3die6do_die() #22
  unreachable

bb3.i.i.i:                                        ; preds = %bb11.i.i.i
; call alloc::alloc::handle_alloc_error
  tail call void @_RNvNtCsdJPVW0sQgAG_5alloc5alloc18handle_alloc_error(i64 noundef 8, i64 noundef %_5.0.i.i.i.i) #22
  unreachable

bb10:                                             ; preds = %bb11.i.i.i
  store i64 %_5.0.i.i.i.i, ptr %memory.i.i.i, align 8
  %_10.i.i.i = getelementptr inbounds nuw i8, ptr %memory.i.i.i, i64 8
  tail call void @llvm.memcpy.p0.p0.i64(ptr nonnull align 8 %_10.i.i.i, ptr nonnull readonly align 1 %anchor, i64 %_4.i.i, i1 false)
  %3 = getelementptr inbounds nuw i8, ptr %event, i64 4
  tail call void @llvm.memset.p0.i64(ptr noundef nonnull align 1 dereferenceable(44) %3, i8 0, i64 44, i1 false)
  store i32 5, ptr %event, align 8
  %4 = getelementptr inbounds nuw i8, ptr %event, i64 48
  %5 = getelementptr inbounds nuw i8, ptr %event, i64 8
  tail call void @llvm.memset.p0.i64(ptr noundef nonnull align 8 dereferenceable(48) %4, i8 0, i64 48, i1 false)
  store ptr %_10.i.i.i, ptr %5, align 8
  br label %bb11

bb11:                                             ; preds = %bb12.preheader, %bb10
  ret i1 %_8
}

; unsafe_libyaml::api::yaml_document_get_root_node
; Function Attrs: uwtable
define noundef ptr @_RNvNtCs5dfrY2TkJWl_14unsafe_libyaml3api27yaml_document_get_root_node(ptr noundef readonly captures(address_is_null) %document) unnamed_addr #1 {
start:
  %0 = icmp eq ptr %document, null
  br i1 %0, label %bb1, label %bb2

bb1:                                              ; preds = %start
; call unsafe_libyaml::externs::__assert_fail
  tail call fastcc void @_RNvNtCs5dfrY2TkJWl_14unsafe_libyaml7externs13___assert_fail(ptr noalias noundef nonnull readonly align 1 captures(address, read_provenance) @alloc_e45e71155ffb8fb480705a3ebbda27cf, i64 noundef 19, ptr noalias noundef nonnull readonly align 1 captures(address, read_provenance) @alloc_b08f38296d5e13f36617fe99ae622e73, i64 noundef 104, i32 noundef 1299) #22
  unreachable

bb2:                                              ; preds = %start
  %1 = getelementptr inbounds nuw i8, ptr %document, i64 16
  %_4 = load ptr, ptr %1, align 8, !noundef !4
  %_5 = load ptr, ptr %document, align 8, !noundef !4
  %_3.not = icmp eq ptr %_4, %_5
  %._5 = select i1 %_3.not, ptr null, ptr %_5
  ret ptr %._5
}

; unsafe_libyaml::api::yaml_parser_set_input_string
; Function Attrs: uwtable
define void @_RNvNtCs5dfrY2TkJWl_14unsafe_libyaml3api28yaml_parser_set_input_string(ptr noundef %parser, ptr noundef %input, i64 noundef %size) unnamed_addr #1 {
start:
  %0 = icmp eq ptr %parser, null
  br i1 %0, label %bb1, label %bb2

bb1:                                              ; preds = %start
; call unsafe_libyaml::externs::__assert_fail
  tail call fastcc void @_RNvNtCs5dfrY2TkJWl_14unsafe_libyaml7externs13___assert_fail(ptr noalias noundef nonnull readonly align 1 captures(address, read_provenance) @alloc_3674ecaf25ea6757494f22e340a7ddb2, i64 noundef 17, ptr noalias noundef nonnull readonly align 1 captures(address, read_provenance) @alloc_b08f38296d5e13f36617fe99ae622e73, i64 noundef 104, i32 noundef 256) #22
  unreachable

bb2:                                              ; preds = %start
  %1 = getelementptr inbounds nuw i8, ptr %parser, i64 88
  %2 = load ptr, ptr %1, align 8, !noundef !4
  %.not = icmp eq ptr %2, null
  br i1 %.not, label %bb3, label %bb4

bb4:                                              ; preds = %bb2
; call unsafe_libyaml::externs::__assert_fail
  tail call fastcc void @_RNvNtCs5dfrY2TkJWl_14unsafe_libyaml7externs13___assert_fail(ptr noalias noundef nonnull readonly align 1 captures(address, read_provenance) @alloc_2a3003cbfc3a74a56b7c5f8d8e77ec54, i64 noundef 34, ptr noalias noundef nonnull readonly align 1 captures(address, read_provenance) @alloc_b08f38296d5e13f36617fe99ae622e73, i64 noundef 104, i32 noundef 257) #22
  unreachable

bb3:                                              ; preds = %bb2
  %3 = icmp eq ptr %input, null
  br i1 %3, label %bb5, label %bb6

bb5:                                              ; preds = %bb3
; call unsafe_libyaml::externs::__assert_fail
  tail call fastcc void @_RNvNtCs5dfrY2TkJWl_14unsafe_libyaml7externs13___assert_fail(ptr noalias noundef nonnull readonly align 1 captures(address, read_provenance) @alloc_3be22e51db65701e42d5bc3ff2d3f76b, i64 noundef 16, ptr noalias noundef nonnull readonly align 1 captures(address, read_provenance) @alloc_b08f38296d5e13f36617fe99ae622e73, i64 noundef 104, i32 noundef 258) #22
  unreachable

bb6:                                              ; preds = %bb3
  store ptr @_RNvNtCs5dfrY2TkJWl_14unsafe_libyaml3api24yaml_string_read_handler, ptr %1, align 8
  %4 = getelementptr inbounds nuw i8, ptr %parser, i64 96
  store ptr %parser, ptr %4, align 8
  %5 = getelementptr inbounds nuw i8, ptr %parser, i64 104
  store ptr %input, ptr %5, align 8
  %6 = getelementptr inbounds nuw i8, ptr %parser, i64 120
  store ptr %input, ptr %6, align 8
  %7 = getelementptr i8, ptr %input, i64 %size
  %8 = getelementptr inbounds nuw i8, ptr %parser, i64 112
  store ptr %7, ptr %8, align 8
  ret void
}

; unsafe_libyaml::api::yaml_scalar_event_initialize
; Function Attrs: uwtable
define noundef zeroext i1 @_RNvNtCs5dfrY2TkJWl_14unsafe_libyaml3api28yaml_scalar_event_initialize(ptr noundef writeonly captures(address_is_null) %event, ptr noundef readonly captures(address) %anchor, ptr noundef readonly captures(address) %tag, ptr noundef readonly captures(address) %value, i32 noundef %0, i1 noundef zeroext %plain_implicit, i1 noundef zeroext %quoted_implicit, i32 noundef range(i32 0, 6) %style) unnamed_addr #1 {
start:
  %1 = icmp eq ptr %event, null
  br i1 %1, label %bb1, label %bb2

bb1:                                              ; preds = %start
; call unsafe_libyaml::externs::__assert_fail
  tail call fastcc void @_RNvNtCs5dfrY2TkJWl_14unsafe_libyaml7externs13___assert_fail(ptr noalias noundef nonnull readonly align 1 captures(address, read_provenance) @alloc_79eb5dcc0b055fff49be8085edfed028, i64 noundef 16, ptr noalias noundef nonnull readonly align 1 captures(address, read_provenance) @alloc_b08f38296d5e13f36617fe99ae622e73, i64 noundef 104, i32 noundef 797) #22
  unreachable

bb2:                                              ; preds = %start
  %2 = icmp eq ptr %value, null
  br i1 %2, label %bb3, label %bb4

bb3:                                              ; preds = %bb2
; call unsafe_libyaml::externs::__assert_fail
  tail call fastcc void @_RNvNtCs5dfrY2TkJWl_14unsafe_libyaml7externs13___assert_fail(ptr noalias noundef nonnull readonly align 1 captures(address, read_provenance) @alloc_f577bc3a626bcb7ebc7b8f9b91e5e3f1, i64 noundef 16, ptr noalias noundef nonnull readonly align 1 captures(address, read_provenance) @alloc_b08f38296d5e13f36617fe99ae622e73, i64 noundef 104, i32 noundef 798) #22
  unreachable

bb4:                                              ; preds = %bb2
  %3 = icmp eq ptr %anchor, null
  br i1 %3, label %bb55, label %bb35.preheader

bb35.preheader:                                   ; preds = %bb4
  %strlen = tail call i64 @strlen(ptr noundef nonnull dereferenceable(1) %anchor)
; call unsafe_libyaml::api::yaml_check_utf8
  %_16 = tail call fastcc noundef zeroext i1 @_RNvNtCs5dfrY2TkJWl_14unsafe_libyaml3api15yaml_check_utf8(ptr noundef nonnull %anchor, i64 noundef %strlen)
  br i1 %_16, label %bb2.i, label %bb34

bb55:                                             ; preds = %_RNvNtCs5dfrY2TkJWl_14unsafe_libyaml3api11yaml_strdup.exit, %bb4
  %anchor_copy.sroa.0.0 = phi ptr [ null, %bb4 ], [ %_10.i.i.i, %_RNvNtCs5dfrY2TkJWl_14unsafe_libyaml3api11yaml_strdup.exit ]
  %4 = icmp eq ptr %tag, null
  br i1 %4, label %bb56, label %bb42.preheader

bb42.preheader:                                   ; preds = %bb55
  %strlen47 = tail call i64 @strlen(ptr noundef nonnull dereferenceable(1) %tag)
; call unsafe_libyaml::api::yaml_check_utf8
  %_23 = tail call fastcc noundef zeroext i1 @_RNvNtCs5dfrY2TkJWl_14unsafe_libyaml3api15yaml_check_utf8(ptr noundef nonnull %tag, i64 noundef %strlen47)
  br i1 %_23, label %bb2.i21, label %bb30

bb2.i:                                            ; preds = %bb35.preheader
  %strlen.i.i = tail call i64 @strlen(ptr noundef nonnull readonly dereferenceable(1) %anchor)
  %_4.i.i = add i64 %strlen.i.i, 1
  %_5.0.i.i.i.i = add i64 %strlen.i.i, 9
  %_5.1.i.i.i.i = icmp ugt i64 %_4.i.i, -9
  br i1 %_5.1.i.i.i.i, label %bb1.i.i.i.i, label %_RNvXs2_NtCs5dfrY2TkJWl_14unsafe_libyaml3opsjNtB5_8ForceAdd9force_add.exit.i.i.i, !prof !2

bb1.i.i.i.i:                                      ; preds = %bb2.i
; call unsafe_libyaml::ops::die::do_die
  tail call void @_RNvNvNtCs5dfrY2TkJWl_14unsafe_libyaml3ops3die6do_die() #22
  unreachable

_RNvXs2_NtCs5dfrY2TkJWl_14unsafe_libyaml3opsjNtB5_8ForceAdd9force_add.exit.i.i.i: ; preds = %bb2.i
  %_12.i.i.i = icmp ugt i64 %_5.0.i.i.i.i, 9223372036854775800
  br i1 %_12.i.i.i, label %bb10.i.i.i, label %bb11.i.i.i, !prof !3

bb11.i.i.i:                                       ; preds = %_RNvXs2_NtCs5dfrY2TkJWl_14unsafe_libyaml3opsjNtB5_8ForceAdd9force_add.exit.i.i.i
; call __rustc::__rust_no_alloc_shim_is_unstable_v2
  tail call void @_RNvCsKhRCbHf33p_7___rustc35___rust_no_alloc_shim_is_unstable_v2() #23
; call __rustc::__rust_alloc
  %memory.i.i.i = tail call noundef align 8 ptr @_RNvCsKhRCbHf33p_7___rustc12___rust_alloc(i64 noundef %_5.0.i.i.i.i, i64 noundef 8) #23
  %5 = icmp eq ptr %memory.i.i.i, null
  br i1 %5, label %bb3.i.i.i, label %_RNvNtCs5dfrY2TkJWl_14unsafe_libyaml3api11yaml_strdup.exit, !prof !2

bb10.i.i.i:                                       ; preds = %_RNvXs2_NtCs5dfrY2TkJWl_14unsafe_libyaml3opsjNtB5_8ForceAdd9force_add.exit.i.i.i
; call unsafe_libyaml::ops::die::do_die
  tail call void @_RNvNvNtCs5dfrY2TkJWl_14unsafe_libyaml3ops3die6do_die() #22
  unreachable

bb3.i.i.i:                                        ; preds = %bb11.i.i.i
; call alloc::alloc::handle_alloc_error
  tail call void @_RNvNtCsdJPVW0sQgAG_5alloc5alloc18handle_alloc_error(i64 noundef 8, i64 noundef %_5.0.i.i.i.i) #22
  unreachable

_RNvNtCs5dfrY2TkJWl_14unsafe_libyaml3api11yaml_strdup.exit: ; preds = %bb11.i.i.i
  store i64 %_5.0.i.i.i.i, ptr %memory.i.i.i, align 8
  %_10.i.i.i = getelementptr inbounds nuw i8, ptr %memory.i.i.i, i64 8
  tail call void @llvm.memcpy.p0.p0.i64(ptr nonnull align 8 %_10.i.i.i, ptr nonnull readonly align 1 %anchor, i64 %_4.i.i, i1 false)
  br label %bb55

bb56:                                             ; preds = %_RNvNtCs5dfrY2TkJWl_14unsafe_libyaml3api11yaml_strdup.exit36, %bb55
  %tag_copy.sroa.0.0 = phi ptr [ null, %bb55 ], [ %_10.i.i.i31, %_RNvNtCs5dfrY2TkJWl_14unsafe_libyaml3api11yaml_strdup.exit36 ]
  %_28 = icmp slt i32 %0, 0
  br i1 %_28, label %bb49.preheader, label %bb23

bb49.preheader:                                   ; preds = %bb56
  %strlen49 = tail call i64 @strlen(ptr noundef nonnull dereferenceable(1) %value)
  %6 = trunc i64 %strlen49 to i32
  br label %bb23

bb2.i21:                                          ; preds = %bb42.preheader
  %strlen.i.i22 = tail call i64 @strlen(ptr noundef nonnull readonly dereferenceable(1) %tag)
  %_4.i.i23 = add i64 %strlen.i.i22, 1
  %_5.0.i.i.i.i24 = add i64 %strlen.i.i22, 9
  %_5.1.i.i.i.i25 = icmp ugt i64 %_4.i.i23, -9
  br i1 %_5.1.i.i.i.i25, label %bb1.i.i.i.i35, label %_RNvXs2_NtCs5dfrY2TkJWl_14unsafe_libyaml3opsjNtB5_8ForceAdd9force_add.exit.i.i.i26, !prof !2

bb1.i.i.i.i35:                                    ; preds = %bb2.i21
; call unsafe_libyaml::ops::die::do_die
  tail call void @_RNvNvNtCs5dfrY2TkJWl_14unsafe_libyaml3ops3die6do_die() #22
  unreachable

_RNvXs2_NtCs5dfrY2TkJWl_14unsafe_libyaml3opsjNtB5_8ForceAdd9force_add.exit.i.i.i26: ; preds = %bb2.i21
  %_12.i.i.i27 = icmp ugt i64 %_5.0.i.i.i.i24, 9223372036854775800
  br i1 %_12.i.i.i27, label %bb10.i.i.i34, label %bb11.i.i.i28, !prof !3

bb11.i.i.i28:                                     ; preds = %_RNvXs2_NtCs5dfrY2TkJWl_14unsafe_libyaml3opsjNtB5_8ForceAdd9force_add.exit.i.i.i26
; call __rustc::__rust_no_alloc_shim_is_unstable_v2
  tail call void @_RNvCsKhRCbHf33p_7___rustc35___rust_no_alloc_shim_is_unstable_v2() #23
; call __rustc::__rust_alloc
  %memory.i.i.i29 = tail call noundef align 8 ptr @_RNvCsKhRCbHf33p_7___rustc12___rust_alloc(i64 noundef %_5.0.i.i.i.i24, i64 noundef 8) #23
  %7 = icmp eq ptr %memory.i.i.i29, null
  br i1 %7, label %bb3.i.i.i33, label %_RNvNtCs5dfrY2TkJWl_14unsafe_libyaml3api11yaml_strdup.exit36, !prof !2

bb10.i.i.i34:                                     ; preds = %_RNvXs2_NtCs5dfrY2TkJWl_14unsafe_libyaml3opsjNtB5_8ForceAdd9force_add.exit.i.i.i26
; call unsafe_libyaml::ops::die::do_die
  tail call void @_RNvNvNtCs5dfrY2TkJWl_14unsafe_libyaml3ops3die6do_die() #22
  unreachable

bb3.i.i.i33:                                      ; preds = %bb11.i.i.i28
; call alloc::alloc::handle_alloc_error
  tail call void @_RNvNtCsdJPVW0sQgAG_5alloc5alloc18handle_alloc_error(i64 noundef 8, i64 noundef %_5.0.i.i.i.i24) #22
  unreachable

_RNvNtCs5dfrY2TkJWl_14unsafe_libyaml3api11yaml_strdup.exit36: ; preds = %bb11.i.i.i28
  store i64 %_5.0.i.i.i.i24, ptr %memory.i.i.i29, align 8
  %_10.i.i.i31 = getelementptr inbounds nuw i8, ptr %memory.i.i.i29, i64 8
  tail call void @llvm.memcpy.p0.p0.i64(ptr nonnull align 8 %_10.i.i.i31, ptr nonnull readonly align 1 %tag, i64 %_4.i.i23, i1 false)
  br label %bb56

bb23:                                             ; preds = %bb56, %bb49.preheader
  %length.sroa.0.0 = phi i32 [ %6, %bb49.preheader ], [ %0, %bb56 ]
  %_34 = sext i32 %length.sroa.0.0 to i64
; call unsafe_libyaml::api::yaml_check_utf8
  %_33 = tail call fastcc noundef zeroext i1 @_RNvNtCs5dfrY2TkJWl_14unsafe_libyaml3api15yaml_check_utf8(ptr noundef nonnull %value, i64 noundef %_34)
  br i1 %_33, label %bb25, label %bb30

bb25:                                             ; preds = %bb23
  %8 = tail call { i32, i1 } @llvm.sadd.with.overflow.i32(i32 %length.sroa.0.0, i32 1)
  %_6.1.i = extractvalue { i32, i1 } %8, 1
  br i1 %_6.1.i, label %bb1.i, label %_RNvXs_NtCs5dfrY2TkJWl_14unsafe_libyaml3opslNtB4_8ForceAdd9force_add.exit, !prof !2

bb1.i:                                            ; preds = %bb25
; call unsafe_libyaml::ops::die::<i32>
  tail call fastcc void @_RINvNtCs5dfrY2TkJWl_14unsafe_libyaml3ops3dielEB4_()
  unreachable

_RNvXs_NtCs5dfrY2TkJWl_14unsafe_libyaml3opslNtB4_8ForceAdd9force_add.exit: ; preds = %bb25
  %_6.0.i = extractvalue { i32, i1 } %8, 0
  %_37 = sext i32 %_6.0.i to i64
  %_5.0.i.i.i = add nsw i64 %_37, 8
  %_5.1.i.i.i = icmp ugt i32 %_6.0.i, -9
  br i1 %_5.1.i.i.i, label %bb1.i.i.i, label %_RNvXs2_NtCs5dfrY2TkJWl_14unsafe_libyaml3opsjNtB5_8ForceAdd9force_add.exit.i.i, !prof !2

bb1.i.i.i:                                        ; preds = %_RNvXs_NtCs5dfrY2TkJWl_14unsafe_libyaml3opslNtB4_8ForceAdd9force_add.exit
; call unsafe_libyaml::ops::die::do_die
  tail call void @_RNvNvNtCs5dfrY2TkJWl_14unsafe_libyaml3ops3die6do_die() #22
  unreachable

_RNvXs2_NtCs5dfrY2TkJWl_14unsafe_libyaml3opsjNtB5_8ForceAdd9force_add.exit.i.i: ; preds = %_RNvXs_NtCs5dfrY2TkJWl_14unsafe_libyaml3opslNtB4_8ForceAdd9force_add.exit
  %_12.i.i = icmp ugt i64 %_5.0.i.i.i, 9223372036854775800
  br i1 %_12.i.i, label %bb10.i.i, label %bb11.i.i, !prof !3

bb11.i.i:                                         ; preds = %_RNvXs2_NtCs5dfrY2TkJWl_14unsafe_libyaml3opsjNtB5_8ForceAdd9force_add.exit.i.i
; call __rustc::__rust_no_alloc_shim_is_unstable_v2
  tail call void @_RNvCsKhRCbHf33p_7___rustc35___rust_no_alloc_shim_is_unstable_v2() #23
; call __rustc::__rust_alloc
  %memory.i.i = tail call noundef align 8 ptr @_RNvCsKhRCbHf33p_7___rustc12___rust_alloc(i64 noundef %_5.0.i.i.i, i64 noundef 8) #23
  %9 = icmp eq ptr %memory.i.i, null
  br i1 %9, label %bb3.i.i, label %_RNvNtCs5dfrY2TkJWl_14unsafe_libyaml3api11yaml_malloc.exit, !prof !2

bb10.i.i:                                         ; preds = %_RNvXs2_NtCs5dfrY2TkJWl_14unsafe_libyaml3opsjNtB5_8ForceAdd9force_add.exit.i.i
; call unsafe_libyaml::ops::die::do_die
  tail call void @_RNvNvNtCs5dfrY2TkJWl_14unsafe_libyaml3ops3die6do_die() #22
  unreachable

bb3.i.i:                                          ; preds = %bb11.i.i
; call alloc::alloc::handle_alloc_error
  tail call void @_RNvNtCsdJPVW0sQgAG_5alloc5alloc18handle_alloc_error(i64 noundef 8, i64 noundef %_5.0.i.i.i) #22
  unreachable

_RNvNtCs5dfrY2TkJWl_14unsafe_libyaml3api11yaml_malloc.exit: ; preds = %bb11.i.i
  store i64 %_5.0.i.i.i, ptr %memory.i.i, align 8
  %_10.i.i = getelementptr inbounds nuw i8, ptr %memory.i.i, i64 8
  tail call void @llvm.memcpy.p0.p0.i64(ptr nonnull align 8 %_10.i.i, ptr nonnull align 1 %value, i64 %_34, i1 false)
  %10 = getelementptr i8, ptr %_10.i.i, i64 %_34
  store i8 0, ptr %10, align 1
  %11 = getelementptr inbounds nuw i8, ptr %event, i64 4
  tail call void @llvm.memset.p0.i64(ptr noundef nonnull align 1 dereferenceable(40) %11, i8 0, i64 40, i1 false)
  store i32 6, ptr %event, align 8
  %12 = getelementptr inbounds nuw i8, ptr %event, i64 48
  %13 = getelementptr inbounds nuw i8, ptr %event, i64 8
  tail call void @llvm.memset.p0.i64(ptr noundef nonnull align 8 dereferenceable(48) %12, i8 0, i64 48, i1 false)
  store ptr %anchor_copy.sroa.0.0, ptr %13, align 8
  %14 = getelementptr inbounds nuw i8, ptr %event, i64 16
  store ptr %tag_copy.sroa.0.0, ptr %14, align 8
  %15 = getelementptr inbounds nuw i8, ptr %event, i64 24
  store ptr %_10.i.i, ptr %15, align 8
  %16 = getelementptr inbounds nuw i8, ptr %event, i64 32
  store i64 %_34, ptr %16, align 8
  %17 = getelementptr inbounds nuw i8, ptr %event, i64 40
  %18 = zext i1 %plain_implicit to i8
  store i8 %18, ptr %17, align 8
  %19 = getelementptr inbounds nuw i8, ptr %event, i64 41
  %20 = zext i1 %quoted_implicit to i8
  store i8 %20, ptr %19, align 1
  %21 = getelementptr inbounds nuw i8, ptr %event, i64 44
  store i32 %style, ptr %21, align 4
  br label %bb34

bb34:                                             ; preds = %bb35.preheader, %bb2.i39, %_RNvNtCs5dfrY2TkJWl_14unsafe_libyaml3api9yaml_free.exit, %_RNvNtCs5dfrY2TkJWl_14unsafe_libyaml3api11yaml_malloc.exit
  %_0.sroa.0.0.off0 = phi i1 [ true, %_RNvNtCs5dfrY2TkJWl_14unsafe_libyaml3api11yaml_malloc.exit ], [ false, %_RNvNtCs5dfrY2TkJWl_14unsafe_libyaml3api9yaml_free.exit ], [ false, %bb2.i39 ], [ false, %bb35.preheader ]
  ret i1 %_0.sroa.0.0.off0

bb30:                                             ; preds = %bb42.preheader, %bb23
  %tag_copy.sroa.0.1 = phi ptr [ %tag_copy.sroa.0.0, %bb23 ], [ null, %bb42.preheader ]
  %22 = icmp eq ptr %anchor_copy.sroa.0.0, null
  br i1 %22, label %_RNvNtCs5dfrY2TkJWl_14unsafe_libyaml3api9yaml_free.exit, label %bb2.i37

bb2.i37:                                          ; preds = %bb30
  %memory.i.i38 = getelementptr inbounds i8, ptr %anchor_copy.sroa.0.0, i64 -8
  %size.i.i = load i64, ptr %memory.i.i38, align 8, !noundef !4
; call __rustc::__rust_dealloc
  tail call void @_RNvCsKhRCbHf33p_7___rustc14___rust_dealloc(ptr noundef nonnull %memory.i.i38, i64 noundef %size.i.i, i64 noundef 8) #23
  br label %_RNvNtCs5dfrY2TkJWl_14unsafe_libyaml3api9yaml_free.exit

_RNvNtCs5dfrY2TkJWl_14unsafe_libyaml3api9yaml_free.exit: ; preds = %bb30, %bb2.i37
  %23 = icmp eq ptr %tag_copy.sroa.0.1, null
  br i1 %23, label %bb34, label %bb2.i39

bb2.i39:                                          ; preds = %_RNvNtCs5dfrY2TkJWl_14unsafe_libyaml3api9yaml_free.exit
  %memory.i.i40 = getelementptr inbounds i8, ptr %tag_copy.sroa.0.1, i64 -8
  %size.i.i41 = load i64, ptr %memory.i.i40, align 8, !noundef !4
; call __rustc::__rust_dealloc
  tail call void @_RNvCsKhRCbHf33p_7___rustc14___rust_dealloc(ptr noundef nonnull %memory.i.i40, i64 noundef %size.i.i41, i64 noundef 8) #23
  br label %bb34
}

; unsafe_libyaml::api::yaml_emitter_set_output_string
; Function Attrs: uwtable
define void @_RNvNtCs5dfrY2TkJWl_14unsafe_libyaml3api30yaml_emitter_set_output_string(ptr noundef %emitter, ptr noundef %output, i64 noundef %size, ptr noundef %size_written) unnamed_addr #1 {
start:
  %0 = icmp eq ptr %emitter, null
  br i1 %0, label %bb1, label %bb2

bb1:                                              ; preds = %start
; call unsafe_libyaml::externs::__assert_fail
  tail call fastcc void @_RNvNtCs5dfrY2TkJWl_14unsafe_libyaml7externs13___assert_fail(ptr noalias noundef nonnull readonly align 1 captures(address, read_provenance) @alloc_7865fdc37ad19b9b919293c34549431b, i64 noundef 18, ptr noalias noundef nonnull readonly align 1 captures(address, read_provenance) @alloc_b08f38296d5e13f36617fe99ae622e73, i64 noundef 104, i32 noundef 397) #22
  unreachable

bb2:                                              ; preds = %start
  %1 = getelementptr inbounds nuw i8, ptr %emitter, i64 16
  %2 = load ptr, ptr %1, align 8, !noundef !4
  %.not = icmp eq ptr %2, null
  br i1 %.not, label %bb3, label %bb4

bb4:                                              ; preds = %bb2
; call unsafe_libyaml::externs::__assert_fail
  tail call fastcc void @_RNvNtCs5dfrY2TkJWl_14unsafe_libyaml7externs13___assert_fail(ptr noalias noundef nonnull readonly align 1 captures(address, read_provenance) @alloc_f18205dc0e61dbf08d4548223d427e8e, i64 noundef 36, ptr noalias noundef nonnull readonly align 1 captures(address, read_provenance) @alloc_b08f38296d5e13f36617fe99ae622e73, i64 noundef 104, i32 noundef 398) #22
  unreachable

bb3:                                              ; preds = %bb2
  %3 = icmp eq ptr %output, null
  br i1 %3, label %bb5, label %bb6

bb5:                                              ; preds = %bb3
; call unsafe_libyaml::externs::__assert_fail
  tail call fastcc void @_RNvNtCs5dfrY2TkJWl_14unsafe_libyaml7externs13___assert_fail(ptr noalias noundef nonnull readonly align 1 captures(address, read_provenance) @alloc_54204efa35b937aca6e1eeafb1b512ae, i64 noundef 17, ptr noalias noundef nonnull readonly align 1 captures(address, read_provenance) @alloc_b08f38296d5e13f36617fe99ae622e73, i64 noundef 104, i32 noundef 399) #22
  unreachable

bb6:                                              ; preds = %bb3
  store ptr @_RNvNtCs5dfrY2TkJWl_14unsafe_libyaml3api25yaml_string_write_handler, ptr %1, align 8
  %4 = getelementptr inbounds nuw i8, ptr %emitter, i64 24
  store ptr %emitter, ptr %4, align 8
  %5 = getelementptr inbounds nuw i8, ptr %emitter, i64 32
  store ptr %output, ptr %5, align 8
  %6 = getelementptr inbounds nuw i8, ptr %emitter, i64 40
  store i64 %size, ptr %6, align 8
  %7 = getelementptr inbounds nuw i8, ptr %emitter, i64 48
  store ptr %size_written, ptr %7, align 8
  store i64 0, ptr %size_written, align 8
  ret void
}

; unsafe_libyaml::api::yaml_stream_end_event_initialize
; Function Attrs: uwtable
define noundef zeroext i1 @_RNvNtCs5dfrY2TkJWl_14unsafe_libyaml3api32yaml_stream_end_event_initialize(ptr noundef writeonly captures(address_is_null) %event) unnamed_addr #1 {
start:
  %0 = icmp eq ptr %event, null
  br i1 %0, label %bb1, label %bb2

bb1:                                              ; preds = %start
; call unsafe_libyaml::externs::__assert_fail
  tail call fastcc void @_RNvNtCs5dfrY2TkJWl_14unsafe_libyaml7externs13___assert_fail(ptr noalias noundef nonnull readonly align 1 captures(address, read_provenance) @alloc_79eb5dcc0b055fff49be8085edfed028, i64 noundef 16, ptr noalias noundef nonnull readonly align 1 captures(address, read_provenance) @alloc_b08f38296d5e13f36617fe99ae622e73, i64 noundef 104, i32 noundef 584) #22
  unreachable

bb2:                                              ; preds = %start
  %1 = getelementptr inbounds nuw i8, ptr %event, i64 4
  tail call void @llvm.memset.p0.i64(ptr noundef nonnull align 1 dereferenceable(44) %1, i8 0, i64 44, i1 false)
  store i32 2, ptr %event, align 8
  %2 = getelementptr inbounds nuw i8, ptr %event, i64 48
  tail call void @llvm.memset.p0.i64(ptr noundef nonnull align 8 dereferenceable(48) %2, i8 0, i64 48, i1 false)
  ret i1 true
}

; unsafe_libyaml::api::yaml_document_append_mapping_pair
; Function Attrs: uwtable
define noundef zeroext i1 @_RNvNtCs5dfrY2TkJWl_14unsafe_libyaml3api33yaml_document_append_mapping_pair(ptr noundef readonly captures(address_is_null) %document, i32 noundef %mapping, i32 noundef %key, i32 noundef %value) unnamed_addr #1 {
start:
  %0 = icmp eq ptr %document, null
  br i1 %0, label %bb1, label %bb2

bb1:                                              ; preds = %start
; call unsafe_libyaml::externs::__assert_fail
  tail call fastcc void @_RNvNtCs5dfrY2TkJWl_14unsafe_libyaml7externs13___assert_fail(ptr noalias noundef nonnull readonly align 1 captures(address, read_provenance) @alloc_e45e71155ffb8fb480705a3ebbda27cf, i64 noundef 19, ptr noalias noundef nonnull readonly align 1 captures(address, read_provenance) @alloc_b08f38296d5e13f36617fe99ae622e73, i64 noundef 104, i32 noundef 1524) #22
  unreachable

bb2:                                              ; preds = %start
  %_6 = icmp sgt i32 %mapping, 0
  br i1 %_6, label %bb3, label %bb6

bb6:                                              ; preds = %bb3, %bb2
; call unsafe_libyaml::externs::__assert_fail
  tail call fastcc void @_RNvNtCs5dfrY2TkJWl_14unsafe_libyaml7externs13___assert_fail(ptr noalias noundef nonnull readonly align 1 captures(address, read_provenance) @alloc_a32a9baba1df6b6e908e930b36d00a6c, i64 noundef 99, ptr noalias noundef nonnull readonly align 1 captures(address, read_provenance) @alloc_b08f38296d5e13f36617fe99ae622e73, i64 noundef 104, i32 noundef 1525) #22
  unreachable

bb3:                                              ; preds = %bb2
  %_9 = load ptr, ptr %document, align 8, !noundef !4
  %_10 = zext nneg i32 %mapping to i64
  %1 = getelementptr %"yaml::yaml_node_t", ptr %_9, i64 %_10
  %2 = getelementptr inbounds nuw i8, ptr %document, i64 16
  %_11 = load ptr, ptr %2, align 8, !noundef !4
  %_7.not = icmp ugt ptr %1, %_11
  br i1 %_7.not, label %bb6, label %bb4

bb4:                                              ; preds = %bb3
  %_16 = add nsw i32 %mapping, -1
  %_15 = zext nneg i32 %_16 to i64
  %3 = getelementptr %"yaml::yaml_node_t", ptr %_9, i64 %_15
  %_67 = load i32, ptr %3, align 8, !range !7, !noundef !4
  %4 = icmp eq i32 %_67, 3
  br i1 %4, label %bb7, label %bb8

bb7:                                              ; preds = %bb4
  %_18 = icmp slt i32 %key, 1
  %_22 = zext nneg i32 %key to i64
  %5 = getelementptr %"yaml::yaml_node_t", ptr %_9, i64 %_22
  %_19.not = icmp ugt ptr %5, %_11
  %or.cond = select i1 %_18, i1 true, i1 %_19.not
  br i1 %or.cond, label %bb12, label %bb10

bb8:                                              ; preds = %bb4
; call unsafe_libyaml::externs::__assert_fail
  tail call fastcc void @_RNvNtCs5dfrY2TkJWl_14unsafe_libyaml7externs13___assert_fail(ptr noalias noundef nonnull readonly align 1 captures(address, read_provenance) @alloc_6558c71679e3d8f3a0041facbf8793a2, i64 noundef 95, ptr noalias noundef nonnull readonly align 1 captures(address, read_provenance) @alloc_b08f38296d5e13f36617fe99ae622e73, i64 noundef 104, i32 noundef 1529) #22
  unreachable

bb12:                                             ; preds = %bb7
; call unsafe_libyaml::externs::__assert_fail
  tail call fastcc void @_RNvNtCs5dfrY2TkJWl_14unsafe_libyaml7externs13___assert_fail(ptr noalias noundef nonnull readonly align 1 captures(address, read_provenance) @alloc_fcc6f649bf8f8a030f22263ffdf2df5c, i64 noundef 91, ptr noalias noundef nonnull readonly align 1 captures(address, read_provenance) @alloc_b08f38296d5e13f36617fe99ae622e73, i64 noundef 104, i32 noundef 1533) #22
  unreachable

bb10:                                             ; preds = %bb7
  %_25 = icmp slt i32 %value, 1
  %_29 = zext nneg i32 %value to i64
  %6 = getelementptr %"yaml::yaml_node_t", ptr %_9, i64 %_29
  %_26.not = icmp ugt ptr %6, %_11
  %or.cond13 = select i1 %_25, i1 true, i1 %_26.not
  br i1 %or.cond13, label %bb16, label %bb14

bb16:                                             ; preds = %bb10
; call unsafe_libyaml::externs::__assert_fail
  tail call fastcc void @_RNvNtCs5dfrY2TkJWl_14unsafe_libyaml7externs13___assert_fail(ptr noalias noundef nonnull readonly align 1 captures(address, read_provenance) @alloc_dd19ced36c3c1e3609004cc496ca66da, i64 noundef 95, ptr noalias noundef nonnull readonly align 1 captures(address, read_provenance) @alloc_b08f38296d5e13f36617fe99ae622e73, i64 noundef 104, i32 noundef 1536) #22
  unreachable

bb14:                                             ; preds = %bb10
  %7 = getelementptr inbounds nuw i8, ptr %3, i64 32
  %_34 = load ptr, ptr %7, align 8, !noundef !4
  %8 = getelementptr inbounds nuw i8, ptr %3, i64 24
  %_37 = load ptr, ptr %8, align 8, !noundef !4
  %_33 = icmp eq ptr %_34, %_37
  br i1 %_33, label %bb17, label %bb20

bb17:                                             ; preds = %bb14
  %9 = getelementptr inbounds nuw i8, ptr %3, i64 16
  %_5.i = load ptr, ptr %9, align 8, !noundef !4
  %_27.i = ptrtoint ptr %_34 to i64
  %_28.i = ptrtoint ptr %_5.i to i64
  %_26.i = sub i64 %_27.i, %_28.i
  %10 = add i64 %_26.i, 4611686018427387904
  %_6.1.i.i = icmp slt i64 %10, 0
  br i1 %_6.1.i.i, label %bb1.i.i, label %_RNvXs4_NtCs5dfrY2TkJWl_14unsafe_libyaml3opsxNtB5_8ForceMul9force_mul.exit.i, !prof !2

bb1.i.i:                                          ; preds = %bb17
; call unsafe_libyaml::ops::die::<i32>
  tail call fastcc void @_RINvNtCs5dfrY2TkJWl_14unsafe_libyaml3ops3dielEB4_()
  unreachable

_RNvXs4_NtCs5dfrY2TkJWl_14unsafe_libyaml3opsxNtB5_8ForceMul9force_mul.exit.i: ; preds = %bb17
  %_6.0.i.i = shl nsw i64 %_26.i, 1
; call unsafe_libyaml::api::yaml_realloc
  %new_start.i = tail call fastcc noundef ptr @_RNvNtCs5dfrY2TkJWl_14unsafe_libyaml3api12yaml_realloc(ptr noundef %_5.i, i64 noundef %_6.0.i.i)
  %_16.i = load ptr, ptr %7, align 8, !noundef !4
  %_18.i = load ptr, ptr %9, align 8, !noundef !4
  %_30.i = ptrtoint ptr %_16.i to i64
  %_31.i = ptrtoint ptr %_18.i to i64
  %_29.i = sub i64 %_30.i, %_31.i
  %11 = getelementptr i8, ptr %new_start.i, i64 %_29.i
  store ptr %11, ptr %7, align 8
  %_23.i = load ptr, ptr %8, align 8, !noundef !4
  %_35.i = ptrtoint ptr %_23.i to i64
  %_34.i = sub i64 %_35.i, %_31.i
  %12 = add i64 %_34.i, 4611686018427387904
  %_6.1.i3.i = icmp slt i64 %12, 0
  br i1 %_6.1.i3.i, label %bb1.i5.i, label %_RNvNtCs5dfrY2TkJWl_14unsafe_libyaml3api17yaml_stack_extend.exit, !prof !2

bb1.i5.i:                                         ; preds = %_RNvXs4_NtCs5dfrY2TkJWl_14unsafe_libyaml3opsxNtB5_8ForceMul9force_mul.exit.i
; call unsafe_libyaml::ops::die::<i32>
  tail call fastcc void @_RINvNtCs5dfrY2TkJWl_14unsafe_libyaml3ops3dielEB4_()
  unreachable

_RNvNtCs5dfrY2TkJWl_14unsafe_libyaml3api17yaml_stack_extend.exit: ; preds = %_RNvXs4_NtCs5dfrY2TkJWl_14unsafe_libyaml3opsxNtB5_8ForceMul9force_mul.exit.i
  %_6.0.i4.i = shl nsw i64 %_34.i, 1
  %13 = getelementptr i8, ptr %new_start.i, i64 %_6.0.i4.i
  store ptr %13, ptr %8, align 8
  store ptr %new_start.i, ptr %9, align 8
  %_55.pre = load ptr, ptr %document, align 8
  br label %bb20

bb20:                                             ; preds = %bb14, %_RNvNtCs5dfrY2TkJWl_14unsafe_libyaml3api17yaml_stack_extend.exit
  %_55 = phi ptr [ %_9, %bb14 ], [ %_55.pre, %_RNvNtCs5dfrY2TkJWl_14unsafe_libyaml3api17yaml_stack_extend.exit ]
  %14 = getelementptr %"yaml::yaml_node_t", ptr %_55, i64 %_15, i32 3, i32 0, i64 2
  %_53 = load ptr, ptr %14, align 8, !noundef !4
  store i32 %key, ptr %_53, align 4
  %15 = getelementptr inbounds nuw i8, ptr %_53, i64 4
  store i32 %value, ptr %15, align 4
  %_59 = load ptr, ptr %document, align 8, !noundef !4
  %16 = getelementptr %"yaml::yaml_node_t", ptr %_59, i64 %_15, i32 3, i32 0, i64 2
  %_57 = load ptr, ptr %16, align 8, !noundef !4
  %17 = getelementptr i8, ptr %_57, i64 8
  store ptr %17, ptr %16, align 8
  ret i1 true
}

; unsafe_libyaml::api::yaml_mapping_end_event_initialize
; Function Attrs: uwtable
define noundef zeroext i1 @_RNvNtCs5dfrY2TkJWl_14unsafe_libyaml3api33yaml_mapping_end_event_initialize(ptr noundef writeonly captures(address_is_null) %event) unnamed_addr #1 {
start:
  %0 = icmp eq ptr %event, null
  br i1 %0, label %bb1, label %bb2

bb1:                                              ; preds = %start
; call unsafe_libyaml::externs::__assert_fail
  tail call fastcc void @_RNvNtCs5dfrY2TkJWl_14unsafe_libyaml7externs13___assert_fail(ptr noalias noundef nonnull readonly align 1 captures(address, read_provenance) @alloc_79eb5dcc0b055fff49be8085edfed028, i64 noundef 16, ptr noalias noundef nonnull readonly align 1 captures(address, read_provenance) @alloc_b08f38296d5e13f36617fe99ae622e73, i64 noundef 104, i32 noundef 1043) #22
  unreachable

bb2:                                              ; preds = %start
  %1 = getelementptr inbounds nuw i8, ptr %event, i64 4
  tail call void @llvm.memset.p0.i64(ptr noundef nonnull align 1 dereferenceable(44) %1, i8 0, i64 44, i1 false)
  store i32 10, ptr %event, align 8
  %2 = getelementptr inbounds nuw i8, ptr %event, i64 48
  tail call void @llvm.memset.p0.i64(ptr noundef nonnull align 8 dereferenceable(48) %2, i8 0, i64 48, i1 false)
  ret i1 true
}

; unsafe_libyaml::api::yaml_document_append_sequence_item
; Function Attrs: uwtable
define noundef zeroext i1 @_RNvNtCs5dfrY2TkJWl_14unsafe_libyaml3api34yaml_document_append_sequence_item(ptr noundef readonly captures(address_is_null) %document, i32 noundef %sequence, i32 noundef %item) unnamed_addr #1 {
start:
  %0 = icmp eq ptr %document, null
  br i1 %0, label %bb1, label %bb2

bb1:                                              ; preds = %start
; call unsafe_libyaml::externs::__assert_fail
  tail call fastcc void @_RNvNtCs5dfrY2TkJWl_14unsafe_libyaml7externs13___assert_fail(ptr noalias noundef nonnull readonly align 1 captures(address, read_provenance) @alloc_e45e71155ffb8fb480705a3ebbda27cf, i64 noundef 19, ptr noalias noundef nonnull readonly align 1 captures(address, read_provenance) @alloc_b08f38296d5e13f36617fe99ae622e73, i64 noundef 104, i32 noundef 1493) #22
  unreachable

bb2:                                              ; preds = %start
  %_5 = icmp sgt i32 %sequence, 0
  br i1 %_5, label %bb3, label %bb6

bb6:                                              ; preds = %bb3, %bb2
; call unsafe_libyaml::externs::__assert_fail
  tail call fastcc void @_RNvNtCs5dfrY2TkJWl_14unsafe_libyaml7externs13___assert_fail(ptr noalias noundef nonnull readonly align 1 captures(address, read_provenance) @alloc_98774a34e2a30b55a3597dcfbf79a045, i64 noundef 101, ptr noalias noundef nonnull readonly align 1 captures(address, read_provenance) @alloc_b08f38296d5e13f36617fe99ae622e73, i64 noundef 104, i32 noundef 1494) #22
  unreachable

bb3:                                              ; preds = %bb2
  %_8 = load ptr, ptr %document, align 8, !noundef !4
  %_9 = zext nneg i32 %sequence to i64
  %1 = getelementptr %"yaml::yaml_node_t", ptr %_8, i64 %_9
  %2 = getelementptr inbounds nuw i8, ptr %document, i64 16
  %_10 = load ptr, ptr %2, align 8, !noundef !4
  %_6.not = icmp ugt ptr %1, %_10
  br i1 %_6.not, label %bb6, label %bb4

bb4:                                              ; preds = %bb3
  %_15 = add nsw i32 %sequence, -1
  %_14 = zext nneg i32 %_15 to i64
  %3 = getelementptr %"yaml::yaml_node_t", ptr %_8, i64 %_14
  %_58 = load i32, ptr %3, align 8, !range !7, !noundef !4
  %4 = icmp eq i32 %_58, 2
  br i1 %4, label %bb7, label %bb8

bb7:                                              ; preds = %bb4
  %_17 = icmp slt i32 %item, 1
  %_21 = zext nneg i32 %item to i64
  %5 = getelementptr %"yaml::yaml_node_t", ptr %_8, i64 %_21
  %_18.not = icmp ugt ptr %5, %_10
  %or.cond = select i1 %_17, i1 true, i1 %_18.not
  br i1 %or.cond, label %bb12, label %bb10

bb8:                                              ; preds = %bb4
; call unsafe_libyaml::externs::__assert_fail
  tail call fastcc void @_RNvNtCs5dfrY2TkJWl_14unsafe_libyaml7externs13___assert_fail(ptr noalias noundef nonnull readonly align 1 captures(address, read_provenance) @alloc_49e4c9db4d8788e289e62f5ef800c153, i64 noundef 97, ptr noalias noundef nonnull readonly align 1 captures(address, read_provenance) @alloc_b08f38296d5e13f36617fe99ae622e73, i64 noundef 104, i32 noundef 1499) #22
  unreachable

bb12:                                             ; preds = %bb7
; call unsafe_libyaml::externs::__assert_fail
  tail call fastcc void @_RNvNtCs5dfrY2TkJWl_14unsafe_libyaml7externs13___assert_fail(ptr noalias noundef nonnull readonly align 1 captures(address, read_provenance) @alloc_8b821453f3ff2cb0eefca90c15287620, i64 noundef 93, ptr noalias noundef nonnull readonly align 1 captures(address, read_provenance) @alloc_b08f38296d5e13f36617fe99ae622e73, i64 noundef 104, i32 noundef 1503) #22
  unreachable

bb10:                                             ; preds = %bb7
  %6 = getelementptr inbounds nuw i8, ptr %3, i64 32
  %_25 = load ptr, ptr %6, align 8, !noundef !4
  %7 = getelementptr inbounds nuw i8, ptr %3, i64 24
  %_28 = load ptr, ptr %7, align 8, !noundef !4
  %_24 = icmp eq ptr %_25, %_28
  br i1 %_24, label %bb13, label %bb16

bb13:                                             ; preds = %bb10
  %8 = getelementptr inbounds nuw i8, ptr %3, i64 16
  %_5.i = load ptr, ptr %8, align 8, !noundef !4
  %_27.i = ptrtoint ptr %_25 to i64
  %_28.i = ptrtoint ptr %_5.i to i64
  %_26.i = sub i64 %_27.i, %_28.i
  %9 = add i64 %_26.i, 4611686018427387904
  %_6.1.i.i = icmp slt i64 %9, 0
  br i1 %_6.1.i.i, label %bb1.i.i, label %_RNvXs4_NtCs5dfrY2TkJWl_14unsafe_libyaml3opsxNtB5_8ForceMul9force_mul.exit.i, !prof !2

bb1.i.i:                                          ; preds = %bb13
; call unsafe_libyaml::ops::die::<i32>
  tail call fastcc void @_RINvNtCs5dfrY2TkJWl_14unsafe_libyaml3ops3dielEB4_()
  unreachable

_RNvXs4_NtCs5dfrY2TkJWl_14unsafe_libyaml3opsxNtB5_8ForceMul9force_mul.exit.i: ; preds = %bb13
  %_6.0.i.i = shl nsw i64 %_26.i, 1
; call unsafe_libyaml::api::yaml_realloc
  %new_start.i = tail call fastcc noundef ptr @_RNvNtCs5dfrY2TkJWl_14unsafe_libyaml3api12yaml_realloc(ptr noundef %_5.i, i64 noundef %_6.0.i.i)
  %_16.i = load ptr, ptr %6, align 8, !noundef !4
  %_18.i = load ptr, ptr %8, align 8, !noundef !4
  %_30.i = ptrtoint ptr %_16.i to i64
  %_31.i = ptrtoint ptr %_18.i to i64
  %_29.i = sub i64 %_30.i, %_31.i
  %10 = getelementptr i8, ptr %new_start.i, i64 %_29.i
  store ptr %10, ptr %6, align 8
  %_23.i = load ptr, ptr %7, align 8, !noundef !4
  %_35.i = ptrtoint ptr %_23.i to i64
  %_34.i = sub i64 %_35.i, %_31.i
  %11 = add i64 %_34.i, 4611686018427387904
  %_6.1.i3.i = icmp slt i64 %11, 0
  br i1 %_6.1.i3.i, label %bb1.i5.i, label %_RNvNtCs5dfrY2TkJWl_14unsafe_libyaml3api17yaml_stack_extend.exit, !prof !2

bb1.i5.i:                                         ; preds = %_RNvXs4_NtCs5dfrY2TkJWl_14unsafe_libyaml3opsxNtB5_8ForceMul9force_mul.exit.i
; call unsafe_libyaml::ops::die::<i32>
  tail call fastcc void @_RINvNtCs5dfrY2TkJWl_14unsafe_libyaml3ops3dielEB4_()
  unreachable

_RNvNtCs5dfrY2TkJWl_14unsafe_libyaml3api17yaml_stack_extend.exit: ; preds = %_RNvXs4_NtCs5dfrY2TkJWl_14unsafe_libyaml3opsxNtB5_8ForceMul9force_mul.exit.i
  %_6.0.i4.i = shl nsw i64 %_34.i, 1
  %12 = getelementptr i8, ptr %new_start.i, i64 %_6.0.i4.i
  store ptr %12, ptr %7, align 8
  store ptr %new_start.i, ptr %8, align 8
  %_46.pre = load ptr, ptr %document, align 8
  br label %bb16

bb16:                                             ; preds = %bb10, %_RNvNtCs5dfrY2TkJWl_14unsafe_libyaml3api17yaml_stack_extend.exit
  %_46 = phi ptr [ %_8, %bb10 ], [ %_46.pre, %_RNvNtCs5dfrY2TkJWl_14unsafe_libyaml3api17yaml_stack_extend.exit ]
  %13 = getelementptr %"yaml::yaml_node_t", ptr %_46, i64 %_14, i32 3, i32 0, i64 2
  %_44 = load ptr, ptr %13, align 8, !noundef !4
  store i32 %item, ptr %_44, align 4
  %_50 = load ptr, ptr %document, align 8, !noundef !4
  %14 = getelementptr %"yaml::yaml_node_t", ptr %_50, i64 %_14, i32 3, i32 0, i64 2
  %_48 = load ptr, ptr %14, align 8, !noundef !4
  %15 = getelementptr i8, ptr %_48, i64 4
  store ptr %15, ptr %14, align 8
  ret i1 true
}

; unsafe_libyaml::api::yaml_document_end_event_initialize
; Function Attrs: uwtable
define noundef zeroext i1 @_RNvNtCs5dfrY2TkJWl_14unsafe_libyaml3api34yaml_document_end_event_initialize(ptr noundef writeonly captures(address_is_null) %event, i1 noundef zeroext %implicit) unnamed_addr #1 {
start:
  %0 = icmp eq ptr %event, null
  br i1 %0, label %bb1, label %bb2

bb1:                                              ; preds = %start
; call unsafe_libyaml::externs::__assert_fail
  tail call fastcc void @_RNvNtCs5dfrY2TkJWl_14unsafe_libyaml7externs13___assert_fail(ptr noalias noundef nonnull readonly align 1 captures(address, read_provenance) @alloc_79eb5dcc0b055fff49be8085edfed028, i64 noundef 16, ptr noalias noundef nonnull readonly align 1 captures(address, read_provenance) @alloc_b08f38296d5e13f36617fe99ae622e73, i64 noundef 104, i32 noundef 726) #22
  unreachable

bb2:                                              ; preds = %start
  %1 = getelementptr inbounds nuw i8, ptr %event, i64 4
  tail call void @llvm.memset.p0.i64(ptr noundef nonnull align 1 dereferenceable(44) %1, i8 0, i64 44, i1 false)
  store i32 4, ptr %event, align 8
  %2 = getelementptr inbounds nuw i8, ptr %event, i64 48
  %3 = getelementptr inbounds nuw i8, ptr %event, i64 8
  %4 = zext i1 %implicit to i8
  tail call void @llvm.memset.p0.i64(ptr noundef nonnull align 8 dereferenceable(48) %2, i8 0, i64 48, i1 false)
  store i8 %4, ptr %3, align 8
  ret i1 true
}

; unsafe_libyaml::api::yaml_sequence_end_event_initialize
; Function Attrs: uwtable
define noundef zeroext i1 @_RNvNtCs5dfrY2TkJWl_14unsafe_libyaml3api34yaml_sequence_end_event_initialize(ptr noundef writeonly captures(address_is_null) %event) unnamed_addr #1 {
start:
  %0 = icmp eq ptr %event, null
  br i1 %0, label %bb1, label %bb2

bb1:                                              ; preds = %start
; call unsafe_libyaml::externs::__assert_fail
  tail call fastcc void @_RNvNtCs5dfrY2TkJWl_14unsafe_libyaml7externs13___assert_fail(ptr noalias noundef nonnull readonly align 1 captures(address, read_provenance) @alloc_79eb5dcc0b055fff49be8085edfed028, i64 noundef 16, ptr noalias noundef nonnull readonly align 1 captures(address, read_provenance) @alloc_b08f38296d5e13f36617fe99ae622e73, i64 noundef 104, i32 noundef 951) #22
  unreachable

bb2:                                              ; preds = %start
  %1 = getelementptr inbounds nuw i8, ptr %event, i64 4
  tail call void @llvm.memset.p0.i64(ptr noundef nonnull align 1 dereferenceable(44) %1, i8 0, i64 44, i1 false)
  store i32 8, ptr %event, align 8
  %2 = getelementptr inbounds nuw i8, ptr %event, i64 48
  tail call void @llvm.memset.p0.i64(ptr noundef nonnull align 8 dereferenceable(48) %2, i8 0, i64 48, i1 false)
  ret i1 true
}

; unsafe_libyaml::api::yaml_stream_start_event_initialize
; Function Attrs: uwtable
define noundef zeroext i1 @_RNvNtCs5dfrY2TkJWl_14unsafe_libyaml3api34yaml_stream_start_event_initialize(ptr noundef writeonly captures(address_is_null) %event, i32 noundef range(i32 0, 4) %encoding) unnamed_addr #1 {
start:
  %0 = icmp eq ptr %event, null
  br i1 %0, label %bb1, label %bb2

bb1:                                              ; preds = %start
; call unsafe_libyaml::externs::__assert_fail
  tail call fastcc void @_RNvNtCs5dfrY2TkJWl_14unsafe_libyaml7externs13___assert_fail(ptr noalias noundef nonnull readonly align 1 captures(address, read_provenance) @alloc_79eb5dcc0b055fff49be8085edfed028, i64 noundef 16, ptr noalias noundef nonnull readonly align 1 captures(address, read_provenance) @alloc_b08f38296d5e13f36617fe99ae622e73, i64 noundef 104, i32 noundef 564) #22
  unreachable

bb2:                                              ; preds = %start
  %1 = getelementptr inbounds nuw i8, ptr %event, i64 4
  tail call void @llvm.memset.p0.i64(ptr noundef nonnull align 1 dereferenceable(44) %1, i8 0, i64 44, i1 false)
  store i32 1, ptr %event, align 8
  %2 = getelementptr inbounds nuw i8, ptr %event, i64 48
  %3 = getelementptr inbounds nuw i8, ptr %event, i64 8
  tail call void @llvm.memset.p0.i64(ptr noundef nonnull align 8 dereferenceable(48) %2, i8 0, i64 48, i1 false)
  store i32 %encoding, ptr %3, align 8
  ret i1 true
}

; unsafe_libyaml::api::yaml_mapping_start_event_initialize
; Function Attrs: uwtable
define noundef zeroext i1 @_RNvNtCs5dfrY2TkJWl_14unsafe_libyaml3api35yaml_mapping_start_event_initialize(ptr noundef writeonly captures(address_is_null) %event, ptr noundef readonly captures(address) %anchor, ptr noundef readonly captures(address) %tag, i1 noundef zeroext %implicit, i32 noundef range(i32 0, 3) %style) unnamed_addr #1 {
start:
  %0 = icmp eq ptr %event, null
  br i1 %0, label %bb1, label %bb2

bb1:                                              ; preds = %start
; call unsafe_libyaml::externs::__assert_fail
  tail call fastcc void @_RNvNtCs5dfrY2TkJWl_14unsafe_libyaml7externs13___assert_fail(ptr noalias noundef nonnull readonly align 1 captures(address, read_provenance) @alloc_79eb5dcc0b055fff49be8085edfed028, i64 noundef 16, ptr noalias noundef nonnull readonly align 1 captures(address, read_provenance) @alloc_b08f38296d5e13f36617fe99ae622e73, i64 noundef 104, i32 noundef 983) #22
  unreachable

bb2:                                              ; preds = %start
  %1 = icmp eq ptr %anchor, null
  br i1 %1, label %bb38, label %bb23.preheader

bb23.preheader:                                   ; preds = %bb2
  %strlen = tail call i64 @strlen(ptr noundef nonnull dereferenceable(1) %anchor)
; call unsafe_libyaml::api::yaml_check_utf8
  %_11 = tail call fastcc noundef zeroext i1 @_RNvNtCs5dfrY2TkJWl_14unsafe_libyaml3api15yaml_check_utf8(ptr noundef nonnull %anchor, i64 noundef %strlen)
  br i1 %_11, label %bb2.i, label %bb22

bb38:                                             ; preds = %_RNvNtCs5dfrY2TkJWl_14unsafe_libyaml3api11yaml_strdup.exit, %bb2
  %anchor_copy.sroa.0.0 = phi ptr [ null, %bb2 ], [ %_10.i.i.i, %_RNvNtCs5dfrY2TkJWl_14unsafe_libyaml3api11yaml_strdup.exit ]
  %2 = icmp eq ptr %tag, null
  br i1 %2, label %bb39, label %bb30.preheader

bb30.preheader:                                   ; preds = %bb38
  %strlen34 = tail call i64 @strlen(ptr noundef nonnull dereferenceable(1) %tag)
; call unsafe_libyaml::api::yaml_check_utf8
  %_18 = tail call fastcc noundef zeroext i1 @_RNvNtCs5dfrY2TkJWl_14unsafe_libyaml3api15yaml_check_utf8(ptr noundef nonnull %tag, i64 noundef %strlen34)
  br i1 %_18, label %bb2.i12, label %bb19

bb2.i:                                            ; preds = %bb23.preheader
  %strlen.i.i = tail call i64 @strlen(ptr noundef nonnull readonly dereferenceable(1) %anchor)
  %_4.i.i = add i64 %strlen.i.i, 1
  %_5.0.i.i.i.i = add i64 %strlen.i.i, 9
  %_5.1.i.i.i.i = icmp ugt i64 %_4.i.i, -9
  br i1 %_5.1.i.i.i.i, label %bb1.i.i.i.i, label %_RNvXs2_NtCs5dfrY2TkJWl_14unsafe_libyaml3opsjNtB5_8ForceAdd9force_add.exit.i.i.i, !prof !2

bb1.i.i.i.i:                                      ; preds = %bb2.i
; call unsafe_libyaml::ops::die::do_die
  tail call void @_RNvNvNtCs5dfrY2TkJWl_14unsafe_libyaml3ops3die6do_die() #22
  unreachable

_RNvXs2_NtCs5dfrY2TkJWl_14unsafe_libyaml3opsjNtB5_8ForceAdd9force_add.exit.i.i.i: ; preds = %bb2.i
  %_12.i.i.i = icmp ugt i64 %_5.0.i.i.i.i, 9223372036854775800
  br i1 %_12.i.i.i, label %bb10.i.i.i, label %bb11.i.i.i, !prof !3

bb11.i.i.i:                                       ; preds = %_RNvXs2_NtCs5dfrY2TkJWl_14unsafe_libyaml3opsjNtB5_8ForceAdd9force_add.exit.i.i.i
; call __rustc::__rust_no_alloc_shim_is_unstable_v2
  tail call void @_RNvCsKhRCbHf33p_7___rustc35___rust_no_alloc_shim_is_unstable_v2() #23
; call __rustc::__rust_alloc
  %memory.i.i.i = tail call noundef align 8 ptr @_RNvCsKhRCbHf33p_7___rustc12___rust_alloc(i64 noundef %_5.0.i.i.i.i, i64 noundef 8) #23
  %3 = icmp eq ptr %memory.i.i.i, null
  br i1 %3, label %bb3.i.i.i, label %_RNvNtCs5dfrY2TkJWl_14unsafe_libyaml3api11yaml_strdup.exit, !prof !2

bb10.i.i.i:                                       ; preds = %_RNvXs2_NtCs5dfrY2TkJWl_14unsafe_libyaml3opsjNtB5_8ForceAdd9force_add.exit.i.i.i
; call unsafe_libyaml::ops::die::do_die
  tail call void @_RNvNvNtCs5dfrY2TkJWl_14unsafe_libyaml3ops3die6do_die() #22
  unreachable

bb3.i.i.i:                                        ; preds = %bb11.i.i.i
; call alloc::alloc::handle_alloc_error
  tail call void @_RNvNtCsdJPVW0sQgAG_5alloc5alloc18handle_alloc_error(i64 noundef 8, i64 noundef %_5.0.i.i.i.i) #22
  unreachable

_RNvNtCs5dfrY2TkJWl_14unsafe_libyaml3api11yaml_strdup.exit: ; preds = %bb11.i.i.i
  store i64 %_5.0.i.i.i.i, ptr %memory.i.i.i, align 8
  %_10.i.i.i = getelementptr inbounds nuw i8, ptr %memory.i.i.i, i64 8
  tail call void @llvm.memcpy.p0.p0.i64(ptr nonnull align 8 %_10.i.i.i, ptr nonnull readonly align 1 %anchor, i64 %_4.i.i, i1 false)
  br label %bb38

bb39:                                             ; preds = %_RNvNtCs5dfrY2TkJWl_14unsafe_libyaml3api11yaml_strdup.exit27, %bb38
  %tag_copy.sroa.0.0 = phi ptr [ null, %bb38 ], [ %_10.i.i.i22, %_RNvNtCs5dfrY2TkJWl_14unsafe_libyaml3api11yaml_strdup.exit27 ]
  %4 = getelementptr inbounds nuw i8, ptr %event, i64 4
  tail call void @llvm.memset.p0.i64(ptr noundef nonnull align 1 dereferenceable(44) %4, i8 0, i64 44, i1 false)
  store i32 9, ptr %event, align 8
  %5 = getelementptr inbounds nuw i8, ptr %event, i64 48
  %6 = getelementptr inbounds nuw i8, ptr %event, i64 8
  tail call void @llvm.memset.p0.i64(ptr noundef nonnull align 8 dereferenceable(48) %5, i8 0, i64 48, i1 false)
  store ptr %anchor_copy.sroa.0.0, ptr %6, align 8
  %7 = getelementptr inbounds nuw i8, ptr %event, i64 16
  store ptr %tag_copy.sroa.0.0, ptr %7, align 8
  %8 = getelementptr inbounds nuw i8, ptr %event, i64 24
  %9 = zext i1 %implicit to i8
  store i8 %9, ptr %8, align 8
  %10 = getelementptr inbounds nuw i8, ptr %event, i64 28
  store i32 %style, ptr %10, align 4
  br label %bb22

bb2.i12:                                          ; preds = %bb30.preheader
  %strlen.i.i13 = tail call i64 @strlen(ptr noundef nonnull readonly dereferenceable(1) %tag)
  %_4.i.i14 = add i64 %strlen.i.i13, 1
  %_5.0.i.i.i.i15 = add i64 %strlen.i.i13, 9
  %_5.1.i.i.i.i16 = icmp ugt i64 %_4.i.i14, -9
  br i1 %_5.1.i.i.i.i16, label %bb1.i.i.i.i26, label %_RNvXs2_NtCs5dfrY2TkJWl_14unsafe_libyaml3opsjNtB5_8ForceAdd9force_add.exit.i.i.i17, !prof !2

bb1.i.i.i.i26:                                    ; preds = %bb2.i12
; call unsafe_libyaml::ops::die::do_die
  tail call void @_RNvNvNtCs5dfrY2TkJWl_14unsafe_libyaml3ops3die6do_die() #22
  unreachable

