; ModuleID = 'walkdir.79bb5ea2e88512ab-cgu.0'
source_filename = "walkdir.79bb5ea2e88512ab-cgu.0"
target datalayout = "e-m:o-p270:32:32-p271:32:32-p272:64:64-i64:64-i128:128-n32:64-S128-Fn32"
target triple = "arm64-apple-macosx11.0.0"

%"core::result::Result<dent::DirEntry, error::Error>" = type { i64, [6 x i64] }
%Ancestor = type { %"std::path::PathBuf" }
%"std::path::PathBuf" = type { %"std::ffi::os_str::OsString" }
%"std::ffi::os_str::OsString" = type { %"std::sys::os_str::bytes::Buf" }
%"std::sys::os_str::bytes::Buf" = type { %"alloc::vec::Vec<u8>" }
%"alloc::vec::Vec<u8>" = type { %"alloc::raw_vec::RawVec<u8>", i64 }
%"alloc::raw_vec::RawVec<u8>" = type { %"alloc::raw_vec::RawVecInner", %"core::marker::PhantomData<u8>" }
%"alloc::raw_vec::RawVecInner" = type { i64, ptr, %"alloc::alloc::Global" }
%"alloc::alloc::Global" = type {}
%"core::marker::PhantomData<u8>" = type {}
%"dent::DirEntry" = type { %"std::path::PathBuf", i64, i64, i16, i8, [5 x i8] }
%DirList = type { i64, [7 x i64] }

@vtable.0 = private unnamed_addr constant <{ [24 x i8], ptr, ptr }> <{ [24 x i8] c"\00\00\00\00\00\00\00\00\00\00\00\00\00\00\00\00\01\00\00\00\00\00\00\00", ptr @_RNSNvYNCNvMs_CsarYwbBXrH4d_7walkdirNtBb_7WalkDir17sort_by_file_name0INtNtNtCsjMrxcFdYDNN_4core3ops8function6FnOnceTRNtNtBb_4dent8DirEntryB1P_EE9call_once6vtableBb_, ptr @_RNCNvMs_CsarYwbBXrH4d_7walkdirNtB6_7WalkDir17sort_by_file_name0B6_ }>, align 8
@alloc_74d19fd2f6ebacd6902753249f054837 = private unnamed_addr constant [136 x i8] c"/Users/hongyaotang/.rustup/toolchains/nightly-aarch64-apple-darwin/lib/rustlib/src/rust/library/core/src/slice/sort/stable/quicksort.rs\00", align 1
@alloc_63b5b202754b5efb770c3fd338a9a466 = private unnamed_addr constant <{ ptr, [16 x i8] }> <{ ptr @alloc_74d19fd2f6ebacd6902753249f054837, [16 x i8] c"\87\00\00\00\00\00\00\00J\00\00\00\1F\00\00\00" }>, align 8
@alloc_36ce49ab0499b14b6f7dec8f3551378e = private unnamed_addr constant <{ ptr, [16 x i8] }> <{ ptr @alloc_74d19fd2f6ebacd6902753249f054837, [16 x i8] c"\87\00\00\00\00\00\00\00D\00\00\00\17\00\00\00" }>, align 8
@alloc_d1084648e479974e70c9329824bf76f9 = private unnamed_addr constant [9 x i8] c"mid > len", align 1
@alloc_9c940d26a66a2a68adaa819ca564fd28 = private unnamed_addr constant [97 x i8] c"/Users/hongyaotang/.cargo/registry/src/index.crates.io-1949cf8c6b5b557f/walkdir-2.5.0/src/lib.rs\00", align 1
@alloc_47e9a95a7e6743c630b8dc44fd8334eb = private unnamed_addr constant [51 x i8] c"BUG: called is_same_file_system without root device", align 1
@alloc_5d4660e25ce5d46712141b88085cffca = private unnamed_addr constant <{ ptr, [16 x i8] }> <{ ptr @alloc_9c940d26a66a2a68adaa819ca564fd28, [16 x i8] c"`\00\00\00\00\00\00\00\E5\03\00\00\0E\00\00\00" }>, align 8
@alloc_a7455143ebb32770d194a02d72a823aa = private unnamed_addr constant [32 x i8] c"BUG: cannot pop from empty stack", align 1
@alloc_81e4be2212f19f75ac10f97b281265e5 = private unnamed_addr constant <{ ptr, [16 x i8] }> <{ ptr @alloc_9c940d26a66a2a68adaa819ca564fd28, [16 x i8] c"`\00\00\00\00\00\00\00\B7\03\00\00\1F\00\00\00" }>, align 8
@alloc_369d4fca9889d20ea478b2535f2f67dd = private unnamed_addr constant [33 x i8] c"BUG: list/path stacks out of sync", align 1
@alloc_f5c1e5e8c2c061740d120bfbf0725b0f = private unnamed_addr constant <{ ptr, [16 x i8] }> <{ ptr @alloc_9c940d26a66a2a68adaa819ca564fd28, [16 x i8] c"`\00\00\00\00\00\00\00\B9\03\00\00#\00\00\00" }>, align 8
@alloc_fe0796cedbf57eec1a1715554c92530a = private unnamed_addr constant <{ ptr, [16 x i8] }> <{ ptr @alloc_9c940d26a66a2a68adaa819ca564fd28, [16 x i8] c"`\00\00\00\00\00\00\00\8A\03\00\00\1C\00\00\00" }>, align 8
@alloc_3e766849636974ea221c0ef7c96d5e97 = private unnamed_addr constant <{ ptr, [16 x i8] }> <{ ptr @alloc_9c940d26a66a2a68adaa819ca564fd28, [16 x i8] c"`\00\00\00\00\00\00\00\B1\03\00\00D\00\00\00" }>, align 8
@alloc_28fa3a3487cb94fdc7ce5cf2fd7f5672 = private unnamed_addr constant <{ ptr, [16 x i8] }> <{ ptr @alloc_9c940d26a66a2a68adaa819ca564fd28, [16 x i8] c"`\00\00\00\00\00\00\00\88\03\00\00C\00\00\00" }>, align 8
@alloc_f7dab50b19f9d07673ad709515025da0 = private unnamed_addr constant [9 x i8] c"Some(...)", align 1
@alloc_37d2e53432a03a1f90b3e7253015eaf9 = private unnamed_addr constant [4 x i8] c"None", align 1
@alloc_d714d9dfd28cf6a9ad0e82cf8b1372ea = private unnamed_addr constant [14 x i8] c"WalkDirOptions", align 1
@vtable.1 = private unnamed_addr constant <{ [24 x i8], ptr }> <{ [24 x i8] c"\00\00\00\00\00\00\00\00\01\00\00\00\00\00\00\00\01\00\00\00\00\00\00\00", ptr @_RNvXsf_NtCsjMrxcFdYDNN_4core3fmtbNtB5_5Debug3fmt }>, align 8
@alloc_308a25eec56a6cc6390bb5730f0fa3f5 = private unnamed_addr constant [12 x i8] c"follow_links", align 1
@alloc_d71d874d004130da7ff6b3af219e7179 = private unnamed_addr constant [16 x i8] c"follow_root_link", align 1
@vtable.2 = private unnamed_addr constant <{ [24 x i8], ptr }> <{ [24 x i8] c"\00\00\00\00\00\00\00\00\08\00\00\00\00\00\00\00\08\00\00\00\00\00\00\00", ptr @_RNvXsZ_NtNtCsjMrxcFdYDNN_4core3fmt3numjNtB7_5Debug3fmt }>, align 8
@alloc_320b930fa94d45d4ab31770bc0e0cda7 = private unnamed_addr constant [8 x i8] c"max_open", align 1
@alloc_c105ca25c81a06e2a92ad52809bc2a8a = private unnamed_addr constant [9 x i8] c"min_depth", align 1
@alloc_7c939dbf1615c4691bd3f4cfbc046ac7 = private unnamed_addr constant [9 x i8] c"max_depth", align 1
@vtable.3 = private unnamed_addr constant <{ [24 x i8], ptr }> <{ [24 x i8] c"\00\00\00\00\00\00\00\00\10\00\00\00\00\00\00\00\08\00\00\00\00\00\00\00", ptr @_RNvXs1g_NtCsjMrxcFdYDNN_4core3fmtReNtB6_5Debug3fmtCsarYwbBXrH4d_7walkdir }>, align 8
@alloc_2d58c8bbe4563c561819bb5666a21d2a = private unnamed_addr constant [6 x i8] c"sorter", align 1
@alloc_e2a0bf94f60c5c26117b4eff9977d604 = private unnamed_addr constant [14 x i8] c"contents_first", align 1
@alloc_eeb3957c73ae0b537beb090154f28b19 = private unnamed_addr constant [16 x i8] c"same_file_system", align 1
@alloc_15295448e71ad0a49794d2a0b60d405b = private unnamed_addr constant [14 x i8] c"\09DirEntry(\C0\01)\00", align 1
@alloc_6c264a22652d2d2029a1b24c0820ee41 = private unnamed_addr constant [33 x i8] c"\1AIO error for operation on \C0\02: \C0\00", align 1
@alloc_884522af716a825d46454297f5f5d715 = private unnamed_addr constant [52 x i8] c"\18File system loop found: \C0\17 points to an ancestor \C0\00", align 1
@alloc_65a24c48507a3f07655bc752e59c1139 = private unnamed_addr constant [30 x i8] c"BUG: stack should be non-empty", align 1
@alloc_4f06d9fc34a8ce4ebe7bb54bb63ea865 = private unnamed_addr constant <{ ptr, [16 x i8] }> <{ ptr @alloc_9c940d26a66a2a68adaa819ca564fd28, [16 x i8] c"`\00\00\00\00\00\00\00\CB\02\00\00\12\00\00\00" }>, align 8
@vtable.4 = private unnamed_addr constant <{ [24 x i8], ptr }> <{ [24 x i8] c"\00\00\00\00\00\00\00\00\08\00\00\00\00\00\00\00\08\00\00\00\00\00\00\00", ptr @_RNvXs1g_NtCsjMrxcFdYDNN_4core3fmtRNtNtCsarYwbBXrH4d_7walkdir5error10ErrorInnerNtB6_5Debug3fmtBA_ }>, align 8
@alloc_99ac8a81a24cac863217ce4a5cbfabea = private unnamed_addr constant [5 x i8] c"Error", align 1
@alloc_1496eca9c646eb8a70ec7074a69455e2 = private unnamed_addr constant [5 x i8] c"depth", align 1
@alloc_6c342f467cee9eb46aaa013cf1ccd49c = private unnamed_addr constant [5 x i8] c"inner", align 1
@vtable.5 = private unnamed_addr constant <{ ptr, [16 x i8], ptr }> <{ ptr @_RINvNtCsjMrxcFdYDNN_4core3ptr13drop_in_placeINtNtB4_6option6OptionNtNtCs5sEH5CPMdak_3std4path7PathBufEECsarYwbBXrH4d_7walkdir, [16 x i8] c"\18\00\00\00\00\00\00\00\08\00\00\00\00\00\00\00", ptr @_RNvXsR_NtCsjMrxcFdYDNN_4core6optionINtB5_6OptionNtNtCs5sEH5CPMdak_3std4path7PathBufENtNtB7_3fmt5Debug3fmtCsarYwbBXrH4d_7walkdir }>, align 8
@vtable.6 = private unnamed_addr constant <{ [24 x i8], ptr }> <{ [24 x i8] c"\00\00\00\00\00\00\00\00\08\00\00\00\00\00\00\00\08\00\00\00\00\00\00\00", ptr @_RNvXs1g_NtCsjMrxcFdYDNN_4core3fmtRNtNtNtCs5sEH5CPMdak_3std2io5error5ErrorNtB6_5Debug3fmtCsarYwbBXrH4d_7walkdir }>, align 8
@alloc_24a9d1d9c182d85dcff0523bfa2532d4 = private unnamed_addr constant [2 x i8] c"Io", align 1
@alloc_1713fdbdd59e3f6dd78509f861b8bb36 = private unnamed_addr constant [4 x i8] c"path", align 1
@alloc_753aceb6ee79a10c747ccb31227ed98f = private unnamed_addr constant [3 x i8] c"err", align 1
@vtable.7 = private unnamed_addr constant <{ ptr, [16 x i8], ptr }> <{ ptr @_RINvNtCsjMrxcFdYDNN_4core3ptr13drop_in_placeNtNtCs5sEH5CPMdak_3std4path7PathBufECsarYwbBXrH4d_7walkdir, [16 x i8] c"\18\00\00\00\00\00\00\00\08\00\00\00\00\00\00\00", ptr @_RNvXsG_NtCs5sEH5CPMdak_3std4pathNtB5_7PathBufNtNtCsjMrxcFdYDNN_4core3fmt5Debug3fmt }>, align 8
@vtable.8 = private unnamed_addr constant <{ [24 x i8], ptr }> <{ [24 x i8] c"\00\00\00\00\00\00\00\00\08\00\00\00\00\00\00\00\08\00\00\00\00\00\00\00", ptr @_RNvXs1g_NtCsjMrxcFdYDNN_4core3fmtRNtNtCs5sEH5CPMdak_3std4path7PathBufNtB6_5Debug3fmtCsarYwbBXrH4d_7walkdir }>, align 8
@alloc_cbe560349b6a680eee426b88f9a47a11 = private unnamed_addr constant [4 x i8] c"Loop", align 1
@alloc_5b1139eb08b255c691d8263efc399d94 = private unnamed_addr constant [8 x i8] c"ancestor", align 1
@alloc_16ae073f6b5125d23ce16ce8c0c96634 = private unnamed_addr constant [5 x i8] c"child", align 1
@alloc_9535bf4c204f3eb9b19ec2c83e446e52 = private unnamed_addr constant [4 x i8] c"Some", align 1
@alloc_04d7ce44d7c86a9a02b346ab945bf155 = private unnamed_addr constant [40 x i8] c"description() is deprecated; use Display", align 1
@alloc_48bada85afbcc0a7dd8eb6b62a4956f4 = private unnamed_addr constant [22 x i8] c"file system loop found", align 1
@alloc_042f92cb4f8839bdce1a95ebac842941 = private unnamed_addr constant <{ ptr, [16 x i8], ptr }> <{ ptr @_RINvNtCsjMrxcFdYDNN_4core3ptr13drop_in_placeNtNtNtCs5sEH5CPMdak_3std2io5error5ErrorECsarYwbBXrH4d_7walkdir, [16 x i8] c"\08\00\00\00\00\00\00\00\08\00\00\00\00\00\00\00", ptr @_RNvXs7_NtNtCs5sEH5CPMdak_3std2io5errorNtB5_5ErrorNtNtCsjMrxcFdYDNN_4core3fmt7Display3fmt }>, align 8
@vtable.9 = private unnamed_addr constant <{ ptr, [16 x i8], ptr, ptr, ptr, ptr, ptr, ptr, ptr, ptr }> <{ ptr @_RINvNtCsjMrxcFdYDNN_4core3ptr13drop_in_placeNtNtNtCs5sEH5CPMdak_3std2io5error5ErrorECsarYwbBXrH4d_7walkdir, [16 x i8] c"\08\00\00\00\00\00\00\00\08\00\00\00\00\00\00\00", ptr @_RNvXNtNtCs5sEH5CPMdak_3std2io5errorNtB2_5ErrorNtNtCsjMrxcFdYDNN_4core3fmt5Debug3fmt, ptr @_RNvXs7_NtNtCs5sEH5CPMdak_3std2io5errorNtB5_5ErrorNtNtCsjMrxcFdYDNN_4core3fmt7Display3fmt, ptr @alloc_042f92cb4f8839bdce1a95ebac842941, ptr @_RNvXs8_NtNtCs5sEH5CPMdak_3std2io5errorNtB5_5ErrorNtNtCsjMrxcFdYDNN_4core5error5Error6source, ptr @_RNvYNtNtNtCs5sEH5CPMdak_3std2io5error5ErrorNtNtCsjMrxcFdYDNN_4core5error5Error7type_idCsarYwbBXrH4d_7walkdir, ptr @_RNvYNtNtNtCs5sEH5CPMdak_3std2io5error5ErrorNtNtCsjMrxcFdYDNN_4core5error5Error11descriptionCsarYwbBXrH4d_7walkdir, ptr @_RNvXs8_NtNtCs5sEH5CPMdak_3std2io5errorNtB5_5ErrorNtNtCsjMrxcFdYDNN_4core5error5Error5cause, ptr @_RNvYNtNtCsarYwbBXrH4d_7walkdir5error5ErrorNtNtCsjMrxcFdYDNN_4core5error5Error7provideB6_ }>, align 8
@alloc_83aa21f520eb34c82bb7b61f637df61f = private unnamed_addr constant <{ ptr, [16 x i8], ptr }> <{ ptr @_RINvNtCsjMrxcFdYDNN_4core3ptr13drop_in_placeNtNtCsarYwbBXrH4d_7walkdir5error5ErrorEBK_, [16 x i8] c"8\00\00\00\00\00\00\00\08\00\00\00\00\00\00\00", ptr @_RNvXs0_NtCsarYwbBXrH4d_7walkdir5errorNtB5_5ErrorNtNtCsjMrxcFdYDNN_4core3fmt7Display3fmt }>, align 8
@vtable.a = private unnamed_addr constant <{ ptr, [16 x i8], ptr, ptr, ptr, ptr, ptr, ptr, ptr, ptr }> <{ ptr @_RINvNtCsjMrxcFdYDNN_4core3ptr13drop_in_placeNtNtCsarYwbBXrH4d_7walkdir5error5ErrorEBK_, [16 x i8] c"8\00\00\00\00\00\00\00\08\00\00\00\00\00\00\00", ptr @_RNvXs2_NtCsarYwbBXrH4d_7walkdir5errorNtB5_5ErrorNtNtCsjMrxcFdYDNN_4core3fmt5Debug3fmt, ptr @_RNvXs0_NtCsarYwbBXrH4d_7walkdir5errorNtB5_5ErrorNtNtCsjMrxcFdYDNN_4core3fmt7Display3fmt, ptr @alloc_83aa21f520eb34c82bb7b61f637df61f, ptr @_RNvXs_NtCsarYwbBXrH4d_7walkdir5errorNtB4_5ErrorNtNtCsjMrxcFdYDNN_4core5error5Error5cause, ptr @_RNvYNtNtCsarYwbBXrH4d_7walkdir5error5ErrorNtNtCsjMrxcFdYDNN_4core5error5Error7type_idB6_, ptr @_RNvXs_NtCsarYwbBXrH4d_7walkdir5errorNtB4_5ErrorNtNtCsjMrxcFdYDNN_4core5error5Error11description, ptr @_RNvXs_NtCsarYwbBXrH4d_7walkdir5errorNtB4_5ErrorNtNtCsjMrxcFdYDNN_4core5error5Error5cause, ptr @_RNvYNtNtCsarYwbBXrH4d_7walkdir5error5ErrorNtNtCsjMrxcFdYDNN_4core5error5Error7provideB6_ }>, align 8
@anon.e110384ad14f08951530940520241fc9.0 = private unnamed_addr constant <{ ptr, ptr }> <{ ptr inttoptr (i64 3100052035237948756 to ptr), ptr inttoptr (i64 -7966408041620907540 to ptr) }>, align 8
@anon.e110384ad14f08951530940520241fc9.1 = private unnamed_addr constant <{ ptr, ptr }> <{ ptr inttoptr (i64 -199690759461531251 to ptr), ptr inttoptr (i64 -16825625559297924 to ptr) }>, align 8

; <std::io::error::Error>::new::<walkdir::error::Error>
; Function Attrs: noinline uwtable
define noundef nonnull ptr @_RINvMs5_NtNtCs5sEH5CPMdak_3std2io5errorNtB6_5Error3newNtNtCsarYwbBXrH4d_7walkdir5error5ErrorEBU_(i8 noundef range(i8 0, 42) %kind, ptr dead_on_return noalias noundef readonly align 8 captures(none) dereferenceable(56) %error) unnamed_addr #0 personality ptr @rust_eh_personality {
start:
; call __rustc::__rust_no_alloc_shim_is_unstable_v2
  tail call void @_RNvCsKhRCbHf33p_7___rustc35___rust_no_alloc_shim_is_unstable_v2() #26, !noalias !2
; call __rustc::__rust_alloc
  %0 = tail call noundef align 8 dereferenceable_or_null(56) ptr @_RNvCsKhRCbHf33p_7___rustc12___rust_alloc(i64 noundef 56, i64 noundef range(i64 1, -9223372036854775807) 8) #26, !noalias !2
  %1 = icmp eq ptr %0, null
  br i1 %1, label %bb2.i.i.i, label %_RNvXs1_NtCsjMrxcFdYDNN_4core7convertNtNtCsarYwbBXrH4d_7walkdir5error5ErrorINtB5_4IntoINtNtCsdJPVW0sQgAG_5alloc5boxed3BoxDNtNtB7_5error5ErrorNtNtB7_6marker4SendNtB2g_4SyncEL_EE4intoBC_.exit, !prof !9

bb2.i.i.i:                                        ; preds = %start
; invoke alloc::alloc::handle_alloc_error
  invoke void @_RNvNtCsdJPVW0sQgAG_5alloc5alloc18handle_alloc_error(i64 noundef 8, i64 noundef 56) #27
          to label %.noexc.i.i unwind label %cleanup.i.i.i, !noalias !10

.noexc.i.i:                                       ; preds = %bb2.i.i.i
  unreachable

cleanup.i.i.i:                                    ; preds = %bb2.i.i.i
  %2 = landingpad { ptr, i32 }
          cleanup
; invoke core::ptr::drop_in_place::<walkdir::error::Error>
  invoke void @_RINvNtCsjMrxcFdYDNN_4core3ptr13drop_in_placeNtNtCsarYwbBXrH4d_7walkdir5error5ErrorEBK_(ptr noalias noundef nonnull readonly align 8 dereferenceable(56) %error) #28
          to label %bb3.i.i.i unwind label %terminate.i.i.i

terminate.i.i.i:                                  ; preds = %cleanup.i.i.i
  %3 = landingpad { ptr, i32 }
          filter [0 x ptr] zeroinitializer
; call core::panicking::panic_in_cleanup
  tail call void @_RNvNtCsjMrxcFdYDNN_4core9panicking16panic_in_cleanup() #29, !noalias !10
  unreachable

bb3.i.i.i:                                        ; preds = %cleanup.i.i.i
  resume { ptr, i32 } %2

_RNvXs1_NtCsjMrxcFdYDNN_4core7convertNtNtCsarYwbBXrH4d_7walkdir5error5ErrorINtB5_4IntoINtNtCsdJPVW0sQgAG_5alloc5boxed3BoxDNtNtB7_5error5ErrorNtNtB7_6marker4SendNtB2g_4SyncEL_EE4intoBC_.exit: ; preds = %start
  tail call void @llvm.memcpy.p0.p0.i64(ptr noundef nonnull align 8 dereferenceable(56) %0, ptr noundef nonnull readonly align 8 dereferenceable(56) %error, i64 56, i1 false)
; call <std::io::error::Error>::_new
  %_0 = tail call noundef nonnull ptr @_RNvMs5_NtNtCs5sEH5CPMdak_3std2io5errorNtB5_5Error4__new(i8 noundef %kind, ptr noundef nonnull align 1 %0, ptr noalias noundef readonly align 8 captures(address, read_provenance) dereferenceable(80) @vtable.a)
  ret ptr %_0
}

; core::ptr::drop_in_place::<core::option::Option<std::path::PathBuf>>
; Function Attrs: nounwind uwtable
define internal void @_RINvNtCsjMrxcFdYDNN_4core3ptr13drop_in_placeINtNtB4_6option6OptionNtNtCs5sEH5CPMdak_3std4path7PathBufEECsarYwbBXrH4d_7walkdir(ptr noalias noundef readonly align 8 captures(none) dereferenceable(24) %_1) unnamed_addr #1 personality ptr @rust_eh_personality {
start:
  %0 = load i64, ptr %_1, align 8, !range !11, !noundef !12
  %1 = icmp eq i64 %0, -9223372036854775808
  br i1 %1, label %bb1, label %bb2

bb1:                                              ; preds = %bb2.i.i.i4.i.i.i.i, %bb2, %start
  ret void

bb2:                                              ; preds = %start
  tail call void @llvm.experimental.noalias.scope.decl(metadata !13)
  %2 = icmp eq i64 %0, 0
  br i1 %2, label %bb1, label %bb2.i.i.i4.i.i.i.i

bb2.i.i.i4.i.i.i.i:                               ; preds = %bb2
  %3 = getelementptr inbounds nuw i8, ptr %_1, i64 8
  %_1.val1.i = load ptr, ptr %3, align 8, !alias.scope !13, !nonnull !12, !noundef !12
; call __rustc::__rust_dealloc
  tail call void @_RNvCsKhRCbHf33p_7___rustc14___rust_dealloc(ptr noundef nonnull %_1.val1.i, i64 noundef %0, i64 noundef range(i64 1, -9223372036854775807) 1) #26, !noalias !13
  br label %bb1
}

; core::ptr::drop_in_place::<core::result::Result<walkdir::dent::DirEntry, walkdir::error::Error>>
; Function Attrs: uwtable
define internal fastcc void @_RINvNtCsjMrxcFdYDNN_4core3ptr13drop_in_placeINtNtB4_6result6ResultNtNtCsarYwbBXrH4d_7walkdir4dent8DirEntryNtNtB16_5error5ErrorEEB16_(ptr noalias noundef nonnull readonly align 8 captures(none) dereferenceable(56) %_1) unnamed_addr #2 personality ptr @rust_eh_personality {
start:
  %0 = load i64, ptr %_1, align 8, !range !16, !noundef !12
  %1 = icmp eq i64 %0, -9223372036854775807
  br i1 %1, label %bb2, label %bb3

bb2:                                              ; preds = %start
  %2 = getelementptr inbounds nuw i8, ptr %_1, i64 8
  %.val = load i64, ptr %2, align 8, !alias.scope !17
  %3 = icmp eq i64 %.val, 0
  br i1 %3, label %bb1, label %bb2.i.i.i4.i.i.i.i.i

bb2.i.i.i4.i.i.i.i.i:                             ; preds = %bb2
  %4 = getelementptr inbounds nuw i8, ptr %_1, i64 16
  %.val1 = load ptr, ptr %4, align 8, !nonnull !12, !noundef !12
; call __rustc::__rust_dealloc
  tail call void @_RNvCsKhRCbHf33p_7___rustc14___rust_dealloc(ptr noundef nonnull %.val1, i64 noundef %.val, i64 noundef range(i64 1, -9223372036854775807) 1) #26, !noalias !20
  br label %bb1

bb3:                                              ; preds = %start
  tail call void @llvm.experimental.noalias.scope.decl(metadata !23)
  tail call void @llvm.experimental.noalias.scope.decl(metadata !26)
  %5 = icmp eq i64 %0, -9223372036854775808
  br i1 %5, label %bb5.i.i, label %bb8.i.i

bb5.i.i:                                          ; preds = %bb3
  %6 = getelementptr inbounds nuw i8, ptr %_1, i64 8
  tail call void @llvm.experimental.noalias.scope.decl(metadata !29)
  %7 = load i64, ptr %6, align 8, !range !11, !alias.scope !32, !noundef !12
  %8 = icmp eq i64 %7, -9223372036854775808
  br i1 %8, label %bb4.i.i, label %bb2.i.i.i

bb2.i.i.i:                                        ; preds = %bb5.i.i
  tail call void @llvm.experimental.noalias.scope.decl(metadata !33)
  %9 = icmp eq i64 %7, 0
  br i1 %9, label %bb4.i.i, label %bb2.i.i.i4.i.i.i.i.i.i.i

bb2.i.i.i4.i.i.i.i.i.i.i:                         ; preds = %bb2.i.i.i
  %10 = getelementptr inbounds nuw i8, ptr %_1, i64 16
  %_1.val1.i.i.i.i = load ptr, ptr %10, align 8, !alias.scope !36, !nonnull !12, !noundef !12
; call __rustc::__rust_dealloc
  tail call void @_RNvCsKhRCbHf33p_7___rustc14___rust_dealloc(ptr noundef nonnull %_1.val1.i.i.i.i, i64 noundef %7, i64 noundef range(i64 1, -9223372036854775807) 1) #26, !noalias !36
  br label %bb4.i.i

bb8.i.i:                                          ; preds = %bb3
  tail call void @llvm.experimental.noalias.scope.decl(metadata !37)
  %11 = icmp eq i64 %0, 0
  br i1 %11, label %bb7.i.i, label %bb2.i.i.i4.i.i.i.i.i.i

bb2.i.i.i4.i.i.i.i.i.i:                           ; preds = %bb8.i.i
  %12 = getelementptr inbounds nuw i8, ptr %_1, i64 8
  %_1.val1.i.i.i = load ptr, ptr %12, align 8, !alias.scope !40, !nonnull !12, !noundef !12
; call __rustc::__rust_dealloc
  tail call void @_RNvCsKhRCbHf33p_7___rustc14___rust_dealloc(ptr noundef nonnull %_1.val1.i.i.i, i64 noundef %0, i64 noundef range(i64 1, -9223372036854775807) 1) #26, !noalias !40
  br label %bb7.i.i

bb4.i.i:                                          ; preds = %bb2.i.i.i4.i.i.i.i.i.i.i, %bb2.i.i.i, %bb5.i.i
  %13 = getelementptr inbounds nuw i8, ptr %_1, i64 32
; call core::ptr::drop_in_place::<std::io::error::Error>
  tail call void @_RINvNtCsjMrxcFdYDNN_4core3ptr13drop_in_placeNtNtNtCs5sEH5CPMdak_3std2io5error5ErrorECsarYwbBXrH4d_7walkdir(ptr noalias noundef nonnull readonly align 8 dereferenceable(8) %13)
  br label %bb1

bb7.i.i:                                          ; preds = %bb2.i.i.i4.i.i.i.i.i.i, %bb8.i.i
  %14 = getelementptr inbounds nuw i8, ptr %_1, i64 24
  tail call void @llvm.experimental.noalias.scope.decl(metadata !41)
  %_1.val.i7.i.i = load i64, ptr %14, align 8, !alias.scope !44
  %15 = icmp eq i64 %_1.val.i7.i.i, 0
  br i1 %15, label %bb1, label %bb2.i.i.i4.i.i.i.i8.i.i

bb2.i.i.i4.i.i.i.i8.i.i:                          ; preds = %bb7.i.i
  %16 = getelementptr inbounds nuw i8, ptr %_1, i64 32
  %_1.val1.i9.i.i = load ptr, ptr %16, align 8, !alias.scope !44, !nonnull !12, !noundef !12
; call __rustc::__rust_dealloc
  tail call void @_RNvCsKhRCbHf33p_7___rustc14___rust_dealloc(ptr noundef nonnull %_1.val1.i9.i.i, i64 noundef %_1.val.i7.i.i, i64 noundef range(i64 1, -9223372036854775807) 1) #26, !noalias !44
  br label %bb1

bb1:                                              ; preds = %bb2.i.i.i4.i.i.i.i8.i.i, %bb7.i.i, %bb4.i.i, %bb2.i.i.i4.i.i.i.i.i, %bb2
  ret void
}

; core::ptr::drop_in_place::<alloc::vec::Vec<core::result::Result<walkdir::dent::DirEntry, walkdir::error::Error>>>
; Function Attrs: uwtable
define internal fastcc void @_RINvNtCsjMrxcFdYDNN_4core3ptr13drop_in_placeINtNtCsdJPVW0sQgAG_5alloc3vec3VecINtNtB4_6result6ResultNtNtCsarYwbBXrH4d_7walkdir4dent8DirEntryNtNtB1D_5error5ErrorEEEB1D_(ptr noalias noundef nonnull readonly align 8 captures(none) dereferenceable(24) %_1) unnamed_addr #2 personality ptr @rust_eh_personality {
start:
  %0 = getelementptr inbounds nuw i8, ptr %_1, i64 8
  %_1.val = load ptr, ptr %0, align 8, !nonnull !12, !noundef !12
  %1 = getelementptr inbounds nuw i8, ptr %_1, i64 16
  %_1.val1 = load i64, ptr %1, align 8, !noundef !12
  br label %bb6.i.i

bb6.i.i:                                          ; preds = %bb5.i.i, %start
  %_3.sroa.0.0.i.i = phi i64 [ 0, %start ], [ %2, %bb5.i.i ]
  %_7.i.i = icmp eq i64 %_3.sroa.0.0.i.i, %_1.val1
  br i1 %_7.i.i, label %bb4, label %bb5.i.i

bb5.i.i:                                          ; preds = %bb6.i.i
  %_6.i.i = getelementptr inbounds nuw %"core::result::Result<dent::DirEntry, error::Error>", ptr %_1.val, i64 %_3.sroa.0.0.i.i
  %2 = add i64 %_3.sroa.0.0.i.i, 1
; invoke core::ptr::drop_in_place::<core::result::Result<walkdir::dent::DirEntry, walkdir::error::Error>>
  invoke fastcc void @_RINvNtCsjMrxcFdYDNN_4core3ptr13drop_in_placeINtNtB4_6result6ResultNtNtCsarYwbBXrH4d_7walkdir4dent8DirEntryNtNtB16_5error5ErrorEEB16_(ptr noalias noundef readonly align 8 dereferenceable(56) %_6.i.i)
          to label %bb6.i.i unwind label %cleanup.i.i

bb4.i.i:                                          ; preds = %bb3.i.i, %cleanup.i.i
  %_3.sroa.0.1.i.i = phi i64 [ %2, %cleanup.i.i ], [ %4, %bb3.i.i ]
  %_5.i.i = icmp eq i64 %_3.sroa.0.1.i.i, %_1.val1
  br i1 %_5.i.i, label %cleanup.body, label %bb3.i.i

cleanup.i.i:                                      ; preds = %bb5.i.i
  %3 = landingpad { ptr, i32 }
          cleanup
  br label %bb4.i.i

bb3.i.i:                                          ; preds = %bb4.i.i
  %_4.i.i = getelementptr inbounds nuw %"core::result::Result<dent::DirEntry, error::Error>", ptr %_1.val, i64 %_3.sroa.0.1.i.i
  %4 = add i64 %_3.sroa.0.1.i.i, 1
; invoke core::ptr::drop_in_place::<core::result::Result<walkdir::dent::DirEntry, walkdir::error::Error>>
  invoke fastcc void @_RINvNtCsjMrxcFdYDNN_4core3ptr13drop_in_placeINtNtB4_6result6ResultNtNtCsarYwbBXrH4d_7walkdir4dent8DirEntryNtNtB16_5error5ErrorEEB16_(ptr noalias noundef readonly align 8 dereferenceable(56) %_4.i.i) #28
          to label %bb4.i.i unwind label %terminate.i.i

terminate.i.i:                                    ; preds = %bb3.i.i
  %5 = landingpad { ptr, i32 }
          filter [0 x ptr] zeroinitializer
; call core::panicking::panic_in_cleanup
  tail call void @_RNvNtCsjMrxcFdYDNN_4core9panicking16panic_in_cleanup() #29, !noalias !45
  unreachable

cleanup.body:                                     ; preds = %bb4.i.i
  %_1.val2 = load i64, ptr %_1, align 8, !range !48, !noundef !12
  %6 = icmp eq i64 %_1.val2, 0
  br i1 %6, label %bb1, label %bb2.i.i.i

bb2.i.i.i:                                        ; preds = %cleanup.body
  %alloc_size.i.i.i.i = mul nuw i64 %_1.val2, 56
; call __rustc::__rust_dealloc
  tail call void @_RNvCsKhRCbHf33p_7___rustc14___rust_dealloc(ptr noundef nonnull %_1.val, i64 noundef %alloc_size.i.i.i.i, i64 noundef range(i64 1, -9223372036854775807) 8) #26
  br label %bb1

bb4:                                              ; preds = %bb6.i.i
  %_1.val4 = load i64, ptr %_1, align 8, !range !48, !noundef !12
  %7 = icmp eq i64 %_1.val4, 0
  br i1 %7, label %_RINvNtCsjMrxcFdYDNN_4core3ptr13drop_in_placeINtNtCsdJPVW0sQgAG_5alloc7raw_vec6RawVecINtNtB4_6result6ResultNtNtCsarYwbBXrH4d_7walkdir4dent8DirEntryNtNtB1K_5error5ErrorEEEB1K_.exit8, label %bb2.i.i.i6

bb2.i.i.i6:                                       ; preds = %bb4
  %alloc_size.i.i.i.i7 = mul nuw i64 %_1.val4, 56
; call __rustc::__rust_dealloc
  tail call void @_RNvCsKhRCbHf33p_7___rustc14___rust_dealloc(ptr noundef nonnull %_1.val, i64 noundef %alloc_size.i.i.i.i7, i64 noundef range(i64 1, -9223372036854775807) 8) #26
  br label %_RINvNtCsjMrxcFdYDNN_4core3ptr13drop_in_placeINtNtCsdJPVW0sQgAG_5alloc7raw_vec6RawVecINtNtB4_6result6ResultNtNtCsarYwbBXrH4d_7walkdir4dent8DirEntryNtNtB1K_5error5ErrorEEEB1K_.exit8

_RINvNtCsjMrxcFdYDNN_4core3ptr13drop_in_placeINtNtCsdJPVW0sQgAG_5alloc7raw_vec6RawVecINtNtB4_6result6ResultNtNtCsarYwbBXrH4d_7walkdir4dent8DirEntryNtNtB1K_5error5ErrorEEEB1K_.exit8: ; preds = %bb4, %bb2.i.i.i6
  ret void

bb1:                                              ; preds = %bb2.i.i.i, %cleanup.body
  resume { ptr, i32 } %3
}

; core::ptr::drop_in_place::<walkdir::DirList>
; Function Attrs: uwtable
define internal fastcc void @_RINvNtCsjMrxcFdYDNN_4core3ptr13drop_in_placeNtCsarYwbBXrH4d_7walkdir7DirListEBI_(ptr noalias noundef nonnull align 8 dereferenceable(64) %_1) unnamed_addr #2 personality ptr @rust_eh_personality {
start:
  %0 = load i64, ptr %_1, align 8, !range !49, !noundef !12
  %.not = icmp eq i64 %0, -9223372036854775805
  br i1 %.not, label %bb3, label %bb2

bb2:                                              ; preds = %start
  tail call void @llvm.experimental.noalias.scope.decl(metadata !50)
  %1 = icmp eq i64 %0, -9223372036854775806
  br i1 %1, label %bb2.i, label %bb3.i

bb2.i:                                            ; preds = %bb2
  %2 = getelementptr inbounds nuw i8, ptr %_1, i64 8
  tail call void @llvm.experimental.noalias.scope.decl(metadata !53)
  tail call void @llvm.experimental.noalias.scope.decl(metadata !56)
  tail call void @llvm.experimental.noalias.scope.decl(metadata !59)
  tail call void @llvm.experimental.noalias.scope.decl(metadata !62)
  %_10.i.i.i.i.i = load ptr, ptr %2, align 8, !alias.scope !65, !nonnull !12, !noundef !12
  %3 = atomicrmw sub ptr %_10.i.i.i.i.i, i64 1 release, align 8, !noalias !65
  %4 = icmp eq i64 %3, 1
  br i1 %4, label %bb2.i.i.i.i.i, label %bb1

bb2.i.i.i.i.i:                                    ; preds = %bb2.i
  fence acquire
; call <alloc::sync::Arc<std::sys::fs::unix::InnerReadDir>>::drop_slow
  tail call void @_RNvMsn_NtCsdJPVW0sQgAG_5alloc4syncINtB5_3ArcNtNtNtNtCs5sEH5CPMdak_3std3sys2fs4unix12InnerReadDirE9drop_slowBO_(ptr noalias noundef nonnull align 8 dereferenceable(16) %2) #30
  br label %bb1

bb3.i:                                            ; preds = %bb2
  tail call void @llvm.experimental.noalias.scope.decl(metadata !66)
  %5 = icmp eq i64 %0, -9223372036854775807
  br i1 %5, label %bb1, label %bb2.i.i

bb2.i.i:                                          ; preds = %bb3.i
  tail call void @llvm.experimental.noalias.scope.decl(metadata !69)
  tail call void @llvm.experimental.noalias.scope.decl(metadata !72)
  %6 = icmp eq i64 %0, -9223372036854775808
  br i1 %6, label %bb5.i.i.i.i, label %bb8.i.i.i.i

bb5.i.i.i.i:                                      ; preds = %bb2.i.i
  %7 = getelementptr inbounds nuw i8, ptr %_1, i64 8
  tail call void @llvm.experimental.noalias.scope.decl(metadata !75)
  %8 = load i64, ptr %7, align 8, !range !11, !alias.scope !78, !noundef !12
  %9 = icmp eq i64 %8, -9223372036854775808
  br i1 %9, label %bb4.i.i.i.i, label %bb2.i.i.i.i1.i

bb2.i.i.i.i1.i:                                   ; preds = %bb5.i.i.i.i
  tail call void @llvm.experimental.noalias.scope.decl(metadata !79)
  %10 = icmp eq i64 %8, 0
  br i1 %10, label %bb4.i.i.i.i, label %bb2.i.i.i4.i.i.i.i.i.i.i.i.i

bb2.i.i.i4.i.i.i.i.i.i.i.i.i:                     ; preds = %bb2.i.i.i.i1.i
  %11 = getelementptr inbounds nuw i8, ptr %_1, i64 16
  %_1.val1.i.i.i.i.i.i = load ptr, ptr %11, align 8, !alias.scope !82, !nonnull !12, !noundef !12
; call __rustc::__rust_dealloc
  tail call void @_RNvCsKhRCbHf33p_7___rustc14___rust_dealloc(ptr noundef nonnull %_1.val1.i.i.i.i.i.i, i64 noundef %8, i64 noundef range(i64 1, -9223372036854775807) 1) #26, !noalias !82
  br label %bb4.i.i.i.i

bb8.i.i.i.i:                                      ; preds = %bb2.i.i
  tail call void @llvm.experimental.noalias.scope.decl(metadata !83)
  %12 = icmp eq i64 %0, 0
  br i1 %12, label %bb7.i.i.i.i, label %bb2.i.i.i4.i.i.i.i.i.i.i.i

bb2.i.i.i4.i.i.i.i.i.i.i.i:                       ; preds = %bb8.i.i.i.i
  %13 = getelementptr inbounds nuw i8, ptr %_1, i64 8
  %_1.val1.i.i.i.i.i = load ptr, ptr %13, align 8, !alias.scope !86, !nonnull !12, !noundef !12
; call __rustc::__rust_dealloc
  tail call void @_RNvCsKhRCbHf33p_7___rustc14___rust_dealloc(ptr noundef nonnull %_1.val1.i.i.i.i.i, i64 noundef %0, i64 noundef range(i64 1, -9223372036854775807) 1) #26, !noalias !86
  br label %bb7.i.i.i.i

bb4.i.i.i.i:                                      ; preds = %bb2.i.i.i4.i.i.i.i.i.i.i.i.i, %bb2.i.i.i.i1.i, %bb5.i.i.i.i
  %14 = getelementptr inbounds nuw i8, ptr %_1, i64 32
; call core::ptr::drop_in_place::<std::io::error::Error>
  tail call void @_RINvNtCsjMrxcFdYDNN_4core3ptr13drop_in_placeNtNtNtCs5sEH5CPMdak_3std2io5error5ErrorECsarYwbBXrH4d_7walkdir(ptr noalias noundef nonnull readonly align 8 dereferenceable(8) %14)
  br label %bb1

bb7.i.i.i.i:                                      ; preds = %bb2.i.i.i4.i.i.i.i.i.i.i.i, %bb8.i.i.i.i
  %15 = getelementptr inbounds nuw i8, ptr %_1, i64 24
  tail call void @llvm.experimental.noalias.scope.decl(metadata !87)
  %_1.val.i7.i.i.i.i = load i64, ptr %15, align 8, !alias.scope !90
  %16 = icmp eq i64 %_1.val.i7.i.i.i.i, 0
  br i1 %16, label %bb1, label %bb2.i.i.i4.i.i.i.i8.i.i.i.i

bb2.i.i.i4.i.i.i.i8.i.i.i.i:                      ; preds = %bb7.i.i.i.i
  %17 = getelementptr inbounds nuw i8, ptr %_1, i64 32
  %_1.val1.i9.i.i.i.i = load ptr, ptr %17, align 8, !alias.scope !90, !nonnull !12, !noundef !12
; call __rustc::__rust_dealloc
  tail call void @_RNvCsKhRCbHf33p_7___rustc14___rust_dealloc(ptr noundef nonnull %_1.val1.i9.i.i.i.i, i64 noundef %_1.val.i7.i.i.i.i, i64 noundef range(i64 1, -9223372036854775807) 1) #26, !noalias !90
  br label %bb1

bb3:                                              ; preds = %start
  %18 = getelementptr inbounds nuw i8, ptr %_1, i64 8
  tail call void @llvm.experimental.noalias.scope.decl(metadata !91)
  tail call void @llvm.experimental.noalias.scope.decl(metadata !94)
  %19 = getelementptr inbounds nuw i8, ptr %_1, i64 16
  %self.val.i.i = load ptr, ptr %19, align 8, !alias.scope !97, !nonnull !12, !noundef !12
  %20 = getelementptr inbounds nuw i8, ptr %_1, i64 32
  %self.val1.i.i = load ptr, ptr %20, align 8, !alias.scope !97, !nonnull !12, !noundef !12
  %21 = ptrtoint ptr %self.val1.i.i to i64
  %22 = ptrtoint ptr %self.val.i.i to i64
  %23 = sub nuw i64 %21, %22
  %24 = udiv exact i64 %23, 56
  br label %bb6.i.i.i

cleanup.body.i.i:                                 ; preds = %bb4.i.i.i
  %25 = getelementptr inbounds nuw i8, ptr %_1, i64 24
  %capacity1.i.i.i.i = load i64, ptr %25, align 8, !alias.scope !97, !noundef !12
  %26 = icmp eq i64 %capacity1.i.i.i.i, 0
  br i1 %26, label %bb5.i.i, label %bb2.i.i.i.i.i.i.i

bb2.i.i.i.i.i.i.i:                                ; preds = %cleanup.body.i.i
  %ptr.i.i.i.i = load ptr, ptr %18, align 8, !alias.scope !97, !nonnull !12, !noundef !12
  %alloc_size.i.i.i.i.i.i.i.i = mul nuw i64 %capacity1.i.i.i.i, 56
; call __rustc::__rust_dealloc
  tail call void @_RNvCsKhRCbHf33p_7___rustc14___rust_dealloc(ptr noundef nonnull %ptr.i.i.i.i, i64 noundef %alloc_size.i.i.i.i.i.i.i.i, i64 noundef range(i64 1, -9223372036854775807) 8) #26, !noalias !97
  br label %bb5.i.i

bb6.i.i.i:                                        ; preds = %bb5.i.i.i, %bb3
  %_3.sroa.0.0.i.i.i = phi i64 [ 0, %bb3 ], [ %27, %bb5.i.i.i ]
  %_7.i.i.i = icmp eq i64 %_3.sroa.0.0.i.i.i, %24
  br i1 %_7.i.i.i, label %bb2.i.i1, label %bb5.i.i.i

bb5.i.i.i:                                        ; preds = %bb6.i.i.i
  %_6.i.i.i = getelementptr inbounds nuw %"core::result::Result<dent::DirEntry, error::Error>", ptr %self.val.i.i, i64 %_3.sroa.0.0.i.i.i
  %27 = add nuw nsw i64 %_3.sroa.0.0.i.i.i, 1
; invoke core::ptr::drop_in_place::<core::result::Result<walkdir::dent::DirEntry, walkdir::error::Error>>
  invoke fastcc void @_RINvNtCsjMrxcFdYDNN_4core3ptr13drop_in_placeINtNtB4_6result6ResultNtNtCsarYwbBXrH4d_7walkdir4dent8DirEntryNtNtB16_5error5ErrorEEB16_(ptr noalias noundef readonly align 8 dereferenceable(56) %_6.i.i.i)
          to label %bb6.i.i.i unwind label %cleanup.i.i.i, !noalias !97

bb4.i.i.i:                                        ; preds = %bb3.i.i.i, %cleanup.i.i.i
  %_3.sroa.0.1.i.i.i = phi i64 [ %27, %cleanup.i.i.i ], [ %29, %bb3.i.i.i ]
  %_5.i.i.i = icmp eq i64 %_3.sroa.0.1.i.i.i, %24
  br i1 %_5.i.i.i, label %cleanup.body.i.i, label %bb3.i.i.i

cleanup.i.i.i:                                    ; preds = %bb5.i.i.i
  %28 = landingpad { ptr, i32 }
          cleanup
  br label %bb4.i.i.i

bb3.i.i.i:                                        ; preds = %bb4.i.i.i
  %_4.i.i.i = getelementptr inbounds nuw %"core::result::Result<dent::DirEntry, error::Error>", ptr %self.val.i.i, i64 %_3.sroa.0.1.i.i.i
  %29 = add i64 %_3.sroa.0.1.i.i.i, 1
; invoke core::ptr::drop_in_place::<core::result::Result<walkdir::dent::DirEntry, walkdir::error::Error>>
  invoke fastcc void @_RINvNtCsjMrxcFdYDNN_4core3ptr13drop_in_placeINtNtB4_6result6ResultNtNtCsarYwbBXrH4d_7walkdir4dent8DirEntryNtNtB16_5error5ErrorEEB16_(ptr noalias noundef readonly align 8 dereferenceable(56) %_4.i.i.i) #28
          to label %bb4.i.i.i unwind label %terminate.i.i.i, !noalias !97

terminate.i.i.i:                                  ; preds = %bb3.i.i.i
  %30 = landingpad { ptr, i32 }
          filter [0 x ptr] zeroinitializer
; call core::panicking::panic_in_cleanup
  tail call void @_RNvNtCsjMrxcFdYDNN_4core9panicking16panic_in_cleanup() #29, !noalias !98
  unreachable

bb2.i.i1:                                         ; preds = %bb6.i.i.i
  %31 = getelementptr inbounds nuw i8, ptr %_1, i64 24
  %capacity1.i.i3.i.i = load i64, ptr %31, align 8, !alias.scope !97, !noundef !12
  %32 = icmp eq i64 %capacity1.i.i3.i.i, 0
  br i1 %32, label %bb1, label %bb2.i.i.i.i.i4.i.i

bb2.i.i.i.i.i4.i.i:                               ; preds = %bb2.i.i1
  %ptr.i.i5.i.i = load ptr, ptr %18, align 8, !alias.scope !97, !nonnull !12, !noundef !12
  %alloc_size.i.i.i.i.i.i6.i.i = mul nuw i64 %capacity1.i.i3.i.i, 56
; call __rustc::__rust_dealloc
  tail call void @_RNvCsKhRCbHf33p_7___rustc14___rust_dealloc(ptr noundef nonnull %ptr.i.i5.i.i, i64 noundef %alloc_size.i.i.i.i.i.i6.i.i, i64 noundef range(i64 1, -9223372036854775807) 8) #26, !noalias !97
  br label %bb1

bb5.i.i:                                          ; preds = %bb2.i.i.i.i.i.i.i, %cleanup.body.i.i
  resume { ptr, i32 } %28

bb1:                                              ; preds = %bb2.i.i.i.i.i4.i.i, %bb2.i.i1, %bb2.i.i.i4.i.i.i.i8.i.i.i.i, %bb7.i.i.i.i, %bb4.i.i.i.i, %bb3.i, %bb2.i.i.i.i.i, %bb2.i
  ret void
}

; core::ptr::drop_in_place::<walkdir::WalkDir>
; Function Attrs: uwtable
define internal fastcc void @_RINvNtCsjMrxcFdYDNN_4core3ptr13drop_in_placeNtCsarYwbBXrH4d_7walkdir7WalkDirEBI_(ptr noalias noundef nonnull readonly align 8 captures(none) dereferenceable(72) %_1) unnamed_addr #2 personality ptr @rust_eh_personality {
start:
  %0 = getelementptr inbounds nuw i8, ptr %_1, i64 24
  %.val = load ptr, ptr %0, align 8, !align !101, !noundef !12
  %1 = getelementptr inbounds nuw i8, ptr %_1, i64 32
  %.val1 = load ptr, ptr %1, align 8
  %2 = icmp eq ptr %.val, null
  br i1 %2, label %bb4, label %bb2.i.i

bb2.i.i:                                          ; preds = %start
  %3 = icmp ne ptr %.val1, null
  tail call void @llvm.assume(i1 %3)
  %4 = load ptr, ptr %.val1, align 8, !invariant.load !12
  %.not.i.i.i = icmp eq ptr %4, null
  br i1 %.not.i.i.i, label %bb3.i.i.i, label %is_not_null.i.i.i

is_not_null.i.i.i:                                ; preds = %bb2.i.i
  invoke void %4(ptr noundef nonnull %.val)
          to label %bb3.i.i.i unwind label %cleanup.i.i.i

bb3.i.i.i:                                        ; preds = %is_not_null.i.i.i, %bb2.i.i
  %5 = getelementptr inbounds nuw i8, ptr %.val1, i64 8
  %6 = load i64, ptr %5, align 8, !range !48, !invariant.load !12
  %7 = getelementptr inbounds nuw i8, ptr %.val1, i64 16
  %8 = load i64, ptr %7, align 8, !range !102, !invariant.load !12
  %9 = add i64 %8, -1
  %10 = icmp sgt i64 %9, -1
  tail call void @llvm.assume(i1 %10)
  %11 = icmp eq i64 %6, 0
  br i1 %11, label %bb4, label %_RNvXs_NtCsdJPVW0sQgAG_5alloc5allocNtB4_6GlobalNtNtCsjMrxcFdYDNN_4core5alloc9Allocator10deallocate.exit.i.i.i.i

_RNvXs_NtCsdJPVW0sQgAG_5alloc5allocNtB4_6GlobalNtNtCsjMrxcFdYDNN_4core5alloc9Allocator10deallocate.exit.i.i.i.i: ; preds = %bb3.i.i.i
; call __rustc::__rust_dealloc
  tail call void @_RNvCsKhRCbHf33p_7___rustc14___rust_dealloc(ptr noundef nonnull %.val, i64 noundef %6, i64 noundef range(i64 1, -9223372036854775807) %8) #26
  br label %bb4

cleanup.i.i.i:                                    ; preds = %is_not_null.i.i.i
  %12 = landingpad { ptr, i32 }
          cleanup
  %13 = getelementptr inbounds nuw i8, ptr %.val1, i64 8
  %14 = load i64, ptr %13, align 8, !range !48, !invariant.load !12
  %15 = getelementptr inbounds nuw i8, ptr %.val1, i64 16
  %16 = load i64, ptr %15, align 8, !range !102, !invariant.load !12
  %17 = add i64 %16, -1
  %18 = icmp sgt i64 %17, -1
  tail call void @llvm.assume(i1 %18)
  %19 = icmp eq i64 %14, 0
  br i1 %19, label %cleanup.body, label %_RNvXs_NtCsdJPVW0sQgAG_5alloc5allocNtB4_6GlobalNtNtCsjMrxcFdYDNN_4core5alloc9Allocator10deallocate.exit.i4.i.i.i

_RNvXs_NtCsdJPVW0sQgAG_5alloc5allocNtB4_6GlobalNtNtCsjMrxcFdYDNN_4core5alloc9Allocator10deallocate.exit.i4.i.i.i: ; preds = %cleanup.i.i.i
; call __rustc::__rust_dealloc
  tail call void @_RNvCsKhRCbHf33p_7___rustc14___rust_dealloc(ptr noundef nonnull %.val, i64 noundef %14, i64 noundef range(i64 1, -9223372036854775807) %16) #26
  br label %cleanup.body

cleanup.body:                                     ; preds = %cleanup.i.i.i, %_RNvXs_NtCsdJPVW0sQgAG_5alloc5allocNtB4_6GlobalNtNtCsjMrxcFdYDNN_4core5alloc9Allocator10deallocate.exit.i4.i.i.i
  tail call void @llvm.experimental.noalias.scope.decl(metadata !103)
  %_1.val.i = load i64, ptr %_1, align 8, !alias.scope !103
  %20 = icmp eq i64 %_1.val.i, 0
  br i1 %20, label %bb1, label %bb2.i.i.i4.i.i.i.i

bb2.i.i.i4.i.i.i.i:                               ; preds = %cleanup.body
  %21 = getelementptr inbounds nuw i8, ptr %_1, i64 8
  %_1.val1.i = load ptr, ptr %21, align 8, !alias.scope !103, !nonnull !12, !noundef !12
; call __rustc::__rust_dealloc
  tail call void @_RNvCsKhRCbHf33p_7___rustc14___rust_dealloc(ptr noundef nonnull %_1.val1.i, i64 noundef %_1.val.i, i64 noundef range(i64 1, -9223372036854775807) 1) #26, !noalias !103
  br label %bb1

bb4:                                              ; preds = %_RNvXs_NtCsdJPVW0sQgAG_5alloc5allocNtB4_6GlobalNtNtCsjMrxcFdYDNN_4core5alloc9Allocator10deallocate.exit.i.i.i.i, %bb3.i.i.i, %start
  tail call void @llvm.experimental.noalias.scope.decl(metadata !106)
  %_1.val.i2 = load i64, ptr %_1, align 8, !alias.scope !106
  %22 = icmp eq i64 %_1.val.i2, 0
  br i1 %22, label %_RINvNtCsjMrxcFdYDNN_4core3ptr13drop_in_placeNtNtCs5sEH5CPMdak_3std4path7PathBufECsarYwbBXrH4d_7walkdir.exit5, label %bb2.i.i.i4.i.i.i.i3

bb2.i.i.i4.i.i.i.i3:                              ; preds = %bb4
  %23 = getelementptr inbounds nuw i8, ptr %_1, i64 8
  %_1.val1.i4 = load ptr, ptr %23, align 8, !alias.scope !106, !nonnull !12, !noundef !12
; call __rustc::__rust_dealloc
  tail call void @_RNvCsKhRCbHf33p_7___rustc14___rust_dealloc(ptr noundef nonnull %_1.val1.i4, i64 noundef %_1.val.i2, i64 noundef range(i64 1, -9223372036854775807) 1) #26, !noalias !106
  br label %_RINvNtCsjMrxcFdYDNN_4core3ptr13drop_in_placeNtNtCs5sEH5CPMdak_3std4path7PathBufECsarYwbBXrH4d_7walkdir.exit5

_RINvNtCsjMrxcFdYDNN_4core3ptr13drop_in_placeNtNtCs5sEH5CPMdak_3std4path7PathBufECsarYwbBXrH4d_7walkdir.exit5: ; preds = %bb4, %bb2.i.i.i4.i.i.i.i3
  ret void

bb1:                                              ; preds = %bb2.i.i.i4.i.i.i.i, %cleanup.body
  resume { ptr, i32 } %12
}

; core::ptr::drop_in_place::<same_file::Handle>
; Function Attrs: uwtable
define internal fastcc void @_RINvNtCsjMrxcFdYDNN_4core3ptr13drop_in_placeNtCsbBNrbdBR1qA_9same_file6HandleECsarYwbBXrH4d_7walkdir(ptr noalias noundef nonnull align 8 dereferenceable(24) %_1) unnamed_addr #2 personality ptr @rust_eh_personality {
start:
; invoke <same_file::unix::Handle as core::ops::drop::Drop>::drop
  invoke void @_RNvXNtCsbBNrbdBR1qA_9same_file4unixNtB2_6HandleNtNtNtCsjMrxcFdYDNN_4core3ops4drop4Drop4drop(ptr noalias noundef nonnull align 8 dereferenceable(24) %_1)
          to label %bb4.i unwind label %cleanup.i

cleanup.i:                                        ; preds = %start
  %0 = landingpad { ptr, i32 }
          cleanup
  %1 = getelementptr inbounds nuw i8, ptr %_1, i64 16
  %.val.i = load i32, ptr %1, align 8, !alias.scope !109, !noundef !12
  %2 = icmp eq i32 %.val.i, -1
  br i1 %2, label %bb1.i, label %bb2.i.i

bb2.i.i:                                          ; preds = %cleanup.i
  %_5.i.i.i.i.i.i.i = tail call noundef i32 @close(i32 noundef %.val.i) #26
  br label %bb1.i

bb4.i:                                            ; preds = %start
  %3 = getelementptr inbounds nuw i8, ptr %_1, i64 16
  %.val1.i = load i32, ptr %3, align 8, !alias.scope !109, !noundef !12
  %4 = icmp eq i32 %.val1.i, -1
  br i1 %4, label %_RINvNtCsjMrxcFdYDNN_4core3ptr13drop_in_placeNtNtCsbBNrbdBR1qA_9same_file4unix6HandleECsarYwbBXrH4d_7walkdir.exit, label %bb2.i2.i

bb2.i2.i:                                         ; preds = %bb4.i
  %_5.i.i.i.i.i.i3.i = tail call noundef i32 @close(i32 noundef %.val1.i) #26
  br label %_RINvNtCsjMrxcFdYDNN_4core3ptr13drop_in_placeNtNtCsbBNrbdBR1qA_9same_file4unix6HandleECsarYwbBXrH4d_7walkdir.exit

bb1.i:                                            ; preds = %bb2.i.i, %cleanup.i
  resume { ptr, i32 } %0

_RINvNtCsjMrxcFdYDNN_4core3ptr13drop_in_placeNtNtCsbBNrbdBR1qA_9same_file4unix6HandleECsarYwbBXrH4d_7walkdir.exit: ; preds = %bb4.i, %bb2.i2.i
  ret void
}

; core::ptr::drop_in_place::<std::path::PathBuf>
; Function Attrs: nounwind uwtable
define internal void @_RINvNtCsjMrxcFdYDNN_4core3ptr13drop_in_placeNtNtCs5sEH5CPMdak_3std4path7PathBufECsarYwbBXrH4d_7walkdir(ptr noalias noundef readonly align 8 captures(none) dereferenceable(24) %_1) unnamed_addr #1 personality ptr @rust_eh_personality {
start:
  %_1.val = load i64, ptr %_1, align 8
  %0 = icmp eq i64 %_1.val, 0
  br i1 %0, label %_RINvNtCsjMrxcFdYDNN_4core3ptr13drop_in_placeNtNtNtCs5sEH5CPMdak_3std3ffi6os_str8OsStringECsarYwbBXrH4d_7walkdir.exit, label %bb2.i.i.i4.i.i.i

bb2.i.i.i4.i.i.i:                                 ; preds = %start
  %1 = getelementptr inbounds nuw i8, ptr %_1, i64 8
  %_1.val1 = load ptr, ptr %1, align 8, !nonnull !12, !noundef !12
; call __rustc::__rust_dealloc
  tail call void @_RNvCsKhRCbHf33p_7___rustc14___rust_dealloc(ptr noundef nonnull %_1.val1, i64 noundef %_1.val, i64 noundef range(i64 1, -9223372036854775807) 1) #26
  br label %_RINvNtCsjMrxcFdYDNN_4core3ptr13drop_in_placeNtNtNtCs5sEH5CPMdak_3std3ffi6os_str8OsStringECsarYwbBXrH4d_7walkdir.exit

_RINvNtCsjMrxcFdYDNN_4core3ptr13drop_in_placeNtNtNtCs5sEH5CPMdak_3std3ffi6os_str8OsStringECsarYwbBXrH4d_7walkdir.exit: ; preds = %start, %bb2.i.i.i4.i.i.i
  ret void
}

; core::ptr::drop_in_place::<walkdir::error::Error>
; Function Attrs: uwtable
define internal void @_RINvNtCsjMrxcFdYDNN_4core3ptr13drop_in_placeNtNtCsarYwbBXrH4d_7walkdir5error5ErrorEBK_(ptr noalias noundef readonly align 8 captures(none) dereferenceable(56) %_1) unnamed_addr #2 personality ptr @rust_eh_personality {
start:
  tail call void @llvm.experimental.noalias.scope.decl(metadata !112)
  %0 = load i64, ptr %_1, align 8, !range !11, !alias.scope !112, !noundef !12
  %1 = icmp eq i64 %0, -9223372036854775808
  br i1 %1, label %bb5.i, label %bb8.i

bb5.i:                                            ; preds = %start
  %2 = getelementptr inbounds nuw i8, ptr %_1, i64 8
  tail call void @llvm.experimental.noalias.scope.decl(metadata !115)
  %3 = load i64, ptr %2, align 8, !range !11, !alias.scope !118, !noundef !12
  %4 = icmp eq i64 %3, -9223372036854775808
  br i1 %4, label %bb4.i, label %bb2.i.i

bb2.i.i:                                          ; preds = %bb5.i
  tail call void @llvm.experimental.noalias.scope.decl(metadata !119)
  %5 = icmp eq i64 %3, 0
  br i1 %5, label %bb4.i, label %bb2.i.i.i4.i.i.i.i.i.i

bb2.i.i.i4.i.i.i.i.i.i:                           ; preds = %bb2.i.i
  %6 = getelementptr inbounds nuw i8, ptr %_1, i64 16
  %_1.val1.i.i.i = load ptr, ptr %6, align 8, !alias.scope !122, !nonnull !12, !noundef !12
; call __rustc::__rust_dealloc
  tail call void @_RNvCsKhRCbHf33p_7___rustc14___rust_dealloc(ptr noundef nonnull %_1.val1.i.i.i, i64 noundef %3, i64 noundef range(i64 1, -9223372036854775807) 1) #26, !noalias !122
  br label %bb4.i

bb8.i:                                            ; preds = %start
  tail call void @llvm.experimental.noalias.scope.decl(metadata !123)
  %7 = icmp eq i64 %0, 0
  br i1 %7, label %bb7.i, label %bb2.i.i.i4.i.i.i.i.i

bb2.i.i.i4.i.i.i.i.i:                             ; preds = %bb8.i
  %8 = getelementptr inbounds nuw i8, ptr %_1, i64 8
  %_1.val1.i.i = load ptr, ptr %8, align 8, !alias.scope !126, !nonnull !12, !noundef !12
; call __rustc::__rust_dealloc
  tail call void @_RNvCsKhRCbHf33p_7___rustc14___rust_dealloc(ptr noundef nonnull %_1.val1.i.i, i64 noundef %0, i64 noundef range(i64 1, -9223372036854775807) 1) #26, !noalias !126
  br label %bb7.i

bb4.i:                                            ; preds = %bb2.i.i.i4.i.i.i.i.i.i, %bb2.i.i, %bb5.i
  %9 = getelementptr inbounds nuw i8, ptr %_1, i64 32
; call core::ptr::drop_in_place::<std::io::error::Error>
  tail call void @_RINvNtCsjMrxcFdYDNN_4core3ptr13drop_in_placeNtNtNtCs5sEH5CPMdak_3std2io5error5ErrorECsarYwbBXrH4d_7walkdir(ptr noalias noundef nonnull readonly align 8 dereferenceable(8) %9)
  br label %_RINvNtCsjMrxcFdYDNN_4core3ptr13drop_in_placeNtNtCsarYwbBXrH4d_7walkdir5error10ErrorInnerEBK_.exit

bb7.i:                                            ; preds = %bb2.i.i.i4.i.i.i.i.i, %bb8.i
  %10 = getelementptr inbounds nuw i8, ptr %_1, i64 24
  tail call void @llvm.experimental.noalias.scope.decl(metadata !127)
  %_1.val.i7.i = load i64, ptr %10, align 8, !alias.scope !130
  %11 = icmp eq i64 %_1.val.i7.i, 0
  br i1 %11, label %_RINvNtCsjMrxcFdYDNN_4core3ptr13drop_in_placeNtNtCsarYwbBXrH4d_7walkdir5error10ErrorInnerEBK_.exit, label %bb2.i.i.i4.i.i.i.i8.i

bb2.i.i.i4.i.i.i.i8.i:                            ; preds = %bb7.i
  %12 = getelementptr inbounds nuw i8, ptr %_1, i64 32
  %_1.val1.i9.i = load ptr, ptr %12, align 8, !alias.scope !130, !nonnull !12, !noundef !12
; call __rustc::__rust_dealloc
  tail call void @_RNvCsKhRCbHf33p_7___rustc14___rust_dealloc(ptr noundef nonnull %_1.val1.i9.i, i64 noundef %_1.val.i7.i, i64 noundef range(i64 1, -9223372036854775807) 1) #26, !noalias !130
  br label %_RINvNtCsjMrxcFdYDNN_4core3ptr13drop_in_placeNtNtCsarYwbBXrH4d_7walkdir5error10ErrorInnerEBK_.exit

_RINvNtCsjMrxcFdYDNN_4core3ptr13drop_in_placeNtNtCsarYwbBXrH4d_7walkdir5error10ErrorInnerEBK_.exit: ; preds = %bb4.i, %bb7.i, %bb2.i.i.i4.i.i.i.i8.i
  ret void
}

; core::ptr::drop_in_place::<std::io::error::Error>
; Function Attrs: uwtable
define internal void @_RINvNtCsjMrxcFdYDNN_4core3ptr13drop_in_placeNtNtNtCs5sEH5CPMdak_3std2io5error5ErrorECsarYwbBXrH4d_7walkdir(ptr noalias noundef readonly align 8 captures(none) dereferenceable(8) %_1) unnamed_addr #2 personality ptr @rust_eh_personality {
start:
  %_1.val = load ptr, ptr %_1, align 8, !nonnull !12, !noundef !12
  %bits.i.i.i = ptrtoint ptr %_1.val to i64
  %_5.i.i.i = and i64 %bits.i.i.i, 3
  %switch.i.i = icmp eq i64 %_5.i.i.i, 1
  br i1 %switch.i.i, label %bb2.i2.i.i, label %_RINvNtCsjMrxcFdYDNN_4core3ptr13drop_in_placeNtNtNtNtCs5sEH5CPMdak_3std2io5error14repr_bitpacked4ReprECsarYwbBXrH4d_7walkdir.exit, !prof !131

bb2.i2.i.i:                                       ; preds = %start
  %0 = getelementptr i8, ptr %_1.val, i64 -1
  %1 = icmp ne ptr %0, null
  tail call void @llvm.assume(i1 %1)
  %_6.val.i.i.i.i = load ptr, ptr %0, align 8
  %2 = getelementptr i8, ptr %_1.val, i64 7
  %_6.val1.i.i.i.i = load ptr, ptr %2, align 8, !nonnull !12, !align !132, !noundef !12
  %3 = load ptr, ptr %_6.val1.i.i.i.i, align 8, !invariant.load !12
  %.not.i.i.i.i.i.i = icmp eq ptr %3, null
  br i1 %.not.i.i.i.i.i.i, label %bb3.i.i.i.i.i.i, label %is_not_null.i.i.i.i.i.i

is_not_null.i.i.i.i.i.i:                          ; preds = %bb2.i2.i.i
  %4 = icmp ne ptr %_6.val.i.i.i.i, null
  tail call void @llvm.assume(i1 %4)
  invoke void %3(ptr noundef nonnull %_6.val.i.i.i.i)
          to label %bb3.i.i.i.i.i.i unwind label %cleanup.i.i.i.i.i.i

bb3.i.i.i.i.i.i:                                  ; preds = %is_not_null.i.i.i.i.i.i, %bb2.i2.i.i
  %5 = icmp ne ptr %_6.val.i.i.i.i, null
  tail call void @llvm.assume(i1 %5)
  %6 = getelementptr inbounds nuw i8, ptr %_6.val1.i.i.i.i, i64 8
  %7 = load i64, ptr %6, align 8, !range !48, !invariant.load !12
  %8 = getelementptr inbounds nuw i8, ptr %_6.val1.i.i.i.i, i64 16
  %9 = load i64, ptr %8, align 8, !range !102, !invariant.load !12
  %10 = add i64 %9, -1
  %11 = icmp sgt i64 %10, -1
  tail call void @llvm.assume(i1 %11)
  %12 = icmp eq i64 %7, 0
  br i1 %12, label %_RINvNtCsjMrxcFdYDNN_4core3ptr13drop_in_placeINtNtCsdJPVW0sQgAG_5alloc5boxed3BoxNtNtNtCs5sEH5CPMdak_3std2io5error6CustomEECsarYwbBXrH4d_7walkdir.exit.i.i.i, label %_RNvXs_NtCsdJPVW0sQgAG_5alloc5allocNtB4_6GlobalNtNtCsjMrxcFdYDNN_4core5alloc9Allocator10deallocate.exit.i.i.i.i.i.i.i

_RNvXs_NtCsdJPVW0sQgAG_5alloc5allocNtB4_6GlobalNtNtCsjMrxcFdYDNN_4core5alloc9Allocator10deallocate.exit.i.i.i.i.i.i.i: ; preds = %bb3.i.i.i.i.i.i
; call __rustc::__rust_dealloc
  tail call void @_RNvCsKhRCbHf33p_7___rustc14___rust_dealloc(ptr noundef nonnull %_6.val.i.i.i.i, i64 noundef %7, i64 noundef range(i64 1, -9223372036854775807) %9) #26
  br label %_RINvNtCsjMrxcFdYDNN_4core3ptr13drop_in_placeINtNtCsdJPVW0sQgAG_5alloc5boxed3BoxNtNtNtCs5sEH5CPMdak_3std2io5error6CustomEECsarYwbBXrH4d_7walkdir.exit.i.i.i

cleanup.i.i.i.i.i.i:                              ; preds = %is_not_null.i.i.i.i.i.i
  %13 = landingpad { ptr, i32 }
          cleanup
  %14 = getelementptr inbounds nuw i8, ptr %_6.val1.i.i.i.i, i64 8
  %15 = load i64, ptr %14, align 8, !range !48, !invariant.load !12
  %16 = getelementptr inbounds nuw i8, ptr %_6.val1.i.i.i.i, i64 16
  %17 = load i64, ptr %16, align 8, !range !102, !invariant.load !12
  %18 = add i64 %17, -1
  %19 = icmp sgt i64 %18, -1
  tail call void @llvm.assume(i1 %19)
  %20 = icmp eq i64 %15, 0
  br i1 %20, label %bb1.i.i.i.i, label %_RNvXs_NtCsdJPVW0sQgAG_5alloc5allocNtB4_6GlobalNtNtCsjMrxcFdYDNN_4core5alloc9Allocator10deallocate.exit.i4.i.i.i.i.i.i

_RNvXs_NtCsdJPVW0sQgAG_5alloc5allocNtB4_6GlobalNtNtCsjMrxcFdYDNN_4core5alloc9Allocator10deallocate.exit.i4.i.i.i.i.i.i: ; preds = %cleanup.i.i.i.i.i.i
; call __rustc::__rust_dealloc
  tail call void @_RNvCsKhRCbHf33p_7___rustc14___rust_dealloc(ptr noundef nonnull %_6.val.i.i.i.i, i64 noundef %15, i64 noundef range(i64 1, -9223372036854775807) %17) #26
  br label %bb1.i.i.i.i

bb1.i.i.i.i:                                      ; preds = %_RNvXs_NtCsdJPVW0sQgAG_5alloc5allocNtB4_6GlobalNtNtCsjMrxcFdYDNN_4core5alloc9Allocator10deallocate.exit.i4.i.i.i.i.i.i, %cleanup.i.i.i.i.i.i
; call __rustc::__rust_dealloc
  tail call void @_RNvCsKhRCbHf33p_7___rustc14___rust_dealloc(ptr noundef nonnull %0, i64 noundef 24, i64 noundef 8) #26
  resume { ptr, i32 } %13

_RINvNtCsjMrxcFdYDNN_4core3ptr13drop_in_placeINtNtCsdJPVW0sQgAG_5alloc5boxed3BoxNtNtNtCs5sEH5CPMdak_3std2io5error6CustomEECsarYwbBXrH4d_7walkdir.exit.i.i.i: ; preds = %_RNvXs_NtCsdJPVW0sQgAG_5alloc5allocNtB4_6GlobalNtNtCsjMrxcFdYDNN_4core5alloc9Allocator10deallocate.exit.i.i.i.i.i.i.i, %bb3.i.i.i.i.i.i
; call __rustc::__rust_dealloc
  tail call void @_RNvCsKhRCbHf33p_7___rustc14___rust_dealloc(ptr noundef nonnull %0, i64 noundef 24, i64 noundef 8) #26
  br label %_RINvNtCsjMrxcFdYDNN_4core3ptr13drop_in_placeNtNtNtNtCs5sEH5CPMdak_3std2io5error14repr_bitpacked4ReprECsarYwbBXrH4d_7walkdir.exit

_RINvNtCsjMrxcFdYDNN_4core3ptr13drop_in_placeNtNtNtNtCs5sEH5CPMdak_3std2io5error14repr_bitpacked4ReprECsarYwbBXrH4d_7walkdir.exit: ; preds = %start, %_RINvNtCsjMrxcFdYDNN_4core3ptr13drop_in_placeINtNtCsdJPVW0sQgAG_5alloc5boxed3BoxNtNtNtCs5sEH5CPMdak_3std2io5error6CustomEECsarYwbBXrH4d_7walkdir.exit.i.i.i
  ret void
}

; core::slice::sort::stable::driftsort_main::<core::result::Result<walkdir::dent::DirEntry, walkdir::error::Error>, <[core::result::Result<walkdir::dent::DirEntry, walkdir::error::Error>]>::sort_by<<walkdir::IntoIter>::push::{closure#1}>::{closure#0}, alloc::vec::Vec<core::result::Result<walkdir::dent::DirEntry, walkdir::error::Error>>>
; Function Attrs: noinline uwtable
define void @_RINvNtNtNtCsjMrxcFdYDNN_4core5slice4sort6stable14driftsort_mainINtNtB8_6result6ResultNtNtCsarYwbBXrH4d_7walkdir4dent8DirEntryNtNtB1p_5error5ErrorENCINvMNtCsdJPVW0sQgAG_5alloc5sliceSBZ_7sort_byNCNvMs3_B1p_NtB1p_8IntoIter4pushs_0E0INtNtB2s_3vec3VecBZ_EEB1p_(ptr noalias noundef nonnull align 8 %v.0, i64 noundef range(i64 0, 164703072086692426) %v.1, ptr noalias noundef align 8 dereferenceable(8) %is_less) unnamed_addr #0 personality ptr @rust_eh_personality {
start:
  %heap_buf = alloca [24 x i8], align 8
  %stack_buf = alloca [4096 x i8], align 8
  %_105 = lshr i64 %v.1, 1
  %v1 = sub nsw i64 %v.1, %_105
  %_0.sroa.0.0.i = tail call noundef i64 @llvm.umin.i64(i64 %v.1, i64 142857)
  %_0.sroa.0.0.i7 = tail call noundef i64 @llvm.umax.i64(i64 %_0.sroa.0.0.i, i64 %v1)
  %_0.sroa.0.0.i8 = tail call noundef i64 @llvm.umax.i64(i64 %_0.sroa.0.0.i7, i64 48)
  call void @llvm.lifetime.start.p0(i64 4096, ptr nonnull %stack_buf)
  call void @llvm.lifetime.start.p0(i64 24, ptr nonnull %heap_buf)
  %_15 = icmp ugt i64 %_0.sroa.0.0.i7, 73
  br i1 %_15, label %bb4, label %bb8

bb4:                                              ; preds = %start
  %_24.i.i.i.i = add i64 %_0.sroa.0.0.i8, -1
  %or.cond.i = icmp ugt i64 %_24.i.i.i.i, 164703072086692424
  br i1 %or.cond.i, label %bb3.i.i, label %_RNvXs_NtCsdJPVW0sQgAG_5alloc5allocNtB4_6GlobalNtNtCsjMrxcFdYDNN_4core5alloc9Allocator8allocate.exit.i.i.i, !prof !133

_RNvXs_NtCsdJPVW0sQgAG_5alloc5allocNtB4_6GlobalNtNtCsjMrxcFdYDNN_4core5alloc9Allocator8allocate.exit.i.i.i: ; preds = %bb4
  %_27.0.i.i.i.i = mul nuw nsw i64 %_24.i.i.i.i, 56
  %new_size2.i.i.i.i = add nuw nsw i64 %_27.0.i.i.i.i, 56
; call __rustc::__rust_no_alloc_shim_is_unstable_v2
  tail call void @_RNvCsKhRCbHf33p_7___rustc35___rust_no_alloc_shim_is_unstable_v2() #26, !noalias !134
; call __rustc::__rust_alloc
  %0 = tail call noundef align 8 ptr @_RNvCsKhRCbHf33p_7___rustc12___rust_alloc(i64 noundef %new_size2.i.i.i.i, i64 noundef range(i64 1, 9) 8) #26, !noalias !134
  %1 = icmp eq ptr %0, null
  br i1 %1, label %bb3.i.i, label %bb6

bb3.i.i:                                          ; preds = %_RNvXs_NtCsdJPVW0sQgAG_5alloc5allocNtB4_6GlobalNtNtCsjMrxcFdYDNN_4core5alloc9Allocator8allocate.exit.i.i.i, %bb4
  %_4.sroa.4.0.ph.i.i = phi i64 [ 8, %_RNvXs_NtCsdJPVW0sQgAG_5alloc5allocNtB4_6GlobalNtNtCsjMrxcFdYDNN_4core5alloc9Allocator8allocate.exit.i.i.i ], [ 0, %bb4 ]
  %_4.sroa.10.0.ph.i.i = phi i64 [ %new_size2.i.i.i.i, %_RNvXs_NtCsdJPVW0sQgAG_5alloc5allocNtB4_6GlobalNtNtCsjMrxcFdYDNN_4core5alloc9Allocator8allocate.exit.i.i.i ], [ undef, %bb4 ]
; call alloc::raw_vec::handle_error
  tail call void @_RNvNtCsdJPVW0sQgAG_5alloc7raw_vec12handle_error(i64 noundef %_4.sroa.4.0.ph.i.i, i64 %_4.sroa.10.0.ph.i.i) #27
  unreachable

cleanup:                                          ; preds = %bb8
  %2 = landingpad { ptr, i32 }
          cleanup
  br i1 %_15, label %bb13, label %common.resume

bb6:                                              ; preds = %_RNvXs_NtCsdJPVW0sQgAG_5alloc5allocNtB4_6GlobalNtNtCsjMrxcFdYDNN_4core5alloc9Allocator8allocate.exit.i.i.i
  store i64 %_0.sroa.0.0.i8, ptr %heap_buf, align 8
  %_18.sroa.4.0.heap_buf.sroa_idx = getelementptr inbounds nuw i8, ptr %heap_buf, i64 8
  store ptr %0, ptr %_18.sroa.4.0.heap_buf.sroa_idx, align 8
  %_18.sroa.5.0.heap_buf.sroa_idx = getelementptr inbounds nuw i8, ptr %heap_buf, i64 16
  store i64 0, ptr %_18.sroa.5.0.heap_buf.sroa_idx, align 8
  br label %bb8

bb8:                                              ; preds = %bb6, %start
  %_10.i10 = phi ptr [ undef, %start ], [ %0, %bb6 ]
  %stack_scratch.sroa.4.0 = phi i64 [ 73, %start ], [ %_0.sroa.0.0.i8, %bb6 ]
  %stack_buf.pn = phi ptr [ %stack_buf, %start ], [ %0, %bb6 ]
  %eager_sort = icmp samesign ult i64 %v.1, 65
; invoke core::slice::sort::stable::drift::sort::<core::result::Result<walkdir::dent::DirEntry, walkdir::error::Error>, <[core::result::Result<walkdir::dent::DirEntry, walkdir::error::Error>]>::sort_by<<walkdir::IntoIter>::push::{closure#1}>::{closure#0}>
  invoke fastcc void @_RINvNtNtNtNtCsjMrxcFdYDNN_4core5slice4sort6stable5drift4sortINtNtBa_6result6ResultNtNtCsarYwbBXrH4d_7walkdir4dent8DirEntryNtNtB1m_5error5ErrorENCINvMNtCsdJPVW0sQgAG_5alloc5sliceSBW_7sort_byNCNvMs3_B1m_NtB1m_8IntoIter4pushs_0E0EB1m_(ptr noalias noundef nonnull align 8 %v.0, i64 noundef %v.1, ptr noalias noundef nonnull align 8 %stack_buf.pn, i64 noundef %stack_scratch.sroa.4.0, i1 noundef zeroext %eager_sort, ptr noalias noundef align 8 dereferenceable(8) %is_less)
          to label %bb9 unwind label %cleanup

bb9:                                              ; preds = %bb8
  br i1 %_15, label %_RINvNtCsjMrxcFdYDNN_4core3ptr13drop_in_placeINtNtCsdJPVW0sQgAG_5alloc3vec3VecINtNtB4_6result6ResultNtNtCsarYwbBXrH4d_7walkdir4dent8DirEntryNtNtB1D_5error5ErrorEEEB1D_.exit, label %bb10

bb10:                                             ; preds = %_RINvNtCsjMrxcFdYDNN_4core3ptr13drop_in_placeINtNtCsdJPVW0sQgAG_5alloc3vec3VecINtNtB4_6result6ResultNtNtCsarYwbBXrH4d_7walkdir4dent8DirEntryNtNtB1D_5error5ErrorEEEB1D_.exit, %bb9
  call void @llvm.lifetime.end.p0(i64 24, ptr nonnull %heap_buf)
  call void @llvm.lifetime.end.p0(i64 4096, ptr nonnull %stack_buf)
  ret void

common.resume:                                    ; preds = %cleanup, %bb13
  resume { ptr, i32 } %2

_RINvNtCsjMrxcFdYDNN_4core3ptr13drop_in_placeINtNtCsdJPVW0sQgAG_5alloc3vec3VecINtNtB4_6result6ResultNtNtCsarYwbBXrH4d_7walkdir4dent8DirEntryNtNtB1D_5error5ErrorEEEB1D_.exit: ; preds = %bb9
  %alloc_size.i.i.i.i7.i = mul nuw i64 %_0.sroa.0.0.i8, 56
; call __rustc::__rust_dealloc
  call void @_RNvCsKhRCbHf33p_7___rustc14___rust_dealloc(ptr noundef nonnull %_10.i10, i64 noundef %alloc_size.i.i.i.i7.i, i64 noundef range(i64 1, -9223372036854775807) 8) #26, !noalias !139
  br label %bb10

bb13:                                             ; preds = %cleanup
; invoke core::ptr::drop_in_place::<alloc::vec::Vec<core::result::Result<walkdir::dent::DirEntry, walkdir::error::Error>>>
  invoke fastcc void @_RINvNtCsjMrxcFdYDNN_4core3ptr13drop_in_placeINtNtCsdJPVW0sQgAG_5alloc3vec3VecINtNtB4_6result6ResultNtNtCsarYwbBXrH4d_7walkdir4dent8DirEntryNtNtB1D_5error5ErrorEEEB1D_(ptr noalias noundef align 8 dereferenceable(24) %heap_buf) #28
          to label %common.resume unwind label %terminate

terminate:                                        ; preds = %bb13
  %3 = landingpad { ptr, i32 }
          filter [0 x ptr] zeroinitializer
; call core::panicking::panic_in_cleanup
  call void @_RNvNtCsjMrxcFdYDNN_4core9panicking16panic_in_cleanup() #29
  unreachable
}

; core::slice::sort::shared::pivot::median3_rec::<core::result::Result<walkdir::dent::DirEntry, walkdir::error::Error>, <[core::result::Result<walkdir::dent::DirEntry, walkdir::error::Error>]>::sort_by<<walkdir::IntoIter>::push::{closure#1}>::{closure#0}>
; Function Attrs: uwtable
define internal fastcc noundef nonnull ptr @_RINvNtNtNtNtCsjMrxcFdYDNN_4core5slice4sort6shared5pivot11median3_recINtNtBa_6result6ResultNtNtCsarYwbBXrH4d_7walkdir4dent8DirEntryNtNtB1u_5error5ErrorENCINvMNtCsdJPVW0sQgAG_5alloc5sliceSB14_7sort_byNCNvMs3_B1u_NtB1u_8IntoIter4pushs_0E0EB1u_(ptr noundef nonnull %0, ptr noundef nonnull %1, ptr noundef nonnull %2, i64 noundef range(i64 0, 20587884010836554) %n, ptr noalias noundef nonnull align 8 dereferenceable(8) %is_less) unnamed_addr #2 {
start:
  %_6 = icmp samesign ugt i64 %n, 7
  br i1 %_6, label %bb1, label %bb6

bb1:                                              ; preds = %start
  %n84 = lshr i64 %n, 3
  %count = shl nuw nsw i64 %n84, 2
  %_10 = getelementptr inbounds nuw %"core::result::Result<dent::DirEntry, error::Error>", ptr %0, i64 %count
  %count1 = mul nuw nsw i64 %n84, 7
  %_13 = getelementptr inbounds nuw %"core::result::Result<dent::DirEntry, error::Error>", ptr %0, i64 %count1
; call core::slice::sort::shared::pivot::median3_rec::<core::result::Result<walkdir::dent::DirEntry, walkdir::error::Error>, <[core::result::Result<walkdir::dent::DirEntry, walkdir::error::Error>]>::sort_by<<walkdir::IntoIter>::push::{closure#1}>::{closure#0}>
  %3 = tail call fastcc noundef ptr @_RINvNtNtNtNtCsjMrxcFdYDNN_4core5slice4sort6shared5pivot11median3_recINtNtBa_6result6ResultNtNtCsarYwbBXrH4d_7walkdir4dent8DirEntryNtNtB1u_5error5ErrorENCINvMNtCsdJPVW0sQgAG_5alloc5sliceSB14_7sort_byNCNvMs3_B1u_NtB1u_8IntoIter4pushs_0E0EB1u_(ptr noundef %0, ptr noundef %_10, ptr noundef %_13, i64 noundef %n84, ptr noalias noundef align 8 dereferenceable(8) %is_less)
  %_16 = getelementptr inbounds nuw %"core::result::Result<dent::DirEntry, error::Error>", ptr %1, i64 %count
  %_18 = getelementptr inbounds nuw %"core::result::Result<dent::DirEntry, error::Error>", ptr %1, i64 %count1
; call core::slice::sort::shared::pivot::median3_rec::<core::result::Result<walkdir::dent::DirEntry, walkdir::error::Error>, <[core::result::Result<walkdir::dent::DirEntry, walkdir::error::Error>]>::sort_by<<walkdir::IntoIter>::push::{closure#1}>::{closure#0}>
  %4 = tail call fastcc noundef ptr @_RINvNtNtNtNtCsjMrxcFdYDNN_4core5slice4sort6shared5pivot11median3_recINtNtBa_6result6ResultNtNtCsarYwbBXrH4d_7walkdir4dent8DirEntryNtNtB1u_5error5ErrorENCINvMNtCsdJPVW0sQgAG_5alloc5sliceSB14_7sort_byNCNvMs3_B1u_NtB1u_8IntoIter4pushs_0E0EB1u_(ptr noundef %1, ptr noundef %_16, ptr noundef %_18, i64 noundef %n84, ptr noalias noundef align 8 dereferenceable(8) %is_less)
  %_20 = getelementptr inbounds nuw %"core::result::Result<dent::DirEntry, error::Error>", ptr %2, i64 %count
  %_22 = getelementptr inbounds nuw %"core::result::Result<dent::DirEntry, error::Error>", ptr %2, i64 %count1
; call core::slice::sort::shared::pivot::median3_rec::<core::result::Result<walkdir::dent::DirEntry, walkdir::error::Error>, <[core::result::Result<walkdir::dent::DirEntry, walkdir::error::Error>]>::sort_by<<walkdir::IntoIter>::push::{closure#1}>::{closure#0}>
  %5 = tail call fastcc noundef ptr @_RINvNtNtNtNtCsjMrxcFdYDNN_4core5slice4sort6shared5pivot11median3_recINtNtBa_6result6ResultNtNtCsarYwbBXrH4d_7walkdir4dent8DirEntryNtNtB1u_5error5ErrorENCINvMNtCsdJPVW0sQgAG_5alloc5sliceSB14_7sort_byNCNvMs3_B1u_NtB1u_8IntoIter4pushs_0E0EB1u_(ptr noundef %2, ptr noundef %_20, ptr noundef %_22, i64 noundef %n84, ptr noalias noundef align 8 dereferenceable(8) %is_less)
  br label %bb6

bb6:                                              ; preds = %start, %bb1
  %c.sroa.0.0 = phi ptr [ %5, %bb1 ], [ %2, %start ]
  %b.sroa.0.0 = phi ptr [ %4, %bb1 ], [ %1, %start ]
  %a.sroa.0.0 = phi ptr [ %3, %bb1 ], [ %0, %start ]
  %is_less.val6 = load ptr, ptr %is_less, align 8, !nonnull !12, !align !132, !noundef !12
  tail call void @llvm.experimental.noalias.scope.decl(metadata !142)
  tail call void @llvm.experimental.noalias.scope.decl(metadata !145)
  %_7.val.i = load ptr, ptr %is_less.val6, align 8, !noalias !147
  tail call void @llvm.experimental.noalias.scope.decl(metadata !148)
  tail call void @llvm.experimental.noalias.scope.decl(metadata !151)
  %6 = load i64, ptr %a.sroa.0.0, align 8, !range !16, !alias.scope !153, !noalias !154, !noundef !12
  %.not.i.i = icmp ne i64 %6, -9223372036854775807
  %7 = load i64, ptr %b.sroa.0.0, align 8, !range !16, !alias.scope !154, !noalias !153, !noundef !12
  %.not3.i.i = icmp eq i64 %7, -9223372036854775807
  %.not3.i.not.i = xor i1 %.not3.i.i, true
  %brmerge.i = or i1 %.not.i.i, %.not3.i.not.i
  %.not3.i.mux.i = and i1 %.not.i.i, %.not3.i.i
  br i1 %brmerge.i, label %_RNCINvMNtCsdJPVW0sQgAG_5alloc5sliceSINtNtCsjMrxcFdYDNN_4core6result6ResultNtNtCsarYwbBXrH4d_7walkdir4dent8DirEntryNtNtB1e_5error5ErrorE7sort_byNCNvMs3_B1e_NtB1e_8IntoIter4pushs_0E0B1e_.exit, label %bb7.i.i

bb7.i.i:                                          ; preds = %bb6
  %a1.i.i = getelementptr inbounds nuw i8, ptr %a.sroa.0.0, i64 8
  %b2.i.i = getelementptr inbounds nuw i8, ptr %b.sroa.0.0, i64 8
  %8 = icmp ne ptr %_7.val.i, null
  tail call void @llvm.assume(i1 %8)
  %_11.i.i = load ptr, ptr %_7.val.i, align 8, !noalias !155, !nonnull !12, !align !132, !noundef !12
  %_14.0.i.i = load ptr, ptr %_11.i.i, align 8, !noalias !155, !nonnull !12, !noundef !12
  %9 = getelementptr inbounds nuw i8, ptr %_11.i.i, i64 8
  %_14.1.i.i = load ptr, ptr %9, align 8, !noalias !155, !nonnull !12, !align !132, !noundef !12
  %10 = getelementptr inbounds nuw i8, ptr %_14.1.i.i, i64 32
  %11 = load ptr, ptr %10, align 8, !invariant.load !12, !noalias !155, !nonnull !12
  %12 = tail call noundef i8 %11(ptr noundef nonnull align 1 %_14.0.i.i, ptr noalias noundef nonnull readonly align 8 captures(address, read_provenance) dereferenceable(48) %a1.i.i, ptr noalias noundef nonnull readonly align 8 captures(address, read_provenance) dereferenceable(48) %b2.i.i) #31
  %13 = icmp eq i8 %12, -1
  %is_less.val5.pre = load ptr, ptr %is_less, align 8
  %_7.val.i7.pre = load ptr, ptr %is_less.val5.pre, align 8, !noalias !156
  %.pre = load i64, ptr %a.sroa.0.0, align 8, !range !16, !alias.scope !160, !noalias !163
  br label %_RNCINvMNtCsdJPVW0sQgAG_5alloc5sliceSINtNtCsjMrxcFdYDNN_4core6result6ResultNtNtCsarYwbBXrH4d_7walkdir4dent8DirEntryNtNtB1e_5error5ErrorE7sort_byNCNvMs3_B1e_NtB1e_8IntoIter4pushs_0E0B1e_.exit

_RNCINvMNtCsdJPVW0sQgAG_5alloc5sliceSINtNtCsjMrxcFdYDNN_4core6result6ResultNtNtCsarYwbBXrH4d_7walkdir4dent8DirEntryNtNtB1e_5error5ErrorE7sort_byNCNvMs3_B1e_NtB1e_8IntoIter4pushs_0E0B1e_.exit: ; preds = %bb6, %bb7.i.i
  %14 = phi i64 [ %.pre, %bb7.i.i ], [ %6, %bb6 ]
  %_7.val.i7 = phi ptr [ %_7.val.i7.pre, %bb7.i.i ], [ %_7.val.i, %bb6 ]
  %_0.sroa.0.0.i.i = phi i1 [ %13, %bb7.i.i ], [ %.not3.i.mux.i, %bb6 ]
  tail call void @llvm.experimental.noalias.scope.decl(metadata !165)
  tail call void @llvm.experimental.noalias.scope.decl(metadata !166)
  tail call void @llvm.experimental.noalias.scope.decl(metadata !167)
  tail call void @llvm.experimental.noalias.scope.decl(metadata !168)
  %.not.i.i8 = icmp ne i64 %14, -9223372036854775807
  %15 = load i64, ptr %c.sroa.0.0, align 8, !range !16, !alias.scope !163, !noalias !160, !noundef !12
  %.not3.i.i9 = icmp eq i64 %15, -9223372036854775807
  %.not3.i.not.i10 = xor i1 %.not3.i.i9, true
  %brmerge.i11 = or i1 %.not.i.i8, %.not3.i.not.i10
  %.not3.i.mux.i12 = and i1 %.not.i.i8, %.not3.i.i9
  br i1 %brmerge.i11, label %_RNCINvMNtCsdJPVW0sQgAG_5alloc5sliceSINtNtCsjMrxcFdYDNN_4core6result6ResultNtNtCsarYwbBXrH4d_7walkdir4dent8DirEntryNtNtB1e_5error5ErrorE7sort_byNCNvMs3_B1e_NtB1e_8IntoIter4pushs_0E0B1e_.exit20, label %bb7.i.i13

bb7.i.i13:                                        ; preds = %_RNCINvMNtCsdJPVW0sQgAG_5alloc5sliceSINtNtCsjMrxcFdYDNN_4core6result6ResultNtNtCsarYwbBXrH4d_7walkdir4dent8DirEntryNtNtB1e_5error5ErrorE7sort_byNCNvMs3_B1e_NtB1e_8IntoIter4pushs_0E0B1e_.exit
  %a1.i.i14 = getelementptr inbounds nuw i8, ptr %a.sroa.0.0, i64 8
  %b2.i.i15 = getelementptr inbounds nuw i8, ptr %c.sroa.0.0, i64 8
  %16 = icmp ne ptr %_7.val.i7, null
  tail call void @llvm.assume(i1 %16)
  %_11.i.i16 = load ptr, ptr %_7.val.i7, align 8, !noalias !169, !nonnull !12, !align !132, !noundef !12
  %_14.0.i.i17 = load ptr, ptr %_11.i.i16, align 8, !noalias !169, !nonnull !12, !noundef !12
  %17 = getelementptr inbounds nuw i8, ptr %_11.i.i16, i64 8
  %_14.1.i.i18 = load ptr, ptr %17, align 8, !noalias !169, !nonnull !12, !align !132, !noundef !12
  %18 = getelementptr inbounds nuw i8, ptr %_14.1.i.i18, i64 32
  %19 = load ptr, ptr %18, align 8, !invariant.load !12, !noalias !169, !nonnull !12
  %20 = tail call noundef i8 %19(ptr noundef nonnull align 1 %_14.0.i.i17, ptr noalias noundef nonnull readonly align 8 captures(address, read_provenance) dereferenceable(48) %a1.i.i14, ptr noalias noundef nonnull readonly align 8 captures(address, read_provenance) dereferenceable(48) %b2.i.i15) #31
  %21 = icmp eq i8 %20, -1
  br label %_RNCINvMNtCsdJPVW0sQgAG_5alloc5sliceSINtNtCsjMrxcFdYDNN_4core6result6ResultNtNtCsarYwbBXrH4d_7walkdir4dent8DirEntryNtNtB1e_5error5ErrorE7sort_byNCNvMs3_B1e_NtB1e_8IntoIter4pushs_0E0B1e_.exit20

_RNCINvMNtCsdJPVW0sQgAG_5alloc5sliceSINtNtCsjMrxcFdYDNN_4core6result6ResultNtNtCsarYwbBXrH4d_7walkdir4dent8DirEntryNtNtB1e_5error5ErrorE7sort_byNCNvMs3_B1e_NtB1e_8IntoIter4pushs_0E0B1e_.exit20: ; preds = %_RNCINvMNtCsdJPVW0sQgAG_5alloc5sliceSINtNtCsjMrxcFdYDNN_4core6result6ResultNtNtCsarYwbBXrH4d_7walkdir4dent8DirEntryNtNtB1e_5error5ErrorE7sort_byNCNvMs3_B1e_NtB1e_8IntoIter4pushs_0E0B1e_.exit, %bb7.i.i13
  %_0.sroa.0.0.i.i19 = phi i1 [ %21, %bb7.i.i13 ], [ %.not3.i.mux.i12, %_RNCINvMNtCsdJPVW0sQgAG_5alloc5sliceSINtNtCsjMrxcFdYDNN_4core6result6ResultNtNtCsarYwbBXrH4d_7walkdir4dent8DirEntryNtNtB1e_5error5ErrorE7sort_byNCNvMs3_B1e_NtB1e_8IntoIter4pushs_0E0B1e_.exit ]
  %22 = xor i1 %_0.sroa.0.0.i.i, %_0.sroa.0.0.i.i19
  br i1 %22, label %_RINvNtNtNtNtCsjMrxcFdYDNN_4core5slice4sort6shared5pivot7median3INtNtBa_6result6ResultNtNtCsarYwbBXrH4d_7walkdir4dent8DirEntryNtNtB1p_5error5ErrorENCINvMNtCsdJPVW0sQgAG_5alloc5sliceSBZ_7sort_byNCNvMs3_B1p_NtB1p_8IntoIter4pushs_0E0EB1p_.exit, label %bb3.i

bb3.i:                                            ; preds = %_RNCINvMNtCsdJPVW0sQgAG_5alloc5sliceSINtNtCsjMrxcFdYDNN_4core6result6ResultNtNtCsarYwbBXrH4d_7walkdir4dent8DirEntryNtNtB1e_5error5ErrorE7sort_byNCNvMs3_B1e_NtB1e_8IntoIter4pushs_0E0B1e_.exit20
  %is_less.val = load ptr, ptr %is_less, align 8, !nonnull !12, !align !132, !noundef !12
  tail call void @llvm.experimental.noalias.scope.decl(metadata !170)
  tail call void @llvm.experimental.noalias.scope.decl(metadata !173)
  %_7.val.i21 = load ptr, ptr %is_less.val, align 8, !noalias !175
  tail call void @llvm.experimental.noalias.scope.decl(metadata !176)
  tail call void @llvm.experimental.noalias.scope.decl(metadata !179)
  %23 = load i64, ptr %b.sroa.0.0, align 8, !range !16, !alias.scope !181, !noalias !182, !noundef !12
  %.not.i.i22 = icmp ne i64 %23, -9223372036854775807
  %24 = load i64, ptr %c.sroa.0.0, align 8, !range !16, !alias.scope !182, !noalias !181, !noundef !12
  %.not3.i.i23 = icmp eq i64 %24, -9223372036854775807
  %.not3.i.not.i24 = xor i1 %.not3.i.i23, true
  %brmerge.i25 = or i1 %.not.i.i22, %.not3.i.not.i24
  %.not3.i.mux.i26 = and i1 %.not.i.i22, %.not3.i.i23
  br i1 %brmerge.i25, label %_RNCINvMNtCsdJPVW0sQgAG_5alloc5sliceSINtNtCsjMrxcFdYDNN_4core6result6ResultNtNtCsarYwbBXrH4d_7walkdir4dent8DirEntryNtNtB1e_5error5ErrorE7sort_byNCNvMs3_B1e_NtB1e_8IntoIter4pushs_0E0B1e_.exit34, label %bb7.i.i27

bb7.i.i27:                                        ; preds = %bb3.i
  %a1.i.i28 = getelementptr inbounds nuw i8, ptr %b.sroa.0.0, i64 8
  %b2.i.i29 = getelementptr inbounds nuw i8, ptr %c.sroa.0.0, i64 8
  %25 = icmp ne ptr %_7.val.i21, null
  tail call void @llvm.assume(i1 %25)
  %_11.i.i30 = load ptr, ptr %_7.val.i21, align 8, !noalias !183, !nonnull !12, !align !132, !noundef !12
  %_14.0.i.i31 = load ptr, ptr %_11.i.i30, align 8, !noalias !183, !nonnull !12, !noundef !12
  %26 = getelementptr inbounds nuw i8, ptr %_11.i.i30, i64 8
  %_14.1.i.i32 = load ptr, ptr %26, align 8, !noalias !183, !nonnull !12, !align !132, !noundef !12
  %27 = getelementptr inbounds nuw i8, ptr %_14.1.i.i32, i64 32
  %28 = load ptr, ptr %27, align 8, !invariant.load !12, !noalias !183, !nonnull !12
  %29 = tail call noundef i8 %28(ptr noundef nonnull align 1 %_14.0.i.i31, ptr noalias noundef nonnull readonly align 8 captures(address, read_provenance) dereferenceable(48) %a1.i.i28, ptr noalias noundef nonnull readonly align 8 captures(address, read_provenance) dereferenceable(48) %b2.i.i29) #31
  %30 = icmp eq i8 %29, -1
  br label %_RNCINvMNtCsdJPVW0sQgAG_5alloc5sliceSINtNtCsjMrxcFdYDNN_4core6result6ResultNtNtCsarYwbBXrH4d_7walkdir4dent8DirEntryNtNtB1e_5error5ErrorE7sort_byNCNvMs3_B1e_NtB1e_8IntoIter4pushs_0E0B1e_.exit34

_RNCINvMNtCsdJPVW0sQgAG_5alloc5sliceSINtNtCsjMrxcFdYDNN_4core6result6ResultNtNtCsarYwbBXrH4d_7walkdir4dent8DirEntryNtNtB1e_5error5ErrorE7sort_byNCNvMs3_B1e_NtB1e_8IntoIter4pushs_0E0B1e_.exit34: ; preds = %bb3.i, %bb7.i.i27
  %_0.sroa.0.0.i.i33 = phi i1 [ %30, %bb7.i.i27 ], [ %.not3.i.mux.i26, %bb3.i ]
  %_12.i = xor i1 %_0.sroa.0.0.i.i, %_0.sroa.0.0.i.i33
  %c.b.i = select i1 %_12.i, ptr %c.sroa.0.0, ptr %b.sroa.0.0
  br label %_RINvNtNtNtNtCsjMrxcFdYDNN_4core5slice4sort6shared5pivot7median3INtNtBa_6result6ResultNtNtCsarYwbBXrH4d_7walkdir4dent8DirEntryNtNtB1p_5error5ErrorENCINvMNtCsdJPVW0sQgAG_5alloc5sliceSBZ_7sort_byNCNvMs3_B1p_NtB1p_8IntoIter4pushs_0E0EB1p_.exit

_RINvNtNtNtNtCsjMrxcFdYDNN_4core5slice4sort6shared5pivot7median3INtNtBa_6result6ResultNtNtCsarYwbBXrH4d_7walkdir4dent8DirEntryNtNtB1p_5error5ErrorENCINvMNtCsdJPVW0sQgAG_5alloc5sliceSBZ_7sort_byNCNvMs3_B1p_NtB1p_8IntoIter4pushs_0E0EB1p_.exit: ; preds = %_RNCINvMNtCsdJPVW0sQgAG_5alloc5sliceSINtNtCsjMrxcFdYDNN_4core6result6ResultNtNtCsarYwbBXrH4d_7walkdir4dent8DirEntryNtNtB1e_5error5ErrorE7sort_byNCNvMs3_B1e_NtB1e_8IntoIter4pushs_0E0B1e_.exit20, %_RNCINvMNtCsdJPVW0sQgAG_5alloc5sliceSINtNtCsjMrxcFdYDNN_4core6result6ResultNtNtCsarYwbBXrH4d_7walkdir4dent8DirEntryNtNtB1e_5error5ErrorE7sort_byNCNvMs3_B1e_NtB1e_8IntoIter4pushs_0E0B1e_.exit34
  %_0.sroa.0.0.i = phi ptr [ %a.sroa.0.0, %_RNCINvMNtCsdJPVW0sQgAG_5alloc5sliceSINtNtCsjMrxcFdYDNN_4core6result6ResultNtNtCsarYwbBXrH4d_7walkdir4dent8DirEntryNtNtB1e_5error5ErrorE7sort_byNCNvMs3_B1e_NtB1e_8IntoIter4pushs_0E0B1e_.exit20 ], [ %c.b.i, %_RNCINvMNtCsdJPVW0sQgAG_5alloc5sliceSINtNtCsjMrxcFdYDNN_4core6result6ResultNtNtCsarYwbBXrH4d_7walkdir4dent8DirEntryNtNtB1e_5error5ErrorE7sort_byNCNvMs3_B1e_NtB1e_8IntoIter4pushs_0E0B1e_.exit34 ]
  ret ptr %_0.sroa.0.0.i
}

; core::slice::sort::shared::smallsort::sort4_stable::<core::result::Result<walkdir::dent::DirEntry, walkdir::error::Error>, <[core::result::Result<walkdir::dent::DirEntry, walkdir::error::Error>]>::sort_by<<walkdir::IntoIter>::push::{closure#1}>::{closure#0}>
; Function Attrs: uwtable
define internal fastcc void @_RINvNtNtNtNtCsjMrxcFdYDNN_4core5slice4sort6shared9smallsort12sort4_stableINtNtBa_6result6ResultNtNtCsarYwbBXrH4d_7walkdir4dent8DirEntryNtNtB1z_5error5ErrorENCINvMNtCsdJPVW0sQgAG_5alloc5sliceSB19_7sort_byNCNvMs3_B1z_NtB1z_8IntoIter4pushs_0E0EB1z_(ptr noundef nonnull captures(address, read_provenance) %v_base, ptr noundef nonnull writeonly captures(none) initializes((0, 224)) %dst, ptr readonly captures(address_is_null) %is_less.0.val) unnamed_addr #2 personality ptr @rust_eh_personality {
start:
  %_7 = getelementptr inbounds nuw i8, ptr %v_base, i64 56
  %0 = icmp ne ptr %is_less.0.val, null
  tail call void @llvm.assume(i1 %0)
  tail call void @llvm.experimental.noalias.scope.decl(metadata !184)
  tail call void @llvm.experimental.noalias.scope.decl(metadata !187)
  %_7.val.i = load ptr, ptr %is_less.0.val, align 8, !noalias !189
  tail call void @llvm.experimental.noalias.scope.decl(metadata !190)
  tail call void @llvm.experimental.noalias.scope.decl(metadata !193)
  %1 = load i64, ptr %_7, align 8, !range !16, !alias.scope !195, !noalias !196, !noundef !12
  %.not.i.i = icmp ne i64 %1, -9223372036854775807
  %2 = load i64, ptr %v_base, align 8, !range !16, !alias.scope !196, !noalias !195, !noundef !12
  %.not3.i.i = icmp eq i64 %2, -9223372036854775807
  %.not3.i.not.i = xor i1 %.not3.i.i, true
  %brmerge.i = or i1 %.not.i.i, %.not3.i.not.i
  %.not3.i.mux.i = and i1 %.not.i.i, %.not3.i.i
  br i1 %brmerge.i, label %_RNCINvMNtCsdJPVW0sQgAG_5alloc5sliceSINtNtCsjMrxcFdYDNN_4core6result6ResultNtNtCsarYwbBXrH4d_7walkdir4dent8DirEntryNtNtB1e_5error5ErrorE7sort_byNCNvMs3_B1e_NtB1e_8IntoIter4pushs_0E0B1e_.exit, label %bb7.i.i

bb7.i.i:                                          ; preds = %start
  %a1.i.i = getelementptr inbounds nuw i8, ptr %v_base, i64 64
  %b2.i.i = getelementptr inbounds nuw i8, ptr %v_base, i64 8
  %3 = icmp ne ptr %_7.val.i, null
  tail call void @llvm.assume(i1 %3)
  %_11.i.i = load ptr, ptr %_7.val.i, align 8, !noalias !197, !nonnull !12, !align !132, !noundef !12
  %_14.0.i.i = load ptr, ptr %_11.i.i, align 8, !noalias !197, !nonnull !12, !noundef !12
  %4 = getelementptr inbounds nuw i8, ptr %_11.i.i, i64 8
  %_14.1.i.i = load ptr, ptr %4, align 8, !noalias !197, !nonnull !12, !align !132, !noundef !12
  %5 = getelementptr inbounds nuw i8, ptr %_14.1.i.i, i64 32
  %6 = load ptr, ptr %5, align 8, !invariant.load !12, !noalias !197, !nonnull !12
  %7 = tail call noundef i8 %6(ptr noundef nonnull align 1 %_14.0.i.i, ptr noalias noundef nonnull readonly align 8 captures(address, read_provenance) dereferenceable(48) %a1.i.i, ptr noalias noundef nonnull readonly align 8 captures(address, read_provenance) dereferenceable(48) %b2.i.i) #31
  %8 = icmp eq i8 %7, -1
  %_7.val.i11.pre = load ptr, ptr %is_less.0.val, align 8, !noalias !198
  br label %_RNCINvMNtCsdJPVW0sQgAG_5alloc5sliceSINtNtCsjMrxcFdYDNN_4core6result6ResultNtNtCsarYwbBXrH4d_7walkdir4dent8DirEntryNtNtB1e_5error5ErrorE7sort_byNCNvMs3_B1e_NtB1e_8IntoIter4pushs_0E0B1e_.exit

_RNCINvMNtCsdJPVW0sQgAG_5alloc5sliceSINtNtCsjMrxcFdYDNN_4core6result6ResultNtNtCsarYwbBXrH4d_7walkdir4dent8DirEntryNtNtB1e_5error5ErrorE7sort_byNCNvMs3_B1e_NtB1e_8IntoIter4pushs_0E0B1e_.exit: ; preds = %start, %bb7.i.i
  %_7.val.i11 = phi ptr [ %_7.val.i11.pre, %bb7.i.i ], [ %_7.val.i, %start ]
  %_0.sroa.0.0.i.i = phi i1 [ %8, %bb7.i.i ], [ %.not3.i.mux.i, %start ]
  %_12 = getelementptr inbounds nuw i8, ptr %v_base, i64 168
  %_14 = getelementptr inbounds nuw i8, ptr %v_base, i64 112
  tail call void @llvm.experimental.noalias.scope.decl(metadata !202)
  tail call void @llvm.experimental.noalias.scope.decl(metadata !203)
  tail call void @llvm.experimental.noalias.scope.decl(metadata !204)
  tail call void @llvm.experimental.noalias.scope.decl(metadata !207)
  %9 = load i64, ptr %_12, align 8, !range !16, !alias.scope !209, !noalias !210, !noundef !12
  %.not.i.i12 = icmp ne i64 %9, -9223372036854775807
  %10 = load i64, ptr %_14, align 8, !range !16, !alias.scope !210, !noalias !209, !noundef !12
  %.not3.i.i13 = icmp eq i64 %10, -9223372036854775807
  %.not3.i.not.i14 = xor i1 %.not3.i.i13, true
  %brmerge.i15 = or i1 %.not.i.i12, %.not3.i.not.i14
  %.not3.i.mux.i16 = and i1 %.not.i.i12, %.not3.i.i13
  br i1 %brmerge.i15, label %_RNCINvMNtCsdJPVW0sQgAG_5alloc5sliceSINtNtCsjMrxcFdYDNN_4core6result6ResultNtNtCsarYwbBXrH4d_7walkdir4dent8DirEntryNtNtB1e_5error5ErrorE7sort_byNCNvMs3_B1e_NtB1e_8IntoIter4pushs_0E0B1e_.exit24, label %bb7.i.i17

bb7.i.i17:                                        ; preds = %_RNCINvMNtCsdJPVW0sQgAG_5alloc5sliceSINtNtCsjMrxcFdYDNN_4core6result6ResultNtNtCsarYwbBXrH4d_7walkdir4dent8DirEntryNtNtB1e_5error5ErrorE7sort_byNCNvMs3_B1e_NtB1e_8IntoIter4pushs_0E0B1e_.exit
  %a1.i.i18 = getelementptr inbounds nuw i8, ptr %v_base, i64 176
  %b2.i.i19 = getelementptr inbounds nuw i8, ptr %v_base, i64 120
  %11 = icmp ne ptr %_7.val.i11, null
  tail call void @llvm.assume(i1 %11)
  %_11.i.i20 = load ptr, ptr %_7.val.i11, align 8, !noalias !211, !nonnull !12, !align !132, !noundef !12
  %_14.0.i.i21 = load ptr, ptr %_11.i.i20, align 8, !noalias !211, !nonnull !12, !noundef !12
  %12 = getelementptr inbounds nuw i8, ptr %_11.i.i20, i64 8
  %_14.1.i.i22 = load ptr, ptr %12, align 8, !noalias !211, !nonnull !12, !align !132, !noundef !12
  %13 = getelementptr inbounds nuw i8, ptr %_14.1.i.i22, i64 32
  %14 = load ptr, ptr %13, align 8, !invariant.load !12, !noalias !211, !nonnull !12
  %15 = tail call noundef i8 %14(ptr noundef nonnull align 1 %_14.0.i.i21, ptr noalias noundef nonnull readonly align 8 captures(address, read_provenance) dereferenceable(48) %a1.i.i18, ptr noalias noundef nonnull readonly align 8 captures(address, read_provenance) dereferenceable(48) %b2.i.i19) #31
  %16 = icmp eq i8 %15, -1
  %_7.val.i25.pre = load ptr, ptr %is_less.0.val, align 8, !noalias !212
  br label %_RNCINvMNtCsdJPVW0sQgAG_5alloc5sliceSINtNtCsjMrxcFdYDNN_4core6result6ResultNtNtCsarYwbBXrH4d_7walkdir4dent8DirEntryNtNtB1e_5error5ErrorE7sort_byNCNvMs3_B1e_NtB1e_8IntoIter4pushs_0E0B1e_.exit24

_RNCINvMNtCsdJPVW0sQgAG_5alloc5sliceSINtNtCsjMrxcFdYDNN_4core6result6ResultNtNtCsarYwbBXrH4d_7walkdir4dent8DirEntryNtNtB1e_5error5ErrorE7sort_byNCNvMs3_B1e_NtB1e_8IntoIter4pushs_0E0B1e_.exit24: ; preds = %_RNCINvMNtCsdJPVW0sQgAG_5alloc5sliceSINtNtCsjMrxcFdYDNN_4core6result6ResultNtNtCsarYwbBXrH4d_7walkdir4dent8DirEntryNtNtB1e_5error5ErrorE7sort_byNCNvMs3_B1e_NtB1e_8IntoIter4pushs_0E0B1e_.exit, %bb7.i.i17
  %_7.val.i25 = phi ptr [ %_7.val.i25.pre, %bb7.i.i17 ], [ %_7.val.i11, %_RNCINvMNtCsdJPVW0sQgAG_5alloc5sliceSINtNtCsjMrxcFdYDNN_4core6result6ResultNtNtCsarYwbBXrH4d_7walkdir4dent8DirEntryNtNtB1e_5error5ErrorE7sort_byNCNvMs3_B1e_NtB1e_8IntoIter4pushs_0E0B1e_.exit ]
  %_0.sroa.0.0.i.i23 = phi i1 [ %16, %bb7.i.i17 ], [ %.not3.i.mux.i16, %_RNCINvMNtCsdJPVW0sQgAG_5alloc5sliceSINtNtCsjMrxcFdYDNN_4core6result6ResultNtNtCsarYwbBXrH4d_7walkdir4dent8DirEntryNtNtB1e_5error5ErrorE7sort_byNCNvMs3_B1e_NtB1e_8IntoIter4pushs_0E0B1e_.exit ]
  %count = zext i1 %_0.sroa.0.0.i.i to i64
  %a = getelementptr inbounds nuw %"core::result::Result<dent::DirEntry, error::Error>", ptr %v_base, i64 %count
  %_19 = xor i1 %_0.sroa.0.0.i.i, true
  %count1 = zext i1 %_19 to i64
  %b = getelementptr inbounds nuw %"core::result::Result<dent::DirEntry, error::Error>", ptr %v_base, i64 %count1
  %count2 = select i1 %_0.sroa.0.0.i.i23, i64 3, i64 2
  %c = getelementptr inbounds nuw %"core::result::Result<dent::DirEntry, error::Error>", ptr %v_base, i64 %count2
  %count3 = select i1 %_0.sroa.0.0.i.i23, i64 2, i64 3
  %d = getelementptr inbounds nuw %"core::result::Result<dent::DirEntry, error::Error>", ptr %v_base, i64 %count3
  tail call void @llvm.experimental.noalias.scope.decl(metadata !216)
  tail call void @llvm.experimental.noalias.scope.decl(metadata !217)
  tail call void @llvm.experimental.noalias.scope.decl(metadata !218)
  tail call void @llvm.experimental.noalias.scope.decl(metadata !221)
  %17 = load i64, ptr %c, align 8, !range !16, !alias.scope !223, !noalias !224, !noundef !12
  %.not.i.i26 = icmp ne i64 %17, -9223372036854775807
  %18 = load i64, ptr %a, align 8, !range !16, !alias.scope !224, !noalias !223, !noundef !12
  %.not3.i.i27 = icmp eq i64 %18, -9223372036854775807
  %.not3.i.not.i28 = xor i1 %.not3.i.i27, true
  %brmerge.i29 = or i1 %.not.i.i26, %.not3.i.not.i28
  %.not3.i.mux.i30 = and i1 %.not.i.i26, %.not3.i.i27
  br i1 %brmerge.i29, label %_RNCINvMNtCsdJPVW0sQgAG_5alloc5sliceSINtNtCsjMrxcFdYDNN_4core6result6ResultNtNtCsarYwbBXrH4d_7walkdir4dent8DirEntryNtNtB1e_5error5ErrorE7sort_byNCNvMs3_B1e_NtB1e_8IntoIter4pushs_0E0B1e_.exit38, label %bb7.i.i31

bb7.i.i31:                                        ; preds = %_RNCINvMNtCsdJPVW0sQgAG_5alloc5sliceSINtNtCsjMrxcFdYDNN_4core6result6ResultNtNtCsarYwbBXrH4d_7walkdir4dent8DirEntryNtNtB1e_5error5ErrorE7sort_byNCNvMs3_B1e_NtB1e_8IntoIter4pushs_0E0B1e_.exit24
  %a1.i.i32 = getelementptr inbounds nuw i8, ptr %c, i64 8
  %b2.i.i33 = getelementptr inbounds nuw i8, ptr %a, i64 8
  %19 = icmp ne ptr %_7.val.i25, null
  tail call void @llvm.assume(i1 %19)
  %_11.i.i34 = load ptr, ptr %_7.val.i25, align 8, !noalias !225, !nonnull !12, !align !132, !noundef !12
  %_14.0.i.i35 = load ptr, ptr %_11.i.i34, align 8, !noalias !225, !nonnull !12, !noundef !12
  %20 = getelementptr inbounds nuw i8, ptr %_11.i.i34, i64 8
  %_14.1.i.i36 = load ptr, ptr %20, align 8, !noalias !225, !nonnull !12, !align !132, !noundef !12
  %21 = getelementptr inbounds nuw i8, ptr %_14.1.i.i36, i64 32
  %22 = load ptr, ptr %21, align 8, !invariant.load !12, !noalias !225, !nonnull !12
  %23 = tail call noundef i8 %22(ptr noundef nonnull align 1 %_14.0.i.i35, ptr noalias noundef nonnull readonly align 8 captures(address, read_provenance) dereferenceable(48) %a1.i.i32, ptr noalias noundef nonnull readonly align 8 captures(address, read_provenance) dereferenceable(48) %b2.i.i33) #31
  %24 = icmp eq i8 %23, -1
  %_7.val.i39.pre = load ptr, ptr %is_less.0.val, align 8, !noalias !226
  br label %_RNCINvMNtCsdJPVW0sQgAG_5alloc5sliceSINtNtCsjMrxcFdYDNN_4core6result6ResultNtNtCsarYwbBXrH4d_7walkdir4dent8DirEntryNtNtB1e_5error5ErrorE7sort_byNCNvMs3_B1e_NtB1e_8IntoIter4pushs_0E0B1e_.exit38

_RNCINvMNtCsdJPVW0sQgAG_5alloc5sliceSINtNtCsjMrxcFdYDNN_4core6result6ResultNtNtCsarYwbBXrH4d_7walkdir4dent8DirEntryNtNtB1e_5error5ErrorE7sort_byNCNvMs3_B1e_NtB1e_8IntoIter4pushs_0E0B1e_.exit38: ; preds = %_RNCINvMNtCsdJPVW0sQgAG_5alloc5sliceSINtNtCsjMrxcFdYDNN_4core6result6ResultNtNtCsarYwbBXrH4d_7walkdir4dent8DirEntryNtNtB1e_5error5ErrorE7sort_byNCNvMs3_B1e_NtB1e_8IntoIter4pushs_0E0B1e_.exit24, %bb7.i.i31
  %_7.val.i39 = phi ptr [ %_7.val.i39.pre, %bb7.i.i31 ], [ %_7.val.i25, %_RNCINvMNtCsdJPVW0sQgAG_5alloc5sliceSINtNtCsjMrxcFdYDNN_4core6result6ResultNtNtCsarYwbBXrH4d_7walkdir4dent8DirEntryNtNtB1e_5error5ErrorE7sort_byNCNvMs3_B1e_NtB1e_8IntoIter4pushs_0E0B1e_.exit24 ]
  %_0.sroa.0.0.i.i37 = phi i1 [ %24, %bb7.i.i31 ], [ %.not3.i.mux.i30, %_RNCINvMNtCsdJPVW0sQgAG_5alloc5sliceSINtNtCsjMrxcFdYDNN_4core6result6ResultNtNtCsarYwbBXrH4d_7walkdir4dent8DirEntryNtNtB1e_5error5ErrorE7sort_byNCNvMs3_B1e_NtB1e_8IntoIter4pushs_0E0B1e_.exit24 ]
  tail call void @llvm.experimental.noalias.scope.decl(metadata !230)
  tail call void @llvm.experimental.noalias.scope.decl(metadata !231)
  tail call void @llvm.experimental.noalias.scope.decl(metadata !232)
  tail call void @llvm.experimental.noalias.scope.decl(metadata !235)
  %25 = load i64, ptr %d, align 8, !range !16, !alias.scope !237, !noalias !238, !noundef !12
  %.not.i.i40 = icmp ne i64 %25, -9223372036854775807
  %26 = load i64, ptr %b, align 8, !range !16, !alias.scope !238, !noalias !237, !noundef !12
  %.not3.i.i41 = icmp eq i64 %26, -9223372036854775807
  %.not3.i.not.i42 = xor i1 %.not3.i.i41, true
  %brmerge.i43 = or i1 %.not.i.i40, %.not3.i.not.i42
  %.not3.i.mux.i44 = and i1 %.not.i.i40, %.not3.i.i41
  br i1 %brmerge.i43, label %_RNCINvMNtCsdJPVW0sQgAG_5alloc5sliceSINtNtCsjMrxcFdYDNN_4core6result6ResultNtNtCsarYwbBXrH4d_7walkdir4dent8DirEntryNtNtB1e_5error5ErrorE7sort_byNCNvMs3_B1e_NtB1e_8IntoIter4pushs_0E0B1e_.exit52, label %bb7.i.i45

bb7.i.i45:                                        ; preds = %_RNCINvMNtCsdJPVW0sQgAG_5alloc5sliceSINtNtCsjMrxcFdYDNN_4core6result6ResultNtNtCsarYwbBXrH4d_7walkdir4dent8DirEntryNtNtB1e_5error5ErrorE7sort_byNCNvMs3_B1e_NtB1e_8IntoIter4pushs_0E0B1e_.exit38
  %a1.i.i46 = getelementptr inbounds nuw i8, ptr %d, i64 8
  %b2.i.i47 = getelementptr inbounds nuw i8, ptr %b, i64 8
  %27 = icmp ne ptr %_7.val.i39, null
  tail call void @llvm.assume(i1 %27)
  %_11.i.i48 = load ptr, ptr %_7.val.i39, align 8, !noalias !239, !nonnull !12, !align !132, !noundef !12
  %_14.0.i.i49 = load ptr, ptr %_11.i.i48, align 8, !noalias !239, !nonnull !12, !noundef !12
  %28 = getelementptr inbounds nuw i8, ptr %_11.i.i48, i64 8
  %_14.1.i.i50 = load ptr, ptr %28, align 8, !noalias !239, !nonnull !12, !align !132, !noundef !12
  %29 = getelementptr inbounds nuw i8, ptr %_14.1.i.i50, i64 32
  %30 = load ptr, ptr %29, align 8, !invariant.load !12, !noalias !239, !nonnull !12
  %31 = tail call noundef i8 %30(ptr noundef nonnull align 1 %_14.0.i.i49, ptr noalias noundef nonnull readonly align 8 captures(address, read_provenance) dereferenceable(48) %a1.i.i46, ptr noalias noundef nonnull readonly align 8 captures(address, read_provenance) dereferenceable(48) %b2.i.i47) #31
  %32 = icmp eq i8 %31, -1
  %_7.val.i53.pre = load ptr, ptr %is_less.0.val, align 8, !noalias !240
  br label %_RNCINvMNtCsdJPVW0sQgAG_5alloc5sliceSINtNtCsjMrxcFdYDNN_4core6result6ResultNtNtCsarYwbBXrH4d_7walkdir4dent8DirEntryNtNtB1e_5error5ErrorE7sort_byNCNvMs3_B1e_NtB1e_8IntoIter4pushs_0E0B1e_.exit52

_RNCINvMNtCsdJPVW0sQgAG_5alloc5sliceSINtNtCsjMrxcFdYDNN_4core6result6ResultNtNtCsarYwbBXrH4d_7walkdir4dent8DirEntryNtNtB1e_5error5ErrorE7sort_byNCNvMs3_B1e_NtB1e_8IntoIter4pushs_0E0B1e_.exit52: ; preds = %_RNCINvMNtCsdJPVW0sQgAG_5alloc5sliceSINtNtCsjMrxcFdYDNN_4core6result6ResultNtNtCsarYwbBXrH4d_7walkdir4dent8DirEntryNtNtB1e_5error5ErrorE7sort_byNCNvMs3_B1e_NtB1e_8IntoIter4pushs_0E0B1e_.exit38, %bb7.i.i45
  %_7.val.i53 = phi ptr [ %_7.val.i53.pre, %bb7.i.i45 ], [ %_7.val.i39, %_RNCINvMNtCsdJPVW0sQgAG_5alloc5sliceSINtNtCsjMrxcFdYDNN_4core6result6ResultNtNtCsarYwbBXrH4d_7walkdir4dent8DirEntryNtNtB1e_5error5ErrorE7sort_byNCNvMs3_B1e_NtB1e_8IntoIter4pushs_0E0B1e_.exit38 ]
  %_0.sroa.0.0.i.i51 = phi i1 [ %32, %bb7.i.i45 ], [ %.not3.i.mux.i44, %_RNCINvMNtCsdJPVW0sQgAG_5alloc5sliceSINtNtCsjMrxcFdYDNN_4core6result6ResultNtNtCsarYwbBXrH4d_7walkdir4dent8DirEntryNtNtB1e_5error5ErrorE7sort_byNCNvMs3_B1e_NtB1e_8IntoIter4pushs_0E0B1e_.exit38 ]
  %33 = select i1 %_0.sroa.0.0.i.i51, ptr %c, ptr %b, !unpredictable !12
  %34 = select i1 %_0.sroa.0.0.i.i37, ptr %a, ptr %33, !unpredictable !12
  %35 = select i1 %_0.sroa.0.0.i.i37, ptr %b, ptr %c, !unpredictable !12
  %36 = select i1 %_0.sroa.0.0.i.i51, ptr %d, ptr %35, !unpredictable !12
  tail call void @llvm.experimental.noalias.scope.decl(metadata !244)
  tail call void @llvm.experimental.noalias.scope.decl(metadata !245)
  tail call void @llvm.experimental.noalias.scope.decl(metadata !246)
  tail call void @llvm.experimental.noalias.scope.decl(metadata !249)
  %37 = load i64, ptr %36, align 8, !range !16, !alias.scope !251, !noalias !252, !noundef !12
  %.not.i.i54 = icmp ne i64 %37, -9223372036854775807
  %38 = load i64, ptr %34, align 8, !range !16, !alias.scope !252, !noalias !251, !noundef !12
  %.not3.i.i55 = icmp eq i64 %38, -9223372036854775807
  %.not3.i.not.i56 = xor i1 %.not3.i.i55, true
  %brmerge.i57 = or i1 %.not.i.i54, %.not3.i.not.i56
  %.not3.i.mux.i58 = and i1 %.not.i.i54, %.not3.i.i55
  br i1 %brmerge.i57, label %_RNCINvMNtCsdJPVW0sQgAG_5alloc5sliceSINtNtCsjMrxcFdYDNN_4core6result6ResultNtNtCsarYwbBXrH4d_7walkdir4dent8DirEntryNtNtB1e_5error5ErrorE7sort_byNCNvMs3_B1e_NtB1e_8IntoIter4pushs_0E0B1e_.exit66, label %bb7.i.i59

bb7.i.i59:                                        ; preds = %_RNCINvMNtCsdJPVW0sQgAG_5alloc5sliceSINtNtCsjMrxcFdYDNN_4core6result6ResultNtNtCsarYwbBXrH4d_7walkdir4dent8DirEntryNtNtB1e_5error5ErrorE7sort_byNCNvMs3_B1e_NtB1e_8IntoIter4pushs_0E0B1e_.exit52
  %a1.i.i60 = getelementptr inbounds nuw i8, ptr %36, i64 8
  %b2.i.i61 = getelementptr inbounds nuw i8, ptr %34, i64 8
  %39 = icmp ne ptr %_7.val.i53, null
  tail call void @llvm.assume(i1 %39)
  %_11.i.i62 = load ptr, ptr %_7.val.i53, align 8, !noalias !253, !nonnull !12, !align !132, !noundef !12
  %_14.0.i.i63 = load ptr, ptr %_11.i.i62, align 8, !noalias !253, !nonnull !12, !noundef !12
  %40 = getelementptr inbounds nuw i8, ptr %_11.i.i62, i64 8
  %_14.1.i.i64 = load ptr, ptr %40, align 8, !noalias !253, !nonnull !12, !align !132, !noundef !12
  %41 = getelementptr inbounds nuw i8, ptr %_14.1.i.i64, i64 32
  %42 = load ptr, ptr %41, align 8, !invariant.load !12, !noalias !253, !nonnull !12
  %43 = tail call noundef i8 %42(ptr noundef nonnull align 1 %_14.0.i.i63, ptr noalias noundef nonnull readonly align 8 captures(address, read_provenance) dereferenceable(48) %a1.i.i60, ptr noalias noundef nonnull readonly align 8 captures(address, read_provenance) dereferenceable(48) %b2.i.i61) #31
  %44 = icmp eq i8 %43, -1
  br label %_RNCINvMNtCsdJPVW0sQgAG_5alloc5sliceSINtNtCsjMrxcFdYDNN_4core6result6ResultNtNtCsarYwbBXrH4d_7walkdir4dent8DirEntryNtNtB1e_5error5ErrorE7sort_byNCNvMs3_B1e_NtB1e_8IntoIter4pushs_0E0B1e_.exit66

_RNCINvMNtCsdJPVW0sQgAG_5alloc5sliceSINtNtCsjMrxcFdYDNN_4core6result6ResultNtNtCsarYwbBXrH4d_7walkdir4dent8DirEntryNtNtB1e_5error5ErrorE7sort_byNCNvMs3_B1e_NtB1e_8IntoIter4pushs_0E0B1e_.exit66: ; preds = %_RNCINvMNtCsdJPVW0sQgAG_5alloc5sliceSINtNtCsjMrxcFdYDNN_4core6result6ResultNtNtCsarYwbBXrH4d_7walkdir4dent8DirEntryNtNtB1e_5error5ErrorE7sort_byNCNvMs3_B1e_NtB1e_8IntoIter4pushs_0E0B1e_.exit52, %bb7.i.i59
  %_0.sroa.0.0.i.i65 = phi i1 [ %44, %bb7.i.i59 ], [ %.not3.i.mux.i58, %_RNCINvMNtCsdJPVW0sQgAG_5alloc5sliceSINtNtCsjMrxcFdYDNN_4core6result6ResultNtNtCsarYwbBXrH4d_7walkdir4dent8DirEntryNtNtB1e_5error5ErrorE7sort_byNCNvMs3_B1e_NtB1e_8IntoIter4pushs_0E0B1e_.exit52 ]
  %45 = select i1 %_0.sroa.0.0.i.i51, ptr %b, ptr %d, !unpredictable !12
  %46 = select i1 %_0.sroa.0.0.i.i37, ptr %c, ptr %a, !unpredictable !12
  %47 = select i1 %_0.sroa.0.0.i.i65, ptr %36, ptr %34, !unpredictable !12
  %48 = select i1 %_0.sroa.0.0.i.i65, ptr %34, ptr %36, !unpredictable !12
  tail call void @llvm.memcpy.p0.p0.i64(ptr noundef nonnull align 8 dereferenceable(56) %dst, ptr noundef nonnull align 8 dereferenceable(56) %46, i64 56, i1 false)
  %dst4 = getelementptr inbounds nuw i8, ptr %dst, i64 56
  tail call void @llvm.memcpy.p0.p0.i64(ptr noundef nonnull align 8 dereferenceable(56) %dst4, ptr noundef nonnull align 8 dereferenceable(56) %47, i64 56, i1 false)
  %dst5 = getelementptr inbounds nuw i8, ptr %dst, i64 112
  tail call void @llvm.memcpy.p0.p0.i64(ptr noundef nonnull align 8 dereferenceable(56) %dst5, ptr noundef nonnull align 8 dereferenceable(56) %48, i64 56, i1 false)
  %dst6 = getelementptr inbounds nuw i8, ptr %dst, i64 168
  tail call void @llvm.memcpy.p0.p0.i64(ptr noundef nonnull align 8 dereferenceable(56) %dst6, ptr noundef nonnull align 8 dereferenceable(56) %45, i64 56, i1 false)
  ret void
}

; core::slice::sort::shared::smallsort::insertion_sort_shift_left::<core::result::Result<walkdir::dent::DirEntry, walkdir::error::Error>, <[core::result::Result<walkdir::dent::DirEntry, walkdir::error::Error>]>::sort_by<<walkdir::IntoIter>::push::{closure#1}>::{closure#0}>
; Function Attrs: uwtable
define internal fastcc void @_RINvNtNtNtNtCsjMrxcFdYDNN_4core5slice4sort6shared9smallsort25insertion_sort_shift_leftINtNtBa_6result6ResultNtNtCsarYwbBXrH4d_7walkdir4dent8DirEntryNtNtB1M_5error5ErrorENCINvMNtCsdJPVW0sQgAG_5alloc5sliceSB1m_7sort_byNCNvMs3_B1M_NtB1M_8IntoIter4pushs_0E0EB1M_(ptr noalias noundef nonnull align 8 captures(address, read_provenance) %v.0, i64 noundef range(i64 2, 21) %v.1, ptr readonly captures(address_is_null) %is_less.0.val) unnamed_addr #2 personality ptr @rust_eh_personality {
bb5.lr.ph:
  %tmp.i = alloca [56 x i8], align 8
  %v_end.idx = mul nuw nsw i64 %v.1, 56
  %v_end = getelementptr inbounds nuw i8, ptr %v.0, i64 %v_end.idx
  %tail.sroa.0.02 = getelementptr inbounds nuw i8, ptr %v.0, i64 56
  %0 = icmp ne ptr %is_less.0.val, null
  tail call void @llvm.assume(i1 %0)
  %a1.i.i9.i = getelementptr inbounds nuw i8, ptr %tmp.i, i64 8
  br label %bb5

bb7:                                              ; preds = %_RINvNtNtNtNtCsjMrxcFdYDNN_4core5slice4sort6shared9smallsort11insert_tailINtNtBa_6result6ResultNtNtCsarYwbBXrH4d_7walkdir4dent8DirEntryNtNtB1y_5error5ErrorENCINvMNtCsdJPVW0sQgAG_5alloc5sliceSB18_7sort_byNCNvMs3_B1y_NtB1y_8IntoIter4pushs_0E0EB1y_.exit
  ret void

bb5:                                              ; preds = %bb5.lr.ph, %_RINvNtNtNtNtCsjMrxcFdYDNN_4core5slice4sort6shared9smallsort11insert_tailINtNtBa_6result6ResultNtNtCsarYwbBXrH4d_7walkdir4dent8DirEntryNtNtB1y_5error5ErrorENCINvMNtCsdJPVW0sQgAG_5alloc5sliceSB18_7sort_byNCNvMs3_B1y_NtB1y_8IntoIter4pushs_0E0EB1y_.exit
  %tail.sroa.0.05 = phi ptr [ %tail.sroa.0.02, %bb5.lr.ph ], [ %tail.sroa.0.0, %_RINvNtNtNtNtCsjMrxcFdYDNN_4core5slice4sort6shared9smallsort11insert_tailINtNtBa_6result6ResultNtNtCsarYwbBXrH4d_7walkdir4dent8DirEntryNtNtB1y_5error5ErrorENCINvMNtCsdJPVW0sQgAG_5alloc5sliceSB18_7sort_byNCNvMs3_B1y_NtB1y_8IntoIter4pushs_0E0EB1y_.exit ]
  %v.0.pn4 = phi ptr [ %v.0, %bb5.lr.ph ], [ %tail.sroa.0.05, %_RINvNtNtNtNtCsjMrxcFdYDNN_4core5slice4sort6shared9smallsort11insert_tailINtNtBa_6result6ResultNtNtCsarYwbBXrH4d_7walkdir4dent8DirEntryNtNtB1y_5error5ErrorENCINvMNtCsdJPVW0sQgAG_5alloc5sliceSB18_7sort_byNCNvMs3_B1y_NtB1y_8IntoIter4pushs_0E0EB1y_.exit ]
  call void @llvm.experimental.noalias.scope.decl(metadata !254)
  call void @llvm.experimental.noalias.scope.decl(metadata !257)
  %_7.val.i.i = load ptr, ptr %is_less.0.val, align 8, !noalias !259
  call void @llvm.experimental.noalias.scope.decl(metadata !260)
  call void @llvm.experimental.noalias.scope.decl(metadata !263)
  %1 = load i64, ptr %tail.sroa.0.05, align 8, !range !16, !alias.scope !265, !noalias !266, !noundef !12
  %.not.i.i.i = icmp ne i64 %1, -9223372036854775807
  %2 = load i64, ptr %v.0.pn4, align 8, !range !16, !alias.scope !266, !noalias !265, !noundef !12
  %.not3.i.i.i = icmp eq i64 %2, -9223372036854775807
  %.not3.i.not.i.i = xor i1 %.not3.i.i.i, true
  %brmerge.i.i = or i1 %.not.i.i.i, %.not3.i.not.i.i
  br i1 %brmerge.i.i, label %_RNCINvMNtCsdJPVW0sQgAG_5alloc5sliceSINtNtCsjMrxcFdYDNN_4core6result6ResultNtNtCsarYwbBXrH4d_7walkdir4dent8DirEntryNtNtB1e_5error5ErrorE7sort_byNCNvMs3_B1e_NtB1e_8IntoIter4pushs_0E0B1e_.exit.i, label %bb7.i.i.i

bb7.i.i.i:                                        ; preds = %bb5
  %a1.i.i.i = getelementptr inbounds nuw i8, ptr %v.0.pn4, i64 64
  %b2.i.i.i = getelementptr inbounds nuw i8, ptr %v.0.pn4, i64 8
  %3 = icmp ne ptr %_7.val.i.i, null
  call void @llvm.assume(i1 %3)
  %_11.i.i.i = load ptr, ptr %_7.val.i.i, align 8, !noalias !267, !nonnull !12, !align !132, !noundef !12
  %_14.0.i.i.i = load ptr, ptr %_11.i.i.i, align 8, !noalias !267, !nonnull !12, !noundef !12
  %4 = getelementptr inbounds nuw i8, ptr %_11.i.i.i, i64 8
  %_14.1.i.i.i = load ptr, ptr %4, align 8, !noalias !267, !nonnull !12, !align !132, !noundef !12
  %5 = getelementptr inbounds nuw i8, ptr %_14.1.i.i.i, i64 32
  %6 = load ptr, ptr %5, align 8, !invariant.load !12, !noalias !267, !nonnull !12
  %7 = call noundef i8 %6(ptr noundef nonnull align 1 %_14.0.i.i.i, ptr noalias noundef nonnull readonly align 8 captures(address, read_provenance) dereferenceable(48) %a1.i.i.i, ptr noalias noundef nonnull readonly align 8 captures(address, read_provenance) dereferenceable(48) %b2.i.i.i) #31
  %8 = icmp eq i8 %7, -1
  br i1 %8, label %bb2.i, label %_RINvNtNtNtNtCsjMrxcFdYDNN_4core5slice4sort6shared9smallsort11insert_tailINtNtBa_6result6ResultNtNtCsarYwbBXrH4d_7walkdir4dent8DirEntryNtNtB1y_5error5ErrorENCINvMNtCsdJPVW0sQgAG_5alloc5sliceSB18_7sort_byNCNvMs3_B1y_NtB1y_8IntoIter4pushs_0E0EB1y_.exit

_RNCINvMNtCsdJPVW0sQgAG_5alloc5sliceSINtNtCsjMrxcFdYDNN_4core6result6ResultNtNtCsarYwbBXrH4d_7walkdir4dent8DirEntryNtNtB1e_5error5ErrorE7sort_byNCNvMs3_B1e_NtB1e_8IntoIter4pushs_0E0B1e_.exit.i: ; preds = %bb5
  %.not3.i.mux.i.i = and i1 %.not.i.i.i, %.not3.i.i.i
  br i1 %.not3.i.mux.i.i, label %bb2.i, label %_RINvNtNtNtNtCsjMrxcFdYDNN_4core5slice4sort6shared9smallsort11insert_tailINtNtBa_6result6ResultNtNtCsarYwbBXrH4d_7walkdir4dent8DirEntryNtNtB1y_5error5ErrorENCINvMNtCsdJPVW0sQgAG_5alloc5sliceSB18_7sort_byNCNvMs3_B1y_NtB1y_8IntoIter4pushs_0E0EB1y_.exit

bb2.i:                                            ; preds = %_RNCINvMNtCsdJPVW0sQgAG_5alloc5sliceSINtNtCsjMrxcFdYDNN_4core6result6ResultNtNtCsarYwbBXrH4d_7walkdir4dent8DirEntryNtNtB1e_5error5ErrorE7sort_byNCNvMs3_B1e_NtB1e_8IntoIter4pushs_0E0B1e_.exit.i, %bb7.i.i.i
  call void @llvm.lifetime.start.p0(i64 56, ptr nonnull %tmp.i)
  call void @llvm.memcpy.p0.p0.i64(ptr noundef nonnull align 8 dereferenceable(56) %tmp.i, ptr noundef nonnull align 8 dereferenceable(56) %tail.sroa.0.05, i64 56, i1 false)
  call void @llvm.memcpy.p0.p0.i64(ptr noundef nonnull align 8 dereferenceable(56) %tail.sroa.0.05, ptr noundef nonnull align 8 dereferenceable(56) %v.0.pn4, i64 56, i1 false)
  %_183.i = icmp eq ptr %v.0.pn4, %v.0
  br i1 %_183.i, label %bb10.i, label %bb6.i

bb6.i:                                            ; preds = %bb2.i, %bb4.backedge.i
  %sift.sroa.0.04.i = phi ptr [ %9, %bb4.backedge.i ], [ %v.0.pn4, %bb2.i ]
  %9 = getelementptr inbounds i8, ptr %sift.sroa.0.04.i, i64 -56
  call void @llvm.experimental.noalias.scope.decl(metadata !268)
  call void @llvm.experimental.noalias.scope.decl(metadata !271)
  %_7.val.i2.i = load ptr, ptr %is_less.0.val, align 8, !noalias !273
  call void @llvm.experimental.noalias.scope.decl(metadata !274)
  call void @llvm.experimental.noalias.scope.decl(metadata !277)
  %10 = load i64, ptr %tmp.i, align 8, !range !16, !alias.scope !279, !noalias !280, !noundef !12
  %.not.i.i3.i = icmp ne i64 %10, -9223372036854775807
  %11 = load i64, ptr %9, align 8, !range !16, !alias.scope !280, !noalias !279, !noundef !12
  %.not3.i.i4.i = icmp eq i64 %11, -9223372036854775807
  %.not3.i.not.i5.i = xor i1 %.not3.i.i4.i, true
  %brmerge.i6.i = or i1 %.not.i.i3.i, %.not3.i.not.i5.i
  br i1 %brmerge.i6.i, label %bb7.i, label %bb7.i.i8.i

bb7.i.i8.i:                                       ; preds = %bb6.i
  %b2.i.i10.i = getelementptr inbounds i8, ptr %sift.sroa.0.04.i, i64 -48
  %12 = icmp ne ptr %_7.val.i2.i, null
  call void @llvm.assume(i1 %12)
  %_11.i.i11.i = load ptr, ptr %_7.val.i2.i, align 8, !noalias !281, !nonnull !12, !align !132, !noundef !12
  %_14.0.i.i12.i = load ptr, ptr %_11.i.i11.i, align 8, !noalias !281, !nonnull !12, !noundef !12
  %13 = getelementptr inbounds nuw i8, ptr %_11.i.i11.i, i64 8
  %_14.1.i.i13.i = load ptr, ptr %13, align 8, !noalias !281, !nonnull !12, !align !132, !noundef !12
  %14 = getelementptr inbounds nuw i8, ptr %_14.1.i.i13.i, i64 32
  %15 = load ptr, ptr %14, align 8, !invariant.load !12, !noalias !281, !nonnull !12
  %16 = invoke noundef i8 %15(ptr noundef nonnull align 1 %_14.0.i.i12.i, ptr noalias noundef nonnull readonly align 8 captures(address, read_provenance) dereferenceable(48) %a1.i.i9.i, ptr noalias noundef nonnull readonly align 8 captures(address, read_provenance) dereferenceable(48) %b2.i.i10.i) #31
          to label %.noexc.i unwind label %bb14.i

.noexc.i:                                         ; preds = %bb7.i.i8.i
  %17 = icmp eq i8 %16, -1
  br i1 %17, label %bb4.backedge.i, label %bb10.i

bb7.i:                                            ; preds = %bb6.i
  %.not3.i.mux.i7.i = and i1 %.not.i.i3.i, %.not3.i.i4.i
  br i1 %.not3.i.mux.i7.i, label %bb4.backedge.i, label %bb10.i

bb4.backedge.i:                                   ; preds = %bb7.i, %.noexc.i
  call void @llvm.memcpy.p0.p0.i64(ptr noundef nonnull align 8 dereferenceable(56) %sift.sroa.0.04.i, ptr noundef nonnull align 8 dereferenceable(56) %9, i64 56, i1 false)
  %_18.i = icmp eq ptr %9, %v.0
  br i1 %_18.i, label %bb10.i, label %bb6.i

bb10.i:                                           ; preds = %bb4.backedge.i, %bb7.i, %.noexc.i, %bb2.i
  %sift.sroa.0.0.lcssa.i = phi ptr [ %v.0, %bb2.i ], [ %v.0, %bb4.backedge.i ], [ %sift.sroa.0.04.i, %bb7.i ], [ %sift.sroa.0.04.i, %.noexc.i ]
  call void @llvm.memcpy.p0.p0.i64(ptr noundef nonnull align 8 dereferenceable(56) %sift.sroa.0.0.lcssa.i, ptr noundef nonnull align 8 dereferenceable(56) %tmp.i, i64 56, i1 false), !noalias !282
  call void @llvm.lifetime.end.p0(i64 56, ptr nonnull %tmp.i)
  br label %_RINvNtNtNtNtCsjMrxcFdYDNN_4core5slice4sort6shared9smallsort11insert_tailINtNtBa_6result6ResultNtNtCsarYwbBXrH4d_7walkdir4dent8DirEntryNtNtB1y_5error5ErrorENCINvMNtCsdJPVW0sQgAG_5alloc5sliceSB18_7sort_byNCNvMs3_B1y_NtB1y_8IntoIter4pushs_0E0EB1y_.exit

bb14.i:                                           ; preds = %bb7.i.i8.i
  %18 = landingpad { ptr, i32 }
          cleanup
  call void @llvm.memcpy.p0.p0.i64(ptr noundef nonnull align 8 dereferenceable(56) %sift.sroa.0.04.i, ptr noundef nonnull align 8 dereferenceable(56) %tmp.i, i64 56, i1 false), !noalias !287
  resume { ptr, i32 } %18

_RINvNtNtNtNtCsjMrxcFdYDNN_4core5slice4sort6shared9smallsort11insert_tailINtNtBa_6result6ResultNtNtCsarYwbBXrH4d_7walkdir4dent8DirEntryNtNtB1y_5error5ErrorENCINvMNtCsdJPVW0sQgAG_5alloc5sliceSB18_7sort_byNCNvMs3_B1y_NtB1y_8IntoIter4pushs_0E0EB1y_.exit: ; preds = %bb7.i.i.i, %_RNCINvMNtCsdJPVW0sQgAG_5alloc5sliceSINtNtCsjMrxcFdYDNN_4core6result6ResultNtNtCsarYwbBXrH4d_7walkdir4dent8DirEntryNtNtB1e_5error5ErrorE7sort_byNCNvMs3_B1e_NtB1e_8IntoIter4pushs_0E0B1e_.exit.i, %bb10.i
  %tail.sroa.0.0 = getelementptr inbounds nuw i8, ptr %tail.sroa.0.05, i64 56
  %_10.not = icmp eq ptr %tail.sroa.0.0, %v_end
  br i1 %_10.not, label %bb7, label %bb5
}

; core::slice::sort::stable::drift::sort::<core::result::Result<walkdir::dent::DirEntry, walkdir::error::Error>, <[core::result::Result<walkdir::dent::DirEntry, walkdir::error::Error>]>::sort_by<<walkdir::IntoIter>::push::{closure#1}>::{closure#0}>
; Function Attrs: uwtable
define internal fastcc void @_RINvNtNtNtNtCsjMrxcFdYDNN_4core5slice4sort6stable5drift4sortINtNtBa_6result6ResultNtNtCsarYwbBXrH4d_7walkdir4dent8DirEntryNtNtB1m_5error5ErrorENCINvMNtCsdJPVW0sQgAG_5alloc5sliceSBW_7sort_byNCNvMs3_B1m_NtB1m_8IntoIter4pushs_0E0EB1m_(ptr noalias noundef nonnull align 8 %v.0, i64 noundef range(i64 0, 164703072086692426) %v.1, ptr noalias noundef nonnull align 8 %scratch.0, i64 noundef range(i64 0, 164703072086692426) %scratch.1, i1 noundef zeroext %eager_sort, ptr noalias noundef nonnull align 8 dereferenceable(8) %is_less) unnamed_addr #2 personality ptr @rust_eh_personality {
start:
  %desired_depth_storage = alloca [66 x i8], align 1
  %run_storage = alloca [528 x i8], align 8
  %_6 = icmp samesign ult i64 %v.1, 2
  br i1 %_6, label %bb23, label %bb2

bb2:                                              ; preds = %start
  %d = udiv i64 4611686018427387904, %v.1
  %0 = mul i64 %d, %v.1
  %r.decomposed = sub i64 4611686018427387904, %0
  %_72.not = icmp ne i64 %r.decomposed, 0
  %1 = zext i1 %_72.not to i64
  %scale_factor.sroa.0.0 = add nuw nsw i64 %d, %1
  %_9 = icmp samesign ult i64 %v.1, 4097
  br i1 %_9, label %bb3, label %bb4

bb4:                                              ; preds = %bb2
; call core::slice::sort::stable::drift::sqrt_approx
  %2 = tail call noundef i64 @_RNvNtNtNtNtCsjMrxcFdYDNN_4core5slice4sort6stable5drift11sqrt_approx(i64 noundef %v.1)
  br label %bb5

bb3:                                              ; preds = %bb2
  %_1134 = lshr i64 %v.1, 1
  %v1 = sub nsw i64 %v.1, %_1134
  %_0.sroa.0.0.i35 = tail call noundef i64 @llvm.umin.i64(i64 %v1, i64 64)
  br label %bb5

bb5:                                              ; preds = %bb3, %bb4
  %min_good_run_len.sroa.0.0 = phi i64 [ %_0.sroa.0.0.i35, %bb3 ], [ %2, %bb4 ]
  call void @llvm.lifetime.start.p0(i64 528, ptr nonnull %run_storage)
  call void @llvm.lifetime.start.p0(i64 66, ptr nonnull %desired_depth_storage)
  br label %bb6

bb6:                                              ; preds = %bb19, %bb5
  %prev_run.sroa.0.0 = phi i64 [ 1, %bb5 ], [ %next_run.sroa.0.0, %bb19 ]
  %scan_idx.sroa.0.0 = phi i64 [ 0, %bb5 ], [ %75, %bb19 ]
  %stack_len.sroa.0.0 = phi i64 [ 0, %bb5 ], [ %74, %bb19 ]
  %_22 = icmp ult i64 %scan_idx.sroa.0.0, %v.1
  br i1 %_22, label %bb30, label %bb10

bb10:                                             ; preds = %bb6, %_RINvNtNtNtNtCsjMrxcFdYDNN_4core5slice4sort6stable5drift10create_runINtNtBa_6result6ResultNtNtCsarYwbBXrH4d_7walkdir4dent8DirEntryNtNtB1t_5error5ErrorENCINvMNtCsdJPVW0sQgAG_5alloc5sliceSB13_7sort_byNCNvMs3_B1t_NtB1t_8IntoIter4pushs_0E0EB1t_.exit
  %desired_depth.sroa.0.0 = phi i8 [ %38, %_RINvNtNtNtNtCsjMrxcFdYDNN_4core5slice4sort6stable5drift10create_runINtNtBa_6result6ResultNtNtCsarYwbBXrH4d_7walkdir4dent8DirEntryNtNtB1t_5error5ErrorENCINvMNtCsdJPVW0sQgAG_5alloc5sliceSB13_7sort_byNCNvMs3_B1t_NtB1t_8IntoIter4pushs_0E0EB1t_.exit ], [ 0, %bb6 ]
  %next_run.sroa.0.0 = phi i64 [ %_0.sroa.0.0.i38, %_RINvNtNtNtNtCsjMrxcFdYDNN_4core5slice4sort6stable5drift10create_runINtNtBa_6result6ResultNtNtCsarYwbBXrH4d_7walkdir4dent8DirEntryNtNtB1t_5error5ErrorENCINvMNtCsdJPVW0sQgAG_5alloc5sliceSB13_7sort_byNCNvMs3_B1t_NtB1t_8IntoIter4pushs_0E0EB1t_.exit ], [ 1, %bb6 ]
  %_37121 = icmp ugt i64 %stack_len.sroa.0.0, 1
  br i1 %_37121, label %bb12.lr.ph, label %bb17

bb12.lr.ph:                                       ; preds = %bb10
  %v_end.i = getelementptr inbounds nuw %"core::result::Result<dent::DirEntry, error::Error>", ptr %v.0, i64 %scan_idx.sroa.0.0
  br label %bb12

bb30:                                             ; preds = %bb6
  %new_len = sub nuw nsw i64 %v.1, %scan_idx.sroa.0.0
  %_81 = getelementptr inbounds nuw %"core::result::Result<dent::DirEntry, error::Error>", ptr %v.0, i64 %scan_idx.sroa.0.0
  tail call void @llvm.experimental.noalias.scope.decl(metadata !292)
  %_7.not.i = icmp ult i64 %new_len, %min_good_run_len.sroa.0.0
  br i1 %_7.not.i, label %bb7.i39, label %bb1.i

bb7.i39:                                          ; preds = %_RINvNtNtNtCsjMrxcFdYDNN_4core5slice4sort6shared17find_existing_runINtNtB8_6result6ResultNtNtCsarYwbBXrH4d_7walkdir4dent8DirEntryNtNtB1s_5error5ErrorENCINvMNtCsdJPVW0sQgAG_5alloc5sliceSB12_7sort_byNCNvMs3_B1s_NtB1s_8IntoIter4pushs_0E0EB1s_.exit.i, %bb30
  br i1 %eager_sort, label %bb16.i43, label %bb11.i40

bb1.i:                                            ; preds = %bb30
  %_4.i.i = icmp samesign ult i64 %new_len, 2
  br i1 %_4.i.i, label %bb5.i36, label %bb2.i.i

bb2.i.i:                                          ; preds = %bb1.i
  %_28.i.i = getelementptr inbounds nuw i8, ptr %_81, i64 56
  %is_less.val2.i = load ptr, ptr %is_less, align 8, !alias.scope !292, !noalias !295, !nonnull !12, !align !132, !noundef !12
  tail call void @llvm.experimental.noalias.scope.decl(metadata !298)
  tail call void @llvm.experimental.noalias.scope.decl(metadata !301)
  %_7.val.i76 = load ptr, ptr %is_less.val2.i, align 8, !noalias !303
  tail call void @llvm.experimental.noalias.scope.decl(metadata !304), !noalias !307
  tail call void @llvm.experimental.noalias.scope.decl(metadata !308), !noalias !307
  %3 = load i64, ptr %_28.i.i, align 8, !range !16, !alias.scope !310, !noalias !311, !noundef !12
  %.not.i.i77 = icmp ne i64 %3, -9223372036854775807
  %4 = load i64, ptr %_81, align 8, !range !16, !alias.scope !312, !noalias !313, !noundef !12
  %.not3.i.i78 = icmp eq i64 %4, -9223372036854775807
  %.not3.i.not.i79 = xor i1 %.not3.i.i78, true
  %brmerge.i80 = or i1 %.not.i.i77, %.not3.i.not.i79
  br i1 %brmerge.i80, label %_RNCINvMNtCsdJPVW0sQgAG_5alloc5sliceSINtNtCsjMrxcFdYDNN_4core6result6ResultNtNtCsarYwbBXrH4d_7walkdir4dent8DirEntryNtNtB1e_5error5ErrorE7sort_byNCNvMs3_B1e_NtB1e_8IntoIter4pushs_0E0B1e_.exit89, label %bb7.i.i82

bb7.i.i82:                                        ; preds = %bb2.i.i
  %a1.i.i83 = getelementptr inbounds nuw i8, ptr %_81, i64 64
  %b2.i.i84 = getelementptr inbounds nuw i8, ptr %_81, i64 8
  %5 = icmp ne ptr %_7.val.i76, null
  tail call void @llvm.assume(i1 %5), !noalias !307
  %_11.i.i85 = load ptr, ptr %_7.val.i76, align 8, !noalias !314, !nonnull !12, !align !132, !noundef !12
  %_14.0.i.i86 = load ptr, ptr %_11.i.i85, align 8, !noalias !314, !nonnull !12, !noundef !12
  %6 = getelementptr inbounds nuw i8, ptr %_11.i.i85, i64 8
  %_14.1.i.i87 = load ptr, ptr %6, align 8, !noalias !314, !nonnull !12, !align !132, !noundef !12
  %7 = getelementptr inbounds nuw i8, ptr %_14.1.i.i87, i64 32
  %8 = load ptr, ptr %7, align 8, !invariant.load !12, !noalias !314, !nonnull !12
  %9 = tail call noundef i8 %8(ptr noundef nonnull align 1 %_14.0.i.i86, ptr noalias noundef nonnull readonly align 8 captures(address, read_provenance) dereferenceable(48) %a1.i.i83, ptr noalias noundef nonnull readonly align 8 captures(address, read_provenance) dereferenceable(48) %b2.i.i84) #31, !noalias !307
  %10 = icmp eq i8 %9, -1
  br i1 %10, label %bb4.i.i.preheader, label %bb11.i.i.preheader

bb4.i.i.preheader:                                ; preds = %_RNCINvMNtCsdJPVW0sQgAG_5alloc5sliceSINtNtCsjMrxcFdYDNN_4core6result6ResultNtNtCsarYwbBXrH4d_7walkdir4dent8DirEntryNtNtB1e_5error5ErrorE7sort_byNCNvMs3_B1e_NtB1e_8IntoIter4pushs_0E0B1e_.exit89, %bb7.i.i82
  %_10.i.i116.not = icmp eq i64 %new_len, 2
  br i1 %_10.i.i116.not, label %_RINvNtNtNtCsjMrxcFdYDNN_4core5slice4sort6shared17find_existing_runINtNtB8_6result6ResultNtNtCsarYwbBXrH4d_7walkdir4dent8DirEntryNtNtB1s_5error5ErrorENCINvMNtCsdJPVW0sQgAG_5alloc5sliceSB12_7sort_byNCNvMs3_B1s_NtB1s_8IntoIter4pushs_0E0EB1s_.exit.i, label %bb5.i.i

_RNCINvMNtCsdJPVW0sQgAG_5alloc5sliceSINtNtCsjMrxcFdYDNN_4core6result6ResultNtNtCsarYwbBXrH4d_7walkdir4dent8DirEntryNtNtB1e_5error5ErrorE7sort_byNCNvMs3_B1e_NtB1e_8IntoIter4pushs_0E0B1e_.exit89: ; preds = %bb2.i.i
  %.not3.i.mux.i81 = and i1 %.not.i.i77, %.not3.i.i78
  br i1 %.not3.i.mux.i81, label %bb4.i.i.preheader, label %bb11.i.i.preheader

bb11.i.i.preheader:                               ; preds = %_RNCINvMNtCsdJPVW0sQgAG_5alloc5sliceSINtNtCsjMrxcFdYDNN_4core6result6ResultNtNtCsarYwbBXrH4d_7walkdir4dent8DirEntryNtNtB1e_5error5ErrorE7sort_byNCNvMs3_B1e_NtB1e_8IntoIter4pushs_0E0B1e_.exit89, %bb7.i.i82
  %_19.i.i112.not = icmp eq i64 %new_len, 2
  br i1 %_19.i.i112.not, label %_RINvNtNtNtCsjMrxcFdYDNN_4core5slice4sort6shared17find_existing_runINtNtB8_6result6ResultNtNtCsarYwbBXrH4d_7walkdir4dent8DirEntryNtNtB1s_5error5ErrorENCINvMNtCsdJPVW0sQgAG_5alloc5sliceSB12_7sort_byNCNvMs3_B1s_NtB1s_8IntoIter4pushs_0E0EB1s_.exit.i, label %bb12.i.i

bb12.i.i:                                         ; preds = %bb11.i.i.preheader, %bb15.i.i
  %run_len.sroa.0.0.i.i113 = phi i64 [ %19, %bb15.i.i ], [ 2, %bb11.i.i.preheader ]
  %_40.i.i = getelementptr inbounds nuw %"core::result::Result<dent::DirEntry, error::Error>", ptr %_81, i64 %run_len.sroa.0.0.i.i113
  %index1.i.i = add nsw i64 %run_len.sroa.0.0.i.i113, -1
  %_45.i.i = icmp ult i64 %index1.i.i, %new_len
  tail call void @llvm.assume(i1 %_45.i.i)
  %_43.i.i = getelementptr inbounds nuw %"core::result::Result<dent::DirEntry, error::Error>", ptr %_81, i64 %index1.i.i
  tail call void @llvm.experimental.noalias.scope.decl(metadata !315)
  tail call void @llvm.experimental.noalias.scope.decl(metadata !318)
  %_7.val.i62 = load ptr, ptr %is_less.val2.i, align 8, !noalias !320
  tail call void @llvm.experimental.noalias.scope.decl(metadata !321), !noalias !307
  tail call void @llvm.experimental.noalias.scope.decl(metadata !324), !noalias !307
  %11 = load i64, ptr %_40.i.i, align 8, !range !16, !alias.scope !326, !noalias !327, !noundef !12
  %.not.i.i63 = icmp ne i64 %11, -9223372036854775807
  %12 = load i64, ptr %_43.i.i, align 8, !range !16, !alias.scope !328, !noalias !329, !noundef !12
  %.not3.i.i64 = icmp eq i64 %12, -9223372036854775807
  %.not3.i.not.i65 = xor i1 %.not3.i.i64, true
  %brmerge.i66 = or i1 %.not.i.i63, %.not3.i.not.i65
  br i1 %brmerge.i66, label %_RNCINvMNtCsdJPVW0sQgAG_5alloc5sliceSINtNtCsjMrxcFdYDNN_4core6result6ResultNtNtCsarYwbBXrH4d_7walkdir4dent8DirEntryNtNtB1e_5error5ErrorE7sort_byNCNvMs3_B1e_NtB1e_8IntoIter4pushs_0E0B1e_.exit75, label %bb7.i.i68

bb7.i.i68:                                        ; preds = %bb12.i.i
  %a1.i.i69 = getelementptr inbounds nuw i8, ptr %_40.i.i, i64 8
  %b2.i.i70 = getelementptr inbounds nuw i8, ptr %_43.i.i, i64 8
  %13 = icmp ne ptr %_7.val.i62, null
  tail call void @llvm.assume(i1 %13), !noalias !307
  %_11.i.i71 = load ptr, ptr %_7.val.i62, align 8, !noalias !330, !nonnull !12, !align !132, !noundef !12
  %_14.0.i.i72 = load ptr, ptr %_11.i.i71, align 8, !noalias !330, !nonnull !12, !noundef !12
  %14 = getelementptr inbounds nuw i8, ptr %_11.i.i71, i64 8
  %_14.1.i.i73 = load ptr, ptr %14, align 8, !noalias !330, !nonnull !12, !align !132, !noundef !12
  %15 = getelementptr inbounds nuw i8, ptr %_14.1.i.i73, i64 32
  %16 = load ptr, ptr %15, align 8, !invariant.load !12, !noalias !330, !nonnull !12
  %17 = tail call noundef i8 %16(ptr noundef nonnull align 1 %_14.0.i.i72, ptr noalias noundef nonnull readonly align 8 captures(address, read_provenance) dereferenceable(48) %a1.i.i69, ptr noalias noundef nonnull readonly align 8 captures(address, read_provenance) dereferenceable(48) %b2.i.i70) #31, !noalias !307
  %18 = icmp eq i8 %17, -1
  br i1 %18, label %_RINvNtNtNtCsjMrxcFdYDNN_4core5slice4sort6shared17find_existing_runINtNtB8_6result6ResultNtNtCsarYwbBXrH4d_7walkdir4dent8DirEntryNtNtB1s_5error5ErrorENCINvMNtCsdJPVW0sQgAG_5alloc5sliceSB12_7sort_byNCNvMs3_B1s_NtB1s_8IntoIter4pushs_0E0EB1s_.exit.i, label %bb15.i.i

_RNCINvMNtCsdJPVW0sQgAG_5alloc5sliceSINtNtCsjMrxcFdYDNN_4core6result6ResultNtNtCsarYwbBXrH4d_7walkdir4dent8DirEntryNtNtB1e_5error5ErrorE7sort_byNCNvMs3_B1e_NtB1e_8IntoIter4pushs_0E0B1e_.exit75: ; preds = %bb12.i.i
  %.not3.i.mux.i67 = and i1 %.not.i.i63, %.not3.i.i64
  br i1 %.not3.i.mux.i67, label %_RINvNtNtNtCsjMrxcFdYDNN_4core5slice4sort6shared17find_existing_runINtNtB8_6result6ResultNtNtCsarYwbBXrH4d_7walkdir4dent8DirEntryNtNtB1s_5error5ErrorENCINvMNtCsdJPVW0sQgAG_5alloc5sliceSB12_7sort_byNCNvMs3_B1s_NtB1s_8IntoIter4pushs_0E0EB1s_.exit.i, label %bb15.i.i

bb15.i.i:                                         ; preds = %bb7.i.i68, %_RNCINvMNtCsdJPVW0sQgAG_5alloc5sliceSINtNtCsjMrxcFdYDNN_4core6result6ResultNtNtCsarYwbBXrH4d_7walkdir4dent8DirEntryNtNtB1e_5error5ErrorE7sort_byNCNvMs3_B1e_NtB1e_8IntoIter4pushs_0E0B1e_.exit75
  %19 = add nuw i64 %run_len.sroa.0.0.i.i113, 1
  %exitcond.not = icmp eq i64 %19, %new_len
  br i1 %exitcond.not, label %_RINvNtNtNtCsjMrxcFdYDNN_4core5slice4sort6shared17find_existing_runINtNtB8_6result6ResultNtNtCsarYwbBXrH4d_7walkdir4dent8DirEntryNtNtB1s_5error5ErrorENCINvMNtCsdJPVW0sQgAG_5alloc5sliceSB12_7sort_byNCNvMs3_B1s_NtB1s_8IntoIter4pushs_0E0EB1s_.exit.i, label %bb12.i.i

bb5.i.i:                                          ; preds = %bb4.i.i.preheader, %bb7.i.i
  %run_len.sroa.0.1.i.i117 = phi i64 [ %28, %bb7.i.i ], [ 2, %bb4.i.i.preheader ]
  %_34.i.i = getelementptr inbounds nuw %"core::result::Result<dent::DirEntry, error::Error>", ptr %_81, i64 %run_len.sroa.0.1.i.i117
  %index3.i.i = add nsw i64 %run_len.sroa.0.1.i.i117, -1
  %_39.i.i = icmp ult i64 %index3.i.i, %new_len
  tail call void @llvm.assume(i1 %_39.i.i)
  %_37.i.i = getelementptr inbounds nuw %"core::result::Result<dent::DirEntry, error::Error>", ptr %_81, i64 %index3.i.i
  tail call void @llvm.experimental.noalias.scope.decl(metadata !331)
  tail call void @llvm.experimental.noalias.scope.decl(metadata !334)
  %_7.val.i = load ptr, ptr %is_less.val2.i, align 8, !noalias !336
  tail call void @llvm.experimental.noalias.scope.decl(metadata !337), !noalias !307
  tail call void @llvm.experimental.noalias.scope.decl(metadata !340), !noalias !307
  %20 = load i64, ptr %_34.i.i, align 8, !range !16, !alias.scope !342, !noalias !343, !noundef !12
  %.not.i.i = icmp ne i64 %20, -9223372036854775807
  %21 = load i64, ptr %_37.i.i, align 8, !range !16, !alias.scope !344, !noalias !345, !noundef !12
  %.not3.i.i = icmp eq i64 %21, -9223372036854775807
  %.not3.i.not.i = xor i1 %.not3.i.i, true
  %brmerge.i = or i1 %.not.i.i, %.not3.i.not.i
  br i1 %brmerge.i, label %_RNCINvMNtCsdJPVW0sQgAG_5alloc5sliceSINtNtCsjMrxcFdYDNN_4core6result6ResultNtNtCsarYwbBXrH4d_7walkdir4dent8DirEntryNtNtB1e_5error5ErrorE7sort_byNCNvMs3_B1e_NtB1e_8IntoIter4pushs_0E0B1e_.exit, label %bb7.i.i60

bb7.i.i60:                                        ; preds = %bb5.i.i
  %a1.i.i = getelementptr inbounds nuw i8, ptr %_34.i.i, i64 8
  %b2.i.i = getelementptr inbounds nuw i8, ptr %_37.i.i, i64 8
  %22 = icmp ne ptr %_7.val.i, null
  tail call void @llvm.assume(i1 %22), !noalias !307
  %_11.i.i = load ptr, ptr %_7.val.i, align 8, !noalias !346, !nonnull !12, !align !132, !noundef !12
  %_14.0.i.i = load ptr, ptr %_11.i.i, align 8, !noalias !346, !nonnull !12, !noundef !12
  %23 = getelementptr inbounds nuw i8, ptr %_11.i.i, i64 8
  %_14.1.i.i = load ptr, ptr %23, align 8, !noalias !346, !nonnull !12, !align !132, !noundef !12
  %24 = getelementptr inbounds nuw i8, ptr %_14.1.i.i, i64 32
  %25 = load ptr, ptr %24, align 8, !invariant.load !12, !noalias !346, !nonnull !12
  %26 = tail call noundef i8 %25(ptr noundef nonnull align 1 %_14.0.i.i, ptr noalias noundef nonnull readonly align 8 captures(address, read_provenance) dereferenceable(48) %a1.i.i, ptr noalias noundef nonnull readonly align 8 captures(address, read_provenance) dereferenceable(48) %b2.i.i) #31, !noalias !307
  %27 = icmp eq i8 %26, -1
  br i1 %27, label %bb7.i.i, label %_RINvNtNtNtCsjMrxcFdYDNN_4core5slice4sort6shared17find_existing_runINtNtB8_6result6ResultNtNtCsarYwbBXrH4d_7walkdir4dent8DirEntryNtNtB1s_5error5ErrorENCINvMNtCsdJPVW0sQgAG_5alloc5sliceSB12_7sort_byNCNvMs3_B1s_NtB1s_8IntoIter4pushs_0E0EB1s_.exit.i

_RNCINvMNtCsdJPVW0sQgAG_5alloc5sliceSINtNtCsjMrxcFdYDNN_4core6result6ResultNtNtCsarYwbBXrH4d_7walkdir4dent8DirEntryNtNtB1e_5error5ErrorE7sort_byNCNvMs3_B1e_NtB1e_8IntoIter4pushs_0E0B1e_.exit: ; preds = %bb5.i.i
  %.not3.i.mux.i = and i1 %.not.i.i, %.not3.i.i
  br i1 %.not3.i.mux.i, label %bb7.i.i, label %_RINvNtNtNtCsjMrxcFdYDNN_4core5slice4sort6shared17find_existing_runINtNtB8_6result6ResultNtNtCsarYwbBXrH4d_7walkdir4dent8DirEntryNtNtB1s_5error5ErrorENCINvMNtCsdJPVW0sQgAG_5alloc5sliceSB12_7sort_byNCNvMs3_B1s_NtB1s_8IntoIter4pushs_0E0EB1s_.exit.i

bb7.i.i:                                          ; preds = %bb7.i.i60, %_RNCINvMNtCsdJPVW0sQgAG_5alloc5sliceSINtNtCsjMrxcFdYDNN_4core6result6ResultNtNtCsarYwbBXrH4d_7walkdir4dent8DirEntryNtNtB1e_5error5ErrorE7sort_byNCNvMs3_B1e_NtB1e_8IntoIter4pushs_0E0B1e_.exit
  %28 = add nuw i64 %run_len.sroa.0.1.i.i117, 1
  %exitcond137.not = icmp eq i64 %28, %new_len
  br i1 %exitcond137.not, label %_RINvNtNtNtCsjMrxcFdYDNN_4core5slice4sort6shared17find_existing_runINtNtB8_6result6ResultNtNtCsarYwbBXrH4d_7walkdir4dent8DirEntryNtNtB1s_5error5ErrorENCINvMNtCsdJPVW0sQgAG_5alloc5sliceSB12_7sort_byNCNvMs3_B1s_NtB1s_8IntoIter4pushs_0E0EB1s_.exit.i, label %bb5.i.i

_RINvNtNtNtCsjMrxcFdYDNN_4core5slice4sort6shared17find_existing_runINtNtB8_6result6ResultNtNtCsarYwbBXrH4d_7walkdir4dent8DirEntryNtNtB1s_5error5ErrorENCINvMNtCsdJPVW0sQgAG_5alloc5sliceSB12_7sort_byNCNvMs3_B1s_NtB1s_8IntoIter4pushs_0E0EB1s_.exit.i: ; preds = %bb15.i.i, %_RNCINvMNtCsdJPVW0sQgAG_5alloc5sliceSINtNtCsjMrxcFdYDNN_4core6result6ResultNtNtCsarYwbBXrH4d_7walkdir4dent8DirEntryNtNtB1e_5error5ErrorE7sort_byNCNvMs3_B1e_NtB1e_8IntoIter4pushs_0E0B1e_.exit75, %bb7.i.i68, %bb7.i.i, %_RNCINvMNtCsdJPVW0sQgAG_5alloc5sliceSINtNtCsjMrxcFdYDNN_4core6result6ResultNtNtCsarYwbBXrH4d_7walkdir4dent8DirEntryNtNtB1e_5error5ErrorE7sort_byNCNvMs3_B1e_NtB1e_8IntoIter4pushs_0E0B1e_.exit, %bb7.i.i60, %bb11.i.i.preheader, %bb4.i.i.preheader
  %_0.sroa.3.0.off0.i.i = phi i1 [ true, %bb4.i.i.preheader ], [ false, %bb11.i.i.preheader ], [ true, %bb7.i.i60 ], [ true, %_RNCINvMNtCsdJPVW0sQgAG_5alloc5sliceSINtNtCsjMrxcFdYDNN_4core6result6ResultNtNtCsarYwbBXrH4d_7walkdir4dent8DirEntryNtNtB1e_5error5ErrorE7sort_byNCNvMs3_B1e_NtB1e_8IntoIter4pushs_0E0B1e_.exit ], [ true, %bb7.i.i ], [ false, %bb7.i.i68 ], [ false, %_RNCINvMNtCsdJPVW0sQgAG_5alloc5sliceSINtNtCsjMrxcFdYDNN_4core6result6ResultNtNtCsarYwbBXrH4d_7walkdir4dent8DirEntryNtNtB1e_5error5ErrorE7sort_byNCNvMs3_B1e_NtB1e_8IntoIter4pushs_0E0B1e_.exit75 ], [ false, %bb15.i.i ]
  %_0.sroa.0.0.i.i = phi i64 [ 2, %bb4.i.i.preheader ], [ 2, %bb11.i.i.preheader ], [ %new_len, %bb7.i.i ], [ %run_len.sroa.0.1.i.i117, %_RNCINvMNtCsdJPVW0sQgAG_5alloc5sliceSINtNtCsjMrxcFdYDNN_4core6result6ResultNtNtCsarYwbBXrH4d_7walkdir4dent8DirEntryNtNtB1e_5error5ErrorE7sort_byNCNvMs3_B1e_NtB1e_8IntoIter4pushs_0E0B1e_.exit ], [ %run_len.sroa.0.1.i.i117, %bb7.i.i60 ], [ %new_len, %bb15.i.i ], [ %run_len.sroa.0.0.i.i113, %_RNCINvMNtCsdJPVW0sQgAG_5alloc5sliceSINtNtCsjMrxcFdYDNN_4core6result6ResultNtNtCsarYwbBXrH4d_7walkdir4dent8DirEntryNtNtB1e_5error5ErrorE7sort_byNCNvMs3_B1e_NtB1e_8IntoIter4pushs_0E0B1e_.exit75 ], [ %run_len.sroa.0.0.i.i113, %bb7.i.i68 ]
  %_12.i = icmp ule i64 %_0.sroa.0.0.i.i, %new_len
  tail call void @llvm.assume(i1 %_12.i)
  %_13.not.i = icmp ult i64 %_0.sroa.0.0.i.i, %min_good_run_len.sroa.0.0
  br i1 %_13.not.i, label %bb7.i39, label %bb3.i

bb3.i:                                            ; preds = %_RINvNtNtNtCsjMrxcFdYDNN_4core5slice4sort6shared17find_existing_runINtNtB8_6result6ResultNtNtCsarYwbBXrH4d_7walkdir4dent8DirEntryNtNtB1s_5error5ErrorENCINvMNtCsdJPVW0sQgAG_5alloc5sliceSB12_7sort_byNCNvMs3_B1s_NtB1s_8IntoIter4pushs_0E0EB1s_.exit.i
  br i1 %_0.sroa.3.0.off0.i.i, label %bb14.i, label %bb5.i36

bb11.i40:                                         ; preds = %bb7.i39
  %_0.sroa.0.0.i59 = tail call noundef i64 @llvm.umin.i64(i64 range(i64 0, 164703072086692426) %new_len, i64 %min_good_run_len.sroa.0.0)
  %_36.i41 = shl nuw nsw i64 %_0.sroa.0.0.i59, 1
  br label %_RINvNtNtNtNtCsjMrxcFdYDNN_4core5slice4sort6stable5drift10create_runINtNtBa_6result6ResultNtNtCsarYwbBXrH4d_7walkdir4dent8DirEntryNtNtB1t_5error5ErrorENCINvMNtCsdJPVW0sQgAG_5alloc5sliceSB13_7sort_byNCNvMs3_B1t_NtB1t_8IntoIter4pushs_0E0EB1t_.exit

bb16.i43:                                         ; preds = %bb7.i39
  %_0.sroa.0.0.i58 = tail call noundef i64 @llvm.umin.i64(i64 range(i64 0, 164703072086692426) %new_len, i64 32)
; call core::slice::sort::stable::quicksort::quicksort::<core::result::Result<walkdir::dent::DirEntry, walkdir::error::Error>, <[core::result::Result<walkdir::dent::DirEntry, walkdir::error::Error>]>::sort_by<<walkdir::IntoIter>::push::{closure#1}>::{closure#0}>
  tail call void @_RINvNtNtNtNtCsjMrxcFdYDNN_4core5slice4sort6stable9quicksort9quicksortINtNtBa_6result6ResultNtNtCsarYwbBXrH4d_7walkdir4dent8DirEntryNtNtB1v_5error5ErrorENCINvMNtCsdJPVW0sQgAG_5alloc5sliceSB15_7sort_byNCNvMs3_B1v_NtB1v_8IntoIter4pushs_0E0EB1v_(ptr noalias noundef nonnull align 8 %_81, i64 noundef %_0.sroa.0.0.i58, ptr noalias noundef nonnull align 8 %scratch.0, i64 noundef range(i64 0, 164703072086692426) %scratch.1, i32 noundef 0, ptr noalias noundef readonly align 8 captures(address, read_provenance) dereferenceable_or_null(56) null, ptr noalias noundef nonnull align 8 dereferenceable(8) %is_less) #30
  %_35.i44 = shl nuw nsw i64 %_0.sroa.0.0.i58, 1
  %_34.i45 = or disjoint i64 %_35.i44, 1
  br label %_RINvNtNtNtNtCsjMrxcFdYDNN_4core5slice4sort6stable5drift10create_runINtNtBa_6result6ResultNtNtCsarYwbBXrH4d_7walkdir4dent8DirEntryNtNtB1t_5error5ErrorENCINvMNtCsdJPVW0sQgAG_5alloc5sliceSB13_7sort_byNCNvMs3_B1t_NtB1t_8IntoIter4pushs_0E0EB1t_.exit

bb5.i36:                                          ; preds = %bb6.i.i, %bb1.i, %bb14.i, %bb3.i
  %_0.sroa.0.0.i.i97100 = phi i64 [ %_0.sroa.0.0.i.i, %bb3.i ], [ %_0.sroa.0.0.i.i, %bb14.i ], [ %new_len, %bb1.i ], [ %_0.sroa.0.0.i.i, %bb6.i.i ]
  %_27.i37 = shl nuw nsw i64 %_0.sroa.0.0.i.i97100, 1
  %_26.i = or disjoint i64 %_27.i37, 1
  br label %_RINvNtNtNtNtCsjMrxcFdYDNN_4core5slice4sort6stable5drift10create_runINtNtBa_6result6ResultNtNtCsarYwbBXrH4d_7walkdir4dent8DirEntryNtNtB1t_5error5ErrorENCINvMNtCsdJPVW0sQgAG_5alloc5sliceSB13_7sort_byNCNvMs3_B1t_NtB1t_8IntoIter4pushs_0E0EB1t_.exit

bb14.i:                                           ; preds = %bb3.i
  %half_len1.i = lshr i64 %_0.sroa.0.0.i.i, 1
  tail call void @llvm.experimental.noalias.scope.decl(metadata !347), !noalias !307
  tail call void @llvm.experimental.noalias.scope.decl(metadata !350), !noalias !307
  %_917.not.i.i = icmp samesign ult i64 %_0.sroa.0.0.i.i, 2
  br i1 %_917.not.i.i, label %bb5.i36, label %bb5.preheader.i.i

bb5.preheader.i.i:                                ; preds = %bb14.i
  %end.i = getelementptr inbounds nuw %"core::result::Result<dent::DirEntry, error::Error>", ptr %_81, i64 %_0.sroa.0.0.i.i
  br label %bb6.i.i

bb6.i.i:                                          ; preds = %bb6.i.i, %bb5.preheader.i.i
  %i.sroa.0.018.i.i = phi i64 [ %36, %bb6.i.i ], [ 0, %bb5.preheader.i.i ]
  %29 = xor i64 %i.sroa.0.018.i.i, -1
  %x.i.i = getelementptr inbounds nuw %"core::result::Result<dent::DirEntry, error::Error>", ptr %_81, i64 %i.sroa.0.018.i.i
  %y.i.i = getelementptr %"core::result::Result<dent::DirEntry, error::Error>", ptr %end.i, i64 %29
  %30 = load <2 x i64>, ptr %x.i.i, align 8, !alias.scope !352, !noalias !358
  %31 = load <2 x i64>, ptr %y.i.i, align 8, !alias.scope !359, !noalias !362
  store <2 x i64> %31, ptr %x.i.i, align 8, !alias.scope !352, !noalias !358
  store <2 x i64> %30, ptr %y.i.i, align 8, !alias.scope !359, !noalias !362
  %_11.2.i.i.i.i.i.i = getelementptr inbounds nuw i8, ptr %x.i.i, i64 16
  %_13.2.i.i.i.i.i.i = getelementptr inbounds nuw i8, ptr %y.i.i, i64 16
  %32 = load <2 x i64>, ptr %_11.2.i.i.i.i.i.i, align 8, !alias.scope !363, !noalias !358
  %33 = load <2 x i64>, ptr %_13.2.i.i.i.i.i.i, align 8, !alias.scope !366, !noalias !362
  store <2 x i64> %33, ptr %_11.2.i.i.i.i.i.i, align 8, !alias.scope !363, !noalias !358
  store <2 x i64> %32, ptr %_13.2.i.i.i.i.i.i, align 8, !alias.scope !366, !noalias !362
  %_11.4.i.i.i.i.i.i = getelementptr inbounds nuw i8, ptr %x.i.i, i64 32
  %_13.4.i.i.i.i.i.i = getelementptr inbounds nuw i8, ptr %y.i.i, i64 32
  %34 = load <2 x i64>, ptr %_11.4.i.i.i.i.i.i, align 8, !alias.scope !369, !noalias !358
  %35 = load <2 x i64>, ptr %_13.4.i.i.i.i.i.i, align 8, !alias.scope !372, !noalias !362
  store <2 x i64> %35, ptr %_11.4.i.i.i.i.i.i, align 8, !alias.scope !369, !noalias !358
  store <2 x i64> %34, ptr %_13.4.i.i.i.i.i.i, align 8, !alias.scope !372, !noalias !362
  %_11.6.i.i.i.i.i.i = getelementptr inbounds nuw i8, ptr %x.i.i, i64 48
  %_13.6.i.i.i.i.i.i = getelementptr inbounds nuw i8, ptr %y.i.i, i64 48
  tail call void @llvm.experimental.noalias.scope.decl(metadata !375), !noalias !307
  tail call void @llvm.experimental.noalias.scope.decl(metadata !377), !noalias !307
  %_3.sroa.0.0.copyload.i.6.i.i.i.i.i.i = load i64, ptr %_11.6.i.i.i.i.i.i, align 8, !alias.scope !379, !noalias !380
  %_4.sroa.0.0.copyload.i.6.i.i.i.i.i.i = load i64, ptr %_13.6.i.i.i.i.i.i, align 8, !alias.scope !381, !noalias !382
  store i64 %_4.sroa.0.0.copyload.i.6.i.i.i.i.i.i, ptr %_11.6.i.i.i.i.i.i, align 8, !alias.scope !379, !noalias !380
  store i64 %_3.sroa.0.0.copyload.i.6.i.i.i.i.i.i, ptr %_13.6.i.i.i.i.i.i, align 8, !alias.scope !381, !noalias !382
  %36 = add nuw nsw i64 %i.sroa.0.018.i.i, 1
  %exitcond.not.i.i = icmp eq i64 %36, %half_len1.i
  br i1 %exitcond.not.i.i, label %bb5.i36, label %bb6.i.i

_RINvNtNtNtNtCsjMrxcFdYDNN_4core5slice4sort6stable5drift10create_runINtNtBa_6result6ResultNtNtCsarYwbBXrH4d_7walkdir4dent8DirEntryNtNtB1t_5error5ErrorENCINvMNtCsdJPVW0sQgAG_5alloc5sliceSB13_7sort_byNCNvMs3_B1t_NtB1t_8IntoIter4pushs_0E0EB1t_.exit: ; preds = %bb11.i40, %bb16.i43, %bb5.i36
  %_0.sroa.0.0.i38 = phi i64 [ %_26.i, %bb5.i36 ], [ %_34.i45, %bb16.i43 ], [ %_36.i41, %bb11.i40 ]
  %_31 = lshr i64 %prev_run.sroa.0.0, 1
  %_35 = lshr i64 %_0.sroa.0.0.i38, 1
  %factor = shl i64 %scan_idx.sroa.0.0, 1
  %x = sub i64 %factor, %_31
  %y = add i64 %_35, %factor
  %_89 = mul i64 %x, %scale_factor.sroa.0.0
  %_90 = mul i64 %y, %scale_factor.sroa.0.0
  %self3 = xor i64 %_90, %_89
  %37 = tail call range(i64 0, 65) i64 @llvm.ctlz.i64(i64 %self3, i1 false)
  %38 = trunc nuw nsw i64 %37 to i8
  br label %bb10

bb12:                                             ; preds = %bb12.lr.ph, %_RINvNtNtNtNtCsjMrxcFdYDNN_4core5slice4sort6stable5drift13logical_mergeINtNtBa_6result6ResultNtNtCsarYwbBXrH4d_7walkdir4dent8DirEntryNtNtB1w_5error5ErrorENCINvMNtCsdJPVW0sQgAG_5alloc5sliceSB16_7sort_byNCNvMs3_B1w_NtB1w_8IntoIter4pushs_0E0EB1w_.exit
  %stack_len.sroa.0.1123 = phi i64 [ %stack_len.sroa.0.0, %bb12.lr.ph ], [ %count, %_RINvNtNtNtNtCsjMrxcFdYDNN_4core5slice4sort6stable5drift13logical_mergeINtNtBa_6result6ResultNtNtCsarYwbBXrH4d_7walkdir4dent8DirEntryNtNtB1w_5error5ErrorENCINvMNtCsdJPVW0sQgAG_5alloc5sliceSB16_7sort_byNCNvMs3_B1w_NtB1w_8IntoIter4pushs_0E0EB1w_.exit ]
  %prev_run.sroa.0.1122 = phi i64 [ %prev_run.sroa.0.0, %bb12.lr.ph ], [ %_0.sroa.0.0.i, %_RINvNtNtNtNtCsjMrxcFdYDNN_4core5slice4sort6stable5drift13logical_mergeINtNtBa_6result6ResultNtNtCsarYwbBXrH4d_7walkdir4dent8DirEntryNtNtB1w_5error5ErrorENCINvMNtCsdJPVW0sQgAG_5alloc5sliceSB16_7sort_byNCNvMs3_B1w_NtB1w_8IntoIter4pushs_0E0EB1w_.exit ]
  %count = add i64 %stack_len.sroa.0.1123, -1
  %_41 = getelementptr inbounds nuw i8, ptr %desired_depth_storage, i64 %count
  %_40 = load i8, ptr %_41, align 1, !noundef !12
  %_39.not = icmp ult i8 %_40, %desired_depth.sroa.0.0
  br i1 %_39.not, label %bb17, label %bb13

bb17:                                             ; preds = %_RINvNtNtNtNtCsjMrxcFdYDNN_4core5slice4sort6stable5drift13logical_mergeINtNtBa_6result6ResultNtNtCsarYwbBXrH4d_7walkdir4dent8DirEntryNtNtB1w_5error5ErrorENCINvMNtCsdJPVW0sQgAG_5alloc5sliceSB16_7sort_byNCNvMs3_B1w_NtB1w_8IntoIter4pushs_0E0EB1w_.exit, %bb12, %bb10
  %prev_run.sroa.0.1.lcssa = phi i64 [ %prev_run.sroa.0.0, %bb10 ], [ %prev_run.sroa.0.1122, %bb12 ], [ %_0.sroa.0.0.i, %_RINvNtNtNtNtCsjMrxcFdYDNN_4core5slice4sort6stable5drift13logical_mergeINtNtBa_6result6ResultNtNtCsarYwbBXrH4d_7walkdir4dent8DirEntryNtNtB1w_5error5ErrorENCINvMNtCsdJPVW0sQgAG_5alloc5sliceSB16_7sort_byNCNvMs3_B1w_NtB1w_8IntoIter4pushs_0E0EB1w_.exit ]
  %stack_len.sroa.0.1.lcssa = phi i64 [ %stack_len.sroa.0.0, %bb10 ], [ %stack_len.sroa.0.1123, %bb12 ], [ 1, %_RINvNtNtNtNtCsjMrxcFdYDNN_4core5slice4sort6stable5drift13logical_mergeINtNtBa_6result6ResultNtNtCsarYwbBXrH4d_7walkdir4dent8DirEntryNtNtB1w_5error5ErrorENCINvMNtCsdJPVW0sQgAG_5alloc5sliceSB16_7sort_byNCNvMs3_B1w_NtB1w_8IntoIter4pushs_0E0EB1w_.exit ]
  %_59 = getelementptr inbounds nuw i64, ptr %run_storage, i64 %stack_len.sroa.0.1.lcssa
  store i64 %prev_run.sroa.0.1.lcssa, ptr %_59, align 8
  %_61 = getelementptr inbounds nuw i8, ptr %desired_depth_storage, i64 %stack_len.sroa.0.1.lcssa
  store i8 %desired_depth.sroa.0.0, ptr %_61, align 1
  br i1 %_22, label %bb19, label %bb18

bb13:                                             ; preds = %bb12
  %_46 = getelementptr inbounds nuw i64, ptr %run_storage, i64 %count
  %left9 = load i64, ptr %_46, align 8, !noundef !12
  %_50 = lshr i64 %left9, 1
  %_51 = lshr i64 %prev_run.sroa.0.1122, 1
  %merged_len = add nuw i64 %_50, %_51
  %merge_start_idx = sub i64 %scan_idx.sroa.0.0, %merged_len
  %_96 = getelementptr inbounds nuw %"core::result::Result<dent::DirEntry, error::Error>", ptr %v.0, i64 %merge_start_idx
  %can_fit_in_scratch.i = icmp samesign ugt i64 %merged_len, %scratch.1
  %_18.i = and i64 %prev_run.sroa.0.1122, 1
  %.not4.i = icmp eq i64 %_18.i, 0
  %39 = or i64 %left9, %prev_run.sroa.0.1122
  %40 = and i64 %39, 1
  %41 = icmp ne i64 %40, 0
  %or.cond2.i = or i1 %can_fit_in_scratch.i, %41
  br i1 %or.cond2.i, label %bb5.i, label %bb13.i

bb5.i:                                            ; preds = %bb13
  %_17.i = and i64 %left9, 1
  %.not.i = icmp eq i64 %_17.i, 0
  br i1 %.not.i, label %bb15.i, label %bb8.i

bb13.i:                                           ; preds = %bb13
  %_36.i = shl nuw nsw i64 %merged_len, 1
  br label %_RINvNtNtNtNtCsjMrxcFdYDNN_4core5slice4sort6stable5drift13logical_mergeINtNtBa_6result6ResultNtNtCsarYwbBXrH4d_7walkdir4dent8DirEntryNtNtB1w_5error5ErrorENCINvMNtCsdJPVW0sQgAG_5alloc5sliceSB16_7sort_byNCNvMs3_B1w_NtB1w_8IntoIter4pushs_0E0EB1w_.exit

bb8.i:                                            ; preds = %bb15.i, %bb5.i
  br i1 %.not4.i, label %bb20.i, label %bb11.i

bb15.i:                                           ; preds = %bb5.i
  %self.i = or i64 %_50, 1
  %42 = tail call range(i64 6, 64) i64 @llvm.ctlz.i64(i64 %self.i, i1 true)
  %43 = trunc nuw nsw i64 %42 to i32
  %log.i = shl nuw nsw i32 %43, 1
  %limit.i = xor i32 %log.i, 126
; call core::slice::sort::stable::quicksort::quicksort::<core::result::Result<walkdir::dent::DirEntry, walkdir::error::Error>, <[core::result::Result<walkdir::dent::DirEntry, walkdir::error::Error>]>::sort_by<<walkdir::IntoIter>::push::{closure#1}>::{closure#0}>
  tail call void @_RINvNtNtNtNtCsjMrxcFdYDNN_4core5slice4sort6stable9quicksort9quicksortINtNtBa_6result6ResultNtNtCsarYwbBXrH4d_7walkdir4dent8DirEntryNtNtB1v_5error5ErrorENCINvMNtCsdJPVW0sQgAG_5alloc5sliceSB15_7sort_byNCNvMs3_B1v_NtB1v_8IntoIter4pushs_0E0EB1v_(ptr noalias noundef nonnull align 8 %_96, i64 noundef range(i64 0, 164703072086692426) %_50, ptr noalias noundef nonnull align 8 %scratch.0, i64 noundef range(i64 0, 164703072086692426) %scratch.1, i32 noundef %limit.i, ptr noalias noundef readonly align 8 captures(address, read_provenance) dereferenceable_or_null(56) null, ptr noalias noundef nonnull align 8 dereferenceable(8) %is_less) #30
  br label %bb8.i

bb11.i:                                           ; preds = %bb20.i, %bb8.i
  %is_less.val = load ptr, ptr %is_less, align 8
  tail call void @llvm.experimental.noalias.scope.decl(metadata !383)
  tail call void @llvm.experimental.noalias.scope.decl(metadata !386)
  %44 = icmp ult i64 %left9, 2
  %_6.i = icmp ult i64 %prev_run.sroa.0.1122, 2
  %or.cond.i = select i1 %44, i1 true, i1 %_6.i
  br i1 %or.cond.i, label %_RINvNtNtNtNtCsjMrxcFdYDNN_4core5slice4sort6stable5merge5mergeINtNtBa_6result6ResultNtNtCsarYwbBXrH4d_7walkdir4dent8DirEntryNtNtB1n_5error5ErrorENCINvMNtCsdJPVW0sQgAG_5alloc5sliceSBX_7sort_byNCNvMs3_B1n_NtB1n_8IntoIter4pushs_0E0EB1n_.exit, label %bb2.i

bb2.i:                                            ; preds = %bb11.i
  %_0.sroa.0.0.i.i46 = tail call i64 @llvm.umin.i64(i64 %_51, i64 range(i64 0, -9223372036854775808) %_50)
  %_7.i = icmp samesign ult i64 %scratch.1, %_0.sroa.0.0.i.i46
  br i1 %_7.i, label %_RINvNtNtNtNtCsjMrxcFdYDNN_4core5slice4sort6stable5merge5mergeINtNtBa_6result6ResultNtNtCsarYwbBXrH4d_7walkdir4dent8DirEntryNtNtB1n_5error5ErrorENCINvMNtCsdJPVW0sQgAG_5alloc5sliceSBX_7sort_byNCNvMs3_B1n_NtB1n_8IntoIter4pushs_0E0EB1n_.exit, label %bb5.i47

bb5.i47:                                          ; preds = %bb2.i
  %v_mid.i = getelementptr inbounds nuw %"core::result::Result<dent::DirEntry, error::Error>", ptr %_96, i64 %_50
  %left_is_shorter.not.i = icmp samesign ugt i64 %_50, %_51
  %spec.select.i = select i1 %left_is_shorter.not.i, ptr %v_mid.i, ptr %_96
  %45 = mul nuw nsw i64 %_0.sroa.0.0.i.i46, 56
  tail call void @llvm.memcpy.p0.p0.i64(ptr nonnull align 8 %scratch.0, ptr nonnull align 8 %spec.select.i, i64 %45, i1 false), !alias.scope !388
  %_21.i = getelementptr inbounds nuw i8, ptr %scratch.0, i64 %45
  %46 = icmp ne ptr %is_less.val, null
  tail call void @llvm.assume(i1 %46)
  br i1 %left_is_shorter.not.i, label %bb1.i.i, label %bb3.i.i

bb1.i.i:                                          ; preds = %bb5.i47, %_RNCINvMNtCsdJPVW0sQgAG_5alloc5sliceSINtNtCsjMrxcFdYDNN_4core6result6ResultNtNtCsarYwbBXrH4d_7walkdir4dent8DirEntryNtNtB1e_5error5ErrorE7sort_byNCNvMs3_B1e_NtB1e_8IntoIter4pushs_0E0B1e_.exit.i.i
  %merge_state.sroa.13.0.i = phi ptr [ %_18.i.i, %_RNCINvMNtCsdJPVW0sQgAG_5alloc5sliceSINtNtCsjMrxcFdYDNN_4core6result6ResultNtNtCsarYwbBXrH4d_7walkdir4dent8DirEntryNtNtB1e_5error5ErrorE7sort_byNCNvMs3_B1e_NtB1e_8IntoIter4pushs_0E0B1e_.exit.i.i ], [ %v_mid.i, %bb5.i47 ]
  %merge_state.sroa.7.0.i = phi ptr [ %_21.i.i51, %_RNCINvMNtCsdJPVW0sQgAG_5alloc5sliceSINtNtCsjMrxcFdYDNN_4core6result6ResultNtNtCsarYwbBXrH4d_7walkdir4dent8DirEntryNtNtB1e_5error5ErrorE7sort_byNCNvMs3_B1e_NtB1e_8IntoIter4pushs_0E0B1e_.exit.i.i ], [ %_21.i, %bb5.i47 ]
  %out.sroa.0.0.i.i = phi ptr [ %49, %_RNCINvMNtCsdJPVW0sQgAG_5alloc5sliceSINtNtCsjMrxcFdYDNN_4core6result6ResultNtNtCsarYwbBXrH4d_7walkdir4dent8DirEntryNtNtB1e_5error5ErrorE7sort_byNCNvMs3_B1e_NtB1e_8IntoIter4pushs_0E0B1e_.exit.i.i ], [ %v_end.i, %bb5.i47 ]
  %47 = getelementptr inbounds i8, ptr %merge_state.sroa.13.0.i, i64 -56
  %48 = getelementptr inbounds i8, ptr %merge_state.sroa.7.0.i, i64 -56
  %49 = getelementptr inbounds i8, ptr %out.sroa.0.0.i.i, i64 -56
  tail call void @llvm.experimental.noalias.scope.decl(metadata !389)
  tail call void @llvm.experimental.noalias.scope.decl(metadata !392)
  %_7.val.i.i.i = load ptr, ptr %is_less.val, align 8, !noalias !394
  tail call void @llvm.experimental.noalias.scope.decl(metadata !397)
  tail call void @llvm.experimental.noalias.scope.decl(metadata !400)
  %50 = load i64, ptr %48, align 8, !range !16, !alias.scope !402, !noalias !403, !noundef !12
  %.not.i.i.i.i = icmp ne i64 %50, -9223372036854775807
  %51 = load i64, ptr %47, align 8, !range !16, !alias.scope !404, !noalias !405, !noundef !12
  %.not3.i.i.i.i = icmp eq i64 %51, -9223372036854775807
  %.not3.i.not.i.i.i = xor i1 %.not3.i.i.i.i, true
  %brmerge.i.i.i = or i1 %.not.i.i.i.i, %.not3.i.not.i.i.i
  %.not3.i.mux.i.i.i = and i1 %.not.i.i.i.i, %.not3.i.i.i.i
  br i1 %brmerge.i.i.i, label %_RNCINvMNtCsdJPVW0sQgAG_5alloc5sliceSINtNtCsjMrxcFdYDNN_4core6result6ResultNtNtCsarYwbBXrH4d_7walkdir4dent8DirEntryNtNtB1e_5error5ErrorE7sort_byNCNvMs3_B1e_NtB1e_8IntoIter4pushs_0E0B1e_.exit.i.i, label %bb7.i.i.i.i

bb7.i.i.i.i:                                      ; preds = %bb1.i.i
  %a1.i.i.i.i = getelementptr inbounds i8, ptr %merge_state.sroa.7.0.i, i64 -48
  %b2.i.i.i.i = getelementptr inbounds i8, ptr %merge_state.sroa.13.0.i, i64 -48
  %52 = icmp ne ptr %_7.val.i.i.i, null
  tail call void @llvm.assume(i1 %52)
  %_11.i.i.i.i = load ptr, ptr %_7.val.i.i.i, align 8, !noalias !406, !nonnull !12, !align !132, !noundef !12
  %_14.0.i.i.i.i = load ptr, ptr %_11.i.i.i.i, align 8, !noalias !406, !nonnull !12, !noundef !12
  %53 = getelementptr inbounds nuw i8, ptr %_11.i.i.i.i, i64 8
  %_14.1.i.i.i.i = load ptr, ptr %53, align 8, !noalias !406, !nonnull !12, !align !132, !noundef !12
  %54 = getelementptr inbounds nuw i8, ptr %_14.1.i.i.i.i, i64 32
  %55 = load ptr, ptr %54, align 8, !invariant.load !12, !noalias !406, !nonnull !12
  %56 = invoke noundef i8 %55(ptr noundef nonnull align 1 %_14.0.i.i.i.i, ptr noalias noundef nonnull readonly align 8 captures(address, read_provenance) dereferenceable(48) %a1.i.i.i.i, ptr noalias noundef nonnull readonly align 8 captures(address, read_provenance) dereferenceable(48) %b2.i.i.i.i) #31
          to label %.noexc.i unwind label %bb20.loopexit.i

.noexc.i:                                         ; preds = %bb7.i.i.i.i
  %57 = icmp eq i8 %56, -1
  br label %_RNCINvMNtCsdJPVW0sQgAG_5alloc5sliceSINtNtCsjMrxcFdYDNN_4core6result6ResultNtNtCsarYwbBXrH4d_7walkdir4dent8DirEntryNtNtB1e_5error5ErrorE7sort_byNCNvMs3_B1e_NtB1e_8IntoIter4pushs_0E0B1e_.exit.i.i

_RNCINvMNtCsdJPVW0sQgAG_5alloc5sliceSINtNtCsjMrxcFdYDNN_4core6result6ResultNtNtCsarYwbBXrH4d_7walkdir4dent8DirEntryNtNtB1e_5error5ErrorE7sort_byNCNvMs3_B1e_NtB1e_8IntoIter4pushs_0E0B1e_.exit.i.i: ; preds = %.noexc.i, %bb1.i.i
  %_0.sroa.0.0.i.i.i.i = phi i1 [ %57, %.noexc.i ], [ %.not3.i.mux.i.i.i, %bb1.i.i ]
  %..i.i = select i1 %_0.sroa.0.0.i.i.i.i, ptr %47, ptr %48
  tail call void @llvm.memcpy.p0.p0.i64(ptr noundef nonnull align 8 dereferenceable(56) %49, ptr noundef nonnull align 8 dereferenceable(56) %..i.i, i64 56, i1 false), !alias.scope !388, !noalias !407
  %_20.i.i = xor i1 %_0.sroa.0.0.i.i.i.i, true
  %count.i.i = zext i1 %_20.i.i to i64
  %_18.i.i = getelementptr inbounds nuw %"core::result::Result<dent::DirEntry, error::Error>", ptr %47, i64 %count.i.i
  %count4.i.i = zext i1 %_0.sroa.0.0.i.i.i.i to i64
  %_21.i.i51 = getelementptr inbounds nuw %"core::result::Result<dent::DirEntry, error::Error>", ptr %48, i64 %count4.i.i
  %_23.i.i = icmp eq ptr %_18.i.i, %_96
  %_26.i.i = icmp eq ptr %_21.i.i51, %scratch.0
  %or.cond.i.i = select i1 %_23.i.i, i1 true, i1 %_26.i.i
  br i1 %or.cond.i.i, label %bb16.i50, label %bb1.i.i

bb3.i.i:                                          ; preds = %bb5.i47, %_RNCINvMNtCsdJPVW0sQgAG_5alloc5sliceSINtNtCsjMrxcFdYDNN_4core6result6ResultNtNtCsarYwbBXrH4d_7walkdir4dent8DirEntryNtNtB1e_5error5ErrorE7sort_byNCNvMs3_B1e_NtB1e_8IntoIter4pushs_0E0B1e_.exit.i25.i
  %merge_state.sroa.13.1.i = phi ptr [ %_25.i.i, %_RNCINvMNtCsdJPVW0sQgAG_5alloc5sliceSINtNtCsjMrxcFdYDNN_4core6result6ResultNtNtCsarYwbBXrH4d_7walkdir4dent8DirEntryNtNtB1e_5error5ErrorE7sort_byNCNvMs3_B1e_NtB1e_8IntoIter4pushs_0E0B1e_.exit.i25.i ], [ %_96, %bb5.i47 ]
  %merge_state.sroa.0.0.i = phi ptr [ %_20.i28.i, %_RNCINvMNtCsdJPVW0sQgAG_5alloc5sliceSINtNtCsjMrxcFdYDNN_4core6result6ResultNtNtCsarYwbBXrH4d_7walkdir4dent8DirEntryNtNtB1e_5error5ErrorE7sort_byNCNvMs3_B1e_NtB1e_8IntoIter4pushs_0E0B1e_.exit.i25.i ], [ %scratch.0, %bb5.i47 ]
  %right.sroa.0.06.i.i = phi ptr [ %_23.i29.i, %_RNCINvMNtCsdJPVW0sQgAG_5alloc5sliceSINtNtCsjMrxcFdYDNN_4core6result6ResultNtNtCsarYwbBXrH4d_7walkdir4dent8DirEntryNtNtB1e_5error5ErrorE7sort_byNCNvMs3_B1e_NtB1e_8IntoIter4pushs_0E0B1e_.exit.i25.i ], [ %v_mid.i, %bb5.i47 ]
  tail call void @llvm.experimental.noalias.scope.decl(metadata !408)
  tail call void @llvm.experimental.noalias.scope.decl(metadata !411)
  %_7.val.i.i13.i = load ptr, ptr %is_less.val, align 8, !noalias !413
  tail call void @llvm.experimental.noalias.scope.decl(metadata !416)
  tail call void @llvm.experimental.noalias.scope.decl(metadata !419)
  %58 = load i64, ptr %right.sroa.0.06.i.i, align 8, !range !16, !alias.scope !421, !noalias !422, !noundef !12
  %.not.i.i.i14.i = icmp ne i64 %58, -9223372036854775807
  %59 = load i64, ptr %merge_state.sroa.0.0.i, align 8, !range !16, !alias.scope !423, !noalias !424, !noundef !12
  %.not3.i.i.i15.i = icmp eq i64 %59, -9223372036854775807
  %.not3.i.not.i.i16.i = xor i1 %.not3.i.i.i15.i, true
  %brmerge.i.i17.i = or i1 %.not.i.i.i14.i, %.not3.i.not.i.i16.i
  %.not3.i.mux.i.i18.i = and i1 %.not.i.i.i14.i, %.not3.i.i.i15.i
  br i1 %brmerge.i.i17.i, label %_RNCINvMNtCsdJPVW0sQgAG_5alloc5sliceSINtNtCsjMrxcFdYDNN_4core6result6ResultNtNtCsarYwbBXrH4d_7walkdir4dent8DirEntryNtNtB1e_5error5ErrorE7sort_byNCNvMs3_B1e_NtB1e_8IntoIter4pushs_0E0B1e_.exit.i25.i, label %bb7.i.i.i19.i

bb7.i.i.i19.i:                                    ; preds = %bb3.i.i
  %a1.i.i.i20.i = getelementptr inbounds nuw i8, ptr %right.sroa.0.06.i.i, i64 8
  %b2.i.i.i21.i = getelementptr inbounds nuw i8, ptr %merge_state.sroa.0.0.i, i64 8
  %60 = icmp ne ptr %_7.val.i.i13.i, null
  tail call void @llvm.assume(i1 %60)
  %_11.i.i.i22.i = load ptr, ptr %_7.val.i.i13.i, align 8, !noalias !425, !nonnull !12, !align !132, !noundef !12
  %_14.0.i.i.i23.i = load ptr, ptr %_11.i.i.i22.i, align 8, !noalias !425, !nonnull !12, !noundef !12
  %61 = getelementptr inbounds nuw i8, ptr %_11.i.i.i22.i, i64 8
  %_14.1.i.i.i24.i = load ptr, ptr %61, align 8, !noalias !425, !nonnull !12, !align !132, !noundef !12
  %62 = getelementptr inbounds nuw i8, ptr %_14.1.i.i.i24.i, i64 32
  %63 = load ptr, ptr %62, align 8, !invariant.load !12, !noalias !425, !nonnull !12
  %64 = invoke noundef i8 %63(ptr noundef nonnull align 1 %_14.0.i.i.i23.i, ptr noalias noundef nonnull readonly align 8 captures(address, read_provenance) dereferenceable(48) %a1.i.i.i20.i, ptr noalias noundef nonnull readonly align 8 captures(address, read_provenance) dereferenceable(48) %b2.i.i.i21.i) #31
          to label %.noexc31.i unwind label %bb20.loopexit.split-lp.i

.noexc31.i:                                       ; preds = %bb7.i.i.i19.i
  %65 = icmp eq i8 %64, -1
  br label %_RNCINvMNtCsdJPVW0sQgAG_5alloc5sliceSINtNtCsjMrxcFdYDNN_4core6result6ResultNtNtCsarYwbBXrH4d_7walkdir4dent8DirEntryNtNtB1e_5error5ErrorE7sort_byNCNvMs3_B1e_NtB1e_8IntoIter4pushs_0E0B1e_.exit.i25.i

_RNCINvMNtCsdJPVW0sQgAG_5alloc5sliceSINtNtCsjMrxcFdYDNN_4core6result6ResultNtNtCsarYwbBXrH4d_7walkdir4dent8DirEntryNtNtB1e_5error5ErrorE7sort_byNCNvMs3_B1e_NtB1e_8IntoIter4pushs_0E0B1e_.exit.i25.i: ; preds = %.noexc31.i, %bb3.i.i
  %_0.sroa.0.0.i.i.i26.i = phi i1 [ %65, %.noexc31.i ], [ %.not3.i.mux.i.i18.i, %bb3.i.i ]
  %consume_left.i.i = xor i1 %_0.sroa.0.0.i.i.i26.i, true
  %src.sroa.0.0.i.i = select i1 %_0.sroa.0.0.i.i.i26.i, ptr %right.sroa.0.06.i.i, ptr %merge_state.sroa.0.0.i
  tail call void @llvm.memcpy.p0.p0.i64(ptr noundef nonnull align 8 dereferenceable(56) %merge_state.sroa.13.1.i, ptr noundef nonnull align 8 dereferenceable(56) %src.sroa.0.0.i.i, i64 56, i1 false), !alias.scope !388, !noalias !426
  %count.i27.i = zext i1 %consume_left.i.i to i64
  %_20.i28.i = getelementptr inbounds nuw %"core::result::Result<dent::DirEntry, error::Error>", ptr %merge_state.sroa.0.0.i, i64 %count.i27.i
  %count2.i.i = zext i1 %_0.sroa.0.0.i.i.i26.i to i64
  %_23.i29.i = getelementptr inbounds nuw %"core::result::Result<dent::DirEntry, error::Error>", ptr %right.sroa.0.06.i.i, i64 %count2.i.i
  %_25.i.i = getelementptr inbounds nuw i8, ptr %merge_state.sroa.13.1.i, i64 56
  %_7.i.i = icmp ne ptr %_20.i28.i, %_21.i
  %_10.i.i49 = icmp ne ptr %_23.i29.i, %v_end.i
  %or.cond.i30.i = select i1 %_7.i.i, i1 %_10.i.i49, i1 false
  br i1 %or.cond.i30.i, label %bb3.i.i, label %bb16.i50

bb16.i50:                                         ; preds = %_RNCINvMNtCsdJPVW0sQgAG_5alloc5sliceSINtNtCsjMrxcFdYDNN_4core6result6ResultNtNtCsarYwbBXrH4d_7walkdir4dent8DirEntryNtNtB1e_5error5ErrorE7sort_byNCNvMs3_B1e_NtB1e_8IntoIter4pushs_0E0B1e_.exit.i25.i, %_RNCINvMNtCsdJPVW0sQgAG_5alloc5sliceSINtNtCsjMrxcFdYDNN_4core6result6ResultNtNtCsarYwbBXrH4d_7walkdir4dent8DirEntryNtNtB1e_5error5ErrorE7sort_byNCNvMs3_B1e_NtB1e_8IntoIter4pushs_0E0B1e_.exit.i.i
  %merge_state.sroa.13.4.i = phi ptr [ %_18.i.i, %_RNCINvMNtCsdJPVW0sQgAG_5alloc5sliceSINtNtCsjMrxcFdYDNN_4core6result6ResultNtNtCsarYwbBXrH4d_7walkdir4dent8DirEntryNtNtB1e_5error5ErrorE7sort_byNCNvMs3_B1e_NtB1e_8IntoIter4pushs_0E0B1e_.exit.i.i ], [ %_25.i.i, %_RNCINvMNtCsdJPVW0sQgAG_5alloc5sliceSINtNtCsjMrxcFdYDNN_4core6result6ResultNtNtCsarYwbBXrH4d_7walkdir4dent8DirEntryNtNtB1e_5error5ErrorE7sort_byNCNvMs3_B1e_NtB1e_8IntoIter4pushs_0E0B1e_.exit.i25.i ]
  %merge_state.sroa.7.2.i = phi ptr [ %_21.i.i51, %_RNCINvMNtCsdJPVW0sQgAG_5alloc5sliceSINtNtCsjMrxcFdYDNN_4core6result6ResultNtNtCsarYwbBXrH4d_7walkdir4dent8DirEntryNtNtB1e_5error5ErrorE7sort_byNCNvMs3_B1e_NtB1e_8IntoIter4pushs_0E0B1e_.exit.i.i ], [ %_21.i, %_RNCINvMNtCsdJPVW0sQgAG_5alloc5sliceSINtNtCsjMrxcFdYDNN_4core6result6ResultNtNtCsarYwbBXrH4d_7walkdir4dent8DirEntryNtNtB1e_5error5ErrorE7sort_byNCNvMs3_B1e_NtB1e_8IntoIter4pushs_0E0B1e_.exit.i25.i ]
  %merge_state.sroa.0.3.i = phi ptr [ %scratch.0, %_RNCINvMNtCsdJPVW0sQgAG_5alloc5sliceSINtNtCsjMrxcFdYDNN_4core6result6ResultNtNtCsarYwbBXrH4d_7walkdir4dent8DirEntryNtNtB1e_5error5ErrorE7sort_byNCNvMs3_B1e_NtB1e_8IntoIter4pushs_0E0B1e_.exit.i.i ], [ %_20.i28.i, %_RNCINvMNtCsdJPVW0sQgAG_5alloc5sliceSINtNtCsjMrxcFdYDNN_4core6result6ResultNtNtCsarYwbBXrH4d_7walkdir4dent8DirEntryNtNtB1e_5error5ErrorE7sort_byNCNvMs3_B1e_NtB1e_8IntoIter4pushs_0E0B1e_.exit.i25.i ]
  %66 = ptrtoint ptr %merge_state.sroa.7.2.i to i64
  %67 = ptrtoint ptr %merge_state.sroa.0.3.i to i64
  %68 = sub nuw i64 %66, %67
  tail call void @llvm.memcpy.p0.p0.i64(ptr nonnull align 8 %merge_state.sroa.13.4.i, ptr align 8 %merge_state.sroa.0.3.i, i64 %68, i1 false), !alias.scope !388, !noalias !427
  br label %_RINvNtNtNtNtCsjMrxcFdYDNN_4core5slice4sort6stable5merge5mergeINtNtBa_6result6ResultNtNtCsarYwbBXrH4d_7walkdir4dent8DirEntryNtNtB1n_5error5ErrorENCINvMNtCsdJPVW0sQgAG_5alloc5sliceSBX_7sort_byNCNvMs3_B1n_NtB1n_8IntoIter4pushs_0E0EB1n_.exit

bb20.loopexit.i:                                  ; preds = %bb7.i.i.i.i
  %lpad.loopexit.i = landingpad { ptr, i32 }
          cleanup
  br label %bb20.i48

bb20.loopexit.split-lp.i:                         ; preds = %bb7.i.i.i19.i
  %lpad.loopexit.split-lp.i = landingpad { ptr, i32 }
          cleanup
  br label %bb20.i48

bb20.i48:                                         ; preds = %bb20.loopexit.split-lp.i, %bb20.loopexit.i
  %merge_state.sroa.13.3.i = phi ptr [ %merge_state.sroa.13.0.i, %bb20.loopexit.i ], [ %merge_state.sroa.13.1.i, %bb20.loopexit.split-lp.i ]
  %merge_state.sroa.7.1.i = phi ptr [ %merge_state.sroa.7.0.i, %bb20.loopexit.i ], [ %_21.i, %bb20.loopexit.split-lp.i ]
  %merge_state.sroa.0.2.i = phi ptr [ %scratch.0, %bb20.loopexit.i ], [ %merge_state.sroa.0.0.i, %bb20.loopexit.split-lp.i ]
  %lpad.phi.i = phi { ptr, i32 } [ %lpad.loopexit.i, %bb20.loopexit.i ], [ %lpad.loopexit.split-lp.i, %bb20.loopexit.split-lp.i ]
  %69 = ptrtoint ptr %merge_state.sroa.7.1.i to i64
  %70 = ptrtoint ptr %merge_state.sroa.0.2.i to i64
  %71 = sub nuw i64 %69, %70
  tail call void @llvm.memcpy.p0.p0.i64(ptr nonnull align 8 %merge_state.sroa.13.3.i, ptr nonnull align 8 %merge_state.sroa.0.2.i, i64 %71, i1 false), !alias.scope !388, !noalias !432
  resume { ptr, i32 } %lpad.phi.i

_RINvNtNtNtNtCsjMrxcFdYDNN_4core5slice4sort6stable5merge5mergeINtNtBa_6result6ResultNtNtCsarYwbBXrH4d_7walkdir4dent8DirEntryNtNtB1n_5error5ErrorENCINvMNtCsdJPVW0sQgAG_5alloc5sliceSBX_7sort_byNCNvMs3_B1n_NtB1n_8IntoIter4pushs_0E0EB1n_.exit: ; preds = %bb11.i, %bb2.i, %bb16.i50
  %_35.i = shl nuw nsw i64 %merged_len, 1
  %_34.i = or disjoint i64 %_35.i, 1
  br label %_RINvNtNtNtNtCsjMrxcFdYDNN_4core5slice4sort6stable5drift13logical_mergeINtNtBa_6result6ResultNtNtCsarYwbBXrH4d_7walkdir4dent8DirEntryNtNtB1w_5error5ErrorENCINvMNtCsdJPVW0sQgAG_5alloc5sliceSB16_7sort_byNCNvMs3_B1w_NtB1w_8IntoIter4pushs_0E0EB1w_.exit

bb20.i:                                           ; preds = %bb8.i
  %_33.i = getelementptr inbounds nuw %"core::result::Result<dent::DirEntry, error::Error>", ptr %_96, i64 %_50
  %self.i52 = or i64 %_51, 1
  %72 = tail call range(i64 6, 64) i64 @llvm.ctlz.i64(i64 %self.i52, i1 true)
  %73 = trunc nuw nsw i64 %72 to i32
  %log.i53 = shl nuw nsw i32 %73, 1
  %limit.i54 = xor i32 %log.i53, 126
; call core::slice::sort::stable::quicksort::quicksort::<core::result::Result<walkdir::dent::DirEntry, walkdir::error::Error>, <[core::result::Result<walkdir::dent::DirEntry, walkdir::error::Error>]>::sort_by<<walkdir::IntoIter>::push::{closure#1}>::{closure#0}>
  tail call void @_RINvNtNtNtNtCsjMrxcFdYDNN_4core5slice4sort6stable9quicksort9quicksortINtNtBa_6result6ResultNtNtCsarYwbBXrH4d_7walkdir4dent8DirEntryNtNtB1v_5error5ErrorENCINvMNtCsdJPVW0sQgAG_5alloc5sliceSB15_7sort_byNCNvMs3_B1v_NtB1v_8IntoIter4pushs_0E0EB1v_(ptr noalias noundef nonnull align 8 %_33.i, i64 noundef range(i64 0, 164703072086692426) %_51, ptr noalias noundef nonnull align 8 %scratch.0, i64 noundef range(i64 0, 164703072086692426) %scratch.1, i32 noundef %limit.i54, ptr noalias noundef readonly align 8 captures(address, read_provenance) dereferenceable_or_null(56) null, ptr noalias noundef nonnull align 8 dereferenceable(8) %is_less) #30
  br label %bb11.i

_RINvNtNtNtNtCsjMrxcFdYDNN_4core5slice4sort6stable5drift13logical_mergeINtNtBa_6result6ResultNtNtCsarYwbBXrH4d_7walkdir4dent8DirEntryNtNtB1w_5error5ErrorENCINvMNtCsdJPVW0sQgAG_5alloc5sliceSB16_7sort_byNCNvMs3_B1w_NtB1w_8IntoIter4pushs_0E0EB1w_.exit: ; preds = %bb13.i, %_RINvNtNtNtNtCsjMrxcFdYDNN_4core5slice4sort6stable5merge5mergeINtNtBa_6result6ResultNtNtCsarYwbBXrH4d_7walkdir4dent8DirEntryNtNtB1n_5error5ErrorENCINvMNtCsdJPVW0sQgAG_5alloc5sliceSBX_7sort_byNCNvMs3_B1n_NtB1n_8IntoIter4pushs_0E0EB1n_.exit
  %_0.sroa.0.0.i = phi i64 [ %_34.i, %_RINvNtNtNtNtCsjMrxcFdYDNN_4core5slice4sort6stable5merge5mergeINtNtBa_6result6ResultNtNtCsarYwbBXrH4d_7walkdir4dent8DirEntryNtNtB1n_5error5ErrorENCINvMNtCsdJPVW0sQgAG_5alloc5sliceSBX_7sort_byNCNvMs3_B1n_NtB1n_8IntoIter4pushs_0E0EB1n_.exit ], [ %_36.i, %bb13.i ]
  %_37 = icmp ugt i64 %count, 1
  br i1 %_37, label %bb12, label %bb17

bb19:                                             ; preds = %bb17
  %74 = add i64 %stack_len.sroa.0.1.lcssa, 1
  %_65 = lshr i64 %next_run.sroa.0.0, 1
  %75 = add nuw i64 %_65, %scan_idx.sroa.0.0
  br label %bb6

bb18:                                             ; preds = %bb17
  %_97 = and i64 %prev_run.sroa.0.1.lcssa, 1
  %.not = icmp eq i64 %_97, 0
  br i1 %.not, label %bb21, label %bb22

bb21:                                             ; preds = %bb18
  %self.i55 = or i64 %v.1, 1
  %76 = tail call range(i64 6, 64) i64 @llvm.ctlz.i64(i64 %self.i55, i1 true)
  %77 = trunc nuw nsw i64 %76 to i32
  %log.i56 = shl nuw nsw i32 %77, 1
  %limit.i57 = xor i32 %log.i56, 126
; call core::slice::sort::stable::quicksort::quicksort::<core::result::Result<walkdir::dent::DirEntry, walkdir::error::Error>, <[core::result::Result<walkdir::dent::DirEntry, walkdir::error::Error>]>::sort_by<<walkdir::IntoIter>::push::{closure#1}>::{closure#0}>
  tail call void @_RINvNtNtNtNtCsjMrxcFdYDNN_4core5slice4sort6stable9quicksort9quicksortINtNtBa_6result6ResultNtNtCsarYwbBXrH4d_7walkdir4dent8DirEntryNtNtB1v_5error5ErrorENCINvMNtCsdJPVW0sQgAG_5alloc5sliceSB15_7sort_byNCNvMs3_B1v_NtB1v_8IntoIter4pushs_0E0EB1v_(ptr noalias noundef nonnull align 8 %v.0, i64 noundef range(i64 0, 164703072086692426) %v.1, ptr noalias noundef nonnull align 8 %scratch.0, i64 noundef range(i64 0, 164703072086692426) %scratch.1, i32 noundef %limit.i57, ptr noalias noundef readonly align 8 captures(address, read_provenance) dereferenceable_or_null(56) null, ptr noalias noundef nonnull align 8 dereferenceable(8) %is_less) #30
  br label %bb22

bb22:                                             ; preds = %bb18, %bb21
  call void @llvm.lifetime.end.p0(i64 66, ptr nonnull %desired_depth_storage)
  call void @llvm.lifetime.end.p0(i64 528, ptr nonnull %run_storage)
  br label %bb23

bb23:                                             ; preds = %start, %bb22
  ret void
}

; core::slice::sort::stable::quicksort::quicksort::<core::result::Result<walkdir::dent::DirEntry, walkdir::error::Error>, <[core::result::Result<walkdir::dent::DirEntry, walkdir::error::Error>]>::sort_by<<walkdir::IntoIter>::push::{closure#1}>::{closure#0}>
; Function Attrs: noinline uwtable
define void @_RINvNtNtNtNtCsjMrxcFdYDNN_4core5slice4sort6stable9quicksort9quicksortINtNtBa_6result6ResultNtNtCsarYwbBXrH4d_7walkdir4dent8DirEntryNtNtB1v_5error5ErrorENCINvMNtCsdJPVW0sQgAG_5alloc5sliceSB15_7sort_byNCNvMs3_B1v_NtB1v_8IntoIter4pushs_0E0EB1v_(ptr noalias noundef nonnull align 8 %0, i64 noundef range(i64 0, 164703072086692426) %1, ptr noalias noundef nonnull align 8 %scratch.0, i64 noundef range(i64 0, 164703072086692426) %scratch.1, i32 noundef %2, ptr noalias noundef readonly align 8 captures(address, read_provenance) dereferenceable_or_null(56) %3, ptr noalias noundef align 8 dereferenceable(8) %is_less) unnamed_addr #0 personality ptr @rust_eh_personality {
start:
  %tmp.i.i = alloca [56 x i8], align 8
  %pivot_copy = alloca [56 x i8], align 8
  %_8128134 = icmp samesign ult i64 %1, 33
  br i1 %_8128134, label %bb3, label %bb5.lr.ph

bb5.lr.ph:                                        ; preds = %start, %bb28
  %v.sroa.0.0.ph138 = phi ptr [ %_54, %bb28 ], [ %0, %start ]
  %v.sroa.16.0.ph137 = phi i64 [ %_63.i70, %bb28 ], [ %1, %start ]
  %limit.sroa.0.0.ph136 = phi i32 [ %70, %bb28 ], [ %2, %start ]
  %left_ancestor_pivot.sroa.0.0.ph135 = phi ptr [ null, %bb28 ], [ %3, %start ]
  %a1.i.i.i = getelementptr inbounds nuw i8, ptr %v.sroa.0.0.ph138, i64 8
  %4 = ptrtoint ptr %v.sroa.0.0.ph138 to i64
  %.not = icmp eq ptr %left_ancestor_pivot.sroa.0.0.ph135, null
  %a1.i.i = getelementptr inbounds nuw i8, ptr %left_ancestor_pivot.sroa.0.0.ph135, i64 8
  br label %bb5

bb5:                                              ; preds = %bb5.lr.ph, %_RNvMNtCsjMrxcFdYDNN_4core5sliceSINtNtB4_6result6ResultNtNtCsarYwbBXrH4d_7walkdir4dent8DirEntryNtNtBU_5error5ErrorE12split_at_mutBU_.exit
  %v.sroa.16.0130 = phi i64 [ %v.sroa.16.0.ph137, %bb5.lr.ph ], [ %state.sroa.11.1.lcssa.i, %_RNvMNtCsjMrxcFdYDNN_4core5sliceSINtNtB4_6result6ResultNtNtCsarYwbBXrH4d_7walkdir4dent8DirEntryNtNtBU_5error5ErrorE12split_at_mutBU_.exit ]
  %limit.sroa.0.0129 = phi i32 [ %limit.sroa.0.0.ph136, %bb5.lr.ph ], [ %70, %_RNvMNtCsjMrxcFdYDNN_4core5sliceSINtNtB4_6result6ResultNtNtCsarYwbBXrH4d_7walkdir4dent8DirEntryNtNtBU_5error5ErrorE12split_at_mutBU_.exit ]
  %5 = icmp eq i32 %limit.sroa.0.0129, 0
  br i1 %5, label %bb6, label %bb7

bb3:                                              ; preds = %bb28, %_RNvMNtCsjMrxcFdYDNN_4core5sliceSINtNtB4_6result6ResultNtNtCsarYwbBXrH4d_7walkdir4dent8DirEntryNtNtBU_5error5ErrorE12split_at_mutBU_.exit, %start
  %v.sroa.0.0.ph.lcssa127 = phi ptr [ %0, %start ], [ %v.sroa.0.0.ph138, %_RNvMNtCsjMrxcFdYDNN_4core5sliceSINtNtB4_6result6ResultNtNtCsarYwbBXrH4d_7walkdir4dent8DirEntryNtNtBU_5error5ErrorE12split_at_mutBU_.exit ], [ %_54, %bb28 ]
  %v.sroa.16.0.lcssa = phi i64 [ %1, %start ], [ %state.sroa.11.1.lcssa.i, %_RNvMNtCsjMrxcFdYDNN_4core5sliceSINtNtB4_6result6ResultNtNtCsarYwbBXrH4d_7walkdir4dent8DirEntryNtNtBU_5error5ErrorE12split_at_mutBU_.exit ], [ %_63.i70, %bb28 ]
  %is_less.val23 = load ptr, ptr %is_less, align 8
  call void @llvm.experimental.noalias.scope.decl(metadata !437)
  call void @llvm.experimental.noalias.scope.decl(metadata !440)
  %_5.i = icmp samesign ult i64 %v.sroa.16.0.lcssa, 2
  br i1 %_5.i, label %bb22, label %bb2.i

bb2.i:                                            ; preds = %bb3
  %_8.i = add nuw nsw i64 %v.sroa.16.0.lcssa, 16
  %_6.i = icmp samesign ult i64 %scratch.1, %_8.i
  br i1 %_6.i, label %bb3.i, label %bb4.i

bb4.i:                                            ; preds = %bb2.i
  %len_div_29.i = lshr i64 %v.sroa.16.0.lcssa, 1
  %_22.i = icmp samesign ugt i64 %v.sroa.16.0.lcssa, 7
  br i1 %_22.i, label %bb10.i, label %bb33.i

bb3.i:                                            ; preds = %bb2.i
  call void @llvm.trap()
  unreachable

bb10.i:                                           ; preds = %bb4.i
  %6 = icmp ne ptr %is_less.val23, null
  call void @llvm.assume(i1 %6)
; call core::slice::sort::shared::smallsort::sort4_stable::<core::result::Result<walkdir::dent::DirEntry, walkdir::error::Error>, <[core::result::Result<walkdir::dent::DirEntry, walkdir::error::Error>]>::sort_by<<walkdir::IntoIter>::push::{closure#1}>::{closure#0}>
  call fastcc void @_RINvNtNtNtNtCsjMrxcFdYDNN_4core5slice4sort6shared9smallsort12sort4_stableINtNtBa_6result6ResultNtNtCsarYwbBXrH4d_7walkdir4dent8DirEntryNtNtB1z_5error5ErrorENCINvMNtCsdJPVW0sQgAG_5alloc5sliceSB19_7sort_byNCNvMs3_B1z_NtB1z_8IntoIter4pushs_0E0EB1z_(ptr noundef nonnull align 8 %v.sroa.0.0.ph.lcssa127, ptr noundef nonnull align 8 %scratch.0, ptr nonnull readonly %is_less.val23)
  %_27.i = getelementptr inbounds nuw %"core::result::Result<dent::DirEntry, error::Error>", ptr %v.sroa.0.0.ph.lcssa127, i64 %len_div_29.i
  %_28.i = getelementptr inbounds nuw %"core::result::Result<dent::DirEntry, error::Error>", ptr %scratch.0, i64 %len_div_29.i
; call core::slice::sort::shared::smallsort::sort4_stable::<core::result::Result<walkdir::dent::DirEntry, walkdir::error::Error>, <[core::result::Result<walkdir::dent::DirEntry, walkdir::error::Error>]>::sort_by<<walkdir::IntoIter>::push::{closure#1}>::{closure#0}>
  call fastcc void @_RINvNtNtNtNtCsjMrxcFdYDNN_4core5slice4sort6shared9smallsort12sort4_stableINtNtBa_6result6ResultNtNtCsarYwbBXrH4d_7walkdir4dent8DirEntryNtNtB1z_5error5ErrorENCINvMNtCsdJPVW0sQgAG_5alloc5sliceSB19_7sort_byNCNvMs3_B1z_NtB1z_8IntoIter4pushs_0E0EB1z_(ptr noundef %_27.i, ptr noundef %_28.i, ptr nonnull readonly %is_less.val23)
  br label %bb15.i

bb33.i:                                           ; preds = %bb4.i
  call void @llvm.memcpy.p0.p0.i64(ptr noundef nonnull align 8 dereferenceable(56) %scratch.0, ptr noundef nonnull align 8 dereferenceable(56) %v.sroa.0.0.ph.lcssa127, i64 56, i1 false), !alias.scope !442
  %_31.i = getelementptr inbounds nuw %"core::result::Result<dent::DirEntry, error::Error>", ptr %v.sroa.0.0.ph.lcssa127, i64 %len_div_29.i
  %dst.i = getelementptr inbounds nuw %"core::result::Result<dent::DirEntry, error::Error>", ptr %scratch.0, i64 %len_div_29.i
  call void @llvm.memcpy.p0.p0.i64(ptr noundef nonnull align 8 dereferenceable(56) %dst.i, ptr noundef nonnull align 8 dereferenceable(56) %_31.i, i64 56, i1 false), !alias.scope !442
  br label %bb15.i

bb15.i:                                           ; preds = %bb33.i, %bb10.i
  %presorted_len.sroa.0.0.i = phi i64 [ 4, %bb10.i ], [ 1, %bb33.i ]
  %7 = sub nsw i64 %v.sroa.16.0.lcssa, %len_div_29.i
  %8 = icmp ne ptr %is_less.val23, null
  %a1.i.i9.i.i = getelementptr inbounds nuw i8, ptr %tmp.i.i, i64 8
  %_746.i = icmp samesign ult i64 %presorted_len.sroa.0.0.i, %len_div_29.i
  br i1 %_746.i, label %bb38.lr.ph.i, label %bb16.loopexit.i

bb16.loopexit.i:                                  ; preds = %bb24.i, %bb15.i
  %src.1.i = getelementptr inbounds nuw %"core::result::Result<dent::DirEntry, error::Error>", ptr %v.sroa.0.0.ph.lcssa127, i64 %len_div_29.i
  %dst5.1.i = getelementptr %"core::result::Result<dent::DirEntry, error::Error>", ptr %scratch.0, i64 %len_div_29.i
  %_746.1.i = icmp ult i64 %presorted_len.sroa.0.0.i, %7
  br i1 %_746.1.i, label %bb38.lr.ph.1.i, label %bb16.loopexit.1.i

bb38.lr.ph.1.i:                                   ; preds = %bb16.loopexit.i
  call void @llvm.assume(i1 %8)
  br label %bb38.1.i

bb38.1.i:                                         ; preds = %bb24.1.i, %bb38.lr.ph.1.i
  %iter1.sroa.0.07.1.i = phi i64 [ %presorted_len.sroa.0.0.i, %bb38.lr.ph.1.i ], [ %_78.1.i, %bb24.1.i ]
  %_49.1.i = getelementptr inbounds nuw %"core::result::Result<dent::DirEntry, error::Error>", ptr %src.1.i, i64 %iter1.sroa.0.07.1.i
  %dst6.idx.1.i = mul nuw nsw i64 %iter1.sroa.0.07.1.i, 56
  %dst6.1.i = getelementptr inbounds nuw i8, ptr %dst5.1.i, i64 %dst6.idx.1.i
  call void @llvm.memcpy.p0.p0.i64(ptr noundef nonnull align 8 dereferenceable(56) %dst6.1.i, ptr noundef nonnull align 8 dereferenceable(56) %_49.1.i, i64 56, i1 false), !alias.scope !442
  %9 = getelementptr inbounds i8, ptr %dst6.1.i, i64 -56
  call void @llvm.experimental.noalias.scope.decl(metadata !443)
  call void @llvm.experimental.noalias.scope.decl(metadata !446)
  %_7.val.i.i17.1.i = load ptr, ptr %is_less.val23, align 8, !noalias !448
  call void @llvm.experimental.noalias.scope.decl(metadata !449)
  call void @llvm.experimental.noalias.scope.decl(metadata !452)
  %10 = load i64, ptr %dst6.1.i, align 8, !range !16, !alias.scope !454, !noalias !455, !noundef !12
  %.not.i.i.i18.1.i = icmp ne i64 %10, -9223372036854775807
  %11 = load i64, ptr %9, align 8, !range !16, !alias.scope !456, !noalias !457, !noundef !12
  %.not3.i.i.i19.1.i = icmp eq i64 %11, -9223372036854775807
  %.not3.i.not.i.i20.1.i = xor i1 %.not3.i.i.i19.1.i, true
  %brmerge.i.i21.1.i = or i1 %.not.i.i.i18.1.i, %.not3.i.not.i.i20.1.i
  br i1 %brmerge.i.i21.1.i, label %_RNCINvMNtCsdJPVW0sQgAG_5alloc5sliceSINtNtCsjMrxcFdYDNN_4core6result6ResultNtNtCsarYwbBXrH4d_7walkdir4dent8DirEntryNtNtB1e_5error5ErrorE7sort_byNCNvMs3_B1e_NtB1e_8IntoIter4pushs_0E0B1e_.exit.i28.1.i, label %bb7.i.i.i22.1.i

bb7.i.i.i22.1.i:                                  ; preds = %bb38.1.i
  %a1.i.i.i23.1.i = getelementptr inbounds nuw i8, ptr %dst6.1.i, i64 8
  %b2.i.i.i24.1.i = getelementptr inbounds i8, ptr %dst6.1.i, i64 -48
  %12 = icmp ne ptr %_7.val.i.i17.1.i, null
  call void @llvm.assume(i1 %12)
  %_11.i.i.i25.1.i = load ptr, ptr %_7.val.i.i17.1.i, align 8, !noalias !458, !nonnull !12, !align !132, !noundef !12
  %_14.0.i.i.i26.1.i = load ptr, ptr %_11.i.i.i25.1.i, align 8, !noalias !458, !nonnull !12, !noundef !12
  %13 = getelementptr inbounds nuw i8, ptr %_11.i.i.i25.1.i, i64 8
  %_14.1.i.i.i27.1.i = load ptr, ptr %13, align 8, !noalias !458, !nonnull !12, !align !132, !noundef !12
  %14 = getelementptr inbounds nuw i8, ptr %_14.1.i.i.i27.1.i, i64 32
  %15 = load ptr, ptr %14, align 8, !invariant.load !12, !noalias !458, !nonnull !12
  %16 = call noundef i8 %15(ptr noundef nonnull align 1 %_14.0.i.i.i26.1.i, ptr noalias noundef nonnull readonly align 8 captures(address, read_provenance) dereferenceable(48) %a1.i.i.i23.1.i, ptr noalias noundef nonnull readonly align 8 captures(address, read_provenance) dereferenceable(48) %b2.i.i.i24.1.i) #31
  %17 = icmp eq i8 %16, -1
  br i1 %17, label %bb2.i.1.i, label %bb24.1.i

_RNCINvMNtCsdJPVW0sQgAG_5alloc5sliceSINtNtCsjMrxcFdYDNN_4core6result6ResultNtNtCsarYwbBXrH4d_7walkdir4dent8DirEntryNtNtB1e_5error5ErrorE7sort_byNCNvMs3_B1e_NtB1e_8IntoIter4pushs_0E0B1e_.exit.i28.1.i: ; preds = %bb38.1.i
  %.not3.i.mux.i.i29.1.i = and i1 %.not.i.i.i18.1.i, %.not3.i.i.i19.1.i
  br i1 %.not3.i.mux.i.i29.1.i, label %bb2.i.1.i, label %bb24.1.i

bb2.i.1.i:                                        ; preds = %_RNCINvMNtCsdJPVW0sQgAG_5alloc5sliceSINtNtCsjMrxcFdYDNN_4core6result6ResultNtNtCsarYwbBXrH4d_7walkdir4dent8DirEntryNtNtB1e_5error5ErrorE7sort_byNCNvMs3_B1e_NtB1e_8IntoIter4pushs_0E0B1e_.exit.i28.1.i, %bb7.i.i.i22.1.i
  call void @llvm.lifetime.start.p0(i64 56, ptr nonnull %tmp.i.i), !noalias !442
  call void @llvm.memcpy.p0.p0.i64(ptr noundef nonnull align 8 dereferenceable(56) %tmp.i.i, ptr noundef nonnull align 8 dereferenceable(56) %dst6.1.i, i64 56, i1 false), !noalias !437
  call void @llvm.memcpy.p0.p0.i64(ptr noundef nonnull align 8 dereferenceable(56) %dst6.1.i, ptr noundef nonnull align 8 dereferenceable(56) %9, i64 56, i1 false), !alias.scope !440, !noalias !437
  %_183.i.1.i = icmp eq i64 %iter1.sroa.0.07.1.i, 1
  br i1 %_183.i.1.i, label %bb10.i.1.i, label %bb6.i.1.i

bb6.i.1.i:                                        ; preds = %bb2.i.1.i, %bb4.backedge.i.1.i
  %sift.sroa.0.04.i.1.i = phi ptr [ %18, %bb4.backedge.i.1.i ], [ %9, %bb2.i.1.i ]
  %18 = getelementptr inbounds i8, ptr %sift.sroa.0.04.i.1.i, i64 -56
  call void @llvm.experimental.noalias.scope.decl(metadata !459)
  call void @llvm.experimental.noalias.scope.decl(metadata !462)
  %_7.val.i2.i.1.i = load ptr, ptr %is_less.val23, align 8, !noalias !464
  call void @llvm.experimental.noalias.scope.decl(metadata !465)
  call void @llvm.experimental.noalias.scope.decl(metadata !468)
  %19 = load i64, ptr %tmp.i.i, align 8, !range !16, !alias.scope !470, !noalias !471, !noundef !12
  %.not.i.i3.i.1.i = icmp ne i64 %19, -9223372036854775807
  %20 = load i64, ptr %18, align 8, !range !16, !alias.scope !472, !noalias !473, !noundef !12
  %.not3.i.i4.i.1.i = icmp eq i64 %20, -9223372036854775807
  %.not3.i.not.i5.i.1.i = xor i1 %.not3.i.i4.i.1.i, true
  %brmerge.i6.i.1.i = or i1 %.not.i.i3.i.1.i, %.not3.i.not.i5.i.1.i
  br i1 %brmerge.i6.i.1.i, label %bb7.i.1.i, label %bb7.i.i8.i.1.i

bb7.i.i8.i.1.i:                                   ; preds = %bb6.i.1.i
  %b2.i.i10.i.1.i = getelementptr inbounds i8, ptr %sift.sroa.0.04.i.1.i, i64 -48
  %21 = icmp ne ptr %_7.val.i2.i.1.i, null
  call void @llvm.assume(i1 %21)
  %_11.i.i11.i.1.i = load ptr, ptr %_7.val.i2.i.1.i, align 8, !noalias !474, !nonnull !12, !align !132, !noundef !12
  %_14.0.i.i12.i.1.i = load ptr, ptr %_11.i.i11.i.1.i, align 8, !noalias !474, !nonnull !12, !noundef !12
  %22 = getelementptr inbounds nuw i8, ptr %_11.i.i11.i.1.i, i64 8
  %_14.1.i.i13.i.1.i = load ptr, ptr %22, align 8, !noalias !474, !nonnull !12, !align !132, !noundef !12
  %23 = getelementptr inbounds nuw i8, ptr %_14.1.i.i13.i.1.i, i64 32
  %24 = load ptr, ptr %23, align 8, !invariant.load !12, !noalias !474, !nonnull !12
  %25 = invoke noundef i8 %24(ptr noundef nonnull align 1 %_14.0.i.i12.i.1.i, ptr noalias noundef nonnull readonly align 8 captures(address, read_provenance) dereferenceable(48) %a1.i.i9.i.i, ptr noalias noundef nonnull readonly align 8 captures(address, read_provenance) dereferenceable(48) %b2.i.i10.i.1.i) #31
          to label %.noexc.i.1.i unwind label %bb14.i.loopexit.split-lp.i

.noexc.i.1.i:                                     ; preds = %bb7.i.i8.i.1.i
  %26 = icmp eq i8 %25, -1
  br i1 %26, label %bb4.backedge.i.1.i, label %bb10.i.1.i

bb7.i.1.i:                                        ; preds = %bb6.i.1.i
  %.not3.i.mux.i7.i.1.i = and i1 %.not.i.i3.i.1.i, %.not3.i.i4.i.1.i
  br i1 %.not3.i.mux.i7.i.1.i, label %bb4.backedge.i.1.i, label %bb10.i.1.i

bb4.backedge.i.1.i:                               ; preds = %bb7.i.1.i, %.noexc.i.1.i
  call void @llvm.memcpy.p0.p0.i64(ptr noundef nonnull align 8 dereferenceable(56) %sift.sroa.0.04.i.1.i, ptr noundef nonnull align 8 dereferenceable(56) %18, i64 56, i1 false), !alias.scope !440, !noalias !437
  %_18.i.1.i = icmp eq ptr %18, %dst5.1.i
  br i1 %_18.i.1.i, label %bb10.i.1.i, label %bb6.i.1.i

bb10.i.1.i:                                       ; preds = %bb4.backedge.i.1.i, %bb7.i.1.i, %.noexc.i.1.i, %bb2.i.1.i
  %sift.sroa.0.0.lcssa.i.1.i = phi ptr [ %9, %bb2.i.1.i ], [ %sift.sroa.0.04.i.1.i, %.noexc.i.1.i ], [ %sift.sroa.0.04.i.1.i, %bb7.i.1.i ], [ %dst5.1.i, %bb4.backedge.i.1.i ]
  call void @llvm.memcpy.p0.p0.i64(ptr noundef nonnull align 8 dereferenceable(56) %sift.sroa.0.0.lcssa.i.1.i, ptr noundef nonnull align 8 dereferenceable(56) %tmp.i.i, i64 56, i1 false), !noalias !475
  call void @llvm.lifetime.end.p0(i64 56, ptr nonnull %tmp.i.i), !noalias !442
  br label %bb24.1.i

bb24.1.i:                                         ; preds = %bb10.i.1.i, %_RNCINvMNtCsdJPVW0sQgAG_5alloc5sliceSINtNtCsjMrxcFdYDNN_4core6result6ResultNtNtCsarYwbBXrH4d_7walkdir4dent8DirEntryNtNtB1e_5error5ErrorE7sort_byNCNvMs3_B1e_NtB1e_8IntoIter4pushs_0E0B1e_.exit.i28.1.i, %bb7.i.i.i22.1.i
  %_78.1.i = add i64 %iter1.sroa.0.07.1.i, 1
  %exitcond.1.not.i = icmp eq i64 %_78.1.i, %7
  br i1 %exitcond.1.not.i, label %bb16.loopexit.1.i, label %bb38.1.i

bb16.loopexit.1.i:                                ; preds = %bb24.1.i, %bb16.loopexit.i
  call void @llvm.experimental.noalias.scope.decl(metadata !480)
  %27 = getelementptr i8, ptr %dst5.1.i, i64 -56
  %count1.i.i = add nsw i64 %v.sroa.16.0.lcssa, -1
  %28 = getelementptr inbounds nuw %"core::result::Result<dent::DirEntry, error::Error>", ptr %scratch.0, i64 %count1.i.i
  %29 = getelementptr inbounds nuw %"core::result::Result<dent::DirEntry, error::Error>", ptr %v.sroa.0.0.ph.lcssa127, i64 %count1.i.i
  call void @llvm.assume(i1 %8)
  br label %bb15.i.i

bb38.lr.ph.i:                                     ; preds = %bb15.i
  call void @llvm.assume(i1 %8)
  br label %bb38.i

bb16.i.i:                                         ; preds = %_RNCINvMNtCsdJPVW0sQgAG_5alloc5sliceSINtNtCsjMrxcFdYDNN_4core6result6ResultNtNtCsarYwbBXrH4d_7walkdir4dent8DirEntryNtNtB1e_5error5ErrorE7sort_byNCNvMs3_B1e_NtB1e_8IntoIter4pushs_0E0B1e_.exit33.i.i
  %30 = getelementptr i8, ptr %49, i64 56
  %31 = getelementptr i8, ptr %48, i64 56
  %_43.i.i = and i64 %v.sroa.16.0.lcssa, 1
  %_22.i.i = icmp eq i64 %_43.i.i, 0
  br i1 %_22.i.i, label %bb9.i.i, label %bb5.i.i

bb15.i.i:                                         ; preds = %_RNCINvMNtCsdJPVW0sQgAG_5alloc5sliceSINtNtCsjMrxcFdYDNN_4core6result6ResultNtNtCsarYwbBXrH4d_7walkdir4dent8DirEntryNtNtB1e_5error5ErrorE7sort_byNCNvMs3_B1e_NtB1e_8IntoIter4pushs_0E0B1e_.exit33.i.i, %bb16.loopexit.1.i
  %dst.sroa.0.08.i.i = phi ptr [ %v.sroa.0.0.ph.lcssa127, %bb16.loopexit.1.i ], [ %_16.i.i.i, %_RNCINvMNtCsdJPVW0sQgAG_5alloc5sliceSINtNtCsjMrxcFdYDNN_4core6result6ResultNtNtCsarYwbBXrH4d_7walkdir4dent8DirEntryNtNtB1e_5error5ErrorE7sort_byNCNvMs3_B1e_NtB1e_8IntoIter4pushs_0E0B1e_.exit33.i.i ]
  %iter.sroa.0.07.i.i = phi i64 [ 0, %bb16.loopexit.1.i ], [ %_39.i.i, %_RNCINvMNtCsdJPVW0sQgAG_5alloc5sliceSINtNtCsjMrxcFdYDNN_4core6result6ResultNtNtCsarYwbBXrH4d_7walkdir4dent8DirEntryNtNtB1e_5error5ErrorE7sort_byNCNvMs3_B1e_NtB1e_8IntoIter4pushs_0E0B1e_.exit33.i.i ]
  %left.sroa.0.06.i.i = phi ptr [ %scratch.0, %bb16.loopexit.1.i ], [ %_14.i.i.i, %_RNCINvMNtCsdJPVW0sQgAG_5alloc5sliceSINtNtCsjMrxcFdYDNN_4core6result6ResultNtNtCsarYwbBXrH4d_7walkdir4dent8DirEntryNtNtB1e_5error5ErrorE7sort_byNCNvMs3_B1e_NtB1e_8IntoIter4pushs_0E0B1e_.exit33.i.i ]
  %right.sroa.0.05.i.i = phi ptr [ %dst5.1.i, %bb16.loopexit.1.i ], [ %_12.i.i.i, %_RNCINvMNtCsdJPVW0sQgAG_5alloc5sliceSINtNtCsjMrxcFdYDNN_4core6result6ResultNtNtCsarYwbBXrH4d_7walkdir4dent8DirEntryNtNtB1e_5error5ErrorE7sort_byNCNvMs3_B1e_NtB1e_8IntoIter4pushs_0E0B1e_.exit33.i.i ]
  %left_rev.sroa.0.04.i.i = phi ptr [ %27, %bb16.loopexit.1.i ], [ %49, %_RNCINvMNtCsdJPVW0sQgAG_5alloc5sliceSINtNtCsjMrxcFdYDNN_4core6result6ResultNtNtCsarYwbBXrH4d_7walkdir4dent8DirEntryNtNtB1e_5error5ErrorE7sort_byNCNvMs3_B1e_NtB1e_8IntoIter4pushs_0E0B1e_.exit33.i.i ]
  %right_rev.sroa.0.03.i.i = phi ptr [ %28, %bb16.loopexit.1.i ], [ %48, %_RNCINvMNtCsdJPVW0sQgAG_5alloc5sliceSINtNtCsjMrxcFdYDNN_4core6result6ResultNtNtCsarYwbBXrH4d_7walkdir4dent8DirEntryNtNtB1e_5error5ErrorE7sort_byNCNvMs3_B1e_NtB1e_8IntoIter4pushs_0E0B1e_.exit33.i.i ]
  %dst_rev.sroa.0.02.i.i = phi ptr [ %29, %bb16.loopexit.1.i ], [ %50, %_RNCINvMNtCsdJPVW0sQgAG_5alloc5sliceSINtNtCsjMrxcFdYDNN_4core6result6ResultNtNtCsarYwbBXrH4d_7walkdir4dent8DirEntryNtNtB1e_5error5ErrorE7sort_byNCNvMs3_B1e_NtB1e_8IntoIter4pushs_0E0B1e_.exit33.i.i ]
  %_39.i.i = add nuw nsw i64 %iter.sroa.0.07.i.i, 1
  call void @llvm.experimental.noalias.scope.decl(metadata !483)
  call void @llvm.experimental.noalias.scope.decl(metadata !486)
  %_7.val.i.i.i = load ptr, ptr %is_less.val23, align 8, !noalias !488
  call void @llvm.experimental.noalias.scope.decl(metadata !489)
  call void @llvm.experimental.noalias.scope.decl(metadata !492)
  %32 = load i64, ptr %right.sroa.0.05.i.i, align 8, !range !16, !alias.scope !494, !noalias !495, !noundef !12
  %.not.i.i.i.i = icmp ne i64 %32, -9223372036854775807
  %33 = load i64, ptr %left.sroa.0.06.i.i, align 8, !range !16, !alias.scope !496, !noalias !497, !noundef !12
  %.not3.i.i.i.i = icmp eq i64 %33, -9223372036854775807
  %.not3.i.not.i.i.i = xor i1 %.not3.i.i.i.i, true
  %brmerge.i.i.i = or i1 %.not.i.i.i.i, %.not3.i.not.i.i.i
  %.not3.i.mux.i.i.i = and i1 %.not.i.i.i.i, %.not3.i.i.i.i
  br i1 %brmerge.i.i.i, label %_RNCINvMNtCsdJPVW0sQgAG_5alloc5sliceSINtNtCsjMrxcFdYDNN_4core6result6ResultNtNtCsarYwbBXrH4d_7walkdir4dent8DirEntryNtNtB1e_5error5ErrorE7sort_byNCNvMs3_B1e_NtB1e_8IntoIter4pushs_0E0B1e_.exit.i.i, label %bb7.i.i.i.i

bb7.i.i.i.i:                                      ; preds = %bb15.i.i
  %a1.i.i.i.i = getelementptr inbounds nuw i8, ptr %right.sroa.0.05.i.i, i64 8
  %b2.i.i.i.i = getelementptr inbounds nuw i8, ptr %left.sroa.0.06.i.i, i64 8
  %34 = icmp ne ptr %_7.val.i.i.i, null
  call void @llvm.assume(i1 %34)
  %_11.i.i.i.i = load ptr, ptr %_7.val.i.i.i, align 8, !noalias !498, !nonnull !12, !align !132, !noundef !12
  %_14.0.i.i.i.i = load ptr, ptr %_11.i.i.i.i, align 8, !noalias !498, !nonnull !12, !noundef !12
  %35 = getelementptr inbounds nuw i8, ptr %_11.i.i.i.i, i64 8
  %_14.1.i.i.i.i = load ptr, ptr %35, align 8, !noalias !498, !nonnull !12, !align !132, !noundef !12
  %36 = getelementptr inbounds nuw i8, ptr %_14.1.i.i.i.i, i64 32
  %37 = load ptr, ptr %36, align 8, !invariant.load !12, !noalias !498, !nonnull !12
  %38 = invoke noundef i8 %37(ptr noundef nonnull align 1 %_14.0.i.i.i.i, ptr noalias noundef nonnull readonly align 8 captures(address, read_provenance) dereferenceable(48) %a1.i.i.i.i, ptr noalias noundef nonnull readonly align 8 captures(address, read_provenance) dereferenceable(48) %b2.i.i.i.i) #31
          to label %.noexc.i unwind label %cleanup2.loopexit.i

.noexc.i:                                         ; preds = %bb7.i.i.i.i
  %39 = icmp eq i8 %38, -1
  %_7.val.i20.i.pre.i = load ptr, ptr %is_less.val23, align 8, !noalias !499
  br label %_RNCINvMNtCsdJPVW0sQgAG_5alloc5sliceSINtNtCsjMrxcFdYDNN_4core6result6ResultNtNtCsarYwbBXrH4d_7walkdir4dent8DirEntryNtNtB1e_5error5ErrorE7sort_byNCNvMs3_B1e_NtB1e_8IntoIter4pushs_0E0B1e_.exit.i.i

_RNCINvMNtCsdJPVW0sQgAG_5alloc5sliceSINtNtCsjMrxcFdYDNN_4core6result6ResultNtNtCsarYwbBXrH4d_7walkdir4dent8DirEntryNtNtB1e_5error5ErrorE7sort_byNCNvMs3_B1e_NtB1e_8IntoIter4pushs_0E0B1e_.exit.i.i: ; preds = %.noexc.i, %bb15.i.i
  %_7.val.i20.i.i = phi ptr [ %_7.val.i20.i.pre.i, %.noexc.i ], [ %_7.val.i.i.i, %bb15.i.i ]
  %_0.sroa.0.0.i.i.i.i = phi i1 [ %39, %.noexc.i ], [ %.not3.i.mux.i.i.i, %bb15.i.i ]
  %..i17.i.i = select i1 %_0.sroa.0.0.i.i.i.i, ptr %right.sroa.0.05.i.i, ptr %left.sroa.0.06.i.i
  %is_l.i18.i.i = xor i1 %_0.sroa.0.0.i.i.i.i, true
  call void @llvm.memcpy.p0.p0.i64(ptr noundef nonnull align 8 dereferenceable(56) %dst.sroa.0.08.i.i, ptr noundef nonnull align 8 dereferenceable(56) %..i17.i.i, i64 56, i1 false), !alias.scope !442, !noalias !503
  %count.i.i.i = zext i1 %_0.sroa.0.0.i.i.i.i to i64
  %_12.i.i.i = getelementptr inbounds nuw %"core::result::Result<dent::DirEntry, error::Error>", ptr %right.sroa.0.05.i.i, i64 %count.i.i.i
  %count2.i.i.i = zext i1 %is_l.i18.i.i to i64
  %_14.i.i.i = getelementptr inbounds nuw %"core::result::Result<dent::DirEntry, error::Error>", ptr %left.sroa.0.06.i.i, i64 %count2.i.i.i
  %_16.i.i.i = getelementptr inbounds nuw i8, ptr %dst.sroa.0.08.i.i, i64 56
  call void @llvm.experimental.noalias.scope.decl(metadata !507)
  call void @llvm.experimental.noalias.scope.decl(metadata !508)
  call void @llvm.experimental.noalias.scope.decl(metadata !509)
  call void @llvm.experimental.noalias.scope.decl(metadata !512)
  %40 = load i64, ptr %right_rev.sroa.0.03.i.i, align 8, !range !16, !alias.scope !514, !noalias !515, !noundef !12
  %.not.i.i21.i.i = icmp ne i64 %40, -9223372036854775807
  %41 = load i64, ptr %left_rev.sroa.0.04.i.i, align 8, !range !16, !alias.scope !516, !noalias !517, !noundef !12
  %.not3.i.i22.i.i = icmp eq i64 %41, -9223372036854775807
  %.not3.i.not.i23.i.i = xor i1 %.not3.i.i22.i.i, true
  %brmerge.i24.i.i = or i1 %.not.i.i21.i.i, %.not3.i.not.i23.i.i
  %.not3.i.mux.i25.i.i = and i1 %.not.i.i21.i.i, %.not3.i.i22.i.i
  br i1 %brmerge.i24.i.i, label %_RNCINvMNtCsdJPVW0sQgAG_5alloc5sliceSINtNtCsjMrxcFdYDNN_4core6result6ResultNtNtCsarYwbBXrH4d_7walkdir4dent8DirEntryNtNtB1e_5error5ErrorE7sort_byNCNvMs3_B1e_NtB1e_8IntoIter4pushs_0E0B1e_.exit33.i.i, label %bb7.i.i26.i.i

bb7.i.i26.i.i:                                    ; preds = %_RNCINvMNtCsdJPVW0sQgAG_5alloc5sliceSINtNtCsjMrxcFdYDNN_4core6result6ResultNtNtCsarYwbBXrH4d_7walkdir4dent8DirEntryNtNtB1e_5error5ErrorE7sort_byNCNvMs3_B1e_NtB1e_8IntoIter4pushs_0E0B1e_.exit.i.i
  %a1.i.i27.i.i = getelementptr inbounds nuw i8, ptr %right_rev.sroa.0.03.i.i, i64 8
  %b2.i.i28.i.i = getelementptr inbounds nuw i8, ptr %left_rev.sroa.0.04.i.i, i64 8
  %42 = icmp ne ptr %_7.val.i20.i.i, null
  call void @llvm.assume(i1 %42)
  %_11.i.i29.i.i = load ptr, ptr %_7.val.i20.i.i, align 8, !noalias !518, !nonnull !12, !align !132, !noundef !12
  %_14.0.i.i30.i.i = load ptr, ptr %_11.i.i29.i.i, align 8, !noalias !518, !nonnull !12, !noundef !12
  %43 = getelementptr inbounds nuw i8, ptr %_11.i.i29.i.i, i64 8
  %_14.1.i.i31.i.i = load ptr, ptr %43, align 8, !noalias !518, !nonnull !12, !align !132, !noundef !12
  %44 = getelementptr inbounds nuw i8, ptr %_14.1.i.i31.i.i, i64 32
  %45 = load ptr, ptr %44, align 8, !invariant.load !12, !noalias !518, !nonnull !12
  %46 = invoke noundef i8 %45(ptr noundef nonnull align 1 %_14.0.i.i30.i.i, ptr noalias noundef nonnull readonly align 8 captures(address, read_provenance) dereferenceable(48) %a1.i.i27.i.i, ptr noalias noundef nonnull readonly align 8 captures(address, read_provenance) dereferenceable(48) %b2.i.i28.i.i) #31
          to label %.noexc14.i unwind label %cleanup2.loopexit.i

.noexc14.i:                                       ; preds = %bb7.i.i26.i.i
  %47 = icmp eq i8 %46, -1
  br label %_RNCINvMNtCsdJPVW0sQgAG_5alloc5sliceSINtNtCsjMrxcFdYDNN_4core6result6ResultNtNtCsarYwbBXrH4d_7walkdir4dent8DirEntryNtNtB1e_5error5ErrorE7sort_byNCNvMs3_B1e_NtB1e_8IntoIter4pushs_0E0B1e_.exit33.i.i

_RNCINvMNtCsdJPVW0sQgAG_5alloc5sliceSINtNtCsjMrxcFdYDNN_4core6result6ResultNtNtCsarYwbBXrH4d_7walkdir4dent8DirEntryNtNtB1e_5error5ErrorE7sort_byNCNvMs3_B1e_NtB1e_8IntoIter4pushs_0E0B1e_.exit33.i.i: ; preds = %.noexc14.i, %_RNCINvMNtCsdJPVW0sQgAG_5alloc5sliceSINtNtCsjMrxcFdYDNN_4core6result6ResultNtNtCsarYwbBXrH4d_7walkdir4dent8DirEntryNtNtB1e_5error5ErrorE7sort_byNCNvMs3_B1e_NtB1e_8IntoIter4pushs_0E0B1e_.exit.i.i
  %_0.sroa.0.0.i.i32.i.i = phi i1 [ %47, %.noexc14.i ], [ %.not3.i.mux.i25.i.i, %_RNCINvMNtCsdJPVW0sQgAG_5alloc5sliceSINtNtCsjMrxcFdYDNN_4core6result6ResultNtNtCsarYwbBXrH4d_7walkdir4dent8DirEntryNtNtB1e_5error5ErrorE7sort_byNCNvMs3_B1e_NtB1e_8IntoIter4pushs_0E0B1e_.exit.i.i ]
  %..i.i.i = select i1 %_0.sroa.0.0.i.i32.i.i, ptr %left_rev.sroa.0.04.i.i, ptr %right_rev.sroa.0.03.i.i
  %is_l.i.i.i = xor i1 %_0.sroa.0.0.i.i32.i.i, true
  call void @llvm.memcpy.p0.p0.i64(ptr noundef nonnull align 8 dereferenceable(56) %dst_rev.sroa.0.02.i.i, ptr noundef nonnull align 8 dereferenceable(56) %..i.i.i, i64 56, i1 false), !alias.scope !442, !noalias !519
  %count.neg.i.i.i = sext i1 %is_l.i.i.i to i64
  %48 = getelementptr %"core::result::Result<dent::DirEntry, error::Error>", ptr %right_rev.sroa.0.03.i.i, i64 %count.neg.i.i.i
  %count3.neg.i.i.i = sext i1 %_0.sroa.0.0.i.i32.i.i to i64
  %49 = getelementptr %"core::result::Result<dent::DirEntry, error::Error>", ptr %left_rev.sroa.0.04.i.i, i64 %count3.neg.i.i.i
  %50 = getelementptr inbounds i8, ptr %dst_rev.sroa.0.02.i.i, i64 -56
  %exitcond.not.i.i = icmp eq i64 %_39.i.i, %len_div_29.i
  br i1 %exitcond.not.i.i, label %bb16.i.i, label %bb15.i.i

bb5.i.i:                                          ; preds = %bb16.i.i
  %left_nonempty.i.i = icmp ult ptr %_14.i.i.i, %30
  %left.sroa.0.0.right.sroa.0.0.i.i = select i1 %left_nonempty.i.i, ptr %_14.i.i.i, ptr %_12.i.i.i
  call void @llvm.memcpy.p0.p0.i64(ptr noundef nonnull align 8 dereferenceable(56) %_16.i.i.i, ptr noundef nonnull align 8 dereferenceable(56) %left.sroa.0.0.right.sroa.0.0.i.i, i64 56, i1 false), !alias.scope !442
  %count2.i.i = zext i1 %left_nonempty.i.i to i64
  %_26.i.i = getelementptr inbounds nuw %"core::result::Result<dent::DirEntry, error::Error>", ptr %_14.i.i.i, i64 %count2.i.i
  %_30.i.i = xor i1 %left_nonempty.i.i, true
  %count3.i.i = zext i1 %_30.i.i to i64
  %_28.i.i = getelementptr inbounds nuw %"core::result::Result<dent::DirEntry, error::Error>", ptr %_12.i.i.i, i64 %count3.i.i
  br label %bb9.i.i

bb9.i.i:                                          ; preds = %bb5.i.i, %bb16.i.i
  %right.sroa.0.1.i.i = phi ptr [ %_12.i.i.i, %bb16.i.i ], [ %_28.i.i, %bb5.i.i ]
  %left.sroa.0.1.i.i = phi ptr [ %_14.i.i.i, %bb16.i.i ], [ %_26.i.i, %bb5.i.i ]
  %_31.i.i = icmp ne ptr %left.sroa.0.1.i.i, %30
  %_32.i.i = icmp ne ptr %right.sroa.0.1.i.i, %31
  %or.cond.i.i = select i1 %_31.i.i, i1 true, i1 %_32.i.i
  br i1 %or.cond.i.i, label %bb13.i.i, label %bb22, !prof !523

bb13.i.i:                                         ; preds = %bb9.i.i
; invoke core::slice::sort::shared::smallsort::panic_on_ord_violation
  invoke void @_RNvNtNtNtNtCsjMrxcFdYDNN_4core5slice4sort6shared9smallsort22panic_on_ord_violation() #32
          to label %.noexc15.i unwind label %cleanup2.loopexit.split-lp.i

.noexc15.i:                                       ; preds = %bb13.i.i
  unreachable

cleanup2.loopexit.i:                              ; preds = %bb7.i.i26.i.i, %bb7.i.i.i.i
  %lpad.loopexit.i = landingpad { ptr, i32 }
          cleanup
  br label %cleanup2.i

cleanup2.loopexit.split-lp.i:                     ; preds = %bb13.i.i
  %lpad.loopexit.split-lp.i = landingpad { ptr, i32 }
          cleanup
  br label %cleanup2.i

cleanup2.i:                                       ; preds = %cleanup2.loopexit.split-lp.i, %cleanup2.loopexit.i
  %lpad.phi.i = phi { ptr, i32 } [ %lpad.loopexit.i, %cleanup2.loopexit.i ], [ %lpad.loopexit.split-lp.i, %cleanup2.loopexit.split-lp.i ]
  %51 = mul nuw nsw i64 %v.sroa.16.0.lcssa, 56
  call void @llvm.memcpy.p0.p0.i64(ptr nonnull align 8 %v.sroa.0.0.ph.lcssa127, ptr nonnull align 8 %scratch.0, i64 %51, i1 false), !alias.scope !442, !noalias !524
  br label %bb29.i

bb29.i:                                           ; preds = %bb14.i.i, %cleanup2.i
  %.pn.i = phi { ptr, i32 } [ %lpad.phi.i, %cleanup2.i ], [ %lpad.phi13.i, %bb14.i.i ]
  resume { ptr, i32 } %.pn.i

bb38.i:                                           ; preds = %bb24.i, %bb38.lr.ph.i
  %iter1.sroa.0.07.i = phi i64 [ %presorted_len.sroa.0.0.i, %bb38.lr.ph.i ], [ %_78.i, %bb24.i ]
  %_49.i = getelementptr inbounds nuw %"core::result::Result<dent::DirEntry, error::Error>", ptr %v.sroa.0.0.ph.lcssa127, i64 %iter1.sroa.0.07.i
  %dst6.idx.i = mul nuw nsw i64 %iter1.sroa.0.07.i, 56
  %dst6.i = getelementptr inbounds nuw i8, ptr %scratch.0, i64 %dst6.idx.i
  call void @llvm.memcpy.p0.p0.i64(ptr noundef nonnull align 8 dereferenceable(56) %dst6.i, ptr noundef nonnull align 8 dereferenceable(56) %_49.i, i64 56, i1 false), !alias.scope !442
  %52 = getelementptr inbounds i8, ptr %dst6.i, i64 -56
  call void @llvm.experimental.noalias.scope.decl(metadata !529)
  call void @llvm.experimental.noalias.scope.decl(metadata !531)
  %_7.val.i.i17.i = load ptr, ptr %is_less.val23, align 8, !noalias !533
  call void @llvm.experimental.noalias.scope.decl(metadata !534)
  call void @llvm.experimental.noalias.scope.decl(metadata !536)
  %53 = load i64, ptr %dst6.i, align 8, !range !16, !alias.scope !538, !noalias !539, !noundef !12
  %.not.i.i.i18.i = icmp ne i64 %53, -9223372036854775807
  %54 = load i64, ptr %52, align 8, !range !16, !alias.scope !540, !noalias !541, !noundef !12
  %.not3.i.i.i19.i = icmp eq i64 %54, -9223372036854775807
  %.not3.i.not.i.i20.i = xor i1 %.not3.i.i.i19.i, true
  %brmerge.i.i21.i = or i1 %.not.i.i.i18.i, %.not3.i.not.i.i20.i
  br i1 %brmerge.i.i21.i, label %_RNCINvMNtCsdJPVW0sQgAG_5alloc5sliceSINtNtCsjMrxcFdYDNN_4core6result6ResultNtNtCsarYwbBXrH4d_7walkdir4dent8DirEntryNtNtB1e_5error5ErrorE7sort_byNCNvMs3_B1e_NtB1e_8IntoIter4pushs_0E0B1e_.exit.i28.i, label %bb7.i.i.i22.i

bb7.i.i.i22.i:                                    ; preds = %bb38.i
  %a1.i.i.i23.i = getelementptr inbounds nuw i8, ptr %dst6.i, i64 8
  %b2.i.i.i24.i = getelementptr inbounds i8, ptr %dst6.i, i64 -48
  %55 = icmp ne ptr %_7.val.i.i17.i, null
  call void @llvm.assume(i1 %55)
  %_11.i.i.i25.i = load ptr, ptr %_7.val.i.i17.i, align 8, !noalias !542, !nonnull !12, !align !132, !noundef !12
  %_14.0.i.i.i26.i = load ptr, ptr %_11.i.i.i25.i, align 8, !noalias !542, !nonnull !12, !noundef !12
  %56 = getelementptr inbounds nuw i8, ptr %_11.i.i.i25.i, i64 8
  %_14.1.i.i.i27.i = load ptr, ptr %56, align 8, !noalias !542, !nonnull !12, !align !132, !noundef !12
  %57 = getelementptr inbounds nuw i8, ptr %_14.1.i.i.i27.i, i64 32
  %58 = load ptr, ptr %57, align 8, !invariant.load !12, !noalias !542, !nonnull !12
  %59 = call noundef i8 %58(ptr noundef nonnull align 1 %_14.0.i.i.i26.i, ptr noalias noundef nonnull readonly align 8 captures(address, read_provenance) dereferenceable(48) %a1.i.i.i23.i, ptr noalias noundef nonnull readonly align 8 captures(address, read_provenance) dereferenceable(48) %b2.i.i.i24.i) #31
  %60 = icmp eq i8 %59, -1
  br i1 %60, label %bb2.i.i, label %bb24.i

_RNCINvMNtCsdJPVW0sQgAG_5alloc5sliceSINtNtCsjMrxcFdYDNN_4core6result6ResultNtNtCsarYwbBXrH4d_7walkdir4dent8DirEntryNtNtB1e_5error5ErrorE7sort_byNCNvMs3_B1e_NtB1e_8IntoIter4pushs_0E0B1e_.exit.i28.i: ; preds = %bb38.i
  %.not3.i.mux.i.i29.i = and i1 %.not.i.i.i18.i, %.not3.i.i.i19.i
  br i1 %.not3.i.mux.i.i29.i, label %bb2.i.i, label %bb24.i

bb2.i.i:                                          ; preds = %_RNCINvMNtCsdJPVW0sQgAG_5alloc5sliceSINtNtCsjMrxcFdYDNN_4core6result6ResultNtNtCsarYwbBXrH4d_7walkdir4dent8DirEntryNtNtB1e_5error5ErrorE7sort_byNCNvMs3_B1e_NtB1e_8IntoIter4pushs_0E0B1e_.exit.i28.i, %bb7.i.i.i22.i
  call void @llvm.lifetime.start.p0(i64 56, ptr nonnull %tmp.i.i), !noalias !442
  call void @llvm.memcpy.p0.p0.i64(ptr noundef nonnull align 8 dereferenceable(56) %tmp.i.i, ptr noundef nonnull align 8 dereferenceable(56) %dst6.i, i64 56, i1 false), !noalias !437
  call void @llvm.memcpy.p0.p0.i64(ptr noundef nonnull align 8 dereferenceable(56) %dst6.i, ptr noundef nonnull align 8 dereferenceable(56) %52, i64 56, i1 false), !alias.scope !440, !noalias !437
  %_183.i.i = icmp eq i64 %iter1.sroa.0.07.i, 1
  br i1 %_183.i.i, label %bb10.i.i, label %bb6.i.i

bb6.i.i:                                          ; preds = %bb2.i.i, %bb4.backedge.i.i
  %sift.sroa.0.04.i.i = phi ptr [ %61, %bb4.backedge.i.i ], [ %52, %bb2.i.i ]
  %61 = getelementptr inbounds i8, ptr %sift.sroa.0.04.i.i, i64 -56
  call void @llvm.experimental.noalias.scope.decl(metadata !543)
  call void @llvm.experimental.noalias.scope.decl(metadata !545)
  %_7.val.i2.i.i = load ptr, ptr %is_less.val23, align 8, !noalias !547
  call void @llvm.experimental.noalias.scope.decl(metadata !548)
  call void @llvm.experimental.noalias.scope.decl(metadata !550)
  %62 = load i64, ptr %tmp.i.i, align 8, !range !16, !alias.scope !552, !noalias !553, !noundef !12
  %.not.i.i3.i.i = icmp ne i64 %62, -9223372036854775807
  %63 = load i64, ptr %61, align 8, !range !16, !alias.scope !554, !noalias !555, !noundef !12
  %.not3.i.i4.i.i = icmp eq i64 %63, -9223372036854775807
  %.not3.i.not.i5.i.i = xor i1 %.not3.i.i4.i.i, true
  %brmerge.i6.i.i = or i1 %.not.i.i3.i.i, %.not3.i.not.i5.i.i
  br i1 %brmerge.i6.i.i, label %bb7.i.i, label %bb7.i.i8.i.i

bb7.i.i8.i.i:                                     ; preds = %bb6.i.i
  %b2.i.i10.i.i = getelementptr inbounds i8, ptr %sift.sroa.0.04.i.i, i64 -48
  %64 = icmp ne ptr %_7.val.i2.i.i, null
  call void @llvm.assume(i1 %64)
  %_11.i.i11.i.i = load ptr, ptr %_7.val.i2.i.i, align 8, !noalias !556, !nonnull !12, !align !132, !noundef !12
  %_14.0.i.i12.i.i = load ptr, ptr %_11.i.i11.i.i, align 8, !noalias !556, !nonnull !12, !noundef !12
  %65 = getelementptr inbounds nuw i8, ptr %_11.i.i11.i.i, i64 8
  %_14.1.i.i13.i.i = load ptr, ptr %65, align 8, !noalias !556, !nonnull !12, !align !132, !noundef !12
  %66 = getelementptr inbounds nuw i8, ptr %_14.1.i.i13.i.i, i64 32
  %67 = load ptr, ptr %66, align 8, !invariant.load !12, !noalias !556, !nonnull !12
  %68 = invoke noundef i8 %67(ptr noundef nonnull align 1 %_14.0.i.i12.i.i, ptr noalias noundef nonnull readonly align 8 captures(address, read_provenance) dereferenceable(48) %a1.i.i9.i.i, ptr noalias noundef nonnull readonly align 8 captures(address, read_provenance) dereferenceable(48) %b2.i.i10.i.i) #31
          to label %.noexc.i.i unwind label %bb14.i.loopexit.i

.noexc.i.i:                                       ; preds = %bb7.i.i8.i.i
  %69 = icmp eq i8 %68, -1
  br i1 %69, label %bb4.backedge.i.i, label %bb10.i.i

bb7.i.i:                                          ; preds = %bb6.i.i
  %.not3.i.mux.i7.i.i = and i1 %.not.i.i3.i.i, %.not3.i.i4.i.i
  br i1 %.not3.i.mux.i7.i.i, label %bb4.backedge.i.i, label %bb10.i.i

bb4.backedge.i.i:                                 ; preds = %bb7.i.i, %.noexc.i.i
  call void @llvm.memcpy.p0.p0.i64(ptr noundef nonnull align 8 dereferenceable(56) %sift.sroa.0.04.i.i, ptr noundef nonnull align 8 dereferenceable(56) %61, i64 56, i1 false), !alias.scope !440, !noalias !437
  %_18.i.i = icmp eq ptr %61, %scratch.0
  br i1 %_18.i.i, label %bb10.i.i, label %bb6.i.i

bb10.i.i:                                         ; preds = %bb4.backedge.i.i, %bb7.i.i, %.noexc.i.i, %bb2.i.i
  %sift.sroa.0.0.lcssa.i.i = phi ptr [ %52, %bb2.i.i ], [ %sift.sroa.0.04.i.i, %.noexc.i.i ], [ %sift.sroa.0.04.i.i, %bb7.i.i ], [ %scratch.0, %bb4.backedge.i.i ]
  call void @llvm.memcpy.p0.p0.i64(ptr noundef nonnull align 8 dereferenceable(56) %sift.sroa.0.0.lcssa.i.i, ptr noundef nonnull align 8 dereferenceable(56) %tmp.i.i, i64 56, i1 false), !noalias !475
  call void @llvm.lifetime.end.p0(i64 56, ptr nonnull %tmp.i.i), !noalias !442
  br label %bb24.i

bb14.i.loopexit.i:                                ; preds = %bb7.i.i8.i.i
  %lpad.loopexit11.i = landingpad { ptr, i32 }
          cleanup
  br label %bb14.i.i

bb14.i.loopexit.split-lp.i:                       ; preds = %bb7.i.i8.i.1.i
  %lpad.loopexit.split-lp12.i = landingpad { ptr, i32 }
          cleanup
  br label %bb14.i.i

bb14.i.i:                                         ; preds = %bb14.i.loopexit.split-lp.i, %bb14.i.loopexit.i
  %sift.sroa.0.04.i.lcssa.i = phi ptr [ %sift.sroa.0.04.i.i, %bb14.i.loopexit.i ], [ %sift.sroa.0.04.i.1.i, %bb14.i.loopexit.split-lp.i ]
  %lpad.phi13.i = phi { ptr, i32 } [ %lpad.loopexit11.i, %bb14.i.loopexit.i ], [ %lpad.loopexit.split-lp12.i, %bb14.i.loopexit.split-lp.i ]
  call void @llvm.memcpy.p0.p0.i64(ptr noundef nonnull align 8 dereferenceable(56) %sift.sroa.0.04.i.lcssa.i, ptr noundef nonnull align 8 dereferenceable(56) %tmp.i.i, i64 56, i1 false), !noalias !557
  br label %bb29.i

bb24.i:                                           ; preds = %bb10.i.i, %_RNCINvMNtCsdJPVW0sQgAG_5alloc5sliceSINtNtCsjMrxcFdYDNN_4core6result6ResultNtNtCsarYwbBXrH4d_7walkdir4dent8DirEntryNtNtB1e_5error5ErrorE7sort_byNCNvMs3_B1e_NtB1e_8IntoIter4pushs_0E0B1e_.exit.i28.i, %bb7.i.i.i22.i
  %_78.i = add i64 %iter1.sroa.0.07.i, 1
  %exitcond.not.i = icmp eq i64 %_78.i, %len_div_29.i
  br i1 %exitcond.not.i, label %bb16.loopexit.i, label %bb38.i

bb6:                                              ; preds = %bb5
; call core::slice::sort::stable::drift::sort::<core::result::Result<walkdir::dent::DirEntry, walkdir::error::Error>, <[core::result::Result<walkdir::dent::DirEntry, walkdir::error::Error>]>::sort_by<<walkdir::IntoIter>::push::{closure#1}>::{closure#0}>
  call fastcc void @_RINvNtNtNtNtCsjMrxcFdYDNN_4core5slice4sort6stable5drift4sortINtNtBa_6result6ResultNtNtCsarYwbBXrH4d_7walkdir4dent8DirEntryNtNtB1m_5error5ErrorENCINvMNtCsdJPVW0sQgAG_5alloc5sliceSBW_7sort_byNCNvMs3_B1m_NtB1m_8IntoIter4pushs_0E0EB1m_(ptr noalias noundef nonnull align 8 %v.sroa.0.0.ph138, i64 noundef %v.sroa.16.0130, ptr noalias noundef nonnull align 8 %scratch.0, i64 noundef %scratch.1, i1 noundef zeroext true, ptr noalias noundef align 8 dereferenceable(8) %is_less)
  br label %bb22

bb7:                                              ; preds = %bb5
  %70 = add i32 %limit.sroa.0.0129, -1
  call void @llvm.experimental.noalias.scope.decl(metadata !562)
  call void @llvm.experimental.noalias.scope.decl(metadata !565)
  %len_div_84.i = lshr i64 %v.sroa.16.0130, 3
  %b.idx.i = mul nuw nsw i64 %len_div_84.i, 224
  %b.i = getelementptr inbounds nuw i8, ptr %v.sroa.0.0.ph138, i64 %b.idx.i
  %c.idx.i = mul nuw nsw i64 %len_div_84.i, 392
  %c.i = getelementptr inbounds nuw i8, ptr %v.sroa.0.0.ph138, i64 %c.idx.i
  %_12.i = icmp samesign ult i64 %v.sroa.16.0130, 64
  br i1 %_12.i, label %bb3.i25, label %bb5.i

bb5.i:                                            ; preds = %bb7
; call core::slice::sort::shared::pivot::median3_rec::<core::result::Result<walkdir::dent::DirEntry, walkdir::error::Error>, <[core::result::Result<walkdir::dent::DirEntry, walkdir::error::Error>]>::sort_by<<walkdir::IntoIter>::push::{closure#1}>::{closure#0}>
  %self.i = call fastcc noundef ptr @_RINvNtNtNtNtCsjMrxcFdYDNN_4core5slice4sort6shared5pivot11median3_recINtNtBa_6result6ResultNtNtCsarYwbBXrH4d_7walkdir4dent8DirEntryNtNtB1u_5error5ErrorENCINvMNtCsdJPVW0sQgAG_5alloc5sliceSB14_7sort_byNCNvMs3_B1u_NtB1u_8IntoIter4pushs_0E0EB1u_(ptr noundef nonnull readonly align 8 %v.sroa.0.0.ph138, ptr noundef readonly %b.i, ptr noundef readonly %c.i, i64 noundef %len_div_84.i, ptr noalias noundef nonnull align 8 dereferenceable(8) %is_less)
  br label %bb10

bb3.i25:                                          ; preds = %bb7
  %is_less.val6.i = load ptr, ptr %is_less, align 8, !alias.scope !565, !noalias !562, !nonnull !12, !align !132, !noundef !12
  call void @llvm.experimental.noalias.scope.decl(metadata !567)
  call void @llvm.experimental.noalias.scope.decl(metadata !570)
  %_7.val.i.i = load ptr, ptr %is_less.val6.i, align 8, !noalias !572
  call void @llvm.experimental.noalias.scope.decl(metadata !573)
  call void @llvm.experimental.noalias.scope.decl(metadata !576)
  %71 = load i64, ptr %v.sroa.0.0.ph138, align 8, !range !16, !alias.scope !578, !noalias !579, !noundef !12
  %.not.i.i.i = icmp ne i64 %71, -9223372036854775807
  %72 = load i64, ptr %b.i, align 8, !range !16, !alias.scope !580, !noalias !581, !noundef !12
  %.not3.i.i.i = icmp eq i64 %72, -9223372036854775807
  %.not3.i.not.i.i = xor i1 %.not3.i.i.i, true
  %brmerge.i.i = or i1 %.not.i.i.i, %.not3.i.not.i.i
  %.not3.i.mux.i.i = and i1 %.not.i.i.i, %.not3.i.i.i
  br i1 %brmerge.i.i, label %_RNCINvMNtCsdJPVW0sQgAG_5alloc5sliceSINtNtCsjMrxcFdYDNN_4core6result6ResultNtNtCsarYwbBXrH4d_7walkdir4dent8DirEntryNtNtB1e_5error5ErrorE7sort_byNCNvMs3_B1e_NtB1e_8IntoIter4pushs_0E0B1e_.exit.i, label %bb7.i.i.i

bb7.i.i.i:                                        ; preds = %bb3.i25
  %b2.i.i.i = getelementptr inbounds nuw i8, ptr %b.i, i64 8
  %73 = icmp ne ptr %_7.val.i.i, null
  call void @llvm.assume(i1 %73)
  %_11.i.i.i = load ptr, ptr %_7.val.i.i, align 8, !noalias !582, !nonnull !12, !align !132, !noundef !12
  %_14.0.i.i.i = load ptr, ptr %_11.i.i.i, align 8, !noalias !582, !nonnull !12, !noundef !12
  %74 = getelementptr inbounds nuw i8, ptr %_11.i.i.i, i64 8
  %_14.1.i.i.i = load ptr, ptr %74, align 8, !noalias !582, !nonnull !12, !align !132, !noundef !12
  %75 = getelementptr inbounds nuw i8, ptr %_14.1.i.i.i, i64 32
  %76 = load ptr, ptr %75, align 8, !invariant.load !12, !noalias !582, !nonnull !12
  %77 = call noundef i8 %76(ptr noundef nonnull align 1 %_14.0.i.i.i, ptr noalias noundef nonnull readonly align 8 captures(address, read_provenance) dereferenceable(48) %a1.i.i.i, ptr noalias noundef nonnull readonly align 8 captures(address, read_provenance) dereferenceable(48) %b2.i.i.i) #31, !noalias !565
  %78 = icmp eq i8 %77, -1
  %_7.val.i7.pre.i = load ptr, ptr %is_less.val6.i, align 8, !noalias !583
  br label %_RNCINvMNtCsdJPVW0sQgAG_5alloc5sliceSINtNtCsjMrxcFdYDNN_4core6result6ResultNtNtCsarYwbBXrH4d_7walkdir4dent8DirEntryNtNtB1e_5error5ErrorE7sort_byNCNvMs3_B1e_NtB1e_8IntoIter4pushs_0E0B1e_.exit.i

_RNCINvMNtCsdJPVW0sQgAG_5alloc5sliceSINtNtCsjMrxcFdYDNN_4core6result6ResultNtNtCsarYwbBXrH4d_7walkdir4dent8DirEntryNtNtB1e_5error5ErrorE7sort_byNCNvMs3_B1e_NtB1e_8IntoIter4pushs_0E0B1e_.exit.i: ; preds = %bb7.i.i.i, %bb3.i25
  %_7.val.i7.i = phi ptr [ %_7.val.i7.pre.i, %bb7.i.i.i ], [ %_7.val.i.i, %bb3.i25 ]
  %_0.sroa.0.0.i.i.i = phi i1 [ %78, %bb7.i.i.i ], [ %.not3.i.mux.i.i, %bb3.i25 ]
  call void @llvm.experimental.noalias.scope.decl(metadata !587)
  call void @llvm.experimental.noalias.scope.decl(metadata !588)
  %79 = load i64, ptr %c.i, align 8, !range !16, !alias.scope !591, !noalias !592, !noundef !12
  %.not3.i.i9.i = icmp eq i64 %79, -9223372036854775807
  %.not3.i.not.i10.i = xor i1 %.not3.i.i9.i, true
  %brmerge.i11.i = or i1 %.not.i.i.i, %.not3.i.not.i10.i
  %.not3.i.mux.i12.i = and i1 %.not.i.i.i, %.not3.i.i9.i
  br i1 %brmerge.i11.i, label %_RNCINvMNtCsdJPVW0sQgAG_5alloc5sliceSINtNtCsjMrxcFdYDNN_4core6result6ResultNtNtCsarYwbBXrH4d_7walkdir4dent8DirEntryNtNtB1e_5error5ErrorE7sort_byNCNvMs3_B1e_NtB1e_8IntoIter4pushs_0E0B1e_.exit20.i, label %bb7.i.i13.i

bb7.i.i13.i:                                      ; preds = %_RNCINvMNtCsdJPVW0sQgAG_5alloc5sliceSINtNtCsjMrxcFdYDNN_4core6result6ResultNtNtCsarYwbBXrH4d_7walkdir4dent8DirEntryNtNtB1e_5error5ErrorE7sort_byNCNvMs3_B1e_NtB1e_8IntoIter4pushs_0E0B1e_.exit.i
  %b2.i.i15.i = getelementptr inbounds nuw i8, ptr %c.i, i64 8
  %80 = icmp ne ptr %_7.val.i7.i, null
  call void @llvm.assume(i1 %80)
  %_11.i.i16.i = load ptr, ptr %_7.val.i7.i, align 8, !noalias !594, !nonnull !12, !align !132, !noundef !12
  %_14.0.i.i17.i = load ptr, ptr %_11.i.i16.i, align 8, !noalias !594, !nonnull !12, !noundef !12
  %81 = getelementptr inbounds nuw i8, ptr %_11.i.i16.i, i64 8
  %_14.1.i.i18.i = load ptr, ptr %81, align 8, !noalias !594, !nonnull !12, !align !132, !noundef !12
  %82 = getelementptr inbounds nuw i8, ptr %_14.1.i.i18.i, i64 32
  %83 = load ptr, ptr %82, align 8, !invariant.load !12, !noalias !594, !nonnull !12
  %84 = call noundef i8 %83(ptr noundef nonnull align 1 %_14.0.i.i17.i, ptr noalias noundef nonnull readonly align 8 captures(address, read_provenance) dereferenceable(48) %a1.i.i.i, ptr noalias noundef nonnull readonly align 8 captures(address, read_provenance) dereferenceable(48) %b2.i.i15.i) #31, !noalias !565
  %85 = icmp eq i8 %84, -1
  br label %_RNCINvMNtCsdJPVW0sQgAG_5alloc5sliceSINtNtCsjMrxcFdYDNN_4core6result6ResultNtNtCsarYwbBXrH4d_7walkdir4dent8DirEntryNtNtB1e_5error5ErrorE7sort_byNCNvMs3_B1e_NtB1e_8IntoIter4pushs_0E0B1e_.exit20.i

_RNCINvMNtCsdJPVW0sQgAG_5alloc5sliceSINtNtCsjMrxcFdYDNN_4core6result6ResultNtNtCsarYwbBXrH4d_7walkdir4dent8DirEntryNtNtB1e_5error5ErrorE7sort_byNCNvMs3_B1e_NtB1e_8IntoIter4pushs_0E0B1e_.exit20.i: ; preds = %bb7.i.i13.i, %_RNCINvMNtCsdJPVW0sQgAG_5alloc5sliceSINtNtCsjMrxcFdYDNN_4core6result6ResultNtNtCsarYwbBXrH4d_7walkdir4dent8DirEntryNtNtB1e_5error5ErrorE7sort_byNCNvMs3_B1e_NtB1e_8IntoIter4pushs_0E0B1e_.exit.i
  %_0.sroa.0.0.i.i19.i = phi i1 [ %85, %bb7.i.i13.i ], [ %.not3.i.mux.i12.i, %_RNCINvMNtCsdJPVW0sQgAG_5alloc5sliceSINtNtCsjMrxcFdYDNN_4core6result6ResultNtNtCsarYwbBXrH4d_7walkdir4dent8DirEntryNtNtB1e_5error5ErrorE7sort_byNCNvMs3_B1e_NtB1e_8IntoIter4pushs_0E0B1e_.exit.i ]
  %86 = xor i1 %_0.sroa.0.0.i.i.i, %_0.sroa.0.0.i.i19.i
  br i1 %86, label %bb10, label %bb3.i.i

bb3.i.i:                                          ; preds = %_RNCINvMNtCsdJPVW0sQgAG_5alloc5sliceSINtNtCsjMrxcFdYDNN_4core6result6ResultNtNtCsarYwbBXrH4d_7walkdir4dent8DirEntryNtNtB1e_5error5ErrorE7sort_byNCNvMs3_B1e_NtB1e_8IntoIter4pushs_0E0B1e_.exit20.i
  %.not.i.i22.i = icmp ne i64 %72, -9223372036854775807
  %brmerge.i25.i = or i1 %.not.i.i22.i, %.not3.i.not.i10.i
  %.not3.i.mux.i26.i = and i1 %.not.i.i22.i, %.not3.i.i9.i
  br i1 %brmerge.i25.i, label %_RNCINvMNtCsdJPVW0sQgAG_5alloc5sliceSINtNtCsjMrxcFdYDNN_4core6result6ResultNtNtCsarYwbBXrH4d_7walkdir4dent8DirEntryNtNtB1e_5error5ErrorE7sort_byNCNvMs3_B1e_NtB1e_8IntoIter4pushs_0E0B1e_.exit34.i, label %bb7.i.i27.i

bb7.i.i27.i:                                      ; preds = %bb3.i.i
  %_7.val.i21.i = load ptr, ptr %is_less.val6.i, align 8, !noalias !595, !nonnull !12, !noundef !12
  %a1.i.i28.i = getelementptr inbounds nuw i8, ptr %b.i, i64 8
  %b2.i.i29.i = getelementptr inbounds nuw i8, ptr %c.i, i64 8
  %_11.i.i30.i = load ptr, ptr %_7.val.i21.i, align 8, !noalias !599, !nonnull !12, !align !132, !noundef !12
  %_14.0.i.i31.i = load ptr, ptr %_11.i.i30.i, align 8, !noalias !599, !nonnull !12, !noundef !12
  %87 = getelementptr inbounds nuw i8, ptr %_11.i.i30.i, i64 8
  %_14.1.i.i32.i = load ptr, ptr %87, align 8, !noalias !599, !nonnull !12, !align !132, !noundef !12
  %88 = getelementptr inbounds nuw i8, ptr %_14.1.i.i32.i, i64 32
  %89 = load ptr, ptr %88, align 8, !invariant.load !12, !noalias !599, !nonnull !12
  %90 = call noundef i8 %89(ptr noundef nonnull align 1 %_14.0.i.i31.i, ptr noalias noundef nonnull readonly align 8 captures(address, read_provenance) dereferenceable(48) %a1.i.i28.i, ptr noalias noundef nonnull readonly align 8 captures(address, read_provenance) dereferenceable(48) %b2.i.i29.i) #31, !noalias !565
  %91 = icmp eq i8 %90, -1
  br label %_RNCINvMNtCsdJPVW0sQgAG_5alloc5sliceSINtNtCsjMrxcFdYDNN_4core6result6ResultNtNtCsarYwbBXrH4d_7walkdir4dent8DirEntryNtNtB1e_5error5ErrorE7sort_byNCNvMs3_B1e_NtB1e_8IntoIter4pushs_0E0B1e_.exit34.i

_RNCINvMNtCsdJPVW0sQgAG_5alloc5sliceSINtNtCsjMrxcFdYDNN_4core6result6ResultNtNtCsarYwbBXrH4d_7walkdir4dent8DirEntryNtNtB1e_5error5ErrorE7sort_byNCNvMs3_B1e_NtB1e_8IntoIter4pushs_0E0B1e_.exit34.i: ; preds = %bb7.i.i27.i, %bb3.i.i
  %_0.sroa.0.0.i.i33.i = phi i1 [ %91, %bb7.i.i27.i ], [ %.not3.i.mux.i26.i, %bb3.i.i ]
  %_12.i.i = xor i1 %_0.sroa.0.0.i.i.i, %_0.sroa.0.0.i.i33.i
  %c.b.i.i = select i1 %_12.i.i, ptr %c.i, ptr %b.i
  br label %bb10

bb22:                                             ; preds = %bb3.thread, %bb9.i.i, %bb3, %bb6
  ret void

bb10:                                             ; preds = %_RNCINvMNtCsdJPVW0sQgAG_5alloc5sliceSINtNtCsjMrxcFdYDNN_4core6result6ResultNtNtCsarYwbBXrH4d_7walkdir4dent8DirEntryNtNtB1e_5error5ErrorE7sort_byNCNvMs3_B1e_NtB1e_8IntoIter4pushs_0E0B1e_.exit34.i, %_RNCINvMNtCsdJPVW0sQgAG_5alloc5sliceSINtNtCsjMrxcFdYDNN_4core6result6ResultNtNtCsarYwbBXrH4d_7walkdir4dent8DirEntryNtNtB1e_5error5ErrorE7sort_byNCNvMs3_B1e_NtB1e_8IntoIter4pushs_0E0B1e_.exit20.i, %bb5.i
  %_0.sroa.0.0.i.sink.i = phi ptr [ %self.i, %bb5.i ], [ %v.sroa.0.0.ph138, %_RNCINvMNtCsdJPVW0sQgAG_5alloc5sliceSINtNtCsjMrxcFdYDNN_4core6result6ResultNtNtCsarYwbBXrH4d_7walkdir4dent8DirEntryNtNtB1e_5error5ErrorE7sort_byNCNvMs3_B1e_NtB1e_8IntoIter4pushs_0E0B1e_.exit20.i ], [ %c.b.i.i, %_RNCINvMNtCsdJPVW0sQgAG_5alloc5sliceSINtNtCsjMrxcFdYDNN_4core6result6ResultNtNtCsarYwbBXrH4d_7walkdir4dent8DirEntryNtNtB1e_5error5ErrorE7sort_byNCNvMs3_B1e_NtB1e_8IntoIter4pushs_0E0B1e_.exit34.i ]
  %92 = ptrtoint ptr %_0.sroa.0.0.i.sink.i to i64
  %93 = sub nuw i64 %92, %4
  %index.sroa.0.0.i = udiv exact i64 %93, 56
  %cond.i = icmp samesign ult i64 %index.sroa.0.0.i, %v.sroa.16.0130
  call void @llvm.assume(i1 %cond.i)
  call void @llvm.lifetime.start.p0(i64 56, ptr nonnull %pivot_copy)
  %src = getelementptr inbounds nuw i8, ptr %v.sroa.0.0.ph138, i64 %93
  call void @llvm.memcpy.p0.p0.i64(ptr noundef nonnull align 8 dereferenceable(56) %pivot_copy, ptr noundef nonnull align 8 dereferenceable(56) %src, i64 56, i1 false)
  %is_less.val24.pre174 = load ptr, ptr %is_less, align 8
  br i1 %.not, label %bb14, label %bb12

bb12:                                             ; preds = %bb10
  call void @llvm.experimental.noalias.scope.decl(metadata !603)
  call void @llvm.experimental.noalias.scope.decl(metadata !606)
  %_7.val.i = load ptr, ptr %is_less.val24.pre174, align 8, !noalias !608
  call void @llvm.experimental.noalias.scope.decl(metadata !609)
  call void @llvm.experimental.noalias.scope.decl(metadata !612)
  %94 = load i64, ptr %left_ancestor_pivot.sroa.0.0.ph135, align 8, !range !16, !alias.scope !614, !noalias !615, !noundef !12
  %.not.i.i = icmp ne i64 %94, -9223372036854775807
  %95 = load i64, ptr %src, align 8, !range !16, !alias.scope !615, !noalias !614, !noundef !12
  %.not3.i.i = icmp eq i64 %95, -9223372036854775807
  %.not3.i.not.i = xor i1 %.not3.i.i, true
  %brmerge.i = or i1 %.not.i.i, %.not3.i.not.i
  br i1 %brmerge.i, label %_RNCINvMNtCsdJPVW0sQgAG_5alloc5sliceSINtNtCsjMrxcFdYDNN_4core6result6ResultNtNtCsarYwbBXrH4d_7walkdir4dent8DirEntryNtNtB1e_5error5ErrorE7sort_byNCNvMs3_B1e_NtB1e_8IntoIter4pushs_0E0B1e_.exit, label %bb7.i.i26

bb7.i.i26:                                        ; preds = %bb12
  %b2.i.i = getelementptr inbounds nuw i8, ptr %src, i64 8
  %96 = icmp ne ptr %_7.val.i, null
  call void @llvm.assume(i1 %96)
  %_11.i.i = load ptr, ptr %_7.val.i, align 8, !noalias !616, !nonnull !12, !align !132, !noundef !12
  %_14.0.i.i = load ptr, ptr %_11.i.i, align 8, !noalias !616, !nonnull !12, !noundef !12
  %97 = getelementptr inbounds nuw i8, ptr %_11.i.i, i64 8
  %_14.1.i.i = load ptr, ptr %97, align 8, !noalias !616, !nonnull !12, !align !132, !noundef !12
  %98 = getelementptr inbounds nuw i8, ptr %_14.1.i.i, i64 32
  %99 = load ptr, ptr %98, align 8, !invariant.load !12, !noalias !616, !nonnull !12
  %100 = call noundef i8 %99(ptr noundef nonnull align 1 %_14.0.i.i, ptr noalias noundef nonnull readonly align 8 captures(address, read_provenance) dereferenceable(48) %a1.i.i, ptr noalias noundef nonnull readonly align 8 captures(address, read_provenance) dereferenceable(48) %b2.i.i) #31
  %101 = icmp eq i8 %100, -1
  br i1 %101, label %bb7.i.i26.bb14_crit_edge, label %bb17

bb7.i.i26.bb14_crit_edge:                         ; preds = %bb7.i.i26
  %is_less.val24.pre = load ptr, ptr %is_less, align 8
  br label %bb14

_RNCINvMNtCsdJPVW0sQgAG_5alloc5sliceSINtNtCsjMrxcFdYDNN_4core6result6ResultNtNtCsarYwbBXrH4d_7walkdir4dent8DirEntryNtNtB1e_5error5ErrorE7sort_byNCNvMs3_B1e_NtB1e_8IntoIter4pushs_0E0B1e_.exit: ; preds = %bb12
  %.not3.i.mux.i = and i1 %.not.i.i, %.not3.i.i
  br i1 %.not3.i.mux.i, label %bb14, label %bb17

bb14:                                             ; preds = %bb7.i.i26.bb14_crit_edge, %bb10, %_RNCINvMNtCsdJPVW0sQgAG_5alloc5sliceSINtNtCsjMrxcFdYDNN_4core6result6ResultNtNtCsarYwbBXrH4d_7walkdir4dent8DirEntryNtNtB1e_5error5ErrorE7sort_byNCNvMs3_B1e_NtB1e_8IntoIter4pushs_0E0B1e_.exit
  %is_less.val24 = phi ptr [ %is_less.val24.pre, %bb7.i.i26.bb14_crit_edge ], [ %is_less.val24.pre174, %bb10 ], [ %is_less.val24.pre174, %_RNCINvMNtCsdJPVW0sQgAG_5alloc5sliceSINtNtCsjMrxcFdYDNN_4core6result6ResultNtNtCsarYwbBXrH4d_7walkdir4dent8DirEntryNtNtB1e_5error5ErrorE7sort_byNCNvMs3_B1e_NtB1e_8IntoIter4pushs_0E0B1e_.exit ]
  call void @llvm.experimental.noalias.scope.decl(metadata !617)
  call void @llvm.experimental.noalias.scope.decl(metadata !620)
  %_8.i27.not = icmp samesign ult i64 %scratch.1, %v.sroa.16.0130
  br i1 %_8.i27.not, label %bb28.i, label %bb30.i, !prof !523

bb30.i:                                           ; preds = %bb14
  %_83.i = getelementptr %"core::result::Result<dent::DirEntry, error::Error>", ptr %scratch.0, i64 %v.sroa.16.0130
  %102 = icmp ne ptr %is_less.val24, null
  %b2.i.i.i28 = getelementptr inbounds nuw i8, ptr %src, i64 8
  br label %bb3.i29

bb28.i:                                           ; preds = %bb14
  call void @llvm.trap()
  unreachable

bb3.i29:                                          ; preds = %bb23.i, %bb30.i
  %state.sroa.11.0.i = phi i64 [ 0, %bb30.i ], [ %state.sroa.11.1.lcssa.i, %bb23.i ]
  %state.sroa.5.0.i = phi ptr [ %v.sroa.0.0.ph138, %bb30.i ], [ %_9.i13.i, %bb23.i ]
  %state.sroa.19.0.i = phi ptr [ %_83.i, %bb30.i ], [ %113, %bb23.i ]
  %pivot_pos.sroa.0.0.i = phi i64 [ %index.sroa.0.0.i, %bb30.i ], [ %v.sroa.16.0130, %bb23.i ]
  %loop_end.i = getelementptr inbounds nuw %"core::result::Result<dent::DirEntry, error::Error>", ptr %v.sroa.0.0.ph138, i64 %pivot_pos.sroa.0.0.i
  %_476.i = icmp ult ptr %state.sroa.5.0.i, %loop_end.i
  br i1 %_476.i, label %bb18.lr.ph.i, label %bb21.i

bb18.lr.ph.i:                                     ; preds = %bb3.i29
  call void @llvm.assume(i1 %102)
  br label %bb18.i

bb21.i:                                           ; preds = %_RNCINvMNtCsdJPVW0sQgAG_5alloc5sliceSINtNtCsjMrxcFdYDNN_4core6result6ResultNtNtCsarYwbBXrH4d_7walkdir4dent8DirEntryNtNtB1e_5error5ErrorE7sort_byNCNvMs3_B1e_NtB1e_8IntoIter4pushs_0E0B1e_.exit.i43, %bb3.i29
  %state.sroa.11.1.lcssa.i = phi i64 [ %state.sroa.11.0.i, %bb3.i29 ], [ %112, %_RNCINvMNtCsdJPVW0sQgAG_5alloc5sliceSINtNtCsjMrxcFdYDNN_4core6result6ResultNtNtCsarYwbBXrH4d_7walkdir4dent8DirEntryNtNtB1e_5error5ErrorE7sort_byNCNvMs3_B1e_NtB1e_8IntoIter4pushs_0E0B1e_.exit.i43 ]
  %state.sroa.5.1.lcssa.i = phi ptr [ %state.sroa.5.0.i, %bb3.i29 ], [ %_9.i.i, %_RNCINvMNtCsdJPVW0sQgAG_5alloc5sliceSINtNtCsjMrxcFdYDNN_4core6result6ResultNtNtCsarYwbBXrH4d_7walkdir4dent8DirEntryNtNtB1e_5error5ErrorE7sort_byNCNvMs3_B1e_NtB1e_8IntoIter4pushs_0E0B1e_.exit.i43 ]
  %state.sroa.19.1.lcssa.i = phi ptr [ %state.sroa.19.0.i, %bb3.i29 ], [ %111, %_RNCINvMNtCsdJPVW0sQgAG_5alloc5sliceSINtNtCsjMrxcFdYDNN_4core6result6ResultNtNtCsarYwbBXrH4d_7walkdir4dent8DirEntryNtNtB1e_5error5ErrorE7sort_byNCNvMs3_B1e_NtB1e_8IntoIter4pushs_0E0B1e_.exit.i43 ]
  %_55.i = icmp eq i64 %pivot_pos.sroa.0.0.i, %v.sroa.16.0130
  br i1 %_55.i, label %bb22.i, label %bb23.i

bb18.i:                                           ; preds = %_RNCINvMNtCsdJPVW0sQgAG_5alloc5sliceSINtNtCsjMrxcFdYDNN_4core6result6ResultNtNtCsarYwbBXrH4d_7walkdir4dent8DirEntryNtNtB1e_5error5ErrorE7sort_byNCNvMs3_B1e_NtB1e_8IntoIter4pushs_0E0B1e_.exit.i43, %bb18.lr.ph.i
  %state.sroa.19.19.i = phi ptr [ %state.sroa.19.0.i, %bb18.lr.ph.i ], [ %111, %_RNCINvMNtCsdJPVW0sQgAG_5alloc5sliceSINtNtCsjMrxcFdYDNN_4core6result6ResultNtNtCsarYwbBXrH4d_7walkdir4dent8DirEntryNtNtB1e_5error5ErrorE7sort_byNCNvMs3_B1e_NtB1e_8IntoIter4pushs_0E0B1e_.exit.i43 ]
  %state.sroa.5.18.i = phi ptr [ %state.sroa.5.0.i, %bb18.lr.ph.i ], [ %_9.i.i, %_RNCINvMNtCsdJPVW0sQgAG_5alloc5sliceSINtNtCsjMrxcFdYDNN_4core6result6ResultNtNtCsarYwbBXrH4d_7walkdir4dent8DirEntryNtNtB1e_5error5ErrorE7sort_byNCNvMs3_B1e_NtB1e_8IntoIter4pushs_0E0B1e_.exit.i43 ]
  %state.sroa.11.17.i = phi i64 [ %state.sroa.11.0.i, %bb18.lr.ph.i ], [ %112, %_RNCINvMNtCsdJPVW0sQgAG_5alloc5sliceSINtNtCsjMrxcFdYDNN_4core6result6ResultNtNtCsarYwbBXrH4d_7walkdir4dent8DirEntryNtNtB1e_5error5ErrorE7sort_byNCNvMs3_B1e_NtB1e_8IntoIter4pushs_0E0B1e_.exit.i43 ]
  call void @llvm.experimental.noalias.scope.decl(metadata !622)
  call void @llvm.experimental.noalias.scope.decl(metadata !625)
  %_7.val.i.i32 = load ptr, ptr %is_less.val24, align 8, !noalias !627
  call void @llvm.experimental.noalias.scope.decl(metadata !628)
  call void @llvm.experimental.noalias.scope.decl(metadata !631)
  %103 = load i64, ptr %state.sroa.5.18.i, align 8, !range !16, !alias.scope !633, !noalias !634, !noundef !12
  %.not.i.i.i33 = icmp ne i64 %103, -9223372036854775807
  %104 = load i64, ptr %src, align 8, !range !16, !alias.scope !635, !noalias !636, !noundef !12
  %.not3.i.i.i34 = icmp eq i64 %104, -9223372036854775807
  %.not3.i.not.i.i35 = xor i1 %.not3.i.i.i34, true
  %brmerge.i.i36 = or i1 %.not.i.i.i33, %.not3.i.not.i.i35
  %.not3.i.mux.i.i37 = and i1 %.not.i.i.i33, %.not3.i.i.i34
  br i1 %brmerge.i.i36, label %_RNCINvMNtCsdJPVW0sQgAG_5alloc5sliceSINtNtCsjMrxcFdYDNN_4core6result6ResultNtNtCsarYwbBXrH4d_7walkdir4dent8DirEntryNtNtB1e_5error5ErrorE7sort_byNCNvMs3_B1e_NtB1e_8IntoIter4pushs_0E0B1e_.exit.i43, label %bb7.i.i.i38

bb7.i.i.i38:                                      ; preds = %bb18.i
  %a1.i.i.i39 = getelementptr inbounds nuw i8, ptr %state.sroa.5.18.i, i64 8
  %105 = icmp ne ptr %_7.val.i.i32, null
  call void @llvm.assume(i1 %105)
  %_11.i.i.i40 = load ptr, ptr %_7.val.i.i32, align 8, !noalias !637, !nonnull !12, !align !132, !noundef !12
  %_14.0.i.i.i41 = load ptr, ptr %_11.i.i.i40, align 8, !noalias !637, !nonnull !12, !noundef !12
  %106 = getelementptr inbounds nuw i8, ptr %_11.i.i.i40, i64 8
  %_14.1.i.i.i42 = load ptr, ptr %106, align 8, !noalias !637, !nonnull !12, !align !132, !noundef !12
  %107 = getelementptr inbounds nuw i8, ptr %_14.1.i.i.i42, i64 32
  %108 = load ptr, ptr %107, align 8, !invariant.load !12, !noalias !637, !nonnull !12
  %109 = call noundef i8 %108(ptr noundef nonnull align 1 %_14.0.i.i.i41, ptr noalias noundef nonnull readonly align 8 captures(address, read_provenance) dereferenceable(48) %a1.i.i.i39, ptr noalias noundef nonnull readonly align 8 captures(address, read_provenance) dereferenceable(48) %b2.i.i.i28) #31, !noalias !620
  %110 = icmp eq i8 %109, -1
  br label %_RNCINvMNtCsdJPVW0sQgAG_5alloc5sliceSINtNtCsjMrxcFdYDNN_4core6result6ResultNtNtCsarYwbBXrH4d_7walkdir4dent8DirEntryNtNtB1e_5error5ErrorE7sort_byNCNvMs3_B1e_NtB1e_8IntoIter4pushs_0E0B1e_.exit.i43

_RNCINvMNtCsdJPVW0sQgAG_5alloc5sliceSINtNtCsjMrxcFdYDNN_4core6result6ResultNtNtCsarYwbBXrH4d_7walkdir4dent8DirEntryNtNtB1e_5error5ErrorE7sort_byNCNvMs3_B1e_NtB1e_8IntoIter4pushs_0E0B1e_.exit.i43: ; preds = %bb7.i.i.i38, %bb18.i
  %_0.sroa.0.0.i.i.i44 = phi i1 [ %110, %bb7.i.i.i38 ], [ %.not3.i.mux.i.i37, %bb18.i ]
  %111 = getelementptr inbounds i8, ptr %state.sroa.19.19.i, i64 -56
  %dst_base.sroa.0.0.i.i = select i1 %_0.sroa.0.0.i.i.i44, ptr %scratch.0, ptr %111
  %dst.i.i = getelementptr inbounds nuw %"core::result::Result<dent::DirEntry, error::Error>", ptr %dst_base.sroa.0.0.i.i, i64 %state.sroa.11.17.i
  call void @llvm.memcpy.p0.p0.i64(ptr noundef nonnull align 8 dereferenceable(56) %dst.i.i, ptr noundef nonnull align 8 dereferenceable(56) %state.sroa.5.18.i, i64 56, i1 false), !alias.scope !638, !noalias !639
  %_8.i.i = zext i1 %_0.sroa.0.0.i.i.i44 to i64
  %112 = add i64 %state.sroa.11.17.i, %_8.i.i
  %_9.i.i = getelementptr inbounds nuw i8, ptr %state.sroa.5.18.i, i64 56
  %_47.i = icmp ult ptr %_9.i.i, %loop_end.i
  br i1 %_47.i, label %bb18.i, label %bb21.i

bb23.i:                                           ; preds = %bb21.i
  %113 = getelementptr inbounds i8, ptr %state.sroa.19.1.lcssa.i, i64 -56
  %dst.i11.i = getelementptr inbounds nuw %"core::result::Result<dent::DirEntry, error::Error>", ptr %113, i64 %state.sroa.11.1.lcssa.i
  call void @llvm.memcpy.p0.p0.i64(ptr noundef nonnull align 8 dereferenceable(56) %dst.i11.i, ptr noundef nonnull align 8 dereferenceable(56) %state.sroa.5.1.lcssa.i, i64 56, i1 false), !alias.scope !638, !noalias !642
  %_9.i13.i = getelementptr inbounds nuw i8, ptr %state.sroa.5.1.lcssa.i, i64 56
  br label %bb3.i29

bb22.i:                                           ; preds = %bb21.i
  %114 = mul i64 %state.sroa.11.1.lcssa.i, 56
  call void @llvm.memcpy.p0.p0.i64(ptr nonnull align 8 %v.sroa.0.0.ph138, ptr nonnull align 8 %scratch.0, i64 %114, i1 false), !alias.scope !638
  %_63.i = sub i64 %v.sroa.16.0130, %state.sroa.11.1.lcssa.i
  %_9212.not.i = icmp eq i64 %v.sroa.16.0130, %state.sroa.11.1.lcssa.i
  br i1 %_9212.not.i, label %bb16, label %bb39.lr.ph.i

bb39.lr.ph.i:                                     ; preds = %bb22.i
  %115 = getelementptr %"core::result::Result<dent::DirEntry, error::Error>", ptr %v.sroa.0.0.ph138, i64 %state.sroa.11.1.lcssa.i
  br label %bb39.i

bb39.i:                                           ; preds = %bb39.i, %bb39.lr.ph.i
  %iter.sroa.0.013.i = phi i64 [ 0, %bb39.lr.ph.i ], [ %_96.i, %bb39.i ]
  %_96.i = add nuw i64 %iter.sroa.0.013.i, 1
  %116 = xor i64 %iter.sroa.0.013.i, -1
  %_69.i = getelementptr %"core::result::Result<dent::DirEntry, error::Error>", ptr %_83.i, i64 %116
  %dst.i30 = getelementptr %"core::result::Result<dent::DirEntry, error::Error>", ptr %115, i64 %iter.sroa.0.013.i
  call void @llvm.memcpy.p0.p0.i64(ptr noundef nonnull align 8 dereferenceable(56) %dst.i30, ptr noundef nonnull align 8 dereferenceable(56) %_69.i, i64 56, i1 false), !alias.scope !638
  %exitcond.not.i31 = icmp eq i64 %_96.i, %_63.i
  br i1 %exitcond.not.i31, label %bb16, label %bb39.i

bb16:                                             ; preds = %bb39.i, %bb22.i
  %117 = icmp eq i64 %state.sroa.11.1.lcssa.i, 0
  br i1 %117, label %bb17, label %bb19

bb19:                                             ; preds = %bb16
  %_6.not.i = icmp ugt i64 %state.sroa.11.1.lcssa.i, %v.sroa.16.0130
  br i1 %_6.not.i, label %bb3.i45, label %_RNvMNtCsjMrxcFdYDNN_4core5sliceSINtNtB4_6result6ResultNtNtCsarYwbBXrH4d_7walkdir4dent8DirEntryNtNtBU_5error5ErrorE12split_at_mutBU_.exit, !prof !645

bb3.i45:                                          ; preds = %bb19
; call core::panicking::panic_fmt
  call void @_RNvNtCsjMrxcFdYDNN_4core9panicking9panic_fmt(ptr noundef nonnull @alloc_d1084648e479974e70c9329824bf76f9, ptr noundef nonnull inttoptr (i64 19 to ptr), ptr noalias noundef nonnull readonly align 8 captures(address, read_provenance) dereferenceable(24) @alloc_63b5b202754b5efb770c3fd338a9a466) #32, !noalias !646
  unreachable

_RNvMNtCsjMrxcFdYDNN_4core5sliceSINtNtB4_6result6ResultNtNtCsarYwbBXrH4d_7walkdir4dent8DirEntryNtNtBU_5error5ErrorE12split_at_mutBU_.exit: ; preds = %bb19
  %data.i.i = getelementptr inbounds nuw %"core::result::Result<dent::DirEntry, error::Error>", ptr %v.sroa.0.0.ph138, i64 %state.sroa.11.1.lcssa.i
; call core::slice::sort::stable::quicksort::quicksort::<core::result::Result<walkdir::dent::DirEntry, walkdir::error::Error>, <[core::result::Result<walkdir::dent::DirEntry, walkdir::error::Error>]>::sort_by<<walkdir::IntoIter>::push::{closure#1}>::{closure#0}>
  call void @_RINvNtNtNtNtCsjMrxcFdYDNN_4core5slice4sort6stable9quicksort9quicksortINtNtBa_6result6ResultNtNtCsarYwbBXrH4d_7walkdir4dent8DirEntryNtNtB1v_5error5ErrorENCINvMNtCsdJPVW0sQgAG_5alloc5sliceSB15_7sort_byNCNvMs3_B1v_NtB1v_8IntoIter4pushs_0E0EB1v_(ptr noalias noundef nonnull align 8 %data.i.i, i64 noundef %_63.i, ptr noalias noundef nonnull align 8 %scratch.0, i64 noundef %scratch.1, i32 noundef %70, ptr noalias noundef nonnull readonly align 8 captures(address, read_provenance) dereferenceable_or_null(56) %pivot_copy, ptr noalias noundef nonnull align 8 dereferenceable(8) %is_less) #30
  call void @llvm.lifetime.end.p0(i64 56, ptr nonnull %pivot_copy)
  %_8 = icmp ult i64 %state.sroa.11.1.lcssa.i, 33
  br i1 %_8, label %bb3, label %bb5

bb17:                                             ; preds = %bb7.i.i26, %_RNCINvMNtCsdJPVW0sQgAG_5alloc5sliceSINtNtCsjMrxcFdYDNN_4core6result6ResultNtNtCsarYwbBXrH4d_7walkdir4dent8DirEntryNtNtB1e_5error5ErrorE7sort_byNCNvMs3_B1e_NtB1e_8IntoIter4pushs_0E0B1e_.exit, %bb16
  call void @llvm.experimental.noalias.scope.decl(metadata !650)
  call void @llvm.experimental.noalias.scope.decl(metadata !653)
  %_8.i46.not = icmp samesign ult i64 %scratch.1, %v.sroa.16.0130
  br i1 %_8.i46.not, label %bb28.i49, label %bb30.i50, !prof !523

bb30.i50:                                         ; preds = %bb17
  %_83.i52 = getelementptr %"core::result::Result<dent::DirEntry, error::Error>", ptr %scratch.0, i64 %v.sroa.16.0130
  %a1.i.i.i.i53 = getelementptr inbounds nuw i8, ptr %src, i64 8
  br label %bb3.i54

bb28.i49:                                         ; preds = %bb17
  call void @llvm.trap()
  unreachable

bb3.i54:                                          ; preds = %bb23.i66, %bb30.i50
  %state.sroa.11.0.i55 = phi i64 [ 0, %bb30.i50 ], [ %129, %bb23.i66 ]
  %state.sroa.5.0.i56 = phi ptr [ %v.sroa.0.0.ph138, %bb30.i50 ], [ %_9.i13.i68, %bb23.i66 ]
  %state.sroa.19.0.i57 = phi ptr [ %_83.i52, %bb30.i50 ], [ %128, %bb23.i66 ]
  %pivot_pos.sroa.0.0.i58 = phi i64 [ %index.sroa.0.0.i, %bb30.i50 ], [ %v.sroa.16.0130, %bb23.i66 ]
  %loop_end.i59 = getelementptr inbounds nuw %"core::result::Result<dent::DirEntry, error::Error>", ptr %v.sroa.0.0.ph138, i64 %pivot_pos.sroa.0.0.i58
  %_476.i60 = icmp ult ptr %state.sroa.5.0.i56, %loop_end.i59
  br i1 %_476.i60, label %bb18.i80, label %bb21.i61

bb21.i61:                                         ; preds = %_RNCINvNtNtNtNtCsjMrxcFdYDNN_4core5slice4sort6stable9quicksort9quicksortINtNtBc_6result6ResultNtNtCsarYwbBXrH4d_7walkdir4dent8DirEntryNtNtB1x_5error5ErrorENCINvMNtCsdJPVW0sQgAG_5alloc5sliceSB17_7sort_byNCNvMs3_B1x_NtB1x_8IntoIter4pushs_0E0E0B1x_.exit.i, %bb3.i54
  %state.sroa.11.1.lcssa.i62 = phi i64 [ %state.sroa.11.0.i55, %bb3.i54 ], [ %127, %_RNCINvNtNtNtNtCsjMrxcFdYDNN_4core5slice4sort6stable9quicksort9quicksortINtNtBc_6result6ResultNtNtCsarYwbBXrH4d_7walkdir4dent8DirEntryNtNtB1x_5error5ErrorENCINvMNtCsdJPVW0sQgAG_5alloc5sliceSB17_7sort_byNCNvMs3_B1x_NtB1x_8IntoIter4pushs_0E0E0B1x_.exit.i ]
  %state.sroa.5.1.lcssa.i63 = phi ptr [ %state.sroa.5.0.i56, %bb3.i54 ], [ %_9.i.i99, %_RNCINvNtNtNtNtCsjMrxcFdYDNN_4core5slice4sort6stable9quicksort9quicksortINtNtBc_6result6ResultNtNtCsarYwbBXrH4d_7walkdir4dent8DirEntryNtNtB1x_5error5ErrorENCINvMNtCsdJPVW0sQgAG_5alloc5sliceSB17_7sort_byNCNvMs3_B1x_NtB1x_8IntoIter4pushs_0E0E0B1x_.exit.i ]
  %state.sroa.19.1.lcssa.i64 = phi ptr [ %state.sroa.19.0.i57, %bb3.i54 ], [ %126, %_RNCINvNtNtNtNtCsjMrxcFdYDNN_4core5slice4sort6stable9quicksort9quicksortINtNtBc_6result6ResultNtNtCsarYwbBXrH4d_7walkdir4dent8DirEntryNtNtB1x_5error5ErrorENCINvMNtCsdJPVW0sQgAG_5alloc5sliceSB17_7sort_byNCNvMs3_B1x_NtB1x_8IntoIter4pushs_0E0E0B1x_.exit.i ]
  %_55.i65 = icmp eq i64 %pivot_pos.sroa.0.0.i58, %v.sroa.16.0130
  br i1 %_55.i65, label %bb22.i69, label %bb23.i66

bb18.i80:                                         ; preds = %bb3.i54, %_RNCINvNtNtNtNtCsjMrxcFdYDNN_4core5slice4sort6stable9quicksort9quicksortINtNtBc_6result6ResultNtNtCsarYwbBXrH4d_7walkdir4dent8DirEntryNtNtB1x_5error5ErrorENCINvMNtCsdJPVW0sQgAG_5alloc5sliceSB17_7sort_byNCNvMs3_B1x_NtB1x_8IntoIter4pushs_0E0E0B1x_.exit.i
  %state.sroa.19.19.i81 = phi ptr [ %126, %_RNCINvNtNtNtNtCsjMrxcFdYDNN_4core5slice4sort6stable9quicksort9quicksortINtNtBc_6result6ResultNtNtCsarYwbBXrH4d_7walkdir4dent8DirEntryNtNtB1x_5error5ErrorENCINvMNtCsdJPVW0sQgAG_5alloc5sliceSB17_7sort_byNCNvMs3_B1x_NtB1x_8IntoIter4pushs_0E0E0B1x_.exit.i ], [ %state.sroa.19.0.i57, %bb3.i54 ]
  %state.sroa.5.18.i82 = phi ptr [ %_9.i.i99, %_RNCINvNtNtNtNtCsjMrxcFdYDNN_4core5slice4sort6stable9quicksort9quicksortINtNtBc_6result6ResultNtNtCsarYwbBXrH4d_7walkdir4dent8DirEntryNtNtB1x_5error5ErrorENCINvMNtCsdJPVW0sQgAG_5alloc5sliceSB17_7sort_byNCNvMs3_B1x_NtB1x_8IntoIter4pushs_0E0E0B1x_.exit.i ], [ %state.sroa.5.0.i56, %bb3.i54 ]
  %state.sroa.11.17.i83 = phi i64 [ %127, %_RNCINvNtNtNtNtCsjMrxcFdYDNN_4core5slice4sort6stable9quicksort9quicksortINtNtBc_6result6ResultNtNtCsarYwbBXrH4d_7walkdir4dent8DirEntryNtNtB1x_5error5ErrorENCINvMNtCsdJPVW0sQgAG_5alloc5sliceSB17_7sort_byNCNvMs3_B1x_NtB1x_8IntoIter4pushs_0E0E0B1x_.exit.i ], [ %state.sroa.11.0.i55, %bb3.i54 ]
  call void @llvm.experimental.noalias.scope.decl(metadata !655)
  call void @llvm.experimental.noalias.scope.decl(metadata !658)
  %_6.val.i.i = load ptr, ptr %is_less, align 8, !noalias !660, !nonnull !12, !align !132, !noundef !12
  call void @llvm.experimental.noalias.scope.decl(metadata !661)
  call void @llvm.experimental.noalias.scope.decl(metadata !664)
  %_7.val.i.i.i84 = load ptr, ptr %_6.val.i.i, align 8, !noalias !666
  call void @llvm.experimental.noalias.scope.decl(metadata !667)
  call void @llvm.experimental.noalias.scope.decl(metadata !670)
  %118 = load i64, ptr %src, align 8, !range !16, !alias.scope !672, !noalias !673, !noundef !12
  %.not.i.i.i.i85 = icmp ne i64 %118, -9223372036854775807
  %119 = load i64, ptr %state.sroa.5.18.i82, align 8, !range !16, !alias.scope !674, !noalias !675, !noundef !12
  %.not3.i.i.i.i86 = icmp eq i64 %119, -9223372036854775807
  %.not3.i.not.i.i.i87 = xor i1 %.not3.i.i.i.i86, true
  %brmerge.i.i.i88 = or i1 %.not.i.i.i.i85, %.not3.i.not.i.i.i87
  %.not3.i.mux.i.i.i89 = and i1 %.not.i.i.i.i85, %.not3.i.i.i.i86
  br i1 %brmerge.i.i.i88, label %_RNCINvNtNtNtNtCsjMrxcFdYDNN_4core5slice4sort6stable9quicksort9quicksortINtNtBc_6result6ResultNtNtCsarYwbBXrH4d_7walkdir4dent8DirEntryNtNtB1x_5error5ErrorENCINvMNtCsdJPVW0sQgAG_5alloc5sliceSB17_7sort_byNCNvMs3_B1x_NtB1x_8IntoIter4pushs_0E0E0B1x_.exit.i, label %bb7.i.i.i.i90

bb7.i.i.i.i90:                                    ; preds = %bb18.i80
  %b2.i.i.i.i91 = getelementptr inbounds nuw i8, ptr %state.sroa.5.18.i82, i64 8
  %120 = icmp ne ptr %_7.val.i.i.i84, null
  call void @llvm.assume(i1 %120)
  %_11.i.i.i.i92 = load ptr, ptr %_7.val.i.i.i84, align 8, !noalias !676, !nonnull !12, !align !132, !noundef !12
  %_14.0.i.i.i.i93 = load ptr, ptr %_11.i.i.i.i92, align 8, !noalias !676, !nonnull !12, !noundef !12
  %121 = getelementptr inbounds nuw i8, ptr %_11.i.i.i.i92, i64 8
  %_14.1.i.i.i.i94 = load ptr, ptr %121, align 8, !noalias !676, !nonnull !12, !align !132, !noundef !12
  %122 = getelementptr inbounds nuw i8, ptr %_14.1.i.i.i.i94, i64 32
  %123 = load ptr, ptr %122, align 8, !invariant.load !12, !noalias !676, !nonnull !12
  %124 = call noundef i8 %123(ptr noundef nonnull align 1 %_14.0.i.i.i.i93, ptr noalias noundef nonnull readonly align 8 captures(address, read_provenance) dereferenceable(48) %a1.i.i.i.i53, ptr noalias noundef nonnull readonly align 8 captures(address, read_provenance) dereferenceable(48) %b2.i.i.i.i91) #31, !noalias !653
  %125 = icmp eq i8 %124, -1
  br label %_RNCINvNtNtNtNtCsjMrxcFdYDNN_4core5slice4sort6stable9quicksort9quicksortINtNtBc_6result6ResultNtNtCsarYwbBXrH4d_7walkdir4dent8DirEntryNtNtB1x_5error5ErrorENCINvMNtCsdJPVW0sQgAG_5alloc5sliceSB17_7sort_byNCNvMs3_B1x_NtB1x_8IntoIter4pushs_0E0E0B1x_.exit.i

_RNCINvNtNtNtNtCsjMrxcFdYDNN_4core5slice4sort6stable9quicksort9quicksortINtNtBc_6result6ResultNtNtCsarYwbBXrH4d_7walkdir4dent8DirEntryNtNtB1x_5error5ErrorENCINvMNtCsdJPVW0sQgAG_5alloc5sliceSB17_7sort_byNCNvMs3_B1x_NtB1x_8IntoIter4pushs_0E0E0B1x_.exit.i: ; preds = %bb7.i.i.i.i90, %bb18.i80
  %_0.sroa.0.0.i.i.i.i95 = phi i1 [ %125, %bb7.i.i.i.i90 ], [ %.not3.i.mux.i.i.i89, %bb18.i80 ]
  %_0.i.i = xor i1 %_0.sroa.0.0.i.i.i.i95, true
  %126 = getelementptr inbounds i8, ptr %state.sroa.19.19.i81, i64 -56
  %dst_base.sroa.0.0.i.i96 = select i1 %_0.sroa.0.0.i.i.i.i95, ptr %126, ptr %scratch.0
  %dst.i.i97 = getelementptr inbounds nuw %"core::result::Result<dent::DirEntry, error::Error>", ptr %dst_base.sroa.0.0.i.i96, i64 %state.sroa.11.17.i83
  call void @llvm.memcpy.p0.p0.i64(ptr noundef nonnull align 8 dereferenceable(56) %dst.i.i97, ptr noundef nonnull align 8 dereferenceable(56) %state.sroa.5.18.i82, i64 56, i1 false), !alias.scope !677, !noalias !678
  %_8.i.i98 = zext i1 %_0.i.i to i64
  %127 = add i64 %state.sroa.11.17.i83, %_8.i.i98
  %_9.i.i99 = getelementptr inbounds nuw i8, ptr %state.sroa.5.18.i82, i64 56
  %_47.i100 = icmp ult ptr %_9.i.i99, %loop_end.i59
  br i1 %_47.i100, label %bb18.i80, label %bb21.i61

bb23.i66:                                         ; preds = %bb21.i61
  %128 = getelementptr inbounds i8, ptr %state.sroa.19.1.lcssa.i64, i64 -56
  %dst.i11.i67 = getelementptr inbounds nuw %"core::result::Result<dent::DirEntry, error::Error>", ptr %scratch.0, i64 %state.sroa.11.1.lcssa.i62
  call void @llvm.memcpy.p0.p0.i64(ptr noundef nonnull align 8 dereferenceable(56) %dst.i11.i67, ptr noundef nonnull align 8 dereferenceable(56) %state.sroa.5.1.lcssa.i63, i64 56, i1 false), !alias.scope !677, !noalias !681
  %129 = add i64 %state.sroa.11.1.lcssa.i62, 1
  %_9.i13.i68 = getelementptr inbounds nuw i8, ptr %state.sroa.5.1.lcssa.i63, i64 56
  br label %bb3.i54

bb22.i69:                                         ; preds = %bb21.i61
  %130 = mul i64 %state.sroa.11.1.lcssa.i62, 56
  call void @llvm.memcpy.p0.p0.i64(ptr nonnull align 8 %v.sroa.0.0.ph138, ptr nonnull align 8 %scratch.0, i64 %130, i1 false), !alias.scope !677
  %_63.i70 = sub i64 %v.sroa.16.0130, %state.sroa.11.1.lcssa.i62
  %_9212.not.i71 = icmp eq i64 %v.sroa.16.0130, %state.sroa.11.1.lcssa.i62
  br i1 %_9212.not.i71, label %bb3.thread, label %bb39.lr.ph.i72

bb39.lr.ph.i72:                                   ; preds = %bb22.i69
  %131 = getelementptr %"core::result::Result<dent::DirEntry, error::Error>", ptr %v.sroa.0.0.ph138, i64 %state.sroa.11.1.lcssa.i62
  br label %bb39.i73

bb39.i73:                                         ; preds = %bb39.i73, %bb39.lr.ph.i72
  %iter.sroa.0.013.i74 = phi i64 [ 0, %bb39.lr.ph.i72 ], [ %_96.i75, %bb39.i73 ]
  %_96.i75 = add nuw i64 %iter.sroa.0.013.i74, 1
  %132 = xor i64 %iter.sroa.0.013.i74, -1
  %_69.i76 = getelementptr %"core::result::Result<dent::DirEntry, error::Error>", ptr %_83.i52, i64 %132
  %dst.i77 = getelementptr %"core::result::Result<dent::DirEntry, error::Error>", ptr %131, i64 %iter.sroa.0.013.i74
  call void @llvm.memcpy.p0.p0.i64(ptr noundef nonnull align 8 dereferenceable(56) %dst.i77, ptr noundef nonnull align 8 dereferenceable(56) %_69.i76, i64 56, i1 false), !alias.scope !677
  %exitcond.not.i78 = icmp eq i64 %_96.i75, %_63.i70
  br i1 %exitcond.not.i78, label %_RINvNtNtNtNtCsjMrxcFdYDNN_4core5slice4sort6stable9quicksort16stable_partitionINtNtBa_6result6ResultNtNtCsarYwbBXrH4d_7walkdir4dent8DirEntryNtNtB1D_5error5ErrorENCINvB2_9quicksortB1d_NCINvMNtCsdJPVW0sQgAG_5alloc5sliceSB1d_7sort_byNCNvMs3_B1D_NtB1D_8IntoIter4pushs_0E0E0EB1D_.exit, label %bb39.i73

_RINvNtNtNtNtCsjMrxcFdYDNN_4core5slice4sort6stable9quicksort16stable_partitionINtNtBa_6result6ResultNtNtCsarYwbBXrH4d_7walkdir4dent8DirEntryNtNtB1D_5error5ErrorENCINvB2_9quicksortB1d_NCINvMNtCsdJPVW0sQgAG_5alloc5sliceSB1d_7sort_byNCNvMs3_B1D_NtB1D_8IntoIter4pushs_0E0E0EB1D_.exit: ; preds = %bb39.i73
  %_47 = icmp ugt i64 %state.sroa.11.1.lcssa.i62, %v.sroa.16.0130
  br i1 %_47, label %bb27, label %bb28, !prof !645

bb3.thread:                                       ; preds = %bb22.i69
  call void @llvm.lifetime.end.p0(i64 56, ptr nonnull %pivot_copy)
  br label %bb22

bb28:                                             ; preds = %_RINvNtNtNtNtCsjMrxcFdYDNN_4core5slice4sort6stable9quicksort16stable_partitionINtNtBa_6result6ResultNtNtCsarYwbBXrH4d_7walkdir4dent8DirEntryNtNtB1D_5error5ErrorENCINvB2_9quicksortB1d_NCINvMNtCsdJPVW0sQgAG_5alloc5sliceSB1d_7sort_byNCNvMs3_B1D_NtB1D_8IntoIter4pushs_0E0E0EB1D_.exit
  %_54 = getelementptr inbounds nuw %"core::result::Result<dent::DirEntry, error::Error>", ptr %v.sroa.0.0.ph138, i64 %state.sroa.11.1.lcssa.i62
  call void @llvm.lifetime.end.p0(i64 56, ptr nonnull %pivot_copy)
  %_8128 = icmp ult i64 %_63.i70, 33
  br i1 %_8128, label %bb3, label %bb5.lr.ph

bb27:                                             ; preds = %_RINvNtNtNtNtCsjMrxcFdYDNN_4core5slice4sort6stable9quicksort16stable_partitionINtNtBa_6result6ResultNtNtCsarYwbBXrH4d_7walkdir4dent8DirEntryNtNtB1D_5error5ErrorENCINvB2_9quicksortB1d_NCINvMNtCsdJPVW0sQgAG_5alloc5sliceSB1d_7sort_byNCNvMs3_B1D_NtB1D_8IntoIter4pushs_0E0E0EB1D_.exit
; call core::slice::index::slice_index_fail
  call void @_RNvNtNtCsjMrxcFdYDNN_4core5slice5index16slice_index_fail(i64 noundef %state.sroa.11.1.lcssa.i62, i64 noundef %v.sroa.16.0130, i64 noundef %v.sroa.16.0130, ptr noalias noundef readonly align 8 captures(address, read_provenance) dereferenceable(24) @alloc_36ce49ab0499b14b6f7dec8f3551378e) #32
  unreachable
}

; <alloc::raw_vec::RawVecInner<_>>::reserve::do_reserve_and_handle::<alloc::alloc::Global>
; Function Attrs: cold uwtable
define internal fastcc void @_RINvNvMs2_NtCsdJPVW0sQgAG_5alloc7raw_vecINtB8_11RawVecInnerpE7reserve21do_reserve_and_handleNtNtBa_5alloc6GlobalECsarYwbBXrH4d_7walkdir(ptr noalias noundef nonnull align 8 captures(none) dereferenceable(16) %slf, i64 noundef %len, i64 noundef range(i64 1, 0) %additional) unnamed_addr #3 personality ptr @rust_eh_personality {
start:
  %self3.i = alloca [24 x i8], align 8
  tail call void @llvm.experimental.noalias.scope.decl(metadata !684)
  %_25.0.i = add i64 %additional, %len
  %_25.1.i = icmp ult i64 %_25.0.i, %len
  br i1 %_25.1.i, label %bb2, label %bb9.i

bb9.i:                                            ; preds = %start
  %self5.i = load i64, ptr %slf, align 8, !range !48, !alias.scope !684, !noundef !12
  %v16.i = shl nuw i64 %self5.i, 1
  %_0.sroa.0.0.i.i = tail call noundef i64 @llvm.umax.i64(i64 %_25.0.i, i64 %v16.i)
  %_0.sroa.0.0.i16.i = tail call noundef i64 @llvm.umax.i64(i64 %_0.sroa.0.0.i.i, i64 4)
  call void @llvm.lifetime.start.p0(i64 24, ptr nonnull %self3.i), !noalias !684
  %0 = getelementptr inbounds nuw i8, ptr %slf, i64 8
  %self.val15.i = load ptr, ptr %0, align 8, !alias.scope !684
; call <alloc::raw_vec::RawVecInner>::finish_grow
  call fastcc void @_RNvMs4_NtCsdJPVW0sQgAG_5alloc7raw_vecNtB5_11RawVecInner11finish_growCsarYwbBXrH4d_7walkdir(ptr noalias noundef align 8 captures(none) dereferenceable(24) %self3.i, i64 %self5.i, ptr %self.val15.i, i64 noundef %_0.sroa.0.0.i16.i, i64 noundef 56)
  %_35.i = load i64, ptr %self3.i, align 8, !range !687, !noalias !684, !noundef !12
  %1 = trunc nuw i64 %_35.i to i1
  %2 = getelementptr inbounds nuw i8, ptr %self3.i, i64 8
  br i1 %1, label %bb18.i, label %bb3

bb18.i:                                           ; preds = %bb9.i
  %e.0.i = load i64, ptr %2, align 8, !range !11, !noalias !684, !noundef !12
  %3 = getelementptr inbounds nuw i8, ptr %self3.i, i64 16
  %e.1.i = load i64, ptr %3, align 8, !noalias !684
  call void @llvm.lifetime.end.p0(i64 24, ptr nonnull %self3.i), !noalias !684
  br label %bb2

bb2:                                              ; preds = %bb18.i, %start
  %_0.sroa.5.0.i.ph = phi i64 [ undef, %start ], [ %e.1.i, %bb18.i ]
  %_0.sroa.0.0.i.ph = phi i64 [ 0, %start ], [ %e.0.i, %bb18.i ]
; call alloc::raw_vec::handle_error
  tail call void @_RNvNtCsdJPVW0sQgAG_5alloc7raw_vec12handle_error(i64 noundef %_0.sroa.0.0.i.ph, i64 %_0.sroa.5.0.i.ph) #27
  unreachable

bb3:                                              ; preds = %bb9.i
  %v.0.i = load ptr, ptr %2, align 8, !noalias !684, !nonnull !12, !noundef !12
  call void @llvm.lifetime.end.p0(i64 24, ptr nonnull %self3.i), !noalias !684
  store ptr %v.0.i, ptr %0, align 8, !alias.scope !684
  %4 = icmp sgt i64 %_0.sroa.0.0.i16.i, -1
  tail call void @llvm.assume(i1 %4)
  store i64 %_0.sroa.0.0.i16.i, ptr %slf, align 8, !alias.scope !684
  ret void
}

; <walkdir::WalkDir>::sort_by_file_name::{closure#0}
; Function Attrs: inlinehint uwtable
define internal noundef range(i8 -1, 2) i8 @_RNCNvMs_CsarYwbBXrH4d_7walkdirNtB6_7WalkDir17sort_by_file_name0B6_(ptr noalias nonnull readnone align 1 captures(none) %_1, ptr noalias noundef readonly align 8 captures(none) dereferenceable(48) %a, ptr noalias noundef readonly align 8 captures(none) dereferenceable(48) %b) unnamed_addr #4 {
start:
  tail call void @llvm.experimental.noalias.scope.decl(metadata !688)
  %0 = getelementptr inbounds nuw i8, ptr %a, i64 8
  %_11.i = load ptr, ptr %0, align 8, !alias.scope !688, !nonnull !12, !noundef !12
  %1 = getelementptr inbounds nuw i8, ptr %a, i64 16
  %_10.i = load i64, ptr %1, align 8, !alias.scope !688, !noundef !12
; call <std::path::Path>::file_name
  %2 = tail call { ptr, i64 } @_RNvMs16_NtCs5sEH5CPMdak_3std4pathNtB6_4Path9file_name(ptr noalias noundef nonnull readonly align 1 captures(address, read_provenance) %_11.i, i64 noundef %_10.i), !noalias !688
  %3 = extractvalue { ptr, i64 } %2, 0
  %.not.i = icmp eq ptr %3, null
  %_4.0 = select i1 %.not.i, ptr %_11.i, ptr %3
  %4 = extractvalue { ptr, i64 } %2, 1
  %_4.1 = select i1 %.not.i, i64 %_10.i, i64 %4
  tail call void @llvm.experimental.noalias.scope.decl(metadata !691)
  %5 = getelementptr inbounds nuw i8, ptr %b, i64 8
  %_11.i4 = load ptr, ptr %5, align 8, !alias.scope !691, !nonnull !12, !noundef !12
  %6 = getelementptr inbounds nuw i8, ptr %b, i64 16
  %_10.i5 = load i64, ptr %6, align 8, !alias.scope !691, !noundef !12
; call <std::path::Path>::file_name
  %7 = tail call { ptr, i64 } @_RNvMs16_NtCs5sEH5CPMdak_3std4pathNtB6_4Path9file_name(ptr noalias noundef nonnull readonly align 1 captures(address, read_provenance) %_11.i4, i64 noundef %_10.i5), !noalias !691
  %8 = extractvalue { ptr, i64 } %7, 0
  %.not.i6 = icmp eq ptr %8, null
  %_5.0 = select i1 %.not.i6, ptr %_11.i4, ptr %8
  %9 = extractvalue { ptr, i64 } %7, 1
  %_5.1 = select i1 %.not.i6, i64 %_10.i5, i64 %9
  %spec.store.select = tail call i64 @llvm.umin.i64(i64 %_4.1, i64 %_5.1)
  %10 = tail call i32 @memcmp(ptr nonnull %_4.0, ptr nonnull %_5.0, i64 %spec.store.select)
  %11 = sext i32 %10 to i64
  %12 = icmp eq i32 %10, 0
  %_8 = sub i64 %_4.1, %_5.1
  %spec.select = select i1 %12, i64 %_8, i64 %11
  %_0 = tail call i8 @llvm.scmp.i8.i64(i64 %spec.select, i64 0)
  ret i8 %_0
}

; <<walkdir::WalkDir>::sort_by_file_name::{closure#0} as core::ops::function::FnOnce<(&walkdir::dent::DirEntry, &walkdir::dent::DirEntry)>>::call_once::{shim:vtable#0}
; Function Attrs: inlinehint uwtable
define internal noundef range(i8 -1, 2) i8 @_RNSNvYNCNvMs_CsarYwbBXrH4d_7walkdirNtBb_7WalkDir17sort_by_file_name0INtNtNtCsjMrxcFdYDNN_4core3ops8function6FnOnceTRNtNtBb_4dent8DirEntryB1P_EE9call_once6vtableBb_(ptr readnone captures(none) %_1, ptr noalias noundef readonly align 8 captures(none) dereferenceable(48) %0, ptr noalias noundef readonly align 8 captures(none) dereferenceable(48) %1) unnamed_addr #4 personality ptr @rust_eh_personality {
start:
  %2 = getelementptr inbounds nuw i8, ptr %0, i64 8
  %.val = load ptr, ptr %2, align 8, !alias.scope !694, !noalias !699, !nonnull !12, !noundef !12
  %3 = getelementptr inbounds nuw i8, ptr %0, i64 16
  %.val1 = load i64, ptr %3, align 8, !alias.scope !694, !noalias !699, !noundef !12
  %4 = getelementptr inbounds nuw i8, ptr %1, i64 8
  %.val2 = load ptr, ptr %4, align 8
  %5 = getelementptr inbounds nuw i8, ptr %1, i64 16
  %.val3 = load i64, ptr %5, align 8
; call <std::path::Path>::file_name
  %6 = tail call { ptr, i64 } @_RNvMs16_NtCs5sEH5CPMdak_3std4pathNtB6_4Path9file_name(ptr noalias noundef nonnull readonly align 1 captures(address, read_provenance) %.val, i64 noundef %.val1), !noalias !701
  %7 = extractvalue { ptr, i64 } %6, 0
  %.not.i.i.i = icmp eq ptr %7, null
  %_4.0.i.i = select i1 %.not.i.i.i, ptr %.val, ptr %7
  %8 = extractvalue { ptr, i64 } %6, 1
  %_4.1.i.i = select i1 %.not.i.i.i, i64 %.val1, i64 %8
  %9 = icmp ne ptr %.val2, null
  tail call void @llvm.assume(i1 %9)
; call <std::path::Path>::file_name
  %10 = tail call { ptr, i64 } @_RNvMs16_NtCs5sEH5CPMdak_3std4pathNtB6_4Path9file_name(ptr noalias noundef nonnull readonly align 1 captures(address, read_provenance) %.val2, i64 noundef %.val3), !noalias !707
  %11 = extractvalue { ptr, i64 } %10, 0
  %.not.i6.i.i = icmp eq ptr %11, null
  %_5.0.i.i = select i1 %.not.i6.i.i, ptr %.val2, ptr %11
  %12 = extractvalue { ptr, i64 } %10, 1
  %_5.1.i.i = select i1 %.not.i6.i.i, i64 %.val3, i64 %12
  %spec.store.select.i.i = tail call i64 @llvm.umin.i64(i64 %_4.1.i.i, i64 %_5.1.i.i)
  %13 = tail call i32 @memcmp(ptr nonnull %_4.0.i.i, ptr nonnull %_5.0.i.i, i64 %spec.store.select.i.i), !noalias !710
  %14 = sext i32 %13 to i64
  %15 = icmp eq i32 %13, 0
  %_8.i.i = sub i64 %_4.1.i.i, %_5.1.i.i
  %spec.select.i.i = select i1 %15, i64 %_8.i.i, i64 %14
  %_0.i.i = tail call noundef range(i8 -1, 2) i8 @llvm.scmp.i8.i64(i64 %spec.select.i.i, i64 0)
  ret i8 %_0.i.i
}

; <walkdir::dent::DirEntry>::from_entry
; Function Attrs: uwtable
define void @_RNvMNtCsarYwbBXrH4d_7walkdir4dentNtB2_8DirEntry10from_entry(ptr dead_on_unwind noalias noundef writable writeonly sret([56 x i8]) align 8 captures(none) dereferenceable(56) %_0, i64 noundef %0, ptr noalias noundef readonly align 8 captures(address, read_provenance) dereferenceable(1056) %1) unnamed_addr #2 personality ptr @rust_eh_personality {
start:
  %_4.i = alloca [24 x i8], align 8
  %err.i = alloca [8 x i8], align 8
  %_5 = alloca [16 x i8], align 8
  call void @llvm.lifetime.start.p0(i64 16, ptr nonnull %_5)
; call <std::fs::DirEntry>::file_type
  call void @_RNvMsC_NtCs5sEH5CPMdak_3std2fsNtB5_8DirEntry9file_type(ptr noalias noundef nonnull sret([16 x i8]) align 8 captures(none) dereferenceable(16) %_5, ptr noalias noundef nonnull readonly align 8 captures(address, read_provenance) dereferenceable(1056) %1)
  %2 = load i16, ptr %_5, align 8, !range !711, !noundef !12
  %3 = trunc nuw i16 %2 to i1
  br i1 %3, label %bb5, label %bb6

bb5:                                              ; preds = %start
  %4 = getelementptr inbounds nuw i8, ptr %_5, i64 8
  %_16 = load ptr, ptr %4, align 8, !nonnull !12, !noundef !12
  call void @llvm.lifetime.start.p0(i64 8, ptr nonnull %err.i)
  store ptr %_16, ptr %err.i, align 8, !noalias !712
  call void @llvm.lifetime.start.p0(i64 24, ptr nonnull %_4.i), !noalias !712
; invoke <std::fs::DirEntry>::path
  invoke void @_RNvMsC_NtCs5sEH5CPMdak_3std2fsNtB5_8DirEntry4path(ptr noalias noundef nonnull sret([24 x i8]) align 8 captures(address) dereferenceable(24) %_4.i, ptr noalias noundef nonnull readonly align 8 captures(address, read_provenance) dereferenceable(1056) %1)
          to label %_RNCNvMNtCsarYwbBXrH4d_7walkdir4dentNtB4_8DirEntry10from_entry0B6_.exit unwind label %cleanup.i, !noalias !712

cleanup.i:                                        ; preds = %bb5
  %5 = landingpad { ptr, i32 }
          cleanup
; invoke core::ptr::drop_in_place::<std::io::error::Error>
  invoke void @_RINvNtCsjMrxcFdYDNN_4core3ptr13drop_in_placeNtNtNtCs5sEH5CPMdak_3std2io5error5ErrorECsarYwbBXrH4d_7walkdir(ptr noalias noundef nonnull align 8 dereferenceable(8) %err.i) #28
          to label %bb2.i unwind label %terminate.i, !noalias !712

terminate.i:                                      ; preds = %cleanup.i
  %6 = landingpad { ptr, i32 }
          filter [0 x ptr] zeroinitializer
; call core::panicking::panic_in_cleanup
  call void @_RNvNtCsjMrxcFdYDNN_4core9panicking16panic_in_cleanup() #29, !noalias !712
  unreachable

bb2.i:                                            ; preds = %cleanup.i
  resume { ptr, i32 } %5

_RNCNvMNtCsarYwbBXrH4d_7walkdir4dentNtB4_8DirEntry10from_entry0B6_.exit: ; preds = %bb5
  %_17.sroa.4.8.copyload = load i16, ptr %_4.i, align 8
  %_17.sroa.6.8._4.i.sroa_idx = getelementptr inbounds nuw i8, ptr %_4.i, i64 2
  %_22.sroa.3.0._0.sroa_idx = getelementptr inbounds nuw i8, ptr %_0, i64 10
  call void @llvm.memcpy.p0.p0.i64(ptr noundef nonnull align 2 dereferenceable(22) %_22.sroa.3.0._0.sroa_idx, ptr noundef nonnull align 2 dereferenceable(22) %_17.sroa.6.8._4.i.sroa_idx, i64 22, i1 false)
  call void @llvm.lifetime.end.p0(i64 24, ptr nonnull %_4.i), !noalias !712
  call void @llvm.lifetime.end.p0(i64 8, ptr nonnull %err.i)
  call void @llvm.lifetime.end.p0(i64 16, ptr nonnull %_5)
  store i64 -9223372036854775808, ptr %_0, align 8
  %_22.sroa.2.0._0.sroa_idx = getelementptr inbounds nuw i8, ptr %_0, i64 8
  store i16 %_17.sroa.4.8.copyload, ptr %_22.sroa.2.0._0.sroa_idx, align 8
  %_22.sroa.3.sroa.2.0._22.sroa.3.0._0.sroa_idx.sroa_idx = getelementptr inbounds nuw i8, ptr %_0, i64 32
  store ptr %_16, ptr %_22.sroa.3.sroa.2.0._22.sroa.3.0._0.sroa_idx.sroa_idx, align 8
  %_22.sroa.3.sroa.4.0._22.sroa.3.0._0.sroa_idx.sroa_idx = getelementptr inbounds nuw i8, ptr %_0, i64 48
  store i64 %0, ptr %_22.sroa.3.sroa.4.0._22.sroa.3.0._0.sroa_idx.sroa_idx, align 8
  br label %bb4

bb6:                                              ; preds = %start
  %7 = getelementptr inbounds nuw i8, ptr %_5, i64 2
  %_15 = load i16, ptr %7, align 2, !noundef !12
  call void @llvm.lifetime.end.p0(i64 16, ptr nonnull %_5)
  %8 = getelementptr inbounds nuw i8, ptr %_0, i64 8
; call <std::fs::DirEntry>::path
