; ModuleID = 'zmij.fd884459512651c-cgu.0'
source_filename = "zmij.fd884459512651c-cgu.0"
target datalayout = "e-m:o-p270:32:32-p271:32:32-p272:64:64-i64:64-i128:128-n32:64-S128-Fn32"
target triple = "arm64-apple-macosx11.0.0"

@_RNvCs1mlux5qRKEq_4zmij10EXP_SHIFTS = internal unnamed_addr constant [2048 x i8] c"\03\03\04\01\02\03\01\02\03\01\02\03\01\02\03\04\01\02\03\01\02\03\01\02\03\04\01\02\03\01\02\03\01\02\03\04\01\02\03\01\02\03\01\02\03\04\01\02\03\01\02\03\01\02\03\04\01\02\03\01\02\03\01\02\03\04\01\02\03\01\02\03\01\02\03\04\01\02\03\01\02\03\01\02\03\04\01\02\03\01\02\03\01\02\03\04\01\02\03\01\02\03\01\02\03\01\02\03\04\01\02\03\01\02\03\01\02\03\04\01\02\03\01\02\03\01\02\03\04\01\02\03\01\02\03\01\02\03\04\01\02\03\01\02\03\01\02\03\04\01\02\03\01\02\03\01\02\03\04\01\02\03\01\02\03\01\02\03\04\01\02\03\01\02\03\01\02\03\04\01\02\03\01\02\03\01\02\03\04\01\02\03\01\02\03\01\02\03\04\01\02\03\01\02\03\01\02\03\01\02\03\04\01\02\03\01\02\03\01\02\03\04\01\02\03\01\02\03\01\02\03\04\01\02\03\01\02\03\01\02\03\04\01\02\03\01\02\03\01\02\03\04\01\02\03\01\02\03\01\02\03\04\01\02\03\01\02\03\01\02\03\04\01\02\03\01\02\03\01\02\03\04\01\02\03\01\02\03\01\02\03\04\01\02\03\01\02\03\01\02\03\01\02\03\04\01\02\03\01\02\03\01\02\03\04\01\02\03\01\02\03\01\02\03\04\01\02\03\01\02\03\01\02\03\04\01\02\03\01\02\03\01\02\03\04\01\02\03\01\02\03\01\02\03\04\01\02\03\01\02\03\01\02\03\04\01\02\03\01\02\03\01\02\03\04\01\02\03\01\02\03\01\02\03\04\01\02\03\01\02\03\01\02\03\04\01\02\03\01\02\03\01\02\03\01\02\03\04\01\02\03\01\02\03\01\02\03\04\01\02\03\01\02\03\01\02\03\04\01\02\03\01\02\03\01\02\03\04\01\02\03\01\02\03\01\02\03\04\01\02\03\01\02\03\01\02\03\04\01\02\03\01\02\03\01\02\03\04\01\02\03\01\02\03\01\02\03\04\01\02\03\01\02\03\01\02\03\04\01\02\03\01\02\03\01\02\03\01\02\03\04\01\02\03\01\02\03\01\02\03\04\01\02\03\01\02\03\01\02\03\04\01\02\03\01\02\03\01\02\03\04\01\02\03\01\02\03\01\02\03\04\01\02\03\01\02\03\01\02\03\04\01\02\03\01\02\03\01\02\03\04\01\02\03\01\02\03\01\02\03\04\01\02\03\01\02\03\01\02\03\04\01\02\03\01\02\03\01\02\03\01\02\03\04\01\02\03\01\02\03\01\02\03\04\01\02\03\01\02\03\01\02\03\04\01\02\03\01\02\03\01\02\03\04\01\02\03\01\02\03\01\02\03\04\01\02\03\01\02\03\01\02\03\04\01\02\03\01\02\03\01\02\03\04\01\02\03\01\02\03\01\02\03\04\01\02\03\01\02\03\01\02\03\04\01\02\03\01\02\03\01\02\03\04\01\02\03\01\02\03\01\02\03\01\02\03\04\01\02\03\01\02\03\01\02\03\04\01\02\03\01\02\03\01\02\03\04\01\02\03\01\02\03\01\02\03\04\01\02\03\01\02\03\01\02\03\04\01\02\03\01\02\03\01\02\03\04\01\02\03\01\02\03\01\02\03\04\01\02\03\01\02\03\01\02\03\04\01\02\03\01\02\03\01\02\03\04\01\02\03\01\02\03\01\02\03\01\02\03\04\01\02\03\01\02\03\01\02\03\04\01\02\03\01\02\03\01\02\03\04\01\02\03\01\02\03\01\02\03\04\01\02\03\01\02\03\01\02\03\04\01\02\03\01\02\03\01\02\03\04\01\02\03\01\02\03\01\02\03\04\01\02\03\01\02\03\01\02\03\04\01\02\03\01\02\03\01\02\03\04\01\02\03\01\02\03\01\02\03\04\01\02\03\01\02\03\01\02\03\01\02\03\04\01\02\03\01\02\03\01\02\03\04\01\02\03\01\02\03\01\02\03\04\01\02\03\01\02\03\01\02\03\04\01\02\03\01\02\03\01\02\03\04\01\02\03\01\02\03\01\02\03\04\01\02\03\01\02\03\01\02\03\04\01\02\03\01\02\03\01\02\03\04\01\02\03\01\02\03\01\02\03\04\01\02\03\01\02\03\01\02\03\01\02\03\04\01\02\03\01\02\03\01\02\03\04\01\02\03\01\02\03\01\02\03\04\01\02\03\01\02\03\01\02\03\04\01\02\03\01\02\03\01\02\03\04\01\02\03\01\02\03\01\02\03\04\01\02\03\01\02\03\01\02\03\04\01\02\03\01\02\03\01\02\03\04\01\02\03\01\02\03\01\02\03\04\01\02\03\01\02\03\01\02\03\01\02\03\04\01\02\03\01\02\03\01\02\03\04\01\02\03\01\02\03\01\02\03\04\01\02\03\01\02\03\01\02\03\04\01\02\03\01\02\03\01\02\03\04\01\02\03\01\02\03\01\02\03\04\01\02\03\01\02\03\01\02\03\04\01\02\03\01\02\03\01\02\03\04\01\02\03\01\02\03\01\02\03\04\01\02\03\01\02\03\01\02\03\04\01\02\03\01\02\03\01\02\03\01\02\03\04\01\02\03\01\02\03\01\02\03\04\01\02\03\01\02\03\01\02\03\04\01\02\03\01\02\03\01\02\03\04\01\02\03\01\02\03\01\02\03\04\01\02\03\01\02\03\01\02\03\04\01\02\03\01\02\03\01\02\03\04\01\02\03\01\02\03\01\02\03\04\01\02\03\01\02\03\01\02\03\04\01\02\03\01\02\03\01\02\03\01\02\03\04\01\02\03\01\02\03\01\02\03\04\01\02\03\01\02\03\01\02\03\04\01\02\03\01\02\03\01\02\03\04\01\02\03\01\02\03\01\02\03\04\01\02\03\01\02\03\01\02\03\04\01\02\03\01\02\03\01\02\03\04\01\02\03\01\02\03\01\02\03\04\01\02\03\01\02\03\01\02\03\04\01\02\03\01\02\03\01\02\03\04\01\02\03\01\02\03\01\02\03\01\02\03\04\01\02\03\01\02\03\01\02\03\04\01\02\03\01\02\03\01\02\03\04\01\02\03\01\02\03\01\02\03\04\01\02\03\01\02\03\01\02\03\04\01\02\03\01\02\03\01\02\03\04\01\02\03\01\02\03\01\02\03\04\01\02\03\01\02\03\01\02\03\04\01\02\03\01\02\03\01\02\03\04\01\02\03\01\02\03\01\02\03\01\02\03\04\01\02\03\01\02\03\01\02\03\04\01\02\03\01\02\03\01\02\03\04\01\02\03\01\02\03\01\02\03\04\01\02\03\01\02\03\01\02\03\04\01\02\03\01\02\03\01\02\03\04\01\02\03\01\02\03\01\02\03\04\01\02\03\01\02\03\01\02\03\04\01\02\03\01\02\03\01\02\03\04\01\02\03\01\02\03\01\02\03\04\01\02\03\01\02\03\01\02\03\01\02\03\04\01\02\03\01\02\03\01\02\03\04\01\02\03\01\02\03\01\02\03\04\01\02\03\01\02\03\01\02\03\04\01\02\03\01\02\03\01\02\03\04\01\02\03\01\02\03\01\02\03\04\01\02\03\01\02\03\01\02\03\04\01\02\03\01\02\03\01\02\03\04\01\02\03\01\02\03\01\02\03\04\01\02\03\01\02\03\01\02\03\01\02\03\04\01\02\03\01\02\03\01\02\03\04\01\02\03\01\02\03\01\02\03\04\01\02\03\01\02\03\01\02\03\04\01\02\03\01\02\03\01\02\03\04\01\02\03\01\02\03\01\02\03\04\01\02\03\01\02\03\01\02\03\04\01\02\03\01\02\03\01\02\03\04\01\02\03\01\02\03\01\02\03\04\01\02\03\01\02\03\01\02\03\01\02\03\04\01\02\03\01\02\03\01\02\03\04\01\02\03\01\02\03\01\02\03\04\01\02\03\01\02\03\01\02\03\04\01\02\03\01\02\03\01\02\03\04\01\02\03\01\02\03\01\02\03\04\01\02\03\01\02\03\01\02\03\04\01\02\03\01\02\03\01\02\03\04\01\02\03\01\02\03\01\02\03\04\01\02\03\01\02\03\01\02\03\04\01\02\03\01\02\03\01\02\03\01\02\03\04\01\02\03\01\02\03\01\02\03\04\01\02\03\01\02\03\01\02\03\04\01\02\03\01\02\03\01\02\03\04\01\02\03\01\02\03\01\02\03\04\01\02\03\01\02\03\01\02\03\04\01\02\03\01\02\03\01\02\03\04\01\02\03\01\02\03\01\02\03\04\01\02\03\01\02\03\01\02\03\04\01\02\03\01\02\03\01\02\03\01\02\03\04\01\02\03\01\02\03\01\02\03\04\01\02\03\01\02\03\01\02\03\04\01\02\03\01\02\03\01\02\03\04\01\02\03\01\02\03\01\02\03\04\01\02\03\01\02\03\01\02\03\04\01\02\03\01\02\03\01\02\03\04\01\02\03\01\02\03\01\02\03\04\01\02\03\01\02\03\01\02\03\04\01\02\03\01\02\03\01\02\03\04\01\02", align 1
@_RNvCs1mlux5qRKEq_4zmij18POW10_SIGNIFICANDS = internal constant <{ [9872 x i8], [48 x i8] }> <{ [9872 x i8] c"\A9\1B\E3\B4\92\DB\19\9EB,8\EE\1D,\F6\FCh#`\8B\B1\89^\CAS\1C\80o\F4:\E5\A1u\E3\CC\F2)/\84\81\EFk\E1\EA\0F\E59\CF\F3\EFM\22s\EA\C7\A5(\F3\D7\81\C2\EE\9F\84A\B8\8C\9C\9D\173\D4\9A\C6\A3\E3Jy\C2\A9H\05\83\1Co\C7\CE\87t\088\C7\B1\D8J\D9\F69\93\D2'z\D5\AD\91a\0FB\86.\11\8BO\CFK\03\0A\E4\81\DEs?\D65;\83\01\B2\8F\FFD^/\9Cg\8E\E5\98\A1c\E5\F9\D8\E3\1DG\81\1CQ.G\B6~\D2\CD\16t\8B\D2\91\FD\83|$ \DFP\E9\FD\CF\96\83\E6\18\A7\BA\CB\0C\DF\02RzR\95x\14\98\04P]\EA\EE,\DD\AC\03@\E4!\BF\BD}\BD\CF\CC\E9\E7\98\C8bbL\E1B\A6\F4\07O\E8\09\815\B8\C3\D2\D8\B9\D4\00^\93\9CP\C1\8F\874c\85\FA@4\A6\9F\C3\B5j\C8f\C3Q\196^U\A0\85\CF\A7z^KD\80o\B2?\C40\12:\CD%\F52\D0\F3t.\A4\B7]\C2\D9\8F]X\83\8C/j\\\19\FC&\D2p\8C\EEI\140\1F\A8\C0\D6\BE\D4\A9Y\7F\863\F1\CA\BA\0F)2\D7)\F4;b\D9 (\AC\BA)c\1B\E1\B3\B9\89\F7uk\C5\01S\\\DC_^\BCj\01\DCI\B0\B2~cU4\E3\07\8DQd\D2\BBS8\A6\E1\DA\E9A\96\DC\F9\84\B4\E2\87\01E}aj\90\9D\0C\9C\A1\FB\9B\10\E7\17\0A\B0\E7b\16\DA\B8E;\F3R\82\AB\E1\93\A2+\85Q\9DE\9C\EC\82\BC\9D\A7J\D1I\BD\01\CA\17\86\08An\97\CF\DC\F2<\A7\01J\F2r}\F5c\1F\CE\D4\C1(1\91\E9\E5\A4\10\9B\DA\81\1B\DCo\A1\1A\F8H\CE\E2|Y\B4{\C6\06\A5\E8c\14]\C9\9E\D7\D4\0D\D3S\FB\0E\FE\13wqBv/?\CBB_\F4\01\C5\F2\98\A2\9B\B2\F6gj\F5\13\82,\84W\A6\10\EF\1F\D0V\03F\B8s\F2\7F\A6\DE5k\93\\(3\851Vx\85\FA\A6\1E\D5\8D\DE\F9\9D\FB\EB~\AAq\18\FB\17\96\89e\88\E8\F3\C4\8CV\0F<\DA \C3\D0\A3\ABr\96\AE\1A\9C@\B6\EF\8E\AB\8B\F6,4\BD\B2\E4x\DF\F8#\90\CA[\1D\C7\B2-\83\A6;\16\B1\05\8F\15\05\A4\92#\E8\D5\E4wj\B6\DB\82\86\11\B7,U\F8\E2\9Bkt\92\13U\8D\D1_\DFS\EA\0FD\A4\A7LLv\BB\D9\9C\B6\1F\0A=\F8\95\8E\94\8A\FF\DC\94\F3\EF?\DDn\CC\B0\10\F6\BFe\17\BF\D6\F3\A6\91\99\A2X\CB\8A\EC\D7\B5\F5N\AD\A2\08\8Ay\91\C4\A5\8A\E8\06\08.A\9D<D\A7\A4\D9|\9B\FB\FC\9CR\1D\AE0I\C90\17B\E4$Z\07\A1\F3x\CE\E9\83\AE\D2\80\B9\F4\E3B\06\E4\1D\CE`]\B6hk\B6\E4\A4M\E4\91 \89+\EA\83|\A0\1C4\A8E\10\D3\96\B3\E3\\S\D1\D9\A8x\\\E9\E3u\A7\14\87Z\FA\0E\D3\EF\0B!\D8{\FB\0B\DC\BF<\E7\AC/\C9<\E3\FF\96R\8A\18u\94k\99\F1P\DD\AD]\10V\14\8E\0D\B1$~s\DE\A9q\A4\8D:0\1F\97\DC\B5\A0\E2\C8Y\7F\12J^M\B5\A0\14\99\DB\D4\B1\0A\91\99\BA\C1\C5\87\1C\11\E8\E1.\CE7\06J\A7\B9\E7\8B>\C6\D1\D4\85\94\0C\13dp\1C\EE\A2\ED\D6\A8\E9Y\B0\F1\1B\BE\DES!{\F3Z\16\98\FER5\F8\EB\F7V\F3\FE\DB]\93\89\F9\AB\C2\CB|\B1B\A1\C7\BC\9BEa\8275\0C.\F9\D1Mh,\C4\09X\C7A> \BDi\A1y\9F\CE\963\C8B\02)\FF\A5x\\\D3\9B\CE \CC\84`\B0B\16rM\A3\9C\B3&\02E[\A4\82\C7\85\D7in\F8\06\D1l\D1\12\BB\BE\C68\A7Vtube\05\C7\85\F1\86Uj\D5;\0B\D6Z\D2\AA\EE\DD/<\AB\E2A\22\F2\17\F3\FC\88ji\D0\E9\BFQ.\DB\BB\BA\A6TfAX\AFb\95\B8C\B8\9AF\8CjU'9\8D\F7p\E0UD\EC`\D7\92\8D\B3\10\9DV\1Ayu\A4\8F\81.$*(\EF\D3\E5\CE\BE\E9TS\BF\DC\B7\D8\CB\87\DDu\FF\16\93Yy\0C\FC\22\FFW\EB\14ap\96\B5eF\BCC\E7Yx\C4\B7\9E\96\9F\0B\C3\F3\D3\F2\FD\F0\7F<\CF\8F\A9(\CB\C0\99c?\A6\87 <\9A[\9F\98\A3r\9A\C6\F6\16\19z\1C\C2\AEk\C5\AB\ADa\B0\01\BF\EF\9Dx\AF\02\E75\CB\B2\FC\93\BF\9B\85\91\A2(\CA\DC2\16\9E\A7\1B\BA\A1}\F5DK\B9\AFa\81.\EF\07\12\C2\B2\02\CF%\8C9\DB4\C2\9B\A5\B7\09.|]\9B|\84\F2u\16-/\92\FA\D3(+EW\BFA\95\A9\86\22\04y\FF\9A\AA\87\A4\9D\06(\FF\F7\10\D9\E9J\05 \CC,\A7\AD\EE;\04\80\D6#\EC\8A\E3_\A0\99\BD\9FF\DE\1C\B3\E6zd\19\D2\B1}\C2\EB\FB\E9\ADA\8E\94\9D\DF_vI\9C\E3\AA\17\E6\7F+\A1\16\B6\EE\12\B8\CC\22\B4\AB\91\17\EB\8CG\D1\B9\12\E9\DF\88=9tau\BA\B2\A0\97\FA\\\B4*\95\84g\BF].\BA\AA\EE\03\86\FFJX\FB\EE\BE\028\99\D5y/\BF\98\D1\8C[\EF\C2\18e\F4\0D\D7\E2%\CF\13\84\C3\D7x\B5\84r\A9i\9C\8C\F4\BB:\B7\A8B\FA=]\96\C8\C5S5\C8\FD\B0\DE\06k\A9*\A0dZ\E5k\22!\22\80\A1\90\08\137h\03\CD\E7\A6\D3\A8\C5\B9\02\A4\1F\1Fv\EDja5\83\FFd#\AFD\02\EF\D12\B7\82\F26h\F2\A7\C2\C5\9B[\92\86[\86\03\D6\92\92P\D7\F8\D6i\DE\DB\0E\DAE\FA\AB\BA~Ir\AE\04\95\89]dB\1D\17\A1!\DC\E4\E9\01\B1E\E7\1A\B0\1D\BB4'\9ER\E2\8C\94^T\D8\C9\1Dj\E1w\18\DDy\A1\E4T\B4\92\13\E4\C7\1A\EAC\90\1D\ECl\D9*\10\D3\E6\17\F0#\E1\BB\D9\A8\B8\DF\8C\E9\80\C9G\BA\93\FFzB\CE\A8?]\EC\FF\FB\01\A5 f\17\BD2c\CEPM\EBE\97\84k}\B4{x\09\F27\89\97\C3/-\A1\C1_\07FiYW\E7\9Ae\A5\09B\C2\8B\D8\F7\1DQ\A1\015\D6F\C6~\DAM\01\C4\11\9F\9Ec*\16\02\A0O\CB\FD\1CU\AB\01\80\0C\09\CBIw\EF\9A\99\A3m\A2n_\8C\15\AEO\F1\81\16\FFF\EF|\7F\E8\CFE\FFk\BF0\99S\A6\9E2#\99\C0\AD\0F\85\96\EA\D1\C1\CD\E2\E5\D4\DE\EE\A74>\82Q\AA\B2X\86\90\FE4A\88\E9\8Dp\1Ad\EE\01\DA\87q\C0\AE\E9\F1g\AEl\F4\99X![\86\8B\E1S\F6\C0\9B^=\DF\E7\0F\C5\00\E3~\97\B2\EC?7\9A\B5\98\DF\8Ez\99\8B\C3U\F4\98\E4.\E1\A2\CFw\C3\E0\B6X\E7\1B\A6,iM\92&r\F9<\14u\15\EA\1F(a\CA\A9]D\BB\E5\EC\80;\EEJ\D0\95\A2\14\9B\C5\16\AB\B3\EF\E8v\E2jE\EF\C2\BF _\E8\BBj\BFh\99\00e\0D\93wet\F5\9A\1DqB\F9\1D]\C4{\E4\C0\CE-K\17\9D_:\CEJIxX\FBL\C8q\D5m\93\13\C9\D69\8Ew\F1u\DC\A0xa\0B\C6Z^\B0\80&\CF\AB\09^\FD\E6\CDR?V\A1\B1\CA\B8\A4\DBe\AB\1A\8E\08\C7\83+\D6\AB*\B0\0D\D8\D2\BC\11#\22\C0\D7\AC\A8\FD\DA\E8\B4\99\AC\F0\86\FB\F7\DA\87\8Fz\E7\D7\96\F9{9\D9.\B9\AC\AB\C7\FC-\14\BF-\8A\12\D9\FA\AF\86\FE\15\DD\A8\AD\C8\8C8e\DE\B0\EC\8A\A0p`\B7~\8D\14\AB\CDM\9AXd\E2\DD\88\A4\A4\AE\13\1D\B5J:\1D\EA\BE\0F\E4\90D]\C8\A9dL\D3\E76\E49\EE\B6\D6u\B9\F8\1C\FB$_E^\94'\FB\C4\D41\A2c\ED\EC\C8\D0C\8EN\E9\BDV:\DA\CFq\D8\ED\97\8A\90\C3\7F\1C'\16\F3\D5\A6\CF\FFI\1Fx\C2w\85\0C3;L\93\9B\8B\D5\E0\84+\AD\EB\F8\D6\AA\80\9D\EF\F0\22\C7E\22\9A\17&'O\9F\08j\C3%p\0B\E5\FE9\BB\02\EB\8Co\EA\CB\C7\95h\22\D7\F2!\A3\9FD\ED\81\12\8F\81\82e\07\E2\CFPK\CF\D0QlN\A6@<\0C\A7A\F0q\EBfc\A3\85h\80\E9\AB\A48\D2\D5S\00\EE\EF\B6\93\0E\AB\0F\CD$\F3+v\D8\88L{\D4QF\F0\F3\DA\D6\95C\0E\05\8D)\AFE\DE\02\A5\9D=!\8Cn0\9E\A1b/5\E0\8B\F3\E4\1A\82\BF]\B3o\\\EA{\CE2~\8F\19\C7C\C6\B0\B7\96\E5\AD\05\03\05'\C6\AB\B7\BE7\CF\D0\B8\D1\EF\92\FD%\E5\1A\8EO\19\EB1\EBP\E2\A4?\14\BC\F4\88\0D\B5P\99v\96 \DBH\BB\1A\C2\BD\F0\B3\15\07\C9{\CE\97\C0\\\11l:\96\0B\13\9A\C6\1B\E0\C3V\DF\84\F6\05\E3L6\12\197\C5\9D\B5p+\A8\AD\C5\9D\96\22\81E@|o\FC\DENg\04\CD\C9\F2\C9\E5\0B\B96\D7\07\8F\A1\84\09\94\F8x9?\81:\0F \F4'\8F\CB\CE\C8\A5\19\90\B9\A5o\A5\A0\84\14@aQY\84\00\A1\ED\CC\CE\1B\C2\D3\00\B4W\0A?\16h\A9\00\90\ACn2x\86\87\00\80z\17\B7&\D7\D8\00\00b\AC\C5\EBx\AD\00\00\E8\89\04#\C7\8A\00\00@v:k\0B\DE\00\00\00\C5.\BC\A2\B1\00\00\00\04\BF\C9\1B\8E\00\00\00\A01\A9_\E3\00\00\00\80\F4 \E6\B5\00\00\00\00*\E7\84\91\00\00\00\00\10\A5\D4\E8\00\00\00\00@\B7C\BA\00\00\00\00\00\F9\02\95\00\00\00\00\00(k\EE\00\00\00\00\00 \BC\BE\00\00\00\00\00\80\96\98\00\00\00\00\00\00$\F4\00\00\00\00\00\00P\C3\00\00\00\00\00\00@\9C\00\00\00\00\00\00\00\FA\00\00\00\00\00\00\00\C8\00\00\00\00\00\00\00\A0\00\00\00\00\00\00\00\80\CC\CC\CC\CC\CC\CC\CC\CC\0A\D7\A3p=\0A\D7\A3;\DFO\8D\97n\12\83+e\19\E2X\17\B7\D1#\84G\1BG\AC\C5\A7\B5il\AF\05\BD7\86\BCBz\E5\D5\94\BF\D6\FC\CEa\84\11w\CC\AB\97\A5\B46A_p\89\BE\D5\ED\BD\CE\FE\E6\DB\FE\AA$\CB\0B\FF\EB\AF\CB\88Po\09\CC\BC\8C\13\0E\B4KB\13.\E1\0F\D8\\\095\DC$\B4\D9\AC\B0:\F7|\1D\90[\E1M\C4\BE\94\95\E6I\B4\A462\AAw\B8\07]\1D\92\8E\EE\92\93\A5a\95\B6}J\1E\EC\EA\1A\11\92d\08\E5\BC\EE{\DAtP\A0\1D\97\B1,\F7\BA\80\00\C9\F1'\8A\92\95\00\9Am\C1R;uD\CD\14\BE\9AQ\C5\EE\D3\AE\87\96\F7\DA\9DXv%\06\12\C6H~\E0\91\B7\D1t\9E\0D\CA\00\83\F2\B5\87\FD>;\9A5\F5\F7\D2\CA1\FC\14^\F7_B\A2\F4\FCCK,\B3\CE\81\BA\949E\AD\1E\B1\CFa\DD\FA\D0\BDK'\A6\B4Jb\DA\97<\EC\84\87w\D0\C3\BF-\AD\D4\D2\92si\99$$\AAuu\\T\14\EA\1C\88U\22\C7S\ED\DC\C7\D9w\1Bl\A9\8A}9\AE\C6\E2\BC\BA;1a\8B\A37.\91_\E8\01\DF\1C\C6\F1@\19\EDg\B2\E3\04[\9Az\8A\B9\8E\05;+*\C4\10\\\E4\D1\C8U\BBi\0D\B0\B6\0D\07\ABb!q&\92\AFq\DE\9Dh\1B\D7\E9Y\C1~\B1S|\12\BB\AD\9A\98'vc\A8\95|\F7\C0\A5V\D2s\EF\96_\9A\84x\DB\8F\BF\AB\7F{\D0\C6\E2?\99\DFe\92Mq\043\F5L\1Eu\A4Z\D0(\C4=\18\C4\B6{s\ED\9C.\8D\06\BE\92\85\15\FB\8B\0A\D2du\04\DE\C8\D6n\0E\B7*\9D\B1\A0\11\BF>_U\17\8E\80\B611eU%\B0\CD+\8EZ\B7\AA\EA\8C\A4\89>\15\F9\EE\EE\A3\83\0Ed\88\8E\B1\E4\9F\D2\A5\E99\A5'\EA\7F\A8\EA\BA\94\EAR\BB\CC\86w\91\87\AA\84\F8\AD\D7\C5\DA\D2\EE6-\8B\ACk\15\0F\BF\F8\F0\08\8AD\22\18\98'\1B\DB\DC7\E8\ACy\ECH\AF\B0_S\8A\94#\07Y\8D2R\DD l\0B(\E2(\A8J\1A\F0\D5\EC\B4\B9\B9;H\F3w\BD\90\C2\C2\92s\B8\8C\95\E7\CE\9B\A8\8F\93pD\B9\0B\E3\86\0Cv\C06\94\138>G#g$\ED\0F`\CB\05\E9\B8\B6\BD\A5\19\09k\BA`\C5\97\A2\C2A\AB\90g\D5\F2\1B\02\9B\22\DARD\C2|\CEH\B5\E1\DBi\9B\94}t\88\CF_\A9\F8C1]\A0?\E6\ED\C66\F4\B0\E62\B8$\9F\BC\86\81\D7\B7&\A1\FE\CAk4y\F9\1E\B4\CB;V\90\FA-\7F\F6\A2/xs\C8$\CC^\82\B2&\1F\A7\07\AD\97\D0\8E\B8\E5\B8\9F\BD\DF\A6\A5\93\84-\E6\CA\7F\85\A2R\07|\A3D\99\D5\81\A8\D2\FC\B5\03\E1\AA\9BSu\FD\F7\02\B4\88\C4\85\88\95Y\9E\B9\DA\03k\A0w\14\E5\FA\AE6\EF\19\C6v\EA\FB\8B\BD~)p$w\F9\DFdeT\F3\E9\F8-\B3\B6\EA\A9\C2T\FAW\8F\BD\AA\DC\9D\87\90Y\E5\CB\BB\E3\17\06\DAz\B7o\C9OFk\AE\C8\92\E5\DB\B2\A3\AB\B0\DA\EA\EA\AF(\B6\EF&\E2\BBU&\BA\91\8C\85N\96\88p\C3\82z\A2}\F09\8D\CF\9B\FB\81d\C0.\A4?\16\96\01\EA\99}\D3e\F0\BC5C\F61\A9\84\F3c\91\02\C5\C0\ED6)\83\A7\9B\9Dg|\F1A8?,\FCR0\C14`\FF\BC\C9\A8&4*\80\FFc\A1\87\B8)\88f\CC\1C\81>'\A9\A6=z\94\CE\FE\B8\ED\1E\FE\94C\A5\CB`\F1K\CB\106\84y4\82yx\B4\89\D3-]\9B\C7\C6\F6:\A9\8BJ|l\05_b\87Dw`z\D5d\9D\D8\9D\92\B3.\11\B7J\AD\E4\0E\F6\BE\0D,\A2\8A\A0\E4\BCd|F\D0\DD\B3\83\FD\B6\96ks\B1\8F\9C\97\C5\AB\EF\F5\8D\E6`\BF\D5\12\19#\E3\B8\80\FF\AA\A8\AD\B5\B5`\CD2\EF\86$^\91f\15\1E\E5\D7\A0\96\E8\EB\DD\E4PF\1A\12\BA\EF\17\B7@8H\DB\94\7FY\8Bg\C0\A6+\EEe\14\09\863R\89\BE\B7v:k\\\DBm\98&\F1\C3\DE\93\F8\E2\F3\B8\8Di\E5\0F\FA\1B\C3->!Q\A6a\16\9C{ch\1B\0Ai\BD\F9\C8\82S|n\BA\CA\C7\D3\9B\0F\FD\F1a\D5\9F\1F\C6\E5\94\E9\CF\BB\FF\B3\D1\B7\10\EE?\96\CC\F5\DA_\0DXf\AB\A3\C4H\E6=\13\85\EF\82\A0\A7\A3\FCQ;\7F\D1\E7R\E9\96A\FC\98\A7\85u\87E\01\FD\13\86\A2Ur\A2\9Ba\86\D6O\11\F5\81|\B4\9E\ABr\A7]\CE\96\C3K\89\83\A5b}$l\AC\DB\CF\EANdP#\BD\AFsUr\83sO\97\8C\B8\88P\D2\B8\18\F2\E0\93\A0s\DB\93\E0\F4\B3\DC\E6\C2\E2\0F\1A\F7\8F\FA\0Ak\04\B3)X\E6\FB;\EFi\C2\87F\B8\95\C9%\BB\CE\9Fk\93V\0F\D6\91\17f\DF\EB\DE\A5\11\DB\12\B8\B2\BC\E5\B7\A7\15\0F`\F5\96\A1\8C?\BC\B1\99\88\F1\E7\D620\8E\14:\C1\B9x\F5\8C>\DD\94\9A(\C1\88\E10\95T\F7\BA\CD\D3\1A'D\DD\C5.>v\15\EC\9CJ\9EJ0\BD\88F.D\FD;\C0\FD\06\D2\F1\9C\CA/\00\CB8\DB'\17\A2\BF\99\D5\93\E2\1F\AC\81\CC\C2U\B9\9D\CCy\CF\09\CFw\C7\17\0A\FB\A5;?\C6\D2\DF\D4\C8\84+ep\84\CC\87t\D4\BC\1D\8D\03\0A\D3\F6\A9\C9\17\A4\CF\D4\A8\F8\87v\8C\06\19\EE\DA\8D\D9^p8G\8B\15\0B\AE~\F3\F98<\11<\8B1\1F\C3\F4\F9\81\C6\DE\8D\B25*\FBg8\B2>\F5*\88b\86\93\8E\CA\EEwsj=\1F\E4\08\BF,)Ud\7F\B6\06\CC#Tw\83\FF\91\D7\AC\9F\86X\D2\98\E9\12W\19\D2F\A8\E0\BA\0E\ACz\0E\9F\86\80\95\E4\AC*\17\98\0A4\EF\B6\F0\EExF\D5\\\BF\C5\F3\8B-\05\11\17\99;\B9\AC\15\D5\B4\F1\F4\FC`\BDw\AA\90\F4\C3c\1A1\C6\EE\A6\C3\9Cl]\1B=\B1\A4\D2\FA\F0}\AF\FD\C0\83\A8\C8\F3\97\BF\97\CD\CF\86\A0\F6\DF2Fq\D9k\80VfQp\E8[y\CDx\EB\0D\8DS\16a\A4`\BC\A4=\A9\DE\80\83f-\A1b\A8\CAg\D2\EB\BDM\B5\86\08S\A8\BCdq\F7\9E\D3\A8\86\C7:\82%\CB\85t\D79b\9B\B7\D57]\AC`\1BI\F9\AA,\E4\89g\C5A\F5wG\A0\DC\EC\9D4\C4,9\80\B0\BD\E4\F6\9C\F0`3\8D\FBm\F1\C7M\CE\EB\E1c\BEZ\06\0B\A5\BC\B4O\98H8o\EA\96\90\E5&t\C0~\DDW\E7\84\85\F6\99\98\17\13\B96\D1^\AE\13F\0F\94\BDN1J\EC<\E5\EC1r'\08\BD0\84\BDZ[\ECl\CA\F3\9C\97\C4+z\E1C\B9\94\F26V\FBM6\94\10\C2\F8D\FC\D7\91v@\9B\C0\D4\C6\8C\1C$g\F8\9A\10\9Fp\B0\E9\B8\C6\E1\A6\E5&\8DT\FA\9E\02\0B\09\0B\15T]\FEh\A2m\A2\DD\DC}\CB\ED\81$\B5\17\17\CB\A2W\CE\B6]y\12<\82\8B\B0W\FC\8E\1D`\D0o\C0\DF\C9\D8J\B3\A6&\CD\7F\A1\E0;\\\85\D6\E12\CF\CD_`\D5x\81\F5\D8\D7\7F\B3\AA-\01^zy\99\8F\88Hh\96\90\F5[\7F\DAmSx@\91I\CC\AE\BDB`\00A\A1\D6\8B\C9j\00g\CE\CE\BD\DF\07\EF\99\85\0B?\FE\B2\D2X\AE7\09\CC1\8F\84\F4\16Y\A8y\1C\E56]\12\14\ED\FAI\B7_\17uv\8A\95\A1\92\CB\8B\EE#w\22\9C\EA\A2<%\83\92\1B\B0\BB\B5c\B75u|&\96\88\9FX\BC\EE\93=\F09\19zc%C1\C0\FB\E0\94O\84\02\C1\99+\9BT\7F\A0\9D\01\F6\22|\10\99\B3\17\CE\C4\B5\C9\A6\AD\8F\ACq\9D\22\A9\D7\15\19\14\E9\FBN\87\ACDGC\87\C9r\9F#j\9F\029\A1\8E\7F\1C\88\7Fh\FA\80\E3\98-@\FFs]\CE\B6\E0\8Af\FF\8F\17\A5\91\80\D5\1E\99\D9\12\84\83\9AU1(\\Q\D3\02\E2\AAZS\E3\0D\A9hN\22\E2uO>\87@J\9D6V\B2c\D8f;\E4^\AB\8E\1C\ADR\FC\1C\7F\EF>}\8A\1D\FA\C71\7F1\95\DDJ\FB\9F\F4\98'D\B1;\FC\7F\90\AD\1F\D0\8D\F9\F9\FF\B3\15\99\E6\E2-\FB\FF\8FDG\85\B5\BE\95\99\D96l7\91\C9\22\\\8F$\ADX\E8\07O\E3\A5\83\8A\E0\B99?\1C\EB\02\A2\B3\94\8F\CB\C6\11k6\EC\ED\0C\D6kA\EF\91V\BE\D6DV4\8CAE\98\8A\D4V\EDy\02\A2\F3\D5vE$\FB\01\E8\C2w\C5j\83b\CE\EC\9B%oD\D2\D0\E3z\F9\1D\8C\03u\0D\83\95\C7\B1\096\F7=\CF\AA\9FO\DC\BC\BE\FC\B1w\FF\D1F\83j\C2\A2\07l\B5\D7\9E\DD\03\9ErF\C4\DFK\B1\9C\B1[8\D0\7F\09\C1\E3ZI`@f\D4\00\83\15\A1\E6\00\0A\874k\22h\D7\00\08l\90\22\B5\B9\123\D3\BC\A6\1B\C4\C7\DB\EBQa\A4\92\06\A6_\22\DBMPu8\EB\B2\B5\15\0B\0D\91\93\22\8F\BC\22x\AE\81R7\18c\B5\F9\F1\9A\DB\C5y\82\F7\FA'\AF\AF\04\FB\D1X^\A6~\7F\07\F8\DA\13\E5Qe\CC\D2,Hv\EA\A7\EA\09\0FW\A6#w\D9\DD\0F\18XR\E9\F8\AD\E4?\13\E0AT\FAW\1D3\DCLi *\F3.\B8\C6G\BA\E6T\8F%`\05\D3\C8\EBC\0C\1E\807\0Ft\ACl\E0\FC\CCX\18\C3V\BD\E6c\0AG\E0\9Cx\97\B8\1C\D58\80\FA\C0X'a\BB'\CD\C8\00G\EC\80/\86\0A\D33\9FV\9A\BF\D1nQ\B9\FE\F0\F6\98O\B1\A7\FA\FE\F3+G\D9\8D\1Fb2\C3\BC\05\E1\D7\B3\81[\CFc\D1\80y\EB5_\E5\D2\1B\CE(U^\7F\B7\A8|>\BA\AB~\FF\C5S\FD1\C8\111\FFo\EC.\83stZ\FF\BFV\F2h\\]H\CC\CC\AB\8E\EDI\95@\ADGy\17|\A9D\CD\BD\9F\FAEcT\9D\0A\CB\7F\C8\04\E9\A9\FB\10x\CC@\A1Avb\DA,=\9A\1A\CE\91\E8\E1#d{H\0B\DBsi9\A0\F8sx^\F6\ED-\80`\F6\F9\B1\C5$\8Bf\80+\FB'\D4:x\0Ag\12\C5\0CCb\93;\1Fuj=\03\B5B\C9\E5\90\BB\CA\9E!\D1\0E\D6\E7\F8\DD\18N\A7\D8D\86-K\13\D8\85\E0\03\05\BE\D5\EC\8C<g9;c\BC\F0\A3c\1Fa/\1C\FD&\83\1C\19\B4\F2|\CA\0A\05\94\8E\86\B7\94\DD\D5\D0\DC>\05\C6C\B1\AA@J2\0486\F4\10\01\AA\83\D3\8C#\EDs\9A!6\A9p\1C$\8F{\B4\91\BA\F3I\83s\FC)\0Eb);\9C\85-C\B0iu+-7\F1h\F3\BA*\89\8A_'\87\8F\95\88:\D5e\A5>\7F\22t*U\B7\EA\FE\98\1B\90\BB\DD\92\88ez|\A6/~\1Et\A2\90-\D7\E5\C9\B1)\B5s$\AC\84\A1\8ET\F7\C2\B6\89\D0\1A\16T%k$\A9M\91\12\10Q\EF\E9 >t\0E@\A7\F2\87M\CB)J3\A5\EA?\AF\AB\0F\A1\C2\1D\223\8C\BC?\B4\9B\E4\B4\F5<\FD2\ED\C5m!\89a\C8\84\F17\BE\1A\D4\1Am\9D\8E\F9d\15\10\AF\BDJ\B0\F5\07\EFLK\FC\DD\F3*\D3X\0A\09\FD\17)\EF\A8\E0\A1m\CA\AC\DB\B1tgi\AF\10\AE\E2'*\B9\BA\F2\A6\F1N\86\EE`\95(\1F\8E\B1\A3}\01\EF@\98\16'\B6\97g\F23\E0\DE\1F\F8\12\86[\F6L\B2\19`Bk|+\D7\C1\8Ef\9D\AB`\12%6?\85\17VM\A8\1D\F82\04F\AB\0A\EDJ\93P\A0\09\12\11H\DE\1E\0DM\A1A\A79\18\7Fq\0A\814\EC\FA\ACeN\AA\01T\E0\F7G<\0BU\01\10M\C6lco\AA\9A\D9pk\BD\82\19w\F7(N\12/\D1G_,\87>\A8%t\D2\E5\89\D2\FE\EC\EA\\\1D\D6\0F\84d\AED.K\AB\0C\D0\B6\BE\03%\A2\22\0A@\92\98\9C\1D7\04\DD\CC\B6\8D\FA\C8\926\17\D7+>\95m\A8+\ACEV\CB\DD\8As\DFyo\F0\DEb\11\\L.Y\C0\18OtJp\8Bz3zr\C3CM\12\C4\B8\F6\83\055\A4\0E\D0\93\F8\CFj\91\B6\0B@v`\A6\88\82\8A\DF\CCV\9Ap\A7h\08\E6\A3x{\C0R\86\D3\84\E9\C6b\00\0FqR\A1uq\04g~\F4A\B4\F7\8D\03\EC1\90\01]\F9\D7\02\F0's4\17aF\02\C0\ECR\BA\BE\01\D763\E1\DBae\01\AC\F8(\B4IN\84gV-\87\F6t\B0\D3\D8#\E2q\8A\C3&v\AD\1C\E8'\D5\03\1F\F8\BD\E3\EC\1FD\9E1\C0\FC\05{\99\06\B2'\00\97\D1\C8z8\8E\EC\CCxtm\95\93\17\14{\F4S\E2\BB\85\AC\A9\95\C3\DC\81\C97\BC\87Di}\01n\F9\FA\A5m\A8\C8h\16\8F/\EB\8ASm\ED\11\0C\F2\88\D5B$\F1\A7\09\EA\A7U\D1\06\B5\0C\A9\EE\1F\DE\0D\9F]=\87%\B3\B1\A4\E5Jd\9F\D5Q\1C\A1\A2Dme\DD\A7\16\B4\1BjW\84K\86x\F6\E2T\AC6E='W\9ET\AD\8A\D0\FD\B8E\18\AA\8A\08\A7d\FAj\13\88\08:>\D4\C3DRs\DA\\\FE\DC\CF\03u\8F{}2\17si*\D9bd\F5x\C2\BA\EE\E0\1B\1D\BB\F4\03^\E4g\F9\94\95\90i~\83\B9\FAC\11\DA\BA\FE5a\95i\E8\\\91\97\89\9B\88BSJt\AC\07\16:5B\08]\F0\D2D\FB\90\04\DA\94\80Q\A1+\1Bj\AE\10\9A\A7\1AV\AFTX\0DH\B9{\DE%\BB\F3\AE\D9\8E_\CAo\C8\8F%\AE\D8\B2nY\07s\84\BE\13\8FX\14\0B\B8\A0\FD\85~Z\ED\09`M1k\98{W:\B3\0A\C1U\E0b\AC]\B8\AA\01V\CD7z\E4\F9\EE\9A\11q\F9\94\83a\F2{tZ\94\DD8\CF\83\F9S*\BA\95\FA\D8\CF\FA\0FU\FB\AAaz\D9\FB?w/\EFi]\C2_fX\B2~\BAJh\19\85\13\F5\FE\FBnS\14\04v*\FF\F9\17\1F\BA9#w\CB\C7\AC\E5\94\94\82\92ol\BD\B7\10\AA\9B\DB\F2\89\97,\DATII\C2\0F\8Cz\C3\87\A8\DB6\A6\09b\9Cl \16_\B8\07\E8I\BD\E6D\7F&\D9\0CC\95\D7\072\1E\14\D7hw\ACl\8E\B2\A9E\BA\92#\8A\0B\B6B<]\84\D2\A9E\92hc\17\9D\DB\87\04\A8S\1CyJI\06js\1F\FA\F4Cupv\8F\7F.\F7\CF]\C0^\0CfX_\A6\E4\99\18z\D6\F3\FE\D6m)\F4\FB\11\C3\98E\BE\BA)/\DBh\AD7\98\C8\87\E5\91t\15Y\C0\0D\A6\84A]DG\00\0B\B87\01\B16l3o\C6\BE\CE\B4\8A\13\1F\E5\A3\98\D8\C3;\A9\E5P\B6\E0F6\96\BA\B7@\F8\9A\A4#\BD]\8Cg\C0\AE\83\1Cd\B1\D6R\00Xi\B0\E9\8Dxu3&B\1A\A9|Z\22\1F\B8\01\15T\FD\E1\81\B2\FA\9A\DD\DC\FD\E7g(\F6\F7\C8\C7/s\D9s\C5,\07\D3\BF\F5\AD\\\9D\F08\0F3^\BE\E3~\C0`?\8F~\CBOc\9Age\18d\12\E6\1C\15\86\B7F\83\DB\84\B0\DD\04\C6k\CF\E2\03\1A\C9\07p\AC\18\9El\15\D4\9FY\F0FK\BD\DD\DC\7F\14\8D\05\091\95\94\CC Ho\0E\E8\11\AA\A3\80\06Y\D8\ECt\EE\82\00\D2\E0y\BD\ED\E37g\B6g)/W\B6,\EC\91\EC\EDX\AC^\BD\89A\BD$GGd\95\0F\9C\FBm\0Bl\83w\0C\B0/\8BoV\9C_p&&<Y\BD\932\1A\D7\09-\F5\97\DC\8E\AEEn\8A*\12JrX\D1\F1\A1\BB\1E\10\EA\F3N\E9\CF\C5~\A6!\C3\D8\ED?\9E\CB\1EN\CF\13\8B\99~yd\E3~\ECD\8F\CA\94\83O2\BD\D0\A5;v\9C?(d\0D\EBb#\C7e@\A0H\AB\04\E98\1E\CD\19:\BC\03!\C7\B1=\AEaci\B4\05[1X\81OT\86o^\B5&\02L\ED8Y\18\91\B8\01pW\FA\E0y\DA\C6g&y\90\01\C3\90\A4?\0A\F5\0C\CEh\0D\EA2\08\C4\A3q\ED=\BB(\A0i\06\E9{\C9^t3\DC\04T\96\07\7F\C3\C2I7Cxl2i5n\BE\9E\F3\13\B7\0E\EFI\CBK)C_\A5%;\A2<T\CF\E5\1D\1E\FC\D1-\ED~<\96\96\C6A\BE\BD\98c\AB\ABk\CD1\FEF\E9U\89\BC\16\B6\96q\A8\BC\DB`D+\12\8ES\FD\E2\B3j\EFt>\A9\CA\E8\8F\DDK\EEc\A8\AA\A7L\17\A3\BE\1C\ED\EER=\AC\B5\CB\E3\F0\8Bu\97z\EFE9NF\EF\8B\FB%k\C7qk\BF</\EB\88\9F\F4U\CCc\B2\DE\A7e\87\89\E0\D2\F5~\B9\B7\D2:MB\90e\94,Bb\D7\01\B4\D5SG\D06\F2\02\90Dv\9F\A6\F8\F4\9B\0Dj+\19R-\F7\AF\A4!\89z\0E\F1\F8\BFm\CFA\F7\E3\B4\F4\FF$\D9g_\B6\90\90\99PG\86\7F+\DA\A6G\80\D8\D6\98E\90\A4r\00zEz\04\0D\EA\8E\00\C8j\FBi\0A\88\A5\00@\11_v\DD\0C<\00\00A\7F+\B1p\96\00\004\CC\22\F4&E\00\00 \AD7 \0B\D5\00\00\80\8A,\80\A2\DD\00\00\00\A2#\00\82\E4\00\00\00\D0\05\CD\9Cm\00\00\00@\9E=J\F1\00\00\00\00\E5\CA\A1Z\00\00\00\00\08\AB\CF]\00\00\00\00\A0U\D9\17\00\00\00\00\80D\14\13\00\00\00\00\00\D4\86\1E\00\00\00\00\00\10\9FK\00\00\00\00\00@\7F<\00\00\00\00\00\002\C7\00\00\00\00\00\00(l\00\00\00\00\00\00 \F0\00\00\00\00\00\00\00M\00\00\00\00\00\00\00\A4\00\00\00\00\00\00\00P\00\00\00\00\00\00\00@\00\00\00\00\00\00\00\00\00\00\00\00\00\00\00\00\00\00\00\00\00\00\00\00\00\00\00\00\00\00\00\00\00\00\00\00\00\00\00\00\00\00\00\00\00\00\00\00\00\00\00\00\00\00\00\00\00\00\00\00\00\00\00\00\00\00\00\00\00\00\00\00\00\00\00\00\00\00\00\00\00\00\00\00\00\00\00\00\00\00\00\00\00\00\00\00\00\00\00\00\00\00\00\00\00\00\00\00\00\00\00\00\00\00\00\00\00\00\00\00\00\00\00\00\00\00\00\00\00\00\00\00\00\00\00\00\00\00\00\00\00\00\00\00\00\00\00\00\00\00\00\00\00\00\00\00\00\00\00\00\00\00\00\00\00\00\00\00\00\00\00\00\00\00\00\00\00\00\00\00\00\00\00\00\00\00\00\00\00\00\00\00\00\00\00\00\00\00\00\00\00\00\00\00\00\00\00\00\00\00\00\00\00\00\00\00\00\00\00\00\00\00\00\00\CC\CC\CC\CC\CC\CC\CC\CC\A3p=\0A\D7\A3p=\E9&1\08\AC\1CZd\A8\A4N@\13a\C3\D3S\1Dr3\DC\80\CF\0F\0F\B1\C1\C2I\9A?\A6L\1Bi\04v\902==|\BA6+\0D\C2\FD00\95\F8\88\0Ah1\1BM\88Z\0EDs\B5H\D79\15\A5i\8F\F7\D3E.D\B7\87?\F9\B9o\B0\06\F2\A5e(\94\8C\F3\9E\C1\84\84S\10\0A\F6K\017\9D\0F\B3\A9\89yh\BE.L\C2\87\D4\FA\B9\FE\BE\09\CF\9FCb.2\FF:\E52l\D0\E3\E91+\84\F5\BC\A6\1C\BB\F4\88\03^\CA\EB\16\FC\F6\D38c\DD\12\8B\C6$S\93\82\17\0F<\05\B7uB5yr\96j\92\C4\04\22\F5\83\BD\DD\83:\9D\81*\03\FEJ6\95}4U\CFd\A2^w\FCS\88\18n\9D\CA\8B0C\A0\13X\E4n\09\8D\02M\A9y\83%\A1\D7\CEp\87\94\CF\EA\80\F2J\81\A5\ED\18\DEg\8E\D5\CD\EA\8A\AD\B1\EC>\11\0B\EF;\F1Z\BDd\E8DK\C6N^\95\E9\B9\D0\D5\D1\0B\E5\DDT.\DAwA\D6P~!J\90\8C5\BD\E7\96\1A\08\0D\0A^\97\EC\AB\15\A0=;K\AC##\88f/\C5\DEFlk\D3\1EY7\B28\F0UB\B2\AD\92\8E`\F3wjP|\B7}\9A\B8\8C\22\0D\FD\C5\97{`=\E8p\CA\04\13\96\B3\CA\A6\B4\10n\1E\F0\B8\AAR]\0DX\18\C0`U\A8J\A4y\13\00\E7\DD@Dm\8F\85f>\963\D0\BDr\04R\98\DE)@\FE\8E\03\A8F\E5\A8f0K\9F\D9=\D5\86\B8&<L\E1\97\AAk`\85\96\D6MFU\12g\D5\F0\F0\E2\D6\EEuRDZZ\82E\F2\C4\0E\9D\AE\AE\CEj[\D0\0B\E4\BE\8B\D8\BB\E2My\06\CB\12\F4\927\D7-\05<B\C3\A8_\AC$\040h\CFS\19\AD:\A0\19\0D\7F\EC\8E$b\B3G\D7\98#?\E9\B4\C2\9F\12G\E9\98\0F\BBj\CC\1D\D8\0E[?/\22=~Fr\E2\FFX\1Bd\CB\9E\8E\1Be\8E\F8lE1\E4\F8Q\D8\C6\F0\9DZ\83-\0E\AD8Z~H\9CW\B0\E1\8D\C3c\DA\C6%\F3\1A\0B6\B6\AE8\1E\C2Ho^+\F2\C6\B1\04\0E\B20\12\1D\0B\B6i>[\8D\0E\E4\08\F8!e\AF\0Ar\B6\A0\F9h;\B2\AA\E9#\01) \C9\C1\BB\87\E9\00T\1A\D4g\C9\9F\87\CD\DC\C3\B9?B\99r\E2\FAha\99\CE\AD[\E8\FB\BA\1A\E1>\BE\AF\86\C9*\91\CE\97cL\A4u\BB\0Dry\1C=P\91\C9\D7\F4-}\CA\D9\0D\A8\BF\87I\C8\10\F6\E2\B9\FF\D2:\A0@+O\FA2\0F/\80\00\89r\C8(\0C\8Cf\00\D4\8E\A7\A7F\13\A4\00 ~R\B9k\0FP\CDL\CB\DB-V\0C@\A4po_I\F0F3m\E7K\19\A1&\9F\C2\BDR\D6\14\B4\EB\18\02\CB\DB\11\ED\ECE\8E6\AB_\E9\F1#k\0B\92\22\E6\EDZ\B6U<\DBN\EBW\F7V\BC\93+~xY\F9\AB\96\DC\22\98\93G-#\12J\82F\A9\9F\15\05\1D\10j\0AB\CCD7\17@\BBn\CE\09\9D\92\12\00\C9\8B\0B;.\84\EA\CCt\ACE+\8B6U\0A\F7\89\04\89o\F8\10\D5\F8\07j:LZN\BB'sv]\D6\E1q/\86\C2^\E4EN\8E\BF\D1\CEKP\D5\16J\FF\B5\17FM\11\DF\D4e^y\9E\0A\0DL\AA\84K\94K\D5\E2\ACC\D4x \AC\BB\B5\F0\02\DD\93\B3\89\FC\F7&\CF\B0\DC\C2\07\CA_R?Z}5\06\082\EA\FE)b\22=s(\88e\EE\B4N\97\C2\BA9QX*r\DF\CE\C3\C2N\8D\10\1D\FFJ\CF\9B\D8=\0D\E4\98\D5rI\ADd\D7\1CG\11\B7\A8{\07\BF\C7q\E8\C6S\C9\D2\98l\C1\86k\A9:Bz\F0\CDk\DE\DB]\D0\F6\B3|\AC\B2|\B1\A6\F8\8F0\BD\C1c\F4\1E\FA?\8D\CAil\ED\97\F6\FF\E1\10\BAV$\13\92\99\81\0D.\12\1D\DCt\14\CE\0A\17\1D\C8\F9\BA \B0w\13\E4labM\F3\92\DC\1CW\B4N\A4\C2\A8,.X\ED}\A0jt#X\13\F1\97\B3\BB\F6\1C\E0uZF)\96\F8\FA\CC\EF\C3\A3\DB\89Zb\0A\F3\CFOInHN\08\\\A6\0C\A1\BE\06\B0s\C6\A3z\CE\FD=\C0\8Fk\E9.\A5d\FE3\A6\EF\ED\8B\EA\B6\FERp\7FIFw\F1\FD\A8&\99\07\05\F9\8D1\BA\EB\E0\D2\D0`>\C1\FB\22\E7\DBsM\98\9A\C5\04\A5,\86\15Z\F7\047\B7#8\11H,6__\E9,t\06\BD\BD\FE\FE\0E{S\0A\C8de2?/\A9n\06\83\B7\8E2\8C\BA\8Bk9\BFJ\B7F\F7E\DF\FA\98\08\F9\9E\92\D1\E5\FB\13:\C7\18BA\1E,S\C3>\C1ih0V\0Fieg!\EDY\ABr\BA\EA\85\E7\F0G\12Q*\11\A3\A5\B4\0CB\A7\EE@OQ]=4\EC\BE\00\D9\0D\B1\CA!\ADd4[I\1B\11\E7\F0\B6\F6H\D4\15t\B9\C0\F8^:\10\AB)\C1\9A'\CB\C3\E6D\DC\01\AF\1F<6Rj\E3\CEX\190\F8t\BB\82|\F4\8E\E6Y\EE+\D1\FD)?\85\E1\F1\EF@\FE\872\04N\8EY\9Ac\A6\1Dm\16J\8F\90\1C\85\E4\F0\11\08\D9\A6|jPZ\0E\A0\AD\B80U@H\D8L\F1\C6\B4\EEf@\8D\14\82q\90XR\00q\10h\F4s\E0A\00\F4\D9\EC)\1Fgi\00 \C3GvL\1F!\CDL\CF\9F^\D6\E5\80\0A\D7\A5L\E5W\09\9B\DD$\D6\AD;E\D4H\B1P\AB$\96\04\DD\D3\8D@\BC\83\DE\D4\94\EC\E2\00\FA\05dC\AA#O\9Aa\9E\E9\9C\EE\82r{\B4~T\93J\9E\1D_\BA\CA B\D5\B1\17L\C8;\1A\CF\DD'F\A3\06c{K\C9?p8\A4\D1+\09\A1\CCY`\83t\89\A0M=\AE\E65]\D44|\C8\16q\89\FB\86]c\A0xZ\D4b\D2J\1CM-\15\DD\1BuD-H\15U\FB\92\EE\9C\8A\06\11D\FC\DB\BE\B0;\05t60\E3\CB\81_\08 W\80ky\CD\B2\06\80\12\CD\22a\A4(\D2\CC\0E\A4\E8\80\B6S\DB\A3\D8\1C\BA\00\8B\1F\92l'.\90g\08\E6t\F0\85\BE\D9Rm\1E\F7Y\9E\CBGB{\FD$\C3c\DFr\D0\FC\FD\83\02\83\7F\F5\D9\971\03\02\9C\FF]\AE\8B\82k6\932c}\D5\CE\22\C5u(\1C1Dr\B5\9D\C4\86\16\F4\A0\83U\FC\A0\D7\F0\EC\B3\CF\AA\96My\8D\BD\\\D9\BB\AB\D7-qd\94(\C6\12YI\E8\D3\A9Skuz\07\ED\0F!v\EF]\C8\D2\F0?\CF\89\E5/\DA\EA\1A3?n\84Y{U\E2(\99\BE6\E1\95w\1B\87(d$5V\BF\F8\A4S\83\83*x\FF\C6PB\9C\CF\EE,\99\05\A7\9D\93\B2\17{[o>\E4B\F5\12\FC\15Y\98\1D\CF]Bc\DE\E0ybK\C9\03\D2c\01\C3\1B\09\A1\9CA\B6\9A5\AFm\1AJ\01\C5{\C4L|]C5;\F9\D3\09\FD}\CF]/\94\A9n\CAd\0CK\8CvTX\08\B7\D6\08=\C5v&\DA$\F1\DA\94;\F1\1EH\EA\C0H\AA/\F4\7F\06U\9A\A0\EE\F2\\d\0A\88\90\9AJ\1E\FB\83;\D3\A6{\08\E5\C8\03\96BR\C9\06\84m\9E\89jPu\A49\AF\18n\88s\F7\E9\FAX\E0$m\\,\BB\C8\E0\9A\D4\E1\93\E0\91\A7g\15\AA\B4\DC\E6\A7\1F\86\10\88\90\B0\B8\EC\B2\D1\1A@\E7\80'\E1\B7\82{f\1Fg\EC\80\F9\CE\C9\1E\19\EC\89\CD\FA\0B\DC\CA\C1y\A9\15^F\16o\01\FB\ED\AA\B1\9E\DEX4/\8BU\C1K\CA'\BA~\ABU5y\08S\FB\FEU\11\91\FAmB\FC\CBDt\DA.Hj`F\A1S*~\D3!M8\B4\0FU\CB\A9\B4=`\C3?wo\A8\BAb\00\9F\FF\F1K b\B5f\B2\FF'\A3\80N\C4\EB\C1\FF\1F\1C\99\0B\9D\BC4f\E6|\8F\12\C8-!=\0A\FBr\A89\BEM\97nb\C2\86\94\FE\0AyX\E8\03>\87\CAD[Z\0D6\CB\05\A2\D0\15\15q\91\A2\04\E8\A6DwZ\82j\07@>\D4\BE\90\CF\EE\05\00eC2\DAr%kf\EA5(H\83\D5\11\D7CV@@\9CwA\DF\CF\11\CD\99\E3\92g\7F\D9\A7=\AElQ?2\8F\0C\C9\16\8A\A72(\0C\0A\D4\AB\A1\1F\C2\B9\09\08\10#h\FF\9C\8F\0F@\B3\D1S\CC\B0?\D9\CC\F5\DA\A9\D6\F32\14\D7\F7{\A8\8A\EC\B7\86\BE\BF,S\D5V\C6k\98\CC#\A9\AAxk\89\13\0A\83\0F\11\C1xuRCk?\A7\CD\93\F7A\9C\222\EC\0AC\F9g\E3N\1D\ADDk(s\05K\17$j\EF\B9\F5\9D\D5\AC\E9T\8Ca\91\B1wz\0F\BB\13\9C\E8\E8%", [48 x i8] undef }>, align 64
@_RNvCs1mlux5qRKEq_4zmij7DIGITS2 = internal unnamed_addr constant [200 x i8] c"00010203040506070809101112131415161718192021222324252627282930313233343536373839404142434445464748495051525354555657585960616263646566676869707172737475767778798081828384858687888990919293949596979899", align 2
@_RNvNvCs1mlux5qRKEq_4zmij19write_significand179CONSTANTS = internal constant [48 x i8] c"\BB\B8\8D\06\F0\D8\00\00\00\B0G\01\9C\FF\00\00\E0\0C\F6\00\00\00\00\00\00\00\00\00\00\00\00\00\FD\CEa\84\11w\CC\AB\00\E1\F5\05\00\00\00\00", align 16

; zmij::to_decimal_schubfach::<u64>
; Function Attrs: uwtable
define internal fastcc { i64, i32 } @_RINvCs1mlux5qRKEq_4zmij20to_decimal_schubfachyEB2_(i64 noundef %bin_sig, i64 noundef range(i64 -1074, -1075) %bin_exp, i1 noundef zeroext %regular) unnamed_addr #0 personality ptr @rust_eh_personality {
start:
  %_7 = trunc i64 %bin_exp to i32
  %_73 = mul i32 %_7, 315653
  %_74.neg = select i1 %regular, i32 0, i32 -131072
  %_72 = add i32 %_74.neg, %_73
  %dec_exp = ashr i32 %_72, 20
  %_78 = mul i32 %dec_exp, 3976597
  %_77 = lshr i32 %_78, 16
  %0 = tail call { ptr, ptr } asm sideeffect alignstack "/*${0}${1}*/", "=&r,=&r,0,1,~{cc},~{memory}"(ptr nonnull getelementptr inbounds nuw (i8, ptr @_RNvCs1mlux5qRKEq_4zmij18POW10_SIGNIFICANDS, i64 2592), ptr nonnull getelementptr inbounds nuw (i8, ptr @_RNvCs1mlux5qRKEq_4zmij18POW10_SIGNIFICANDS, i64 7528)) #7, !srcloc !2
  %1 = extractvalue { ptr, ptr } %0, 0
  %2 = extractvalue { ptr, ptr } %0, 1
  %_90 = sext i32 %dec_exp to i64
  %_89 = getelementptr inbounds i64, ptr %1, i64 %_90
  %3 = load i64, ptr %_89, align 8, !noundef !3
  %_92 = getelementptr inbounds i64, ptr %2, i64 %_90
  %4 = load i64, ptr %_92, align 8, !noundef !3
  %5 = add i64 %4, 1
  %_0.i25 = shl i64 %bin_sig, 2
  %_0.i26 = and i64 %bin_sig, 1
  %_3.0.i.neg = select i1 %regular, i64 -2, i64 -1
  %_3.0.i27 = add i64 %_3.0.i.neg, %_0.i25
  %_81 = add i32 %_7, 1
  %6 = add i32 %_81, %_77
  %7 = and i32 %6, 63
  %8 = zext nneg i32 %7 to i64
  %_0.i28 = shl i64 %_3.0.i27, %8
  %_32.i = zext i64 %3 to i128
  %_33.i = zext i64 %_0.i28 to i128
  %_21.i = mul nuw i128 %_32.i, %_33.i
  %_23.i = trunc i128 %_21.i to i64
  %_34.i = zext i64 %5 to i128
  %_26.i = mul nuw i128 %_34.i, %_33.i
  %_25.i = lshr i128 %_26.i, 64
  %_24.i = trunc nuw i128 %_25.i to i64
  %p.i = add i64 %_24.i, %_23.i
  %_29.i = lshr i128 %_21.i, 64
  %_28.i = trunc nuw i128 %_29.i to i64
  %_31.i = icmp ult i64 %p.i, %_23.i
  %_30.i = zext i1 %_31.i to i64
  %p1.i = add nuw i64 %_30.i, %_28.i
  %_8.i = icmp ugt i64 %p.i, 1
  %_7.i = zext i1 %_8.i to i64
  %_6.i = or i64 %p1.i, %_7.i
  %_3.0.i29 = add i64 %_6.i, %_0.i26
  %_3.0.i30 = or disjoint i64 %_0.i25, 2
  %_0.i31 = shl i64 %_3.0.i30, %8
  %_33.i33 = zext i64 %_0.i31 to i128
  %_21.i34 = mul nuw i128 %_32.i, %_33.i33
  %_23.i35 = trunc i128 %_21.i34 to i64
  %_26.i37 = mul nuw i128 %_34.i, %_33.i33
  %_25.i38 = lshr i128 %_26.i37, 64
  %_24.i39 = trunc nuw i128 %_25.i38 to i64
  %p.i40 = add i64 %_24.i39, %_23.i35
  %_29.i41 = lshr i128 %_21.i34, 64
  %_28.i42 = trunc nuw i128 %_29.i41 to i64
  %_31.i43 = icmp ult i64 %p.i40, %_23.i35
  %_30.i44 = zext i1 %_31.i43 to i64
  %p1.i45 = add nuw i64 %_30.i44, %_28.i42
  %_8.i46 = icmp ugt i64 %p.i40, 1
  %_7.i47 = zext i1 %_8.i46 to i64
  %_6.i48 = or i64 %p1.i45, %_7.i47
  %_3.0.i49 = sub i64 %_6.i48, %_0.i26
  %_0.i51 = udiv i64 %_3.0.i49, 40
  %_3.0.i52 = mul nuw nsw i64 %_0.i51, 10
  %_0.i53 = mul nuw i64 %_0.i51, 40
  %_0.i20.not = icmp ult i64 %_0.i53, %_3.0.i29
  br i1 %_0.i20.not, label %bb28, label %bb65

bb28:                                             ; preds = %start
  %_0.i54 = shl i64 %_0.i25, %8
  %_33.i56 = zext i64 %_0.i54 to i128
  %_21.i57 = mul nuw i128 %_32.i, %_33.i56
  %_23.i58 = trunc i128 %_21.i57 to i64
  %_26.i60 = mul nuw i128 %_34.i, %_33.i56
  %_25.i61 = lshr i128 %_26.i60, 64
  %_24.i62 = trunc nuw i128 %_25.i61 to i64
  %p.i63 = add i64 %_24.i62, %_23.i58
  %_29.i64 = lshr i128 %_21.i57, 64
  %_28.i65 = trunc nuw i128 %_29.i64 to i64
  %_31.i66 = icmp ult i64 %p.i63, %_23.i58
  %_30.i67 = zext i1 %_31.i66 to i64
  %p1.i68 = add nuw i64 %_30.i67, %_28.i65
  %_0.i72 = lshr i64 %p1.i68, 2
  %_3.0.i73 = add nuw nsw i64 %_0.i72, 1
  %_3.0.i74 = add nuw nsw i64 %_3.0.i73, %_0.i72
  %_0.i75 = shl nuw i64 %_3.0.i74, 1
  %_0.i76 = sub i64 %p1.i68, %_0.i75
  %_0.i23 = icmp slt i64 %_0.i76, 0
  br i1 %_0.i23, label %bb57, label %bb44

bb44:                                             ; preds = %bb28
  %_8.i69 = icmp ugt i64 %p.i63, 1
  %_7.i70 = zext i1 %_8.i69 to i64
  %_6.i71 = or i64 %p1.i68, %_7.i70
  %_0.i77 = icmp eq i64 %_6.i71, %_0.i75
  br i1 %_0.i77, label %bb49, label %bb57

bb49:                                             ; preds = %bb44
  %9 = and i64 %p1.i68, 4
  %_0.i79 = icmp eq i64 %9, 0
  br label %bb57

bb57:                                             ; preds = %bb28, %bb44, %bb49
  %below_closer.sroa.0.0.off0 = phi i1 [ %_0.i79, %bb49 ], [ false, %bb44 ], [ true, %bb28 ]
  %_0.i80 = and i64 %p1.i68, -4
  %_0.i = icmp uge i64 %_0.i80, %_3.0.i29
  %_69 = and i1 %_0.i, %below_closer.sroa.0.0.off0
  %longer_below.sroa.0.0 = select i1 %_69, i64 %_0.i72, i64 %_3.0.i73
  br label %bb65

bb65:                                             ; preds = %start, %bb57
  %result.sroa.0.0 = phi i64 [ %longer_below.sroa.0.0, %bb57 ], [ %_3.0.i52, %start ]
  %10 = insertvalue { i64, i32 } poison, i64 %result.sroa.0.0, 0
  %11 = insertvalue { i64, i32 } %10, i32 %dec_exp, 1
  ret { i64, i32 } %11
}

; <f32 as zmij::private::Sealed>::write_to_zmij_buffer
; Function Attrs: uwtable
define noundef ptr @_RNvXNtCs1mlux5qRKEq_4zmij7privatefNtB2_6Sealed20write_to_zmij_buffer(float noundef %self, ptr noundef captures(ret: address, provenance) initializes((0, 1)) %buffer) unnamed_addr #0 personality ptr @rust_eh_personality {
start:
  %_0.i.i = bitcast float %self to i32
  %0 = lshr i32 %_0.i.i, 23
  %_0.i1.i.i = and i32 %0, 255
  %_0.i.i.i = and i32 %_0.i.i, 8388607
  store i8 45, ptr %buffer, align 1
  %_0.i.lobit.i = lshr i32 %_0.i.i, 31
  %_7.i = zext nneg i32 %_0.i.lobit.i to i64
  %_6.i = getelementptr inbounds nuw i8, ptr %buffer, i64 %_7.i
  %1 = icmp eq i32 %_0.i1.i.i, 0
  br i1 %1, label %bb8.i, label %bb17.i

bb8.i:                                            ; preds = %start
  %_0.i22.i = icmp eq i32 %_0.i.i.i, 0
  br i1 %_0.i22.i, label %bb11.i, label %bb12.i

bb17.i:                                           ; preds = %start
  %_0.i.i.i.i = zext nneg i32 %_0.i1.i.i to i64
  %_0.i23.i = or disjoint i32 %_0.i.i.i, 8388608
  %_0.i24.not.i = icmp eq i32 %_0.i.i.i, 0
  %bin_exp.i.i = add nsw i64 %_0.i.i.i.i, -150
  br i1 %_0.i24.not.i, label %bb17.bb28.i_crit_edge.i, label %bb1.i.i

bb17.bb28.i_crit_edge.i:                          ; preds = %bb17.i
  %.pre.i = trunc nsw i64 %bin_exp.i.i to i32
  br label %bb28.i.i

bb28.i.i:                                         ; preds = %bb12.i.i, %bb1.i.i, %bb17.bb28.i_crit_edge.i
  %_7.i33.pre-phi.i = phi i32 [ %.pre.i, %bb17.bb28.i_crit_edge.i ], [ %_12.i.i, %bb12.i.i ], [ %_12.i.i, %bb1.i.i ]
  %_3.0.i.neg.i.i = phi i32 [ -1, %bb17.bb28.i_crit_edge.i ], [ -2, %bb12.i.i ], [ -2, %bb1.i.i ]
  %_74.neg.i.i = phi i32 [ -131072, %bb17.bb28.i_crit_edge.i ], [ 0, %bb12.i.i ], [ 0, %bb1.i.i ]
  %_73.i.i = mul nsw i32 %_7.i33.pre-phi.i, 315653
  %_72.i.i = add nsw i32 %_74.neg.i.i, %_73.i.i
  %dec_exp.i34.i = ashr i32 %_72.i.i, 20
  %_78.i35.i = mul nsw i32 %dec_exp.i34.i, 1879445
  %_77.i.i = lshr i32 %_78.i35.i, 16
  %_81.i.i = add nsw i32 %_7.i33.pre-phi.i, 1
  %exp_shift.i.i = add nsw i32 %_81.i.i, %_77.i.i
  %2 = tail call { ptr, ptr } asm sideeffect alignstack "/*${0}${1}*/", "=&r,=&r,0,1,~{cc},~{memory}"(ptr nonnull getelementptr inbounds nuw (i8, ptr @_RNvCs1mlux5qRKEq_4zmij18POW10_SIGNIFICANDS, i64 2592), ptr nonnull getelementptr inbounds nuw (i8, ptr @_RNvCs1mlux5qRKEq_4zmij18POW10_SIGNIFICANDS, i64 7528)) #7, !srcloc !2
  %3 = extractvalue { ptr, ptr } %2, 0
  %_90.i36.i = sext i32 %dec_exp.i34.i to i64
  %_89.i37.i = getelementptr inbounds i64, ptr %3, i64 %_90.i36.i
  %4 = load i64, ptr %_89.i37.i, align 8, !noundef !3
  %5 = add i64 %4, 1
  %_0.i25.i38.i = shl nuw nsw i32 %_0.i23.i, 2
  %_0.i26.i39.i = and i32 %_0.i.i, 1
  %_3.0.i27.i40.i = add nsw i32 %_3.0.i.neg.i.i, %_0.i25.i38.i
  %6 = and i32 %exp_shift.i.i, 31
  %_0.i28.i41.i = shl i32 %_3.0.i27.i40.i, %6
  %_35.i.i42.i = zext i64 %5 to i128
  %_36.i.i43.i = zext i32 %_0.i28.i41.i to i128
  %_12.i.i44.i = mul nuw nsw i128 %_36.i.i43.i, %_35.i.i42.i
  %_163.i.i45.i = lshr i128 %_12.i.i44.i, 64
  %_15.i.i46.i = trunc nuw i128 %_163.i.i45.i to i32
  %7 = and i128 %_12.i.i44.i, 18446744065119617024
  %_18.i.i47.i = icmp ne i128 %7, 0
  %_17.i.i48.i = zext i1 %_18.i.i47.i to i32
  %_14.i.i49.i = or i32 %_17.i.i48.i, %_15.i.i46.i
  %_3.0.i29.i50.i = add i32 %_14.i.i49.i, %_0.i26.i39.i
  %_3.0.i30.i51.i = or disjoint i32 %_0.i25.i38.i, 2
  %_0.i31.i52.i = shl i32 %_3.0.i30.i51.i, %6
  %_36.i33.i53.i = zext i32 %_0.i31.i52.i to i128
  %_12.i34.i54.i = mul nuw nsw i128 %_36.i33.i53.i, %_35.i.i42.i
  %_163.i35.i55.i = lshr i128 %_12.i34.i54.i, 64
  %_15.i36.i56.i = trunc nuw i128 %_163.i35.i55.i to i32
  %8 = and i128 %_12.i34.i54.i, 18446744065119617024
  %_18.i37.i57.i = icmp ne i128 %8, 0
  %_17.i38.i58.i = zext i1 %_18.i37.i57.i to i32
  %_14.i39.i59.i = or i32 %_17.i38.i58.i, %_15.i36.i56.i
  %_3.0.i40.i60.i = sub i32 %_14.i39.i59.i, %_0.i26.i39.i
  %_0.i42.i61.i = udiv i32 %_3.0.i40.i60.i, 40
  %_0.i44.i62.i = mul nuw i32 %_0.i42.i61.i, 40
  %_0.i20.not.i63.i = icmp ult i32 %_0.i44.i62.i, %_3.0.i29.i50.i
  br i1 %_0.i20.not.i63.i, label %bb28.i68.i, label %bb26.i64.i

bb28.i68.i:                                       ; preds = %bb28.i.i
  %_0.i45.i69.i = shl i32 %_0.i25.i38.i, %6
  %_36.i47.i70.i = zext i32 %_0.i45.i69.i to i128
  %_12.i48.i71.i = mul nuw nsw i128 %_36.i47.i70.i, %_35.i.i42.i
  %_163.i49.i72.i = lshr i128 %_12.i48.i71.i, 64
  %_15.i50.i73.i = trunc nuw i128 %_163.i49.i72.i to i32
  %_0.i54.i74.i = lshr i32 %_15.i50.i73.i, 2
  %_3.0.i55.i75.i = add nuw nsw i32 %_0.i54.i74.i, 1
  %_3.0.i56.i76.i = add nuw nsw i32 %_3.0.i55.i75.i, %_0.i54.i74.i
  %_0.i57.i77.i = shl nuw i32 %_3.0.i56.i76.i, 1
  %_0.i58.i78.i = sub i32 %_15.i50.i73.i, %_0.i57.i77.i
  %_0.i23.i79.i = icmp slt i32 %_0.i58.i78.i, 0
  br i1 %_0.i23.i79.i, label %bb57.i85.i, label %bb44.i80.i

bb26.i64.i:                                       ; preds = %bb28.i.i
  %_3.0.i43.i65.i = mul nuw nsw i32 %_0.i42.i61.i, 10
  br label %_RINvCs1mlux5qRKEq_4zmij20to_decimal_schubfachmEB2_.exit93.i

bb44.i80.i:                                       ; preds = %bb28.i68.i
  %9 = and i128 %_12.i48.i71.i, 18446744065119617024
  %_18.i51.i81.i = icmp ne i128 %9, 0
  %_17.i52.i82.i = zext i1 %_18.i51.i81.i to i32
  %_14.i53.i83.i = or i32 %_17.i52.i82.i, %_15.i50.i73.i
  %_0.i59.i84.i = icmp eq i32 %_14.i53.i83.i, %_0.i57.i77.i
  br i1 %_0.i59.i84.i, label %bb49.i91.i, label %bb57.i85.i

bb49.i91.i:                                       ; preds = %bb44.i80.i
  %10 = and i32 %_15.i50.i73.i, 4
  %_0.i61.i92.i = icmp eq i32 %10, 0
  br label %bb57.i85.i

bb57.i85.i:                                       ; preds = %bb49.i91.i, %bb44.i80.i, %bb28.i68.i
  %below_closer.sroa.0.0.off0.i86.i = phi i1 [ %_0.i61.i92.i, %bb49.i91.i ], [ false, %bb44.i80.i ], [ true, %bb28.i68.i ]
  %_0.i62.i87.i = and i32 %_15.i50.i73.i, -4
  %_0.i.i88.i = icmp uge i32 %_0.i62.i87.i, %_3.0.i29.i50.i
  %_69.i89.i = and i1 %_0.i.i88.i, %below_closer.sroa.0.0.off0.i86.i
  %longer_below.sroa.0.0.i90.i = select i1 %_69.i89.i, i32 %_0.i54.i74.i, i32 %_3.0.i55.i75.i
  br label %_RINvCs1mlux5qRKEq_4zmij20to_decimal_schubfachmEB2_.exit93.i

_RINvCs1mlux5qRKEq_4zmij20to_decimal_schubfachmEB2_.exit93.i: ; preds = %bb57.i85.i, %bb26.i64.i
  %result.sroa.0.0.in.i66.i = phi i32 [ %_3.0.i43.i65.i, %bb26.i64.i ], [ %longer_below.sroa.0.0.i90.i, %bb57.i85.i ]
  %result.sroa.0.0.i67.i = zext nneg i32 %result.sroa.0.0.in.i66.i to i64
  br label %bb22.i

bb1.i.i:                                          ; preds = %bb17.i
  %_68.i.i = zext i64 %bin_exp.i.i to i128
  %_67.i.i = mul nuw nsw i128 %_68.i.i, 5553026301478043648
  %_66.i.i = lshr i128 %_67.i.i, 64
  %dec_exp.i.i = trunc i128 %_66.i.i to i32
  %_12.i.i = trunc nsw i64 %bin_exp.i.i to i32
  %_79.i.i = mul i32 %dec_exp.i.i, 16559509
  %_78.i.i = lshr i32 %_79.i.i, 16
  %_82.i.i = add nsw i32 %_78.i.i, %_12.i.i
  %11 = add nsw i32 %_82.i.i, 1
  %12 = tail call { ptr, ptr } asm sideeffect alignstack "/*${0}${1}*/", "=&r,=&r,0,1,~{cc},~{memory}"(ptr nonnull getelementptr inbounds nuw (i8, ptr @_RNvCs1mlux5qRKEq_4zmij18POW10_SIGNIFICANDS, i64 2592), ptr nonnull getelementptr inbounds nuw (i8, ptr @_RNvCs1mlux5qRKEq_4zmij18POW10_SIGNIFICANDS, i64 7528)) #7, !srcloc !2
  %13 = extractvalue { ptr, ptr } %12, 0
  %_91.i.i = sext i32 %dec_exp.i.i to i64
  %_90.i.i = getelementptr inbounds i64, ptr %13, i64 %_91.i.i
  %pow10.i.i = load i64, ptr %_90.i.i, align 8, !noundef !3
  %14 = and i32 %11, 31
  %_0.i.i25.i = shl i32 %_0.i23.i, %14
  %_109.i.i = zext i64 %pow10.i.i to i128
  %_110.i.i = zext i32 %_0.i.i25.i to i128
  %p2.i.i = mul nuw nsw i128 %_109.i.i, %_110.i.i
  %15 = trunc i128 %p2.i.i to i64
  %16 = icmp eq i64 %15, -9223372036854775808
  br i1 %16, label %bb28.i.i, label %bb12.i.i

bb12.i.i:                                         ; preds = %bb1.i.i
  %_24.i.i = lshr i128 %p2.i.i, 64
  %_0.i14.i.i = trunc nuw nsw i128 %_24.i.i to i64
  %_112.i.i = mul nuw nsw i128 %_24.i.i, 1844674407370955162
  %_111.i.i = lshr i128 %_112.i.i, 64
  %div10.i.i = trunc nuw nsw i128 %_111.i.i to i64
  %_34.neg.i.i = mul nsw i64 %div10.i.i, -10
  %17 = add nsw i64 %_34.neg.i.i, %_0.i14.i.i
  %18 = tail call i64 asm sideeffect alignstack "/*${0}*/", "=&r,0,~{cc},~{memory}"(i64 %17) #7, !srcloc !4
  %scaled_sig_mod10.i.i = tail call i64 @llvm.fshl.i64(i64 %18, i64 %15, i64 32)
  %19 = sub nsw i32 32, %_82.i.i
  %20 = and i32 %19, 63
  %21 = zext nneg i32 %20 to i64
  %scaled_half_ulp.i.i = lshr i64 %pow10.i.i, %21
  %upper.i.i = add i64 %scaled_sig_mod10.i.i, %scaled_half_ulp.i.i
  %_48.i.i = icmp eq i64 %scaled_sig_mod10.i.i, %scaled_half_ulp.i.i
  %22 = add i64 %upper.i.i, -42949672959
  %_49.i.i = icmp ult i64 %22, 2
  %or.cond.i.i = or i1 %_48.i.i, %_49.i.i
  br i1 %or.cond.i.i, label %bb28.i.i, label %bb22.i.i

bb22.i.i:                                         ; preds = %bb12.i.i
  %round_up.i.i = icmp ugt i64 %upper.i.i, 42949672959
  %_53.i.i = sub i64 %_0.i14.i.i, %18
  %.lobit.i.i = lshr i64 %15, 63
  %_57.i.i = add nuw nsw i64 %.lobit.i.i, %_0.i14.i.i
  %_62.i.i = icmp ult i64 %scaled_sig_mod10.i.i, %scaled_half_ulp.i.i
  %23 = select i1 %_62.i.i, i64 %_53.i.i, i64 %_57.i.i, !unpredictable !3
  %_64.i.i = add i64 %_53.i.i, 10
  %24 = select i1 %round_up.i.i, i64 %_64.i.i, i64 %23, !unpredictable !3
  br label %bb22.i

bb12.i:                                           ; preds = %bb8.i
  %25 = tail call { ptr, ptr } asm sideeffect alignstack "/*${0}${1}*/", "=&r,=&r,0,1,~{cc},~{memory}"(ptr nonnull getelementptr inbounds nuw (i8, ptr @_RNvCs1mlux5qRKEq_4zmij18POW10_SIGNIFICANDS, i64 2592), ptr nonnull getelementptr inbounds nuw (i8, ptr @_RNvCs1mlux5qRKEq_4zmij18POW10_SIGNIFICANDS, i64 7528)) #7, !srcloc !2
  %26 = extractvalue { ptr, ptr } %25, 0
  %_89.i.i = getelementptr inbounds i8, ptr %26, i64 -360
  %27 = load i64, ptr %_89.i.i, align 8, !noundef !3
  %28 = add i64 %27, 1
  %_0.i26.i.i = and i32 %_0.i.i, 1
  %_3.0.i27.i.i = shl nuw nsw i32 %_0.i.i.i, 3
  %_0.i28.i.i = add nsw i32 %_3.0.i27.i.i, -4
  %_35.i.i.i = zext i64 %28 to i128
  %_36.i.i.i = zext nneg i32 %_0.i28.i.i to i128
  %_12.i.i.i = mul nuw nsw i128 %_35.i.i.i, %_36.i.i.i
  %_163.i.i.i = lshr i128 %_12.i.i.i, 64
  %_15.i.i.i = trunc nuw nsw i128 %_163.i.i.i to i32
  %29 = and i128 %_12.i.i.i, 18446744065119617024
  %_18.i.i.i = icmp ne i128 %29, 0
  %_17.i.i.i = zext i1 %_18.i.i.i to i32
  %_14.i.i.i = or i32 %_17.i.i.i, %_15.i.i.i
  %_3.0.i29.i.i = add nuw nsw i32 %_14.i.i.i, %_0.i26.i.i
  %_0.i31.i.i = or disjoint i32 %_3.0.i27.i.i, 4
  %_36.i33.i.i = zext nneg i32 %_0.i31.i.i to i128
  %_12.i34.i.i = mul nuw nsw i128 %_35.i.i.i, %_36.i33.i.i
  %_163.i35.i.i = lshr i128 %_12.i34.i.i, 64
  %_15.i36.i.i = trunc nuw nsw i128 %_163.i35.i.i to i32
  %30 = and i128 %_12.i34.i.i, 18446744065119617024
  %_18.i37.i.i = icmp ne i128 %30, 0
  %_17.i38.i.i = zext i1 %_18.i37.i.i to i32
  %_14.i39.i.i = or i32 %_17.i38.i.i, %_15.i36.i.i
  %_3.0.i40.i.i = sub nsw i32 %_14.i39.i.i, %_0.i26.i.i
  %_0.i42.i.i = udiv i32 %_3.0.i40.i.i, 40
  %_0.i44.i.i = mul nuw i32 %_0.i42.i.i, 40
  %_0.i20.not.i.i = icmp ult i32 %_0.i44.i.i, %_3.0.i29.i.i
  br i1 %_0.i20.not.i.i, label %bb28.i26.i, label %_RINvCs1mlux5qRKEq_4zmij20to_decimal_schubfachmEB2_.exit.i

bb28.i26.i:                                       ; preds = %bb12.i
  %_36.i47.i.i = zext nneg i32 %_3.0.i27.i.i to i128
  %_12.i48.i.i = mul nuw nsw i128 %_35.i.i.i, %_36.i47.i.i
  %_163.i49.i.i = lshr i128 %_12.i48.i.i, 64
  %_15.i50.i.i = trunc nuw nsw i128 %_163.i49.i.i to i32
  %_0.i54.i.i = lshr i32 %_15.i50.i.i, 2
  %_3.0.i55.i.i = add nuw nsw i32 %_0.i54.i.i, 1
  %_3.0.i56.i.i = add nuw nsw i32 %_3.0.i55.i.i, %_0.i54.i.i
  %_0.i57.i.i = shl nuw nsw i32 %_3.0.i56.i.i, 1
  %_0.i23.i.i = icmp samesign ugt i32 %_0.i57.i.i, %_15.i50.i.i
  br i1 %_0.i23.i.i, label %_RINvCs1mlux5qRKEq_4zmij20to_decimal_schubfachmEB2_.exit.thread.i, label %bb44.i.i

bb44.i.i:                                         ; preds = %bb28.i26.i
  %31 = and i128 %_12.i48.i.i, 18446744065119617024
  %_18.i51.i.i = icmp ne i128 %31, 0
  %_17.i52.i.i = zext i1 %_18.i51.i.i to i32
  %_14.i53.i.i = or i32 %_17.i52.i.i, %_15.i50.i.i
  %_0.i59.i.i = icmp eq i32 %_14.i53.i.i, %_0.i57.i.i
  br i1 %_0.i59.i.i, label %bb49.i.i, label %_RINvCs1mlux5qRKEq_4zmij20to_decimal_schubfachmEB2_.exit.thread.i

bb49.i.i:                                         ; preds = %bb44.i.i
  %32 = and i32 %_15.i50.i.i, 4
  %_0.i61.i.i = icmp eq i32 %32, 0
  br label %_RINvCs1mlux5qRKEq_4zmij20to_decimal_schubfachmEB2_.exit.thread.i

_RINvCs1mlux5qRKEq_4zmij20to_decimal_schubfachmEB2_.exit.thread.i: ; preds = %bb49.i.i, %bb44.i.i, %bb28.i26.i
  %below_closer.sroa.0.0.off0.i.i = phi i1 [ %_0.i61.i.i, %bb49.i.i ], [ false, %bb44.i.i ], [ true, %bb28.i26.i ]
  %_0.i62.i.i = and i32 %_15.i50.i.i, 2147483644
  %_0.i.i27.i = icmp samesign uge i32 %_0.i62.i.i, %_3.0.i29.i.i
  %_69.i.i = and i1 %_0.i.i27.i, %below_closer.sroa.0.0.off0.i.i
  %longer_below.sroa.0.0.i.i = select i1 %_69.i.i, i32 %_0.i54.i.i, i32 %_3.0.i55.i.i
  %result.sroa.0.0.i103.i = zext nneg i32 %longer_below.sroa.0.0.i.i to i64
  br label %bb15.i.preheader

bb15.i.preheader:                                 ; preds = %_RINvCs1mlux5qRKEq_4zmij20to_decimal_schubfachmEB2_.exit.i, %_RINvCs1mlux5qRKEq_4zmij20to_decimal_schubfachmEB2_.exit.thread.i
  %dec.sroa.0.098.i.ph = phi i64 [ %result.sroa.0.0.i103.i, %_RINvCs1mlux5qRKEq_4zmij20to_decimal_schubfachmEB2_.exit.thread.i ], [ %result.sroa.0.0.i.i, %_RINvCs1mlux5qRKEq_4zmij20to_decimal_schubfachmEB2_.exit.i ]
  br label %bb15.i

_RINvCs1mlux5qRKEq_4zmij20to_decimal_schubfachmEB2_.exit.i: ; preds = %bb12.i
  %_3.0.i43.i.i = mul nuw nsw i32 %_0.i42.i.i, 10
  %result.sroa.0.0.i.i = zext nneg i32 %_3.0.i43.i.i to i64
  %_2397.i = icmp ult i32 %_3.0.i40.i.i, 400000000
  br i1 %_2397.i, label %bb15.i.preheader, label %bb22.i

bb11.i:                                           ; preds = %bb8.i
  store i8 48, ptr %_6.i, align 1
  %_15.i = getelementptr inbounds nuw i8, ptr %_6.i, i64 1
  store i8 46, ptr %_15.i, align 1
  %_17.i = getelementptr inbounds nuw i8, ptr %_6.i, i64 2
  store i8 48, ptr %_17.i, align 1
  %33 = getelementptr inbounds nuw i8, ptr %_6.i, i64 3
  br label %_RINvCs1mlux5qRKEq_4zmij5writefEB2_.exit

bb15.i:                                           ; preds = %bb15.i.preheader, %bb15.i
  %dec1.sroa.0.099.i = phi i32 [ %35, %bb15.i ], [ -45, %bb15.i.preheader ]
  %dec.sroa.0.098.i = phi i64 [ %34, %bb15.i ], [ %dec.sroa.0.098.i.ph, %bb15.i.preheader ]
  %34 = mul nuw nsw i64 %dec.sroa.0.098.i, 10
  %35 = add i32 %dec1.sroa.0.099.i, -1
  %_23.i = icmp samesign ult i64 %dec.sroa.0.098.i, 10000000
  br i1 %_23.i, label %bb15.i, label %bb22.i

bb22.i:                                           ; preds = %bb15.i, %_RINvCs1mlux5qRKEq_4zmij20to_decimal_schubfachmEB2_.exit.i, %bb22.i.i, %_RINvCs1mlux5qRKEq_4zmij20to_decimal_schubfachmEB2_.exit93.i
  %dec.sroa.0.1.i = phi i64 [ %result.sroa.0.0.i67.i, %_RINvCs1mlux5qRKEq_4zmij20to_decimal_schubfachmEB2_.exit93.i ], [ %24, %bb22.i.i ], [ %result.sroa.0.0.i.i, %_RINvCs1mlux5qRKEq_4zmij20to_decimal_schubfachmEB2_.exit.i ], [ %34, %bb15.i ]
  %dec1.sroa.0.1.i = phi i32 [ %dec_exp.i34.i, %_RINvCs1mlux5qRKEq_4zmij20to_decimal_schubfachmEB2_.exit93.i ], [ %dec_exp.i.i, %bb22.i.i ], [ -45, %_RINvCs1mlux5qRKEq_4zmij20to_decimal_schubfachmEB2_.exit.i ], [ %35, %bb15.i ]
  %extra_digit.i = icmp sgt i64 %dec.sroa.0.1.i, 99999999
  %_36.i = select i1 %extra_digit.i, i32 8, i32 7
  %36 = add i32 %_36.i, %dec1.sroa.0.1.i
  %_41.i = icmp slt i64 %dec.sroa.0.1.i, 10000000
  %37 = mul i64 %dec.sroa.0.1.i, 10
  %dec.sroa.0.2.i = select i1 %_41.i, i64 %37, i64 %dec.sroa.0.1.i
  %38 = sext i1 %_41.i to i32
  %39 = add i32 %36, %38
  %_48.i = getelementptr inbounds nuw i8, ptr %_6.i, i64 1
  %_50.i = trunc i64 %dec.sroa.0.2.i to i32
  %_50.i.frozen = freeze i32 %_50.i
  %_5.i.i = udiv i32 %_50.i.frozen, 100000000
  %_12.i28.i = trunc nuw nsw i32 %_5.i.i to i8
  %40 = add nuw nsw i8 %_12.i28.i, 48
  store i8 %40, ptr %_48.i, align 1
  %_13.i.i = zext i1 %extra_digit.i to i64
  %_4.i.i = getelementptr inbounds nuw i8, ptr %_48.i, i64 %_13.i.i
  %41 = mul i32 %_5.i.i, 100000000
  %_8.i.i.decomposed = sub i32 %_50.i.frozen, %41
  %_7.i.i = zext nneg i32 %_8.i.i.decomposed to i64
  %_17.i.i = mul nuw nsw i64 %_7.i.i, 109951163
  %_16.i.i = lshr i64 %_17.i.i, 40
  %_15.i.i = mul nuw nsw i64 %_16.i.i, 4294957296
  %_14.i.i = add nuw nsw i64 %_15.i.i, %_7.i.i
  %_22.i.i = mul nuw nsw i64 %_14.i.i, 5243
  %_21.i.i = lshr i64 %_22.i.i, 19
  %_20.i.i = and i64 %_21.i.i, 545460846719
  %_19.i.i = mul nuw nsw i64 %_20.i.i, 65436
  %_18.i.i = add nuw nsw i64 %_19.i.i, %_14.i.i
  %_27.i.i = mul nuw nsw i64 %_18.i.i, 103
  %_26.i.i = lshr i64 %_27.i.i, 10
  %_25.i.i = and i64 %_26.i.i, 4222189076152335
  %_24.i29.i = mul nuw nsw i64 %_25.i.i, 246
  %_23.i.i = add nuw nsw i64 %_24.i29.i, %_18.i.i
  %42 = tail call i64 @llvm.bswap.i64(i64 %_23.i.i)
  %_10.i.i = or i64 %42, 3472328296227680304
  store i64 %_10.i.i, ptr %_4.i.i, align 1
  %_35.i.i = shl i64 %42, 1
  %_34.i.i = or disjoint i64 %_35.i.i, 1
  %43 = tail call range(i64 0, 64) i64 @llvm.ctlz.i64(i64 %_34.i.i, i1 true)
  %_31.i.i = sub nuw nsw i64 70, %43
  %_114.i.i = lshr i64 %_31.i.i, 3
  %44 = add nuw nsw i64 %_114.i.i, %_13.i.i
  %45 = add i32 %39, 6
  %or.cond.i = icmp ult i32 %45, 19
  br i1 %or.cond.i, label %bb35.i, label %bb40.i

bb35.i:                                           ; preds = %bb22.i
  %_64.i = trunc nuw nsw i64 %44 to i32
  %_63.i = add nsw i32 %_64.i, -1
  %_62.not.i = icmp sgt i32 %_63.i, %39
  br i1 %_62.not.i, label %bb37.i, label %bb36.i

bb40.i:                                           ; preds = %bb22.i
  %_122.i = load i8, ptr %_48.i, align 1, !noundef !3
  store i8 %_122.i, ptr %_6.i, align 1
  store i8 46, ptr %_48.i, align 1
  %_130.i = icmp samesign ugt i64 %44, 1
  %_129.i = zext i1 %_130.i to i64
  %46 = getelementptr i8, ptr %_6.i, i64 %44
  %_127.i = getelementptr i8, ptr %46, i64 %_129.i
  %_133.i = icmp sgt i32 %39, -1
  %..i = select i1 %_133.i, i16 11109, i16 11621
  %_135.i = getelementptr inbounds nuw i8, ptr %_127.i, i64 1
  %_136.sroa.0.0.i = tail call i32 @llvm.abs.i32(i32 %39, i1 false)
  %_142.i = icmp sgt i32 %_136.sroa.0.0.i, 9
  %_141.i = zext i1 %_142.i to i64
  %_140.i = getelementptr inbounds nuw i8, ptr %_135.i, i64 %_141.i
  %_148.i = sext i32 %_136.sroa.0.0.i to i64
  %_169.i = getelementptr inbounds nuw i16, ptr @_RNvCs1mlux5qRKEq_4zmij7DIGITS2, i64 %_148.i
  %47 = load i16, ptr %_169.i, align 2, !noundef !3
  store i16 %47, ptr %_140.i, align 1
  store i16 %..i, ptr %_127.i, align 1
  %48 = getelementptr inbounds nuw i8, ptr %_140.i, i64 2
  br label %_RINvCs1mlux5qRKEq_4zmij5writefEB2_.exit

bb37.i:                                           ; preds = %bb35.i
  %_86.i = icmp sgt i32 %39, -1
  br i1 %_86.i, label %bb38.i, label %bb39.i

bb36.i:                                           ; preds = %bb35.i
  tail call void @llvm.memmove.p0.p0.i64(ptr nonnull align 1 %_6.i, ptr nonnull align 1 %_48.i, i64 %44, i1 false)
  %_72.i = getelementptr inbounds nuw i8, ptr %_6.i, i64 %44
  %_76.i = sext i32 %39 to i64
  %_75.i = add nsw i64 %_76.i, 3
  %_74.i = sub nsw i64 %_75.i, %44
  tail call void @llvm.memset.p0.i64(ptr nonnull align 1 %_72.i, i8 48, i64 %_74.i, i1 false)
  %49 = getelementptr i8, ptr %_6.i, i64 %_76.i
  %_78.i = getelementptr i8, ptr %49, i64 1
  store i8 46, ptr %_78.i, align 1
  %50 = getelementptr inbounds nuw i8, ptr %_6.i, i64 %_75.i
  br label %_RINvCs1mlux5qRKEq_4zmij5writefEB2_.exit

bb39.i:                                           ; preds = %bb37.i
  %_109.i = sub nsw i32 1, %39
  %_108.i = zext nneg i32 %_109.i to i64
  %_106.i = getelementptr inbounds nuw i8, ptr %_6.i, i64 %_108.i
  tail call void @llvm.memmove.p0.p0.i64(ptr nonnull align 1 %_106.i, ptr nonnull align 1 %_48.i, i64 %44, i1 false)
  tail call void @llvm.memset.p0.i64(ptr nonnull align 1 %_6.i, i8 48, i64 %_108.i, i1 false)
  store i8 46, ptr %_48.i, align 1
  %51 = getelementptr i8, ptr %_6.i, i64 %44
  %52 = getelementptr i8, ptr %51, i64 %_108.i
  br label %_RINvCs1mlux5qRKEq_4zmij5writefEB2_.exit

bb38.i:                                           ; preds = %bb37.i
  %narrow.i = add nuw nsw i32 %39, 1
  %_93.i = zext nneg i32 %narrow.i to i64
  tail call void @llvm.memmove.p0.p0.i64(ptr noundef nonnull align 1 dereferenceable(1) %_6.i, ptr noundef nonnull align 1 dereferenceable(1) %_48.i, i64 %_93.i, i1 false)
  %_96.i = getelementptr inbounds nuw i8, ptr %_6.i, i64 %_93.i
  store i8 46, ptr %_96.i, align 1
  %53 = getelementptr i8, ptr %_6.i, i64 %44
  %54 = getelementptr i8, ptr %53, i64 1
  br label %_RINvCs1mlux5qRKEq_4zmij5writefEB2_.exit

_RINvCs1mlux5qRKEq_4zmij5writefEB2_.exit:         ; preds = %bb11.i, %bb40.i, %bb36.i, %bb39.i, %bb38.i
  %_0.sroa.0.0.i = phi ptr [ %33, %bb11.i ], [ %50, %bb36.i ], [ %54, %bb38.i ], [ %52, %bb39.i ], [ %48, %bb40.i ]
  ret ptr %_0.sroa.0.0.i
}

; <f64 as zmij::private::Sealed>::write_to_zmij_buffer
; Function Attrs: uwtable
define noundef ptr @_RNvXs_NtCs1mlux5qRKEq_4zmij7privatedNtB4_6Sealed20write_to_zmij_buffer(double noundef %self, ptr noundef captures(ret: address, provenance) initializes((0, 1)) %buffer) unnamed_addr #0 personality ptr @rust_eh_personality {
start:
  %_0.i.i = bitcast double %self to i64
  %0 = lshr i64 %_0.i.i, 52
  %_0.i1.i.i = and i64 %0, 2047
  %_0.i.i.i = and i64 %_0.i.i, 4503599627370495
  store i8 45, ptr %buffer, align 1
  %_0.i.lobit.i = lshr i64 %_0.i.i, 63
  %_6.i = getelementptr inbounds nuw i8, ptr %buffer, i64 %_0.i.lobit.i
  %1 = icmp eq i64 %_0.i1.i.i, 0
  br i1 %1, label %bb8.i, label %bb17.i

bb8.i:                                            ; preds = %start
  %_0.i22.i = icmp eq i64 %_0.i.i.i, 0
  br i1 %_0.i22.i, label %bb11.i, label %bb12.i

bb17.i:                                           ; preds = %start
  %_0.i23.i = or disjoint i64 %_0.i.i.i, 4503599627370496
  %_0.i24.i = icmp ne i64 %_0.i.i.i, 0
  %bin_exp.i.i = add nsw i64 %_0.i1.i.i, -1075
  br i1 %_0.i24.i, label %bb1.i.i, label %bb28.i.i

bb28.i.i:                                         ; preds = %bb12.i.i, %bb1.i.i, %bb17.i
; call zmij::to_decimal_schubfach::<u64>
  %2 = tail call fastcc { i64, i32 } @_RINvCs1mlux5qRKEq_4zmij20to_decimal_schubfachyEB2_(i64 noundef range(i64 4503599627370496, 0) %_0.i23.i, i64 noundef %bin_exp.i.i, i1 noundef zeroext %_0.i24.i)
  br label %_RINvCs1mlux5qRKEq_4zmij15to_decimal_fastdyEB2_.exit.i

bb1.i.i:                                          ; preds = %bb17.i
  %_68.i.i = zext i64 %bin_exp.i.i to i128
  %_67.i.i = mul nuw nsw i128 %_68.i.i, 5553026301478043648
  %_66.i.i = lshr i128 %_67.i.i, 64
  %dec_exp.i.i = trunc i128 %_66.i.i to i32
  %_70.i.i = getelementptr inbounds nuw i8, ptr @_RNvCs1mlux5qRKEq_4zmij10EXP_SHIFTS, i64 %_0.i1.i.i
  %3 = load i8, ptr %_70.i.i, align 1, !noundef !3
  %4 = tail call { ptr, ptr } asm sideeffect alignstack "/*${0}${1}*/", "=&r,=&r,0,1,~{cc},~{memory}"(ptr nonnull getelementptr inbounds nuw (i8, ptr @_RNvCs1mlux5qRKEq_4zmij18POW10_SIGNIFICANDS, i64 2592), ptr nonnull getelementptr inbounds nuw (i8, ptr @_RNvCs1mlux5qRKEq_4zmij18POW10_SIGNIFICANDS, i64 7528)) #7, !srcloc !2
  %5 = extractvalue { ptr, ptr } %4, 0
  %6 = extractvalue { ptr, ptr } %4, 1
  %_91.i.i = sext i32 %dec_exp.i.i to i64
  %_90.i.i = getelementptr inbounds i64, ptr %5, i64 %_91.i.i
  %pow10.i.i = load i64, ptr %_90.i.i, align 8, !noundef !3
  %_93.i.i = getelementptr inbounds i64, ptr %6, i64 %_91.i.i
  %pow101.i.i = load i64, ptr %_93.i.i, align 8, !noundef !3
  %7 = and i8 %3, 63
  %8 = zext nneg i8 %7 to i64
  %_0.i.i25.i = shl i64 %_0.i23.i, %8
  %_106.i.i = zext i64 %pow10.i.i to i128
  %_107.i.i = zext i64 %_0.i.i25.i to i128
  %_95.i.i = mul nuw i128 %_107.i.i, %_106.i.i
  %_97.i.i = trunc i128 %_95.i.i to i64
  %_108.i.i = zext i64 %pow101.i.i to i128
  %_100.i.i = mul nuw i128 %_108.i.i, %_107.i.i
  %_99.i.i = lshr i128 %_100.i.i, 64
  %_98.i.i = trunc nuw i128 %_99.i.i to i64
  %9 = add i64 %_98.i.i, %_97.i.i
  %_103.i.i = lshr i128 %_95.i.i, 64
  %_102.i.i = trunc nuw i128 %_103.i.i to i64
  %_105.i.i = icmp ult i64 %9, %_97.i.i
  %_104.i.i = zext i1 %_105.i.i to i64
  %p.i.i = add nuw i64 %_104.i.i, %_102.i.i
  %10 = icmp eq i64 %9, -9223372036854775808
  br i1 %10, label %bb28.i.i, label %bb12.i.i

bb12.i.i:                                         ; preds = %bb1.i.i
  %_113.i.i = zext i64 %p.i.i to i128
  %_112.i.i = mul nuw nsw i128 %_113.i.i, 1844674407370955162
  %_111.i.i = lshr i128 %_112.i.i, 64
  %div10.i.i = trunc nuw nsw i128 %_111.i.i to i64
  %_34.neg.i.i = mul i64 %div10.i.i, -10
  %11 = add i64 %_34.neg.i.i, %p.i.i
  %12 = tail call i64 asm sideeffect alignstack "/*${0}*/", "=&r,0,~{cc},~{memory}"(i64 %11) #7, !srcloc !4
  %scaled_sig_mod10.i.i = tail call i64 @llvm.fshl.i64(i64 %12, i64 %9, i64 60)
  %_45.i.i = sub i8 5, %3
  %13 = and i8 %_45.i.i, 63
  %14 = zext nneg i8 %13 to i64
  %scaled_half_ulp.i.i = lshr i64 %pow10.i.i, %14
  %upper.i.i = add i64 %scaled_sig_mod10.i.i, %scaled_half_ulp.i.i
  %_48.i.i = icmp eq i64 %scaled_sig_mod10.i.i, %scaled_half_ulp.i.i
  %15 = add i64 %upper.i.i, 6917529027641081857
  %_49.i.i = icmp ult i64 %15, 2
  %or.cond.i.i = or i1 %_48.i.i, %_49.i.i
  br i1 %or.cond.i.i, label %bb28.i.i, label %bb22.i.i

bb22.i.i:                                         ; preds = %bb12.i.i
  %round_up.i.i = icmp ugt i64 %upper.i.i, -6917529027641081857
  %_53.i.i = sub i64 %p.i.i, %12
  %.lobit.i.i = lshr i64 %9, 63
  %_57.i.i = add i64 %p.i.i, %.lobit.i.i
  %_62.i.i = icmp ult i64 %scaled_sig_mod10.i.i, %scaled_half_ulp.i.i
  %16 = select i1 %_62.i.i, i64 %_53.i.i, i64 %_57.i.i, !unpredictable !3
  %_64.i.i = add i64 %_53.i.i, 10
  %17 = select i1 %round_up.i.i, i64 %_64.i.i, i64 %16, !unpredictable !3
  %18 = insertvalue { i64, i32 } poison, i64 %17, 0
  %19 = insertvalue { i64, i32 } %18, i32 %dec_exp.i.i, 1
  br label %_RINvCs1mlux5qRKEq_4zmij15to_decimal_fastdyEB2_.exit.i

_RINvCs1mlux5qRKEq_4zmij15to_decimal_fastdyEB2_.exit.i: ; preds = %bb22.i.i, %bb28.i.i
  %.merged.i.i = phi { i64, i32 } [ %2, %bb28.i.i ], [ %19, %bb22.i.i ]
  %_26.0.i = extractvalue { i64, i32 } %.merged.i.i, 0
  %_26.1.i = extractvalue { i64, i32 } %.merged.i.i, 1
  br label %bb22.i

bb12.i:                                           ; preds = %bb8.i
; call zmij::to_decimal_schubfach::<u64>
  %20 = tail call fastcc { i64, i32 } @_RINvCs1mlux5qRKEq_4zmij20to_decimal_schubfachyEB2_(i64 noundef %_0.i.i.i, i64 noundef -1074, i1 noundef zeroext true)
  %_19.0.i = extractvalue { i64, i32 } %20, 0
  %_19.1.i = extractvalue { i64, i32 } %20, 1
  %_2332.i = icmp slt i64 %_19.0.i, 10000000000000000
  br i1 %_2332.i, label %bb15.i, label %bb22.i

bb11.i:                                           ; preds = %bb8.i
  store i8 48, ptr %_6.i, align 1
  %_15.i = getelementptr inbounds nuw i8, ptr %_6.i, i64 1
  store i8 46, ptr %_15.i, align 1
  %_17.i = getelementptr inbounds nuw i8, ptr %_6.i, i64 2
  store i8 48, ptr %_17.i, align 1
  %21 = getelementptr inbounds nuw i8, ptr %_6.i, i64 3
  br label %_RINvCs1mlux5qRKEq_4zmij5writedEB2_.exit

bb15.i:                                           ; preds = %bb12.i, %bb15.i
  %dec1.sroa.0.034.i = phi i32 [ %23, %bb15.i ], [ %_19.1.i, %bb12.i ]
  %dec.sroa.0.033.i = phi i64 [ %22, %bb15.i ], [ %_19.0.i, %bb12.i ]
  %22 = mul i64 %dec.sroa.0.033.i, 10
  %23 = add i32 %dec1.sroa.0.034.i, -1
  %_23.i = icmp slt i64 %22, 10000000000000000
  br i1 %_23.i, label %bb15.i, label %bb22.i

bb22.i:                                           ; preds = %bb15.i, %bb12.i, %_RINvCs1mlux5qRKEq_4zmij15to_decimal_fastdyEB2_.exit.i
  %dec.sroa.0.1.i = phi i64 [ %_26.0.i, %_RINvCs1mlux5qRKEq_4zmij15to_decimal_fastdyEB2_.exit.i ], [ %_19.0.i, %bb12.i ], [ %22, %bb15.i ]
  %dec1.sroa.0.1.i = phi i32 [ %_26.1.i, %_RINvCs1mlux5qRKEq_4zmij15to_decimal_fastdyEB2_.exit.i ], [ %_19.1.i, %bb12.i ], [ %23, %bb15.i ]
  %extra_digit.i = icmp sgt i64 %dec.sroa.0.1.i, 9999999999999999
  %_36.i = select i1 %extra_digit.i, i32 16, i32 15
  %24 = add i32 %_36.i, %dec1.sroa.0.1.i
  %_45.i = getelementptr inbounds nuw i8, ptr %_6.i, i64 1
  %25 = tail call ptr asm sideeffect alignstack "/*${0}*/", "=&r,0,~{cc},~{memory}"(ptr nonnull @_RNvNvCs1mlux5qRKEq_4zmij19write_significand179CONSTANTS) #7, !srcloc !5
  %26 = getelementptr inbounds nuw i8, ptr %25, i64 40
  %27 = load i64, ptr %26, align 8, !noundef !3
  %28 = tail call i64 asm sideeffect alignstack "/*${0}*/", "=&r,0,~{cc},~{memory}"(i64 %27) #7, !srcloc !6
  %29 = getelementptr inbounds nuw i8, ptr %25, i64 32
  %_11.i.i = load i64, ptr %29, align 16, !noundef !3
  %_76.i.i = zext i64 %dec.sroa.0.1.i to i128
  %_77.i.i = zext i64 %_11.i.i to i128
  %_10.i.i = mul nuw i128 %_77.i.i, %_76.i.i
  %_9.i.i = lshr i128 %_10.i.i, 90
  %abbccddee.i.i = trunc nuw nsw i128 %_9.i.i to i64
  %_13.i.i = mul i64 %28, %abbccddee.i.i
  %ffgghhii.i.i = sub i64 %dec.sroa.0.1.i, %_13.i.i
  %_17.i.i = mul nuw nsw i128 %_9.i.i, %_77.i.i
  %_16.i.i = lshr i128 %_17.i.i, 90
  %a.i.i = trunc nuw nsw i128 %_16.i.i to i64
  %_19.i.i = mul i64 %28, %a.i.i
  %bbccddee.i.i = sub i64 %abbccddee.i.i, %_19.i.i
  %_79.i.i = trunc i128 %_16.i.i to i8
  %30 = add i8 %_79.i.i, 48
  store i8 %30, ptr %_45.i, align 1
  %_80.i.i = zext i1 %extra_digit.i to i64
  %_20.i.i = getelementptr inbounds nuw i8, ptr %_45.i, i64 %_80.i.i
  %_24.i.i = shl i64 %ffgghhii.i.i, 32
  %_23.i.i = or i64 %bbccddee.i.i, %_24.i.i
  %31 = bitcast i64 %_23.i.i to <2 x i32>
  %_32.i.i = load <4 x i32>, ptr %25, align 16
  %32 = shufflevector <4 x i32> %_32.i.i, <4 x i32> poison, <2 x i32> zeroinitializer
  %33 = tail call <2 x i32> @llvm.aarch64.neon.sqdmulh.v2i32(<2 x i32> %31, <2 x i32> %32)
  %34 = lshr <2 x i32> %33, splat (i32 9)
  %35 = shufflevector <4 x i32> %_32.i.i, <4 x i32> poison, <2 x i32> <i32 1, i32 1>
  %36 = mul <2 x i32> %34, %35
  %37 = add <2 x i32> %36, %31
  %38 = bitcast <2 x i32> %37 to <4 x i16>
  %39 = zext <4 x i16> %38 to <4 x i32>
  %40 = tail call <4 x i32> asm sideeffect alignstack "/*${0}*/", "=&w,0,~{cc},~{memory}"(<4 x i32> %39) #7, !srcloc !7
  %_44.i.i = load <4 x i32>, ptr %25, align 16
  %41 = shufflevector <4 x i32> %_44.i.i, <4 x i32> poison, <4 x i32> <i32 2, i32 2, i32 2, i32 2>
  %42 = tail call <4 x i32> @llvm.aarch64.neon.sqdmulh.v4i32(<4 x i32> %40, <4 x i32> %41)
  %43 = shufflevector <4 x i32> %_44.i.i, <4 x i32> poison, <4 x i32> <i32 3, i32 3, i32 3, i32 3>
  %44 = mul <4 x i32> %42, %43
  %45 = add <4 x i32> %44, %40
  %46 = bitcast <4 x i32> %45 to <8 x i16>
  %47 = getelementptr inbounds nuw i8, ptr %25, i64 16
  %_53.i26.i = load <8 x i16>, ptr %47, align 16
  %48 = shufflevector <8 x i16> %_53.i26.i, <8 x i16> poison, <8 x i32> zeroinitializer
  %49 = tail call <8 x i16> @llvm.aarch64.neon.sqdmulh.v8i16(<8 x i16> %46, <8 x i16> %48)
  %50 = shufflevector <8 x i16> %_53.i26.i, <8 x i16> poison, <8 x i32> <i32 1, i32 1, i32 1, i32 1, i32 1, i32 1, i32 1, i32 1>
  %51 = mul <8 x i16> %49, %50
  %52 = add <8 x i16> %51, %46
  %53 = bitcast <8 x i16> %52 to <16 x i8>
  %54 = shufflevector <16 x i8> %53, <16 x i8> poison, <16 x i32> <i32 7, i32 6, i32 5, i32 4, i32 3, i32 2, i32 1, i32 0, i32 15, i32 14, i32 13, i32 12, i32 11, i32 10, i32 9, i32 8>
  %55 = bitcast <16 x i8> %54 to <8 x i16>
  %56 = add <8 x i16> %55, splat (i16 12336)
  store <8 x i16> %56, ptr %_20.i.i, align 1
  %57 = icmp sgt <16 x i8> %54, zeroinitializer
  %58 = sext <16 x i1> %57 to <16 x i8>
  %59 = bitcast <16 x i8> %58 to <8 x i16>
  %60 = lshr <8 x i16> %59, splat (i16 4)
  %61 = trunc <8 x i16> %60 to <8 x i8>
  %62 = bitcast <8 x i8> %61 to i64
  %63 = tail call range(i64 0, 65) i64 @llvm.ctlz.i64(i64 %62, i1 false)
  %_73.i.i = lshr i64 %63, 2
  %reass.sub.i = sub nsw i64 %_80.i.i, %_73.i.i
  %64 = add nsw i64 %reass.sub.i, 16
  %65 = add i32 %24, 5
  %or.cond.i = icmp ult i32 %65, 21
  br i1 %or.cond.i, label %bb35.i, label %bb40.i

bb35.i:                                           ; preds = %bb22.i
  %_64.i = trunc nuw nsw i64 %64 to i32
  %_63.i = add nsw i32 %_64.i, -1
  %_62.not.i = icmp sgt i32 %_63.i, %24
  br i1 %_62.not.i, label %bb37.i, label %bb36.i

bb40.i:                                           ; preds = %bb22.i
  %_122.i = load i8, ptr %_45.i, align 1, !noundef !3
  store i8 %_122.i, ptr %_6.i, align 1
  store i8 46, ptr %_45.i, align 1
  %_130.i = icmp samesign ugt i64 %64, 1
  %_129.i = zext i1 %_130.i to i64
  %66 = getelementptr i8, ptr %_6.i, i64 %64
  %_127.i = getelementptr i8, ptr %66, i64 %_129.i
  %_133.i = icmp sgt i32 %24, -1
  %..i = select i1 %_133.i, i16 11109, i16 11621
  %_135.i = getelementptr inbounds nuw i8, ptr %_127.i, i64 1
  %_136.sroa.0.0.i = tail call i32 @llvm.abs.i32(i32 %24, i1 false)
  %_142.i = icmp sgt i32 %_136.sroa.0.0.i, 9
  %_141.i = zext i1 %_142.i to i64
  %_140.i = getelementptr inbounds nuw i8, ptr %_135.i, i64 %_141.i
  %_153.i = sext i32 %_136.sroa.0.0.i to i64
  %_181.i = zext i64 %_153.i to i128
  %_180.i = mul nuw nsw i128 %_181.i, 184647584722190336
  %_179.i = lshr i128 %_180.i, 64
  %digit.i = trunc i128 %_179.i to i32
  %_155.i = trunc i128 %_179.i to i8
  %67 = add i8 %_155.i, 48
  store i8 %67, ptr %_140.i, align 1
  %_158.i = icmp sgt i32 %_136.sroa.0.0.i, 99
  %_157.i = zext i1 %_158.i to i64
  %_156.i = getelementptr inbounds nuw i8, ptr %_140.i, i64 %_157.i
  %_166.neg.i = mul i32 %digit.i, -100
  %_163.i = add i32 %_166.neg.i, %_136.sroa.0.0.i
  %_162.i = zext i32 %_163.i to i64
  %_182.i = getelementptr inbounds nuw i16, ptr @_RNvCs1mlux5qRKEq_4zmij7DIGITS2, i64 %_162.i
  %68 = load i16, ptr %_182.i, align 2, !noundef !3
  store i16 %68, ptr %_156.i, align 1
  store i16 %..i, ptr %_127.i, align 1
  %69 = getelementptr inbounds nuw i8, ptr %_156.i, i64 2
  br label %_RINvCs1mlux5qRKEq_4zmij5writedEB2_.exit

bb37.i:                                           ; preds = %bb35.i
  %_86.i = icmp sgt i32 %24, -1
  br i1 %_86.i, label %bb38.i, label %bb39.i

bb36.i:                                           ; preds = %bb35.i
  tail call void @llvm.memmove.p0.p0.i64(ptr nonnull align 1 %_6.i, ptr nonnull align 1 %_45.i, i64 %64, i1 false)
  %_72.i = getelementptr inbounds nuw i8, ptr %_6.i, i64 %64
  %_76.i = sext i32 %24 to i64
  %_75.i = add nsw i64 %_76.i, 3
  %_74.i = sub nsw i64 %_75.i, %64
  tail call void @llvm.memset.p0.i64(ptr nonnull align 1 %_72.i, i8 48, i64 %_74.i, i1 false)
  %70 = getelementptr i8, ptr %_6.i, i64 %_76.i
  %_78.i = getelementptr i8, ptr %70, i64 1
  store i8 46, ptr %_78.i, align 1
  %71 = getelementptr inbounds nuw i8, ptr %_6.i, i64 %_75.i
  br label %_RINvCs1mlux5qRKEq_4zmij5writedEB2_.exit

bb39.i:                                           ; preds = %bb37.i
  %_109.i = sub nsw i32 1, %24
  %_108.i = zext nneg i32 %_109.i to i64
  %_106.i = getelementptr inbounds nuw i8, ptr %_6.i, i64 %_108.i
  tail call void @llvm.memmove.p0.p0.i64(ptr nonnull align 1 %_106.i, ptr nonnull align 1 %_45.i, i64 %64, i1 false)
  tail call void @llvm.memset.p0.i64(ptr nonnull align 1 %_6.i, i8 48, i64 %_108.i, i1 false)
  store i8 46, ptr %_45.i, align 1
  %72 = getelementptr i8, ptr %_6.i, i64 %64
  %73 = getelementptr i8, ptr %72, i64 %_108.i
  br label %_RINvCs1mlux5qRKEq_4zmij5writedEB2_.exit

bb38.i:                                           ; preds = %bb37.i
  %narrow.i = add nuw nsw i32 %24, 1
  %_93.i = zext nneg i32 %narrow.i to i64
  tail call void @llvm.memmove.p0.p0.i64(ptr noundef nonnull align 1 dereferenceable(1) %_6.i, ptr noundef nonnull align 1 dereferenceable(1) %_45.i, i64 %_93.i, i1 false)
  %_96.i = getelementptr inbounds nuw i8, ptr %_6.i, i64 %_93.i
  store i8 46, ptr %_96.i, align 1
  %74 = getelementptr i8, ptr %_6.i, i64 %64
  %75 = getelementptr i8, ptr %74, i64 1
  br label %_RINvCs1mlux5qRKEq_4zmij5writedEB2_.exit

_RINvCs1mlux5qRKEq_4zmij5writedEB2_.exit:         ; preds = %bb11.i, %bb40.i, %bb36.i, %bb39.i, %bb38.i
  %_0.sroa.0.1.i = phi ptr [ %69, %bb40.i ], [ %21, %bb11.i ], [ %71, %bb36.i ], [ %75, %bb38.i ], [ %73, %bb39.i ]
  ret ptr %_0.sroa.0.1.i
}

declare i32 @rust_eh_personality(...) unnamed_addr #1

; Function Attrs: mustprogress nocallback nofree nounwind willreturn memory(argmem: readwrite)
declare void @llvm.memmove.p0.p0.i64(ptr writeonly captures(none), ptr readonly captures(none), i64, i1 immarg) #2

; Function Attrs: mustprogress nocallback nofree nounwind willreturn memory(argmem: write)
declare void @llvm.memset.p0.i64(ptr writeonly captures(none), i8, i64, i1 immarg) #3

; Function Attrs: mustprogress nocallback nofree nosync nounwind speculatable willreturn memory(none)
declare i64 @llvm.bswap.i64(i64) #4

; Function Attrs: mustprogress nocallback nofree nosync nounwind speculatable willreturn memory(none)
declare i64 @llvm.ctlz.i64(i64, i1 immarg) #4

; Function Attrs: mustprogress nocallback nofree nosync nounwind willreturn memory(none)
declare <2 x i32> @llvm.aarch64.neon.sqdmulh.v2i32(<2 x i32>, <2 x i32>) unnamed_addr #5

; Function Attrs: mustprogress nocallback nofree nosync nounwind willreturn memory(none)
declare <8 x i16> @llvm.aarch64.neon.sqdmulh.v8i16(<8 x i16>, <8 x i16>) unnamed_addr #5

; Function Attrs: mustprogress nocallback nofree nosync nounwind willreturn memory(none)
declare <4 x i32> @llvm.aarch64.neon.sqdmulh.v4i32(<4 x i32>, <4 x i32>) unnamed_addr #5

; Function Attrs: nocallback nofree nosync nounwind speculatable willreturn memory(none)
declare i64 @llvm.fshl.i64(i64, i64, i64) #6

; Function Attrs: nocallback nofree nosync nounwind speculatable willreturn memory(none)
declare i32 @llvm.abs.i32(i32, i1 immarg) #6

attributes #0 = { uwtable "frame-pointer"="non-leaf" "probe-stack"="inline-asm" "target-cpu"="apple-m1" }
attributes #1 = { "target-cpu"="apple-m1" }
attributes #2 = { mustprogress nocallback nofree nounwind willreturn memory(argmem: readwrite) }
attributes #3 = { mustprogress nocallback nofree nounwind willreturn memory(argmem: write) }
attributes #4 = { mustprogress nocallback nofree nosync nounwind speculatable willreturn memory(none) }
attributes #5 = { mustprogress nocallback nofree nosync nounwind willreturn memory(none) }
attributes #6 = { nocallback nofree nosync nounwind speculatable willreturn memory(none) }
attributes #7 = { nounwind }

!llvm.module.flags = !{!0}
!llvm.ident = !{!1}

!0 = !{i32 8, !"PIC Level", i32 2}
!1 = !{!"rustc version 1.95.0-nightly (39052daf9 2026-01-22)"}
!2 = !{i64 29669634087666}
!3 = !{}
!4 = !{i64 144469814969182}
!5 = !{i64 78928614016962}
!6 = !{i64 79886391724193}
!7 = !{i64 86758339399392}
